Archive member included to satisfy reference by file (symbol)

./234-t194/tegra/t194/release/lib/libc.a(assert.o)
                              ./234-t194/tegra/t194/release/bl31/bl31_context_mgmt.o (__assert)
./234-t194/tegra/t194/release/lib/libc.a(memcmp.o)
                              ./234-t194/tegra/t194/release/bl31/intf.o (memcmp)
./234-t194/tegra/t194/release/lib/libc.a(memcpy.o)
                              ./234-t194/tegra/t194/release/bl31/context_mgmt.o (memcpy)
./234-t194/tegra/t194/release/lib/libc.a(memmove.o)
                              ./234-t194/tegra/t194/release/bl31/xlat_tables_core.o (memmove)
./234-t194/tegra/t194/release/lib/libc.a(memset.o)
                              ./234-t194/tegra/t194/release/bl31/runtime_svc.o (memset)
./234-t194/tegra/t194/release/lib/libc.a(printf.o)
                              ./234-t194/tegra/t194/release/bl31/tf_log.o (vprintf)
./234-t194/tegra/t194/release/lib/libc.a(putchar.o)
                              ./234-t194/tegra/t194/release/bl31/tf_log.o (putchar)
./234-t194/tegra/t194/release/lib/libc.a(strlen.o)
                              ./234-t194/tegra/t194/release/bl31/profiler.o (strlen)
./234-t194/tegra/t194/release/lib/libc.a(snprintf.o)
                              ./234-t194/tegra/t194/release/bl31/profiler.o (snprintf)
./234-t194/tegra/t194/release/lib/libc.a(setjmp.o)
                              ./234-t194/tegra/t194/release/bl31/sdei_dispatch.o (setjmp)

Discarded input sections

 .text          0x0000000000000000        0x0 ./234-t194/tegra/t194/release/bl31/build_message.o
 .data          0x0000000000000000        0x0 ./234-t194/tegra/t194/release/bl31/build_message.o
 .bss           0x0000000000000000        0x0 ./234-t194/tegra/t194/release/bl31/build_message.o
 .text          0x0000000000000000        0x0 ./234-t194/tegra/t194/release/bl31/bl31_context_mgmt.o
 .data          0x0000000000000000        0x0 ./234-t194/tegra/t194/release/bl31/bl31_context_mgmt.o
 .bss           0x0000000000000000        0x0 ./234-t194/tegra/t194/release/bl31/bl31_context_mgmt.o
 .rodata.get_cpu_context_index.part.0.str1.1
                0x0000000000000000       0x40 ./234-t194/tegra/t194/release/bl31/bl31_context_mgmt.o
 .text.get_cpu_context_index.part.0
                0x0000000000000000       0x20 ./234-t194/tegra/t194/release/bl31/bl31_context_mgmt.o
 .eh_frame      0x0000000000000000       0xb8 ./234-t194/tegra/t194/release/bl31/bl31_context_mgmt.o
 .text          0x0000000000000000        0x0 ./234-t194/tegra/t194/release/bl31/bl31_main.o
 .data          0x0000000000000000        0x0 ./234-t194/tegra/t194/release/bl31/bl31_main.o
 .bss           0x0000000000000000        0x0 ./234-t194/tegra/t194/release/bl31/bl31_main.o
 .text.bl31_lib_init
                0x0000000000000000        0x4 ./234-t194/tegra/t194/release/bl31/bl31_main.o
 .rodata.bl31_set_next_image_type.str1.1
                0x0000000000000000       0x23 ./234-t194/tegra/t194/release/bl31/bl31_main.o
 .text.bl31_set_next_image_type
                0x0000000000000000       0x34 ./234-t194/tegra/t194/release/bl31/bl31_main.o
 .text.bl31_get_next_image_type
                0x0000000000000000        0xc ./234-t194/tegra/t194/release/bl31/bl31_main.o
 .eh_frame      0x0000000000000000      0x100 ./234-t194/tegra/t194/release/bl31/bl31_main.o
 .text          0x0000000000000000        0x0 ./234-t194/tegra/t194/release/bl31/ehf.o
 .data          0x0000000000000000        0x0 ./234-t194/tegra/t194/release/bl31/ehf.o
 .bss           0x0000000000000000        0x0 ./234-t194/tegra/t194/release/bl31/ehf.o
 .rodata.ehf_allow_ns_preemption.str1.1
                0x0000000000000000       0x52 ./234-t194/tegra/t194/release/bl31/ehf.o
 .text.ehf_allow_ns_preemption
                0x0000000000000000       0x8c ./234-t194/tegra/t194/release/bl31/ehf.o
 .text.ehf_is_ns_preemption_allowed
                0x0000000000000000       0x48 ./234-t194/tegra/t194/release/bl31/ehf.o
 .eh_frame      0x0000000000000000      0x190 ./234-t194/tegra/t194/release/bl31/ehf.o
 .text          0x0000000000000000        0x0 ./234-t194/tegra/t194/release/bl31/interrupt_mgmt.o
 .data          0x0000000000000000        0x0 ./234-t194/tegra/t194/release/bl31/interrupt_mgmt.o
 .bss           0x0000000000000000        0x0 ./234-t194/tegra/t194/release/bl31/interrupt_mgmt.o
 .rodata.disable_intr_rm_local.str1.1
                0x0000000000000000       0x26 ./234-t194/tegra/t194/release/bl31/interrupt_mgmt.o
 .text.disable_intr_rm_local
                0x0000000000000000       0x60 ./234-t194/tegra/t194/release/bl31/interrupt_mgmt.o
 .text.enable_intr_rm_local
                0x0000000000000000       0x70 ./234-t194/tegra/t194/release/bl31/interrupt_mgmt.o
 .eh_frame      0x0000000000000000      0x120 ./234-t194/tegra/t194/release/bl31/interrupt_mgmt.o
 .text          0x0000000000000000        0x0 ./234-t194/tegra/t194/release/bl31/runtime_svc.o
 .data          0x0000000000000000        0x0 ./234-t194/tegra/t194/release/bl31/runtime_svc.o
 .bss           0x0000000000000000        0x0 ./234-t194/tegra/t194/release/bl31/runtime_svc.o
 .text.handle_runtime_svc
                0x0000000000000000       0x98 ./234-t194/tegra/t194/release/bl31/runtime_svc.o
 .eh_frame      0x0000000000000000       0x70 ./234-t194/tegra/t194/release/bl31/runtime_svc.o
 .text          0x0000000000000000        0x0 ./234-t194/tegra/t194/release/bl31/gicdv2_helpers.o
 .data          0x0000000000000000        0x0 ./234-t194/tegra/t194/release/bl31/gicdv2_helpers.o
 .bss           0x0000000000000000        0x0 ./234-t194/tegra/t194/release/bl31/gicdv2_helpers.o
 .text.gicd_read_isenabler
                0x0000000000000000       0x14 ./234-t194/tegra/t194/release/bl31/gicdv2_helpers.o
 .text.gicd_read_icenabler
                0x0000000000000000       0x14 ./234-t194/tegra/t194/release/bl31/gicdv2_helpers.o
 .text.gicd_read_ispendr
                0x0000000000000000       0x14 ./234-t194/tegra/t194/release/bl31/gicdv2_helpers.o
 .text.gicd_read_icpendr
                0x0000000000000000       0x14 ./234-t194/tegra/t194/release/bl31/gicdv2_helpers.o
 .text.gicd_read_icactiver
                0x0000000000000000       0x14 ./234-t194/tegra/t194/release/bl31/gicdv2_helpers.o
 .text.gicd_read_ipriorityr
                0x0000000000000000       0x10 ./234-t194/tegra/t194/release/bl31/gicdv2_helpers.o
 .text.gicd_read_nsacr
                0x0000000000000000       0x14 ./234-t194/tegra/t194/release/bl31/gicdv2_helpers.o
 .text.gicd_write_isactiver
                0x0000000000000000       0x14 ./234-t194/tegra/t194/release/bl31/gicdv2_helpers.o
 .text.gicd_write_icactiver
                0x0000000000000000       0x14 ./234-t194/tegra/t194/release/bl31/gicdv2_helpers.o
 .text.gicd_write_nsacr
                0x0000000000000000       0x14 ./234-t194/tegra/t194/release/bl31/gicdv2_helpers.o
 .text.gicd_set_isactiver
                0x0000000000000000        0xc ./234-t194/tegra/t194/release/bl31/gicdv2_helpers.o
 .text.gicd_set_icactiver
                0x0000000000000000        0xc ./234-t194/tegra/t194/release/bl31/gicdv2_helpers.o
 .eh_frame      0x0000000000000000      0x2d0 ./234-t194/tegra/t194/release/bl31/gicdv2_helpers.o
 .text          0x0000000000000000        0x0 ./234-t194/tegra/t194/release/bl31/gicv2_helpers.o
 .data          0x0000000000000000        0x0 ./234-t194/tegra/t194/release/bl31/gicv2_helpers.o
 .bss           0x0000000000000000        0x0 ./234-t194/tegra/t194/release/bl31/gicv2_helpers.o
 .text.gicd_read_itargetsr
                0x0000000000000000       0x10 ./234-t194/tegra/t194/release/bl31/gicv2_helpers.o
 .text.gicd_read_cpendsgir
                0x0000000000000000       0x10 ./234-t194/tegra/t194/release/bl31/gicv2_helpers.o
 .text.gicd_read_spendsgir
                0x0000000000000000       0x10 ./234-t194/tegra/t194/release/bl31/gicv2_helpers.o
 .text.gicd_write_itargetsr
                0x0000000000000000       0x10 ./234-t194/tegra/t194/release/bl31/gicv2_helpers.o
 .text.gicd_write_cpendsgir
                0x0000000000000000       0x10 ./234-t194/tegra/t194/release/bl31/gicv2_helpers.o
 .text.gicd_write_spendsgir
                0x0000000000000000       0x10 ./234-t194/tegra/t194/release/bl31/gicv2_helpers.o
 .eh_frame      0x0000000000000000      0x138 ./234-t194/tegra/t194/release/bl31/gicv2_helpers.o
 .text          0x0000000000000000        0x0 ./234-t194/tegra/t194/release/bl31/gicv2_main.o
 .data          0x0000000000000000        0x0 ./234-t194/tegra/t194/release/bl31/gicv2_main.o
 .bss           0x0000000000000000        0x0 ./234-t194/tegra/t194/release/bl31/gicv2_main.o
 .text.gicv2_get_pending_interrupt_id
                0x0000000000000000       0x64 ./234-t194/tegra/t194/release/bl31/gicv2_main.o
 .text.gicv2_interrupt_set_cfg
                0x0000000000000000       0x18 ./234-t194/tegra/t194/release/bl31/gicv2_main.o
 .eh_frame      0x0000000000000000      0x328 ./234-t194/tegra/t194/release/bl31/gicv2_main.o
 .text          0x0000000000000000        0x0 ./234-t194/tegra/t194/release/bl31/delay_timer.o
 .data          0x0000000000000000        0x0 ./234-t194/tegra/t194/release/bl31/delay_timer.o
 .bss           0x0000000000000000        0x0 ./234-t194/tegra/t194/release/bl31/delay_timer.o
 .eh_frame      0x0000000000000000       0x80 ./234-t194/tegra/t194/release/bl31/delay_timer.o
 .text          0x0000000000000000        0x0 ./234-t194/tegra/t194/release/bl31/io_storage.o
 .data          0x0000000000000000        0x0 ./234-t194/tegra/t194/release/bl31/io_storage.o
 .bss           0x0000000000000000        0x0 ./234-t194/tegra/t194/release/bl31/io_storage.o
 .text.is_valid_dev
                0x0000000000000000       0x38 ./234-t194/tegra/t194/release/bl31/io_storage.o
 .text.is_valid_entity
                0x0000000000000000       0x30 ./234-t194/tegra/t194/release/bl31/io_storage.o
 .rodata.io_register_device.str1.1
                0x0000000000000000       0x29 ./234-t194/tegra/t194/release/bl31/io_storage.o
 .text.io_register_device
                0x0000000000000000       0x2c ./234-t194/tegra/t194/release/bl31/io_storage.o
 .rodata.io_dev_open.str1.1
                0x0000000000000000       0x2f ./234-t194/tegra/t194/release/bl31/io_storage.o
 .text.io_dev_open
                0x0000000000000000       0x58 ./234-t194/tegra/t194/release/bl31/io_storage.o
 .rodata.io_dev_init.str1.1
                0x0000000000000000       0x37 ./234-t194/tegra/t194/release/bl31/io_storage.o
 .text.io_dev_init
                0x0000000000000000       0x80 ./234-t194/tegra/t194/release/bl31/io_storage.o
 .text.io_dev_close
                0x0000000000000000       0x78 ./234-t194/tegra/t194/release/bl31/io_storage.o
 .rodata.io_open.str1.1
                0x0000000000000000       0x2e ./234-t194/tegra/t194/release/bl31/io_storage.o
 .text.io_open  0x0000000000000000       0x54 ./234-t194/tegra/t194/release/bl31/io_storage.o
 .rodata.io_seek.str1.1
                0x0000000000000000       0x34 ./234-t194/tegra/t194/release/bl31/io_storage.o
 .text.io_seek  0x0000000000000000       0x90 ./234-t194/tegra/t194/release/bl31/io_storage.o
 .rodata.io_size.str1.1
                0x0000000000000000       0x2c ./234-t194/tegra/t194/release/bl31/io_storage.o
 .text.io_size  0x0000000000000000       0x74 ./234-t194/tegra/t194/release/bl31/io_storage.o
 .rodata.io_read.str1.1
                0x0000000000000000       0x18 ./234-t194/tegra/t194/release/bl31/io_storage.o
 .text.io_read  0x0000000000000000       0x8c ./234-t194/tegra/t194/release/bl31/io_storage.o
 .text.io_write
                0x0000000000000000       0x8c ./234-t194/tegra/t194/release/bl31/io_storage.o
 .rodata.io_close.str1.1
                0x0000000000000000        0xf ./234-t194/tegra/t194/release/bl31/io_storage.o
 .text.io_close
                0x0000000000000000       0x74 ./234-t194/tegra/t194/release/bl31/io_storage.o
 .comment       0x0000000000000000       0x20 ./234-t194/tegra/t194/release/bl31/io_storage.o
 .note.GNU-stack
                0x0000000000000000        0x0 ./234-t194/tegra/t194/release/bl31/io_storage.o
 .eh_frame      0x0000000000000000      0x208 ./234-t194/tegra/t194/release/bl31/io_storage.o
 .text          0x0000000000000000        0x0 ./234-t194/tegra/t194/release/bl31/errata_report.o
 .data          0x0000000000000000        0x0 ./234-t194/tegra/t194/release/bl31/errata_report.o
 .bss           0x0000000000000000        0x0 ./234-t194/tegra/t194/release/bl31/errata_report.o
 .text.errata_needs_reporting
                0x0000000000000000       0x60 ./234-t194/tegra/t194/release/bl31/errata_report.o
 .rodata.errata_print_msg.str1.1
                0x0000000000000000       0x57 ./234-t194/tegra/t194/release/bl31/errata_report.o
 .text.errata_print_msg
                0x0000000000000000       0x58 ./234-t194/tegra/t194/release/bl31/errata_report.o
 .comment       0x0000000000000000       0x20 ./234-t194/tegra/t194/release/bl31/errata_report.o
 .note.GNU-stack
                0x0000000000000000        0x0 ./234-t194/tegra/t194/release/bl31/errata_report.o
 .eh_frame      0x0000000000000000       0x60 ./234-t194/tegra/t194/release/bl31/errata_report.o
 .text          0x0000000000000000        0x0 ./234-t194/tegra/t194/release/bl31/context_mgmt.o
 .data          0x0000000000000000        0x0 ./234-t194/tegra/t194/release/bl31/context_mgmt.o
 .bss           0x0000000000000000        0x0 ./234-t194/tegra/t194/release/bl31/context_mgmt.o
 .text.cm_get_scr_el3
                0x0000000000000000       0x34 ./234-t194/tegra/t194/release/bl31/context_mgmt.o
 .eh_frame      0x0000000000000000      0x1c0 ./234-t194/tegra/t194/release/bl31/context_mgmt.o
 .text          0x0000000000000000        0x0 ./234-t194/tegra/t194/release/bl31/cpu_data_array.o
 .data          0x0000000000000000        0x0 ./234-t194/tegra/t194/release/bl31/cpu_data_array.o
 .bss           0x0000000000000000        0x0 ./234-t194/tegra/t194/release/bl31/cpu_data_array.o
 .text          0x0000000000000000        0x0 ./234-t194/tegra/t194/release/bl31/ras_common.o
 .data          0x0000000000000000        0x0 ./234-t194/tegra/t194/release/bl31/ras_common.o
 .bss           0x0000000000000000        0x0 ./234-t194/tegra/t194/release/bl31/ras_common.o
 .text.ras_interrupt_handler
                0x0000000000000000      0x140 ./234-t194/tegra/t194/release/bl31/ras_common.o
 .rodata.ras_init.str1.1
                0x0000000000000000       0x1c ./234-t194/tegra/t194/release/bl31/ras_common.o
 .text.ras_init
                0x0000000000000000       0x74 ./234-t194/tegra/t194/release/bl31/ras_common.o
 .eh_frame      0x0000000000000000       0xb8 ./234-t194/tegra/t194/release/bl31/ras_common.o
 .text          0x0000000000000000        0x0 ./234-t194/tegra/t194/release/bl31/std_err_record.o
 .data          0x0000000000000000        0x0 ./234-t194/tegra/t194/release/bl31/std_err_record.o
 .bss           0x0000000000000000        0x0 ./234-t194/tegra/t194/release/bl31/std_err_record.o
 .text.ser_probe_memmap
                0x0000000000000000       0x90 ./234-t194/tegra/t194/release/bl31/std_err_record.o
 .eh_frame      0x0000000000000000       0x58 ./234-t194/tegra/t194/release/bl31/std_err_record.o
 .text          0x0000000000000000        0x0 ./234-t194/tegra/t194/release/bl31/spe.o
 .data          0x0000000000000000        0x0 ./234-t194/tegra/t194/release/bl31/spe.o
 .bss           0x0000000000000000        0x0 ./234-t194/tegra/t194/release/bl31/spe.o
 .text.spe_disable
                0x0000000000000000       0x34 ./234-t194/tegra/t194/release/bl31/spe.o
 .eh_frame      0x0000000000000000       0x88 ./234-t194/tegra/t194/release/bl31/spe.o
 .text          0x0000000000000000        0x0 ./234-t194/tegra/t194/release/bl31/sve.o
 .data          0x0000000000000000        0x0 ./234-t194/tegra/t194/release/bl31/sve.o
 .bss           0x0000000000000000        0x0 ./234-t194/tegra/t194/release/bl31/sve.o
 .eh_frame      0x0000000000000000       0x40 ./234-t194/tegra/t194/release/bl31/sve.o
 .text          0x0000000000000000        0x0 ./234-t194/tegra/t194/release/bl31/bakery_lock_normal.o
 .data          0x0000000000000000        0x0 ./234-t194/tegra/t194/release/bl31/bakery_lock_normal.o
 .bss           0x0000000000000000        0x0 ./234-t194/tegra/t194/release/bl31/bakery_lock_normal.o
 .eh_frame      0x0000000000000000       0x68 ./234-t194/tegra/t194/release/bl31/bakery_lock_normal.o
 .text          0x0000000000000000        0x0 ./234-t194/tegra/t194/release/bl31/psci_common.o
 .data          0x0000000000000000        0x0 ./234-t194/tegra/t194/release/bl31/psci_common.o
 .bss           0x0000000000000000        0x0 ./234-t194/tegra/t194/release/bl31/psci_common.o
 .rodata.psci_secondaries_brought_up.str1.1
                0x0000000000000000        0xd ./234-t194/tegra/t194/release/bl31/psci_common.o
 .text.psci_secondaries_brought_up
                0x0000000000000000       0x60 ./234-t194/tegra/t194/release/bl31/psci_common.o
 .text.psci_stop_other_cores
                0x0000000000000000       0xb4 ./234-t194/tegra/t194/release/bl31/psci_common.o
 .eh_frame      0x0000000000000000      0x360 ./234-t194/tegra/t194/release/bl31/psci_common.o
 .text          0x0000000000000000        0x0 ./234-t194/tegra/t194/release/bl31/psci_main.o
 .data          0x0000000000000000        0x0 ./234-t194/tegra/t194/release/bl31/psci_main.o
 .bss           0x0000000000000000        0x0 ./234-t194/tegra/t194/release/bl31/psci_main.o
 .text.psci_version
                0x0000000000000000        0x8 ./234-t194/tegra/t194/release/bl31/psci_main.o
 .eh_frame      0x0000000000000000      0x1f0 ./234-t194/tegra/t194/release/bl31/psci_main.o
 .text          0x0000000000000000        0x0 ./234-t194/tegra/t194/release/bl31/psci_mem_protect.o
 .data          0x0000000000000000        0x0 ./234-t194/tegra/t194/release/bl31/psci_mem_protect.o
 .bss           0x0000000000000000        0x0 ./234-t194/tegra/t194/release/bl31/psci_mem_protect.o
 .eh_frame      0x0000000000000000       0x60 ./234-t194/tegra/t194/release/bl31/psci_mem_protect.o
 .text          0x0000000000000000        0x0 ./234-t194/tegra/t194/release/bl31/psci_off.o
 .data          0x0000000000000000        0x0 ./234-t194/tegra/t194/release/bl31/psci_off.o
 .bss           0x0000000000000000        0x0 ./234-t194/tegra/t194/release/bl31/psci_off.o
 .eh_frame      0x0000000000000000       0x40 ./234-t194/tegra/t194/release/bl31/psci_off.o
 .text          0x0000000000000000        0x0 ./234-t194/tegra/t194/release/bl31/psci_on.o
 .data          0x0000000000000000        0x0 ./234-t194/tegra/t194/release/bl31/psci_on.o
 .bss           0x0000000000000000        0x0 ./234-t194/tegra/t194/release/bl31/psci_on.o
 .eh_frame      0x0000000000000000       0x80 ./234-t194/tegra/t194/release/bl31/psci_on.o
 .text          0x0000000000000000        0x0 ./234-t194/tegra/t194/release/bl31/psci_setup.o
 .data          0x0000000000000000        0x0 ./234-t194/tegra/t194/release/bl31/psci_setup.o
 .bss           0x0000000000000000        0x0 ./234-t194/tegra/t194/release/bl31/psci_setup.o
 .rodata.psci_prepare_next_non_secure_ctx.str1.1
                0x0000000000000000       0x3a ./234-t194/tegra/t194/release/bl31/psci_setup.o
 .text.psci_prepare_next_non_secure_ctx
                0x0000000000000000       0x4c ./234-t194/tegra/t194/release/bl31/psci_setup.o
 .eh_frame      0x0000000000000000       0xa0 ./234-t194/tegra/t194/release/bl31/psci_setup.o
 .text          0x0000000000000000        0x0 ./234-t194/tegra/t194/release/bl31/psci_suspend.o
 .data          0x0000000000000000        0x0 ./234-t194/tegra/t194/release/bl31/psci_suspend.o
 .bss           0x0000000000000000        0x0 ./234-t194/tegra/t194/release/bl31/psci_suspend.o
 .eh_frame      0x0000000000000000       0x80 ./234-t194/tegra/t194/release/bl31/psci_suspend.o
 .text          0x0000000000000000        0x0 ./234-t194/tegra/t194/release/bl31/psci_system_off.o
 .data          0x0000000000000000        0x0 ./234-t194/tegra/t194/release/bl31/psci_system_off.o
 .bss           0x0000000000000000        0x0 ./234-t194/tegra/t194/release/bl31/psci_system_off.o
 .eh_frame      0x0000000000000000       0x80 ./234-t194/tegra/t194/release/bl31/psci_system_off.o
 .text          0x0000000000000000        0x0 ./234-t194/tegra/t194/release/bl31/plat_ehf.o
 .data          0x0000000000000000        0x0 ./234-t194/tegra/t194/release/bl31/plat_ehf.o
 .bss           0x0000000000000000        0x0 ./234-t194/tegra/t194/release/bl31/plat_ehf.o
 .text          0x0000000000000000        0x0 ./234-t194/tegra/t194/release/bl31/plat_gicv2.o
 .data          0x0000000000000000        0x0 ./234-t194/tegra/t194/release/bl31/plat_gicv2.o
 .bss           0x0000000000000000        0x0 ./234-t194/tegra/t194/release/bl31/plat_gicv2.o
 .text.plat_ic_get_pending_interrupt_id
                0x0000000000000000       0x1c ./234-t194/tegra/t194/release/bl31/plat_gicv2.o
 .eh_frame      0x0000000000000000      0x228 ./234-t194/tegra/t194/release/bl31/plat_gicv2.o
 .text          0x0000000000000000        0x0 ./234-t194/tegra/t194/release/bl31/tegra_bl31_setup.o
 .data          0x0000000000000000        0x0 ./234-t194/tegra/t194/release/bl31/tegra_bl31_setup.o
 .bss           0x0000000000000000        0x0 ./234-t194/tegra/t194/release/bl31/tegra_bl31_setup.o
 .eh_frame      0x0000000000000000       0xf8 ./234-t194/tegra/t194/release/bl31/tegra_bl31_setup.o
 .text          0x0000000000000000        0x0 ./234-t194/tegra/t194/release/bl31/tegra_delay_timer.o
 .data          0x0000000000000000        0x0 ./234-t194/tegra/t194/release/bl31/tegra_delay_timer.o
 .bss           0x0000000000000000        0x0 ./234-t194/tegra/t194/release/bl31/tegra_delay_timer.o
 .eh_frame      0x0000000000000000       0x48 ./234-t194/tegra/t194/release/bl31/tegra_delay_timer.o
 .text          0x0000000000000000        0x0 ./234-t194/tegra/t194/release/bl31/tegra_fiq_glue.o
 .data          0x0000000000000000        0x0 ./234-t194/tegra/t194/release/bl31/tegra_fiq_glue.o
 .bss           0x0000000000000000        0x0 ./234-t194/tegra/t194/release/bl31/tegra_fiq_glue.o
 .eh_frame      0x0000000000000000       0xa0 ./234-t194/tegra/t194/release/bl31/tegra_fiq_glue.o
 .text          0x0000000000000000        0x0 ./234-t194/tegra/t194/release/bl31/tegra_gicv2.o
 .data          0x0000000000000000        0x0 ./234-t194/tegra/t194/release/bl31/tegra_gicv2.o
 .bss           0x0000000000000000        0x0 ./234-t194/tegra/t194/release/bl31/tegra_gicv2.o
 .text.tegra_gic_register_ctx_ptr
                0x0000000000000000        0x4 ./234-t194/tegra/t194/release/bl31/tegra_gicv2.o
 .eh_frame      0x0000000000000000       0xc8 ./234-t194/tegra/t194/release/bl31/tegra_gicv2.o
 .text          0x0000000000000000        0x0 ./234-t194/tegra/t194/release/bl31/tegra_io_storage.o
 .data          0x0000000000000000        0x0 ./234-t194/tegra/t194/release/bl31/tegra_io_storage.o
 .bss           0x0000000000000000        0x0 ./234-t194/tegra/t194/release/bl31/tegra_io_storage.o
 .text.plat_get_image_source
                0x0000000000000000        0x8 ./234-t194/tegra/t194/release/bl31/tegra_io_storage.o
 .comment       0x0000000000000000       0x20 ./234-t194/tegra/t194/release/bl31/tegra_io_storage.o
 .note.GNU-stack
                0x0000000000000000        0x0 ./234-t194/tegra/t194/release/bl31/tegra_io_storage.o
 .eh_frame      0x0000000000000000       0x28 ./234-t194/tegra/t194/release/bl31/tegra_io_storage.o
 .text          0x0000000000000000        0x0 ./234-t194/tegra/t194/release/bl31/tegra_platform.o
 .data          0x0000000000000000        0x0 ./234-t194/tegra/t194/release/bl31/tegra_platform.o
 .bss           0x0000000000000000        0x0 ./234-t194/tegra/t194/release/bl31/tegra_platform.o
 .text.tegra_chipid_is_t186
                0x0000000000000000       0x1c ./234-t194/tegra/t194/release/bl31/tegra_platform.o
 .text.tegra_chipid_is_t210
                0x0000000000000000       0x1c ./234-t194/tegra/t194/release/bl31/tegra_platform.o
 .text.tegra_chipid_is_t210_b01
                0x0000000000000000       0x30 ./234-t194/tegra/t194/release/bl31/tegra_platform.o
 .text.tegra_chipid_is_t239
                0x0000000000000000       0x3c ./234-t194/tegra/t194/release/bl31/tegra_platform.o
 .text.tegra_platform_is_emulation
                0x0000000000000000       0x1c ./234-t194/tegra/t194/release/bl31/tegra_platform.o
 .text.tegra_platform_is_unit_fpga
                0x0000000000000000       0x1c ./234-t194/tegra/t194/release/bl31/tegra_platform.o
 .text.tegra_platform_is_vsp
                0x0000000000000000       0x1c ./234-t194/tegra/t194/release/bl31/tegra_platform.o
 .eh_frame      0x0000000000000000      0x228 ./234-t194/tegra/t194/release/bl31/tegra_platform.o
 .text          0x0000000000000000        0x0 ./234-t194/tegra/t194/release/bl31/tegra_pm.o
 .data          0x0000000000000000        0x0 ./234-t194/tegra/t194/release/bl31/tegra_pm.o
 .bss           0x0000000000000000        0x0 ./234-t194/tegra/t194/release/bl31/tegra_pm.o
 .eh_frame      0x0000000000000000      0x1a8 ./234-t194/tegra/t194/release/bl31/tegra_pm.o
 .text          0x0000000000000000        0x0 ./234-t194/tegra/t194/release/bl31/tegra_sdei.o
 .data          0x0000000000000000        0x0 ./234-t194/tegra/t194/release/bl31/tegra_sdei.o
 .bss           0x0000000000000000        0x0 ./234-t194/tegra/t194/release/bl31/tegra_sdei.o
 .eh_frame      0x0000000000000000       0x28 ./234-t194/tegra/t194/release/bl31/tegra_sdei.o
 .text          0x0000000000000000        0x0 ./234-t194/tegra/t194/release/bl31/tegra_sip_calls.o
 .data          0x0000000000000000        0x0 ./234-t194/tegra/t194/release/bl31/tegra_sip_calls.o
 .bss           0x0000000000000000        0x0 ./234-t194/tegra/t194/release/bl31/tegra_sip_calls.o
 .eh_frame      0x0000000000000000       0x48 ./234-t194/tegra/t194/release/bl31/tegra_sip_calls.o
 .text          0x0000000000000000        0x0 ./234-t194/tegra/t194/release/bl31/tegra_stack_protector.o
 .data          0x0000000000000000        0x0 ./234-t194/tegra/t194/release/bl31/tegra_stack_protector.o
 .bss           0x0000000000000000        0x0 ./234-t194/tegra/t194/release/bl31/tegra_stack_protector.o
 .eh_frame      0x0000000000000000       0x28 ./234-t194/tegra/t194/release/bl31/tegra_stack_protector.o
 .text          0x0000000000000000        0x0 ./234-t194/tegra/t194/release/bl31/intf.o
 .data          0x0000000000000000        0x0 ./234-t194/tegra/t194/release/bl31/intf.o
 .bss           0x0000000000000000        0x0 ./234-t194/tegra/t194/release/bl31/intf.o
 .text.tegra_bpmp_ipc_reset_module
                0x0000000000000000       0xc4 ./234-t194/tegra/t194/release/bl31/intf.o
 .rodata.__func__.2568
                0x0000000000000000       0x1c ./234-t194/tegra/t194/release/bl31/intf.o
 .eh_frame      0x0000000000000000      0x108 ./234-t194/tegra/t194/release/bl31/intf.o
 .text          0x0000000000000000        0x0 ./234-t194/tegra/t194/release/bl31/ivc.o
 .data          0x0000000000000000        0x0 ./234-t194/tegra/t194/release/bl31/ivc.o
 .bss           0x0000000000000000        0x0 ./234-t194/tegra/t194/release/bl31/ivc.o
 .text.tegra_ivc_can_read
                0x0000000000000000       0x1c ./234-t194/tegra/t194/release/bl31/ivc.o
 .text.tegra_ivc_can_write
                0x0000000000000000       0x1c ./234-t194/tegra/t194/release/bl31/ivc.o
 .text.tegra_ivc_tx_empty
                0x0000000000000000       0x30 ./234-t194/tegra/t194/release/bl31/ivc.o
 .text.tegra_ivc_read
                0x0000000000000000       0xbc ./234-t194/tegra/t194/release/bl31/ivc.o
 .text.tegra_ivc_write
                0x0000000000000000       0xd8 ./234-t194/tegra/t194/release/bl31/ivc.o
 .eh_frame      0x0000000000000000      0x260 ./234-t194/tegra/t194/release/bl31/ivc.o
 .text          0x0000000000000000        0x0 ./234-t194/tegra/t194/release/bl31/gpcdma.o
 .data          0x0000000000000000        0x0 ./234-t194/tegra/t194/release/bl31/gpcdma.o
 .bss           0x0000000000000000        0x0 ./234-t194/tegra/t194/release/bl31/gpcdma.o
 .rodata.tegra_gpcdma_memcpy_priv.str1.1
                0x0000000000000000       0x2f ./234-t194/tegra/t194/release/bl31/gpcdma.o
 .text.tegra_gpcdma_memcpy_priv
                0x0000000000000000      0x184 ./234-t194/tegra/t194/release/bl31/gpcdma.o
 .text.tegra_gpcdma_memcpy
                0x0000000000000000        0x8 ./234-t194/tegra/t194/release/bl31/gpcdma.o
 .text.tegra_gpcdma_zeromem
                0x0000000000000000       0x10 ./234-t194/tegra/t194/release/bl31/gpcdma.o
 .bss.init_done
                0x0000000000000000        0x1 ./234-t194/tegra/t194/release/bl31/gpcdma.o
 .comment       0x0000000000000000       0x20 ./234-t194/tegra/t194/release/bl31/gpcdma.o
 .note.GNU-stack
                0x0000000000000000        0x0 ./234-t194/tegra/t194/release/bl31/gpcdma.o
 .eh_frame      0x0000000000000000       0x80 ./234-t194/tegra/t194/release/bl31/gpcdma.o
 .text          0x0000000000000000        0x0 ./234-t194/tegra/t194/release/bl31/memctrl_v2.o
 .data          0x0000000000000000        0x0 ./234-t194/tegra/t194/release/bl31/memctrl_v2.o
 .bss           0x0000000000000000        0x0 ./234-t194/tegra/t194/release/bl31/memctrl_v2.o
 .text.tegra_memctrl_tzram_setup
                0x0000000000000000        0x4 ./234-t194/tegra/t194/release/bl31/memctrl_v2.o
 .eh_frame      0x0000000000000000      0x120 ./234-t194/tegra/t194/release/bl31/memctrl_v2.o
 .text          0x0000000000000000        0x0 ./234-t194/tegra/t194/release/bl31/smmu.o
 .data          0x0000000000000000        0x0 ./234-t194/tegra/t194/release/bl31/smmu.o
 .bss           0x0000000000000000        0x0 ./234-t194/tegra/t194/release/bl31/smmu.o
 .eh_frame      0x0000000000000000       0x90 ./234-t194/tegra/t194/release/bl31/smmu.o
 .text          0x0000000000000000        0x0 ./234-t194/tegra/t194/release/bl31/profiler.o
 .data          0x0000000000000000        0x0 ./234-t194/tegra/t194/release/bl31/profiler.o
 .bss           0x0000000000000000        0x0 ./234-t194/tegra/t194/release/bl31/profiler.o
 .eh_frame      0x0000000000000000       0x90 ./234-t194/tegra/t194/release/bl31/profiler.o
 .text          0x0000000000000000        0x0 ./234-t194/tegra/t194/release/bl31/mce.o
 .data          0x0000000000000000        0x0 ./234-t194/tegra/t194/release/bl31/mce.o
 .bss           0x0000000000000000        0x0 ./234-t194/tegra/t194/release/bl31/mce.o
 .eh_frame      0x0000000000000000      0x178 ./234-t194/tegra/t194/release/bl31/mce.o
 .text          0x0000000000000000        0x0 ./234-t194/tegra/t194/release/bl31/nvg.o
 .data          0x0000000000000000        0x0 ./234-t194/tegra/t194/release/bl31/nvg.o
 .bss           0x0000000000000000        0x0 ./234-t194/tegra/t194/release/bl31/nvg.o
 .eh_frame      0x0000000000000000      0x170 ./234-t194/tegra/t194/release/bl31/nvg.o
 .text          0x0000000000000000        0x0 ./234-t194/tegra/t194/release/bl31/se.o
 .data          0x0000000000000000        0x0 ./234-t194/tegra/t194/release/bl31/se.o
 .bss           0x0000000000000000        0x0 ./234-t194/tegra/t194/release/bl31/se.o
 .eh_frame      0x0000000000000000       0xa0 ./234-t194/tegra/t194/release/bl31/se.o
 .text          0x0000000000000000        0x0 ./234-t194/tegra/t194/release/bl31/plat_memctrl.o
 .data          0x0000000000000000        0x0 ./234-t194/tegra/t194/release/bl31/plat_memctrl.o
 .bss           0x0000000000000000        0x0 ./234-t194/tegra/t194/release/bl31/plat_memctrl.o
 .eh_frame      0x0000000000000000       0x68 ./234-t194/tegra/t194/release/bl31/plat_memctrl.o
 .text          0x0000000000000000        0x0 ./234-t194/tegra/t194/release/bl31/plat_psci_handlers.o
 .data          0x0000000000000000        0x0 ./234-t194/tegra/t194/release/bl31/plat_psci_handlers.o
 .bss           0x0000000000000000        0x0 ./234-t194/tegra/t194/release/bl31/plat_psci_handlers.o
 .eh_frame      0x0000000000000000      0x198 ./234-t194/tegra/t194/release/bl31/plat_psci_handlers.o
 .text          0x0000000000000000        0x0 ./234-t194/tegra/t194/release/bl31/plat_ras.o
 .data          0x0000000000000000        0x0 ./234-t194/tegra/t194/release/bl31/plat_ras.o
 .bss           0x0000000000000000        0x0 ./234-t194/tegra/t194/release/bl31/plat_ras.o
 .bss.carmel_ras_interrupts
                0x0000000000000000        0x0 ./234-t194/tegra/t194/release/bl31/plat_ras.o
 .rodata.ras_interrupt_mappings
                0x0000000000000000       0x10 ./234-t194/tegra/t194/release/bl31/plat_ras.o
 .eh_frame      0x0000000000000000      0x230 ./234-t194/tegra/t194/release/bl31/plat_ras.o
 .text          0x0000000000000000        0x0 ./234-t194/tegra/t194/release/bl31/plat_secondary.o
 .data          0x0000000000000000        0x0 ./234-t194/tegra/t194/release/bl31/plat_secondary.o
 .bss           0x0000000000000000        0x0 ./234-t194/tegra/t194/release/bl31/plat_secondary.o
 .eh_frame      0x0000000000000000       0x40 ./234-t194/tegra/t194/release/bl31/plat_secondary.o
 .text          0x0000000000000000        0x0 ./234-t194/tegra/t194/release/bl31/plat_setup.o
 .data          0x0000000000000000        0x0 ./234-t194/tegra/t194/release/bl31/plat_setup.o
 .bss           0x0000000000000000        0x0 ./234-t194/tegra/t194/release/bl31/plat_setup.o
 .eh_frame      0x0000000000000000      0x150 ./234-t194/tegra/t194/release/bl31/plat_setup.o
 .text          0x0000000000000000        0x0 ./234-t194/tegra/t194/release/bl31/plat_sip_calls.o
 .data          0x0000000000000000        0x0 ./234-t194/tegra/t194/release/bl31/plat_sip_calls.o
 .bss           0x0000000000000000        0x0 ./234-t194/tegra/t194/release/bl31/plat_sip_calls.o
 .eh_frame      0x0000000000000000       0x40 ./234-t194/tegra/t194/release/bl31/plat_sip_calls.o
 .text          0x0000000000000000        0x0 ./234-t194/tegra/t194/release/bl31/plat_smmu.o
 .data          0x0000000000000000        0x0 ./234-t194/tegra/t194/release/bl31/plat_smmu.o
 .bss           0x0000000000000000        0x0 ./234-t194/tegra/t194/release/bl31/plat_smmu.o
 .eh_frame      0x0000000000000000       0x28 ./234-t194/tegra/t194/release/bl31/plat_smmu.o
 .text          0x0000000000000000        0x0 ./234-t194/tegra/t194/release/bl31/arm_arch_svc_setup.o
 .data          0x0000000000000000        0x0 ./234-t194/tegra/t194/release/bl31/arm_arch_svc_setup.o
 .bss           0x0000000000000000        0x0 ./234-t194/tegra/t194/release/bl31/arm_arch_svc_setup.o
 .eh_frame      0x0000000000000000       0x38 ./234-t194/tegra/t194/release/bl31/arm_arch_svc_setup.o
 .text          0x0000000000000000        0x0 ./234-t194/tegra/t194/release/bl31/opteed_common.o
 .data          0x0000000000000000        0x0 ./234-t194/tegra/t194/release/bl31/opteed_common.o
 .bss           0x0000000000000000        0x0 ./234-t194/tegra/t194/release/bl31/opteed_common.o
 .eh_frame      0x0000000000000000       0x88 ./234-t194/tegra/t194/release/bl31/opteed_common.o
 .text          0x0000000000000000        0x0 ./234-t194/tegra/t194/release/bl31/opteed_main.o
 .data          0x0000000000000000        0x0 ./234-t194/tegra/t194/release/bl31/opteed_main.o
 .bss           0x0000000000000000        0x0 ./234-t194/tegra/t194/release/bl31/opteed_main.o
 .eh_frame      0x0000000000000000       0xc8 ./234-t194/tegra/t194/release/bl31/opteed_main.o
 .text          0x0000000000000000        0x0 ./234-t194/tegra/t194/release/bl31/opteed_pm.o
 .data          0x0000000000000000        0x0 ./234-t194/tegra/t194/release/bl31/opteed_pm.o
 .bss           0x0000000000000000        0x0 ./234-t194/tegra/t194/release/bl31/opteed_pm.o
 .eh_frame      0x0000000000000000      0x130 ./234-t194/tegra/t194/release/bl31/opteed_pm.o
 .text          0x0000000000000000        0x0 ./234-t194/tegra/t194/release/bl31/sdei_event.o
 .data          0x0000000000000000        0x0 ./234-t194/tegra/t194/release/bl31/sdei_event.o
 .bss           0x0000000000000000        0x0 ./234-t194/tegra/t194/release/bl31/sdei_event.o
 .eh_frame      0x0000000000000000       0x68 ./234-t194/tegra/t194/release/bl31/sdei_event.o
 .text          0x0000000000000000        0x0 ./234-t194/tegra/t194/release/bl31/sdei_intr_mgmt.o
 .data          0x0000000000000000        0x0 ./234-t194/tegra/t194/release/bl31/sdei_intr_mgmt.o
 .bss           0x0000000000000000        0x0 ./234-t194/tegra/t194/release/bl31/sdei_intr_mgmt.o
 .eh_frame      0x0000000000000000      0x1e8 ./234-t194/tegra/t194/release/bl31/sdei_intr_mgmt.o
 .text          0x0000000000000000        0x0 ./234-t194/tegra/t194/release/bl31/sdei_main.o
 .data          0x0000000000000000        0x0 ./234-t194/tegra/t194/release/bl31/sdei_main.o
 .bss           0x0000000000000000        0x0 ./234-t194/tegra/t194/release/bl31/sdei_main.o
 .eh_frame      0x0000000000000000      0x160 ./234-t194/tegra/t194/release/bl31/sdei_main.o
 .text          0x0000000000000000        0x0 ./234-t194/tegra/t194/release/bl31/sdei_state.o
 .data          0x0000000000000000        0x0 ./234-t194/tegra/t194/release/bl31/sdei_state.o
 .bss           0x0000000000000000        0x0 ./234-t194/tegra/t194/release/bl31/sdei_state.o
 .eh_frame      0x0000000000000000       0x38 ./234-t194/tegra/t194/release/bl31/sdei_state.o
 .text          0x0000000000000000        0x0 ./234-t194/tegra/t194/release/bl31/std_svc_setup.o
 .data          0x0000000000000000        0x0 ./234-t194/tegra/t194/release/bl31/std_svc_setup.o
 .bss           0x0000000000000000        0x0 ./234-t194/tegra/t194/release/bl31/std_svc_setup.o
 .eh_frame      0x0000000000000000       0x68 ./234-t194/tegra/t194/release/bl31/std_svc_setup.o
 .text          0x0000000000000000        0x0 ./234-t194/tegra/t194/release/bl31/bl_common.o
 .data          0x0000000000000000        0x0 ./234-t194/tegra/t194/release/bl31/bl_common.o
 .bss           0x0000000000000000        0x0 ./234-t194/tegra/t194/release/bl31/bl_common.o
 .text.page_align
                0x0000000000000000       0x1c ./234-t194/tegra/t194/release/bl31/bl_common.o
 .rodata.load_auth_image.str1.1
                0x0000000000000000       0x49 ./234-t194/tegra/t194/release/bl31/bl_common.o
 .text.load_auth_image
                0x0000000000000000      0x158 ./234-t194/tegra/t194/release/bl31/bl_common.o
 .eh_frame      0x0000000000000000       0x70 ./234-t194/tegra/t194/release/bl31/bl_common.o
 .text          0x0000000000000000        0x0 ./234-t194/tegra/t194/release/bl31/tf_log.o
 .data          0x0000000000000000        0x0 ./234-t194/tegra/t194/release/bl31/tf_log.o
 .bss           0x0000000000000000        0x0 ./234-t194/tegra/t194/release/bl31/tf_log.o
 .text.tf_log_newline
                0x0000000000000000       0x70 ./234-t194/tegra/t194/release/bl31/tf_log.o
 .rodata.tf_log_set_max_level.str1.1
                0x0000000000000000       0x1f ./234-t194/tegra/t194/release/bl31/tf_log.o
 .text.tf_log_set_max_level
                0x0000000000000000       0x60 ./234-t194/tegra/t194/release/bl31/tf_log.o
 .eh_frame      0x0000000000000000       0x88 ./234-t194/tegra/t194/release/bl31/tf_log.o
 .text          0x0000000000000000        0x0 ./234-t194/tegra/t194/release/bl31/multi_console.o
 .data          0x0000000000000000        0x0 ./234-t194/tegra/t194/release/bl31/multi_console.o
 .bss           0x0000000000000000        0x0 ./234-t194/tegra/t194/release/bl31/multi_console.o
 .text.console_unregister
                0x0000000000000000       0x5c ./234-t194/tegra/t194/release/bl31/multi_console.o
 .text.console_getc
                0x0000000000000000       0x78 ./234-t194/tegra/t194/release/bl31/multi_console.o
 .eh_frame      0x0000000000000000      0x138 ./234-t194/tegra/t194/release/bl31/multi_console.o
 .text          0x0000000000000000        0x0 ./234-t194/tegra/t194/release/bl31/plat_bl_common.o
 .data          0x0000000000000000        0x0 ./234-t194/tegra/t194/release/bl31/plat_bl_common.o
 .bss           0x0000000000000000        0x0 ./234-t194/tegra/t194/release/bl31/plat_bl_common.o
 .text.plat_get_soc_version
                0x0000000000000000        0x8 ./234-t194/tegra/t194/release/bl31/plat_bl_common.o
 .text.plat_get_soc_revision
                0x0000000000000000        0x8 ./234-t194/tegra/t194/release/bl31/plat_bl_common.o
 .text.plat_is_smccc_feature_available
                0x0000000000000000        0x8 ./234-t194/tegra/t194/release/bl31/plat_bl_common.o
 .text.bl2_el3_plat_prepare_exit
                0x0000000000000000        0x4 ./234-t194/tegra/t194/release/bl31/plat_bl_common.o
 .text.plat_error_handler
                0x0000000000000000        0x8 ./234-t194/tegra/t194/release/bl31/plat_bl_common.o
 .text.bl2_plat_preload_setup
                0x0000000000000000        0x4 ./234-t194/tegra/t194/release/bl31/plat_bl_common.o
 .text.bl2_plat_handle_pre_image_load
                0x0000000000000000        0x8 ./234-t194/tegra/t194/release/bl31/plat_bl_common.o
 .text.bl2_plat_handle_post_image_load
                0x0000000000000000        0x8 ./234-t194/tegra/t194/release/bl31/plat_bl_common.o
 .text.plat_try_next_boot_source
                0x0000000000000000        0x8 ./234-t194/tegra/t194/release/bl31/plat_bl_common.o
 .rodata.plat_get_enc_key_info.str1.1
                0x0000000000000000       0x5c ./234-t194/tegra/t194/release/bl31/plat_bl_common.o
 .text.plat_get_enc_key_info
                0x0000000000000000       0xb8 ./234-t194/tegra/t194/release/bl31/plat_bl_common.o
 .text.setup_page_tables
                0x0000000000000000       0x28 ./234-t194/tegra/t194/release/bl31/plat_bl_common.o
 .comment       0x0000000000000000       0x20 ./234-t194/tegra/t194/release/bl31/plat_bl_common.o
 .note.GNU-stack
                0x0000000000000000        0x0 ./234-t194/tegra/t194/release/bl31/plat_bl_common.o
 .eh_frame      0x0000000000000000      0x120 ./234-t194/tegra/t194/release/bl31/plat_bl_common.o
 .text          0x0000000000000000        0x0 ./234-t194/tegra/t194/release/bl31/plat_log_common.o
 .data          0x0000000000000000        0x0 ./234-t194/tegra/t194/release/bl31/plat_log_common.o
 .bss           0x0000000000000000        0x0 ./234-t194/tegra/t194/release/bl31/plat_log_common.o
 .eh_frame      0x0000000000000000       0x28 ./234-t194/tegra/t194/release/bl31/plat_log_common.o
 .text          0x0000000000000000        0x0 ./234-t194/tegra/t194/release/bl31/plat_common.o
 .data          0x0000000000000000        0x0 ./234-t194/tegra/t194/release/bl31/plat_common.o
 .bss           0x0000000000000000        0x0 ./234-t194/tegra/t194/release/bl31/plat_common.o
 .text.bl31_plat_runtime_setup
                0x0000000000000000        0x8 ./234-t194/tegra/t194/release/bl31/plat_common.o
 .rodata.platform_core_pos_helper.str1.1
                0x0000000000000000       0x2b ./234-t194/tegra/t194/release/bl31/plat_common.o
 .text.platform_core_pos_helper
                0x0000000000000000       0x30 ./234-t194/tegra/t194/release/bl31/plat_common.o
 .rodata.plat_default_ea_handler.str1.1
                0x0000000000000000       0x6a ./234-t194/tegra/t194/release/bl31/plat_common.o
 .text.plat_default_ea_handler
                0x0000000000000000       0x9c ./234-t194/tegra/t194/release/bl31/plat_common.o
 .eh_frame      0x0000000000000000       0xb0 ./234-t194/tegra/t194/release/bl31/plat_common.o
 .text          0x0000000000000000        0x0 ./234-t194/tegra/t194/release/bl31/popcountdi2.o
 .data          0x0000000000000000        0x0 ./234-t194/tegra/t194/release/bl31/popcountdi2.o
 .bss           0x0000000000000000        0x0 ./234-t194/tegra/t194/release/bl31/popcountdi2.o
 .text.__popcountdi2
                0x0000000000000000       0x3c ./234-t194/tegra/t194/release/bl31/popcountdi2.o
 .comment       0x0000000000000000       0x20 ./234-t194/tegra/t194/release/bl31/popcountdi2.o
 .note.GNU-stack
                0x0000000000000000        0x0 ./234-t194/tegra/t194/release/bl31/popcountdi2.o
 .eh_frame      0x0000000000000000       0x28 ./234-t194/tegra/t194/release/bl31/popcountdi2.o
 .text          0x0000000000000000        0x0 ./234-t194/tegra/t194/release/bl31/popcountsi2.o
 .data          0x0000000000000000        0x0 ./234-t194/tegra/t194/release/bl31/popcountsi2.o
 .bss           0x0000000000000000        0x0 ./234-t194/tegra/t194/release/bl31/popcountsi2.o
 .text.__popcountsi2
                0x0000000000000000       0x34 ./234-t194/tegra/t194/release/bl31/popcountsi2.o
 .comment       0x0000000000000000       0x20 ./234-t194/tegra/t194/release/bl31/popcountsi2.o
 .note.GNU-stack
                0x0000000000000000        0x0 ./234-t194/tegra/t194/release/bl31/popcountsi2.o
 .eh_frame      0x0000000000000000       0x28 ./234-t194/tegra/t194/release/bl31/popcountsi2.o
 .text          0x0000000000000000        0x0 ./234-t194/tegra/t194/release/bl31/stack_protector.o
 .data          0x0000000000000000        0x0 ./234-t194/tegra/t194/release/bl31/stack_protector.o
 .bss           0x0000000000000000        0x0 ./234-t194/tegra/t194/release/bl31/stack_protector.o
 .eh_frame      0x0000000000000000       0x30 ./234-t194/tegra/t194/release/bl31/stack_protector.o
 .text          0x0000000000000000        0x0 ./234-t194/tegra/t194/release/bl31/xlat_tables_arch.o
 .data          0x0000000000000000        0x0 ./234-t194/tegra/t194/release/bl31/xlat_tables_arch.o
 .bss           0x0000000000000000        0x0 ./234-t194/tegra/t194/release/bl31/xlat_tables_arch.o
 .text.xlat_arch_is_granule_size_supported
                0x0000000000000000       0x48 ./234-t194/tegra/t194/release/bl31/xlat_tables_arch.o
 .text.xlat_arch_get_max_supported_granule_size
                0x0000000000000000       0x6c ./234-t194/tegra/t194/release/bl31/xlat_tables_arch.o
 .eh_frame      0x0000000000000000      0x190 ./234-t194/tegra/t194/release/bl31/xlat_tables_arch.o
 .text          0x0000000000000000        0x0 ./234-t194/tegra/t194/release/bl31/xlat_tables_context.o
 .data          0x0000000000000000        0x0 ./234-t194/tegra/t194/release/bl31/xlat_tables_context.o
 .bss           0x0000000000000000        0x0 ./234-t194/tegra/t194/release/bl31/xlat_tables_context.o
 .text.mmap_add_region_alloc_va
                0x0000000000000000       0x74 ./234-t194/tegra/t194/release/bl31/xlat_tables_context.o
 .text.mmap_add_alloc_va
                0x0000000000000000       0x60 ./234-t194/tegra/t194/release/bl31/xlat_tables_context.o
 .text.mmap_add_dynamic_region_alloc_va
                0x0000000000000000       0x74 ./234-t194/tegra/t194/release/bl31/xlat_tables_context.o
 .text.xlat_get_mem_attributes
                0x0000000000000000       0x14 ./234-t194/tegra/t194/release/bl31/xlat_tables_context.o
 .text.xlat_change_mem_attributes
                0x0000000000000000       0x18 ./234-t194/tegra/t194/release/bl31/xlat_tables_context.o
 .text.enable_mmu_el1
                0x0000000000000000       0x48 ./234-t194/tegra/t194/release/bl31/xlat_tables_context.o
 .text.enable_mmu_el2
                0x0000000000000000       0x48 ./234-t194/tegra/t194/release/bl31/xlat_tables_context.o
 .text.enable_mmu
                0x0000000000000000        0x4 ./234-t194/tegra/t194/release/bl31/xlat_tables_context.o
 .eh_frame      0x0000000000000000      0x1c0 ./234-t194/tegra/t194/release/bl31/xlat_tables_context.o
 .text          0x0000000000000000        0x0 ./234-t194/tegra/t194/release/bl31/xlat_tables_core.o
 .data          0x0000000000000000        0x0 ./234-t194/tegra/t194/release/bl31/xlat_tables_core.o
 .bss           0x0000000000000000        0x0 ./234-t194/tegra/t194/release/bl31/xlat_tables_core.o
 .text.mmap_alloc_va_align_ctx.isra.0
                0x0000000000000000       0x5c ./234-t194/tegra/t194/release/bl31/xlat_tables_core.o
 .rodata.mmap_add_region_alloc_va_ctx.str1.1
                0x0000000000000000       0x28 ./234-t194/tegra/t194/release/bl31/xlat_tables_core.o
 .text.mmap_add_region_alloc_va_ctx
                0x0000000000000000       0x74 ./234-t194/tegra/t194/release/bl31/xlat_tables_core.o
 .text.mmap_add_dynamic_region_alloc_va_ctx
                0x0000000000000000       0x60 ./234-t194/tegra/t194/release/bl31/xlat_tables_core.o
 .text.xlat_setup_dynamic_ctx
                0x0000000000000000       0xfc ./234-t194/tegra/t194/release/bl31/xlat_tables_core.o
 .eh_frame      0x0000000000000000      0x290 ./234-t194/tegra/t194/release/bl31/xlat_tables_core.o
 .text          0x0000000000000000        0x0 ./234-t194/tegra/t194/release/bl31/xlat_tables_utils.o
 .data          0x0000000000000000        0x0 ./234-t194/tegra/t194/release/bl31/xlat_tables_utils.o
 .bss           0x0000000000000000        0x0 ./234-t194/tegra/t194/release/bl31/xlat_tables_utils.o
 .rodata.find_xlat_table_entry.str1.1
                0x0000000000000000       0x56 ./234-t194/tegra/t194/release/bl31/xlat_tables_utils.o
 .text.find_xlat_table_entry
                0x0000000000000000      0x118 ./234-t194/tegra/t194/release/bl31/xlat_tables_utils.o
 .rodata.xlat_get_mem_attributes_internal.str1.1
                0x0000000000000000       0xee ./234-t194/tegra/t194/release/bl31/xlat_tables_utils.o
 .text.xlat_get_mem_attributes_internal
                0x0000000000000000      0x1f0 ./234-t194/tegra/t194/release/bl31/xlat_tables_utils.o
 .text.xlat_get_mem_attributes_ctx
                0x0000000000000000       0x10 ./234-t194/tegra/t194/release/bl31/xlat_tables_utils.o
 .text.xlat_change_mem_attributes_ctx
                0x0000000000000000      0x1ec ./234-t194/tegra/t194/release/bl31/xlat_tables_utils.o
 .eh_frame      0x0000000000000000      0x100 ./234-t194/tegra/t194/release/bl31/xlat_tables_utils.o
 .text          0x0000000000000000        0x0 ./234-t194/tegra/t194/release/bl31/bl31_entrypoint.o
 .data          0x0000000000000000        0x0 ./234-t194/tegra/t194/release/bl31/bl31_entrypoint.o
 .bss           0x0000000000000000        0x0 ./234-t194/tegra/t194/release/bl31/bl31_entrypoint.o
 .text          0x0000000000000000        0x0 ./234-t194/tegra/t194/release/bl31/crash_reporting.o
 .data          0x0000000000000000        0x0 ./234-t194/tegra/t194/release/bl31/crash_reporting.o
 .bss           0x0000000000000000        0x0 ./234-t194/tegra/t194/release/bl31/crash_reporting.o
 .text          0x0000000000000000        0x0 ./234-t194/tegra/t194/release/bl31/ea_delegate.o
 .data          0x0000000000000000        0x0 ./234-t194/tegra/t194/release/bl31/ea_delegate.o
 .bss           0x0000000000000000        0x0 ./234-t194/tegra/t194/release/bl31/ea_delegate.o
 .text          0x0000000000000000        0x0 ./234-t194/tegra/t194/release/bl31/runtime_exceptions.o
 .data          0x0000000000000000        0x0 ./234-t194/tegra/t194/release/bl31/runtime_exceptions.o
 .bss           0x0000000000000000        0x0 ./234-t194/tegra/t194/release/bl31/runtime_exceptions.o
 .text          0x0000000000000000        0x0 ./234-t194/tegra/t194/release/bl31/16550_console.o
 .data          0x0000000000000000        0x0 ./234-t194/tegra/t194/release/bl31/16550_console.o
 .bss           0x0000000000000000        0x0 ./234-t194/tegra/t194/release/bl31/16550_console.o
 .text.asm.console_16550_core_init
                0x0000000000000000       0x70 ./234-t194/tegra/t194/release/bl31/16550_console.o
 .text.asm.console_16550_register
                0x0000000000000000       0x58 ./234-t194/tegra/t194/release/bl31/16550_console.o
 .text.asm.console_16550_core_putc
                0x0000000000000000       0x4c ./234-t194/tegra/t194/release/bl31/16550_console.o
 .rodata.str1.1
                0x0000000000000000       0x28 ./234-t194/tegra/t194/release/bl31/16550_console.o
 .text.asm.console_16550_putc
                0x0000000000000000       0x1c ./234-t194/tegra/t194/release/bl31/16550_console.o
 .text.asm.console_16550_core_getc
                0x0000000000000000       0x2c ./234-t194/tegra/t194/release/bl31/16550_console.o
 .text.asm.console_16550_getc
                0x0000000000000000       0x1c ./234-t194/tegra/t194/release/bl31/16550_console.o
 .text.asm.console_16550_core_flush
                0x0000000000000000       0x28 ./234-t194/tegra/t194/release/bl31/16550_console.o
 .text.asm.console_16550_flush
                0x0000000000000000       0x1c ./234-t194/tegra/t194/release/bl31/16550_console.o
 .debug_frame   0x0000000000000000       0xd0 ./234-t194/tegra/t194/release/bl31/16550_console.o
 .text          0x0000000000000000        0x0 ./234-t194/tegra/t194/release/bl31/cpu_helpers.o
 .data          0x0000000000000000        0x0 ./234-t194/tegra/t194/release/bl31/cpu_helpers.o
 .bss           0x0000000000000000        0x0 ./234-t194/tegra/t194/release/bl31/cpu_helpers.o
 .text.asm.cpu_get_rev_var
                0x0000000000000000       0x10 ./234-t194/tegra/t194/release/bl31/cpu_helpers.o
 .text.asm.cpu_rev_var_ls
                0x0000000000000000       0x14 ./234-t194/tegra/t194/release/bl31/cpu_helpers.o
 .text.asm.cpu_rev_var_hs
                0x0000000000000000       0x14 ./234-t194/tegra/t194/release/bl31/cpu_helpers.o
 .text.asm.cpu_rev_var_range
                0x0000000000000000       0x24 ./234-t194/tegra/t194/release/bl31/cpu_helpers.o
 .text.asm.wa_cve_2018_3639_get_disable_ptr
                0x0000000000000000       0x38 ./234-t194/tegra/t194/release/bl31/cpu_helpers.o
 .text          0x0000000000000000        0x0 ./234-t194/tegra/t194/release/bl31/denver.o
 .data          0x0000000000000000        0x0 ./234-t194/tegra/t194/release/bl31/denver.o
 .bss           0x0000000000000000        0x0 ./234-t194/tegra/t194/release/bl31/denver.o
 .rodata.gic_reg_name
                0x0000000000000000       0x66 ./234-t194/tegra/t194/release/bl31/denver.o
 .text.asm.check_errata_cve_2018_3639
                0x0000000000000000        0x8 ./234-t194/tegra/t194/release/bl31/denver.o
 .text          0x0000000000000000        0x0 ./234-t194/tegra/t194/release/bl31/dsu_helpers.o
 .data          0x0000000000000000        0x0 ./234-t194/tegra/t194/release/bl31/dsu_helpers.o
 .bss           0x0000000000000000        0x0 ./234-t194/tegra/t194/release/bl31/dsu_helpers.o
 .text.asm.check_errata_dsu_798953
                0x0000000000000000       0x20 ./234-t194/tegra/t194/release/bl31/dsu_helpers.o
 .text.asm.errata_dsu_798953_wa
                0x0000000000000000       0x20 ./234-t194/tegra/t194/release/bl31/dsu_helpers.o
 .text.asm.is_scu_present_in_dsu
                0x0000000000000000        0x8 ./234-t194/tegra/t194/release/bl31/dsu_helpers.o
 .text.asm.check_errata_dsu_936184
                0x0000000000000000       0x38 ./234-t194/tegra/t194/release/bl31/dsu_helpers.o
 .text.asm.errata_dsu_936184_wa
                0x0000000000000000       0x30 ./234-t194/tegra/t194/release/bl31/dsu_helpers.o
 .debug_frame   0x0000000000000000       0x88 ./234-t194/tegra/t194/release/bl31/dsu_helpers.o
 .text          0x0000000000000000        0x0 ./234-t194/tegra/t194/release/bl31/wa_cve_2017_5715_bpiall.o
 .data          0x0000000000000000        0x0 ./234-t194/tegra/t194/release/bl31/wa_cve_2017_5715_bpiall.o
 .bss           0x0000000000000000        0x0 ./234-t194/tegra/t194/release/bl31/wa_cve_2017_5715_bpiall.o
 .vectors       0x0000000000000000     0x1000 ./234-t194/tegra/t194/release/bl31/wa_cve_2017_5715_bpiall.o
 .text.asm.bpiall_ret_sync_exception_aarch32_tail
                0x0000000000000000        0x8 ./234-t194/tegra/t194/release/bl31/wa_cve_2017_5715_bpiall.o
 .debug_frame   0x0000000000000000      0x328 ./234-t194/tegra/t194/release/bl31/wa_cve_2017_5715_bpiall.o
 .text          0x0000000000000000        0x0 ./234-t194/tegra/t194/release/bl31/wa_cve_2017_5715_mmu.o
 .data          0x0000000000000000        0x0 ./234-t194/tegra/t194/release/bl31/wa_cve_2017_5715_mmu.o
 .bss           0x0000000000000000        0x0 ./234-t194/tegra/t194/release/bl31/wa_cve_2017_5715_mmu.o
 .vectors       0x0000000000000000      0x800 ./234-t194/tegra/t194/release/bl31/wa_cve_2017_5715_mmu.o
 .debug_frame   0x0000000000000000      0x190 ./234-t194/tegra/t194/release/bl31/wa_cve_2017_5715_mmu.o
 .text          0x0000000000000000        0x0 ./234-t194/tegra/t194/release/bl31/context.o
 .data          0x0000000000000000        0x0 ./234-t194/tegra/t194/release/bl31/context.o
 .bss           0x0000000000000000        0x0 ./234-t194/tegra/t194/release/bl31/context.o
 .text.asm.save_and_update_ptw_el1_sys_regs
                0x0000000000000000       0x34 ./234-t194/tegra/t194/release/bl31/context.o
 .text          0x0000000000000000        0x0 ./234-t194/tegra/t194/release/bl31/cpu_data.o
 .data          0x0000000000000000        0x0 ./234-t194/tegra/t194/release/bl31/cpu_data.o
 .bss           0x0000000000000000        0x0 ./234-t194/tegra/t194/release/bl31/cpu_data.o
 .text          0x0000000000000000        0x0 ./234-t194/tegra/t194/release/bl31/spinlock.o
 .data          0x0000000000000000        0x0 ./234-t194/tegra/t194/release/bl31/spinlock.o
 .bss           0x0000000000000000        0x0 ./234-t194/tegra/t194/release/bl31/spinlock.o
 .text          0x0000000000000000        0x0 ./234-t194/tegra/t194/release/bl31/psci_helpers.o
 .data          0x0000000000000000        0x0 ./234-t194/tegra/t194/release/bl31/psci_helpers.o
 .bss           0x0000000000000000        0x0 ./234-t194/tegra/t194/release/bl31/psci_helpers.o
 .text.asm.psci_do_pwrup_cache_maintenance
                0x0000000000000000       0x34 ./234-t194/tegra/t194/release/bl31/psci_helpers.o
 .text          0x0000000000000000        0x0 ./234-t194/tegra/t194/release/bl31/crash_console_helpers.o
 .data          0x0000000000000000        0x0 ./234-t194/tegra/t194/release/bl31/crash_console_helpers.o
 .bss           0x0000000000000000        0x0 ./234-t194/tegra/t194/release/bl31/crash_console_helpers.o
 .text          0x0000000000000000        0x0 ./234-t194/tegra/t194/release/bl31/platform_mp_stack.o
 .data          0x0000000000000000        0x0 ./234-t194/tegra/t194/release/bl31/platform_mp_stack.o
 .bss           0x0000000000000000        0x0 ./234-t194/tegra/t194/release/bl31/platform_mp_stack.o
 .text          0x0000000000000000        0x0 ./234-t194/tegra/t194/release/bl31/tegra_helpers.o
 .bss           0x0000000000000000        0x0 ./234-t194/tegra/t194/release/bl31/tegra_helpers.o
 .text.asm.plat_is_my_cpu_primary
                0x0000000000000000       0x14 ./234-t194/tegra/t194/release/bl31/tegra_helpers.o
 .text.asm.plat_secondary_cold_boot_setup
                0x0000000000000000        0x8 ./234-t194/tegra/t194/release/bl31/tegra_helpers.o
 .text          0x0000000000000000        0x0 ./234-t194/tegra/t194/release/bl31/shared_console.o
 .bss           0x0000000000000000        0x0 ./234-t194/tegra/t194/release/bl31/shared_console.o
 .text          0x0000000000000000        0x0 ./234-t194/tegra/t194/release/bl31/nvg_helpers.o
 .data          0x0000000000000000        0x0 ./234-t194/tegra/t194/release/bl31/nvg_helpers.o
 .bss           0x0000000000000000        0x0 ./234-t194/tegra/t194/release/bl31/nvg_helpers.o
 .text.asm.nvg_cache_clean
                0x0000000000000000        0x8 ./234-t194/tegra/t194/release/bl31/nvg_helpers.o
 .text.asm.nvg_cache_clean_inval
                0x0000000000000000        0x8 ./234-t194/tegra/t194/release/bl31/nvg_helpers.o
 .text          0x0000000000000000        0x0 ./234-t194/tegra/t194/release/bl31/plat_trampoline.o
 .data          0x0000000000000000        0x0 ./234-t194/tegra/t194/release/bl31/plat_trampoline.o
 .bss           0x0000000000000000        0x0 ./234-t194/tegra/t194/release/bl31/plat_trampoline.o
 .text          0x0000000000000000        0x0 ./234-t194/tegra/t194/release/bl31/opteed_helpers.o
 .data          0x0000000000000000        0x0 ./234-t194/tegra/t194/release/bl31/opteed_helpers.o
 .bss           0x0000000000000000        0x0 ./234-t194/tegra/t194/release/bl31/opteed_helpers.o
 .text          0x0000000000000000        0x0 ./234-t194/tegra/t194/release/bl31/sdei_dispatch.o
 .data          0x0000000000000000        0x0 ./234-t194/tegra/t194/release/bl31/sdei_dispatch.o
 .bss           0x0000000000000000        0x0 ./234-t194/tegra/t194/release/bl31/sdei_dispatch.o
 .text          0x0000000000000000        0x0 ./234-t194/tegra/t194/release/bl31/debug.o
 .data          0x0000000000000000        0x0 ./234-t194/tegra/t194/release/bl31/debug.o
 .bss           0x0000000000000000        0x0 ./234-t194/tegra/t194/release/bl31/debug.o
 .rodata.assert_str
                0x0000000000000000       0x15 ./234-t194/tegra/t194/release/bl31/debug.o
 .text          0x0000000000000000        0x0 ./234-t194/tegra/t194/release/bl31/cache_helpers.o
 .data          0x0000000000000000        0x0 ./234-t194/tegra/t194/release/bl31/cache_helpers.o
 .bss           0x0000000000000000        0x0 ./234-t194/tegra/t194/release/bl31/cache_helpers.o
 .text.asm.flush_dcache_to_popa_range
                0x0000000000000000       0x38 ./234-t194/tegra/t194/release/bl31/cache_helpers.o
 .text.asm.do_dcsw_op
                0x0000000000000000       0xfc ./234-t194/tegra/t194/release/bl31/cache_helpers.o
 .text.asm.dcsw_op_louis
                0x0000000000000000       0x14 ./234-t194/tegra/t194/release/bl31/cache_helpers.o
 .text.asm.dcsw_op_all
                0x0000000000000000       0x14 ./234-t194/tegra/t194/release/bl31/cache_helpers.o
 .text.asm.dcsw_op_level1
                0x0000000000000000       0x10 ./234-t194/tegra/t194/release/bl31/cache_helpers.o
 .text.asm.dcsw_op_level2
                0x0000000000000000       0x10 ./234-t194/tegra/t194/release/bl31/cache_helpers.o
 .text.asm.dcsw_op_level3
                0x0000000000000000       0x10 ./234-t194/tegra/t194/release/bl31/cache_helpers.o
 .text          0x0000000000000000        0x0 ./234-t194/tegra/t194/release/bl31/misc_helpers.o
 .data          0x0000000000000000        0x0 ./234-t194/tegra/t194/release/bl31/misc_helpers.o
 .bss           0x0000000000000000        0x0 ./234-t194/tegra/t194/release/bl31/misc_helpers.o
 .text.asm.smc  0x0000000000000000        0x4 ./234-t194/tegra/t194/release/bl31/misc_helpers.o
 .text.asm.memcpy16
                0x0000000000000000       0x48 ./234-t194/tegra/t194/release/bl31/misc_helpers.o
 .text.asm.disable_mmu_el3
                0x0000000000000000       0x1c ./234-t194/tegra/t194/release/bl31/misc_helpers.o
 .text.asm.disable_mmu_icache_el3
                0x0000000000000000        0x8 ./234-t194/tegra/t194/release/bl31/misc_helpers.o
 .text.asm.disable_mmu_el1
                0x0000000000000000       0x1c ./234-t194/tegra/t194/release/bl31/misc_helpers.o
 .text.asm.disable_mmu_icache_el1
                0x0000000000000000        0x8 ./234-t194/tegra/t194/release/bl31/misc_helpers.o
 .text.asm.fixup_gdt_reloc
                0x0000000000000000       0xc4 ./234-t194/tegra/t194/release/bl31/misc_helpers.o
 .text.asm.gpt_tlbi_by_pa_ll
                0x0000000000000000       0x38 ./234-t194/tegra/t194/release/bl31/misc_helpers.o
 .text          0x0000000000000000        0x0 ./234-t194/tegra/t194/release/bl31/platform_helpers.o
 .data          0x0000000000000000        0x0 ./234-t194/tegra/t194/release/bl31/platform_helpers.o
 .bss           0x0000000000000000        0x0 ./234-t194/tegra/t194/release/bl31/platform_helpers.o
 .text.asm.plat_report_exception
                0x0000000000000000        0x4 ./234-t194/tegra/t194/release/bl31/platform_helpers.o
 .text.asm.plat_reset_handler
                0x0000000000000000        0x4 ./234-t194/tegra/t194/release/bl31/platform_helpers.o
 .text.asm.plat_disable_acp
                0x0000000000000000        0x4 ./234-t194/tegra/t194/release/bl31/platform_helpers.o
 .text.asm.bl1_plat_prepare_exit
                0x0000000000000000        0x4 ./234-t194/tegra/t194/release/bl31/platform_helpers.o
 .text.asm.bl32_plat_enable_mmu
                0x0000000000000000        0x4 ./234-t194/tegra/t194/release/bl31/platform_helpers.o
 .text          0x0000000000000000        0x0 ./234-t194/tegra/t194/release/bl31/asm_stack_protector.o
 .data          0x0000000000000000        0x0 ./234-t194/tegra/t194/release/bl31/asm_stack_protector.o
 .bss           0x0000000000000000        0x0 ./234-t194/tegra/t194/release/bl31/asm_stack_protector.o
 .text          0x0000000000000000        0x0 ./234-t194/tegra/t194/release/bl31/enable_mmu.o
 .data          0x0000000000000000        0x0 ./234-t194/tegra/t194/release/bl31/enable_mmu.o
 .bss           0x0000000000000000        0x0 ./234-t194/tegra/t194/release/bl31/enable_mmu.o
 .text.asm.enable_mmu_direct_el1
                0x0000000000000000       0x70 ./234-t194/tegra/t194/release/bl31/enable_mmu.o
 .text.asm.enable_mmu_direct_el2
                0x0000000000000000       0x70 ./234-t194/tegra/t194/release/bl31/enable_mmu.o
 .text          0x0000000000000000        0x0 ./234-t194/tegra/t194/release/lib/libc.a(assert.o)
 .data          0x0000000000000000        0x0 ./234-t194/tegra/t194/release/lib/libc.a(assert.o)
 .bss           0x0000000000000000        0x0 ./234-t194/tegra/t194/release/lib/libc.a(assert.o)
 .eh_frame      0x0000000000000000       0x30 ./234-t194/tegra/t194/release/lib/libc.a(assert.o)
 .text          0x0000000000000000        0x0 ./234-t194/tegra/t194/release/lib/libc.a(memcmp.o)
 .data          0x0000000000000000        0x0 ./234-t194/tegra/t194/release/lib/libc.a(memcmp.o)
 .bss           0x0000000000000000        0x0 ./234-t194/tegra/t194/release/lib/libc.a(memcmp.o)
 .eh_frame      0x0000000000000000       0x28 ./234-t194/tegra/t194/release/lib/libc.a(memcmp.o)
 .text          0x0000000000000000        0x0 ./234-t194/tegra/t194/release/lib/libc.a(memcpy.o)
 .data          0x0000000000000000        0x0 ./234-t194/tegra/t194/release/lib/libc.a(memcpy.o)
 .bss           0x0000000000000000        0x0 ./234-t194/tegra/t194/release/lib/libc.a(memcpy.o)
 .eh_frame      0x0000000000000000       0x28 ./234-t194/tegra/t194/release/lib/libc.a(memcpy.o)
 .text          0x0000000000000000        0x0 ./234-t194/tegra/t194/release/lib/libc.a(memmove.o)
 .data          0x0000000000000000        0x0 ./234-t194/tegra/t194/release/lib/libc.a(memmove.o)
 .bss           0x0000000000000000        0x0 ./234-t194/tegra/t194/release/lib/libc.a(memmove.o)
 .eh_frame      0x0000000000000000       0x28 ./234-t194/tegra/t194/release/lib/libc.a(memmove.o)
 .text          0x0000000000000000        0x0 ./234-t194/tegra/t194/release/lib/libc.a(memset.o)
 .data          0x0000000000000000        0x0 ./234-t194/tegra/t194/release/lib/libc.a(memset.o)
 .bss           0x0000000000000000        0x0 ./234-t194/tegra/t194/release/lib/libc.a(memset.o)
 .eh_frame      0x0000000000000000       0x28 ./234-t194/tegra/t194/release/lib/libc.a(memset.o)
 .text          0x0000000000000000        0x0 ./234-t194/tegra/t194/release/lib/libc.a(printf.o)
 .data          0x0000000000000000        0x0 ./234-t194/tegra/t194/release/lib/libc.a(printf.o)
 .bss           0x0000000000000000        0x0 ./234-t194/tegra/t194/release/lib/libc.a(printf.o)
 .eh_frame      0x0000000000000000       0xb8 ./234-t194/tegra/t194/release/lib/libc.a(printf.o)
 .text          0x0000000000000000        0x0 ./234-t194/tegra/t194/release/lib/libc.a(putchar.o)
 .data          0x0000000000000000        0x0 ./234-t194/tegra/t194/release/lib/libc.a(putchar.o)
 .bss           0x0000000000000000        0x0 ./234-t194/tegra/t194/release/lib/libc.a(putchar.o)
 .eh_frame      0x0000000000000000       0x38 ./234-t194/tegra/t194/release/lib/libc.a(putchar.o)
 .text          0x0000000000000000        0x0 ./234-t194/tegra/t194/release/lib/libc.a(strlen.o)
 .data          0x0000000000000000        0x0 ./234-t194/tegra/t194/release/lib/libc.a(strlen.o)
 .bss           0x0000000000000000        0x0 ./234-t194/tegra/t194/release/lib/libc.a(strlen.o)
 .eh_frame      0x0000000000000000       0x28 ./234-t194/tegra/t194/release/lib/libc.a(strlen.o)
 .text          0x0000000000000000        0x0 ./234-t194/tegra/t194/release/lib/libc.a(snprintf.o)
 .data          0x0000000000000000        0x0 ./234-t194/tegra/t194/release/lib/libc.a(snprintf.o)
 .bss           0x0000000000000000        0x0 ./234-t194/tegra/t194/release/lib/libc.a(snprintf.o)
 .eh_frame      0x0000000000000000       0x98 ./234-t194/tegra/t194/release/lib/libc.a(snprintf.o)
 .text          0x0000000000000000        0x0 ./234-t194/tegra/t194/release/lib/libc.a(setjmp.o)
 .data          0x0000000000000000        0x0 ./234-t194/tegra/t194/release/lib/libc.a(setjmp.o)
 .bss           0x0000000000000000        0x0 ./234-t194/tegra/t194/release/lib/libc.a(setjmp.o)

Memory Configuration

Name             Origin             Length             Attributes
RAM              0x0000000040000000 0x0000000000040000 xrw
*default*        0x0000000000000000 0xffffffffffffffff

Linker script and memory map

                0x0000000040000000                . = 0x40000000
                0x0000000000000001                ASSERT ((. == ALIGN (0x1000)), BL31_BASE address is not aligned on a page boundary.)
                0x0000000040000000                __BL31_START__ = .

.text           0x0000000040000000    0x10000
                0x0000000040000000                __TEXT_START__ = .
 *bl31_entrypoint.o(.text*)
 .text.asm.bl31_entrypoint
                0x0000000040000000      0x130 ./234-t194/tegra/t194/release/bl31/bl31_entrypoint.o
                0x0000000040000000                bl31_entrypoint
 .text.asm.bl31_warm_entrypoint
                0x0000000040000130       0x9c ./234-t194/tegra/t194/release/bl31/bl31_entrypoint.o
                0x0000000040000130                bl31_warm_entrypoint
 *(SORT_BY_ALIGNMENT(SORT_BY_NAME(.text*)))
 *fill*         0x00000000400001cc       0x34 
 .text.asm.tegra_secure_entrypoint
                0x0000000040000200       0x10 ./234-t194/tegra/t194/release/bl31/tegra_helpers.o
                0x0000000040000200                tegra_secure_entrypoint
 .text.asm.tegra194_cpu_reset_handler
                0x0000000040000210      0x890 ./234-t194/tegra/t194/release/bl31/plat_trampoline.o
                0x0000000040000210                tegra194_cpu_reset_handler
                0x00000000400002a0                __tegra194_cpu_reset_handler_data
                0x00000000400002b0                __tegra194_system_suspend_state
                0x0000000040000aa0                __tegra194_cpu_reset_handler_end
 .text.CCPMU_err_ctrl
                0x0000000040000aa0        0x8 ./234-t194/tegra/t194/release/bl31/plat_ras.o
 .text.CLUSTER_CLOCKS_err_ctrl
                0x0000000040000aa8        0x8 ./234-t194/tegra/t194/release/bl31/plat_ras.o
 .text.CMU_CLOCKS_err_ctrl
                0x0000000040000ab0        0x8 ./234-t194/tegra/t194/release/bl31/plat_ras.o
 .text.IFU_err_ctrl
                0x0000000040000ab8        0x8 ./234-t194/tegra/t194/release/bl31/plat_ras.o
 .text.JSR_MTS_err_ctrl
                0x0000000040000ac0        0x8 ./234-t194/tegra/t194/release/bl31/plat_ras.o
 .text.JSR_RET_err_ctrl
                0x0000000040000ac8        0x8 ./234-t194/tegra/t194/release/bl31/plat_ras.o
 .text.L2_err_ctrl
                0x0000000040000ad0        0xc ./234-t194/tegra/t194/release/bl31/plat_ras.o
 .text.L3_err_ctrl
                0x0000000040000adc        0x8 ./234-t194/tegra/t194/release/bl31/plat_ras.o
 .text.LSD_DCC_err_ctrl
                0x0000000040000ae4        0x8 ./234-t194/tegra/t194/release/bl31/plat_ras.o
 .text.LSD_L1HPF_err_ctrl
                0x0000000040000aec        0x8 ./234-t194/tegra/t194/release/bl31/plat_ras.o
 .text.LSD_STQ_err_ctrl
                0x0000000040000af4        0x8 ./234-t194/tegra/t194/release/bl31/plat_ras.o
 .text.MMU_err_ctrl
                0x0000000040000afc        0x8 ./234-t194/tegra/t194/release/bl31/plat_ras.o
 .text.SCF_CTU_err_ctrl
                0x0000000040000b04        0x8 ./234-t194/tegra/t194/release/bl31/plat_ras.o
 .text.SCF_IOB_err_ctrl
                0x0000000040000b0c        0x8 ./234-t194/tegra/t194/release/bl31/plat_ras.o
 .text.SCF_SNOC_err_ctrl
                0x0000000040000b14        0x8 ./234-t194/tegra/t194/release/bl31/plat_ras.o
 .text.__assert
                0x0000000040000b1c       0x28 ./234-t194/tegra/t194/release/lib/libc.a(assert.o)
                0x0000000040000b1c                __assert
 .text.__stack_chk_fail
                0x0000000040000b44       0x10 ./234-t194/tegra/t194/release/bl31/stack_protector.o
                0x0000000040000b44                __stack_chk_fail
 .text.arm_arch_svc_smc_handler
                0x0000000040000b54      0x1bc ./234-t194/tegra/t194/release/bl31/arm_arch_svc_setup.o
 .text.asm._cpu_data_by_index
                0x0000000040000d10       0x18 ./234-t194/tegra/t194/release/bl31/cpu_data.o
                0x0000000040000d10                _cpu_data_by_index
 .text.asm.asm_assert
                0x0000000040000d28        0x4 ./234-t194/tegra/t194/release/bl31/debug.o
                0x0000000040000d28                asm_assert
 .text.asm.asm_print_hex
                0x0000000040000d2c       0x30 ./234-t194/tegra/t194/release/bl31/debug.o
                0x0000000040000d2c                asm_print_hex
                0x0000000040000d30                asm_print_hex_bits
 .text.asm.asm_print_newline
                0x0000000040000d5c        0x8 ./234-t194/tegra/t194/release/bl31/debug.o
                0x0000000040000d5c                asm_print_newline
 .text.asm.asm_print_str
                0x0000000040000d64       0x18 ./234-t194/tegra/t194/release/bl31/debug.o
                0x0000000040000d64                asm_print_str
 .text.asm.begin_sdei_synchronous_dispatch
                0x0000000040000d7c       0x18 ./234-t194/tegra/t194/release/bl31/sdei_dispatch.o
                0x0000000040000d7c                begin_sdei_synchronous_dispatch
 .text.asm.bl31_plat_enable_mmu
                0x0000000040000d94        0x4 ./234-t194/tegra/t194/release/bl31/platform_helpers.o
                0x0000000040000d94                bl31_plat_enable_mmu
 .text.asm.check_errata_cve_2017_5715
                0x0000000040000d98       0x1c ./234-t194/tegra/t194/release/bl31/denver.o
 .text.asm.check_smccc_arch_wa3_applies
                0x0000000040000db4       0x48 ./234-t194/tegra/t194/release/bl31/cpu_helpers.o
                0x0000000040000db4                check_smccc_arch_wa3_applies
 .text.asm.check_wa_cve_2017_5715
                0x0000000040000dfc       0x48 ./234-t194/tegra/t194/release/bl31/cpu_helpers.o
                0x0000000040000dfc                check_wa_cve_2017_5715
 .text.asm.clean_dcache_range
                0x0000000040000e44       0x38 ./234-t194/tegra/t194/release/bl31/cache_helpers.o
                0x0000000040000e44                clean_dcache_range
 .text.asm.console_spe_core_flush
                0x0000000040000e7c       0x20 ./234-t194/tegra/t194/release/bl31/shared_console.o
                0x0000000040000e7c                console_spe_core_flush
 .text.asm.console_spe_core_putc
                0x0000000040000e9c       0xa8 ./234-t194/tegra/t194/release/bl31/shared_console.o
                0x0000000040000e9c                console_spe_core_putc
 .text.asm.console_spe_flush
                0x0000000040000f44        0x8 ./234-t194/tegra/t194/release/bl31/shared_console.o
                0x0000000040000f44                console_spe_flush
 .text.asm.console_spe_getc
                0x0000000040000f4c        0x8 ./234-t194/tegra/t194/release/bl31/shared_console.o
                0x0000000040000f4c                console_spe_getc
 .text.asm.console_spe_putc
                0x0000000040000f54        0x8 ./234-t194/tegra/t194/release/bl31/shared_console.o
                0x0000000040000f54                console_spe_putc
 .text.asm.console_spe_register
                0x0000000040000f5c       0x6c ./234-t194/tegra/t194/release/bl31/shared_console.o
                0x0000000040000f5c                console_spe_register
 .text.asm.crash_panic
                0x0000000040000fc8        0x4 ./234-t194/tegra/t194/release/bl31/crash_reporting.o
 .text.asm.delegate_async_ea
                0x0000000040000fcc       0x24 ./234-t194/tegra/t194/release/bl31/ea_delegate.o
 .text.asm.delegate_sync_ea
                0x0000000040000ff0       0x20 ./234-t194/tegra/t194/release/bl31/ea_delegate.o
 .text.asm.denver_cluster_pwr_dwn
                0x0000000040001010        0x4 ./234-t194/tegra/t194/release/bl31/denver.o
 .text.asm.denver_core_pwr_dwn
                0x0000000040001014        0xc ./234-t194/tegra/t194/release/bl31/denver.o
 .text.asm.denver_cpu_reg_dump
                0x0000000040001020        0xc ./234-t194/tegra/t194/release/bl31/denver.o
 .text.asm.denver_disable_dco
                0x000000004000102c       0x4c ./234-t194/tegra/t194/release/bl31/denver.o
                0x000000004000102c                denver_disable_dco
 .text.asm.denver_disable_ext_debug
                0x0000000040001078       0x14 ./234-t194/tegra/t194/release/bl31/denver.o
 .text.asm.denver_enable_dco
                0x000000004000108c       0x30 ./234-t194/tegra/t194/release/bl31/denver.o
 .text.asm.denver_reset_func
                0x00000000400010bc       0x6c ./234-t194/tegra/t194/release/bl31/denver.o
 .text.asm.do_cpu_reg_dump
                0x0000000040001128       0x20 ./234-t194/tegra/t194/release/bl31/cpu_helpers.o
                0x0000000040001128                do_cpu_reg_dump
 .text.asm.do_panic
                0x0000000040001148       0x60 ./234-t194/tegra/t194/release/bl31/debug.o
                0x0000000040001148                do_panic
 .text.asm.ea_proceed
                0x00000000400011a8       0x98 ./234-t194/tegra/t194/release/bl31/ea_delegate.o
 .text.asm.el1_sysregs_context_restore
                0x0000000040001240       0xcc ./234-t194/tegra/t194/release/bl31/context.o
                0x0000000040001240                el1_sysregs_context_restore
 .text.asm.el1_sysregs_context_save
                0x000000004000130c       0xcc ./234-t194/tegra/t194/release/bl31/context.o
                0x000000004000130c                el1_sysregs_context_save
 .text.asm.el3_exit
                0x00000000400013d8       0x6c ./234-t194/tegra/t194/release/bl31/context.o
                0x00000000400013d8                el3_exit
 .text.asm.el3_panic
                0x0000000040001444      0x1f0 ./234-t194/tegra/t194/release/bl31/crash_reporting.o
                0x0000000040001444                el3_panic
 .text.asm.elx_panic
                0x0000000040001634       0xb8 ./234-t194/tegra/t194/release/bl31/crash_reporting.o
                0x0000000040001634                elx_panic
 .text.asm.enable_mmu_direct_el3
                0x00000000400016ec       0x70 ./234-t194/tegra/t194/release/bl31/enable_mmu.o
                0x00000000400016ec                enable_mmu_direct_el3
 .text.asm.enter_lower_el_async_ea
                0x000000004000175c       0x1c ./234-t194/tegra/t194/release/bl31/ea_delegate.o
                0x000000004000175c                enter_lower_el_async_ea
                0x0000000040001760                handle_lower_el_async_ea
 .text.asm.enter_lower_el_sync_ea
                0x0000000040001778       0x78 ./234-t194/tegra/t194/release/bl31/ea_delegate.o
                0x0000000040001778                enter_lower_el_sync_ea
 .text.asm.flush_dcache_range
                0x00000000400017f0       0x38 ./234-t194/tegra/t194/release/bl31/cache_helpers.o
                0x00000000400017f0                flush_dcache_range
 .text.asm.get_cpu_ops_ptr
                0x0000000040001828       0x54 ./234-t194/tegra/t194/release/bl31/cpu_helpers.o
                0x0000000040001828                get_cpu_ops_ptr
 .text.asm.handle_lower_el_ea_esb
                0x000000004000187c        0xc ./234-t194/tegra/t194/release/bl31/ea_delegate.o
                0x000000004000187c                handle_lower_el_ea_esb
 .text.asm.init_cpu_data_ptr
                0x0000000040001888       0x14 ./234-t194/tegra/t194/release/bl31/cpu_data.o
                0x0000000040001888                init_cpu_data_ptr
 .text.asm.init_cpu_ops
                0x000000004000189c       0x34 ./234-t194/tegra/t194/release/bl31/cpu_helpers.o
                0x000000004000189c                init_cpu_ops
 .text.asm.inv_dcache_range
                0x00000000400018d0       0x38 ./234-t194/tegra/t194/release/bl31/cache_helpers.o
                0x00000000400018d0                inv_dcache_range
 .text.asm.longjmp
                0x0000000040001908       0x44 ./234-t194/tegra/t194/release/lib/libc.a(setjmp.o)
                0x0000000040001908                longjmp
 .text.asm.nvg_cache_inval_all
                0x000000004000194c        0x8 ./234-t194/tegra/t194/release/bl31/nvg_helpers.o
                0x000000004000194c                nvg_cache_inval_all
 .text.asm.nvg_get_result
                0x0000000040001954        0x8 ./234-t194/tegra/t194/release/bl31/nvg_helpers.o
                0x0000000040001954                nvg_get_result
 .text.asm.nvg_set_request
                0x000000004000195c        0x8 ./234-t194/tegra/t194/release/bl31/nvg_helpers.o
                0x000000004000195c                nvg_set_request
 .text.asm.nvg_set_request_data
                0x0000000040001964        0xc ./234-t194/tegra/t194/release/bl31/nvg_helpers.o
                0x0000000040001964                nvg_set_request_data
 .text.asm.opteed_enter_sp
                0x0000000040001970       0x28 ./234-t194/tegra/t194/release/bl31/opteed_helpers.o
                0x0000000040001970                opteed_enter_sp
 .text.asm.opteed_exit_sp
                0x0000000040001998       0x24 ./234-t194/tegra/t194/release/bl31/opteed_helpers.o
                0x0000000040001998                opteed_exit_sp
 .text.asm.plat_core_pos_by_mpidr
                0x00000000400019bc       0x34 ./234-t194/tegra/t194/release/bl31/tegra_helpers.o
                0x00000000400019bc                plat_core_pos_by_mpidr
 .text.asm.plat_crash_console_flush
                0x00000000400019f0       0x54 ./234-t194/tegra/t194/release/bl31/crash_console_helpers.o
                0x00000000400019f0                plat_crash_console_flush
 .text.asm.plat_crash_console_init
                0x0000000040001a44       0x48 ./234-t194/tegra/t194/release/bl31/crash_console_helpers.o
                0x0000000040001a44                plat_crash_console_init
 .text.asm.plat_crash_console_putc
                0x0000000040001a8c       0x84 ./234-t194/tegra/t194/release/bl31/crash_console_helpers.o
                0x0000000040001a8c                plat_crash_console_putc
 .text.asm.plat_get_my_entrypoint
                0x0000000040001b10        0xc ./234-t194/tegra/t194/release/bl31/tegra_helpers.o
                0x0000000040001b10                plat_get_my_entrypoint
 .text.asm.plat_get_my_stack
                0x0000000040001b1c       0x1c ./234-t194/tegra/t194/release/bl31/platform_mp_stack.o
                0x0000000040001b1c                plat_get_my_stack
 .text.asm.plat_handle_double_fault
                0x0000000040001b38        0x4 ./234-t194/tegra/t194/release/bl31/platform_helpers.o
                0x0000000040001b38                plat_handle_double_fault
 .text.asm.plat_handle_el3_ea
                0x0000000040001b3c        0x4 ./234-t194/tegra/t194/release/bl31/platform_helpers.o
                0x0000000040001b3c                plat_handle_el3_ea
 .text.asm.plat_handle_uncontainable_ea
                0x0000000040001b40        0x4 ./234-t194/tegra/t194/release/bl31/platform_helpers.o
                0x0000000040001b40                plat_handle_uncontainable_ea
 .text.asm.plat_my_core_pos
                0x0000000040001b44       0x10 ./234-t194/tegra/t194/release/bl31/tegra_helpers.o
                0x0000000040001b44                plat_my_core_pos
 .text.asm.plat_panic_handler
                0x0000000040001b54        0x8 ./234-t194/tegra/t194/release/bl31/platform_helpers.o
                0x0000000040001b54                plat_panic_handler
 .text.asm.plat_reset_handler
                0x0000000040001b5c      0x108 ./234-t194/tegra/t194/release/bl31/tegra_helpers.o
                0x0000000040001b5c                plat_reset_handler
 .text.asm.plat_set_my_stack
                0x0000000040001c64       0x10 ./234-t194/tegra/t194/release/bl31/platform_mp_stack.o
                0x0000000040001c64                plat_set_my_stack
 .text.asm.platform_mem_init
                0x0000000040001c74        0x8 ./234-t194/tegra/t194/release/bl31/tegra_helpers.o
                0x0000000040001c74                platform_mem_init
 .text.asm.prepare_cpu_pwr_dwn
                0x0000000040001c7c       0x4c ./234-t194/tegra/t194/release/bl31/cpu_helpers.o
                0x0000000040001c7c                prepare_cpu_pwr_dwn
 .text.asm.prepare_el3_entry
                0x0000000040001cc8       0x7c ./234-t194/tegra/t194/release/bl31/context.o
                0x0000000040001cc8                prepare_el3_entry
 .text.asm.print_alignment
                0x0000000040001d44        0xc ./234-t194/tegra/t194/release/bl31/crash_reporting.o
 .text.asm.psci_do_pwrdown_cache_maintenance
                0x0000000040001d50       0x3c ./234-t194/tegra/t194/release/bl31/psci_helpers.o
                0x0000000040001d50                psci_do_pwrdown_cache_maintenance
 .text.asm.psci_power_down_wfi
                0x0000000040001d8c        0xc ./234-t194/tegra/t194/release/bl31/psci_helpers.o
                0x0000000040001d8c                psci_power_down_wfi
 .text.asm.report_unhandled_exception
                0x0000000040001d98       0x28 ./234-t194/tegra/t194/release/bl31/crash_reporting.o
                0x0000000040001d98                report_unhandled_exception
 .text.asm.report_unhandled_interrupt
                0x0000000040001dc0       0x28 ./234-t194/tegra/t194/release/bl31/crash_reporting.o
                0x0000000040001dc0                report_unhandled_interrupt
 .text.asm.reset_handler
                0x0000000040001de8       0x34 ./234-t194/tegra/t194/release/bl31/cpu_helpers.o
                0x0000000040001de8                reset_handler
 .text.asm.restore_gp_pmcr_pauth_regs
                0x0000000040001e1c       0x70 ./234-t194/tegra/t194/release/bl31/context.o
                0x0000000040001e1c                restore_gp_pmcr_pauth_regs
 .text.asm.setjmp
                0x0000000040001e8c       0x28 ./234-t194/tegra/t194/release/lib/libc.a(setjmp.o)
                0x0000000040001e8c                setjmp
 .text.asm.size_controlled_print
                0x0000000040001eb4       0x4c ./234-t194/tegra/t194/release/bl31/crash_reporting.o
 .text.asm.smc_handler
                0x0000000040001f00       0x8c ./234-t194/tegra/t194/release/bl31/runtime_exceptions.o
 .text.asm.spin_lock
                0x0000000040001f8c       0x20 ./234-t194/tegra/t194/release/bl31/spinlock.o
                0x0000000040001f8c                spin_lock
 .text.asm.spin_unlock
                0x0000000040001fac        0x8 ./234-t194/tegra/t194/release/bl31/spinlock.o
                0x0000000040001fac                spin_unlock
 .text.asm.str_in_crash_buf_print
                0x0000000040001fb4       0x18 ./234-t194/tegra/t194/release/bl31/crash_reporting.o
 .text.asm.tegra194_get_cpu_reset_handler_base
                0x0000000040001fcc        0x8 ./234-t194/tegra/t194/release/bl31/plat_trampoline.o
                0x0000000040001fcc                tegra194_get_cpu_reset_handler_base
 .text.asm.tegra194_get_cpu_reset_handler_size
                0x0000000040001fd4       0x10 ./234-t194/tegra/t194/release/bl31/plat_trampoline.o
                0x0000000040001fd4                tegra194_get_cpu_reset_handler_size
 .text.asm.tegra194_get_mc_ctx_offset
                0x0000000040001fe4       0x10 ./234-t194/tegra/t194/release/bl31/plat_trampoline.o
                0x0000000040001fe4                tegra194_get_mc_ctx_offset
 .text.asm.tegra194_set_system_suspend_entry
                0x0000000040001ff4       0x40 ./234-t194/tegra/t194/release/bl31/plat_trampoline.o
                0x0000000040001ff4                tegra194_set_system_suspend_entry
 .text.asm.update_stack_protector_canary
                0x0000000040002034       0x14 ./234-t194/tegra/t194/release/bl31/asm_stack_protector.o
                0x0000000040002034                update_stack_protector_canary
 .text.asm.zeromem
                0x0000000040002048        0x8 ./234-t194/tegra/t194/release/bl31/misc_helpers.o
                0x0000000040002048                zeromem
 .text.asm.zeromem_dczva
                0x0000000040002050      0x114 ./234-t194/tegra/t194/release/bl31/misc_helpers.o
                0x0000000040002050                zero_normalmem
 .text.bakery_lock_get
                0x0000000040002164      0x1a8 ./234-t194/tegra/t194/release/bl31/bakery_lock_normal.o
                0x0000000040002164                bakery_lock_get
 .text.bakery_lock_release
                0x000000004000230c       0x98 ./234-t194/tegra/t194/release/bl31/bakery_lock_normal.o
                0x000000004000230c                bakery_lock_release
 .text.bl31_check_ns_address
                0x00000000400023a4       0x80 ./234-t194/tegra/t194/release/bl31/tegra_bl31_setup.o
                0x00000000400023a4                bl31_check_ns_address
 .text.bl31_early_platform_setup2
                0x0000000040002424      0x120 ./234-t194/tegra/t194/release/bl31/tegra_bl31_setup.o
                0x0000000040002424                bl31_early_platform_setup2
 .text.bl31_get_plat_params
                0x0000000040002544        0xc ./234-t194/tegra/t194/release/bl31/tegra_bl31_setup.o
                0x0000000040002544                bl31_get_plat_params
 .text.bl31_main
                0x0000000040002550       0x68 ./234-t194/tegra/t194/release/bl31/bl31_main.o
                0x0000000040002550                bl31_main
 .text.bl31_plat_arch_setup
                0x00000000400025b8       0xcc ./234-t194/tegra/t194/release/bl31/tegra_bl31_setup.o
                0x00000000400025b8                bl31_plat_arch_setup
 .text.bl31_plat_get_next_image_ep_info
                0x0000000040002684       0x38 ./234-t194/tegra/t194/release/bl31/tegra_bl31_setup.o
                0x0000000040002684                bl31_plat_get_next_image_ep_info
 .text.bl31_plat_runtime_setup
                0x00000000400026bc       0x20 ./234-t194/tegra/t194/release/bl31/tegra_bl31_setup.o
                0x00000000400026bc                bl31_plat_runtime_setup
 .text.bl31_platform_setup
                0x00000000400026dc       0x34 ./234-t194/tegra/t194/release/bl31/tegra_bl31_setup.o
                0x00000000400026dc                bl31_platform_setup
 .text.bl31_prepare_next_image_entry
                0x0000000040002710       0xa8 ./234-t194/tegra/t194/release/bl31/bl31_main.o
                0x0000000040002710                bl31_prepare_next_image_entry
 .text.bl31_register_bl32_init
                0x00000000400027b8        0xc ./234-t194/tegra/t194/release/bl31/bl31_main.o
                0x00000000400027b8                bl31_register_bl32_init
 .text.bl31_setup
                0x00000000400027c4       0x14 ./234-t194/tegra/t194/release/bl31/bl31_main.o
                0x00000000400027c4                bl31_setup
 .text.boot_profiler_add_record
                0x00000000400027d8       0xe0 ./234-t194/tegra/t194/release/bl31/profiler.o
                0x00000000400027d8                boot_profiler_add_record
 .text.boot_profiler_deinit
                0x00000000400028b8       0x64 ./234-t194/tegra/t194/release/bl31/profiler.o
                0x00000000400028b8                boot_profiler_deinit
 .text.boot_profiler_init
                0x000000004000291c       0x6c ./234-t194/tegra/t194/release/bl31/profiler.o
                0x000000004000291c                boot_profiler_init
 .text.can_sdei_state_trans
                0x0000000040002988       0x6c ./234-t194/tegra/t194/release/bl31/sdei_state.o
                0x0000000040002988                can_sdei_state_trans
 .text.cm_el1_sysregs_context_restore
                0x00000000400029f4       0x98 ./234-t194/tegra/t194/release/bl31/context_mgmt.o
                0x00000000400029f4                cm_el1_sysregs_context_restore
 .text.cm_el1_sysregs_context_save
                0x0000000040002a8c       0x98 ./234-t194/tegra/t194/release/bl31/context_mgmt.o
                0x0000000040002a8c                cm_el1_sysregs_context_save
 .text.cm_get_context
                0x0000000040002b24       0x34 ./234-t194/tegra/t194/release/bl31/bl31_context_mgmt.o
                0x0000000040002b24                cm_get_context
 .text.cm_get_context_by_index
                0x0000000040002b58       0x44 ./234-t194/tegra/t194/release/bl31/bl31_context_mgmt.o
                0x0000000040002b58                cm_get_context_by_index
 .text.cm_init  0x0000000040002b9c        0x4 ./234-t194/tegra/t194/release/bl31/context_mgmt.o
                0x0000000040002b9c                cm_init
 .text.cm_init_context_by_index
                0x0000000040002ba0       0x30 ./234-t194/tegra/t194/release/bl31/context_mgmt.o
                0x0000000040002ba0                cm_init_context_by_index
 .text.cm_init_my_context
                0x0000000040002bd0       0x30 ./234-t194/tegra/t194/release/bl31/context_mgmt.o
                0x0000000040002bd0                cm_init_my_context
 .text.cm_prepare_el3_exit
                0x0000000040002c00       0xf4 ./234-t194/tegra/t194/release/bl31/context_mgmt.o
                0x0000000040002c00                cm_prepare_el3_exit
 .text.cm_set_context
                0x0000000040002cf4       0x34 ./234-t194/tegra/t194/release/bl31/bl31_context_mgmt.o
                0x0000000040002cf4                cm_set_context
 .text.cm_set_context_by_index
                0x0000000040002d28       0x48 ./234-t194/tegra/t194/release/bl31/bl31_context_mgmt.o
                0x0000000040002d28                cm_set_context_by_index
 .text.cm_set_elr_el3
                0x0000000040002d70       0x40 ./234-t194/tegra/t194/release/bl31/context_mgmt.o
                0x0000000040002d70                cm_set_elr_el3
 .text.cm_set_elr_spsr_el3
                0x0000000040002db0       0x44 ./234-t194/tegra/t194/release/bl31/context_mgmt.o
                0x0000000040002db0                cm_set_elr_spsr_el3
 .text.cm_set_next_eret_context
                0x0000000040002df4       0x5c ./234-t194/tegra/t194/release/bl31/context_mgmt.o
                0x0000000040002df4                cm_set_next_eret_context
 .text.cm_setup_context
                0x0000000040002e50      0x228 ./234-t194/tegra/t194/release/bl31/context_mgmt.o
                0x0000000040002e50                cm_setup_context
 .text.cm_write_scr_el3_bit
                0x0000000040003078       0x94 ./234-t194/tegra/t194/release/bl31/context_mgmt.o
                0x0000000040003078                cm_write_scr_el3_bit
 .text.console_flush
                0x000000004000310c       0x54 ./234-t194/tegra/t194/release/bl31/multi_console.o
                0x000000004000310c                console_flush
 .text.console_is_registered
                0x0000000040003160       0x50 ./234-t194/tegra/t194/release/bl31/multi_console.o
                0x0000000040003160                console_is_registered
 .text.console_putc
                0x00000000400031b0       0x9c ./234-t194/tegra/t194/release/bl31/multi_console.o
                0x00000000400031b0                console_putc
 .text.console_register
                0x000000004000324c       0x78 ./234-t194/tegra/t194/release/bl31/multi_console.o
                0x000000004000324c                console_register
 .text.console_set_scope
                0x00000000400032c4       0x3c ./234-t194/tegra/t194/release/bl31/multi_console.o
                0x00000000400032c4                console_set_scope
 .text.console_switch_state
                0x0000000040003300        0xc ./234-t194/tegra/t194/release/bl31/multi_console.o
                0x0000000040003300                console_switch_state
 .text.ehf_activate_priority
                0x000000004000330c       0xe0 ./234-t194/tegra/t194/release/bl31/ehf.o
                0x000000004000330c                ehf_activate_priority
 .text.ehf_deactivate_priority
                0x00000000400033ec       0xdc ./234-t194/tegra/t194/release/bl31/ehf.o
                0x00000000400033ec                ehf_deactivate_priority
 .text.ehf_el3_interrupt_handler
                0x00000000400034c8      0x108 ./234-t194/tegra/t194/release/bl31/ehf.o
 .text.ehf_entering_normal_world
                0x00000000400035d0       0x6c ./234-t194/tegra/t194/release/bl31/ehf.o
 .text.ehf_exited_normal_world
                0x000000004000363c       0x78 ./234-t194/tegra/t194/release/bl31/ehf.o
 .text.ehf_init
                0x00000000400036b4       0x98 ./234-t194/tegra/t194/release/bl31/ehf.o
                0x00000000400036b4                ehf_init
 .text.ehf_register_priority_handler
                0x000000004000374c       0xd8 ./234-t194/tegra/t194/release/bl31/ehf.o
                0x000000004000374c                ehf_register_priority_handler
 .text.enable_mmu_el3
                0x0000000040003824       0x48 ./234-t194/tegra/t194/release/bl31/xlat_tables_context.o
                0x0000000040003824                enable_mmu_el3
 .text.find_event_map
                0x000000004000386c       0x68 ./234-t194/tegra/t194/release/bl31/sdei_event.o
                0x000000004000386c                find_event_map
 .text.find_event_map_by_intr
                0x00000000400038d4       0x4c ./234-t194/tegra/t194/release/bl31/sdei_event.o
                0x00000000400038d4                find_event_map_by_intr
 .text.get_arm_std_svc_args
                0x0000000040003920       0x38 ./234-t194/tegra/t194/release/bl31/bl31_main.o
                0x0000000040003920                get_arm_std_svc_args
 .text.get_event_entry
                0x0000000040003958       0x7c ./234-t194/tegra/t194/release/bl31/sdei_event.o
                0x0000000040003958                get_event_entry
 .text.get_interrupt_type_handler
                0x00000000400039d4       0x24 ./234-t194/tegra/t194/release/bl31/interrupt_mgmt.o
                0x00000000400039d4                get_interrupt_type_handler
 .text.get_outstanding_dispatch
                0x00000000400039f8       0x6c ./234-t194/tegra/t194/release/bl31/sdei_intr_mgmt.o
 .text.get_scr_el3_from_routing_model
                0x0000000040003a64       0x58 ./234-t194/tegra/t194/release/bl31/interrupt_mgmt.o
                0x0000000040003a64                get_scr_el3_from_routing_model
 .text.gicd_clr_igroupr
                0x0000000040003abc       0x30 ./234-t194/tegra/t194/release/bl31/gicdv2_helpers.o
                0x0000000040003abc                gicd_clr_igroupr
 .text.gicd_get_igroupr
                0x0000000040003aec       0x20 ./234-t194/tegra/t194/release/bl31/gicdv2_helpers.o
                0x0000000040003aec                gicd_get_igroupr
 .text.gicd_get_isactiver
                0x0000000040003b0c       0x20 ./234-t194/tegra/t194/release/bl31/gicdv2_helpers.o
                0x0000000040003b0c                gicd_get_isactiver
 .text.gicd_read_icfgr
                0x0000000040003b2c       0x14 ./234-t194/tegra/t194/release/bl31/gicdv2_helpers.o
                0x0000000040003b2c                gicd_read_icfgr
 .text.gicd_read_igroupr
                0x0000000040003b40       0x14 ./234-t194/tegra/t194/release/bl31/gicdv2_helpers.o
                0x0000000040003b40                gicd_read_igroupr
 .text.gicd_read_isactiver
                0x0000000040003b54       0x14 ./234-t194/tegra/t194/release/bl31/gicdv2_helpers.o
                0x0000000040003b54                gicd_read_isactiver
 .text.gicd_set_icenabler
                0x0000000040003b68        0xc ./234-t194/tegra/t194/release/bl31/gicdv2_helpers.o
                0x0000000040003b68                gicd_set_icenabler
 .text.gicd_set_icfgr
                0x0000000040003b74       0x40 ./234-t194/tegra/t194/release/bl31/gicdv2_helpers.o
                0x0000000040003b74                gicd_set_icfgr
 .text.gicd_set_icpendr
                0x0000000040003bb4        0xc ./234-t194/tegra/t194/release/bl31/gicdv2_helpers.o
                0x0000000040003bb4                gicd_set_icpendr
 .text.gicd_set_igroupr
                0x0000000040003bc0       0x30 ./234-t194/tegra/t194/release/bl31/gicdv2_helpers.o
                0x0000000040003bc0                gicd_set_igroupr
 .text.gicd_set_ipriorityr
                0x0000000040003bf0       0x14 ./234-t194/tegra/t194/release/bl31/gicdv2_helpers.o
                0x0000000040003bf0                gicd_set_ipriorityr
 .text.gicd_set_isenabler
                0x0000000040003c04        0xc ./234-t194/tegra/t194/release/bl31/gicdv2_helpers.o
                0x0000000040003c04                gicd_set_isenabler
 .text.gicd_set_ispendr
                0x0000000040003c10        0xc ./234-t194/tegra/t194/release/bl31/gicdv2_helpers.o
                0x0000000040003c10                gicd_set_ispendr
 .text.gicd_write_icenabler
                0x0000000040003c1c       0x14 ./234-t194/tegra/t194/release/bl31/gicdv2_helpers.o
                0x0000000040003c1c                gicd_write_icenabler
 .text.gicd_write_icfgr
                0x0000000040003c30       0x14 ./234-t194/tegra/t194/release/bl31/gicdv2_helpers.o
                0x0000000040003c30                gicd_write_icfgr
 .text.gicd_write_icpendr
                0x0000000040003c44       0x14 ./234-t194/tegra/t194/release/bl31/gicdv2_helpers.o
                0x0000000040003c44                gicd_write_icpendr
 .text.gicd_write_igroupr
                0x0000000040003c58       0x14 ./234-t194/tegra/t194/release/bl31/gicdv2_helpers.o
                0x0000000040003c58                gicd_write_igroupr
 .text.gicd_write_ipriorityr
                0x0000000040003c6c       0x10 ./234-t194/tegra/t194/release/bl31/gicdv2_helpers.o
                0x0000000040003c6c                gicd_write_ipriorityr
 .text.gicd_write_isenabler
                0x0000000040003c7c       0x14 ./234-t194/tegra/t194/release/bl31/gicdv2_helpers.o
                0x0000000040003c7c                gicd_write_isenabler
 .text.gicd_write_ispendr
                0x0000000040003c90       0x14 ./234-t194/tegra/t194/release/bl31/gicdv2_helpers.o
                0x0000000040003c90                gicd_write_ispendr
 .text.gicv2_acknowledge_interrupt
                0x0000000040003ca4       0x50 ./234-t194/tegra/t194/release/bl31/gicv2_main.o
                0x0000000040003ca4                gicv2_acknowledge_interrupt
 .text.gicv2_clear_interrupt_pending
                0x0000000040003cf4       0x70 ./234-t194/tegra/t194/release/bl31/gicv2_main.o
                0x0000000040003cf4                gicv2_clear_interrupt_pending
 .text.gicv2_cpuif_disable
                0x0000000040003d64       0x5c ./234-t194/tegra/t194/release/bl31/gicv2_main.o
                0x0000000040003d64                gicv2_cpuif_disable
 .text.gicv2_cpuif_enable
                0x0000000040003dc0       0x5c ./234-t194/tegra/t194/release/bl31/gicv2_main.o
                0x0000000040003dc0                gicv2_cpuif_enable
 .text.gicv2_disable_interrupt
                0x0000000040003e1c       0x70 ./234-t194/tegra/t194/release/bl31/gicv2_main.o
                0x0000000040003e1c                gicv2_disable_interrupt
 .text.gicv2_distif_init
                0x0000000040003e8c       0x88 ./234-t194/tegra/t194/release/bl31/gicv2_main.o
                0x0000000040003e8c                gicv2_distif_init
 .text.gicv2_driver_init
                0x0000000040003f14       0xa8 ./234-t194/tegra/t194/release/bl31/gicv2_main.o
                0x0000000040003f14                gicv2_driver_init
 .text.gicv2_enable_interrupt
                0x0000000040003fbc       0x74 ./234-t194/tegra/t194/release/bl31/gicv2_main.o
                0x0000000040003fbc                gicv2_enable_interrupt
 .text.gicv2_end_of_interrupt
                0x0000000040004030       0x5c ./234-t194/tegra/t194/release/bl31/gicv2_main.o
                0x0000000040004030                gicv2_end_of_interrupt
 .text.gicv2_get_cpuif_id
                0x000000004000408c        0xc ./234-t194/tegra/t194/release/bl31/gicv2_helpers.o
                0x000000004000408c                gicv2_get_cpuif_id
 .text.gicv2_get_interrupt_active
                0x0000000040004098       0x68 ./234-t194/tegra/t194/release/bl31/gicv2_main.o
                0x0000000040004098                gicv2_get_interrupt_active
 .text.gicv2_get_interrupt_group
                0x0000000040004100       0x50 ./234-t194/tegra/t194/release/bl31/gicv2_main.o
                0x0000000040004100                gicv2_get_interrupt_group
 .text.gicv2_get_pending_interrupt_type
                0x0000000040004150       0x54 ./234-t194/tegra/t194/release/bl31/gicv2_main.o
                0x0000000040004150                gicv2_get_pending_interrupt_type
 .text.gicv2_get_running_priority
                0x00000000400041a4       0x50 ./234-t194/tegra/t194/release/bl31/gicv2_main.o
                0x00000000400041a4                gicv2_get_running_priority
 .text.gicv2_is_fiq_enabled
                0x00000000400041f4       0x54 ./234-t194/tegra/t194/release/bl31/gicv2_main.o
                0x00000000400041f4                gicv2_is_fiq_enabled
 .text.gicv2_pcpu_distif_init
                0x0000000040004248       0x78 ./234-t194/tegra/t194/release/bl31/gicv2_main.o
                0x0000000040004248                gicv2_pcpu_distif_init
 .text.gicv2_raise_sgi
                0x00000000400042c0       0xe0 ./234-t194/tegra/t194/release/bl31/gicv2_main.o
                0x00000000400042c0                gicv2_raise_sgi
 .text.gicv2_secure_ppi_sgi_setup_props
                0x00000000400043a0      0x124 ./234-t194/tegra/t194/release/bl31/gicv2_helpers.o
                0x00000000400043a0                gicv2_secure_ppi_sgi_setup_props
 .text.gicv2_secure_spis_configure_props
                0x00000000400044c4       0xf4 ./234-t194/tegra/t194/release/bl31/gicv2_helpers.o
                0x00000000400044c4                gicv2_secure_spis_configure_props
 .text.gicv2_set_interrupt_pending
                0x00000000400045b8       0x74 ./234-t194/tegra/t194/release/bl31/gicv2_main.o
                0x00000000400045b8                gicv2_set_interrupt_pending
 .text.gicv2_set_interrupt_priority
                0x000000004000462c       0x70 ./234-t194/tegra/t194/release/bl31/gicv2_main.o
                0x000000004000462c                gicv2_set_interrupt_priority
 .text.gicv2_set_interrupt_type
                0x000000004000469c       0xd0 ./234-t194/tegra/t194/release/bl31/gicv2_main.o
                0x000000004000469c                gicv2_set_interrupt_type
 .text.gicv2_set_pe_target_mask
                0x000000004000476c       0xb8 ./234-t194/tegra/t194/release/bl31/gicv2_main.o
                0x000000004000476c                gicv2_set_pe_target_mask
 .text.gicv2_set_pmr
                0x0000000040004824       0x68 ./234-t194/tegra/t194/release/bl31/gicv2_main.o
                0x0000000040004824                gicv2_set_pmr
 .text.gicv2_set_spi_routing
                0x000000004000488c      0x100 ./234-t194/tegra/t194/release/bl31/gicv2_main.o
                0x000000004000488c                gicv2_set_spi_routing
 .text.gicv2_spis_configure_defaults
                0x000000004000498c       0x9c ./234-t194/tegra/t194/release/bl31/gicv2_helpers.o
                0x000000004000498c                gicv2_spis_configure_defaults
 .text.init_xlat_tables
                0x0000000040004a28       0x78 ./234-t194/tegra/t194/release/bl31/xlat_tables_context.o
                0x0000000040004a28                init_xlat_tables
 .text.init_xlat_tables_ctx
                0x0000000040004aa0      0x220 ./234-t194/tegra/t194/release/bl31/xlat_tables_core.o
                0x0000000040004aa0                init_xlat_tables_ctx
 .text.is_dcache_enabled
                0x0000000040004cc0        0xc ./234-t194/tegra/t194/release/bl31/xlat_tables_arch.o
                0x0000000040004cc0                is_dcache_enabled
 .text.is_mmu_enabled_ctx
                0x0000000040004ccc       0xac ./234-t194/tegra/t194/release/bl31/xlat_tables_arch.o
                0x0000000040004ccc                is_mmu_enabled_ctx
 .text.ivc_advance_rx
                0x0000000040004d78       0x2c ./234-t194/tegra/t194/release/bl31/ivc.o
 .text.ivc_advance_tx
                0x0000000040004da4       0x2c ./234-t194/tegra/t194/release/bl31/ivc.o
 .text.ivc_check_read
                0x0000000040004dd0       0x6c ./234-t194/tegra/t194/release/bl31/ivc.o
 .text.ivc_check_write
                0x0000000040004e3c       0x50 ./234-t194/tegra/t194/release/bl31/ivc.o
 .text.ivc_frame_pointer.part.0
                0x0000000040004e8c       0x20 ./234-t194/tegra/t194/release/bl31/ivc.o
 .text.mce_clear_hsm_corr_status
                0x0000000040004eac        0x4 ./234-t194/tegra/t194/release/bl31/mce.o
                0x0000000040004eac                mce_clear_hsm_corr_status
 .text.mce_command_handler
                0x0000000040004eb0       0xc0 ./234-t194/tegra/t194/release/bl31/mce.o
                0x0000000040004eb0                mce_command_handler
 .text.mce_enable_strict_checking
                0x0000000040004f70       0x80 ./234-t194/tegra/t194/release/bl31/mce.o
                0x0000000040004f70                mce_enable_strict_checking
 .text.mce_firmware_not_supported
                0x0000000040004ff0       0x3c ./234-t194/tegra/t194/release/bl31/mce.o
 .text.mce_system_reboot
                0x000000004000502c        0x4 ./234-t194/tegra/t194/release/bl31/mce.o
                0x000000004000502c                mce_system_reboot
 .text.mce_system_shutdown
                0x0000000040005030        0x4 ./234-t194/tegra/t194/release/bl31/mce.o
                0x0000000040005030                mce_system_shutdown
 .text.mce_update_cstate_info
                0x0000000040005034       0x14 ./234-t194/tegra/t194/release/bl31/mce.o
                0x0000000040005034                mce_update_cstate_info
 .text.mce_update_gsc_tzdram
                0x0000000040005048       0x2c ./234-t194/tegra/t194/release/bl31/mce.o
                0x0000000040005048                mce_update_gsc_tzdram
 .text.mce_update_gsc_videomem
                0x0000000040005074       0x2c ./234-t194/tegra/t194/release/bl31/mce.o
                0x0000000040005074                mce_update_gsc_videomem
 .text.mce_verify_firmware_version
                0x00000000400050a0       0x54 ./234-t194/tegra/t194/release/bl31/mce.o
                0x00000000400050a0                mce_verify_firmware_version
 .text.mce_verify_strict_checking
                0x00000000400050f4       0x40 ./234-t194/tegra/t194/release/bl31/mce.o
                0x00000000400050f4                mce_verify_strict_checking
 .text.mdelay   0x0000000040005134       0x3c ./234-t194/tegra/t194/release/bl31/delay_timer.o
                0x0000000040005134                mdelay
 .text.memcmp   0x0000000040005170       0x34 ./234-t194/tegra/t194/release/lib/libc.a(memcmp.o)
                0x0000000040005170                memcmp
 .text.memcpy   0x00000000400051a4       0x20 ./234-t194/tegra/t194/release/lib/libc.a(memcpy.o)
                0x00000000400051a4                memcpy
 .text.memmove  0x00000000400051c4       0x34 ./234-t194/tegra/t194/release/lib/libc.a(memmove.o)
                0x00000000400051c4                memmove
 .text.memset   0x00000000400051f8       0x78 ./234-t194/tegra/t194/release/lib/libc.a(memset.o)
                0x00000000400051f8                memset
 .text.mmap_add
                0x0000000040005270       0x10 ./234-t194/tegra/t194/release/bl31/xlat_tables_context.o
                0x0000000040005270                mmap_add
 .text.mmap_add_ctx
                0x0000000040005280       0x3c ./234-t194/tegra/t194/release/bl31/xlat_tables_core.o
                0x0000000040005280                mmap_add_ctx
 .text.mmap_add_dynamic_region
                0x00000000400052bc       0x68 ./234-t194/tegra/t194/release/bl31/xlat_tables_context.o
                0x00000000400052bc                mmap_add_dynamic_region
 .text.mmap_add_dynamic_region_ctx
                0x0000000040005324      0x208 ./234-t194/tegra/t194/release/bl31/xlat_tables_core.o
                0x0000000040005324                mmap_add_dynamic_region_ctx
 .text.mmap_add_region
                0x000000004000552c       0x68 ./234-t194/tegra/t194/release/bl31/xlat_tables_context.o
                0x000000004000552c                mmap_add_region
 .text.mmap_add_region_check
                0x0000000040005594      0x164 ./234-t194/tegra/t194/release/bl31/xlat_tables_core.o
 .text.mmap_add_region_ctx
                0x00000000400056f8      0x178 ./234-t194/tegra/t194/release/bl31/xlat_tables_core.o
                0x00000000400056f8                mmap_add_region_ctx
 .text.mmap_remove_dynamic_region
                0x0000000040005870       0x14 ./234-t194/tegra/t194/release/bl31/xlat_tables_context.o
                0x0000000040005870                mmap_remove_dynamic_region
 .text.mmap_remove_dynamic_region_ctx
                0x0000000040005884      0x168 ./234-t194/tegra/t194/release/bl31/xlat_tables_core.o
                0x0000000040005884                mmap_remove_dynamic_region_ctx
 .text.nvg_clear_hsm_corr_status
                0x00000000400059ec        0xc ./234-t194/tegra/t194/release/bl31/nvg.o
                0x00000000400059ec                nvg_clear_hsm_corr_status
 .text.nvg_enable_strict_checking_mode
                0x00000000400059f8        0xc ./234-t194/tegra/t194/release/bl31/nvg.o
                0x00000000400059f8                nvg_enable_strict_checking_mode
 .text.nvg_enter_cstate
                0x0000000040005a04       0x68 ./234-t194/tegra/t194/release/bl31/nvg.o
                0x0000000040005a04                nvg_enter_cstate
 .text.nvg_get_version
                0x0000000040005a6c       0x18 ./234-t194/tegra/t194/release/bl31/nvg.o
                0x0000000040005a6c                nvg_get_version
 .text.nvg_is_sc7_allowed
                0x0000000040005a84       0x1c ./234-t194/tegra/t194/release/bl31/nvg.o
                0x0000000040005a84                nvg_is_sc7_allowed
 .text.nvg_online_core
                0x0000000040005aa0       0x48 ./234-t194/tegra/t194/release/bl31/nvg.o
                0x0000000040005aa0                nvg_online_core
 .text.nvg_roc_clean_cache_trbits
                0x0000000040005ae8       0x50 ./234-t194/tegra/t194/release/bl31/nvg.o
                0x0000000040005ae8                nvg_roc_clean_cache_trbits
 .text.nvg_set_wake_time
                0x0000000040005b38        0xc ./234-t194/tegra/t194/release/bl31/nvg.o
                0x0000000040005b38                nvg_set_wake_time
 .text.nvg_system_reboot
                0x0000000040005b44        0xc ./234-t194/tegra/t194/release/bl31/nvg.o
                0x0000000040005b44                nvg_system_reboot
 .text.nvg_system_shutdown
                0x0000000040005b50        0xc ./234-t194/tegra/t194/release/bl31/nvg.o
                0x0000000040005b50                nvg_system_shutdown
 .text.nvg_update_ccplex_gsc
                0x0000000040005b5c       0x48 ./234-t194/tegra/t194/release/bl31/nvg.o
                0x0000000040005b5c                nvg_update_ccplex_gsc
 .text.nvg_update_cstate_info
                0x0000000040005ba4       0x48 ./234-t194/tegra/t194/release/bl31/nvg.o
                0x0000000040005ba4                nvg_update_cstate_info
 .text.nvg_verify_strict_checking_mode
                0x0000000040005bec       0x3c ./234-t194/tegra/t194/release/bl31/nvg.o
                0x0000000040005bec                nvg_verify_strict_checking_mode
 .text.opteed_cpu_migrate_info
                0x0000000040005c28        0x8 ./234-t194/tegra/t194/release/bl31/opteed_pm.o
 .text.opteed_cpu_off_handler
                0x0000000040005c30       0xb4 ./234-t194/tegra/t194/release/bl31/opteed_pm.o
 .text.opteed_cpu_on_finish_handler
                0x0000000040005ce4       0xfc ./234-t194/tegra/t194/release/bl31/opteed_pm.o
 .text.opteed_cpu_on_handler
                0x0000000040005de0        0x4 ./234-t194/tegra/t194/release/bl31/opteed_pm.o
 .text.opteed_cpu_suspend_finish_handler
                0x0000000040005de4       0xc0 ./234-t194/tegra/t194/release/bl31/opteed_pm.o
 .text.opteed_cpu_suspend_handler
                0x0000000040005ea4       0xc0 ./234-t194/tegra/t194/release/bl31/opteed_pm.o
 .text.opteed_init
                0x0000000040005f64       0x70 ./234-t194/tegra/t194/release/bl31/opteed_main.o
 .text.opteed_init_optee_ep_state
                0x0000000040005fd4       0xe8 ./234-t194/tegra/t194/release/bl31/opteed_common.o
                0x0000000040005fd4                opteed_init_optee_ep_state
 .text.opteed_sel1_interrupt_handler
                0x00000000400060bc       0xe0 ./234-t194/tegra/t194/release/bl31/opteed_main.o
 .text.opteed_setup
                0x000000004000619c       0x78 ./234-t194/tegra/t194/release/bl31/opteed_main.o
 .text.opteed_smc_handler
                0x0000000040006214      0x264 ./234-t194/tegra/t194/release/bl31/opteed_main.o
 .text.opteed_synchronous_sp_entry
                0x0000000040006478       0x98 ./234-t194/tegra/t194/release/bl31/opteed_common.o
                0x0000000040006478                opteed_synchronous_sp_entry
 .text.opteed_synchronous_sp_exit
                0x0000000040006510       0x84 ./234-t194/tegra/t194/release/bl31/opteed_common.o
                0x0000000040006510                opteed_synchronous_sp_exit
 .text.opteed_system_off
                0x0000000040006594       0x8c ./234-t194/tegra/t194/release/bl31/opteed_pm.o
 .text.opteed_system_reset
                0x0000000040006620       0x8c ./234-t194/tegra/t194/release/bl31/opteed_pm.o
 .text.plat_arm_set_twedel_scr_el3
                0x00000000400066ac        0x8 ./234-t194/tegra/t194/release/bl31/plat_common.o
                0x00000000400066ac                plat_arm_set_twedel_scr_el3
 .text.plat_ea_handler
                0x00000000400066b4       0xc0 ./234-t194/tegra/t194/release/bl31/plat_ras.o
                0x00000000400066b4                plat_ea_handler
 .text.plat_early_platform_setup
                0x0000000040006774      0x258 ./234-t194/tegra/t194/release/bl31/plat_setup.o
                0x0000000040006774                plat_early_platform_setup
 .text.plat_enable_console
                0x00000000400069cc       0x50 ./234-t194/tegra/t194/release/bl31/plat_setup.o
                0x00000000400069cc                plat_enable_console
 .text.plat_get_bl31_params
                0x0000000040006a1c       0x24 ./234-t194/tegra/t194/release/bl31/plat_setup.o
                0x0000000040006a1c                plat_get_bl31_params
 .text.plat_get_bl31_plat_params
                0x0000000040006a40       0x24 ./234-t194/tegra/t194/release/bl31/plat_setup.o
                0x0000000040006a40                plat_get_bl31_plat_params
 .text.plat_get_bpmp_ipc_data
                0x0000000040006a64       0x2c ./234-t194/tegra/t194/release/bl31/plat_setup.o
                0x0000000040006a64                plat_get_bpmp_ipc_data
 .text.plat_get_mmio_map
                0x0000000040006a90        0xc ./234-t194/tegra/t194/release/bl31/plat_setup.o
                0x0000000040006a90                plat_get_mmio_map
 .text.plat_get_num_smmu_devices
                0x0000000040006a9c       0x20 ./234-t194/tegra/t194/release/bl31/plat_smmu.o
                0x0000000040006a9c                plat_get_num_smmu_devices
 .text.plat_get_power_domain_tree_desc
                0x0000000040006abc        0xc ./234-t194/tegra/t194/release/bl31/plat_setup.o
                0x0000000040006abc                plat_get_power_domain_tree_desc
 .text.plat_get_soc_revision
                0x0000000040006ac8       0x24 ./234-t194/tegra/t194/release/bl31/tegra_platform.o
                0x0000000040006ac8                plat_get_soc_revision
 .text.plat_get_soc_version
                0x0000000040006aec       0x1c ./234-t194/tegra/t194/release/bl31/tegra_platform.o
                0x0000000040006aec                plat_get_soc_version
 .text.plat_get_stack_protector_canary
                0x0000000040006b08       0x2c ./234-t194/tegra/t194/release/bl31/tegra_stack_protector.o
                0x0000000040006b08                plat_get_stack_protector_canary
 .text.plat_get_syscnt_freq2
                0x0000000040006b34        0xc ./234-t194/tegra/t194/release/bl31/plat_setup.o
                0x0000000040006b34                plat_get_syscnt_freq2
 .text.plat_get_target_pwr_state
                0x0000000040006b40        0x4 ./234-t194/tegra/t194/release/bl31/tegra_pm.o
                0x0000000040006b40                plat_get_target_pwr_state
 .text.plat_gic_setup
                0x0000000040006b44       0x24 ./234-t194/tegra/t194/release/bl31/plat_setup.o
                0x0000000040006b44                plat_gic_setup
 .text.plat_ic_acknowledge_interrupt
                0x0000000040006b68        0x4 ./234-t194/tegra/t194/release/bl31/plat_gicv2.o
                0x0000000040006b68                plat_ic_acknowledge_interrupt
 .text.plat_ic_clear_interrupt_pending
                0x0000000040006b6c        0x4 ./234-t194/tegra/t194/release/bl31/plat_gicv2.o
                0x0000000040006b6c                plat_ic_clear_interrupt_pending
 .text.plat_ic_disable_interrupt
                0x0000000040006b70        0x4 ./234-t194/tegra/t194/release/bl31/plat_gicv2.o
                0x0000000040006b70                plat_ic_disable_interrupt
 .text.plat_ic_enable_interrupt
                0x0000000040006b74        0x4 ./234-t194/tegra/t194/release/bl31/plat_gicv2.o
                0x0000000040006b74                plat_ic_enable_interrupt
 .text.plat_ic_end_of_interrupt
                0x0000000040006b78        0x4 ./234-t194/tegra/t194/release/bl31/plat_gicv2.o
                0x0000000040006b78                plat_ic_end_of_interrupt
 .text.plat_ic_get_interrupt_active
                0x0000000040006b7c        0x4 ./234-t194/tegra/t194/release/bl31/plat_gicv2.o
                0x0000000040006b7c                plat_ic_get_interrupt_active
 .text.plat_ic_get_interrupt_id
                0x0000000040006b80       0x10 ./234-t194/tegra/t194/release/bl31/plat_gicv2.o
                0x0000000040006b80                plat_ic_get_interrupt_id
 .text.plat_ic_get_interrupt_type
                0x0000000040006b90       0x20 ./234-t194/tegra/t194/release/bl31/plat_gicv2.o
                0x0000000040006b90                plat_ic_get_interrupt_type
 .text.plat_ic_get_pending_interrupt_type
                0x0000000040006bb0       0x30 ./234-t194/tegra/t194/release/bl31/plat_gicv2.o
                0x0000000040006bb0                plat_ic_get_pending_interrupt_type
 .text.plat_ic_get_running_priority
                0x0000000040006be0        0x4 ./234-t194/tegra/t194/release/bl31/plat_gicv2.o
                0x0000000040006be0                plat_ic_get_running_priority
 .text.plat_ic_has_interrupt_type
                0x0000000040006be4       0x10 ./234-t194/tegra/t194/release/bl31/plat_gicv2.o
                0x0000000040006be4                plat_ic_has_interrupt_type
 .text.plat_ic_is_ppi
                0x0000000040006bf4       0x10 ./234-t194/tegra/t194/release/bl31/plat_gicv2.o
                0x0000000040006bf4                plat_ic_is_ppi
 .text.plat_ic_is_sgi
                0x0000000040006c04        0xc ./234-t194/tegra/t194/release/bl31/plat_gicv2.o
                0x0000000040006c04                plat_ic_is_sgi
 .text.plat_ic_is_spi
                0x0000000040006c10       0x10 ./234-t194/tegra/t194/release/bl31/plat_gicv2.o
                0x0000000040006c10                plat_ic_is_spi
 .text.plat_ic_raise_el3_sgi
                0x0000000040006c20       0x6c ./234-t194/tegra/t194/release/bl31/plat_gicv2.o
                0x0000000040006c20                plat_ic_raise_el3_sgi
 .text.plat_ic_set_interrupt_pending
                0x0000000040006c8c        0x4 ./234-t194/tegra/t194/release/bl31/plat_gicv2.o
                0x0000000040006c8c                plat_ic_set_interrupt_pending
 .text.plat_ic_set_interrupt_priority
                0x0000000040006c90        0x4 ./234-t194/tegra/t194/release/bl31/plat_gicv2.o
                0x0000000040006c90                plat_ic_set_interrupt_priority
 .text.plat_ic_set_interrupt_type
                0x0000000040006c94       0x40 ./234-t194/tegra/t194/release/bl31/plat_gicv2.o
                0x0000000040006c94                plat_ic_set_interrupt_type
 .text.plat_ic_set_priority_mask
                0x0000000040006cd4        0x4 ./234-t194/tegra/t194/release/bl31/plat_gicv2.o
                0x0000000040006cd4                plat_ic_set_priority_mask
 .text.plat_ic_set_spi_routing
                0x0000000040006cd8       0x6c ./234-t194/tegra/t194/release/bl31/plat_gicv2.o
                0x0000000040006cd8                plat_ic_set_spi_routing
 .text.plat_interrupt_type_to_line
                0x0000000040006d44       0x64 ./234-t194/tegra/t194/release/bl31/plat_gicv2.o
                0x0000000040006d44                plat_interrupt_type_to_line
 .text.plat_is_smccc_feature_available
                0x0000000040006da8       0x14 ./234-t194/tegra/t194/release/bl31/tegra_platform.o
                0x0000000040006da8                plat_is_smccc_feature_available
 .text.plat_late_platform_setup
                0x0000000040006dbc       0x18 ./234-t194/tegra/t194/release/bl31/plat_setup.o
                0x0000000040006dbc                plat_late_platform_setup
 .text.plat_log_get_prefix
                0x0000000040006dd4       0x30 ./234-t194/tegra/t194/release/bl31/plat_log_common.o
                0x0000000040006dd4                plat_log_get_prefix
 .text.plat_memctrl_get_sys_suspend_ctx
                0x0000000040006e04       0x14 ./234-t194/tegra/t194/release/bl31/plat_memctrl.o
                0x0000000040006e04                plat_memctrl_get_sys_suspend_ctx
 .text.plat_memctrl_restore
                0x0000000040006e18        0x8 ./234-t194/tegra/t194/release/bl31/plat_memctrl.o
                0x0000000040006e18                plat_memctrl_restore
 .text.plat_memctrl_setup
                0x0000000040006e20       0x18 ./234-t194/tegra/t194/release/bl31/plat_memctrl.o
                0x0000000040006e20                plat_memctrl_setup
 .text.plat_memctrl_tzdram_setup
                0x0000000040006e38       0x40 ./234-t194/tegra/t194/release/bl31/plat_memctrl.o
                0x0000000040006e38                plat_memctrl_tzdram_setup
 .text.plat_runtime_setup
                0x0000000040006e78       0x18 ./234-t194/tegra/t194/release/bl31/plat_setup.o
                0x0000000040006e78                plat_runtime_setup
 .text.plat_sdei_handle_masked_trigger
                0x0000000040006e90        0x4 ./234-t194/tegra/t194/release/bl31/plat_common.o
                0x0000000040006e90                plat_sdei_handle_masked_trigger
 .text.plat_sdei_setup
                0x0000000040006e94        0x4 ./234-t194/tegra/t194/release/bl31/tegra_sdei.o
                0x0000000040006e94                plat_sdei_setup
 .text.plat_sdei_validate_entry_point
                0x0000000040006e98        0x8 ./234-t194/tegra/t194/release/bl31/plat_common.o
                0x0000000040006e98                plat_sdei_validate_entry_point
 .text.plat_secondary_setup
                0x0000000040006ea0      0x190 ./234-t194/tegra/t194/release/bl31/plat_secondary.o
                0x0000000040006ea0                plat_secondary_setup
 .text.plat_setup_psci_ops
                0x0000000040007030       0x8c ./234-t194/tegra/t194/release/bl31/tegra_pm.o
                0x0000000040007030                plat_setup_psci_ops
 .text.plat_sip_handler
                0x00000000400070bc      0x150 ./234-t194/tegra/t194/release/bl31/plat_sip_calls.o
                0x00000000400070bc                plat_sip_handler
 .text.plat_supports_system_suspend
                0x000000004000720c        0x8 ./234-t194/tegra/t194/release/bl31/plat_setup.o
                0x000000004000720c                plat_supports_system_suspend
 .text.pri_to_idx
                0x0000000040007214       0x6c ./234-t194/tegra/t194/release/bl31/ehf.o
 .text.print_entry_point_info
                0x0000000040007280        0x4 ./234-t194/tegra/t194/release/bl31/bl_common.o
                0x0000000040007280                print_entry_point_info
 .text.printf   0x0000000040007284       0x90 ./234-t194/tegra/t194/release/lib/libc.a(printf.o)
                0x0000000040007284                printf
 .text.psci_acquire_pwr_domain_locks
                0x0000000040007314       0x6c ./234-t194/tegra/t194/release/bl31/psci_common.o
                0x0000000040007314                psci_acquire_pwr_domain_locks
 .text.psci_affinity_info
                0x0000000040007380       0x58 ./234-t194/tegra/t194/release/bl31/psci_main.o
                0x0000000040007380                psci_affinity_info
 .text.psci_arch_setup
                0x00000000400073d8       0x1c ./234-t194/tegra/t194/release/bl31/psci_setup.o
                0x00000000400073d8                psci_arch_setup
 .text.psci_cpu_off
                0x00000000400073f4       0x38 ./234-t194/tegra/t194/release/bl31/psci_main.o
                0x00000000400073f4                psci_cpu_off
 .text.psci_cpu_on
                0x000000004000742c       0x88 ./234-t194/tegra/t194/release/bl31/psci_main.o
                0x000000004000742c                psci_cpu_on
 .text.psci_cpu_on_finish
                0x00000000400074b4       0xfc ./234-t194/tegra/t194/release/bl31/psci_on.o
                0x00000000400074b4                psci_cpu_on_finish
 .text.psci_cpu_on_start
                0x00000000400075b0      0x224 ./234-t194/tegra/t194/release/bl31/psci_on.o
                0x00000000400075b0                psci_cpu_on_start
 .text.psci_cpu_suspend
                0x00000000400077d4      0x158 ./234-t194/tegra/t194/release/bl31/psci_main.o
                0x00000000400077d4                psci_cpu_suspend
 .text.psci_cpu_suspend_finish
                0x000000004000792c       0xec ./234-t194/tegra/t194/release/bl31/psci_suspend.o
                0x000000004000792c                psci_cpu_suspend_finish
 .text.psci_cpu_suspend_start
                0x0000000040007a18      0x208 ./234-t194/tegra/t194/release/bl31/psci_suspend.o
                0x0000000040007a18                psci_cpu_suspend_start
 .text.psci_do_cpu_off
                0x0000000040007c20      0x158 ./234-t194/tegra/t194/release/bl31/psci_off.o
                0x0000000040007c20                psci_do_cpu_off
 .text.psci_do_pwrdown_sequence
                0x0000000040007d78        0x4 ./234-t194/tegra/t194/release/bl31/psci_common.o
                0x0000000040007d78                psci_do_pwrdown_sequence
 .text.psci_do_state_coordination
                0x0000000040007d7c      0x184 ./234-t194/tegra/t194/release/bl31/psci_common.o
                0x0000000040007d7c                psci_do_state_coordination
 .text.psci_features
                0x0000000040007f00       0x80 ./234-t194/tegra/t194/release/bl31/psci_main.o
                0x0000000040007f00                psci_features
 .text.psci_find_max_off_lvl
                0x0000000040007f80       0x4c ./234-t194/tegra/t194/release/bl31/psci_common.o
                0x0000000040007f80                psci_find_max_off_lvl
 .text.psci_find_target_suspend_lvl
                0x0000000040007fcc       0x34 ./234-t194/tegra/t194/release/bl31/psci_common.o
                0x0000000040007fcc                psci_find_target_suspend_lvl
 .text.psci_get_parent_pwr_domain_nodes
                0x0000000040008000       0x48 ./234-t194/tegra/t194/release/bl31/psci_common.o
                0x0000000040008000                psci_get_parent_pwr_domain_nodes
 .text.psci_get_target_local_pwr_states
                0x0000000040008048       0x90 ./234-t194/tegra/t194/release/bl31/psci_common.o
                0x0000000040008048                psci_get_target_local_pwr_states
 .text.psci_init_req_local_pwr_states
                0x00000000400080d8       0x58 ./234-t194/tegra/t194/release/bl31/psci_common.o
                0x00000000400080d8                psci_init_req_local_pwr_states
 .text.psci_is_last_on_cpu
                0x0000000040008130       0x94 ./234-t194/tegra/t194/release/bl31/psci_common.o
                0x0000000040008130                psci_is_last_on_cpu
 .text.psci_mem_chk_range
                0x00000000400081c4       0x5c ./234-t194/tegra/t194/release/bl31/psci_mem_protect.o
                0x00000000400081c4                psci_mem_chk_range
 .text.psci_mem_protect
                0x0000000040008220       0xc4 ./234-t194/tegra/t194/release/bl31/psci_mem_protect.o
                0x0000000040008220                psci_mem_protect
 .text.psci_migrate
                0x00000000400082e4       0xe0 ./234-t194/tegra/t194/release/bl31/psci_main.o
                0x00000000400082e4                psci_migrate
 .text.psci_migrate_info_type
                0x00000000400083c4       0x4c ./234-t194/tegra/t194/release/bl31/psci_main.o
                0x00000000400083c4                psci_migrate_info_type
 .text.psci_migrate_info_up_cpu
                0x0000000040008410       0x5c ./234-t194/tegra/t194/release/bl31/psci_main.o
                0x0000000040008410                psci_migrate_info_up_cpu
 .text.psci_node_hw_state
                0x000000004000846c       0x8c ./234-t194/tegra/t194/release/bl31/psci_main.o
                0x000000004000846c                psci_node_hw_state
 .text.psci_print_power_domain_map
                0x00000000400084f8        0x4 ./234-t194/tegra/t194/release/bl31/psci_common.o
                0x00000000400084f8                psci_print_power_domain_map
 .text.psci_query_sys_suspend_pwrstate
                0x00000000400084fc       0x38 ./234-t194/tegra/t194/release/bl31/psci_common.o
                0x00000000400084fc                psci_query_sys_suspend_pwrstate
 .text.psci_register_spd_pm_hook
                0x0000000040008534       0x60 ./234-t194/tegra/t194/release/bl31/psci_common.o
                0x0000000040008534                psci_register_spd_pm_hook
 .text.psci_release_pwr_domain_locks
                0x0000000040008594       0x60 ./234-t194/tegra/t194/release/bl31/psci_common.o
                0x0000000040008594                psci_release_pwr_domain_locks
 .text.psci_set_pwr_domains_to_run
                0x00000000400085f4       0xa0 ./234-t194/tegra/t194/release/bl31/psci_common.o
                0x00000000400085f4                psci_set_pwr_domains_to_run
 .text.psci_set_req_local_pwr_state
                0x0000000040008694       0x58 ./234-t194/tegra/t194/release/bl31/psci_common.o
 .text.psci_setup
                0x00000000400086ec      0x440 ./234-t194/tegra/t194/release/bl31/psci_setup.o
                0x00000000400086ec                psci_setup
 .text.psci_smc_handler
                0x0000000040008b2c      0x14c ./234-t194/tegra/t194/release/bl31/psci_main.o
                0x0000000040008b2c                psci_smc_handler
 .text.psci_spd_migrate_info
                0x0000000040008c78       0x54 ./234-t194/tegra/t194/release/bl31/psci_common.o
                0x0000000040008c78                psci_spd_migrate_info
 .text.psci_system_off
                0x0000000040008ccc       0x64 ./234-t194/tegra/t194/release/bl31/psci_system_off.o
                0x0000000040008ccc                psci_system_off
 .text.psci_system_reset
                0x0000000040008d30       0x64 ./234-t194/tegra/t194/release/bl31/psci_system_off.o
                0x0000000040008d30                psci_system_reset
 .text.psci_system_reset2
                0x0000000040008d94       0xc4 ./234-t194/tegra/t194/release/bl31/psci_system_off.o
                0x0000000040008d94                psci_system_reset2
 .text.psci_system_suspend
                0x0000000040008e58       0xf8 ./234-t194/tegra/t194/release/bl31/psci_main.o
                0x0000000040008e58                psci_system_suspend
 .text.psci_validate_entry_point
                0x0000000040008f50       0xf4 ./234-t194/tegra/t194/release/bl31/psci_common.o
                0x0000000040008f50                psci_validate_entry_point
 .text.psci_validate_mpidr
                0x0000000040009044       0x20 ./234-t194/tegra/t194/release/bl31/psci_common.o
                0x0000000040009044                psci_validate_mpidr
 .text.psci_validate_power_state
                0x0000000040009064       0x4c ./234-t194/tegra/t194/release/bl31/psci_common.o
                0x0000000040009064                psci_validate_power_state
 .text.psci_validate_suspend_req
                0x00000000400090b0       0xa0 ./234-t194/tegra/t194/release/bl31/psci_common.o
                0x00000000400090b0                psci_validate_suspend_req
 .text.psci_warmboot_entrypoint
                0x0000000040009150      0x118 ./234-t194/tegra/t194/release/bl31/psci_common.o
                0x0000000040009150                psci_warmboot_entrypoint
 .text.putchar  0x0000000040009268       0x2c ./234-t194/tegra/t194/release/lib/libc.a(putchar.o)
                0x0000000040009268                putchar
 .text.ras_ea_handler
                0x0000000040009294      0x10c ./234-t194/tegra/t194/release/bl31/ras_common.o
                0x0000000040009294                ras_ea_handler
 .text.ras_serr_to_str
                0x00000000400093a0       0x78 ./234-t194/tegra/t194/release/bl31/ras_common.o
                0x00000000400093a0                ras_serr_to_str
 .text.register_interrupt_type_handler
                0x0000000040009418       0x68 ./234-t194/tegra/t194/release/bl31/interrupt_mgmt.o
                0x0000000040009418                register_interrupt_type_handler
 .text.restore_and_resume_ns_context
                0x0000000040009480       0x44 ./234-t194/tegra/t194/release/bl31/sdei_intr_mgmt.o
 .text.runtime_svc_init
                0x00000000400094c4      0x168 ./234-t194/tegra/t194/release/bl31/runtime_svc.o
                0x00000000400094c4                runtime_svc_init
 .text.save_event_ctx
                0x000000004000962c       0xd0 ./234-t194/tegra/t194/release/bl31/sdei_intr_mgmt.o
 .text.sdei_class_init
                0x00000000400096fc      0x33c ./234-t194/tegra/t194/release/bl31/sdei_main.o
 .text.sdei_cpu_on_init
                0x0000000040009a38       0x68 ./234-t194/tegra/t194/release/bl31/sdei_main.o
 .text.sdei_cpu_wakeup_init
                0x0000000040009aa0       0x18 ./234-t194/tegra/t194/release/bl31/sdei_main.o
 .text.sdei_dispatch_event
                0x0000000040009ab8      0x158 ./234-t194/tegra/t194/release/bl31/sdei_intr_mgmt.o
                0x0000000040009ab8                sdei_dispatch_event
 .text.sdei_event_complete
                0x0000000040009c10      0x1ac ./234-t194/tegra/t194/release/bl31/sdei_intr_mgmt.o
                0x0000000040009c10                sdei_event_complete
 .text.sdei_event_context
                0x0000000040009dbc       0x7c ./234-t194/tegra/t194/release/bl31/sdei_intr_mgmt.o
                0x0000000040009dbc                sdei_event_context
 .text.sdei_event_unregister
                0x0000000040009e38      0x12c ./234-t194/tegra/t194/release/bl31/sdei_main.o
 .text.sdei_init
                0x0000000040009f64       0x48 ./234-t194/tegra/t194/release/bl31/sdei_main.o
                0x0000000040009f64                sdei_init
 .text.sdei_interrupt_release
                0x0000000040009fac       0xa8 ./234-t194/tegra/t194/release/bl31/sdei_main.o
 .text.sdei_intr_handler
                0x000000004000a054      0x340 ./234-t194/tegra/t194/release/bl31/sdei_intr_mgmt.o
                0x000000004000a054                sdei_intr_handler
 .text.sdei_pe_mask
                0x000000004000a394       0x44 ./234-t194/tegra/t194/release/bl31/sdei_intr_mgmt.o
                0x000000004000a394                sdei_pe_mask
 .text.sdei_pe_unmask
                0x000000004000a3d8      0x120 ./234-t194/tegra/t194/release/bl31/sdei_intr_mgmt.o
                0x000000004000a3d8                sdei_pe_unmask
 .text.sdei_set_elr_spsr.isra.0
                0x000000004000a4f8       0xf0 ./234-t194/tegra/t194/release/bl31/sdei_intr_mgmt.o
 .text.sdei_smc_handler
                0x000000004000a5e8      0x7c4 ./234-t194/tegra/t194/release/bl31/sdei_main.o
                0x000000004000a5e8                sdei_smc_handler
 .text.ser_probe_sysreg
                0x000000004000adac       0xd0 ./234-t194/tegra/t194/release/bl31/std_err_record.o
                0x000000004000adac                ser_probe_sysreg
 .text.set_routing_model
                0x000000004000ae7c       0xa0 ./234-t194/tegra/t194/release/bl31/interrupt_mgmt.o
                0x000000004000ae7c                set_routing_model
 .text.set_scr_el3_from_rm
                0x000000004000af1c       0x84 ./234-t194/tegra/t194/release/bl31/interrupt_mgmt.o
 .text.setup_mmu_cfg
                0x000000004000afa0      0x130 ./234-t194/tegra/t194/release/bl31/xlat_tables_arch.o
                0x000000004000afa0                setup_mmu_cfg
 .text.snprintf
                0x000000004000b0d0       0xa4 ./234-t194/tegra/t194/release/lib/libc.a(snprintf.o)
                0x000000004000b0d0                snprintf
 .text.spe_drain_buffers_hook
                0x000000004000b174       0x30 ./234-t194/tegra/t194/release/bl31/spe.o
 .text.spe_enable
                0x000000004000b1a4       0x4c ./234-t194/tegra/t194/release/bl31/spe.o
                0x000000004000b1a4                spe_enable
 .text.spe_supported
                0x000000004000b1f0       0x10 ./234-t194/tegra/t194/release/bl31/spe.o
                0x000000004000b1f0                spe_supported
 .text.std_svc_setup
                0x000000004000b200       0x50 ./234-t194/tegra/t194/release/bl31/std_svc_setup.o
 .text.std_svc_smc_handler
                0x000000004000b250       0xe0 ./234-t194/tegra/t194/release/bl31/std_svc_setup.o
 .text.strlen   0x000000004000b330       0x1c ./234-t194/tegra/t194/release/lib/libc.a(strlen.o)
                0x000000004000b330                strlen
 .text.sve_disable
                0x000000004000b34c       0x28 ./234-t194/tegra/t194/release/bl31/sve.o
                0x000000004000b34c                sve_disable
 .text.sve_enable
                0x000000004000b374       0x30 ./234-t194/tegra/t194/release/bl31/sve.o
                0x000000004000b374                sve_enable
 .text.tcr_physical_addr_size_bits
                0x000000004000b3a4       0x74 ./234-t194/tegra/t194/release/bl31/xlat_tables_arch.o
                0x000000004000b3a4                tcr_physical_addr_size_bits
 .text.tegra194_ras_corrected_err_clear
                0x000000004000b418       0xdc ./234-t194/tegra/t194/release/bl31/plat_ras.o
                0x000000004000b418                tegra194_ras_corrected_err_clear
 .text.tegra194_ras_enable
                0x000000004000b4f4      0x114 ./234-t194/tegra/t194/release/bl31/plat_ras.o
                0x000000004000b4f4                tegra194_ras_enable
 .text.tegra194_ras_record_handler
                0x000000004000b608      0x204 ./234-t194/tegra/t194/release/bl31/plat_ras.o
 .text.tegra194_ras_record_probe
                0x000000004000b80c       0x44 ./234-t194/tegra/t194/release/bl31/plat_ras.o
 .text.tegra_bpmp_ipc_disable_clock
                0x000000004000b850       0xac ./234-t194/tegra/t194/release/bl31/intf.o
                0x000000004000b850                tegra_bpmp_ipc_disable_clock
 .text.tegra_bpmp_ipc_enable_clock
                0x000000004000b8fc       0xf0 ./234-t194/tegra/t194/release/bl31/intf.o
                0x000000004000b8fc                tegra_bpmp_ipc_enable_clock
 .text.tegra_bpmp_ipc_init
                0x000000004000b9ec      0x144 ./234-t194/tegra/t194/release/bl31/intf.o
                0x000000004000b9ec                tegra_bpmp_ipc_init
 .text.tegra_bpmp_ipc_send_req_atomic
                0x000000004000bb30      0x190 ./234-t194/tegra/t194/release/bl31/intf.o
 .text.tegra_bpmp_ivc_notify
                0x000000004000bcc0       0x14 ./234-t194/tegra/t194/release/bl31/intf.o
 .text.tegra_chipid_is_t194
                0x000000004000bcd4       0x1c ./234-t194/tegra/t194/release/bl31/tegra_platform.o
                0x000000004000bcd4                tegra_chipid_is_t194
 .text.tegra_clear_videomem
                0x000000004000bcf0       0x84 ./234-t194/tegra/t194/release/bl31/memctrl_v2.o
 .text.tegra_cpu_standby
                0x000000004000bd74       0x48 ./234-t194/tegra/t194/release/bl31/tegra_pm.o
 .text.tegra_delay_timer_init
                0x000000004000bdbc       0x64 ./234-t194/tegra/t194/release/bl31/tegra_delay_timer.o
                0x000000004000bdbc                tegra_delay_timer_init
 .text.tegra_fiq_get_intr_context
                0x000000004000be20       0x5c ./234-t194/tegra/t194/release/bl31/tegra_fiq_glue.o
                0x000000004000be20                tegra_fiq_get_intr_context
 .text.tegra_fiq_handler_setup
                0x000000004000be7c       0x3c ./234-t194/tegra/t194/release/bl31/tegra_fiq_glue.o
                0x000000004000be7c                tegra_fiq_handler_setup
 .text.tegra_fiq_interrupt_handler
                0x000000004000beb8       0x80 ./234-t194/tegra/t194/release/bl31/tegra_fiq_glue.o
 .text.tegra_fiq_set_ns_entrypoint
                0x000000004000bf38        0xc ./234-t194/tegra/t194/release/bl31/tegra_fiq_glue.o
                0x000000004000bf38                tegra_fiq_set_ns_entrypoint
 .text.tegra_get_chipid_major
                0x000000004000bf44       0x14 ./234-t194/tegra/t194/release/bl31/tegra_platform.o
                0x000000004000bf44                tegra_get_chipid_major
 .text.tegra_get_chipid_minor
                0x000000004000bf58       0x14 ./234-t194/tegra/t194/release/bl31/tegra_platform.o
                0x000000004000bf58                tegra_get_chipid_minor
 .text.tegra_get_platform
                0x000000004000bf6c       0xac ./234-t194/tegra/t194/release/bl31/tegra_platform.o
 .text.tegra_get_sys_suspend_power_state
                0x000000004000c018       0x14 ./234-t194/tegra/t194/release/bl31/tegra_pm.o
 .text.tegra_gic_cpuif_deactivate
                0x000000004000c02c        0x4 ./234-t194/tegra/t194/release/bl31/tegra_gicv2.o
                0x000000004000c02c                tegra_gic_cpuif_deactivate
 .text.tegra_gic_init
                0x000000004000c030       0x20 ./234-t194/tegra/t194/release/bl31/tegra_gicv2.o
                0x000000004000c030                tegra_gic_init
 .text.tegra_gic_pcpu_init
                0x000000004000c050       0x1c ./234-t194/tegra/t194/release/bl31/tegra_gicv2.o
                0x000000004000c050                tegra_gic_pcpu_init
 .text.tegra_gic_restore
                0x000000004000c06c       0x1c ./234-t194/tegra/t194/release/bl31/tegra_gicv2.o
                0x000000004000c06c                tegra_gic_restore
 .text.tegra_gic_save
                0x000000004000c088        0x4 ./234-t194/tegra/t194/release/bl31/tegra_gicv2.o
                0x000000004000c088                tegra_gic_save
 .text.tegra_gic_setup
                0x000000004000c08c       0x44 ./234-t194/tegra/t194/release/bl31/tegra_gicv2.o
                0x000000004000c08c                tegra_gic_setup
 .text.tegra_ivc_align
                0x000000004000c0d0        0xc ./234-t194/tegra/t194/release/bl31/ivc.o
                0x000000004000c0d0                tegra_ivc_align
 .text.tegra_ivc_channel_notified
                0x000000004000c0dc       0xc0 ./234-t194/tegra/t194/release/bl31/ivc.o
                0x000000004000c0dc                tegra_ivc_channel_notified
 .text.tegra_ivc_channel_reset
                0x000000004000c19c       0x18 ./234-t194/tegra/t194/release/bl31/ivc.o
                0x000000004000c19c                tegra_ivc_channel_reset
 .text.tegra_ivc_init
                0x000000004000c1b4       0xfc ./234-t194/tegra/t194/release/bl31/ivc.o
                0x000000004000c1b4                tegra_ivc_init
 .text.tegra_ivc_read_advance
                0x000000004000c2b0       0x64 ./234-t194/tegra/t194/release/bl31/ivc.o
                0x000000004000c2b0                tegra_ivc_read_advance
 .text.tegra_ivc_read_get_next_frame
                0x000000004000c314       0x4c ./234-t194/tegra/t194/release/bl31/ivc.o
                0x000000004000c314                tegra_ivc_read_get_next_frame
 .text.tegra_ivc_total_queue_size
                0x000000004000c360       0x38 ./234-t194/tegra/t194/release/bl31/ivc.o
                0x000000004000c360                tegra_ivc_total_queue_size
 .text.tegra_ivc_write_advance
                0x000000004000c398       0x60 ./234-t194/tegra/t194/release/bl31/ivc.o
                0x000000004000c398                tegra_ivc_write_advance
 .text.tegra_ivc_write_get_next_frame
                0x000000004000c3f8       0x48 ./234-t194/tegra/t194/release/bl31/ivc.o
                0x000000004000c3f8                tegra_ivc_write_get_next_frame
 .text.tegra_mc_save_context
                0x000000004000c440      0x130 ./234-t194/tegra/t194/release/bl31/memctrl_v2.o
                0x000000004000c440                tegra_mc_save_context
 .text.tegra_memctrl_clear_pending_interrupts
                0x000000004000c570        0x4 ./234-t194/tegra/t194/release/bl31/memctrl_v2.o
                0x000000004000c570                tegra_memctrl_clear_pending_interrupts
 .text.tegra_memctrl_disable_ahb_redirection
                0x000000004000c574        0x4 ./234-t194/tegra/t194/release/bl31/memctrl_v2.o
                0x000000004000c574                tegra_memctrl_disable_ahb_redirection
 .text.tegra_memctrl_restore_settings
                0x000000004000c578       0xb4 ./234-t194/tegra/t194/release/bl31/memctrl_v2.o
                0x000000004000c578                tegra_memctrl_restore_settings
 .text.tegra_memctrl_setup
                0x000000004000c62c        0x4 ./234-t194/tegra/t194/release/bl31/memctrl_v2.o
                0x000000004000c62c                tegra_memctrl_setup
 .text.tegra_memctrl_tzdram_setup
                0x000000004000c630        0x8 ./234-t194/tegra/t194/release/bl31/memctrl_v2.o
                0x000000004000c630                tegra_memctrl_tzdram_setup
 .text.tegra_memctrl_videomem_setup
                0x000000004000c638      0x1a4 ./234-t194/tegra/t194/release/bl31/memctrl_v2.o
                0x000000004000c638                tegra_memctrl_videomem_setup
 .text.tegra_platform_is_fpga
                0x000000004000c7dc       0x1c ./234-t194/tegra/t194/release/bl31/tegra_platform.o
                0x000000004000c7dc                tegra_platform_is_fpga
 .text.tegra_platform_is_linsim
                0x000000004000c7f8       0x20 ./234-t194/tegra/t194/release/bl31/tegra_platform.o
                0x000000004000c7f8                tegra_platform_is_linsim
 .text.tegra_platform_is_qt
                0x000000004000c818       0x1c ./234-t194/tegra/t194/release/bl31/tegra_platform.o
                0x000000004000c818                tegra_platform_is_qt
 .text.tegra_platform_is_silicon
                0x000000004000c834       0x1c ./234-t194/tegra/t194/release/bl31/tegra_platform.o
                0x000000004000c834                tegra_platform_is_silicon
 .text.tegra_platform_is_virt_dev_kit
                0x000000004000c850       0x1c ./234-t194/tegra/t194/release/bl31/tegra_platform.o
                0x000000004000c850                tegra_platform_is_virt_dev_kit
 .text.tegra_pwr_domain_off
                0x000000004000c86c       0x14 ./234-t194/tegra/t194/release/bl31/tegra_pm.o
 .text.tegra_pwr_domain_on
                0x000000004000c880        0x4 ./234-t194/tegra/t194/release/bl31/tegra_pm.o
 .text.tegra_pwr_domain_on_finish
                0x000000004000c884       0x6c ./234-t194/tegra/t194/release/bl31/tegra_pm.o
 .text.tegra_pwr_domain_power_down_wfi
                0x000000004000c8f0       0x38 ./234-t194/tegra/t194/release/bl31/tegra_pm.o
 .text.tegra_pwr_domain_suspend
                0x000000004000c928       0x28 ./234-t194/tegra/t194/release/bl31/tegra_pm.o
 .text.tegra_pwr_domain_suspend_finish
                0x000000004000c950        0x4 ./234-t194/tegra/t194/release/bl31/tegra_pm.o
 .text.tegra_pwr_domain_suspend_pwrdown_early
                0x000000004000c954        0x4 ./234-t194/tegra/t194/release/bl31/tegra_pm.o
                0x000000004000c954                tegra_pwr_domain_suspend_pwrdown_early
 .text.tegra_se_calculate_save_sha256
                0x000000004000c958      0x2e8 ./234-t194/tegra/t194/release/bl31/se.o
                0x000000004000c958                tegra_se_calculate_save_sha256
 .text.tegra_se_resume
                0x000000004000cc40       0xa8 ./234-t194/tegra/t194/release/bl31/se.o
                0x000000004000cc40                tegra_se_resume
 .text.tegra_se_suspend
                0x000000004000cce8      0x1fc ./234-t194/tegra/t194/release/bl31/se.o
                0x000000004000cce8                tegra_se_suspend
 .text.tegra_sip_handler
                0x000000004000cee4      0x14c ./234-t194/tegra/t194/release/bl31/tegra_sip_calls.o
                0x000000004000cee4                tegra_sip_handler
 .text.tegra_smmu_init
                0x000000004000d030       0xd4 ./234-t194/tegra/t194/release/bl31/smmu.o
                0x000000004000d030                tegra_smmu_init
 .text.tegra_smmu_read_32
                0x000000004000d104       0x44 ./234-t194/tegra/t194/release/bl31/smmu.o
 .text.tegra_smmu_verify
                0x000000004000d148      0x14c ./234-t194/tegra/t194/release/bl31/smmu.o
                0x000000004000d148                tegra_smmu_verify
 .text.tegra_smmu_write_32
                0x000000004000d294       0x40 ./234-t194/tegra/t194/release/bl31/smmu.o
 .text.tegra_soc_cpu_standby
                0x000000004000d2d4       0x90 ./234-t194/tegra/t194/release/bl31/plat_psci_handlers.o
                0x000000004000d2d4                tegra_soc_cpu_standby
 .text.tegra_soc_get_target_pwr_state
                0x000000004000d364       0xf8 ./234-t194/tegra/t194/release/bl31/plat_psci_handlers.o
                0x000000004000d364                tegra_soc_get_target_pwr_state
 .text.tegra_soc_prepare_system_off
                0x000000004000d45c       0x14 ./234-t194/tegra/t194/release/bl31/plat_psci_handlers.o
                0x000000004000d45c                tegra_soc_prepare_system_off
 .text.tegra_soc_prepare_system_reset
                0x000000004000d470       0x18 ./234-t194/tegra/t194/release/bl31/plat_psci_handlers.o
                0x000000004000d470                tegra_soc_prepare_system_reset
 .text.tegra_soc_pwr_domain_off
                0x000000004000d488       0x54 ./234-t194/tegra/t194/release/bl31/plat_psci_handlers.o
                0x000000004000d488                tegra_soc_pwr_domain_off
 .text.tegra_soc_pwr_domain_on
                0x000000004000d4dc       0x60 ./234-t194/tegra/t194/release/bl31/plat_psci_handlers.o
                0x000000004000d4dc                tegra_soc_pwr_domain_on
 .text.tegra_soc_pwr_domain_on_finish
                0x000000004000d53c      0x1b4 ./234-t194/tegra/t194/release/bl31/plat_psci_handlers.o
                0x000000004000d53c                tegra_soc_pwr_domain_on_finish
 .text.tegra_soc_pwr_domain_power_down_wfi
                0x000000004000d6f0       0xf8 ./234-t194/tegra/t194/release/bl31/plat_psci_handlers.o
                0x000000004000d6f0                tegra_soc_pwr_domain_power_down_wfi
 .text.tegra_soc_pwr_domain_suspend
                0x000000004000d7e8      0x130 ./234-t194/tegra/t194/release/bl31/plat_psci_handlers.o
                0x000000004000d7e8                tegra_soc_pwr_domain_suspend
 .text.tegra_soc_pwr_domain_suspend_pwrdown_early
                0x000000004000d918        0x8 ./234-t194/tegra/t194/release/bl31/plat_psci_handlers.o
                0x000000004000d918                tegra_soc_pwr_domain_suspend_pwrdown_early
 .text.tegra_soc_validate_power_state
                0x000000004000d920       0x90 ./234-t194/tegra/t194/release/bl31/plat_psci_handlers.o
                0x000000004000d920                tegra_soc_validate_power_state
 .text.tegra_system_off
                0x000000004000d9b0        0xc ./234-t194/tegra/t194/release/bl31/tegra_pm.o
 .text.tegra_system_reset
                0x000000004000d9bc       0x10 ./234-t194/tegra/t194/release/bl31/tegra_pm.o
 .text.tegra_timer_get_value
                0x000000004000d9cc       0x10 ./234-t194/tegra/t194/release/bl31/tegra_delay_timer.o
 .text.tegra_validate_ns_entrypoint
                0x000000004000d9dc       0x1c ./234-t194/tegra/t194/release/bl31/tegra_pm.o
 .text.tegra_validate_power_state
                0x000000004000d9f8       0x28 ./234-t194/tegra/t194/release/bl31/tegra_pm.o
 .text.tf_log   0x000000004000da20      0x10c ./234-t194/tegra/t194/release/bl31/tf_log.o
                0x000000004000da20                tf_log
 .text.timer_init
                0x000000004000db2c       0x48 ./234-t194/tegra/t194/release/bl31/delay_timer.o
                0x000000004000db2c                timer_init
 .text.udelay   0x000000004000db74       0xb8 ./234-t194/tegra/t194/release/bl31/delay_timer.o
                0x000000004000db74                udelay
 .text.unsigned_num_print
                0x000000004000dc2c       0xfc ./234-t194/tegra/t194/release/lib/libc.a(printf.o)
 .text.unsigned_num_print
                0x000000004000dd28      0x160 ./234-t194/tegra/t194/release/lib/libc.a(snprintf.o)
 .text.vprintf  0x000000004000de88      0x41c ./234-t194/tegra/t194/release/lib/libc.a(printf.o)
                0x000000004000de88                vprintf
 .text.vsnprintf
                0x000000004000e2a4      0x428 ./234-t194/tegra/t194/release/lib/libc.a(snprintf.o)
                0x000000004000e2a4                vsnprintf
 .text.xlat_arch_current_el
                0x000000004000e6cc       0x34 ./234-t194/tegra/t194/release/bl31/xlat_tables_arch.o
                0x000000004000e6cc                xlat_arch_current_el
 .text.xlat_arch_get_max_supported_pa
                0x000000004000e700       0x4c ./234-t194/tegra/t194/release/bl31/xlat_tables_arch.o
                0x000000004000e700                xlat_arch_get_max_supported_pa
 .text.xlat_arch_get_pas
                0x000000004000e74c       0x14 ./234-t194/tegra/t194/release/bl31/xlat_tables_arch.o
                0x000000004000e74c                xlat_arch_get_pas
 .text.xlat_arch_regime_get_xn_desc
                0x000000004000e760       0x40 ./234-t194/tegra/t194/release/bl31/xlat_tables_arch.o
                0x000000004000e760                xlat_arch_regime_get_xn_desc
 .text.xlat_arch_tlbi_va
                0x000000004000e7a0       0xc0 ./234-t194/tegra/t194/release/bl31/xlat_tables_arch.o
                0x000000004000e7a0                xlat_arch_tlbi_va
 .text.xlat_arch_tlbi_va_sync
                0x000000004000e860        0xc ./234-t194/tegra/t194/release/bl31/xlat_tables_arch.o
                0x000000004000e860                xlat_arch_tlbi_va_sync
 .text.xlat_desc
                0x000000004000e86c      0x14c ./234-t194/tegra/t194/release/bl31/xlat_tables_core.o
                0x000000004000e86c                xlat_desc
 .text.xlat_get_min_virt_addr_space_size
                0x000000004000e9b8       0x1c ./234-t194/tegra/t194/release/bl31/xlat_tables_arch.o
                0x000000004000e9b8                xlat_get_min_virt_addr_space_size
 .text.xlat_mmap_print
                0x000000004000e9d4        0x4 ./234-t194/tegra/t194/release/bl31/xlat_tables_utils.o
                0x000000004000e9d4                xlat_mmap_print
 .text.xlat_table_get_index
                0x000000004000e9d8       0x50 ./234-t194/tegra/t194/release/bl31/xlat_tables_core.o
 .text.xlat_tables_map_region
                0x000000004000ea28      0x298 ./234-t194/tegra/t194/release/bl31/xlat_tables_core.o
 .text.xlat_tables_print
                0x000000004000ecc0        0x4 ./234-t194/tegra/t194/release/bl31/xlat_tables_utils.o
                0x000000004000ecc0                xlat_tables_print
 .text.xlat_tables_unmap_region
                0x000000004000ecc4      0x20c ./234-t194/tegra/t194/release/bl31/xlat_tables_core.o
 *(.vectors)
 *fill*         0x000000004000eed0      0x130 
 .vectors       0x000000004000f000      0x800 ./234-t194/tegra/t194/release/bl31/runtime_exceptions.o
                0x000000004000f000                sync_exception_sp_el0
                0x000000004000f000                runtime_exceptions
                0x000000004000f080                irq_sp_el0
                0x000000004000f100                fiq_sp_el0
                0x000000004000f180                serror_sp_el0
                0x000000004000f200                sync_exception_sp_elx
                0x000000004000f280                irq_sp_elx
                0x000000004000f300                fiq_sp_elx
                0x000000004000f380                serror_sp_elx
                0x000000004000f400                sync_exception_aarch64
                0x000000004000f480                irq_aarch64
                0x000000004000f500                fiq_aarch64
                0x000000004000f580                serror_aarch64
                0x000000004000f600                sync_exception_aarch32
                0x000000004000f680                irq_aarch32
                0x000000004000f700                fiq_aarch32
                0x000000004000f780                serror_aarch32
 .vectors       0x000000004000f800      0x800 ./234-t194/tegra/t194/release/bl31/denver.o
                0x0000000040010000                . = ALIGN (0x1000)
                0x0000000040010000                __TEXT_END__ = .

.iplt           0x0000000040010000        0x0
 .iplt          0x0000000040010000        0x0 ./234-t194/tegra/t194/release/bl31/bl31_context_mgmt.o

.rodata         0x0000000040010000     0x6000
                0x0000000040010000                __RODATA_START__ = .
 *(SORT_BY_ALIGNMENT(.rodata*))
 .rodata.psci_args.3231
                0x0000000040010000       0x10 ./234-t194/tegra/t194/release/bl31/bl31_main.o
 .rodata        0x0000000040010010       0xb0 ./234-t194/tegra/t194/release/bl31/ras_common.o
 .rodata.exception_data
                0x00000000400100c0       0x10 ./234-t194/tegra/t194/release/bl31/plat_ehf.o
                0x00000000400100c0                exception_data
 .rodata.sdei_global_mappings
                0x00000000400100d0       0x20 ./234-t194/tegra/t194/release/bl31/tegra_sdei.o
                0x00000000400100d0                sdei_global_mappings
 .rodata.CCPMU_uncorr_ras_errors
                0x00000000400100f0       0x70 ./234-t194/tegra/t194/release/bl31/plat_ras.o
 .rodata.CLUSTER_CLOCKS_uncorr_ras_errors
                0x0000000040010160       0x20 ./234-t194/tegra/t194/release/bl31/plat_ras.o
 .rodata.CMU_CLOCKS_uncorr_ras_errors
                0x0000000040010180       0x90 ./234-t194/tegra/t194/release/bl31/plat_ras.o
 .rodata.IFU_uncorr_ras_errors
                0x0000000040010210       0x10 ./234-t194/tegra/t194/release/bl31/plat_ras.o
 .rodata.JSR_MTS_uncorr_ras_errors
                0x0000000040010220       0x80 ./234-t194/tegra/t194/release/bl31/plat_ras.o
 .rodata.JSR_RET_uncorr_ras_errors
                0x00000000400102a0       0x50 ./234-t194/tegra/t194/release/bl31/plat_ras.o
 .rodata.L2_uncorr_ras_errors
                0x00000000400102f0      0x160 ./234-t194/tegra/t194/release/bl31/plat_ras.o
 .rodata.L3_uncorr_ras_errors
                0x0000000040010450       0xa0 ./234-t194/tegra/t194/release/bl31/plat_ras.o
 .rodata.LSD_DCC_uncorr_ras_errors
                0x00000000400104f0       0x70 ./234-t194/tegra/t194/release/bl31/plat_ras.o
 .rodata.LSD_L1HPF_uncorr_ras_errors
                0x0000000040010560       0x10 ./234-t194/tegra/t194/release/bl31/plat_ras.o
 .rodata.LSD_STQ_uncorr_ras_errors
                0x0000000040010570       0x60 ./234-t194/tegra/t194/release/bl31/plat_ras.o
 .rodata.MMU_uncorr_ras_errors
                0x00000000400105d0       0x10 ./234-t194/tegra/t194/release/bl31/plat_ras.o
 .rodata.SCF_CTU_uncorr_ras_errors
                0x00000000400105e0       0x90 ./234-t194/tegra/t194/release/bl31/plat_ras.o
 .rodata.SCF_IOB_uncorr_ras_errors
                0x0000000040010670       0xa0 ./234-t194/tegra/t194/release/bl31/plat_ras.o
 .rodata.SCF_SNOC_uncorr_ras_errors
                0x0000000040010710       0xa0 ./234-t194/tegra/t194/release/bl31/plat_ras.o
 .rodata.err_record_mappings
                0x00000000400107b0       0x10 ./234-t194/tegra/t194/release/bl31/plat_ras.o
                0x00000000400107b0                err_record_mappings
 .rodata.tegra_mmap
                0x00000000400107c0      0x320 ./234-t194/tegra/t194/release/bl31/plat_setup.o
 .rodata.opteed_pm
                0x0000000040010ae0       0x48 ./234-t194/tegra/t194/release/bl31/opteed_pm.o
                0x0000000040010ae0                opteed_pm
 .rodata.plat_prefix_str
                0x0000000040010b28       0x28 ./234-t194/tegra/t194/release/bl31/plat_log_common.o
 .rodata.psci_smc_handler
                0x0000000040010b50       0x2c ./234-t194/tegra/t194/release/bl31/psci_main.o
 .rodata.t194_scr_settings
                0x0000000040010b7c       0x48 ./234-t194/tegra/t194/release/bl31/plat_setup.o
 .rodata.tegra194_interrupt_props
                0x0000000040010bc4        0x8 ./234-t194/tegra/t194/release/bl31/plat_setup.o
 .rodata.opteed_smc_handler
                0x0000000040010bcc        0x9 ./234-t194/tegra/t194/release/bl31/opteed_main.o
 *fill*         0x0000000040010bd5        0x3 
 .rodata.sdei_smc_handler
                0x0000000040010bd8       0x2d ./234-t194/tegra/t194/release/bl31/sdei_main.o
 *fill*         0x0000000040010c05        0x3 
 .rodata.pa_range_bits_arr
                0x0000000040010c08       0x1c ./234-t194/tegra/t194/release/bl31/xlat_tables_arch.o
 .rodata.vprintf
                0x0000000040010c24       0x2e ./234-t194/tegra/t194/release/lib/libc.a(printf.o)
 *fill*         0x0000000040010c52        0x2 
 .rodata.vsnprintf
                0x0000000040010c54       0x12 ./234-t194/tegra/t194/release/lib/libc.a(snprintf.o)
 .rodata.build_message
                0x0000000040010c66       0x1e ./234-t194/tegra/t194/release/bl31/build_message.o
                0x0000000040010c66                build_message
 .rodata.version_string
                0x0000000040010c84       0x1c ./234-t194/tegra/t194/release/bl31/build_message.o
                0x0000000040010c84                version_string
 .rodata.cm_get_context.str1.1
                0x0000000040010ca0       0x3c ./234-t194/tegra/t194/release/bl31/bl31_context_mgmt.o
 .rodata.get_arm_std_svc_args.str1.1
                0x0000000040010cdc       0x2b ./234-t194/tegra/t194/release/bl31/bl31_main.o
 .rodata.bl31_prepare_next_image_entry.str1.1
                0x0000000040010d07       0xa2 ./234-t194/tegra/t194/release/bl31/bl31_main.o
 .rodata.bl31_main.str1.1
                0x0000000040010da9        0xb ./234-t194/tegra/t194/release/bl31/bl31_main.o
 .rodata.ehf_entering_normal_world.str1.1
                0x0000000040010db4       0x28 ./234-t194/tegra/t194/release/bl31/ehf.o
 .rodata.pri_to_idx.str1.1
                0x0000000040010ddc       0x41 ./234-t194/tegra/t194/release/bl31/ehf.o
 .rodata.ehf_el3_interrupt_handler.str1.1
                0x0000000040010e1d       0x71 ./234-t194/tegra/t194/release/bl31/ehf.o
 .rodata.ehf_exited_normal_world.str1.1
                0x0000000040010e8e       0x4a ./234-t194/tegra/t194/release/bl31/ehf.o
 .rodata.ehf_activate_priority.str1.1
                0x0000000040010ed8       0xa9 ./234-t194/tegra/t194/release/bl31/ehf.o
 .rodata.ehf_deactivate_priority.str1.1
                0x0000000040010f81       0x77 ./234-t194/tegra/t194/release/bl31/ehf.o
 .rodata.ehf_init.str1.1
                0x0000000040010ff8       0x9d ./234-t194/tegra/t194/release/bl31/ehf.o
 .rodata.ehf_register_priority_handler.str1.1
                0x0000000040011095       0x69 ./234-t194/tegra/t194/release/bl31/ehf.o
                                         0x79 (size before relaxing)
 .rodata.get_scr_el3_from_routing_model.str1.1
                0x00000000400110fe       0x16 ./234-t194/tegra/t194/release/bl31/interrupt_mgmt.o
                                         0x39 (size before relaxing)
 .rodata.handle_runtime_svc.str1.1
                0x0000000040011114       0x24 ./234-t194/tegra/t194/release/bl31/runtime_svc.o
 .rodata.runtime_svc_init.str1.1
                0x0000000040011138       0xb1 ./234-t194/tegra/t194/release/bl31/runtime_svc.o
 .rodata.gicv2_secure_spis_configure_props.str1.1
                0x00000000400111e9       0x64 ./234-t194/tegra/t194/release/bl31/gicv2_helpers.o
 .rodata.gicv2_cpuif_enable.str1.1
                0x000000004001124d       0x20 ./234-t194/tegra/t194/release/bl31/gicv2_main.o
                                         0x51 (size before relaxing)
 .rodata.gicv2_pcpu_distif_init.str1.1
                0x000000004001126d       0x20 ./234-t194/tegra/t194/release/bl31/gicv2_main.o
                                         0x1d (size before relaxing)
 .rodata.gicv2_driver_init.str1.1
                0x000000004001126d       0xfa ./234-t194/tegra/t194/release/bl31/gicv2_main.o
 .rodata.gicv2_set_pe_target_mask.str1.1
                0x0000000040011367       0x6a ./234-t194/tegra/t194/release/bl31/gicv2_main.o
 .rodata.gicv2_get_interrupt_active.str1.1
                0x00000000400113d1       0x11 ./234-t194/tegra/t194/release/bl31/gicv2_main.o
 .rodata.gicv2_set_interrupt_type.str1.1
                0x00000000400113e2        0x6 ./234-t194/tegra/t194/release/bl31/gicv2_main.o
 .rodata.gicv2_raise_sgi.str1.1
                0x00000000400113e8       0x6d ./234-t194/tegra/t194/release/bl31/gicv2_main.o
 .rodata.gicv2_set_spi_routing.str1.1
                0x0000000040011455       0x51 ./234-t194/tegra/t194/release/bl31/gicv2_main.o
 .rodata.gicv2_clear_interrupt_pending.str1.1
                0x00000000400114a6       0x11 ./234-t194/tegra/t194/release/bl31/gicv2_main.o
 .rodata.udelay.str1.1
                0x00000000400114b7       0xbe ./234-t194/tegra/t194/release/bl31/delay_timer.o
 .rodata.mdelay.str1.1
                0x0000000040011575       0x1d ./234-t194/tegra/t194/release/bl31/delay_timer.o
 .rodata.timer_init.str1.1
                0x0000000040011592       0x71 ./234-t194/tegra/t194/release/bl31/delay_timer.o
 .rodata.cm_setup_context.str1.1
                0x0000000040011603       0x6b ./234-t194/tegra/t194/release/bl31/context_mgmt.o
                                         0x77 (size before relaxing)
 .rodata.cm_write_scr_el3_bit.str1.1
                0x000000004001166e       0x3a ./234-t194/tegra/t194/release/bl31/context_mgmt.o
 .rodata.cm_set_next_eret_context.str1.1
                0x00000000400116a8       0x3e ./234-t194/tegra/t194/release/bl31/context_mgmt.o
 .rodata.str1.1
                0x00000000400116e6      0x2a0 ./234-t194/tegra/t194/release/bl31/ras_common.o
 .rodata.ras_interrupt_handler.str1.1
                0x0000000040011986       0x99 ./234-t194/tegra/t194/release/bl31/ras_common.o
 .rodata.ras_serr_to_str.str1.1
                0x0000000040011a1f        0xd ./234-t194/tegra/t194/release/bl31/ras_common.o
 .rodata.ras_ea_handler.str1.1
                0x0000000040011a2c       0x2a ./234-t194/tegra/t194/release/bl31/ras_common.o
 .rodata.ser_probe_memmap.str1.1
                0x0000000040011a56       0x56 ./234-t194/tegra/t194/release/bl31/std_err_record.o
 .rodata.ser_probe_sysreg.str1.1
                0x0000000040011aac       0x95 ./234-t194/tegra/t194/release/bl31/std_err_record.o
 .rodata.bakery_lock_get.str1.1
                0x0000000040011b41       0x84 ./234-t194/tegra/t194/release/bl31/bakery_lock_normal.o
 .rodata.bakery_lock_release.str1.1
                0x0000000040011bc5       0x84 ./234-t194/tegra/t194/release/bl31/bakery_lock_normal.o
                                         0x2c (size before relaxing)
 .rodata.psci_set_req_local_pwr_state.str1.1
                0x0000000040011bc5       0x31 ./234-t194/tegra/t194/release/bl31/psci_common.o
 .rodata.psci_validate_power_state.str1.1
                0x0000000040011bf6       0x2f ./234-t194/tegra/t194/release/bl31/psci_common.o
 .rodata.psci_query_sys_suspend_pwrstate.str1.1
                0x0000000040011c25       0x36 ./234-t194/tegra/t194/release/bl31/psci_common.o
 .rodata.psci_is_last_on_cpu.str1.1
                0x0000000040011c5b       0x2a ./234-t194/tegra/t194/release/bl31/psci_common.o
 .rodata.psci_do_state_coordination.str1.1
                0x0000000040011c85       0x1f ./234-t194/tegra/t194/release/bl31/psci_common.o
 .rodata.psci_warmboot_entrypoint.str1.1
                0x0000000040011ca4       0x40 ./234-t194/tegra/t194/release/bl31/psci_common.o
 .rodata.psci_register_spd_pm_hook.str1.1
                0x0000000040011ce4        0xb ./234-t194/tegra/t194/release/bl31/psci_common.o
 .rodata.psci_spd_migrate_info.str1.1
                0x0000000040011cef       0x82 ./234-t194/tegra/t194/release/bl31/psci_common.o
 .rodata.psci_cpu_suspend.str1.1
                0x0000000040011d71       0xb2 ./234-t194/tegra/t194/release/bl31/psci_main.o
 .rodata.psci_system_suspend.str1.1
                0x0000000040011e23       0x98 ./234-t194/tegra/t194/release/bl31/psci_main.o
 .rodata.psci_cpu_off.str1.1
                0x0000000040011ebb       0x14 ./234-t194/tegra/t194/release/bl31/psci_main.o
 .rodata.psci_migrate.str1.1
                0x0000000040011ecf       0x71 ./234-t194/tegra/t194/release/bl31/psci_main.o
 .rodata.psci_node_hw_state.str1.1
                0x0000000040011f40       0x93 ./234-t194/tegra/t194/release/bl31/psci_main.o
 .rodata.psci_mem_protect.str1.1
                0x0000000040011fd3       0x73 ./234-t194/tegra/t194/release/bl31/psci_mem_protect.o
 .rodata.psci_mem_chk_range.str1.1
                0x0000000040012046       0x2a ./234-t194/tegra/t194/release/bl31/psci_mem_protect.o
 .rodata.psci_do_cpu_off.str1.1
                0x0000000040012070       0x3d ./234-t194/tegra/t194/release/bl31/psci_off.o
 .rodata.psci_cpu_on_start.str1.1
                0x00000000400120ad       0xea ./234-t194/tegra/t194/release/bl31/psci_on.o
                                        0x13a (size before relaxing)
 .rodata.psci_cpu_on_finish.str1.1
                0x0000000040012197       0x32 ./234-t194/tegra/t194/release/bl31/psci_on.o
 .rodata.psci_setup.str1.1
                0x00000000400121c9       0xe3 ./234-t194/tegra/t194/release/bl31/psci_setup.o
 .rodata.psci_cpu_suspend_start.str1.1
                0x00000000400122ac       0x80 ./234-t194/tegra/t194/release/bl31/psci_suspend.o
 .rodata.psci_cpu_suspend_finish.str1.1
                0x000000004001232c       0x9e ./234-t194/tegra/t194/release/bl31/psci_suspend.o
 .rodata.psci_system_off.str1.1
                0x00000000400123ca       0x40 ./234-t194/tegra/t194/release/bl31/psci_system_off.o
 .rodata.psci_system_reset.str1.1
                0x000000004001240a       0x27 ./234-t194/tegra/t194/release/bl31/psci_system_off.o
 .rodata.psci_system_reset2.str1.1
                0x0000000040012431       0x28 ./234-t194/tegra/t194/release/bl31/psci_system_off.o
 .rodata.plat_interrupt_type_to_line.str1.1
                0x0000000040012459       0x68 ./234-t194/tegra/t194/release/bl31/plat_gicv2.o
                                         0x8b (size before relaxing)
 .rodata.plat_ic_set_interrupt_type.str1.1
                0x00000000400124c1       0x68 ./234-t194/tegra/t194/release/bl31/plat_gicv2.o
                                          0x2 (size before relaxing)
 .rodata.plat_ic_raise_el3_sgi.str1.1
                0x00000000400124c1       0x3d ./234-t194/tegra/t194/release/bl31/plat_gicv2.o
 .rodata.plat_ic_set_spi_routing.str1.1
                0x00000000400124fe        0xe ./234-t194/tegra/t194/release/bl31/plat_gicv2.o
 .rodata.bl31_platform_setup.str1.1
                0x00000000400124fe       0x2b ./234-t194/tegra/t194/release/bl31/tegra_bl31_setup.o
 .rodata.bl31_plat_runtime_setup.str1.1
                0x0000000040012529        0xf ./234-t194/tegra/t194/release/bl31/tegra_bl31_setup.o
 .rodata.bl31_plat_arch_setup.str1.1
                0x0000000040012538       0x2b ./234-t194/tegra/t194/release/bl31/tegra_bl31_setup.o
 .rodata.bl31_check_ns_address.str1.1
                0x0000000040012563       0x4f ./234-t194/tegra/t194/release/bl31/tegra_bl31_setup.o
 .rodata.bl31_early_platform_setup2.str1.1
                0x00000000400125b2       0xa5 ./234-t194/tegra/t194/release/bl31/tegra_bl31_setup.o
 .rodata.CSWTCH.11
                0x0000000040012657        0x7 ./234-t194/tegra/t194/release/bl31/tegra_platform.o
 .rodata.CSWTCH.7
                0x000000004001265e        0x9 ./234-t194/tegra/t194/release/bl31/tegra_platform.o
 .rodata.tegra_cpu_standby.str1.1
                0x0000000040012667        0xc ./234-t194/tegra/t194/release/bl31/tegra_pm.o
 .rodata.tegra_validate_power_state.str1.1
                0x0000000040012673       0x36 ./234-t194/tegra/t194/release/bl31/tegra_pm.o
 .rodata.__func__.3428
                0x00000000400126a9       0x12 ./234-t194/tegra/t194/release/bl31/tegra_pm.o
 .rodata.tegra_sip_handler.str1.1
                0x00000000400126bb       0x96 ./234-t194/tegra/t194/release/bl31/tegra_sip_calls.o
 .rodata.str1.1
                0x0000000040012751        0xf ./234-t194/tegra/t194/release/bl31/tegra_sip_calls.o
 .rodata.__func__.3091
                0x0000000040012760       0x12 ./234-t194/tegra/t194/release/bl31/tegra_sip_calls.o
 .rodata.tegra_bpmp_ipc_send_req_atomic.str1.1
                0x0000000040012772       0xe4 ./234-t194/tegra/t194/release/bl31/intf.o
 .rodata.tegra_bpmp_ipc_init.str1.1
                0x0000000040012856       0x8c ./234-t194/tegra/t194/release/bl31/intf.o
 .rodata.tegra_bpmp_ipc_reset_module.str1.1
                0x00000000400128e2       0x75 ./234-t194/tegra/t194/release/bl31/intf.o
 .rodata.tegra_bpmp_ipc_enable_clock.str1.1
                0x0000000040012957       0x36 ./234-t194/tegra/t194/release/bl31/intf.o
 .rodata.__func__.2500
                0x000000004001298d       0x1e ./234-t194/tegra/t194/release/bl31/intf.o
 .rodata.__func__.2547
                0x00000000400129ab       0x1f ./234-t194/tegra/t194/release/bl31/intf.o
 .rodata.__func__.2559
                0x00000000400129ca       0x14 ./234-t194/tegra/t194/release/bl31/intf.o
 .rodata.__func__.2575
                0x00000000400129de       0x1c ./234-t194/tegra/t194/release/bl31/intf.o
 .rodata.__func__.2581
                0x00000000400129fa       0x1d ./234-t194/tegra/t194/release/bl31/intf.o
 .rodata.ivc_frame_pointer.part.0.str1.1
                0x0000000040012a17       0x3e ./234-t194/tegra/t194/release/bl31/ivc.o
 .rodata.tegra_ivc_total_queue_size.str1.1
                0x0000000040012a55       0x2a ./234-t194/tegra/t194/release/bl31/ivc.o
 .rodata.tegra_ivc_init.str1.1
                0x0000000040012a7f       0x94 ./234-t194/tegra/t194/release/bl31/ivc.o
 .rodata.tegra_clear_videomem.str1.1
                0x0000000040012b13       0x2f ./234-t194/tegra/t194/release/bl31/memctrl_v2.o
                                         0x38 (size before relaxing)
 .rodata.tegra_memctrl_restore_settings.str1.1
                0x0000000040012b42       0xe0 ./234-t194/tegra/t194/release/bl31/memctrl_v2.o
 .rodata.tegra_mc_save_context.str1.1
                0x0000000040012c22      0x11d ./234-t194/tegra/t194/release/bl31/memctrl_v2.o
 .rodata.tegra_memctrl_videomem_setup.str1.1
                0x0000000040012d3f       0xf4 ./234-t194/tegra/t194/release/bl31/memctrl_v2.o
 .rodata.tegra_smmu_verify.str1.1
                0x0000000040012e33       0xda ./234-t194/tegra/t194/release/bl31/smmu.o
 .rodata.__func__.3057
                0x0000000040012f0d       0x12 ./234-t194/tegra/t194/release/bl31/smmu.o
 .rodata.boot_profiler_init.str1.1
                0x0000000040012f1f       0x4d ./234-t194/tegra/t194/release/bl31/profiler.o
 .rodata.boot_profiler_add_record.str1.1
                0x0000000040012f6c        0x3 ./234-t194/tegra/t194/release/bl31/profiler.o
 .rodata.mce_command_handler.str1.1
                0x0000000040012f6f       0x77 ./234-t194/tegra/t194/release/bl31/mce.o
 .rodata.mce_verify_firmware_version.str1.1
                0x0000000040012fe6       0x3a ./234-t194/tegra/t194/release/bl31/mce.o
 .rodata.mce_enable_strict_checking.str1.1
                0x0000000040013020       0x24 ./234-t194/tegra/t194/release/bl31/mce.o
 .rodata.__func__.3569
                0x0000000040013044       0x14 ./234-t194/tegra/t194/release/bl31/mce.o
 .rodata.__func__.3596
                0x0000000040013058       0x1b ./234-t194/tegra/t194/release/bl31/mce.o
 .rodata.nvg_online_core.str1.1
                0x0000000040013073       0x1b ./234-t194/tegra/t194/release/bl31/nvg.o
 .rodata.nvg_update_ccplex_gsc.str1.1
                0x000000004001308e       0x1b ./234-t194/tegra/t194/release/bl31/nvg.o
 .rodata.nvg_roc_clean_cache_trbits.str1.1
                0x00000000400130a9        0xd ./234-t194/tegra/t194/release/bl31/nvg.o
 .rodata.nvg_enter_cstate.str1.1
                0x00000000400130b6       0x1a ./234-t194/tegra/t194/release/bl31/nvg.o
 .rodata.nvg_verify_strict_checking_mode.str1.1
                0x00000000400130d0       0x52 ./234-t194/tegra/t194/release/bl31/nvg.o
 .rodata.__func__.3427
                0x0000000040013122       0x10 ./234-t194/tegra/t194/release/bl31/nvg.o
 .rodata.__func__.3432
                0x0000000040013132       0x16 ./234-t194/tegra/t194/release/bl31/nvg.o
 .rodata.__func__.3437
                0x0000000040013148       0x1b ./234-t194/tegra/t194/release/bl31/nvg.o
 .rodata.__func__.3444
                0x0000000040013163       0x11 ./234-t194/tegra/t194/release/bl31/nvg.o
 .rodata.tegra_se_calculate_save_sha256.str1.1
                0x0000000040013174       0xc6 ./234-t194/tegra/t194/release/bl31/se.o
 .rodata.tegra_se_suspend.str1.1
                0x000000004001323a       0xa8 ./234-t194/tegra/t194/release/bl31/se.o
                                         0xb1 (size before relaxing)
 .rodata.__func__.2760
                0x00000000400132e2       0x1f ./234-t194/tegra/t194/release/bl31/se.o
 .rodata.__func__.2770
                0x0000000040013301       0x12 ./234-t194/tegra/t194/release/bl31/se.o
 .rodata.__func__.2785
                0x0000000040013313       0x28 ./234-t194/tegra/t194/release/bl31/se.o
 .rodata.__func__.2835
                0x000000004001333b       0x1f ./234-t194/tegra/t194/release/bl31/se.o
 .rodata.__func__.2840
                0x000000004001335a       0x11 ./234-t194/tegra/t194/release/bl31/se.o
 .rodata.tegra_soc_validate_power_state.str1.1
                0x000000004001336b       0x20 ./234-t194/tegra/t194/release/bl31/plat_psci_handlers.o
 .rodata.tegra_soc_pwr_domain_suspend.str1.1
                0x000000004001338b       0x30 ./234-t194/tegra/t194/release/bl31/plat_psci_handlers.o
                                         0x39 (size before relaxing)
 .rodata.tegra_soc_pwr_domain_power_down_wfi.str1.1
                0x00000000400133bb       0x40 ./234-t194/tegra/t194/release/bl31/plat_psci_handlers.o
 .rodata.tegra_soc_pwr_domain_on.str1.1
                0x00000000400133fb       0x1e ./234-t194/tegra/t194/release/bl31/plat_psci_handlers.o
 .rodata.tegra_soc_pwr_domain_on_finish.str1.1
                0x0000000040013419      0x240 ./234-t194/tegra/t194/release/bl31/plat_psci_handlers.o
 .rodata.__func__.3994
                0x0000000040013659       0x1f ./234-t194/tegra/t194/release/bl31/plat_psci_handlers.o
 .rodata.__func__.4054
                0x0000000040013678       0x18 ./234-t194/tegra/t194/release/bl31/plat_psci_handlers.o
 .rodata.tegra194_ras_record_handler.str1.1
                0x0000000040013690      0x19b ./234-t194/tegra/t194/release/bl31/plat_ras.o
                                        0x1cb (size before relaxing)
 .rodata.tegra194_ras_enable.str1.1
                0x000000004001382b       0x2e ./234-t194/tegra/t194/release/bl31/plat_ras.o
 .rodata.plat_ea_handler.str1.1
                0x0000000040013859       0x7c ./234-t194/tegra/t194/release/bl31/plat_ras.o
 .rodata.str1.1
                0x00000000400138d5      0xa90 ./234-t194/tegra/t194/release/bl31/plat_ras.o
                                        0xa93 (size before relaxing)
 .rodata.plat_secondary_setup.str1.1
                0x0000000040014365      0x1e9 ./234-t194/tegra/t194/release/bl31/plat_secondary.o
                                        0x1f2 (size before relaxing)
 .rodata.plat_early_platform_setup.str1.1
                0x000000004001454e      0x12c ./234-t194/tegra/t194/release/bl31/plat_setup.o
                                        0x36c (size before relaxing)
 .rodata.tegra_power_domain_tree_desc
                0x000000004001467a        0x6 ./234-t194/tegra/t194/release/bl31/plat_setup.o
 .rodata.plat_sip_handler.str1.1
                0x0000000040014680       0x55 ./234-t194/tegra/t194/release/bl31/plat_sip_calls.o
 .rodata.str1.1
                0x00000000400146d5        0xd ./234-t194/tegra/t194/release/bl31/arm_arch_svc_setup.o
 .rodata.opteed_init_optee_ep_state.str1.1
                0x00000000400146e2       0x43 ./234-t194/tegra/t194/release/bl31/opteed_common.o
 .rodata.opteed_synchronous_sp_entry.str1.1
                0x0000000040014725       0x59 ./234-t194/tegra/t194/release/bl31/opteed_common.o
 .rodata.opteed_synchronous_sp_exit.str1.1
                0x000000004001477e       0x19 ./234-t194/tegra/t194/release/bl31/opteed_common.o
 .rodata.opteed_smc_handler.str1.1
                0x0000000040014797       0xc0 ./234-t194/tegra/t194/release/bl31/opteed_main.o
 .rodata.opteed_sel1_interrupt_handler.str1.1
                0x0000000040014857       0x2a ./234-t194/tegra/t194/release/bl31/opteed_main.o
 .rodata.opteed_init.str1.1
                0x0000000040014881        0x8 ./234-t194/tegra/t194/release/bl31/opteed_main.o
                                         0x1a (size before relaxing)
 .rodata.str1.1
                0x0000000040014889       0x17 ./234-t194/tegra/t194/release/bl31/opteed_main.o
 .rodata.opteed_system_reset.str1.1
                0x00000000400148a0       0x69 ./234-t194/tegra/t194/release/bl31/opteed_pm.o
 .rodata.opteed_cpu_suspend_finish_handler.str1.1
                0x0000000040014909       0x3b ./234-t194/tegra/t194/release/bl31/opteed_pm.o
 .rodata.opteed_cpu_on_finish_handler.str1.1
                0x0000000040014944       0x37 ./234-t194/tegra/t194/release/bl31/opteed_pm.o
 .rodata.save_event_ctx.str1.1
                0x000000004001497b       0x5c ./234-t194/tegra/t194/release/bl31/sdei_intr_mgmt.o
 .rodata.get_outstanding_dispatch.str1.1
                0x00000000400149d7       0x26 ./234-t194/tegra/t194/release/bl31/sdei_intr_mgmt.o
 .rodata.restore_and_resume_ns_context.str1.1
                0x00000000400149fd        0xf ./234-t194/tegra/t194/release/bl31/sdei_intr_mgmt.o
 .rodata.sdei_intr_handler.str1.1
                0x0000000040014a0c      0x108 ./234-t194/tegra/t194/release/bl31/sdei_intr_mgmt.o
 .rodata.sdei_event_complete.str1.1
                0x0000000040014b14      0x108 ./234-t194/tegra/t194/release/bl31/sdei_intr_mgmt.o
                                          0xc (size before relaxing)
 .rodata.sdei_event_context.str1.1
                0x0000000040014b14       0x16 ./234-t194/tegra/t194/release/bl31/sdei_intr_mgmt.o
 .rodata.sdei_class_init.str1.1
                0x0000000040014b2a      0x200 ./234-t194/tegra/t194/release/bl31/sdei_main.o
                                        0x21f (size before relaxing)
 .rodata.sdei_event_unregister.str1.1
                0x0000000040014d2a       0x5f ./234-t194/tegra/t194/release/bl31/sdei_main.o
 .rodata.sdei_smc_handler.str1.1
                0x0000000040014d89       0x14 ./234-t194/tegra/t194/release/bl31/sdei_main.o
 .rodata.can_sdei_state_trans.str1.1
                0x0000000040014d9d       0x30 ./234-t194/tegra/t194/release/bl31/sdei_state.o
 .rodata.sdei_state_table
                0x0000000040014dcd       0x50 ./234-t194/tegra/t194/release/bl31/sdei_state.o
 .rodata.std_svc_setup.str1.1
                0x0000000040014e1d       0x29 ./234-t194/tegra/t194/release/bl31/std_svc_setup.o
 .rodata.str1.1
                0x0000000040014e46        0x8 ./234-t194/tegra/t194/release/bl31/std_svc_setup.o
 .rodata.tf_log.str1.1
                0x0000000040014e4e       0x5d ./234-t194/tegra/t194/release/bl31/tf_log.o
 .rodata.console_unregister.str1.1
                0x0000000040014eab       0x36 ./234-t194/tegra/t194/release/bl31/multi_console.o
 .rodata.console_is_registered.str1.1
                0x0000000040014ee1       0x10 ./234-t194/tegra/t194/release/bl31/multi_console.o
 .rodata.console_register.str1.1
                0x0000000040014ef1       0x34 ./234-t194/tegra/t194/release/bl31/multi_console.o
 .rodata.console_set_scope.str1.1
                0x0000000040014f25       0x10 ./234-t194/tegra/t194/release/bl31/multi_console.o
 .rodata.str1.1
                0x0000000040014f35       0x32 ./234-t194/tegra/t194/release/bl31/plat_log_common.o
 .rodata.xlat_arch_get_max_supported_granule_size.str1.1
                0x0000000040014f67       0x61 ./234-t194/tegra/t194/release/bl31/xlat_tables_arch.o
 .rodata.tcr_physical_addr_size_bits.str1.1
                0x0000000040014fc8       0x26 ./234-t194/tegra/t194/release/bl31/xlat_tables_arch.o
 .rodata.xlat_arch_get_max_supported_pa.str1.1
                0x0000000040014fee       0x29 ./234-t194/tegra/t194/release/bl31/xlat_tables_arch.o
 .rodata.xlat_arch_regime_get_xn_desc.str1.1
                0x0000000040015017       0x3b ./234-t194/tegra/t194/release/bl31/xlat_tables_arch.o
 .rodata.xlat_arch_current_el.str1.1
                0x0000000040015052        0x8 ./234-t194/tegra/t194/release/bl31/xlat_tables_arch.o
 .rodata.is_mmu_enabled_ctx.str1.1
                0x000000004001505a       0x76 ./234-t194/tegra/t194/release/bl31/xlat_tables_arch.o
 .rodata.xlat_arch_tlbi_va.str1.1
                0x00000000400150d0       0x76 ./234-t194/tegra/t194/release/bl31/xlat_tables_arch.o
                                         0x1a (size before relaxing)
 .rodata.setup_mmu_cfg.str1.1
                0x00000000400150d0       0xbd ./234-t194/tegra/t194/release/bl31/xlat_tables_arch.o
 .rodata.mmap_add_alloc_va.str1.1
                0x000000004001518d       0x3b ./234-t194/tegra/t194/release/bl31/xlat_tables_context.o
 .rodata.init_xlat_tables.str1.1
                0x00000000400151c8       0x3e ./234-t194/tegra/t194/release/bl31/xlat_tables_context.o
 .rodata.xlat_table_get_index.str1.1
                0x0000000040015206       0x26 ./234-t194/tegra/t194/release/bl31/xlat_tables_core.o
                                         0x2c (size before relaxing)
 .rodata.xlat_tables_unmap_region.str1.1
                0x000000004001522c       0x90 ./234-t194/tegra/t194/release/bl31/xlat_tables_core.o
 .rodata.xlat_desc.str1.1
                0x00000000400152bc       0x8b ./234-t194/tegra/t194/release/bl31/xlat_tables_core.o
 .rodata.xlat_tables_map_region.str1.1
                0x0000000040015347       0x1a ./234-t194/tegra/t194/release/bl31/xlat_tables_core.o
 .rodata.mmap_add_region_ctx.str1.1
                0x0000000040015361       0x64 ./234-t194/tegra/t194/release/bl31/xlat_tables_core.o
 .rodata.mmap_remove_dynamic_region_ctx.str1.1
                0x00000000400153c5       0x1d ./234-t194/tegra/t194/release/bl31/xlat_tables_core.o
 .rodata.init_xlat_tables_ctx.str1.1
                0x00000000400153e2      0x1f6 ./234-t194/tegra/t194/release/bl31/xlat_tables_core.o
                                        0x202 (size before relaxing)
 .rodata.gic_reg_name
                0x00000000400155d8       0x66 ./234-t194/tegra/t194/release/bl31/crash_reporting.o
 .rodata.crash_prints
                0x000000004001563e      0x2b9 ./234-t194/tegra/t194/release/bl31/crash_reporting.o
 .rodata.str1.1
                0x00000000400158f7       0x1b ./234-t194/tegra/t194/release/bl31/ea_delegate.o
 .rodata.str1.1
                0x0000000040015912       0x1f ./234-t194/tegra/t194/release/bl31/cpu_helpers.o
 .rodata.denver_regs
                0x0000000040015931        0xb ./234-t194/tegra/t194/release/bl31/denver.o
 .rodata.str1.1
                0x000000004001593c       0x22 ./234-t194/tegra/t194/release/bl31/context.o
 .rodata.str1.1
                0x000000004001595e       0x2f ./234-t194/tegra/t194/release/bl31/shared_console.o
 .rodata.panic_str
                0x000000004001598d       0x11 ./234-t194/tegra/t194/release/bl31/debug.o
 .rodata.str1.1
                0x000000004001599e       0x1b ./234-t194/tegra/t194/release/bl31/misc_helpers.o
 .rodata.str1.1
                0x00000000400159b9       0x28 ./234-t194/tegra/t194/release/bl31/enable_mmu.o
 .rodata.__assert.str1.1
                0x00000000400159e1       0x12 ./234-t194/tegra/t194/release/lib/libc.a(assert.o)
 .rodata.vprintf.str1.1
                0x00000000400159f3       0x21 ./234-t194/tegra/t194/release/lib/libc.a(printf.o)
 .rodata.vsnprintf.str1.1
                0x0000000040015a14       0x39 ./234-t194/tegra/t194/release/lib/libc.a(snprintf.o)
                                         0x3c (size before relaxing)
 .rodata.str1.1
                0x0000000040015a4d       0x1a ./234-t194/tegra/t194/release/lib/libc.a(setjmp.o)
                0x0000000040015a68                . = ALIGN (0x8)
 *fill*         0x0000000040015a67        0x1 
                0x0000000040015a68                __RT_SVC_DESCS_START__ = .
 *(rt_svc_descs)
 rt_svc_descs   0x0000000040015a68       0x20 ./234-t194/tegra/t194/release/bl31/tegra_sip_calls.o
 rt_svc_descs   0x0000000040015a88       0x20 ./234-t194/tegra/t194/release/bl31/arm_arch_svc_setup.o
 rt_svc_descs   0x0000000040015aa8       0x40 ./234-t194/tegra/t194/release/bl31/opteed_main.o
 rt_svc_descs   0x0000000040015ae8       0x20 ./234-t194/tegra/t194/release/bl31/std_svc_setup.o
                0x0000000040015b08                __RT_SVC_DESCS_END__ = .
                0x0000000040015b08                . = ALIGN (0x8)
                0x0000000040015b08                __FCONF_POPULATOR_START__ = .
 *(.fconf_populator)
                0x0000000040015b08                __FCONF_POPULATOR_END__ = .
                0x0000000040015b08                . = ALIGN (0x8)
                0x0000000040015b08                __PMF_SVC_DESCS_START__ = .
 *(pmf_svc_descs)
                0x0000000040015b08                __PMF_SVC_DESCS_END__ = .
                0x0000000040015b08                . = ALIGN (0x8)
                0x0000000040015b08                __PARSER_LIB_DESCS_START__ = .
 *(.img_parser_lib_descs)
                0x0000000040015b08                __PARSER_LIB_DESCS_END__ = .
                0x0000000040015b08                . = ALIGN (0x8)
                0x0000000040015b08                __CPU_OPS_START__ = .
 *(cpu_ops)
 cpu_ops        0x0000000040015b08      0x2d0 ./234-t194/tegra/t194/release/bl31/denver.o
                0x0000000040015dd8                __CPU_OPS_END__ = .
                0x0000000040015dd8                . = ALIGN (0x8)
                0x0000000040015dd8                __GOT_START__ = .
 *(.got)
                0x0000000040015dd8                __GOT_END__ = .
                0x0000000040015dd8                . = ALIGN (0x8)
                0x0000000040015dd8                __pubsub_psci_cpu_on_finish_start = .
 *(__pubsub_psci_cpu_on_finish)
 __pubsub_psci_cpu_on_finish
                0x0000000040015dd8        0x8 ./234-t194/tegra/t194/release/bl31/sdei_main.o
                0x0000000040015dd8                __cb_func_sdei_cpu_on_initpsci_cpu_on_finish
                0x0000000040015de0                __pubsub_psci_cpu_on_finish_end = .
                0x0000000040015de0                __pubsub_psci_suspend_pwrdown_start_start = .
 *(__pubsub_psci_suspend_pwrdown_start)
                0x0000000040015de0                __pubsub_psci_suspend_pwrdown_start_end = .
                0x0000000040015de0                __pubsub_psci_suspend_pwrdown_finish_start = .
 *(__pubsub_psci_suspend_pwrdown_finish)
 __pubsub_psci_suspend_pwrdown_finish
                0x0000000040015de0        0x8 ./234-t194/tegra/t194/release/bl31/sdei_main.o
                0x0000000040015de0                __cb_func_sdei_cpu_wakeup_initpsci_suspend_pwrdown_finish
                0x0000000040015de8                __pubsub_psci_suspend_pwrdown_finish_end = .
                0x0000000040015de8                __pubsub_cm_entering_secure_world_start = .
 *(__pubsub_cm_entering_secure_world)
 __pubsub_cm_entering_secure_world
                0x0000000040015de8        0x8 ./234-t194/tegra/t194/release/bl31/spe.o
                0x0000000040015de8                __cb_func_spe_drain_buffers_hookcm_entering_secure_world
                0x0000000040015df0                __pubsub_cm_entering_secure_world_end = .
                0x0000000040015df0                __pubsub_cm_exited_secure_world_start = .
 *(__pubsub_cm_exited_secure_world)
                0x0000000040015df0                __pubsub_cm_exited_secure_world_end = .
                0x0000000040015df0                __pubsub_cm_entering_normal_world_start = .
 *(__pubsub_cm_entering_normal_world)
 __pubsub_cm_entering_normal_world
                0x0000000040015df0        0x8 ./234-t194/tegra/t194/release/bl31/ehf.o
                0x0000000040015df0                __cb_func_ehf_entering_normal_worldcm_entering_normal_world
                0x0000000040015df8                __pubsub_cm_entering_normal_world_end = .
                0x0000000040015df8                __pubsub_cm_exited_normal_world_start = .
 *(__pubsub_cm_exited_normal_world)
 __pubsub_cm_exited_normal_world
                0x0000000040015df8        0x8 ./234-t194/tegra/t194/release/bl31/ehf.o
                0x0000000040015df8                __cb_func_ehf_exited_normal_worldcm_exited_normal_world
                0x0000000040015e00                __pubsub_cm_exited_normal_world_end = .
                0x0000000040016000                . = ALIGN (0x1000)
 *fill*         0x0000000040015e00      0x200 
                0x0000000040016000                __RODATA_END__ = .
                0x0000000000000001                ASSERT ((__CPU_OPS_END__ > __CPU_OPS_START__), cpu_ops not defined for this platform.)
                0x0000000040016000                __RW_START__ = .

.data           0x0000000040016000      0x7c2
                0x0000000040016000                __DATA_START__ = .
 *(SORT_BY_ALIGNMENT(.data*))
 .data.tegra194_mc_context
                0x0000000040016000       0x18 ./234-t194/tegra/t194/release/bl31/plat_memctrl.o
 .data.plat_exceptions
                0x0000000040016018       0x28 ./234-t194/tegra/t194/release/bl31/plat_ehf.o
                0x0000000040016018                plat_exceptions
 .data.plat_bl31_params_from_bl2
                0x0000000040016040       0x38 ./234-t194/tegra/t194/release/bl31/tegra_bl31_setup.o
 .data.tegra_plat_psci_ops
                0x0000000040016078       0xa8 ./234-t194/tegra/t194/release/bl31/tegra_pm.o
 .data.carmel_ras_records
                0x0000000040016120      0x2a0 ./234-t194/tegra/t194/release/bl31/plat_ras.o
 .data.ccplex_ras_group
                0x00000000400163c0       0x78 ./234-t194/tegra/t194/release/bl31/plat_ras.o
 .data.per_cluster_ras_group
                0x0000000040016438       0x48 ./234-t194/tegra/t194/release/bl31/plat_ras.o
 .data.per_core_ras_group
                0x0000000040016480       0x90 ./234-t194/tegra/t194/release/bl31/plat_ras.o
 .data.scf_l3_ras_group
                0x0000000040016510       0x60 ./234-t194/tegra/t194/release/bl31/plat_ras.o
 .data.stack_protector_canary
                0x0000000040016570        0x8 ./234-t194/tegra/t194/release/bl31/stack_protector.o
                0x0000000040016570                __stack_chk_guard
 .data.tf_xlat_ctx
                0x0000000040016578       0x70 ./234-t194/tegra/t194/release/bl31/xlat_tables_context.o
 .data.crash_console_reg_stash
                0x00000000400165e8       0x28 ./234-t194/tegra/t194/release/bl31/crash_console_helpers.o
 .data          0x0000000040016610       0x20 ./234-t194/tegra/t194/release/bl31/tegra_helpers.o
                0x0000000040016610                tegra_sec_entry_point
                0x0000000040016618                ns_image_entrypoint
                0x0000000040016620                tegra_bl31_phys_base
                0x0000000040016628                tegra_console_base
 .data          0x0000000040016630        0x8 ./234-t194/tegra/t194/release/bl31/shared_console.o
 .data.next_image_type
                0x0000000040016638        0x4 ./234-t194/tegra/t194/release/bl31/bl31_main.o
 .data.tegra_sdei_private
                0x000000004001663c      0x140 ./234-t194/tegra/t194/release/bl31/tegra_sdei.o
 .data.tegra_sdei_shared
                0x000000004001677c       0x3c ./234-t194/tegra/t194/release/bl31/tegra_sdei.o
 .data.max_log_level
                0x00000000400167b8        0x4 ./234-t194/tegra/t194/release/bl31/tf_log.o
 .data.crash_console_spinlock
                0x00000000400167bc        0x4 ./234-t194/tegra/t194/release/bl31/crash_console_helpers.o
 .data.console_state
                0x00000000400167c0        0x1 ./234-t194/tegra/t194/release/bl31/multi_console.o
                0x00000000400167c0                console_state
 .data.crash_console_triggered
                0x00000000400167c1        0x1 ./234-t194/tegra/t194/release/bl31/crash_console_helpers.o
                0x00000000400167c2                __DATA_END__ = .

.igot.plt       0x00000000400167c8        0x0
 .igot.plt      0x00000000400167c8        0x0 ./234-t194/tegra/t194/release/bl31/bl31_context_mgmt.o

.rela.dyn       0x00000000400167c8        0x0
                0x00000000400167c8                __RELA_START__ = .
 *(.rela*)
 .rela.iplt     0x00000000400167c8        0x0 ./234-t194/tegra/t194/release/bl31/bl31_context_mgmt.o
 .rela.text.runtime_svc_init
                0x00000000400167c8        0x0 ./234-t194/tegra/t194/release/bl31/bl31_context_mgmt.o
 .rela.text.cm_el1_sysregs_context_save
                0x00000000400167c8        0x0 ./234-t194/tegra/t194/release/bl31/bl31_context_mgmt.o
 .rela.text.cm_el1_sysregs_context_restore
                0x00000000400167c8        0x0 ./234-t194/tegra/t194/release/bl31/bl31_context_mgmt.o
 .rela.text.bakery_lock_get
                0x00000000400167c8        0x0 ./234-t194/tegra/t194/release/bl31/bl31_context_mgmt.o
 .rela.text.bakery_lock_release
                0x00000000400167c8        0x0 ./234-t194/tegra/t194/release/bl31/bl31_context_mgmt.o
 .rela.text.psci_cpu_on_finish
                0x00000000400167c8        0x0 ./234-t194/tegra/t194/release/bl31/bl31_context_mgmt.o
 .rela.text.psci_cpu_suspend_start
                0x00000000400167c8        0x0 ./234-t194/tegra/t194/release/bl31/bl31_context_mgmt.o
 .rela.text.psci_cpu_suspend_finish
                0x00000000400167c8        0x0 ./234-t194/tegra/t194/release/bl31/bl31_context_mgmt.o
 .rela.text.bl31_plat_arch_setup
                0x00000000400167c8        0x0 ./234-t194/tegra/t194/release/bl31/bl31_context_mgmt.o
 .rela.text.tegra_soc_pwr_domain_power_down_wfi
                0x00000000400167c8        0x0 ./234-t194/tegra/t194/release/bl31/bl31_context_mgmt.o
 .rela.text.plat_secondary_setup
                0x00000000400167c8        0x0 ./234-t194/tegra/t194/release/bl31/bl31_context_mgmt.o
 .rela.text.console_register
                0x00000000400167c8        0x0 ./234-t194/tegra/t194/release/bl31/bl31_context_mgmt.o
 .rela.text.asm.bl31_entrypoint
                0x00000000400167c8        0x0 ./234-t194/tegra/t194/release/bl31/bl31_context_mgmt.o
 .rela.text.asm.smc_handler
                0x00000000400167c8        0x0 ./234-t194/tegra/t194/release/bl31/bl31_context_mgmt.o
 .rela.text.asm.get_cpu_ops_ptr
                0x00000000400167c8        0x0 ./234-t194/tegra/t194/release/bl31/bl31_context_mgmt.o
 .rela.text.asm.plat_reset_handler
                0x00000000400167c8        0x0 ./234-t194/tegra/t194/release/bl31/bl31_context_mgmt.o
 .rela.text.asm.tegra194_cpu_reset_handler
                0x00000000400167c8        0x0 ./234-t194/tegra/t194/release/bl31/bl31_context_mgmt.o
                0x00000000400167c8                __RELA_END__ = .

stacks          0x0000000040016800     0x2000
                0x0000000040016800                __STACKS_START__ = .
 *(tzfw_normal_stacks)
 tzfw_normal_stacks
                0x0000000040016800     0x2000 ./234-t194/tegra/t194/release/bl31/platform_mp_stack.o
                0x0000000040018800                __STACKS_END__ = .

.bss            0x0000000040018800     0x5590
                0x0000000040018800                __BSS_START__ = .
 *(SORT_BY_ALIGNMENT(.bss*))
 .bss.percpu_data
                0x0000000040018800      0x400 ./234-t194/tegra/t194/release/bl31/cpu_data_array.o
                0x0000000040018800                percpu_data
 .bss.t19x_percpu_data
                0x0000000040018c00      0x200 ./234-t194/tegra/t194/release/bl31/plat_psci_handlers.o
 .bss.psci_ns_context
                0x0000000040018e00     0x1380 ./234-t194/tegra/t194/release/bl31/psci_setup.o
 .bss.opteed_sp_context
                0x000000004001a180     0x1480 ./234-t194/tegra/t194/release/bl31/opteed_main.o
                0x000000004001a180                opteed_sp_context
 .bss.bl32_init
                0x000000004001b600        0x8 ./234-t194/tegra/t194/release/bl31/bl31_main.o
 .bss.intr_type_descs
                0x000000004001b608       0x60 ./234-t194/tegra/t194/release/bl31/interrupt_mgmt.o
 .bss.driver_data
                0x000000004001b668        0x8 ./234-t194/tegra/t194/release/bl31/gicv2_main.o
 .bss.timer_ops
                0x000000004001b670        0x8 ./234-t194/tegra/t194/release/bl31/delay_timer.o
 .bss.psci_cpu_pd_nodes
                0x000000004001b678       0x80 ./234-t194/tegra/t194/release/bl31/psci_common.o
                0x000000004001b678                psci_cpu_pd_nodes
 .bss.psci_plat_pm_ops
                0x000000004001b6f8        0x8 ./234-t194/tegra/t194/release/bl31/psci_common.o
                0x000000004001b6f8                psci_plat_pm_ops
 .bss.psci_spd_pm
                0x000000004001b700        0x8 ./234-t194/tegra/t194/release/bl31/psci_common.o
                0x000000004001b700                psci_spd_pm
 .bss.bl32_image_ep_info
                0x000000004001b708       0x58 ./234-t194/tegra/t194/release/bl31/tegra_bl31_setup.o
 .bss.bl33_image_ep_info
                0x000000004001b760       0x58 ./234-t194/tegra/t194/release/bl31/tegra_bl31_setup.o
 .bss.tegra_timer_ops.3274
                0x000000004001b7b8       0x10 ./234-t194/tegra/t194/release/bl31/tegra_delay_timer.o
 .bss.fiq_state
                0x000000004001b7c8       0x80 ./234-t194/tegra/t194/release/bl31/tegra_fiq_glue.o
 .bss.ns_fiq_handler_addr
                0x000000004001b848        0x8 ./234-t194/tegra/t194/release/bl31/tegra_fiq_glue.o
 .bss.tegra_gic_data.3326
                0x000000004001b850       0x30 ./234-t194/tegra/t194/release/bl31/tegra_gicv2.o
 .bss.sdei_private_event_table
                0x000000004001b880     0x1000 ./234-t194/tegra/t194/release/bl31/tegra_sdei.o
                0x000000004001b880                sdei_private_event_table
 .bss.sdei_shared_event_table
                0x000000004001c880       0x60 ./234-t194/tegra/t194/release/bl31/tegra_sdei.o
                0x000000004001c880                sdei_shared_event_table
 .bss.ivc_ccplex_bpmp_channel
                0x000000004001c8e0       0x28 ./234-t194/tegra/t194/release/bl31/intf.o
 .bss.s_channel
                0x000000004001c908       0x10 ./234-t194/tegra/t194/release/bl31/intf.o
 .bss.video_mem_base
                0x000000004001c918        0x8 ./234-t194/tegra/t194/release/bl31/memctrl_v2.o
 .bss.video_mem_size_mb
                0x000000004001c920        0x8 ./234-t194/tegra/t194/release/bl31/memctrl_v2.o
 .bss.cur       0x000000004001c928        0x8 ./234-t194/tegra/t194/release/bl31/profiler.o
 .bss.head      0x000000004001c930        0x8 ./234-t194/tegra/t194/release/bl31/profiler.o
 .bss.shmem_base_addr
                0x000000004001c938        0x8 ./234-t194/tegra/t194/release/bl31/profiler.o
 .bss.tail      0x000000004001c940        0x8 ./234-t194/tegra/t194/release/bl31/profiler.o
 .bss.bpmp_ipc  0x000000004001c948       0x18 ./234-t194/tegra/t194/release/bl31/plat_setup.o
 .bss.spe_console.3705
                0x000000004001c960       0x30 ./234-t194/tegra/t194/release/bl31/plat_setup.o
 .bss.optee_vector_table
                0x000000004001c990        0x8 ./234-t194/tegra/t194/release/bl31/opteed_main.o
                0x000000004001c990                optee_vector_table
 .bss.cpu_state
                0x000000004001c998      0xb40 ./234-t194/tegra/t194/release/bl31/sdei_intr_mgmt.o
 .bss.console_list
                0x000000004001d4d8        0x8 ./234-t194/tegra/t194/release/bl31/multi_console.o
                0x000000004001d4d8                console_list
 .bss.mmu_cfg_params
                0x000000004001d4e0       0x18 ./234-t194/tegra/t194/release/bl31/xlat_tables_context.o
                0x000000004001d4e0                mmu_cfg_params
 .bss.tf_mmap   0x000000004001d4f8      0x4d8 ./234-t194/tegra/t194/release/bl31/xlat_tables_context.o
 .bss.gic_lock  0x000000004001d9d0        0x4 ./234-t194/tegra/t194/release/bl31/gicv2_main.o
 .bss.psci_non_cpu_pd_nodes
                0x000000004001d9d4       0x50 ./234-t194/tegra/t194/release/bl31/psci_common.o
                0x000000004001d9d4                psci_non_cpu_pd_nodes
 .bss.psci_plat_core_count
                0x000000004001da24        0x4 ./234-t194/tegra/t194/release/bl31/psci_common.o
                0x000000004001da24                psci_plat_core_count
 .bss.psci_caps
                0x000000004001da28        0x4 ./234-t194/tegra/t194/release/bl31/psci_setup.o
                0x000000004001da28                psci_caps
 .bss.fiq_handler_active
                0x000000004001da2c        0x4 ./234-t194/tegra/t194/release/bl31/tegra_fiq_glue.o
 .bss.tegra_target_masks
                0x000000004001da30       0x20 ./234-t194/tegra/t194/release/bl31/tegra_gicv2.o
 .bss.tmr       0x000000004001da50        0x4 ./234-t194/tegra/t194/release/bl31/profiler.o
 .bss.se_regs   0x000000004001da54       0x10 ./234-t194/tegra/t194/release/bl31/se.o
 .bss.opteed_rw
                0x000000004001da64        0x4 ./234-t194/tegra/t194/release/bl31/opteed_main.o
                0x000000004001da64                opteed_rw
 .bss.num_dyn_priv_slots
                0x000000004001da68        0x4 ./234-t194/tegra/t194/release/bl31/sdei_main.o
 .bss.num_dyn_shrd_slots
                0x000000004001da6c        0x4 ./234-t194/tegra/t194/release/bl31/sdei_main.o
 .bss.tf_mapped_regions
                0x000000004001da70       0x64 ./234-t194/tegra/t194/release/bl31/xlat_tables_context.o
 .bss.rt_svc_descs_indices
                0x000000004001dad4       0x80 ./234-t194/tegra/t194/release/bl31/runtime_svc.o
                0x000000004001dad4                rt_svc_descs_indices
 .bss.psci_req_local_pwr_states
                0x000000004001db54       0x10 ./234-t194/tegra/t194/release/bl31/psci_common.o
 .bss.is_shmem_buf_mapped
                0x000000004001db64        0x1 ./234-t194/tegra/t194/release/bl31/profiler.o
 *(COMMON)
                0x000000004001db80                . = ALIGN (0x40)
 *fill*         0x000000004001db65       0x1b 
                0x000000004001db80                __BAKERY_LOCK_START__ = .
                0x000000004001db80                __PERCPU_BAKERY_LOCK_START__ = .
 *(bakery_lock)
 bakery_lock    0x000000004001db80        0xa ./234-t194/tegra/t194/release/bl31/psci_common.o
                0x000000004001db80                psci_locks
 bakery_lock    0x000000004001db8a        0x2 ./234-t194/tegra/t194/release/bl31/plat_ras.o
                0x000000004001dbc0                . = ALIGN (0x40)
 *fill*         0x000000004001db8c       0x34 
                0x000000004001dbc0                __PERCPU_BAKERY_LOCK_END__ = .
                0x0000000000000040                __PERCPU_BAKERY_LOCK_SIZE__ = ABSOLUTE ((__PERCPU_BAKERY_LOCK_END__ - __PERCPU_BAKERY_LOCK_START__))
                0x000000004001dd80                . = (. + (__PERCPU_BAKERY_LOCK_SIZE__ * 0x7))
 *fill*         0x000000004001dbc0      0x1c0 
                0x000000004001dd80                __BAKERY_LOCK_END__ = .
                0x000000004001dd80                . = ALIGN (0x40)
                0x000000004001dd80                __PMF_TIMESTAMP_START__ = .
 *(pmf_timestamp_array)
                0x000000004001dd80                . = ALIGN (0x40)
                0x000000004001dd80                __PMF_PERCPU_TIMESTAMP_END__ = .
                0x0000000000000000                __PERCPU_TIMESTAMP_SIZE__ = ABSOLUTE ((. - __PMF_TIMESTAMP_START__))
                0x000000004001dd80                . = (. + (__PERCPU_TIMESTAMP_SIZE__ * 0x7))
                0x000000004001dd80                __PMF_TIMESTAMP_END__ = .
                0x000000004001dd80                . = ALIGN (0x10)
 *(base_xlat_table)
 base_xlat_table
                0x000000004001dd80       0x10 ./234-t194/tegra/t194/release/bl31/xlat_tables_context.o
                0x000000004001dd90                __BSS_END__ = .

xlat_table      0x000000004001e000    0x19000
 *(xlat_table)
 xlat_table     0x000000004001e000    0x19000 ./234-t194/tegra/t194/release/bl31/xlat_tables_context.o
                0x0000000040037000                __RW_END__ = .
                0x0000000040037000                __BL31_END__ = .

/DISCARD/
 *(.dynsym .dynstr .hash .gnu.hash)
                0x0000000000000001                ASSERT ((. <= 0x40040000), BL31 image has exceeded its limit.)
LOAD ./234-t194/tegra/t194/release/bl31/build_message.o
LOAD ./234-t194/tegra/t194/release/bl31/bl31_context_mgmt.o
LOAD ./234-t194/tegra/t194/release/bl31/bl31_main.o
LOAD ./234-t194/tegra/t194/release/bl31/ehf.o
LOAD ./234-t194/tegra/t194/release/bl31/interrupt_mgmt.o
LOAD ./234-t194/tegra/t194/release/bl31/runtime_svc.o
LOAD ./234-t194/tegra/t194/release/bl31/gicdv2_helpers.o
LOAD ./234-t194/tegra/t194/release/bl31/gicv2_helpers.o
LOAD ./234-t194/tegra/t194/release/bl31/gicv2_main.o
LOAD ./234-t194/tegra/t194/release/bl31/delay_timer.o
LOAD ./234-t194/tegra/t194/release/bl31/io_storage.o
LOAD ./234-t194/tegra/t194/release/bl31/errata_report.o
LOAD ./234-t194/tegra/t194/release/bl31/context_mgmt.o
LOAD ./234-t194/tegra/t194/release/bl31/cpu_data_array.o
LOAD ./234-t194/tegra/t194/release/bl31/ras_common.o
LOAD ./234-t194/tegra/t194/release/bl31/std_err_record.o
LOAD ./234-t194/tegra/t194/release/bl31/spe.o
LOAD ./234-t194/tegra/t194/release/bl31/sve.o
LOAD ./234-t194/tegra/t194/release/bl31/bakery_lock_normal.o
LOAD ./234-t194/tegra/t194/release/bl31/psci_common.o
LOAD ./234-t194/tegra/t194/release/bl31/psci_main.o
LOAD ./234-t194/tegra/t194/release/bl31/psci_mem_protect.o
LOAD ./234-t194/tegra/t194/release/bl31/psci_off.o
LOAD ./234-t194/tegra/t194/release/bl31/psci_on.o
LOAD ./234-t194/tegra/t194/release/bl31/psci_setup.o
LOAD ./234-t194/tegra/t194/release/bl31/psci_suspend.o
LOAD ./234-t194/tegra/t194/release/bl31/psci_system_off.o
LOAD ./234-t194/tegra/t194/release/bl31/plat_ehf.o
LOAD ./234-t194/tegra/t194/release/bl31/plat_gicv2.o
LOAD ./234-t194/tegra/t194/release/bl31/tegra_bl31_setup.o
LOAD ./234-t194/tegra/t194/release/bl31/tegra_delay_timer.o
LOAD ./234-t194/tegra/t194/release/bl31/tegra_fiq_glue.o
LOAD ./234-t194/tegra/t194/release/bl31/tegra_gicv2.o
LOAD ./234-t194/tegra/t194/release/bl31/tegra_io_storage.o
LOAD ./234-t194/tegra/t194/release/bl31/tegra_platform.o
LOAD ./234-t194/tegra/t194/release/bl31/tegra_pm.o
LOAD ./234-t194/tegra/t194/release/bl31/tegra_sdei.o
LOAD ./234-t194/tegra/t194/release/bl31/tegra_sip_calls.o
LOAD ./234-t194/tegra/t194/release/bl31/tegra_stack_protector.o
LOAD ./234-t194/tegra/t194/release/bl31/intf.o
LOAD ./234-t194/tegra/t194/release/bl31/ivc.o
LOAD ./234-t194/tegra/t194/release/bl31/gpcdma.o
LOAD ./234-t194/tegra/t194/release/bl31/memctrl_v2.o
LOAD ./234-t194/tegra/t194/release/bl31/smmu.o
LOAD ./234-t194/tegra/t194/release/bl31/profiler.o
LOAD ./234-t194/tegra/t194/release/bl31/mce.o
LOAD ./234-t194/tegra/t194/release/bl31/nvg.o
LOAD ./234-t194/tegra/t194/release/bl31/se.o
LOAD ./234-t194/tegra/t194/release/bl31/plat_memctrl.o
LOAD ./234-t194/tegra/t194/release/bl31/plat_psci_handlers.o
LOAD ./234-t194/tegra/t194/release/bl31/plat_ras.o
LOAD ./234-t194/tegra/t194/release/bl31/plat_secondary.o
LOAD ./234-t194/tegra/t194/release/bl31/plat_setup.o
LOAD ./234-t194/tegra/t194/release/bl31/plat_sip_calls.o
LOAD ./234-t194/tegra/t194/release/bl31/plat_smmu.o
LOAD ./234-t194/tegra/t194/release/bl31/arm_arch_svc_setup.o
LOAD ./234-t194/tegra/t194/release/bl31/opteed_common.o
LOAD ./234-t194/tegra/t194/release/bl31/opteed_main.o
LOAD ./234-t194/tegra/t194/release/bl31/opteed_pm.o
LOAD ./234-t194/tegra/t194/release/bl31/sdei_event.o
LOAD ./234-t194/tegra/t194/release/bl31/sdei_intr_mgmt.o
LOAD ./234-t194/tegra/t194/release/bl31/sdei_main.o
LOAD ./234-t194/tegra/t194/release/bl31/sdei_state.o
LOAD ./234-t194/tegra/t194/release/bl31/std_svc_setup.o
LOAD ./234-t194/tegra/t194/release/bl31/bl_common.o
LOAD ./234-t194/tegra/t194/release/bl31/tf_log.o
LOAD ./234-t194/tegra/t194/release/bl31/multi_console.o
LOAD ./234-t194/tegra/t194/release/bl31/plat_bl_common.o
LOAD ./234-t194/tegra/t194/release/bl31/plat_log_common.o
LOAD ./234-t194/tegra/t194/release/bl31/plat_common.o
LOAD ./234-t194/tegra/t194/release/bl31/popcountdi2.o
LOAD ./234-t194/tegra/t194/release/bl31/popcountsi2.o
LOAD ./234-t194/tegra/t194/release/bl31/stack_protector.o
LOAD ./234-t194/tegra/t194/release/bl31/xlat_tables_arch.o
LOAD ./234-t194/tegra/t194/release/bl31/xlat_tables_context.o
LOAD ./234-t194/tegra/t194/release/bl31/xlat_tables_core.o
LOAD ./234-t194/tegra/t194/release/bl31/xlat_tables_utils.o
LOAD ./234-t194/tegra/t194/release/bl31/bl31_entrypoint.o
LOAD ./234-t194/tegra/t194/release/bl31/crash_reporting.o
LOAD ./234-t194/tegra/t194/release/bl31/ea_delegate.o
LOAD ./234-t194/tegra/t194/release/bl31/runtime_exceptions.o
LOAD ./234-t194/tegra/t194/release/bl31/16550_console.o
LOAD ./234-t194/tegra/t194/release/bl31/cpu_helpers.o
LOAD ./234-t194/tegra/t194/release/bl31/denver.o
LOAD ./234-t194/tegra/t194/release/bl31/dsu_helpers.o
LOAD ./234-t194/tegra/t194/release/bl31/wa_cve_2017_5715_bpiall.o
LOAD ./234-t194/tegra/t194/release/bl31/wa_cve_2017_5715_mmu.o
LOAD ./234-t194/tegra/t194/release/bl31/context.o
LOAD ./234-t194/tegra/t194/release/bl31/cpu_data.o
LOAD ./234-t194/tegra/t194/release/bl31/spinlock.o
LOAD ./234-t194/tegra/t194/release/bl31/psci_helpers.o
LOAD ./234-t194/tegra/t194/release/bl31/crash_console_helpers.o
LOAD ./234-t194/tegra/t194/release/bl31/platform_mp_stack.o
LOAD ./234-t194/tegra/t194/release/bl31/tegra_helpers.o
LOAD ./234-t194/tegra/t194/release/bl31/shared_console.o
LOAD ./234-t194/tegra/t194/release/bl31/nvg_helpers.o
LOAD ./234-t194/tegra/t194/release/bl31/plat_trampoline.o
LOAD ./234-t194/tegra/t194/release/bl31/opteed_helpers.o
LOAD ./234-t194/tegra/t194/release/bl31/sdei_dispatch.o
LOAD ./234-t194/tegra/t194/release/bl31/debug.o
LOAD ./234-t194/tegra/t194/release/bl31/cache_helpers.o
LOAD ./234-t194/tegra/t194/release/bl31/misc_helpers.o
LOAD ./234-t194/tegra/t194/release/bl31/platform_helpers.o
LOAD ./234-t194/tegra/t194/release/bl31/asm_stack_protector.o
LOAD ./234-t194/tegra/t194/release/bl31/enable_mmu.o
LOAD ./234-t194/tegra/t194/release/lib/libc.a
OUTPUT(234-t194/tegra/t194/release/bl31/bl31.elf elf64-littleaarch64)

.comment        0x0000000000000000       0x1f
 .comment       0x0000000000000000       0x1f ./234-t194/tegra/t194/release/bl31/build_message.o
                                         0x20 (size before relaxing)
 .comment       0x000000000000001f       0x20 ./234-t194/tegra/t194/release/bl31/bl31_context_mgmt.o
 .comment       0x000000000000001f       0x20 ./234-t194/tegra/t194/release/bl31/bl31_main.o
 .comment       0x000000000000001f       0x20 ./234-t194/tegra/t194/release/bl31/ehf.o
 .comment       0x000000000000001f       0x20 ./234-t194/tegra/t194/release/bl31/interrupt_mgmt.o
 .comment       0x000000000000001f       0x20 ./234-t194/tegra/t194/release/bl31/runtime_svc.o
 .comment       0x000000000000001f       0x20 ./234-t194/tegra/t194/release/bl31/gicdv2_helpers.o
 .comment       0x000000000000001f       0x20 ./234-t194/tegra/t194/release/bl31/gicv2_helpers.o
 .comment       0x000000000000001f       0x20 ./234-t194/tegra/t194/release/bl31/gicv2_main.o
 .comment       0x000000000000001f       0x20 ./234-t194/tegra/t194/release/bl31/delay_timer.o
 .comment       0x000000000000001f       0x20 ./234-t194/tegra/t194/release/bl31/context_mgmt.o
 .comment       0x000000000000001f       0x20 ./234-t194/tegra/t194/release/bl31/cpu_data_array.o
 .comment       0x000000000000001f       0x20 ./234-t194/tegra/t194/release/bl31/ras_common.o
 .comment       0x000000000000001f       0x20 ./234-t194/tegra/t194/release/bl31/std_err_record.o
 .comment       0x000000000000001f       0x20 ./234-t194/tegra/t194/release/bl31/spe.o
 .comment       0x000000000000001f       0x20 ./234-t194/tegra/t194/release/bl31/sve.o
 .comment       0x000000000000001f       0x20 ./234-t194/tegra/t194/release/bl31/bakery_lock_normal.o
 .comment       0x000000000000001f       0x20 ./234-t194/tegra/t194/release/bl31/psci_common.o
 .comment       0x000000000000001f       0x20 ./234-t194/tegra/t194/release/bl31/psci_main.o
 .comment       0x000000000000001f       0x20 ./234-t194/tegra/t194/release/bl31/psci_mem_protect.o
 .comment       0x000000000000001f       0x20 ./234-t194/tegra/t194/release/bl31/psci_off.o
 .comment       0x000000000000001f       0x20 ./234-t194/tegra/t194/release/bl31/psci_on.o
 .comment       0x000000000000001f       0x20 ./234-t194/tegra/t194/release/bl31/psci_setup.o
 .comment       0x000000000000001f       0x20 ./234-t194/tegra/t194/release/bl31/psci_suspend.o
 .comment       0x000000000000001f       0x20 ./234-t194/tegra/t194/release/bl31/psci_system_off.o
 .comment       0x000000000000001f       0x20 ./234-t194/tegra/t194/release/bl31/plat_ehf.o
 .comment       0x000000000000001f       0x20 ./234-t194/tegra/t194/release/bl31/plat_gicv2.o
 .comment       0x000000000000001f       0x20 ./234-t194/tegra/t194/release/bl31/tegra_bl31_setup.o
 .comment       0x000000000000001f       0x20 ./234-t194/tegra/t194/release/bl31/tegra_delay_timer.o
 .comment       0x000000000000001f       0x20 ./234-t194/tegra/t194/release/bl31/tegra_fiq_glue.o
 .comment       0x000000000000001f       0x20 ./234-t194/tegra/t194/release/bl31/tegra_gicv2.o
 .comment       0x000000000000001f       0x20 ./234-t194/tegra/t194/release/bl31/tegra_platform.o
 .comment       0x000000000000001f       0x20 ./234-t194/tegra/t194/release/bl31/tegra_pm.o
 .comment       0x000000000000001f       0x20 ./234-t194/tegra/t194/release/bl31/tegra_sdei.o
 .comment       0x000000000000001f       0x20 ./234-t194/tegra/t194/release/bl31/tegra_sip_calls.o
 .comment       0x000000000000001f       0x20 ./234-t194/tegra/t194/release/bl31/tegra_stack_protector.o
 .comment       0x000000000000001f       0x20 ./234-t194/tegra/t194/release/bl31/intf.o
 .comment       0x000000000000001f       0x20 ./234-t194/tegra/t194/release/bl31/ivc.o
 .comment       0x000000000000001f       0x20 ./234-t194/tegra/t194/release/bl31/memctrl_v2.o
 .comment       0x000000000000001f       0x20 ./234-t194/tegra/t194/release/bl31/smmu.o
 .comment       0x000000000000001f       0x20 ./234-t194/tegra/t194/release/bl31/profiler.o
 .comment       0x000000000000001f       0x20 ./234-t194/tegra/t194/release/bl31/mce.o
 .comment       0x000000000000001f       0x20 ./234-t194/tegra/t194/release/bl31/nvg.o
 .comment       0x000000000000001f       0x20 ./234-t194/tegra/t194/release/bl31/se.o
 .comment       0x000000000000001f       0x20 ./234-t194/tegra/t194/release/bl31/plat_memctrl.o
 .comment       0x000000000000001f       0x20 ./234-t194/tegra/t194/release/bl31/plat_psci_handlers.o
 .comment       0x000000000000001f       0x20 ./234-t194/tegra/t194/release/bl31/plat_ras.o
 .comment       0x000000000000001f       0x20 ./234-t194/tegra/t194/release/bl31/plat_secondary.o
 .comment       0x000000000000001f       0x20 ./234-t194/tegra/t194/release/bl31/plat_setup.o
 .comment       0x000000000000001f       0x20 ./234-t194/tegra/t194/release/bl31/plat_sip_calls.o
 .comment       0x000000000000001f       0x20 ./234-t194/tegra/t194/release/bl31/plat_smmu.o
 .comment       0x000000000000001f       0x20 ./234-t194/tegra/t194/release/bl31/arm_arch_svc_setup.o
 .comment       0x000000000000001f       0x20 ./234-t194/tegra/t194/release/bl31/opteed_common.o
 .comment       0x000000000000001f       0x20 ./234-t194/tegra/t194/release/bl31/opteed_main.o
 .comment       0x000000000000001f       0x20 ./234-t194/tegra/t194/release/bl31/opteed_pm.o
 .comment       0x000000000000001f       0x20 ./234-t194/tegra/t194/release/bl31/sdei_event.o
 .comment       0x000000000000001f       0x20 ./234-t194/tegra/t194/release/bl31/sdei_intr_mgmt.o
 .comment       0x000000000000001f       0x20 ./234-t194/tegra/t194/release/bl31/sdei_main.o
 .comment       0x000000000000001f       0x20 ./234-t194/tegra/t194/release/bl31/sdei_state.o
 .comment       0x000000000000001f       0x20 ./234-t194/tegra/t194/release/bl31/std_svc_setup.o
 .comment       0x000000000000001f       0x20 ./234-t194/tegra/t194/release/bl31/bl_common.o
 .comment       0x000000000000001f       0x20 ./234-t194/tegra/t194/release/bl31/tf_log.o
 .comment       0x000000000000001f       0x20 ./234-t194/tegra/t194/release/bl31/multi_console.o
 .comment       0x000000000000001f       0x20 ./234-t194/tegra/t194/release/bl31/plat_log_common.o
 .comment       0x000000000000001f       0x20 ./234-t194/tegra/t194/release/bl31/plat_common.o
 .comment       0x000000000000001f       0x20 ./234-t194/tegra/t194/release/bl31/stack_protector.o
 .comment       0x000000000000001f       0x20 ./234-t194/tegra/t194/release/bl31/xlat_tables_arch.o
 .comment       0x000000000000001f       0x20 ./234-t194/tegra/t194/release/bl31/xlat_tables_context.o
 .comment       0x000000000000001f       0x20 ./234-t194/tegra/t194/release/bl31/xlat_tables_core.o
 .comment       0x000000000000001f       0x20 ./234-t194/tegra/t194/release/bl31/xlat_tables_utils.o
 .comment       0x000000000000001f       0x20 ./234-t194/tegra/t194/release/lib/libc.a(assert.o)
 .comment       0x000000000000001f       0x20 ./234-t194/tegra/t194/release/lib/libc.a(memcmp.o)
 .comment       0x000000000000001f       0x20 ./234-t194/tegra/t194/release/lib/libc.a(memcpy.o)
 .comment       0x000000000000001f       0x20 ./234-t194/tegra/t194/release/lib/libc.a(memmove.o)
 .comment       0x000000000000001f       0x20 ./234-t194/tegra/t194/release/lib/libc.a(memset.o)
 .comment       0x000000000000001f       0x20 ./234-t194/tegra/t194/release/lib/libc.a(printf.o)
 .comment       0x000000000000001f       0x20 ./234-t194/tegra/t194/release/lib/libc.a(putchar.o)
 .comment       0x000000000000001f       0x20 ./234-t194/tegra/t194/release/lib/libc.a(strlen.o)
 .comment       0x000000000000001f       0x20 ./234-t194/tegra/t194/release/lib/libc.a(snprintf.o)

.note.GNU-stack
                0x0000000000000000        0x0
 .note.GNU-stack
                0x0000000000000000        0x0 ./234-t194/tegra/t194/release/bl31/build_message.o
 .note.GNU-stack
                0x0000000000000000        0x0 ./234-t194/tegra/t194/release/bl31/bl31_context_mgmt.o
 .note.GNU-stack
                0x0000000000000000        0x0 ./234-t194/tegra/t194/release/bl31/bl31_main.o
 .note.GNU-stack
                0x0000000000000000        0x0 ./234-t194/tegra/t194/release/bl31/ehf.o
 .note.GNU-stack
                0x0000000000000000        0x0 ./234-t194/tegra/t194/release/bl31/interrupt_mgmt.o
 .note.GNU-stack
                0x0000000000000000        0x0 ./234-t194/tegra/t194/release/bl31/runtime_svc.o
 .note.GNU-stack
                0x0000000000000000        0x0 ./234-t194/tegra/t194/release/bl31/gicdv2_helpers.o
 .note.GNU-stack
                0x0000000000000000        0x0 ./234-t194/tegra/t194/release/bl31/gicv2_helpers.o
 .note.GNU-stack
                0x0000000000000000        0x0 ./234-t194/tegra/t194/release/bl31/gicv2_main.o
 .note.GNU-stack
                0x0000000000000000        0x0 ./234-t194/tegra/t194/release/bl31/delay_timer.o
 .note.GNU-stack
                0x0000000000000000        0x0 ./234-t194/tegra/t194/release/bl31/context_mgmt.o
 .note.GNU-stack
                0x0000000000000000        0x0 ./234-t194/tegra/t194/release/bl31/cpu_data_array.o
 .note.GNU-stack
                0x0000000000000000        0x0 ./234-t194/tegra/t194/release/bl31/ras_common.o
 .note.GNU-stack
                0x0000000000000000        0x0 ./234-t194/tegra/t194/release/bl31/std_err_record.o
 .note.GNU-stack
                0x0000000000000000        0x0 ./234-t194/tegra/t194/release/bl31/spe.o
 .note.GNU-stack
                0x0000000000000000        0x0 ./234-t194/tegra/t194/release/bl31/sve.o
 .note.GNU-stack
                0x0000000000000000        0x0 ./234-t194/tegra/t194/release/bl31/bakery_lock_normal.o
 .note.GNU-stack
                0x0000000000000000        0x0 ./234-t194/tegra/t194/release/bl31/psci_common.o
 .note.GNU-stack
                0x0000000000000000        0x0 ./234-t194/tegra/t194/release/bl31/psci_main.o
 .note.GNU-stack
                0x0000000000000000        0x0 ./234-t194/tegra/t194/release/bl31/psci_mem_protect.o
 .note.GNU-stack
                0x0000000000000000        0x0 ./234-t194/tegra/t194/release/bl31/psci_off.o
 .note.GNU-stack
                0x0000000000000000        0x0 ./234-t194/tegra/t194/release/bl31/psci_on.o
 .note.GNU-stack
                0x0000000000000000        0x0 ./234-t194/tegra/t194/release/bl31/psci_setup.o
 .note.GNU-stack
                0x0000000000000000        0x0 ./234-t194/tegra/t194/release/bl31/psci_suspend.o
 .note.GNU-stack
                0x0000000000000000        0x0 ./234-t194/tegra/t194/release/bl31/psci_system_off.o
 .note.GNU-stack
                0x0000000000000000        0x0 ./234-t194/tegra/t194/release/bl31/plat_ehf.o
 .note.GNU-stack
                0x0000000000000000        0x0 ./234-t194/tegra/t194/release/bl31/plat_gicv2.o
 .note.GNU-stack
                0x0000000000000000        0x0 ./234-t194/tegra/t194/release/bl31/tegra_bl31_setup.o
 .note.GNU-stack
                0x0000000000000000        0x0 ./234-t194/tegra/t194/release/bl31/tegra_delay_timer.o
 .note.GNU-stack
                0x0000000000000000        0x0 ./234-t194/tegra/t194/release/bl31/tegra_fiq_glue.o
 .note.GNU-stack
                0x0000000000000000        0x0 ./234-t194/tegra/t194/release/bl31/tegra_gicv2.o
 .note.GNU-stack
                0x0000000000000000        0x0 ./234-t194/tegra/t194/release/bl31/tegra_platform.o
 .note.GNU-stack
                0x0000000000000000        0x0 ./234-t194/tegra/t194/release/bl31/tegra_pm.o
 .note.GNU-stack
                0x0000000000000000        0x0 ./234-t194/tegra/t194/release/bl31/tegra_sdei.o
 .note.GNU-stack
                0x0000000000000000        0x0 ./234-t194/tegra/t194/release/bl31/tegra_sip_calls.o
 .note.GNU-stack
                0x0000000000000000        0x0 ./234-t194/tegra/t194/release/bl31/tegra_stack_protector.o
 .note.GNU-stack
                0x0000000000000000        0x0 ./234-t194/tegra/t194/release/bl31/intf.o
 .note.GNU-stack
                0x0000000000000000        0x0 ./234-t194/tegra/t194/release/bl31/ivc.o
 .note.GNU-stack
                0x0000000000000000        0x0 ./234-t194/tegra/t194/release/bl31/memctrl_v2.o
 .note.GNU-stack
                0x0000000000000000        0x0 ./234-t194/tegra/t194/release/bl31/smmu.o
 .note.GNU-stack
                0x0000000000000000        0x0 ./234-t194/tegra/t194/release/bl31/profiler.o
 .note.GNU-stack
                0x0000000000000000        0x0 ./234-t194/tegra/t194/release/bl31/mce.o
 .note.GNU-stack
                0x0000000000000000        0x0 ./234-t194/tegra/t194/release/bl31/nvg.o
 .note.GNU-stack
                0x0000000000000000        0x0 ./234-t194/tegra/t194/release/bl31/se.o
 .note.GNU-stack
                0x0000000000000000        0x0 ./234-t194/tegra/t194/release/bl31/plat_memctrl.o
 .note.GNU-stack
                0x0000000000000000        0x0 ./234-t194/tegra/t194/release/bl31/plat_psci_handlers.o
 .note.GNU-stack
                0x0000000000000000        0x0 ./234-t194/tegra/t194/release/bl31/plat_ras.o
 .note.GNU-stack
                0x0000000000000000        0x0 ./234-t194/tegra/t194/release/bl31/plat_secondary.o
 .note.GNU-stack
                0x0000000000000000        0x0 ./234-t194/tegra/t194/release/bl31/plat_setup.o
 .note.GNU-stack
                0x0000000000000000        0x0 ./234-t194/tegra/t194/release/bl31/plat_sip_calls.o
 .note.GNU-stack
                0x0000000000000000        0x0 ./234-t194/tegra/t194/release/bl31/plat_smmu.o
 .note.GNU-stack
                0x0000000000000000        0x0 ./234-t194/tegra/t194/release/bl31/arm_arch_svc_setup.o
 .note.GNU-stack
                0x0000000000000000        0x0 ./234-t194/tegra/t194/release/bl31/opteed_common.o
 .note.GNU-stack
                0x0000000000000000        0x0 ./234-t194/tegra/t194/release/bl31/opteed_main.o
 .note.GNU-stack
                0x0000000000000000        0x0 ./234-t194/tegra/t194/release/bl31/opteed_pm.o
 .note.GNU-stack
                0x0000000000000000        0x0 ./234-t194/tegra/t194/release/bl31/sdei_event.o
 .note.GNU-stack
                0x0000000000000000        0x0 ./234-t194/tegra/t194/release/bl31/sdei_intr_mgmt.o
 .note.GNU-stack
                0x0000000000000000        0x0 ./234-t194/tegra/t194/release/bl31/sdei_main.o
 .note.GNU-stack
                0x0000000000000000        0x0 ./234-t194/tegra/t194/release/bl31/sdei_state.o
 .note.GNU-stack
                0x0000000000000000        0x0 ./234-t194/tegra/t194/release/bl31/std_svc_setup.o
 .note.GNU-stack
                0x0000000000000000        0x0 ./234-t194/tegra/t194/release/bl31/bl_common.o
 .note.GNU-stack
                0x0000000000000000        0x0 ./234-t194/tegra/t194/release/bl31/tf_log.o
 .note.GNU-stack
                0x0000000000000000        0x0 ./234-t194/tegra/t194/release/bl31/multi_console.o
 .note.GNU-stack
                0x0000000000000000        0x0 ./234-t194/tegra/t194/release/bl31/plat_log_common.o
 .note.GNU-stack
                0x0000000000000000        0x0 ./234-t194/tegra/t194/release/bl31/plat_common.o
 .note.GNU-stack
                0x0000000000000000        0x0 ./234-t194/tegra/t194/release/bl31/stack_protector.o
 .note.GNU-stack
                0x0000000000000000        0x0 ./234-t194/tegra/t194/release/bl31/xlat_tables_arch.o
 .note.GNU-stack
                0x0000000000000000        0x0 ./234-t194/tegra/t194/release/bl31/xlat_tables_context.o
 .note.GNU-stack
                0x0000000000000000        0x0 ./234-t194/tegra/t194/release/bl31/xlat_tables_core.o
 .note.GNU-stack
                0x0000000000000000        0x0 ./234-t194/tegra/t194/release/bl31/xlat_tables_utils.o
 .note.GNU-stack
                0x0000000000000000        0x0 ./234-t194/tegra/t194/release/lib/libc.a(assert.o)
 .note.GNU-stack
                0x0000000000000000        0x0 ./234-t194/tegra/t194/release/lib/libc.a(memcmp.o)
 .note.GNU-stack
                0x0000000000000000        0x0 ./234-t194/tegra/t194/release/lib/libc.a(memcpy.o)
 .note.GNU-stack
                0x0000000000000000        0x0 ./234-t194/tegra/t194/release/lib/libc.a(memmove.o)
 .note.GNU-stack
                0x0000000000000000        0x0 ./234-t194/tegra/t194/release/lib/libc.a(memset.o)
 .note.GNU-stack
                0x0000000000000000        0x0 ./234-t194/tegra/t194/release/lib/libc.a(printf.o)
 .note.GNU-stack
                0x0000000000000000        0x0 ./234-t194/tegra/t194/release/lib/libc.a(putchar.o)
 .note.GNU-stack
                0x0000000000000000        0x0 ./234-t194/tegra/t194/release/lib/libc.a(strlen.o)
 .note.GNU-stack
                0x0000000000000000        0x0 ./234-t194/tegra/t194/release/lib/libc.a(snprintf.o)

.debug_frame    0x0000000000000000     0x1048
 .debug_frame   0x0000000000000000       0x40 ./234-t194/tegra/t194/release/bl31/bl31_entrypoint.o
 .debug_frame   0x0000000000000040       0xd0 ./234-t194/tegra/t194/release/bl31/crash_reporting.o
 .debug_frame   0x0000000000000110       0xa0 ./234-t194/tegra/t194/release/bl31/ea_delegate.o
 .debug_frame   0x00000000000001b0      0x1a8 ./234-t194/tegra/t194/release/bl31/runtime_exceptions.o
 .debug_frame   0x0000000000000358      0x130 ./234-t194/tegra/t194/release/bl31/cpu_helpers.o
 .debug_frame   0x0000000000000488      0x268 ./234-t194/tegra/t194/release/bl31/denver.o
 .debug_frame   0x00000000000006f0       0xa0 ./234-t194/tegra/t194/release/bl31/context.o
 .debug_frame   0x0000000000000790       0x40 ./234-t194/tegra/t194/release/bl31/cpu_data.o
 .debug_frame   0x00000000000007d0       0x40 ./234-t194/tegra/t194/release/bl31/spinlock.o
 .debug_frame   0x0000000000000810       0x58 ./234-t194/tegra/t194/release/bl31/psci_helpers.o
 .debug_frame   0x0000000000000868       0x58 ./234-t194/tegra/t194/release/bl31/crash_console_helpers.o
 .debug_frame   0x00000000000008c0       0x40 ./234-t194/tegra/t194/release/bl31/platform_mp_stack.o
 .debug_frame   0x0000000000000900       0xd0 ./234-t194/tegra/t194/release/bl31/tegra_helpers.o
 .debug_frame   0x00000000000009d0       0xa0 ./234-t194/tegra/t194/release/bl31/shared_console.o
 .debug_frame   0x0000000000000a70       0xa0 ./234-t194/tegra/t194/release/bl31/nvg_helpers.o
 .debug_frame   0x0000000000000b10       0x88 ./234-t194/tegra/t194/release/bl31/plat_trampoline.o
 .debug_frame   0x0000000000000b98       0x40 ./234-t194/tegra/t194/release/bl31/opteed_helpers.o
 .debug_frame   0x0000000000000bd8       0x28 ./234-t194/tegra/t194/release/bl31/sdei_dispatch.o
 .debug_frame   0x0000000000000c00       0x88 ./234-t194/tegra/t194/release/bl31/debug.o
 .debug_frame   0x0000000000000c88      0x100 ./234-t194/tegra/t194/release/bl31/cache_helpers.o
 .debug_frame   0x0000000000000d88      0x100 ./234-t194/tegra/t194/release/bl31/misc_helpers.o
 .debug_frame   0x0000000000000e88      0x100 ./234-t194/tegra/t194/release/bl31/platform_helpers.o
 .debug_frame   0x0000000000000f88       0x28 ./234-t194/tegra/t194/release/bl31/asm_stack_protector.o
 .debug_frame   0x0000000000000fb0       0x58 ./234-t194/tegra/t194/release/bl31/enable_mmu.o
 .debug_frame   0x0000000000001008       0x40 ./234-t194/tegra/t194/release/lib/libc.a(setjmp.o)
