
234-t194/tegra/t194/release/bl31/bl31.elf:     file format elf64-littleaarch64
234-t194/tegra/t194/release/bl31/bl31.elf
architecture: aarch64, flags 0x00000112:
EXEC_P, HAS_SYMS, D_PAGED
start address 0x0000000040000000

Program Header:
    LOAD off    0x0000000000010000 vaddr 0x0000000040000000 paddr 0x0000000040000000 align 2**16
         filesz 0x0000000000010000 memsz 0x0000000000010000 flags r-x
    LOAD off    0x0000000000020000 vaddr 0x0000000040010000 paddr 0x0000000040010000 align 2**16
         filesz 0x00000000000067c2 memsz 0x0000000000027000 flags rw-
   STACK off    0x0000000000000000 vaddr 0x0000000000000000 paddr 0x0000000000000000 align 2**4
         filesz 0x0000000000000000 memsz 0x0000000000000000 flags rw-
private flags = 0:

Sections:
Idx Name          Size      VMA               LMA               File off  Algn
  0 .text         00010000  0000000040000000  0000000040000000  00010000  2**11
                  CONTENTS, ALLOC, LOAD, READONLY, CODE
  1 .rodata       00006000  0000000040010000  0000000040010000  00020000  2**3
                  CONTENTS, ALLOC, LOAD, DATA
  2 .data         000007c2  0000000040016000  0000000040016000  00026000  2**4
                  CONTENTS, ALLOC, LOAD, DATA
  3 stacks        00002000  0000000040016800  0000000040016800  000267c2  2**6
                  ALLOC
  4 .bss          00005590  0000000040018800  0000000040018800  000267c2  2**6
                  ALLOC
  5 xlat_table    00019000  000000004001e000  000000004001e000  000267c2  2**12
                  ALLOC
  6 .comment      0000001f  0000000000000000  0000000000000000  000267c2  2**0
                  CONTENTS, READONLY
  7 .debug_frame  00001048  0000000000000000  0000000000000000  000267e8  2**3
                  CONTENTS, READONLY, DEBUGGING
SYMBOL TABLE:
0000000040000000 l    d  .text	0000000000000000 .text
0000000040010000 l    d  .rodata	0000000000000000 .rodata
0000000040016000 l    d  .data	0000000000000000 .data
0000000040016800 l    d  stacks	0000000000000000 stacks
0000000040018800 l    d  .bss	0000000000000000 .bss
000000004001e000 l    d  xlat_table	0000000000000000 xlat_table
0000000000000000 l    d  .comment	0000000000000000 .comment
0000000000000000 l    d  .debug_frame	0000000000000000 .debug_frame
0000000000000000 l    df *ABS*	0000000000000000 ./234-t194/tegra/t194/release/bl31/bl31_entrypoint.o
0000000000000000 l    df *ABS*	0000000000000000 ./234-t194/tegra/t194/release/bl31/tegra_helpers.o
0000000000000008 l       *ABS*	0000000000000000 CPU_MIDR_SIZE
0000000000000008 l       *ABS*	0000000000000000 CPU_EXTRA1_FUNC_SIZE
0000000000000008 l       *ABS*	0000000000000000 CPU_EXTRA2_FUNC_SIZE
0000000000000008 l       *ABS*	0000000000000000 CPU_EXTRA3_FUNC_SIZE
0000000000000008 l       *ABS*	0000000000000000 CPU_E_HANDLER_FUNC_SIZE
0000000000000008 l       *ABS*	0000000000000000 CPU_RESET_FUNC_SIZE
0000000000000010 l       *ABS*	0000000000000000 CPU_PWR_DWN_OPS_SIZE
0000000000000000 l       *ABS*	0000000000000000 CPU_ERRATA_FUNC_SIZE
0000000000000000 l       *ABS*	0000000000000000 CPU_ERRATA_LOCK_SIZE
0000000000000000 l       *ABS*	0000000000000000 CPU_ERRATA_PRINTED_SIZE
0000000000000008 l       *ABS*	0000000000000000 CPU_REG_DUMP_SIZE
0000000000000000 l       *ABS*	0000000000000000 CPU_MIDR
0000000000000008 l       *ABS*	0000000000000000 CPU_RESET_FUNC
0000000000000010 l       *ABS*	0000000000000000 CPU_EXTRA1_FUNC
0000000000000018 l       *ABS*	0000000000000000 CPU_EXTRA2_FUNC
0000000000000020 l       *ABS*	0000000000000000 CPU_EXTRA3_FUNC
0000000000000028 l       *ABS*	0000000000000000 CPU_E_HANDLER_FUNC
0000000000000030 l       *ABS*	0000000000000000 CPU_PWR_DWN_OPS
0000000000000040 l       *ABS*	0000000000000000 CPU_ERRATA_FUNC
0000000000000040 l       *ABS*	0000000000000000 CPU_ERRATA_LOCK
0000000000000040 l       *ABS*	0000000000000000 CPU_ERRATA_PRINTED
0000000000000040 l       *ABS*	0000000000000000 CPU_REG_DUMP
0000000000000048 l       *ABS*	0000000000000000 CPU_OPS_SIZE
0000000040001b7c l       .text	0000000000000000 _loop16
0000000040001b94 l       .text	0000000000000000 _loop1
0000000040001ba8 l       .text	0000000000000000 _end
0000000040000200 l       .text	0000000000000000 restore_oslock
0000000000000000 l    df *ABS*	0000000000000000 ./234-t194/tegra/t194/release/bl31/plat_trampoline.o
0000000040000288 l       .text	0000000000000000 boot_cpu
0000000040000254 l       .text	0000000000000000 m_loop16
000000004000026c l       .text	0000000000000000 m_loop1
00000000400002c0 l       .text	0000000000000000 __tegra194_mc_context
0000000000000000 l    df *ABS*	0000000000000000 plat_ras.c
0000000040000ab8 l     F .text	0000000000000008 IFU_err_ctrl
0000000040000ac8 l     F .text	0000000000000008 JSR_RET_err_ctrl
0000000040000ac0 l     F .text	0000000000000008 JSR_MTS_err_ctrl
0000000040000af4 l     F .text	0000000000000008 LSD_STQ_err_ctrl
0000000040000ae4 l     F .text	0000000000000008 LSD_DCC_err_ctrl
0000000040000ad0 l     F .text	000000000000000c L2_err_ctrl
0000000040000aa8 l     F .text	0000000000000008 CLUSTER_CLOCKS_err_ctrl
0000000040000adc l     F .text	0000000000000008 L3_err_ctrl
0000000040000aa0 l     F .text	0000000000000008 CCPMU_err_ctrl
0000000040000b0c l     F .text	0000000000000008 SCF_IOB_err_ctrl
0000000040000b14 l     F .text	0000000000000008 SCF_SNOC_err_ctrl
0000000040000b04 l     F .text	0000000000000008 SCF_CTU_err_ctrl
000000004000b608 l     F .text	0000000000000204 tegra194_ras_record_handler
000000004000b80c l     F .text	0000000000000044 tegra194_ras_record_probe
0000000040000ab0 l     F .text	0000000000000008 CMU_CLOCKS_err_ctrl
0000000040000aec l     F .text	0000000000000008 LSD_L1HPF_err_ctrl
0000000040000afc l     F .text	0000000000000008 MMU_err_ctrl
0000000040016120 l     O .data	00000000000002a0 carmel_ras_records
0000000040016480 l     O .data	0000000000000090 per_core_ras_group
0000000040016438 l     O .data	0000000000000048 per_cluster_ras_group
0000000040016510 l     O .data	0000000000000060 scf_l3_ras_group
00000000400163c0 l     O .data	0000000000000078 ccplex_ras_group
00000000400100f0 l     O .rodata	0000000000000070 CCPMU_uncorr_ras_errors
0000000040010670 l     O .rodata	00000000000000a0 SCF_IOB_uncorr_ras_errors
0000000040010710 l     O .rodata	00000000000000a0 SCF_SNOC_uncorr_ras_errors
00000000400105e0 l     O .rodata	0000000000000090 SCF_CTU_uncorr_ras_errors
0000000040010180 l     O .rodata	0000000000000090 CMU_CLOCKS_uncorr_ras_errors
00000000400102f0 l     O .rodata	0000000000000160 L2_uncorr_ras_errors
0000000040010160 l     O .rodata	0000000000000020 CLUSTER_CLOCKS_uncorr_ras_errors
00000000400105d0 l     O .rodata	0000000000000010 MMU_uncorr_ras_errors
0000000040010210 l     O .rodata	0000000000000010 IFU_uncorr_ras_errors
00000000400102a0 l     O .rodata	0000000000000050 JSR_RET_uncorr_ras_errors
0000000040010220 l     O .rodata	0000000000000080 JSR_MTS_uncorr_ras_errors
0000000040010570 l     O .rodata	0000000000000060 LSD_STQ_uncorr_ras_errors
00000000400104f0 l     O .rodata	0000000000000070 LSD_DCC_uncorr_ras_errors
0000000040010560 l     O .rodata	0000000000000010 LSD_L1HPF_uncorr_ras_errors
0000000040010450 l     O .rodata	00000000000000a0 L3_uncorr_ras_errors
000000004001db8a l     O .bss	0000000000000002 ras_handler_lock
0000000000000000 l    df *ABS*	0000000000000000 assert.c
0000000000000000 l    df *ABS*	0000000000000000 stack_protector.c
0000000000000000 l    df *ABS*	0000000000000000 arm_arch_svc_setup.c
0000000040000b54 l     F .text	00000000000001bc arm_arch_svc_smc_handler
0000000040015a88 l     O .rodata	0000000000000020 __svc_desc_arm_arch_svc
0000000000000000 l    df *ABS*	0000000000000000 ./234-t194/tegra/t194/release/bl31/cpu_data.o
0000000000000000 l    df *ABS*	0000000000000000 ./234-t194/tegra/t194/release/bl31/debug.o
000000004001598d l       .rodata	0000000000000000 panic_msg
0000000040001174 l       .text	0000000000000000 to_panic_common
0000000040001178 l       .text	0000000000000000 panic_common
00000000400011a0 l       .text	0000000000000000 _panic_handler
0000000000000000 l    df *ABS*	0000000000000000 ./234-t194/tegra/t194/release/bl31/sdei_dispatch.o
0000000000000000 l    df *ABS*	0000000000000000 ./234-t194/tegra/t194/release/bl31/platform_helpers.o
0000000000000000 l    df *ABS*	0000000000000000 ./234-t194/tegra/t194/release/bl31/denver.o
0000000000000008 l       *ABS*	0000000000000000 CPU_MIDR_SIZE
0000000000000008 l       *ABS*	0000000000000000 CPU_EXTRA1_FUNC_SIZE
0000000000000008 l       *ABS*	0000000000000000 CPU_EXTRA2_FUNC_SIZE
0000000000000008 l       *ABS*	0000000000000000 CPU_EXTRA3_FUNC_SIZE
0000000000000008 l       *ABS*	0000000000000000 CPU_E_HANDLER_FUNC_SIZE
0000000000000008 l       *ABS*	0000000000000000 CPU_RESET_FUNC_SIZE
0000000000000010 l       *ABS*	0000000000000000 CPU_PWR_DWN_OPS_SIZE
0000000000000000 l       *ABS*	0000000000000000 CPU_ERRATA_FUNC_SIZE
0000000000000000 l       *ABS*	0000000000000000 CPU_ERRATA_LOCK_SIZE
0000000000000000 l       *ABS*	0000000000000000 CPU_ERRATA_PRINTED_SIZE
0000000000000008 l       *ABS*	0000000000000000 CPU_REG_DUMP_SIZE
0000000000000000 l       *ABS*	0000000000000000 CPU_MIDR
0000000000000008 l       *ABS*	0000000000000000 CPU_RESET_FUNC
0000000000000010 l       *ABS*	0000000000000000 CPU_EXTRA1_FUNC
0000000000000018 l       *ABS*	0000000000000000 CPU_EXTRA2_FUNC
0000000000000020 l       *ABS*	0000000000000000 CPU_EXTRA3_FUNC
0000000000000028 l       *ABS*	0000000000000000 CPU_E_HANDLER_FUNC
0000000000000030 l       *ABS*	0000000000000000 CPU_PWR_DWN_OPS
0000000000000040 l       *ABS*	0000000000000000 CPU_ERRATA_FUNC
0000000000000040 l       *ABS*	0000000000000000 CPU_ERRATA_LOCK
0000000000000040 l       *ABS*	0000000000000000 CPU_ERRATA_PRINTED
0000000000000040 l       *ABS*	0000000000000000 CPU_REG_DUMP
0000000000000048 l       *ABS*	0000000000000000 CPU_OPS_SIZE
000000004000f800 l       .text	0000000000000000 workaround_bpflush_runtime_exceptions
000000004000f800 l     F .text	0000000000000000 workaround_bpflush_sync_exception_sp_el0
000000004000f880 l     F .text	0000000000000000 workaround_bpflush_irq_sp_el0
000000004000f900 l     F .text	0000000000000000 workaround_bpflush_fiq_sp_el0
000000004000f980 l     F .text	0000000000000000 workaround_bpflush_serror_sp_el0
000000004000fa00 l     F .text	0000000000000000 workaround_bpflush_sync_exception_sp_elx
000000004000fa80 l     F .text	0000000000000000 workaround_bpflush_irq_sp_elx
000000004000fb00 l     F .text	0000000000000000 workaround_bpflush_fiq_sp_elx
000000004000fb80 l     F .text	0000000000000000 workaround_bpflush_serror_sp_elx
000000004000fc00 l     F .text	0000000000000000 workaround_bpflush_sync_exception_aarch64
000000004000fc80 l     F .text	0000000000000000 workaround_bpflush_irq_aarch64
000000004000fd00 l     F .text	0000000000000000 workaround_bpflush_fiq_aarch64
000000004000fd80 l     F .text	0000000000000000 workaround_bpflush_serror_aarch64
000000004000fe00 l     F .text	0000000000000000 workaround_bpflush_sync_exception_aarch32
000000004000fe80 l     F .text	0000000000000000 workaround_bpflush_irq_aarch32
000000004000ff00 l     F .text	0000000000000000 workaround_bpflush_fiq_aarch32
000000004000ff80 l     F .text	0000000000000000 workaround_bpflush_serror_aarch32
0000000040001078 l     F .text	0000000000000014 denver_disable_ext_debug
000000004000108c l     F .text	0000000000000030 denver_enable_dco
0000000040000d98 l     F .text	000000000000001c check_errata_cve_2017_5715
00000000400010bc l     F .text	000000000000006c denver_reset_func
0000000040001014 l     F .text	000000000000000c denver_core_pwr_dwn
0000000040001010 l     F .text	0000000000000004 denver_cluster_pwr_dwn
0000000040015931 l       .rodata	0000000000000000 denver_regs
0000000040001020 l     F .text	000000000000000c denver_cpu_reg_dump
0000000000000000 l    df *ABS*	0000000000000000 ./234-t194/tegra/t194/release/bl31/cpu_helpers.o
0000000000000008 l       *ABS*	0000000000000000 CPU_MIDR_SIZE
0000000000000008 l       *ABS*	0000000000000000 CPU_EXTRA1_FUNC_SIZE
0000000000000008 l       *ABS*	0000000000000000 CPU_EXTRA2_FUNC_SIZE
0000000000000008 l       *ABS*	0000000000000000 CPU_EXTRA3_FUNC_SIZE
0000000000000008 l       *ABS*	0000000000000000 CPU_E_HANDLER_FUNC_SIZE
0000000000000008 l       *ABS*	0000000000000000 CPU_RESET_FUNC_SIZE
0000000000000010 l       *ABS*	0000000000000000 CPU_PWR_DWN_OPS_SIZE
0000000000000000 l       *ABS*	0000000000000000 CPU_ERRATA_FUNC_SIZE
0000000000000000 l       *ABS*	0000000000000000 CPU_ERRATA_LOCK_SIZE
0000000000000000 l       *ABS*	0000000000000000 CPU_ERRATA_PRINTED_SIZE
0000000000000008 l       *ABS*	0000000000000000 CPU_REG_DUMP_SIZE
0000000000000000 l       *ABS*	0000000000000000 CPU_MIDR
0000000000000008 l       *ABS*	0000000000000000 CPU_RESET_FUNC
0000000000000010 l       *ABS*	0000000000000000 CPU_EXTRA1_FUNC
0000000000000018 l       *ABS*	0000000000000000 CPU_EXTRA2_FUNC
0000000000000020 l       *ABS*	0000000000000000 CPU_EXTRA3_FUNC
0000000000000028 l       *ABS*	0000000000000000 CPU_E_HANDLER_FUNC
0000000000000030 l       *ABS*	0000000000000000 CPU_PWR_DWN_OPS
0000000000000040 l       *ABS*	0000000000000000 CPU_ERRATA_FUNC
0000000000000040 l       *ABS*	0000000000000000 CPU_ERRATA_LOCK
0000000000000040 l       *ABS*	0000000000000000 CPU_ERRATA_PRINTED
0000000000000040 l       *ABS*	0000000000000000 CPU_REG_DUMP
0000000000000048 l       *ABS*	0000000000000000 CPU_OPS_SIZE
0000000040001878 l       .text	0000000000000000 search_def_ptr
0000000000000000 l    df *ABS*	0000000000000000 ./234-t194/tegra/t194/release/bl31/cache_helpers.o
0000000040001824 l       .text	0000000000000000 exit_loop_civac
0000000040001810 l       .text	0000000000000000 loop_civac
0000000040000e78 l       .text	0000000000000000 exit_loop_cvac
0000000040000e64 l       .text	0000000000000000 loop_cvac
0000000040001904 l       .text	0000000000000000 exit_loop_ivac
00000000400018f0 l       .text	0000000000000000 loop_ivac
0000000000000000 l    df *ABS*	0000000000000000 ./234-t194/tegra/t194/release/bl31/shared_console.o
0000000040000fc0 l       .text	0000000000000000 register_fail
0000000040016630 l       .data	0000000000000000 spe_console_stack
0000000040000f30 l       .text	0000000000000000 putc_error
0000000040000ee8 l       .text	0000000000000000 not_eol
0000000000000000 l    df *ABS*	0000000000000000 ./234-t194/tegra/t194/release/bl31/crash_reporting.o
00000000400155d8 l       .rodata	0000000000000000 gicc_regs
00000000400155fa l       .rodata	0000000000000000 gicd_pend_reg
0000000040015636 l       .rodata	0000000000000000 newline
0000000040015638 l       .rodata	0000000000000000 spacer
000000004001563e l       .rodata	0000000000000000 print_spacer
0000000040015650 l       .rodata	0000000000000000 gp_regs
00000000400156bf l       .rodata	0000000000000000 el3_sys_regs
000000004001571c l       .rodata	0000000000000000 non_el3_sys_regs
0000000040015868 l       .rodata	0000000000000000 aarch32_regs
000000004001587f l       .rodata	0000000000000000 panic_msg
0000000040015891 l       .rodata	0000000000000000 excpt_msg
00000000400158b1 l       .rodata	0000000000000000 intr_excpt_msg
00000000400158d7 l       .rodata	0000000000000000 x30_msg
00000000400158db l       .rodata	0000000000000000 excpt_msg_el
0000000040001eb4 l     F .text	000000000000004c size_controlled_print
0000000040001ebc l       .text	0000000000000000 test_size_list
0000000040001ef8 l       .text	0000000000000000 exit_size_print
0000000040001d44 l     F .text	000000000000000c print_alignment
0000000040001fb4 l     F .text	0000000000000018 str_in_crash_buf_print
000000004000146c l       .text	0000000000000000 do_crash_reporting
0000000040001658 l       .text	0000000000000000 print_next
0000000040001684 l       .text	0000000000000000 print_x30
00000000400016e0 l       .text	0000000000000000 from_el1
00000000400016a8 l       .text	0000000000000000 test_pauth
00000000400016c8 l       .text	0000000000000000 no_pauth
00000000400014e4 l       .text	0000000000000000 print_el3_sys_regs
0000000040000fc8 l     F .text	0000000000000004 crash_panic
0000000000000000 l    df *ABS*	0000000000000000 ./234-t194/tegra/t194/release/bl31/ea_delegate.o
0000000000000008 l       *ABS*	0000000000000000 CPU_MIDR_SIZE
0000000000000008 l       *ABS*	0000000000000000 CPU_EXTRA1_FUNC_SIZE
0000000000000008 l       *ABS*	0000000000000000 CPU_EXTRA2_FUNC_SIZE
0000000000000008 l       *ABS*	0000000000000000 CPU_EXTRA3_FUNC_SIZE
0000000000000008 l       *ABS*	0000000000000000 CPU_E_HANDLER_FUNC_SIZE
0000000000000008 l       *ABS*	0000000000000000 CPU_RESET_FUNC_SIZE
0000000000000010 l       *ABS*	0000000000000000 CPU_PWR_DWN_OPS_SIZE
0000000000000000 l       *ABS*	0000000000000000 CPU_ERRATA_FUNC_SIZE
0000000000000000 l       *ABS*	0000000000000000 CPU_ERRATA_LOCK_SIZE
0000000000000000 l       *ABS*	0000000000000000 CPU_ERRATA_PRINTED_SIZE
0000000000000008 l       *ABS*	0000000000000000 CPU_REG_DUMP_SIZE
0000000000000000 l       *ABS*	0000000000000000 CPU_MIDR
0000000000000008 l       *ABS*	0000000000000000 CPU_RESET_FUNC
0000000000000010 l       *ABS*	0000000000000000 CPU_EXTRA1_FUNC
0000000000000018 l       *ABS*	0000000000000000 CPU_EXTRA2_FUNC
0000000000000020 l       *ABS*	0000000000000000 CPU_EXTRA3_FUNC
0000000000000028 l       *ABS*	0000000000000000 CPU_E_HANDLER_FUNC
0000000000000030 l       *ABS*	0000000000000000 CPU_PWR_DWN_OPS
0000000000000040 l       *ABS*	0000000000000000 CPU_ERRATA_FUNC
0000000000000040 l       *ABS*	0000000000000000 CPU_ERRATA_LOCK
0000000000000040 l       *ABS*	0000000000000000 CPU_ERRATA_PRINTED
0000000000000040 l       *ABS*	0000000000000000 CPU_REG_DUMP
0000000000000048 l       *ABS*	0000000000000000 CPU_OPS_SIZE
00000000400011a8 l     F .text	0000000000000098 ea_proceed
0000000040000ff0 l     F .text	0000000000000020 delegate_sync_ea
0000000040000fcc l     F .text	0000000000000024 delegate_async_ea
0000000000000000 l    df *ABS*	0000000000000000 ./234-t194/tegra/t194/release/bl31/context.o
0000000040001428 l       .text	0000000000000000 sve_not_enabled
0000000000000000 l    df *ABS*	0000000000000000 ./234-t194/tegra/t194/release/bl31/enable_mmu.o
0000000000000000 l    df *ABS*	0000000000000000 setjmp.o
0000000000000000 l    df *ABS*	0000000000000000 ./234-t194/tegra/t194/release/bl31/nvg_helpers.o
0000000000000000 l    df *ABS*	0000000000000000 ./234-t194/tegra/t194/release/bl31/opteed_helpers.o
0000000000000000 l    df *ABS*	0000000000000000 ./234-t194/tegra/t194/release/bl31/crash_console_helpers.o
00000000400167bc l       .data	0000000000000000 crash_console_spinlock
00000000400167c1 l       .data	0000000000000000 crash_console_triggered
00000000400165e8 l       .data	0000000000000000 crash_console_reg_stash
0000000040001a64 l       .text	0000000000000000 skip_spinlock
0000000040001a80 l       .text	0000000000000000 init_error
0000000040001aac l       .text	0000000000000000 putc_loop
0000000040001af8 l       .text	0000000000000000 putc_done
0000000040001af0 l       .text	0000000000000000 putc_continue
0000000040001ae4 l       .text	0000000000000000 putc
0000000040001a08 l       .text	0000000000000000 flush_loop
0000000040001a30 l       .text	0000000000000000 flush_done
0000000040001a28 l       .text	0000000000000000 flush_continue
0000000000000000 l    df *ABS*	0000000000000000 ./234-t194/tegra/t194/release/bl31/platform_mp_stack.o
0000000040016800 l       stacks	0000000000000000 platform_normal_stacks
0000000000000006 l       *ABS*	0000000000000000 TZ_COUNT
0000000000000000 l    df *ABS*	0000000000000000 ./234-t194/tegra/t194/release/bl31/psci_helpers.o
0000000000000000 l    df *ABS*	0000000000000000 ./234-t194/tegra/t194/release/bl31/runtime_exceptions.o
0000000040001f00 l       .text	0000000000000000 smc_handler32
0000000040001f04 l       .text	0000000000000000 smc_handler64
000000004000f4f0 l       .text	0000000000000000 interrupt_exit_irq_aarch64
000000004000f570 l       .text	0000000000000000 interrupt_exit_fiq_aarch64
000000004000f6f0 l       .text	0000000000000000 interrupt_exit_irq_aarch32
000000004000f770 l       .text	0000000000000000 interrupt_exit_fiq_aarch32
0000000040001f00 l     F .text	000000000000008c smc_handler
0000000040001f74 l       .text	0000000000000000 smc_prohibited
0000000040001f68 l       .text	0000000000000000 smc_unknown
0000000000000000 l    df *ABS*	0000000000000000 ./234-t194/tegra/t194/release/bl31/spinlock.o
0000000040001f94 l       .text	0000000000000000 l1
0000000040001f98 l       .text	0000000000000000 l2
0000000000000000 l    df *ABS*	0000000000000000 ./234-t194/tegra/t194/release/bl31/asm_stack_protector.o
0000000000000000 l    df *ABS*	0000000000000000 ./234-t194/tegra/t194/release/bl31/misc_helpers.o
0000000040002050 l     F .text	0000000000000114 zeromem_dczva
0000000000000000 l    df *ABS*	0000000000000000 bakery_lock_normal.c
0000000000000000 l    df *ABS*	0000000000000000 tegra_bl31_setup.c
000000004001b708 l     O .bss	0000000000000058 bl32_image_ep_info
000000004001b760 l     O .bss	0000000000000058 bl33_image_ep_info
0000000040016040 l     O .data	0000000000000038 plat_bl31_params_from_bl2
0000000000000000 l    df *ABS*	0000000000000000 bl31_main.c
000000004001b600 l     O .bss	0000000000000008 bl32_init
0000000040016638 l     O .data	0000000000000004 next_image_type
0000000040010000 l     O .rodata	0000000000000010 psci_args.3231
0000000000000000 l    df *ABS*	0000000000000000 profiler.c
000000004001c928 l     O .bss	0000000000000008 cur
000000004001c930 l     O .bss	0000000000000008 head
000000004001db64 l     O .bss	0000000000000001 is_shmem_buf_mapped
000000004001c938 l     O .bss	0000000000000008 shmem_base_addr
000000004001c940 l     O .bss	0000000000000008 tail
000000004001da50 l     O .bss	0000000000000004 tmr
0000000000000000 l    df *ABS*	0000000000000000 sdei_state.c
0000000040014dcd l     O .rodata	0000000000000050 sdei_state_table
0000000000000000 l    df *ABS*	0000000000000000 context_mgmt.c
0000000000000000 l    df *ABS*	0000000000000000 bl31_context_mgmt.c
0000000000000000 l    df *ABS*	0000000000000000 multi_console.c
0000000000000000 l    df *ABS*	0000000000000000 ehf.c
00000000400035d0 l     F .text	000000000000006c ehf_entering_normal_world
0000000040007214 l     F .text	000000000000006c pri_to_idx
00000000400034c8 l     F .text	0000000000000108 ehf_el3_interrupt_handler
000000004000363c l     F .text	0000000000000078 ehf_exited_normal_world
0000000000000000 l    df *ABS*	0000000000000000 xlat_tables_context.c
000000004001da70 l     O .bss	0000000000000064 tf_mapped_regions
000000004001d4f8 l     O .bss	00000000000004d8 tf_mmap
0000000040016578 l     O .data	0000000000000070 tf_xlat_ctx
000000004001e000 l     O xlat_table	0000000000019000 tf_xlat_tables
000000004001dd80 l     O .bss	0000000000000010 tf_base_xlat_table
0000000000000000 l    df *ABS*	0000000000000000 sdei_event.c
0000000000000000 l    df *ABS*	0000000000000000 interrupt_mgmt.c
000000004000af1c l     F .text	0000000000000084 set_scr_el3_from_rm
000000004001b608 l     O .bss	0000000000000060 intr_type_descs
0000000000000000 l    df *ABS*	0000000000000000 sdei_intr_mgmt.c
000000004000962c l     F .text	00000000000000d0 save_event_ctx
00000000400039f8 l     F .text	000000000000006c get_outstanding_dispatch
0000000040009480 l     F .text	0000000000000044 restore_and_resume_ns_context
000000004000a4f8 l     F .text	00000000000000f0 sdei_set_elr_spsr.isra.0
000000004001c998 l     O .bss	0000000000000b40 cpu_state
0000000000000000 l    df *ABS*	0000000000000000 gicdv2_helpers.c
0000000000000000 l    df *ABS*	0000000000000000 gicv2_main.c
000000004001b668 l     O .bss	0000000000000008 driver_data
000000004001d9d0 l     O .bss	0000000000000004 gic_lock
0000000000000000 l    df *ABS*	0000000000000000 gicv2_helpers.c
0000000000000000 l    df *ABS*	0000000000000000 xlat_tables_core.c
0000000040005594 l     F .text	0000000000000164 mmap_add_region_check
000000004000e9d8 l     F .text	0000000000000050 xlat_table_get_index
000000004000ecc4 l     F .text	000000000000020c xlat_tables_unmap_region
000000004000ea28 l     F .text	0000000000000298 xlat_tables_map_region
0000000000000000 l    df *ABS*	0000000000000000 xlat_tables_arch.c
0000000040010c08 l     O .rodata	000000000000001c pa_range_bits_arr
0000000000000000 l    df *ABS*	0000000000000000 ivc.c
0000000040004da4 l     F .text	000000000000002c ivc_advance_tx
0000000040004d78 l     F .text	000000000000002c ivc_advance_rx
0000000040004e3c l     F .text	0000000000000050 ivc_check_write
0000000040004e8c l     F .text	0000000000000020 ivc_frame_pointer.part.0
0000000040004dd0 l     F .text	000000000000006c ivc_check_read
0000000000000000 l    df *ABS*	0000000000000000 mce.c
0000000040004ff0 l     F .text	000000000000003c mce_firmware_not_supported
0000000040013044 l     O .rodata	0000000000000014 __func__.3569
0000000040013058 l     O .rodata	000000000000001b __func__.3596
0000000000000000 l    df *ABS*	0000000000000000 delay_timer.c
000000004001b670 l     O .bss	0000000000000008 timer_ops
0000000000000000 l    df *ABS*	0000000000000000 memcmp.c
0000000000000000 l    df *ABS*	0000000000000000 memcpy.c
0000000000000000 l    df *ABS*	0000000000000000 memmove.c
0000000000000000 l    df *ABS*	0000000000000000 memset.c
0000000000000000 l    df *ABS*	0000000000000000 nvg.c
0000000040013122 l     O .rodata	0000000000000010 __func__.3427
0000000040013132 l     O .rodata	0000000000000016 __func__.3432
0000000040013148 l     O .rodata	000000000000001b __func__.3437
0000000040013163 l     O .rodata	0000000000000011 __func__.3444
0000000000000000 l    df *ABS*	0000000000000000 opteed_pm.c
0000000040005de0 l     F .text	0000000000000004 opteed_cpu_on_handler
0000000040005c28 l     F .text	0000000000000008 opteed_cpu_migrate_info
0000000040006620 l     F .text	000000000000008c opteed_system_reset
0000000040006594 l     F .text	000000000000008c opteed_system_off
0000000040005de4 l     F .text	00000000000000c0 opteed_cpu_suspend_finish_handler
0000000040005ea4 l     F .text	00000000000000c0 opteed_cpu_suspend_handler
0000000040005c30 l     F .text	00000000000000b4 opteed_cpu_off_handler
0000000040005ce4 l     F .text	00000000000000fc opteed_cpu_on_finish_handler
0000000000000000 l    df *ABS*	0000000000000000 opteed_main.c
0000000040006214 l     F .text	0000000000000264 opteed_smc_handler
00000000400060bc l     F .text	00000000000000e0 opteed_sel1_interrupt_handler
000000004000619c l     F .text	0000000000000078 opteed_setup
0000000040005f64 l     F .text	0000000000000070 opteed_init
0000000040015aa8 l     O .rodata	0000000000000020 __svc_desc_opteed_std
0000000040015ac8 l     O .rodata	0000000000000020 __svc_desc_opteed_fast
0000000000000000 l    df *ABS*	0000000000000000 opteed_common.c
0000000000000000 l    df *ABS*	0000000000000000 plat_common.c
0000000000000000 l    df *ABS*	0000000000000000 plat_setup.c
000000004001c948 l     O .bss	0000000000000018 bpmp_ipc
000000004001c960 l     O .bss	0000000000000030 spe_console.3705
0000000040010b7c l     O .rodata	0000000000000048 t194_scr_settings
0000000040010bc4 l     O .rodata	0000000000000008 tegra194_interrupt_props
00000000400107c0 l     O .rodata	0000000000000320 tegra_mmap
000000004001467a l     O .rodata	0000000000000006 tegra_power_domain_tree_desc
0000000000000000 l    df *ABS*	0000000000000000 plat_smmu.c
0000000000000000 l    df *ABS*	0000000000000000 tegra_platform.c
000000004000bf6c l     F .text	00000000000000ac tegra_get_platform
0000000040012657 l     O .rodata	0000000000000007 CSWTCH.11
000000004001265e l     O .rodata	0000000000000009 CSWTCH.7
0000000000000000 l    df *ABS*	0000000000000000 tegra_stack_protector.c
0000000000000000 l    df *ABS*	0000000000000000 tegra_pm.c
000000004000c018 l     F .text	0000000000000014 tegra_get_sys_suspend_power_state
000000004000d9dc l     F .text	000000000000001c tegra_validate_ns_entrypoint
000000004000d9bc l     F .text	0000000000000010 tegra_system_reset
000000004000d9b0 l     F .text	000000000000000c tegra_system_off
000000004000c8f0 l     F .text	0000000000000038 tegra_pwr_domain_power_down_wfi
000000004000c884 l     F .text	000000000000006c tegra_pwr_domain_on_finish
000000004000c950 l     F .text	0000000000000004 tegra_pwr_domain_suspend_finish
000000004000c928 l     F .text	0000000000000028 tegra_pwr_domain_suspend
000000004000c86c l     F .text	0000000000000014 tegra_pwr_domain_off
000000004000c880 l     F .text	0000000000000004 tegra_pwr_domain_on
000000004000bd74 l     F .text	0000000000000048 tegra_cpu_standby
000000004000d9f8 l     F .text	0000000000000028 tegra_validate_power_state
0000000040016078 l     O .data	00000000000000a8 tegra_plat_psci_ops
00000000400126a9 l     O .rodata	0000000000000012 __func__.3428
0000000000000000 l    df *ABS*	0000000000000000 plat_gicv2.c
0000000000000000 l    df *ABS*	0000000000000000 plat_log_common.c
0000000040010b28 l     O .rodata	0000000000000028 plat_prefix_str
0000000000000000 l    df *ABS*	0000000000000000 plat_memctrl.c
0000000040016000 l     O .data	0000000000000018 tegra194_mc_context
0000000000000000 l    df *ABS*	0000000000000000 tegra_sdei.c
000000004001663c l     O .data	0000000000000140 tegra_sdei_private
000000004001677c l     O .data	000000000000003c tegra_sdei_shared
0000000000000000 l    df *ABS*	0000000000000000 plat_secondary.c
0000000000000000 l    df *ABS*	0000000000000000 plat_sip_calls.c
0000000000000000 l    df *ABS*	0000000000000000 bl_common.c
0000000000000000 l    df *ABS*	0000000000000000 printf.c
000000004000dc2c l     F .text	00000000000000fc unsigned_num_print
0000000000000000 l    df *ABS*	0000000000000000 psci_common.c
0000000040008694 l     F .text	0000000000000058 psci_set_req_local_pwr_state
000000004001db54 l     O .bss	0000000000000010 psci_req_local_pwr_states
0000000000000000 l    df *ABS*	0000000000000000 psci_main.c
0000000000000000 l    df *ABS*	0000000000000000 psci_setup.c
0000000040018e00 l     O .bss	0000000000001380 psci_ns_context
0000000000000000 l    df *ABS*	0000000000000000 psci_on.c
0000000000000000 l    df *ABS*	0000000000000000 psci_suspend.c
0000000000000000 l    df *ABS*	0000000000000000 psci_off.c
0000000000000000 l    df *ABS*	0000000000000000 psci_mem_protect.c
0000000000000000 l    df *ABS*	0000000000000000 psci_system_off.c
0000000000000000 l    df *ABS*	0000000000000000 putchar.c
0000000000000000 l    df *ABS*	0000000000000000 ras_common.c
0000000000000000 l    df *ABS*	0000000000000000 runtime_svc.c
0000000000000000 l    df *ABS*	0000000000000000 sdei_main.c
0000000040009a38 l     F .text	0000000000000068 sdei_cpu_on_init
00000000400096fc l     F .text	000000000000033c sdei_class_init
0000000040009aa0 l     F .text	0000000000000018 sdei_cpu_wakeup_init
0000000040009e38 l     F .text	000000000000012c sdei_event_unregister
0000000040009fac l     F .text	00000000000000a8 sdei_interrupt_release
000000004001da68 l     O .bss	0000000000000004 num_dyn_priv_slots
000000004001da6c l     O .bss	0000000000000004 num_dyn_shrd_slots
0000000000000000 l    df *ABS*	0000000000000000 std_err_record.c
0000000000000000 l    df *ABS*	0000000000000000 snprintf.c
000000004000dd28 l     F .text	0000000000000160 unsigned_num_print
0000000000000000 l    df *ABS*	0000000000000000 spe.c
000000004000b174 l     F .text	0000000000000030 spe_drain_buffers_hook
0000000000000000 l    df *ABS*	0000000000000000 std_svc_setup.c
000000004000b250 l     F .text	00000000000000e0 std_svc_smc_handler
000000004000b200 l     F .text	0000000000000050 std_svc_setup
0000000040015ae8 l     O .rodata	0000000000000020 __svc_desc_std_svc
0000000000000000 l    df *ABS*	0000000000000000 strlen.c
0000000000000000 l    df *ABS*	0000000000000000 sve.c
0000000000000000 l    df *ABS*	0000000000000000 intf.c
000000004000bcc0 l     F .text	0000000000000014 tegra_bpmp_ivc_notify
000000004000bb30 l     F .text	0000000000000190 tegra_bpmp_ipc_send_req_atomic
000000004001c8e0 l     O .bss	0000000000000028 ivc_ccplex_bpmp_channel
000000004001c908 l     O .bss	0000000000000010 s_channel
000000004001298d l     O .rodata	000000000000001e __func__.2500
00000000400129ab l     O .rodata	000000000000001f __func__.2547
00000000400129ca l     O .rodata	0000000000000014 __func__.2559
00000000400129de l     O .rodata	000000000000001c __func__.2575
00000000400129fa l     O .rodata	000000000000001d __func__.2581
0000000000000000 l    df *ABS*	0000000000000000 memctrl_v2.c
000000004000bcf0 l     F .text	0000000000000084 tegra_clear_videomem
000000004001c918 l     O .bss	0000000000000008 video_mem_base
000000004001c920 l     O .bss	0000000000000008 video_mem_size_mb
0000000000000000 l    df *ABS*	0000000000000000 tegra_delay_timer.c
000000004000d9cc l     F .text	0000000000000010 tegra_timer_get_value
000000004001b7b8 l     O .bss	0000000000000010 tegra_timer_ops.3274
0000000000000000 l    df *ABS*	0000000000000000 tegra_fiq_glue.c
000000004000beb8 l     F .text	0000000000000080 tegra_fiq_interrupt_handler
000000004001da2c l     O .bss	0000000000000004 fiq_handler_active
000000004001b7c8 l     O .bss	0000000000000080 fiq_state
000000004001b848 l     O .bss	0000000000000008 ns_fiq_handler_addr
0000000000000000 l    df *ABS*	0000000000000000 tegra_gicv2.c
000000004001b850 l     O .bss	0000000000000030 tegra_gic_data.3326
000000004001da30 l     O .bss	0000000000000020 tegra_target_masks
0000000000000000 l    df *ABS*	0000000000000000 se.c
000000004001da54 l     O .bss	0000000000000010 se_regs
00000000400132e2 l     O .rodata	000000000000001f __func__.2760
0000000040013301 l     O .rodata	0000000000000012 __func__.2770
0000000040013313 l     O .rodata	0000000000000028 __func__.2785
000000004001333b l     O .rodata	000000000000001f __func__.2835
000000004001335a l     O .rodata	0000000000000011 __func__.2840
0000000000000000 l    df *ABS*	0000000000000000 tegra_sip_calls.c
0000000040012760 l     O .rodata	0000000000000012 __func__.3091
0000000040015a68 l     O .rodata	0000000000000020 __svc_desc_tegra_sip_fast
0000000000000000 l    df *ABS*	0000000000000000 smmu.c
000000004000d104 l     F .text	0000000000000044 tegra_smmu_read_32
000000004000d294 l     F .text	0000000000000040 tegra_smmu_write_32
0000000040012f0d l     O .rodata	0000000000000012 __func__.3057
0000000000000000 l    df *ABS*	0000000000000000 plat_psci_handlers.c
0000000040018c00 l     O .bss	0000000000000200 t19x_percpu_data
0000000040013659 l     O .rodata	000000000000001f __func__.3994
0000000040013678 l     O .rodata	0000000000000018 __func__.4054
0000000000000000 l    df *ABS*	0000000000000000 tf_log.c
00000000400167b8 l     O .data	0000000000000004 max_log_level
0000000000000000 l    df *ABS*	0000000000000000 xlat_tables_utils.c
0000000000000000 l    df *ABS*	0000000000000000 plat_ehf.c
0000000000000000 l    df *ABS*	0000000000000000 
0000000040001908 g     F .text	0000000000000044 longjmp
0000000040001fe4 g     F .text	0000000000000010 tegra194_get_mc_ctx_offset
0000000040009268 g     F .text	000000000000002c putchar
000000004000c02c g     F .text	0000000000000004 tegra_gic_cpuif_deactivate
0000000040002c00 g     F .text	00000000000000f4 cm_prepare_el3_exit
00000000400032c4 g     F .text	000000000000003c console_set_scope
0000000040016620 g       .data	0000000000000000 tegra_bl31_phys_base
0000000040005134 g     F .text	000000000000003c mdelay
0000000040006da8 g     F .text	0000000000000014 plat_is_smccc_feature_available
000000004001dd80 g       .bss	0000000000000000 __PMF_TIMESTAMP_START__
0000000040006bb0  w    F .text	0000000000000030 plat_ic_get_pending_interrupt_type
00000000400029f4 g     F .text	0000000000000098 cm_el1_sysregs_context_restore
0000000040008410 g     F .text	000000000000005c psci_migrate_info_up_cpu
0000000040037000 g       xlat_table	0000000000000000 __BL31_END__
0000000040001e8c g     F .text	0000000000000028 setjmp
000000004000324c g     F .text	0000000000000078 console_register
00000000400077d4 g     F .text	0000000000000158 psci_cpu_suspend
0000000040003b68 g     F .text	000000000000000c gicd_set_icenabler
000000004000c818 g     F .text	000000000000001c tegra_platform_is_qt
0000000040001de8 g     F .text	0000000000000034 reset_handler
0000000040002db0 g     F .text	0000000000000044 cm_set_elr_spsr_el3
000000004000f600 g     F .text	0000000000000000 sync_exception_aarch32
0000000040002048 g     F .text	0000000000000008 zeromem
0000000040010c84 g     O .rodata	000000000000001c version_string
0000000040000d5c g     F .text	0000000000000008 asm_print_newline
0000000040015de8 g       .rodata	0000000000000000 __pubsub_psci_suspend_pwrdown_finish_end
0000000040008f50 g     F .text	00000000000000f4 psci_validate_entry_point
0000000040005280 g     F .text	000000000000003c mmap_add_ctx
0000000040007280 g     F .text	0000000000000004 print_entry_point_info
0000000040002b24 g     F .text	0000000000000034 cm_get_context
0000000040007284 g     F .text	0000000000000090 printf
0000000040005324 g     F .text	0000000000000208 mmap_add_dynamic_region_ctx
000000004001d4e0 g     O .bss	0000000000000018 mmu_cfg_params
000000004000ecc0 g     F .text	0000000000000004 xlat_tables_print
0000000040008594 g     F .text	0000000000000060 psci_release_pwr_domain_locks
00000000400019bc  w    F .text	0000000000000034 plat_core_pos_by_mpidr
0000000040009064 g     F .text	000000000000004c psci_validate_power_state
0000000040006a9c g     F .text	0000000000000020 plat_get_num_smmu_devices
0000000040016000 g       .rodata	0000000000000000 __RW_START__
0000000040001fcc g     F .text	0000000000000008 tegra194_get_cpu_reset_handler_base
0000000040006bf4  w    F .text	0000000000000010 plat_ic_is_ppi
0000000040003dc0 g     F .text	000000000000005c gicv2_cpuif_enable
000000004000c570 g     F .text	0000000000000004 tegra_memctrl_clear_pending_interrupts
0000000040004eac g     F .text	0000000000000004 mce_clear_hsm_corr_status
000000004000792c g     F .text	00000000000000ec psci_cpu_suspend_finish
0000000040009294 g     F .text	000000000000010c ras_ea_handler
000000004000d030 g     F .text	00000000000000d4 tegra_smmu_init
000000004000cce8 g     F .text	00000000000001fc tegra_se_suspend
00000000400052bc g     F .text	0000000000000068 mmap_add_dynamic_region
0000000040000d28 g     F .text	0000000000000004 asm_assert
0000000040005b44 g     F .text	000000000000000c nvg_system_reboot
0000000040002684 g     F .text	0000000000000038 bl31_plat_get_next_image_ep_info
0000000040005030 g     F .text	0000000000000004 mce_system_shutdown
0000000040001148 g     F .text	0000000000000060 do_panic
0000000040003e8c g     F .text	0000000000000088 gicv2_distif_init
000000004000b850 g     F .text	00000000000000ac tegra_bpmp_ipc_disable_clock
0000000040000d7c g     F .text	0000000000000018 begin_sdei_synchronous_dispatch
0000000040006a1c g     F .text	0000000000000024 plat_get_bl31_params
0000000040003c44 g     F .text	0000000000000014 gicd_write_icpendr
00000000400051c4 g     F .text	0000000000000034 memmove
000000004001dad4 g     O .bss	0000000000000080 rt_svc_descs_indices
0000000040003c7c g     F .text	0000000000000014 gicd_write_isenabler
0000000040007030 g     F .text	000000000000008c plat_setup_psci_ops
000000004000f200 g     F .text	0000000000000000 sync_exception_sp_elx
0000000040003c90 g     F .text	0000000000000014 gicd_write_ispendr
000000004000afa0 g     F .text	0000000000000130 setup_mmu_cfg
000000004000f000 g     F .text	0000000000000000 sync_exception_sp_el0
0000000040005ba4 g     F .text	0000000000000048 nvg_update_cstate_info
000000004000b0d0 g     F .text	00000000000000a4 snprintf
0000000040001d8c g     F .text	000000000000000c psci_power_down_wfi
0000000040006c90  w    F .text	0000000000000004 plat_ic_set_interrupt_priority
000000004000c08c g     F .text	0000000000000044 tegra_gic_setup
0000000040005884 g     F .text	0000000000000168 mmap_remove_dynamic_region_ctx
000000004000187c g     F .text	000000000000000c handle_lower_el_ea_esb
0000000040007380 g     F .text	0000000000000058 psci_affinity_info
0000000040016570 g     O .data	0000000000000008 __stack_chk_guard
00000000400027b8 g     F .text	000000000000000c bl31_register_bl32_init
000000004000c360 g     F .text	0000000000000038 tegra_ivc_total_queue_size
0000000040006dd4  w    F .text	0000000000000030 plat_log_get_prefix
00000000400082e4 g     F .text	00000000000000e0 psci_migrate
0000000040006be4 g     F .text	0000000000000010 plat_ic_has_interrupt_type
000000004000c62c g     F .text	0000000000000004 tegra_memctrl_setup
000000004001b880 g     O .bss	0000000000001000 sdei_private_event_table
0000000040010c66 g     O .rodata	000000000000001e build_message
00000000400028b8 g     F .text	0000000000000064 boot_profiler_deinit
00000000400013d8 g     F .text	000000000000006c el3_exit
00000000400086ec g     F .text	0000000000000440 psci_setup
0000000040002cf4 g     F .text	0000000000000034 cm_set_context
0000000040004a28 g     F .text	0000000000000078 init_xlat_tables
00000000400002a0 g     O .text	00000000000007f8 __tegra194_cpu_reset_handler_data
00000000400026bc g     F .text	0000000000000020 bl31_plat_runtime_setup
0000000040016000 g       .data	0000000000000000 __DATA_START__
0000000040004824 g     F .text	0000000000000068 gicv2_set_pmr
000000004001db80 g     O .bss	000000000000000a psci_locks
00000000400059f8 g     F .text	000000000000000c nvg_enable_strict_checking_mode
000000004000c314 g     F .text	000000000000004c tegra_ivc_read_get_next_frame
000000004000d470 g     F .text	0000000000000018 tegra_soc_prepare_system_reset
000000004000c850 g     F .text	000000000000001c tegra_platform_is_virt_dev_kit
000000004000c0dc g     F .text	00000000000000c0 tegra_ivc_channel_notified
000000004000c2b0 g     F .text	0000000000000064 tegra_ivc_read_advance
0000000040007fcc g     F .text	0000000000000034 psci_find_target_suspend_lvl
000000004000e760 g     F .text	0000000000000040 xlat_arch_regime_get_xn_desc
0000000040003c04 g     F .text	000000000000000c gicd_set_isenabler
00000000400073d8 g     F .text	000000000000001c psci_arch_setup
0000000040000dfc g     F .text	0000000000000048 check_wa_cve_2017_5715
0000000040002034 g     F .text	0000000000000014 update_stack_protector_canary
0000000040005b50 g     F .text	000000000000000c nvg_system_shutdown
0000000040001954 g     F .text	0000000000000008 nvg_get_result
0000000040008d30 g     F .text	0000000000000064 psci_system_reset
000000004000498c g     F .text	000000000000009c gicv2_spis_configure_defaults
0000000040003bf0 g     F .text	0000000000000014 gicd_set_ipriorityr
00000000400051a4 g     F .text	0000000000000020 memcpy
000000004000c398 g     F .text	0000000000000060 tegra_ivc_write_advance
00000000400100d0 g     O .rodata	0000000000000020 sdei_global_mappings
0000000040003958 g     F .text	000000000000007c get_event_entry
0000000040009044 g     F .text	0000000000000020 psci_validate_mpidr
0000000040008e58 g     F .text	00000000000000f8 psci_system_suspend
000000004000f380 g     F .text	0000000000000000 serror_sp_elx
0000000040002ba0 g     F .text	0000000000000030 cm_init_context_by_index
000000004000c7dc g     F .text	000000000000001c tegra_platform_is_fpga
000000004000194c g     F .text	0000000000000008 nvg_cache_inval_all
000000004000f080 g     F .text	0000000000000000 irq_sp_el0
0000000040002050 g     F .text	0000000000000114 zero_normalmem
000000004000d364 g     F .text	00000000000000f8 tegra_soc_get_target_pwr_state
0000000040008000 g     F .text	0000000000000048 psci_get_parent_pwr_domain_nodes
0000000040006e78 g     F .text	0000000000000018 plat_runtime_setup
0000000040000e9c g     F .text	00000000000000a8 console_spe_core_putc
0000000040015de8 g     O .rodata	0000000000000008 __cb_func_spe_drain_buffers_hookcm_entering_secure_world
00000000400066b4 g     F .text	00000000000000c0 plat_ea_handler
00000000400033ec g     F .text	00000000000000dc ehf_deactivate_priority
0000000040004150 g     F .text	0000000000000054 gicv2_get_pending_interrupt_type
0000000040008ccc g     F .text	0000000000000064 psci_system_off
0000000040001c74 g     F .text	0000000000000008 platform_mem_init
000000004000d53c g     F .text	00000000000001b4 tegra_soc_pwr_domain_on_finish
0000000040003c1c g     F .text	0000000000000014 gicd_write_icenabler
0000000040006b7c  w    F .text	0000000000000004 plat_ic_get_interrupt_active
000000004000c958 g     F .text	00000000000002e8 tegra_se_calculate_save_sha256
000000004000e2a4 g     F .text	0000000000000428 vsnprintf
0000000040006a40 g     F .text	0000000000000024 plat_get_bl31_plat_params
0000000040015df0 g       .rodata	0000000000000000 __pubsub_cm_exited_secure_world_end
0000000040005270 g     F .text	0000000000000010 mmap_add
0000000040000130 g     F .text	000000000000009c bl31_warm_entrypoint
0000000040006b34 g     F .text	000000000000000c plat_get_syscnt_freq2
0000000040001b54  w    F .text	0000000000000008 plat_panic_handler
00000000400002b0 g       .text	0000000000000000 __tegra194_system_suspend_state
0000000040015a68 g       .rodata	0000000000000000 __RT_SVC_DESCS_START__
0000000040018800 g       stacks	0000000000000000 __STACKS_END__
0000000040015de0 g       .rodata	0000000000000000 __pubsub_psci_suspend_pwrdown_start_end
0000000040000db4 g     F .text	0000000000000048 check_smccc_arch_wa3_applies
0000000040000f5c g     F .text	000000000000006c console_spe_register
000000004001dbc0 g       .bss	0000000000000000 __PERCPU_BAKERY_LOCK_END__
0000000040000e44 g     F .text	0000000000000038 clean_dcache_range
0000000040001c7c g     F .text	000000000000004c prepare_cpu_pwr_dwn
0000000040003c10 g     F .text	000000000000000c gicd_set_ispendr
0000000040009c10 g     F .text	00000000000001ac sdei_event_complete
00000000400066ac  w    F .text	0000000000000008 plat_arm_set_twedel_scr_el3
0000000040000e7c g     F .text	0000000000000020 console_spe_core_flush
0000000040005fd4 g     F .text	00000000000000e8 opteed_init_optee_ep_state
0000000040001964 g     F .text	000000000000000c nvg_set_request_data
00000000400038d4 g     F .text	000000000000004c find_event_map_by_intr
0000000040001e1c g     F .text	0000000000000070 restore_gp_pmcr_pauth_regs
000000004000cee4 g     F .text	000000000000014c tegra_sip_handler
000000004000c954 g     F .text	0000000000000004 tegra_pwr_domain_suspend_pwrdown_early
0000000040009150 g     F .text	0000000000000118 psci_warmboot_entrypoint
0000000040004eb0 g     F .text	00000000000000c0 mce_command_handler
0000000040015df8 g       .rodata	0000000000000000 __pubsub_cm_exited_normal_world_start
0000000040005ae8 g     F .text	0000000000000050 nvg_roc_clean_cache_trbits
0000000040001c64  w    F .text	0000000000000010 plat_set_my_stack
0000000040005a04 g     F .text	0000000000000068 nvg_enter_cstate
0000000040002d28 g     F .text	0000000000000048 cm_set_context_by_index
00000000400070bc g     F .text	0000000000000150 plat_sip_handler
0000000040015b08 g       .rodata	0000000000000000 __RT_SVC_DESCS_END__
000000004000c574 g     F .text	0000000000000004 tegra_memctrl_disable_ahb_redirection
0000000040006d44  w    F .text	0000000000000064 plat_interrupt_type_to_line
00000000400023a4 g     F .text	0000000000000080 bl31_check_ns_address
0000000040002a8c g     F .text	0000000000000098 cm_el1_sysregs_context_save
0000000040005bec g     F .text	000000000000003c nvg_verify_strict_checking_mode
0000000040000d2c g     F .text	0000000000000030 asm_print_hex
00000000400025b8 g     F .text	00000000000000cc bl31_plat_arch_setup
0000000040002550 g     F .text	0000000000000068 bl31_main
0000000040006e94 g     F .text	0000000000000004 plat_sdei_setup
000000004001b678 g     O .bss	0000000000000080 psci_cpu_pd_nodes
0000000040006be0  w    F .text	0000000000000004 plat_ic_get_running_priority
0000000040000d64 g     F .text	0000000000000018 asm_print_str
000000004000720c g     F .text	0000000000000008 plat_supports_system_suspend
0000000040006c94  w    F .text	0000000000000040 plat_ic_set_interrupt_type
0000000040006510 g     F .text	0000000000000084 opteed_synchronous_sp_exit
0000000040000b44 g     F .text	0000000000000010 __stack_chk_fail
0000000040000d94  w    F .text	0000000000000004 bl31_plat_enable_mmu
0000000040006e20 g     F .text	0000000000000018 plat_memctrl_setup
0000000040002b9c g     F .text	0000000000000004 cm_init
00000000400019f0 g     F .text	0000000000000054 plat_crash_console_flush
000000004000f000 g       .text	0000000000000000 runtime_exceptions
0000000040004f70 g     F .text	0000000000000080 mce_enable_strict_checking
00000000400041a4 g     F .text	0000000000000050 gicv2_get_running_priority
0000000040001b40  w    F .text	0000000000000004 plat_handle_uncontainable_ea
000000004001c880 g     O .bss	0000000000000060 sdei_shared_event_table
0000000040002d70 g     F .text	0000000000000040 cm_set_elr_el3
000000004000bf58 g     F .text	0000000000000014 tegra_get_chipid_minor
0000000040015df0 g       .rodata	0000000000000000 __pubsub_cm_exited_secure_world_start
0000000040008c78 g     F .text	0000000000000054 psci_spd_migrate_info
0000000040000d10 g     F .text	0000000000000018 _cpu_data_by_index
00000000400084f8 g     F .text	0000000000000004 psci_print_power_domain_map
0000000040006b40 g     F .text	0000000000000004 plat_get_target_pwr_state
000000004000c638 g     F .text	00000000000001a4 tegra_memctrl_videomem_setup
00000000400031b0 g     F .text	000000000000009c console_putc
0000000040010ae0 g     O .rodata	0000000000000048 opteed_pm
0000000040006e98  w    F .text	0000000000000008 plat_sdei_validate_entry_point
000000004000adac g     F .text	00000000000000d0 ser_probe_sysreg
0000000040003cf4 g     F .text	0000000000000070 gicv2_clear_interrupt_pending
0000000040003c30 g     F .text	0000000000000014 gicd_write_icfgr
0000000040001b3c  w    F .text	0000000000000004 plat_handle_el3_ea
0000000040016628 g       .data	0000000000000000 tegra_console_base
000000004000291c g     F .text	000000000000006c boot_profiler_init
0000000040008130 g     F .text	0000000000000094 psci_is_last_on_cpu
0000000040001a44 g     F .text	0000000000000048 plat_crash_console_init
000000004000c1b4 g     F .text	00000000000000fc tegra_ivc_init
000000004000f680 g     F .text	0000000000000000 irq_aarch32
00000000400017f0 g     F .text	0000000000000038 flush_dcache_range
000000004000c440 g     F .text	0000000000000130 tegra_mc_save_context
0000000040001970 g     F .text	0000000000000028 opteed_enter_sp
0000000040006774 g     F .text	0000000000000258 plat_early_platform_setup
000000004000db2c g     F .text	0000000000000048 timer_init
0000000040002424 g     F .text	0000000000000120 bl31_early_platform_setup2
000000004000c050 g     F .text	000000000000001c tegra_gic_pcpu_init
000000004000c030 g     F .text	0000000000000020 tegra_gic_init
00000000400043a0 g     F .text	0000000000000124 gicv2_secure_ppi_sgi_setup_props
0000000040015b08 g       .rodata	0000000000000000 __PMF_SVC_DESCS_END__
000000004000e9b8 g     F .text	000000000000001c xlat_get_min_virt_addr_space_size
00000000400167c8 g       .data	0000000000000000 __RELA_END__
0000000040000f54 g     F .text	0000000000000008 console_spe_putc
00000000400167c8 g       .data	0000000000000000 __RELA_START__
000000004000102c g     F .text	000000000000004c denver_disable_dco
0000000040003bb4 g     F .text	000000000000000c gicd_set_icpendr
00000000400059ec g     F .text	000000000000000c nvg_clear_hsm_corr_status
000000004000f180 g     F .text	0000000000000000 serror_sp_el0
000000004000476c g     F .text	00000000000000b8 gicv2_set_pe_target_mask
0000000040016618 g       .data	0000000000000000 ns_image_entrypoint
000000004000de88 g     F .text	000000000000041c vprintf
000000004000408c g     F .text	000000000000000c gicv2_get_cpuif_id
000000004000ae7c g     F .text	00000000000000a0 set_routing_model
0000000040004cc0 g     F .text	000000000000000c is_dcache_enabled
0000000040001d98 g     F .text	0000000000000028 report_unhandled_exception
00000000400074b4 g     F .text	00000000000000fc psci_cpu_on_finish
00000000400073f4 g     F .text	0000000000000038 psci_cpu_off
000000004000374c g     F .text	00000000000000d8 ehf_register_priority_handler
0000000040006b80 g     F .text	0000000000000010 plat_ic_get_interrupt_id
0000000040001b5c g     F .text	0000000000000108 plat_reset_handler
000000004000a3d8 g     F .text	0000000000000120 sdei_pe_unmask
00000000400016ec g     F .text	0000000000000070 enable_mmu_direct_el3
0000000040015df8 g       .rodata	0000000000000000 __pubsub_cm_entering_normal_world_end
0000000040001828 g     F .text	0000000000000054 get_cpu_ops_ptr
0000000040000000 g     F .text	0000000000000130 bl31_entrypoint
0000000040002b58 g     F .text	0000000000000044 cm_get_context_by_index
0000000040006b6c g     F .text	0000000000000004 plat_ic_clear_interrupt_pending
000000004000d7e8 g     F .text	0000000000000130 tegra_soc_pwr_domain_suspend
0000000040002bd0 g     F .text	0000000000000030 cm_init_my_context
000000004000f580 g     F .text	0000000000000000 serror_aarch64
0000000040006cd4 g     F .text	0000000000000004 plat_ic_set_priority_mask
000000004000d4dc g     F .text	0000000000000060 tegra_soc_pwr_domain_on
0000000040006b68  w    F .text	0000000000000004 plat_ic_acknowledge_interrupt
0000000040001888 g     F .text	0000000000000014 init_cpu_data_ptr
0000000040006a90 g     F .text	000000000000000c plat_get_mmio_map
00000000400100c0 g     O .rodata	0000000000000010 exception_data
0000000040016000 g       .rodata	0000000000000000 __RODATA_END__
0000000040001778 g     F .text	0000000000000078 enter_lower_el_sync_ea
0000000040000210 g     F .text	0000000000000084 tegra194_cpu_reset_handler
000000004000e6cc g     F .text	0000000000000034 xlat_arch_current_el
0000000040003d64 g     F .text	000000000000005c gicv2_cpuif_disable
0000000000000040 g       *ABS*	0000000000000000 __PERCPU_BAKERY_LOCK_SIZE__
00000000400041f4 g     F .text	0000000000000054 gicv2_is_fiq_enabled
0000000040003b2c g     F .text	0000000000000014 gicd_read_icfgr
000000004000e74c g     F .text	0000000000000014 xlat_arch_get_pas
0000000040002988 g     F .text	000000000000006c can_sdei_state_trans
000000004000b1f0 g     F .text	0000000000000010 spe_supported
0000000040007c20 g     F .text	0000000000000158 psci_do_cpu_off
000000004001da28 g     O .bss	0000000000000004 psci_caps
0000000040015dd8 g     O .rodata	0000000000000008 __cb_func_sdei_cpu_on_initpsci_cpu_on_finish
0000000040006b90  w    F .text	0000000000000020 plat_ic_get_interrupt_type
0000000040001128 g     F .text	0000000000000020 do_cpu_reg_dump
000000004000d6f0 g     F .text	00000000000000f8 tegra_soc_pwr_domain_power_down_wfi
0000000040002e50 g     F .text	0000000000000228 cm_setup_context
0000000040000f4c g     F .text	0000000000000008 console_spe_getc
000000004000c3f8 g     F .text	0000000000000048 tegra_ivc_write_get_next_frame
0000000040000000 g       .text	0000000000000000 __BL31_START__
000000004000f280 g     F .text	0000000000000000 irq_sp_elx
000000004001dd80 g       .bss	0000000000000000 __PMF_PERCPU_TIMESTAMP_END__
000000004000f100 g     F .text	0000000000000000 fiq_sp_el0
0000000040010000 g       .rodata	0000000000000000 __RODATA_START__
000000004000386c g     F .text	0000000000000068 find_event_map
0000000040015de0 g     O .rodata	0000000000000008 __cb_func_sdei_cpu_wakeup_initpsci_suspend_pwrdown_finish
00000000400167c2 g       .data	0000000000000000 __DATA_END__
0000000040000d30 g       .text	0000000000000000 asm_print_hex_bits
0000000040015b08 g       .rodata	0000000000000000 __CPU_OPS_START__
000000004000db74 g     F .text	00000000000000b8 udelay
0000000040006b74  w    F .text	0000000000000004 plat_ic_enable_interrupt
000000004000b3a4 g     F .text	0000000000000074 tcr_physical_addr_size_bits
00000000400018d0 g     F .text	0000000000000038 inv_dcache_range
00000000400167c0 g     O .data	0000000000000001 console_state
0000000040006dbc g     F .text	0000000000000018 plat_late_platform_setup
0000000040008b2c g     F .text	000000000000014c psci_smc_handler
0000000040007a18 g     F .text	0000000000000208 psci_cpu_suspend_start
00000000400080d8 g     F .text	0000000000000058 psci_init_req_local_pwr_states
0000000040015df0 g       .rodata	0000000000000000 __pubsub_cm_entering_secure_world_end
0000000040005a84 g     F .text	000000000000001c nvg_is_sc7_allowed
000000004000cc40 g     F .text	00000000000000a8 tegra_se_resume
000000004000a394 g     F .text	0000000000000044 sdei_pe_mask
000000004001dd80 g       .bss	0000000000000000 __BAKERY_LOCK_END__
0000000040006cd8  w    F .text	000000000000006c plat_ic_set_spi_routing
0000000040005170 g     F .text	0000000000000034 memcmp
000000004000a5e8 g     F .text	00000000000007c4 sdei_smc_handler
00000000400075b0 g     F .text	0000000000000224 psci_cpu_on_start
0000000040007f80 g     F .text	000000000000004c psci_find_max_off_lvl
000000004000e86c g     F .text	000000000000014c xlat_desc
0000000040015df8 g     O .rodata	0000000000000008 __cb_func_ehf_exited_normal_worldcm_exited_normal_world
0000000040003b74 g     F .text	0000000000000040 gicd_set_icfgr
000000004001d9d4 g     O .bss	0000000000000050 psci_non_cpu_pd_nodes
0000000040001634 g     F .text	00000000000000b8 elx_panic
000000004001dd90 g       .bss	0000000000000000 __BSS_END__
0000000040015dd8 g       .rodata	0000000000000000 __CPU_OPS_END__
0000000040006e38 g     F .text	0000000000000040 plat_memctrl_tzdram_setup
0000000040006b70  w    F .text	0000000000000004 plat_ic_disable_interrupt
0000000040007d78 g     F .text	0000000000000004 psci_do_pwrdown_sequence
0000000040001d50 g     F .text	000000000000003c psci_do_pwrdown_cache_maintenance
0000000040002544 g     F .text	000000000000000c bl31_get_plat_params
0000000040001b10 g     F .text	000000000000000c plat_get_my_entrypoint
000000004000d148 g     F .text	000000000000014c tegra_smmu_verify
0000000040006ea0 g     F .text	0000000000000190 plat_secondary_setup
0000000040002df4 g     F .text	000000000000005c cm_set_next_eret_context
0000000040015de8 g       .rodata	0000000000000000 __pubsub_cm_entering_secure_world_start
0000000040016610 g       .data	0000000000000000 tegra_sec_entry_point
000000004000742c g     F .text	0000000000000088 psci_cpu_on
0000000040003bc0 g     F .text	0000000000000030 gicd_set_igroupr
0000000040015df0 g     O .rodata	0000000000000008 __cb_func_ehf_entering_normal_worldcm_entering_normal_world
0000000040002710 g     F .text	00000000000000a8 bl31_prepare_next_image_entry
00000000400090b0 g     F .text	00000000000000a0 psci_validate_suspend_req
000000004000b418 g     F .text	00000000000000dc tegra194_ras_corrected_err_clear
000000004001da24 g     O .bss	0000000000000004 psci_plat_core_count
0000000040005b5c g     F .text	0000000000000048 nvg_update_ccplex_gsc
0000000040007f00 g     F .text	0000000000000080 psci_features
0000000040015dd8 g       .rodata	0000000000000000 __GOT_END__
00000000400051f8 g     F .text	0000000000000078 memset
000000004000d918 g     F .text	0000000000000008 tegra_soc_pwr_domain_suspend_pwrdown_early
000000004000c7f8 g     F .text	0000000000000020 tegra_platform_is_linsim
00000000400107b0 g     O .rodata	0000000000000010 err_record_mappings
0000000040015b08 g       .rodata	0000000000000000 __PARSER_LIB_DESCS_END__
000000004001db80 g       .bss	0000000000000000 __BAKERY_LOCK_START__
0000000040008048 g     F .text	0000000000000090 psci_get_target_local_pwr_states
00000000400050f4 g     F .text	0000000000000040 mce_verify_strict_checking
000000004000bcd4 g     F .text	000000000000001c tegra_chipid_is_t194
0000000040003078 g     F .text	0000000000000094 cm_write_scr_el3_bit
0000000040015e00 g       .rodata	0000000000000000 __pubsub_cm_exited_normal_world_end
000000004001c990 g     O .bss	0000000000000008 optee_vector_table
0000000040004098 g     F .text	0000000000000068 gicv2_get_interrupt_active
000000004000175c g     F .text	000000000000001c enter_lower_el_async_ea
0000000040006e90  w    F .text	0000000000000004 plat_sdei_handle_masked_trigger
000000004001b6f8 g     O .bss	0000000000000008 psci_plat_pm_ops
0000000040006ac8 g     F .text	0000000000000024 plat_get_soc_revision
000000004000bdbc g     F .text	0000000000000064 tegra_delay_timer_init
00000000400036b4 g     F .text	0000000000000098 ehf_init
000000004000e700 g     F .text	000000000000004c xlat_arch_get_max_supported_pa
00000000400027c4 g     F .text	0000000000000014 bl31_setup
000000004000c834 g     F .text	000000000000001c tegra_platform_is_silicon
0000000040015de0 g       .rodata	0000000000000000 __pubsub_psci_suspend_pwrdown_start_start
0000000040003aec g     F .text	0000000000000020 gicd_get_igroupr
0000000040006b78  w    F .text	0000000000000004 plat_ic_end_of_interrupt
0000000040015dd8 g       .rodata	0000000000000000 __GOT_START__
0000000040001760 g       .text	0000000000000000 handle_lower_el_async_ea
0000000040003920 g     F .text	0000000000000038 get_arm_std_svc_args
0000000040015df0 g       .rodata	0000000000000000 __pubsub_cm_entering_normal_world_start
0000000000000000 g       *ABS*	0000000000000000 __PERCPU_TIMESTAMP_SIZE__
0000000040002164 g     F .text	00000000000001a8 bakery_lock_get
0000000040010000 g       .text	0000000000000000 __TEXT_END__
000000004000bf38 g     F .text	000000000000000c tegra_fiq_set_ns_entrypoint
0000000040008220 g     F .text	00000000000000c4 psci_mem_protect
0000000040015b08 g       .rodata	0000000000000000 __FCONF_POPULATOR_END__
0000000040004100 g     F .text	0000000000000050 gicv2_get_interrupt_group
000000004000230c g     F .text	0000000000000098 bakery_lock_release
0000000040006e18 g     F .text	0000000000000008 plat_memctrl_restore
00000000400027d8 g     F .text	00000000000000e0 boot_profiler_add_record
00000000400039d4 g     F .text	0000000000000024 get_interrupt_type_handler
0000000040006abc g     F .text	000000000000000c plat_get_power_domain_tree_desc
0000000040005034 g     F .text	0000000000000014 mce_update_cstate_info
000000004000462c g     F .text	0000000000000070 gicv2_set_interrupt_priority
00000000400044c4 g     F .text	00000000000000f4 gicv2_secure_spis_configure_props
0000000040003c6c g     F .text	0000000000000010 gicd_write_ipriorityr
0000000040005074 g     F .text	000000000000002c mce_update_gsc_videomem
000000004000846c g     F .text	000000000000008c psci_node_hw_state
000000004000130c g     F .text	00000000000000cc el1_sysregs_context_save
0000000040001fd4 g     F .text	0000000000000010 tegra194_get_cpu_reset_handler_size
000000004000488c g     F .text	0000000000000100 gicv2_set_spi_routing
000000004000189c g     F .text	0000000000000034 init_cpu_ops
000000004000310c g     F .text	0000000000000054 console_flush
000000004000f300 g     F .text	0000000000000000 fiq_sp_elx
000000004000e860 g     F .text	000000000000000c xlat_arch_tlbi_va_sync
000000004000f400 g     F .text	0000000000000000 sync_exception_aarch64
000000004000f500 g     F .text	0000000000000000 fiq_aarch64
0000000040003b40 g     F .text	0000000000000014 gicd_read_igroupr
0000000040003300 g     F .text	000000000000000c console_switch_state
0000000040009ab8 g     F .text	0000000000000158 sdei_dispatch_event
0000000040001fac g     F .text	0000000000000008 spin_unlock
000000004000bf44 g     F .text	0000000000000014 tegra_get_chipid_major
0000000040001cc8 g     F .text	000000000000007c prepare_el3_entry
0000000040018800 g       .bss	0000000000000000 __BSS_START__
0000000040009dbc g     F .text	000000000000007c sdei_event_context
0000000040001ff4 g     F .text	0000000000000040 tegra194_set_system_suspend_entry
00000000400056f8 g     F .text	0000000000000178 mmap_add_region_ctx
000000004000b1a4 g     F .text	000000000000004c spe_enable
0000000040015b08 g       .rodata	0000000000000000 __PMF_SVC_DESCS_START__
000000004001da64 g     O .bss	0000000000000004 opteed_rw
0000000040001a8c g     F .text	0000000000000084 plat_crash_console_putc
0000000040006c8c g     F .text	0000000000000004 plat_ic_set_interrupt_pending
0000000040018800 g     O .bss	0000000000000400 percpu_data
0000000040008534 g     F .text	0000000000000060 psci_register_spd_pm_hook
000000004000195c g     F .text	0000000000000008 nvg_set_request
0000000040003e1c g     F .text	0000000000000070 gicv2_disable_interrupt
0000000040000200 g     F .text	0000000000000010 tegra_secure_entrypoint
000000004000d920 g     F .text	0000000000000090 tegra_soc_validate_power_state
0000000040005a6c g     F .text	0000000000000018 nvg_get_version
00000000400069cc g     F .text	0000000000000050 plat_enable_console
000000004000c19c g     F .text	0000000000000018 tegra_ivc_channel_reset
0000000040001f8c g     F .text	0000000000000020 spin_lock
0000000040003160 g     F .text	0000000000000050 console_is_registered
0000000040001998 g     F .text	0000000000000024 opteed_exit_sp
0000000040006c04  w    F .text	000000000000000c plat_ic_is_sgi
00000000400084fc g     F .text	0000000000000038 psci_query_sys_suspend_pwrstate
0000000040004ccc g     F .text	00000000000000ac is_mmu_enabled_ctx
000000004000da20 g     F .text	000000000000010c tf_log
00000000400042c0 g     F .text	00000000000000e0 gicv2_raise_sgi
0000000040000f44 g     F .text	0000000000000008 console_spe_flush
0000000040015dd8 g       .rodata	0000000000000000 __pubsub_psci_cpu_on_finish_start
0000000040005048 g     F .text	000000000000002c mce_update_gsc_tzdram
000000004000d45c g     F .text	0000000000000014 tegra_soc_prepare_system_off
00000000400093a0 g     F .text	0000000000000078 ras_serr_to_str
0000000040015b08 g       .rodata	0000000000000000 __FCONF_POPULATOR_START__
0000000040003a64 g     F .text	0000000000000058 get_scr_el3_from_routing_model
0000000040037000 g       xlat_table	0000000000000000 __RW_END__
000000004000c630 g     F .text	0000000000000008 tegra_memctrl_tzdram_setup
0000000040009f64 g     F .text	0000000000000048 sdei_init
0000000040006a64 g     F .text	000000000000002c plat_get_bpmp_ipc_data
00000000400026dc g     F .text	0000000000000034 bl31_platform_setup
000000004000b8fc g     F .text	00000000000000f0 tegra_bpmp_ipc_enable_clock
000000004000a054 g     F .text	0000000000000340 sdei_intr_handler
0000000040016800 g       stacks	0000000000000000 __STACKS_START__
000000004001a180 g     O .bss	0000000000001480 opteed_sp_context
0000000040003b0c g     F .text	0000000000000020 gicd_get_isactiver
0000000040007d7c g     F .text	0000000000000184 psci_do_state_coordination
0000000040008d94 g     F .text	00000000000000c4 psci_system_reset2
000000004000502c g     F .text	0000000000000004 mce_system_reboot
0000000040003824 g     F .text	0000000000000048 enable_mmu_el3
0000000040005aa0 g     F .text	0000000000000048 nvg_online_core
000000004000be7c g     F .text	000000000000003c tegra_fiq_handler_setup
000000004000f780 g     F .text	0000000000000000 serror_aarch32
0000000040001b38  w    F .text	0000000000000004 plat_handle_double_fault
000000004001dd80 g       .bss	0000000000000000 __PMF_TIMESTAMP_END__
000000004000b374 g     F .text	0000000000000030 sve_enable
0000000040006478 g     F .text	0000000000000098 opteed_synchronous_sp_entry
0000000040004aa0 g     F .text	0000000000000220 init_xlat_tables_ctx
0000000040015de0 g       .rodata	0000000000000000 __pubsub_psci_suspend_pwrdown_finish_start
0000000040006b44 g     F .text	0000000000000024 plat_gic_setup
0000000040001b44 g     F .text	0000000000000010 plat_my_core_pos
0000000040006c10  w    F .text	0000000000000010 plat_ic_is_spi
0000000040003f14 g     F .text	00000000000000a8 gicv2_driver_init
000000004000d2d4 g     F .text	0000000000000090 tegra_soc_cpu_standby
00000000400050a0 g     F .text	0000000000000054 mce_verify_firmware_version
0000000040005b38 g     F .text	000000000000000c nvg_set_wake_time
00000000400094c4 g     F .text	0000000000000168 runtime_svc_init
0000000040003fbc g     F .text	0000000000000074 gicv2_enable_interrupt
000000004000c578 g     F .text	00000000000000b4 tegra_memctrl_restore_settings
000000004000b330 g     F .text	000000000000001c strlen
0000000040004248 g     F .text	0000000000000078 gicv2_pcpu_distif_init
000000004000b4f4 g     F .text	0000000000000114 tegra194_ras_enable
000000004000f480 g     F .text	0000000000000000 irq_aarch64
000000004000d488 g     F .text	0000000000000054 tegra_soc_pwr_domain_off
00000000400083c4 g     F .text	000000000000004c psci_migrate_info_type
0000000040006aec g     F .text	000000000000001c plat_get_soc_version
000000004000e7a0 g     F .text	00000000000000c0 xlat_arch_tlbi_va
0000000040003ca4 g     F .text	0000000000000050 gicv2_acknowledge_interrupt
0000000040004030 g     F .text	000000000000005c gicv2_end_of_interrupt
0000000040006c20  w    F .text	000000000000006c plat_ic_raise_el3_sgi
0000000040000b1c g     F .text	0000000000000028 __assert
00000000400081c4 g     F .text	000000000000005c psci_mem_chk_range
0000000040001444 g     F .text	00000000000001f0 el3_panic
0000000040003abc g     F .text	0000000000000030 gicd_clr_igroupr
0000000040009418 g     F .text	0000000000000068 register_interrupt_type_handler
000000004000c0d0 g     F .text	000000000000000c tegra_ivc_align
000000004000e9d4 g     F .text	0000000000000004 xlat_mmap_print
000000004000b34c g     F .text	0000000000000028 sve_disable
000000004000b9ec g     F .text	0000000000000144 tegra_bpmp_ipc_init
000000004000be20 g     F .text	000000000000005c tegra_fiq_get_intr_context
0000000040007314 g     F .text	000000000000006c psci_acquire_pwr_domain_locks
000000004000330c g     F .text	00000000000000e0 ehf_activate_priority
0000000040015de0 g       .rodata	0000000000000000 __pubsub_psci_cpu_on_finish_end
0000000040001240 g     F .text	00000000000000cc el1_sysregs_context_restore
00000000400045b8 g     F .text	0000000000000074 gicv2_set_interrupt_pending
0000000040005870 g     F .text	0000000000000014 mmap_remove_dynamic_region
000000004001d4d8 g     O .bss	0000000000000008 console_list
00000000400085f4 g     F .text	00000000000000a0 psci_set_pwr_domains_to_run
000000004000469c g     F .text	00000000000000d0 gicv2_set_interrupt_type
000000004000c088 g     F .text	0000000000000004 tegra_gic_save
0000000040003c58 g     F .text	0000000000000014 gicd_write_igroupr
0000000040001dc0 g     F .text	0000000000000028 report_unhandled_interrupt
0000000040000aa0 g       .text	0000000000000000 __tegra194_cpu_reset_handler_end
0000000040006e04 g     F .text	0000000000000014 plat_memctrl_get_sys_suspend_ctx
0000000040006b08 g     F .text	000000000000002c plat_get_stack_protector_canary
000000004000f700 g     F .text	0000000000000000 fiq_aarch32
000000004001db80 g       .bss	0000000000000000 __PERCPU_BAKERY_LOCK_START__
000000004000c06c g     F .text	000000000000001c tegra_gic_restore
0000000040001b1c  w    F .text	000000000000001c plat_get_my_stack
000000004000552c g     F .text	0000000000000068 mmap_add_region
0000000040000000 g       .text	0000000000000000 __TEXT_START__
0000000040003b54 g     F .text	0000000000000014 gicd_read_isactiver
0000000040015b08 g       .rodata	0000000000000000 __PARSER_LIB_DESCS_START__
000000004001b700 g     O .bss	0000000000000008 psci_spd_pm
0000000040016018 g     O .data	0000000000000028 plat_exceptions



Disassembly of section .text:

0000000040000000 <bl31_entrypoint>:
    40000000:	aa0003f4 	mov	x20, x0
    40000004:	aa0103f5 	mov	x21, x1
    40000008:	aa0203f6 	mov	x22, x2
    4000000c:	aa0303f7 	mov	x23, x3
    40000010:	d2810600 	mov	x0, #0x830                 	// #2096
    40000014:	f2a618a0 	movk	x0, #0x30c5, lsl #16
    40000018:	d51e1000 	msr	sctlr_el3, x0
    4000001c:	d5033fdf 	isb
    40000020:	10077f00 	adr	x0, 4000f000 <sync_exception_sp_el0>
    40000024:	d51ec000 	msr	vbar_el3, x0
    40000028:	d5033fdf 	isb
    4000002c:	9400076f 	bl	40001de8 <reset_handler>
    40000030:	d2820141 	mov	x1, #0x100a                	// #4106
    40000034:	d53e1000 	mrs	x0, sctlr_el3
    40000038:	aa010000 	orr	x0, x0, x1
    4000003c:	d51e1000 	msr	sctlr_el3, x0
    40000040:	d5033fdf 	isb
    40000044:	94000611 	bl	40001888 <init_cpu_data_ptr>
    40000048:	d2804700 	mov	x0, #0x238                 	// #568
    4000004c:	d51e1100 	msr	scr_el3, x0
    40000050:	d2900000 	mov	x0, #0x8000                	// #32768
    40000054:	f2a01020 	movk	x0, #0x81, lsl #16
    40000058:	f2c00080 	movk	x0, #0x4, lsl #32
    4000005c:	d5380501 	mrs	x1, id_aa64dfr0_el1
    40000060:	d368ac21 	ubfx	x1, x1, #40, #4
    40000064:	b4000041 	cbz	x1, 4000006c <bl31_entrypoint+0x6c>
    40000068:	b26d0000 	orr	x0, x0, #0x80000
    4000006c:	d51e1320 	msr	mdcr_el3, x0
    40000070:	d2801c00 	mov	x0, #0xe0                  	// #224
    40000074:	d51b9c00 	msr	pmcr_el0, x0
    40000078:	d50344ff 	msr	daifclr, #0x4
    4000007c:	d2a80000 	mov	x0, #0x40000000            	// #1073741824
    40000080:	d5380501 	mrs	x1, id_aa64dfr0_el1
    40000084:	d3441c21 	ubfx	x1, x1, #4, #4
    40000088:	b4000041 	cbz	x1, 40000090 <bl31_entrypoint+0x90>
    4000008c:	b26c0000 	orr	x0, x0, #0x100000
    40000090:	d51e1140 	msr	cptr_el3, x0
    40000094:	940006f8 	bl	40001c74 <platform_mem_init>
    40000098:	d00000a0 	adrp	x0, 40016000 <__RODATA_END__>
    4000009c:	91000000 	add	x0, x0, #0x0
    400000a0:	f00001a1 	adrp	x1, 40037000 <__BL31_END__>
    400000a4:	91000021 	add	x1, x1, #0x0
    400000a8:	cb000021 	sub	x1, x1, x0
    400000ac:	94000609 	bl	400018d0 <inv_dcache_range>
    400000b0:	900000c0 	adrp	x0, 40018000 <__STACKS_START__+0x1800>
    400000b4:	91200000 	add	x0, x0, #0x800
    400000b8:	b00000e1 	adrp	x1, 4001d000 <cpu_state+0x668>
    400000bc:	91364021 	add	x1, x1, #0xd90
    400000c0:	cb000021 	sub	x1, x1, x0
    400000c4:	940007e1 	bl	40002048 <zeromem>
    400000c8:	d50040bf 	msr	spsel, #0x0
    400000cc:	940006e6 	bl	40001c64 <plat_set_my_stack>
    400000d0:	940007d9 	bl	40002034 <update_stack_protector_canary>
    400000d4:	d2800014 	mov	x20, #0x0                   	// #0
    400000d8:	d2800015 	mov	x21, #0x0                   	// #0
    400000dc:	d2800016 	mov	x22, #0x0                   	// #0
    400000e0:	d2800017 	mov	x23, #0x0                   	// #0
    400000e4:	aa1403e0 	mov	x0, x20
    400000e8:	aa1503e1 	mov	x1, x21
    400000ec:	aa1603e2 	mov	x2, x22
    400000f0:	aa1703e3 	mov	x3, x23
    400000f4:	940009b4 	bl	400027c4 <bl31_setup>
    400000f8:	94000916 	bl	40002550 <bl31_main>
    400000fc:	d00000a0 	adrp	x0, 40016000 <__RODATA_END__>
    40000100:	91000000 	add	x0, x0, #0x0
    40000104:	d00000a1 	adrp	x1, 40016000 <__RODATA_END__>
    40000108:	911f0821 	add	x1, x1, #0x7c2
    4000010c:	cb000021 	sub	x1, x1, x0
    40000110:	9400034d 	bl	40000e44 <clean_dcache_range>
    40000114:	900000c0 	adrp	x0, 40018000 <__STACKS_START__+0x1800>
    40000118:	91200000 	add	x0, x0, #0x800
    4000011c:	b00000e1 	adrp	x1, 4001d000 <cpu_state+0x668>
    40000120:	91364021 	add	x1, x1, #0xd90
    40000124:	cb000021 	sub	x1, x1, x0
    40000128:	94000347 	bl	40000e44 <clean_dcache_range>
    4000012c:	140004ab 	b	400013d8 <el3_exit>

0000000040000130 <bl31_warm_entrypoint>:
    40000130:	d2810600 	mov	x0, #0x830                 	// #2096
    40000134:	f2a618a0 	movk	x0, #0x30c5, lsl #16
    40000138:	d51e1000 	msr	sctlr_el3, x0
    4000013c:	d5033fdf 	isb
    40000140:	10077600 	adr	x0, 4000f000 <sync_exception_sp_el0>
    40000144:	d51ec000 	msr	vbar_el3, x0
    40000148:	d5033fdf 	isb
    4000014c:	94000727 	bl	40001de8 <reset_handler>
    40000150:	d2820141 	mov	x1, #0x100a                	// #4106
    40000154:	d53e1000 	mrs	x0, sctlr_el3
    40000158:	aa010000 	orr	x0, x0, x1
    4000015c:	d51e1000 	msr	sctlr_el3, x0
    40000160:	d5033fdf 	isb
    40000164:	940005c9 	bl	40001888 <init_cpu_data_ptr>
    40000168:	d2804700 	mov	x0, #0x238                 	// #568
    4000016c:	d51e1100 	msr	scr_el3, x0
    40000170:	d2900000 	mov	x0, #0x8000                	// #32768
    40000174:	f2a01020 	movk	x0, #0x81, lsl #16
    40000178:	f2c00080 	movk	x0, #0x4, lsl #32
    4000017c:	d5380501 	mrs	x1, id_aa64dfr0_el1
    40000180:	d368ac21 	ubfx	x1, x1, #40, #4
    40000184:	b4000041 	cbz	x1, 4000018c <bl31_warm_entrypoint+0x5c>
    40000188:	b26d0000 	orr	x0, x0, #0x80000
    4000018c:	d51e1320 	msr	mdcr_el3, x0
    40000190:	d2801c00 	mov	x0, #0xe0                  	// #224
    40000194:	d51b9c00 	msr	pmcr_el0, x0
    40000198:	d50344ff 	msr	daifclr, #0x4
    4000019c:	d2a80000 	mov	x0, #0x40000000            	// #1073741824
    400001a0:	d5380501 	mrs	x1, id_aa64dfr0_el1
    400001a4:	d3441c21 	ubfx	x1, x1, #4, #4
    400001a8:	b4000041 	cbz	x1, 400001b0 <bl31_warm_entrypoint+0x80>
    400001ac:	b26c0000 	orr	x0, x0, #0x100000
    400001b0:	d51e1140 	msr	cptr_el3, x0
    400001b4:	d50040bf 	msr	spsel, #0x0
    400001b8:	940006ab 	bl	40001c64 <plat_set_my_stack>
    400001bc:	aa1f03e0 	mov	x0, xzr
    400001c0:	940002f5 	bl	40000d94 <bl31_plat_enable_mmu>
    400001c4:	940023e3 	bl	40009150 <psci_warmboot_entrypoint>
    400001c8:	14000484 	b	400013d8 <el3_exit>
	...

0000000040000200 <tegra_secure_entrypoint>:
    40000200:	d2800020 	mov	x0, #0x1                   	// #1
    40000204:	d5101080 	msr	oslar_el1, x0
    40000208:	94000642 	bl	40001b10 <plat_get_my_entrypoint>
    4000020c:	d61f0000 	br	x0

0000000040000210 <tegra194_cpu_reset_handler>:
    40000210:	10000500 	adr	x0, 400002b0 <__tegra194_system_suspend_state>
    40000214:	f9400001 	ldr	x1, [x0]
    40000218:	d280b8e2 	mov	x2, #0x5c7                 	// #1479
    4000021c:	d370bc42 	lsl	x2, x2, #16
    40000220:	91171c42 	add	x2, x2, #0x5c7
    40000224:	eb02003f 	cmp	x1, x2
    40000228:	54000301 	b.ne	40000288 <boot_cpu>  // b.any
    4000022c:	d28c01a1 	mov	x1, #0x600d                	// #24589
    40000230:	d370bc21 	lsl	x1, x1, #16
    40000234:	d28c01a2 	mov	x2, #0x600d                	// #24589
    40000238:	8b020021 	add	x1, x1, x2
    4000023c:	f9000001 	str	x1, [x0]
    40000240:	d5033f9f 	dsb	sy
    40000244:	d2a80000 	mov	x0, #0x40000000            	// #1073741824
    40000248:	100042c1 	adr	x1, 40000aa0 <CCPMU_err_ctrl>
    4000024c:	100002a2 	adr	x2, 400002a0 <__tegra194_cpu_reset_handler_data>
    40000250:	f9400442 	ldr	x2, [x2, #8]

0000000040000254 <m_loop16>:
    40000254:	f100405f 	cmp	x2, #0x10
    40000258:	540000ab 	b.lt	4000026c <m_loop1>  // b.tstop
    4000025c:	a8c11023 	ldp	x3, x4, [x1], #16
    40000260:	a8811003 	stp	x3, x4, [x0], #16
    40000264:	d1004042 	sub	x2, x2, #0x10
    40000268:	17fffffb 	b	40000254 <m_loop16>

000000004000026c <m_loop1>:
    4000026c:	b40000e2 	cbz	x2, 40000288 <boot_cpu>
    40000270:	38401423 	ldrb	w3, [x1], #1
    40000274:	38001403 	strb	w3, [x0], #1
    40000278:	f1000442 	subs	x2, x2, #0x1
    4000027c:	54ffff81 	b.ne	4000026c <m_loop1>  // b.any
    40000280:	d5033f9f 	dsb	sy
    40000284:	d5033fdf 	isb

0000000040000288 <boot_cpu>:
    40000288:	100000c0 	adr	x0, 400002a0 <__tegra194_cpu_reset_handler_data>
    4000028c:	f9400000 	ldr	x0, [x0]
    40000290:	d61f0000 	br	x0
    40000294:	d503201f 	nop
    40000298:	d503201f 	nop
    4000029c:	d503201f 	nop

00000000400002a0 <__tegra194_cpu_reset_handler_data>:
    400002a0:	40000200 00000000 00037000 00000000     ...@.....p......

00000000400002b0 <__tegra194_system_suspend_state>:
	...
    400002b8:	d503201f 	nop
    400002bc:	d503201f 	nop

00000000400002c0 <__tegra194_mc_context>:
	...
    40000a98:	d503201f 	nop
    40000a9c:	d503201f 	nop

0000000040000aa0 <CCPMU_err_ctrl>:
    40000aa0:	d2c023e0 	mov	x0, #0x11f00000000         	// #1232655613952
    40000aa4:	d65f03c0 	ret

0000000040000aa8 <CLUSTER_CLOCKS_err_ctrl>:
    40000aa8:	d2c00020 	mov	x0, #0x100000000           	// #4294967296
    40000aac:	d65f03c0 	ret

0000000040000ab0 <CMU_CLOCKS_err_ctrl>:
    40000ab0:	d2c01fe0 	mov	x0, #0xff00000000          	// #1095216660480
    40000ab4:	d65f03c0 	ret

0000000040000ab8 <IFU_err_ctrl>:
    40000ab8:	d2800000 	mov	x0, #0x0                   	// #0
    40000abc:	d65f03c0 	ret

0000000040000ac0 <JSR_MTS_err_ctrl>:
    40000ac0:	d2c037a0 	mov	x0, #0x1bd00000000         	// #1911260446720
    40000ac4:	d65f03c0 	ret

0000000040000ac8 <JSR_RET_err_ctrl>:
    40000ac8:	d2c001e0 	mov	x0, #0xf00000000           	// #64424509440
    40000acc:	d65f03c0 	ret

0000000040000ad0 <L2_err_ctrl>:
    40000ad0:	d2d7fb80 	mov	x0, #0xbfdc00000000        	// #210951613710336
    40000ad4:	f2e03fe0 	movk	x0, #0x1ff, lsl #48
    40000ad8:	d65f03c0 	ret

0000000040000adc <L3_err_ctrl>:
    40000adc:	d2c1f780 	mov	x0, #0xfbc00000000         	// #17300128268288
    40000ae0:	d65f03c0 	ret

0000000040000ae4 <LSD_DCC_err_ctrl>:
    40000ae4:	d2c05660 	mov	x0, #0x2b300000000         	// #2967822401536
    40000ae8:	d65f03c0 	ret

0000000040000aec <LSD_L1HPF_err_ctrl>:
    40000aec:	d2800000 	mov	x0, #0x0                   	// #0
    40000af0:	d65f03c0 	ret

0000000040000af4 <LSD_STQ_err_ctrl>:
    40000af4:	d2c06860 	mov	x0, #0x34300000000         	// #3586297692160
    40000af8:	d65f03c0 	ret

0000000040000afc <MMU_err_ctrl>:
    40000afc:	d2800000 	mov	x0, #0x0                   	// #0
    40000b00:	d65f03c0 	ret

0000000040000b04 <SCF_CTU_err_ctrl>:
    40000b04:	d2c01fe0 	mov	x0, #0xff00000000          	// #1095216660480
    40000b08:	d65f03c0 	ret

0000000040000b0c <SCF_IOB_err_ctrl>:
    40000b0c:	d2c07fc0 	mov	x0, #0x3fe00000000         	// #4389456576512
    40000b10:	d65f03c0 	ret

0000000040000b14 <SCF_SNOC_err_ctrl>:
    40000b14:	d2c0ff80 	mov	x0, #0x7fc00000000         	// #8778913153024
    40000b18:	d65f03c0 	ret

0000000040000b1c <__assert>:
    40000b1c:	a9bf7bfd 	stp	x29, x30, [sp, #-16]!
    40000b20:	aa0203e3 	mov	x3, x2
    40000b24:	2a0103e2 	mov	w2, w1
    40000b28:	aa0003e1 	mov	x1, x0
    40000b2c:	910003fd 	mov	x29, sp
    40000b30:	b00000a0 	adrp	x0, 40015000 <sdei_state_table+0x233>
    40000b34:	91278400 	add	x0, x0, #0x9e1
    40000b38:	940019d3 	bl	40007284 <printf>
    40000b3c:	94000974 	bl	4000310c <console_flush>
    40000b40:	94000405 	bl	40001b54 <plat_panic_handler>

0000000040000b44 <__stack_chk_fail>:
    40000b44:	a9bf7bfd 	stp	x29, x30, [sp, #-16]!
    40000b48:	910003fd 	mov	x29, sp
    40000b4c:	94000970 	bl	4000310c <console_flush>
    40000b50:	9400017e 	bl	40001148 <do_panic>

0000000040000b54 <arm_arch_svc_smc_handler>:
    40000b54:	a9be7bfd 	stp	x29, x30, [sp, #-32]!
    40000b58:	320183e2 	mov	w2, #0x80008000            	// #-2147450880
    40000b5c:	6b02001f 	cmp	w0, w2
    40000b60:	910003fd 	mov	x29, sp
    40000b64:	f9000bf3 	str	x19, [sp, #16]
    40000b68:	aa0603f3 	mov	x19, x6
    40000b6c:	54000348 	b.hi	40000bd4 <arm_arch_svc_smc_handler+0x80>  // b.pmore
    40000b70:	32013fe2 	mov	w2, #0x80007fff            	// #-2147450881
    40000b74:	6b02001f 	cmp	w0, w2
    40000b78:	54000262 	b.cs	40000bc4 <arm_arch_svc_smc_handler+0x70>  // b.hs, b.nlast
    40000b7c:	52800042 	mov	w2, #0x2                   	// #2
    40000b80:	72b00002 	movk	w2, #0x8000, lsl #16
    40000b84:	6b02001f 	cmp	w0, w2
    40000b88:	54000940 	b.eq	40000cb0 <arm_arch_svc_smc_handler+0x15c>  // b.none
    40000b8c:	32010be2 	mov	w2, #0x80000003            	// #-2147483645
    40000b90:	6b02001f 	cmp	w0, w2
    40000b94:	54000122 	b.cs	40000bb8 <arm_arch_svc_smc_handler+0x64>  // b.hs, b.nlast
    40000b98:	52b00002 	mov	w2, #0x80000000            	// #-2147483648
    40000b9c:	6b02001f 	cmp	w0, w2
    40000ba0:	54000340 	b.eq	40000c08 <arm_arch_svc_smc_handler+0xb4>  // b.none
    40000ba4:	320107e2 	mov	w2, #0x80000001            	// #-2147483647
    40000ba8:	6b02001f 	cmp	w0, w2
    40000bac:	54000360 	b.eq	40000c18 <arm_arch_svc_smc_handler+0xc4>  // b.none
    40000bb0:	92800000 	mov	x0, #0xffffffffffffffff    	// #-1
    40000bb4:	14000017 	b	40000c10 <arm_arch_svc_smc_handler+0xbc>
    40000bb8:	32013be1 	mov	w1, #0x80003fff            	// #-2147467265
    40000bbc:	6b01001f 	cmp	w0, w1
    40000bc0:	54ffff81 	b.ne	40000bb0 <arm_arch_svc_smc_handler+0x5c>  // b.any
    40000bc4:	aa1303e0 	mov	x0, x19
    40000bc8:	f9400bf3 	ldr	x19, [sp, #16]
    40000bcc:	a8c27bfd 	ldp	x29, x30, [sp], #32
    40000bd0:	d65f03c0 	ret
    40000bd4:	529fe021 	mov	w1, #0xff01                	// #65281
    40000bd8:	72b00001 	movk	w1, #0x8000, lsl #16
    40000bdc:	6b01001f 	cmp	w0, w1
    40000be0:	540007a0 	b.eq	40000cd4 <arm_arch_svc_smc_handler+0x180>  // b.none
    40000be4:	11000821 	add	w1, w1, #0x2
    40000be8:	6b01001f 	cmp	w0, w1
    40000bec:	540008c0 	b.eq	40000d04 <arm_arch_svc_smc_handler+0x1b0>  // b.none
    40000bf0:	529fe001 	mov	w1, #0xff00                	// #65280
    40000bf4:	72b00001 	movk	w1, #0x8000, lsl #16
    40000bf8:	6b01001f 	cmp	w0, w1
    40000bfc:	54fffda1 	b.ne	40000bb0 <arm_arch_svc_smc_handler+0x5c>  // b.any
    40000c00:	d28000e0 	mov	x0, #0x7                   	// #7
    40000c04:	14000003 	b	40000c10 <arm_arch_svc_smc_handler+0xbc>
    40000c08:	d2800040 	mov	x0, #0x2                   	// #2
    40000c0c:	f2a00020 	movk	x0, #0x1, lsl #16
    40000c10:	f9000260 	str	x0, [x19]
    40000c14:	17ffffec 	b	40000bc4 <arm_arch_svc_smc_handler+0x70>
    40000c18:	32013be0 	mov	w0, #0x80003fff            	// #-2147467265
    40000c1c:	eb00003f 	cmp	x1, x0
    40000c20:	540003c0 	b.eq	40000c98 <arm_arch_svc_smc_handler+0x144>  // b.none
    40000c24:	540001e8 	b.hi	40000c60 <arm_arch_svc_smc_handler+0x10c>  // b.pmore
    40000c28:	320107e0 	mov	w0, #0x80000001            	// #-2147483647
    40000c2c:	eb00003f 	cmp	x1, x0
    40000c30:	540000c8 	b.hi	40000c48 <arm_arch_svc_smc_handler+0xf4>  // b.pmore
    40000c34:	b2407be0 	mov	x0, #0x7fffffff            	// #2147483647
    40000c38:	eb00003f 	cmp	x1, x0
    40000c3c:	5a9f83e0 	csetm	w0, ls  // ls = plast
    40000c40:	93407c00 	sxtw	x0, w0
    40000c44:	17fffff3 	b	40000c10 <arm_arch_svc_smc_handler+0xbc>
    40000c48:	d2800040 	mov	x0, #0x2                   	// #2
    40000c4c:	f2b00000 	movk	x0, #0x8000, lsl #16
    40000c50:	eb00003f 	cmp	x1, x0
    40000c54:	540001a0 	b.eq	40000c88 <arm_arch_svc_smc_handler+0x134>  // b.none
    40000c58:	12800000 	mov	w0, #0xffffffff            	// #-1
    40000c5c:	17fffff9 	b	40000c40 <arm_arch_svc_smc_handler+0xec>
    40000c60:	32013fe0 	mov	w0, #0x80007fff            	// #-2147450881
    40000c64:	eb00003f 	cmp	x1, x0
    40000c68:	54000200 	b.eq	40000ca8 <arm_arch_svc_smc_handler+0x154>  // b.none
    40000c6c:	320183e0 	mov	w0, #0x80008000            	// #-2147450880
    40000c70:	eb00003f 	cmp	x1, x0
    40000c74:	54ffff21 	b.ne	40000c58 <arm_arch_svc_smc_handler+0x104>  // b.any
    40000c78:	94000061 	bl	40000dfc <check_wa_cve_2017_5715>
    40000c7c:	7100001f 	cmp	w0, #0x0
    40000c80:	1a9f17e0 	cset	w0, eq  // eq = none
    40000c84:	17ffffef 	b	40000c40 <arm_arch_svc_smc_handler+0xec>
    40000c88:	d2800040 	mov	x0, #0x2                   	// #2
    40000c8c:	f2b00000 	movk	x0, #0x8000, lsl #16
    40000c90:	94001846 	bl	40006da8 <plat_is_smccc_feature_available>
    40000c94:	17ffffeb 	b	40000c40 <arm_arch_svc_smc_handler+0xec>
    40000c98:	94000047 	bl	40000db4 <check_smccc_arch_wa3_applies>
    40000c9c:	34fffee0 	cbz	w0, 40000c78 <arm_arch_svc_smc_handler+0x124>
    40000ca0:	52800000 	mov	w0, #0x0                   	// #0
    40000ca4:	17ffffe7 	b	40000c40 <arm_arch_svc_smc_handler+0xec>
    40000ca8:	12800020 	mov	w0, #0xfffffffe            	// #-2
    40000cac:	17ffffe5 	b	40000c40 <arm_arch_svc_smc_handler+0xec>
    40000cb0:	f100043f 	cmp	x1, #0x1
    40000cb4:	54000061 	b.ne	40000cc0 <arm_arch_svc_smc_handler+0x16c>  // b.any
    40000cb8:	94001784 	bl	40006ac8 <plat_get_soc_revision>
    40000cbc:	17ffffe1 	b	40000c40 <arm_arch_svc_smc_handler+0xec>
    40000cc0:	b5000061 	cbnz	x1, 40000ccc <arm_arch_svc_smc_handler+0x178>
    40000cc4:	9400178a 	bl	40006aec <plat_get_soc_version>
    40000cc8:	17ffffde 	b	40000c40 <arm_arch_svc_smc_handler+0xec>
    40000ccc:	12800040 	mov	w0, #0xfffffffd            	// #-3
    40000cd0:	17ffffdc 	b	40000c40 <arm_arch_svc_smc_handler+0xec>
    40000cd4:	d2909260 	mov	x0, #0x8493                	// #33939
    40000cd8:	f2bb2ec0 	movk	x0, #0xd976, lsl #16
    40000cdc:	f9000cc0 	str	x0, [x6, #24]
    40000ce0:	d283b380 	mov	x0, #0x1d9c                	// #7580
    40000ce4:	f2bed0e0 	movk	x0, #0xf687, lsl #16
    40000ce8:	f90008c0 	str	x0, [x6, #16]
    40000cec:	d287be00 	mov	x0, #0x3df0                	// #15856
    40000cf0:	f2b1a840 	movk	x0, #0x8d42, lsl #16
    40000cf4:	f90004c0 	str	x0, [x6, #8]
    40000cf8:	d29c16e0 	mov	x0, #0xe0b7                	// #57527
    40000cfc:	f2a9bc40 	movk	x0, #0x4de2, lsl #16
    40000d00:	17ffffc4 	b	40000c10 <arm_arch_svc_smc_handler+0xbc>
    40000d04:	d2800020 	mov	x0, #0x1                   	// #1
    40000d08:	a90000df 	stp	xzr, x0, [x6]
    40000d0c:	17ffffae 	b	40000bc4 <arm_arch_svc_smc_handler+0x70>

0000000040000d10 <_cpu_data_by_index>:
    40000d10:	d2801001 	mov	x1, #0x80                  	// #128
    40000d14:	9b017c00 	mul	x0, x0, x1
    40000d18:	900000c1 	adrp	x1, 40018000 <__STACKS_START__+0x1800>
    40000d1c:	91200021 	add	x1, x1, #0x800
    40000d20:	8b010000 	add	x0, x0, x1
    40000d24:	d65f03c0 	ret

0000000040000d28 <asm_assert>:
    40000d28:	9400038b 	bl	40001b54 <plat_panic_handler>

0000000040000d2c <asm_print_hex>:
    40000d2c:	d2800805 	mov	x5, #0x40                  	// #64

0000000040000d30 <asm_print_hex_bits>:
    40000d30:	aa1e03e3 	mov	x3, x30
    40000d34:	d10010a5 	sub	x5, x5, #0x4
    40000d38:	9ac52480 	lsr	x0, x4, x5
    40000d3c:	92400c00 	and	x0, x0, #0xf
    40000d40:	f100281f 	cmp	x0, #0xa
    40000d44:	54000043 	b.cc	40000d4c <asm_print_hex_bits+0x1c>  // b.lo, b.ul, b.last
    40000d48:	91009c00 	add	x0, x0, #0x27
    40000d4c:	9100c000 	add	x0, x0, #0x30
    40000d50:	9400034f 	bl	40001a8c <plat_crash_console_putc>
    40000d54:	b5ffff05 	cbnz	x5, 40000d34 <asm_print_hex_bits+0x4>
    40000d58:	d65f0060 	ret	x3

0000000040000d5c <asm_print_newline>:
    40000d5c:	d2800140 	mov	x0, #0xa                   	// #10
    40000d60:	1400034b 	b	40001a8c <plat_crash_console_putc>

0000000040000d64 <asm_print_str>:
    40000d64:	aa1e03e3 	mov	x3, x30
    40000d68:	38401480 	ldrb	w0, [x4], #1
    40000d6c:	b4000060 	cbz	x0, 40000d78 <asm_print_str+0x14>
    40000d70:	94000347 	bl	40001a8c <plat_crash_console_putc>
    40000d74:	17fffffd 	b	40000d68 <asm_print_str+0x4>
    40000d78:	d65f0060 	ret	x3

0000000040000d7c <begin_sdei_synchronous_dispatch>:
    40000d7c:	a9bf7ffe 	stp	x30, xzr, [sp, #-16]!
    40000d80:	94000443 	bl	40001e8c <setjmp>
    40000d84:	b4000060 	cbz	x0, 40000d90 <begin_sdei_synchronous_dispatch+0x14>
    40000d88:	a8c17ffe 	ldp	x30, xzr, [sp], #16
    40000d8c:	d65f03c0 	ret
    40000d90:	14000192 	b	400013d8 <el3_exit>

0000000040000d94 <bl31_plat_enable_mmu>:
    40000d94:	14000256 	b	400016ec <enable_mmu_direct_el3>

0000000040000d98 <check_errata_cve_2017_5715>:
    40000d98:	d2800040 	mov	x0, #0x2                   	// #2
    40000d9c:	d5380161 	mrs	x1, id_afr0_el1
    40000da0:	d2a00022 	mov	x2, #0x10000               	// #65536
    40000da4:	8a020021 	and	x1, x1, x2
    40000da8:	b4000041 	cbz	x1, 40000db0 <check_errata_cve_2017_5715+0x18>
    40000dac:	d2800020 	mov	x0, #0x1                   	// #1
    40000db0:	d65f03c0 	ret

0000000040000db4 <check_smccc_arch_wa3_applies>:
    40000db4:	d53ed040 	mrs	x0, tpidr_el3
    40000db8:	f100001f 	cmp	x0, #0x0
    40000dbc:	54000081 	b.ne	40000dcc <check_smccc_arch_wa3_applies+0x18>  // b.any
    40000dc0:	500a5a80 	adr	x0, 40015912 <excpt_msg_el+0x37>
    40000dc4:	d28036c1 	mov	x1, #0x1b6                 	// #438
    40000dc8:	17ffffd8 	b	40000d28 <asm_assert>
    40000dcc:	f9400800 	ldr	x0, [x0, #16]
    40000dd0:	f100001f 	cmp	x0, #0x0
    40000dd4:	54000081 	b.ne	40000de4 <check_smccc_arch_wa3_applies+0x30>  // b.any
    40000dd8:	500a59c0 	adr	x0, 40015912 <excpt_msg_el+0x37>
    40000ddc:	d2803761 	mov	x1, #0x1bb                 	// #443
    40000de0:	17ffffd2 	b	40000d28 <asm_assert>
    40000de4:	f9401000 	ldr	x0, [x0, #32]
    40000de8:	f100001f 	cmp	x0, #0x0
    40000dec:	54000040 	b.eq	40000df4 <check_smccc_arch_wa3_applies+0x40>  // b.none
    40000df0:	d61f0000 	br	x0
    40000df4:	d2800000 	mov	x0, #0x0                   	// #0
    40000df8:	d65f03c0 	ret

0000000040000dfc <check_wa_cve_2017_5715>:
    40000dfc:	d53ed040 	mrs	x0, tpidr_el3
    40000e00:	f100001f 	cmp	x0, #0x0
    40000e04:	54000081 	b.ne	40000e14 <check_wa_cve_2017_5715+0x18>  // b.any
    40000e08:	500a5840 	adr	x0, 40015912 <excpt_msg_el+0x37>
    40000e0c:	d2802e81 	mov	x1, #0x174                 	// #372
    40000e10:	17ffffc6 	b	40000d28 <asm_assert>
    40000e14:	f9400800 	ldr	x0, [x0, #16]
    40000e18:	f100001f 	cmp	x0, #0x0
    40000e1c:	54000081 	b.ne	40000e2c <check_wa_cve_2017_5715+0x30>  // b.any
    40000e20:	500a5780 	adr	x0, 40015912 <excpt_msg_el+0x37>
    40000e24:	d2802f21 	mov	x1, #0x179                 	// #377
    40000e28:	17ffffc0 	b	40000d28 <asm_assert>
    40000e2c:	f9400800 	ldr	x0, [x0, #16]
    40000e30:	f100001f 	cmp	x0, #0x0
    40000e34:	54000040 	b.eq	40000e3c <check_wa_cve_2017_5715+0x40>  // b.none
    40000e38:	d61f0000 	br	x0
    40000e3c:	d2800000 	mov	x0, #0x0                   	// #0
    40000e40:	d65f03c0 	ret

0000000040000e44 <clean_dcache_range>:
    40000e44:	b40001a1 	cbz	x1, 40000e78 <exit_loop_cvac>
    40000e48:	d53b0023 	mrs	x3, ctr_el0
    40000e4c:	d3504c63 	ubfx	x3, x3, #16, #4
    40000e50:	d2800082 	mov	x2, #0x4                   	// #4
    40000e54:	9ac32042 	lsl	x2, x2, x3
    40000e58:	8b010001 	add	x1, x0, x1
    40000e5c:	d1000443 	sub	x3, x2, #0x1
    40000e60:	8a230000 	bic	x0, x0, x3

0000000040000e64 <loop_cvac>:
    40000e64:	d50b7a20 	dc	cvac, x0
    40000e68:	8b020000 	add	x0, x0, x2
    40000e6c:	eb01001f 	cmp	x0, x1
    40000e70:	54ffffa3 	b.cc	40000e64 <loop_cvac>  // b.lo, b.ul, b.last
    40000e74:	d5033f9f 	dsb	sy

0000000040000e78 <exit_loop_cvac>:
    40000e78:	d65f03c0 	ret

0000000040000e7c <console_spe_core_flush>:
    40000e7c:	f100001f 	cmp	x0, #0x0
    40000e80:	54000081 	b.ne	40000e90 <console_spe_core_flush+0x14>  // b.any
    40000e84:	500a56c0 	adr	x0, 4001595e <denver_regs+0x2d>
    40000e88:	d2801661 	mov	x1, #0xb3                  	// #179
    40000e8c:	17ffffa7 	b	40000d28 <asm_assert>
    40000e90:	52b08001 	mov	w1, #0x84000000            	// #-2080374784
    40000e94:	b9000001 	str	w1, [x0]
    40000e98:	d65f03c0 	ret

0000000040000e9c <console_spe_core_putc>:
    40000e9c:	100abca2 	adr	x2, 40016630 <spe_console_stack>
    40000ea0:	f9000043 	str	x3, [x2]
    40000ea4:	b4000461 	cbz	x1, 40000f30 <putc_error>
    40000ea8:	7100281f 	cmp	w0, #0xa
    40000eac:	540001e1 	b.ne	40000ee8 <not_eol>  // b.any
    40000eb0:	d53fe203 	mrs	x3, cntps_tval_el1
    40000eb4:	f9400022 	ldr	x2, [x1]
    40000eb8:	92610042 	and	x2, x2, #0x80000000
    40000ebc:	b40000c2 	cbz	x2, 40000ed4 <console_spe_core_putc+0x38>
    40000ec0:	d53fe202 	mrs	x2, cntps_tval_el1
    40000ec4:	cb020062 	sub	x2, x3, x2
    40000ec8:	f140305f 	cmp	x2, #0xc, lsl #12
    40000ecc:	54ffff4b 	b.lt	40000eb4 <console_spe_core_putc+0x18>  // b.tstop
    40000ed0:	14000018 	b	40000f30 <putc_error>
    40000ed4:	528001a2 	mov	w2, #0xd                   	// #13
    40000ed8:	12001c42 	and	w2, w2, #0xff
    40000edc:	52b02003 	mov	w3, #0x81000000            	// #-2130706432
    40000ee0:	2a030042 	orr	w2, w2, w3
    40000ee4:	b9000022 	str	w2, [x1]

0000000040000ee8 <not_eol>:
    40000ee8:	d53fe203 	mrs	x3, cntps_tval_el1
    40000eec:	f9400022 	ldr	x2, [x1]
    40000ef0:	92610042 	and	x2, x2, #0x80000000
    40000ef4:	b40000c2 	cbz	x2, 40000f0c <not_eol+0x24>
    40000ef8:	d53fe202 	mrs	x2, cntps_tval_el1
    40000efc:	cb020062 	sub	x2, x3, x2
    40000f00:	f140305f 	cmp	x2, #0xc, lsl #12
    40000f04:	54ffff4b 	b.lt	40000eec <not_eol+0x4>  // b.tstop
    40000f08:	1400000a 	b	40000f30 <putc_error>
    40000f0c:	2a0003e2 	mov	w2, w0
    40000f10:	12001c42 	and	w2, w2, #0xff
    40000f14:	52b02003 	mov	w3, #0x81000000            	// #-2130706432
    40000f18:	2a030042 	orr	w2, w2, w3
    40000f1c:	b9000022 	str	w2, [x1]
    40000f20:	100ab882 	adr	x2, 40016630 <spe_console_stack>
    40000f24:	f9400043 	ldr	x3, [x2]
    40000f28:	d2800002 	mov	x2, #0x0                   	// #0
    40000f2c:	d65f03c0 	ret

0000000040000f30 <putc_error>:
    40000f30:	12800000 	mov	w0, #0xffffffff            	// #-1
    40000f34:	100ab7e2 	adr	x2, 40016630 <spe_console_stack>
    40000f38:	f9400043 	ldr	x3, [x2]
    40000f3c:	d2800002 	mov	x2, #0x0                   	// #0
    40000f40:	d65f03c0 	ret

0000000040000f44 <console_spe_flush>:
    40000f44:	f9401400 	ldr	x0, [x0, #40]
    40000f48:	17ffffcd 	b	40000e7c <console_spe_core_flush>

0000000040000f4c <console_spe_getc>:
    40000f4c:	12800000 	mov	w0, #0xffffffff            	// #-1
    40000f50:	d65f03c0 	ret

0000000040000f54 <console_spe_putc>:
    40000f54:	f9401421 	ldr	x1, [x1, #40]
    40000f58:	17ffffd1 	b	40000e9c <console_spe_core_putc>

0000000040000f5c <console_spe_register>:
    40000f5c:	b4000320 	cbz	x0, 40000fc0 <register_fail>
    40000f60:	d53fe202 	mrs	x2, cntps_tval_el1
    40000f64:	f9400001 	ldr	x1, [x0]
    40000f68:	92610021 	and	x1, x1, #0x80000000
    40000f6c:	b40000c1 	cbz	x1, 40000f84 <console_spe_register+0x28>
    40000f70:	d53fe201 	mrs	x1, cntps_tval_el1
    40000f74:	cb010041 	sub	x1, x2, x1
    40000f78:	f140303f 	cmp	x1, #0xc, lsl #12
    40000f7c:	54ffff4b 	b.lt	40000f64 <console_spe_register+0x8>  // b.tstop
    40000f80:	14000010 	b	40000fc0 <register_fail>
    40000f84:	b40001e3 	cbz	x3, 40000fc0 <register_fail>
    40000f88:	f9001460 	str	x0, [x3, #40]
    40000f8c:	aa0303e0 	mov	x0, x3
    40000f90:	90000001 	adrp	x1, 40000000 <bl31_entrypoint>
    40000f94:	913d5021 	add	x1, x1, #0xf54
    40000f98:	f9000801 	str	x1, [x0, #16]
    40000f9c:	90000001 	adrp	x1, 40000000 <bl31_entrypoint>
    40000fa0:	913d3021 	add	x1, x1, #0xf4c
    40000fa4:	f9000c01 	str	x1, [x0, #24]
    40000fa8:	90000001 	adrp	x1, 40000000 <bl31_entrypoint>
    40000fac:	913d1021 	add	x1, x1, #0xf44
    40000fb0:	f9001001 	str	x1, [x0, #32]
    40000fb4:	d28000a1 	mov	x1, #0x5                   	// #5
    40000fb8:	f9000401 	str	x1, [x0, #8]
    40000fbc:	140008a4 	b	4000324c <console_register>

0000000040000fc0 <register_fail>:
    40000fc0:	2a1f03e0 	mov	w0, wzr
    40000fc4:	d65f03c0 	ret

0000000040000fc8 <crash_panic>:
    40000fc8:	940002e3 	bl	40001b54 <plat_panic_handler>

0000000040000fcc <delegate_async_ea>:
    40000fcc:	37c00101 	tbnz	w1, #24, 40000fec <delegate_async_ea+0x20>
    40000fd0:	d34a3022 	ubfx	x2, x1, #10, #3
    40000fd4:	f100005f 	cmp	x2, #0x0
    40000fd8:	540000a1 	b.ne	40000fec <delegate_async_ea+0x20>  // b.any
    40000fdc:	d3401423 	ubfx	x3, x1, #0, #6
    40000fe0:	f100447f 	cmp	x3, #0x11
    40000fe4:	54000041 	b.ne	40000fec <delegate_async_ea+0x20>  // b.any
    40000fe8:	940002d6 	bl	40001b40 <plat_handle_uncontainable_ea>
    40000fec:	1400006f 	b	400011a8 <ea_proceed>

0000000040000ff0 <delegate_sync_ea>:
    40000ff0:	d34b3022 	ubfx	x2, x1, #11, #2
    40000ff4:	f100085f 	cmp	x2, #0x2
    40000ff8:	540000a1 	b.ne	4000100c <delegate_sync_ea+0x1c>  // b.any
    40000ffc:	d3401423 	ubfx	x3, x1, #0, #6
    40001000:	f100407f 	cmp	x3, #0x10
    40001004:	54000041 	b.ne	4000100c <delegate_sync_ea+0x1c>  // b.any
    40001008:	940002ce 	bl	40001b40 <plat_handle_uncontainable_ea>
    4000100c:	14000067 	b	400011a8 <ea_proceed>

0000000040001010 <denver_cluster_pwr_dwn>:
    40001010:	d65f03c0 	ret

0000000040001014 <denver_core_pwr_dwn>:
    40001014:	aa1e03f3 	mov	x19, x30
    40001018:	94000018 	bl	40001078 <denver_disable_ext_debug>
    4000101c:	d65f0260 	ret	x19

0000000040001020 <denver_cpu_reg_dump>:
    40001020:	300a4886 	adr	x6, 40015931 <denver_regs>
    40001024:	d5381028 	mrs	x8, actlr_el1
    40001028:	d65f03c0 	ret

000000004000102c <denver_disable_dco>:
    4000102c:	d5380001 	mrs	x1, midr_el1
    40001030:	d2800802 	mov	x2, #0x40                  	// #64
    40001034:	f2a9c1e2 	movk	x2, #0x4e0f, lsl #16
    40001038:	eb02003f 	cmp	x1, x2
    4000103c:	540001c8 	b.hi	40001074 <denver_disable_dco+0x48>  // b.pmore
    40001040:	aa1e03f2 	mov	x18, x30
    40001044:	940002c0 	bl	40001b44 <plat_my_core_pos>
    40001048:	d2800021 	mov	x1, #0x1                   	// #1
    4000104c:	9ac02021 	lsl	x1, x1, x0
    40001050:	d370bc22 	lsl	x2, x1, #16
    40001054:	d518f042 	msr	s3_0_c15_c0_2, x2
    40001058:	d5033fdf 	isb
    4000105c:	d538f042 	mrs	x2, s3_0_c15_c0_2
    40001060:	d360fc42 	lsr	x2, x2, #32
    40001064:	12003c42 	and	w2, w2, #0xffff
    40001068:	8a010042 	and	x2, x2, x1
    4000106c:	b5ffff82 	cbnz	x2, 4000105c <denver_disable_dco+0x30>
    40001070:	aa1203fe 	mov	x30, x18
    40001074:	d65f03c0 	ret

0000000040001078 <denver_disable_ext_debug>:
    40001078:	d2800020 	mov	x0, #0x1                   	// #1
    4000107c:	d5101380 	msr	osdlr_el1, x0
    40001080:	d5033fdf 	isb
    40001084:	d5033f9f 	dsb	sy
    40001088:	d65f03c0 	ret

000000004000108c <denver_enable_dco>:
    4000108c:	d5380001 	mrs	x1, midr_el1
    40001090:	d2800802 	mov	x2, #0x40                  	// #64
    40001094:	f2a9c1e2 	movk	x2, #0x4e0f, lsl #16
    40001098:	eb02003f 	cmp	x1, x2
    4000109c:	540000e8 	b.hi	400010b8 <denver_enable_dco+0x2c>  // b.pmore
    400010a0:	aa1e03f2 	mov	x18, x30
    400010a4:	940002a8 	bl	40001b44 <plat_my_core_pos>
    400010a8:	d2800021 	mov	x1, #0x1                   	// #1
    400010ac:	9ac02021 	lsl	x1, x1, x0
    400010b0:	d518f041 	msr	s3_0_c15_c0_2, x1
    400010b4:	aa1203fe 	mov	x30, x18
    400010b8:	d65f03c0 	ret

00000000400010bc <denver_reset_func>:
    400010bc:	aa1e03f3 	mov	x19, x30
    400010c0:	d5380160 	mrs	x0, id_afr0_el1
    400010c4:	d2a00021 	mov	x1, #0x10000               	// #65536
    400010c8:	8a010000 	and	x0, x0, x1
    400010cc:	f100001f 	cmp	x0, #0x0
    400010d0:	10073981 	adr	x1, 4000f800 <workaround_bpflush_sync_exception_sp_el0>
    400010d4:	d53ec002 	mrs	x2, vbar_el3
    400010d8:	9a821020 	csel	x0, x1, x2, ne  // ne = any
    400010dc:	d51ec000 	msr	vbar_el3, x0
    400010e0:	d5380000 	mrs	x0, midr_el1
    400010e4:	d2800801 	mov	x1, #0x40                  	// #64
    400010e8:	f2a9c1e1 	movk	x1, #0x4e0f, lsl #16
    400010ec:	eb01001f 	cmp	x0, x1
    400010f0:	d53e1020 	mrs	x0, actlr_el3
    400010f4:	d2814001 	mov	x1, #0xa00                 	// #2560
    400010f8:	d2a000c2 	mov	x2, #0x60000               	// #393216
    400010fc:	9a821023 	csel	x3, x1, x2, ne  // ne = any
    40001100:	aa030000 	orr	x0, x0, x3
    40001104:	d51e1020 	msr	actlr_el3, x0
    40001108:	d5033fdf 	isb
    4000110c:	d5033f9f 	dsb	sy
    40001110:	d5381020 	mrs	x0, actlr_el1
    40001114:	927cec00 	and	x0, x0, #0xfffffffffffffff0
    40001118:	b2400000 	orr	x0, x0, #0x1
    4000111c:	d5181020 	msr	actlr_el1, x0
    40001120:	97ffffdb 	bl	4000108c <denver_enable_dco>
    40001124:	d65f0260 	ret	x19

0000000040001128 <do_cpu_reg_dump>:
    40001128:	aa1e03f0 	mov	x16, x30
    4000112c:	940001bf 	bl	40001828 <get_cpu_ops_ptr>
    40001130:	b4000080 	cbz	x0, 40001140 <do_cpu_reg_dump+0x18>
    40001134:	f9402002 	ldr	x2, [x0, #64]
    40001138:	b4000042 	cbz	x2, 40001140 <do_cpu_reg_dump+0x18>
    4000113c:	d63f0040 	blr	x2
    40001140:	aa1003fe 	mov	x30, x16
    40001144:	d65f03c0 	ret

0000000040001148 <do_panic>:
    40001148:	f81f0fe0 	str	x0, [sp, #-16]!
    4000114c:	d5384240 	mrs	x0, currentel
    40001150:	d3420c00 	ubfx	x0, x0, #2, #2
    40001154:	f1000c1f 	cmp	x0, #0x3
    40001158:	540000e1 	b.ne	40001174 <to_panic_common>  // b.any
    4000115c:	d53e4000 	mrs	x0, spsr_el3
    40001160:	d3420c00 	ubfx	x0, x0, #2, #2
    40001164:	f1000c1f 	cmp	x0, #0x3
    40001168:	54002661 	b.ne	40001634 <elx_panic>  // b.any
    4000116c:	f84107e0 	ldr	x0, [sp], #16
    40001170:	140000b5 	b	40001444 <el3_panic>

0000000040001174 <to_panic_common>:
    40001174:	f84107e0 	ldr	x0, [sp], #16

0000000040001178 <panic_common>:
    40001178:	aa1e03e6 	mov	x6, x30
    4000117c:	94000232 	bl	40001a44 <plat_crash_console_init>
    40001180:	b4000100 	cbz	x0, 400011a0 <_panic_handler>
    40001184:	300a4044 	adr	x4, 4001598d <panic_msg>
    40001188:	97fffef7 	bl	40000d64 <asm_print_str>
    4000118c:	aa0603e4 	mov	x4, x6
    40001190:	d1001084 	sub	x4, x4, #0x4
    40001194:	97fffee6 	bl	40000d2c <asm_print_hex>
    40001198:	97fffef1 	bl	40000d5c <asm_print_newline>
    4000119c:	94000215 	bl	400019f0 <plat_crash_console_flush>

00000000400011a0 <_panic_handler>:
    400011a0:	aa0603fe 	mov	x30, x6
    400011a4:	1400026c 	b	40001b54 <plat_panic_handler>

00000000400011a8 <ea_proceed>:
    400011a8:	f94087e5 	ldr	x5, [sp, #264]
    400011ac:	b4000045 	cbz	x5, 400011b4 <ea_proceed+0xc>
    400011b0:	94000262 	bl	40001b38 <plat_handle_double_fault>
    400011b4:	d53e4002 	mrs	x2, spsr_el3
    400011b8:	d53e4023 	mrs	x3, elr_el3
    400011bc:	a9118fe2 	stp	x2, x3, [sp, #280]
    400011c0:	d53e1104 	mrs	x4, scr_el3
    400011c4:	d53e5205 	mrs	x5, esr_el3
    400011c8:	a91017e4 	stp	x4, x5, [sp, #256]
    400011cc:	aa1f03e2 	mov	x2, xzr
    400011d0:	910003e3 	mov	x3, sp
    400011d4:	d3400084 	ubfx	x4, x4, #0, #1
    400011d8:	f9408be5 	ldr	x5, [sp, #272]
    400011dc:	d50040bf 	msr	spsel, #0x0
    400011e0:	910000bf 	mov	sp, x5
    400011e4:	aa1e03fd 	mov	x29, x30
    400011e8:	910003fc 	mov	x28, sp
    400011ec:	94001532 	bl	400066b4 <plat_ea_handler>
    400011f0:	910003fb 	mov	x27, sp
    400011f4:	eb1b039f 	cmp	x28, x27
    400011f8:	54000080 	b.eq	40001208 <ea_proceed+0x60>  // b.none
    400011fc:	700a37c0 	adr	x0, 400158f7 <excpt_msg_el+0x1c>
    40001200:	d2802481 	mov	x1, #0x124                 	// #292
    40001204:	17fffec9 	b	40000d28 <asm_assert>
    40001208:	d50041bf 	msr	spsel, #0x1
    4000120c:	a9518be1 	ldp	x1, x2, [sp, #280]
    40001210:	d51e4001 	msr	spsr_el3, x1
    40001214:	d51e4022 	msr	elr_el3, x2
    40001218:	a95013e3 	ldp	x3, x4, [sp, #256]
    4000121c:	d51e1103 	msr	scr_el3, x3
    40001220:	d51e5204 	msr	esr_el3, x4
    40001224:	eb1f009f 	cmp	x4, xzr
    40001228:	54000081 	b.ne	40001238 <ea_proceed+0x90>  // b.any
    4000122c:	700a3640 	adr	x0, 400158f7 <excpt_msg_el+0x1c>
    40001230:	d28026c1 	mov	x1, #0x136                 	// #310
    40001234:	17fffebd 	b	40000d28 <asm_assert>
    40001238:	f90087ff 	str	xzr, [sp, #264]
    4000123c:	d65f03a0 	ret	x29

0000000040001240 <el1_sysregs_context_restore>:
    40001240:	a9402809 	ldp	x9, x10, [x0]
    40001244:	d5184009 	msr	spsr_el1, x9
    40001248:	d518402a 	msr	elr_el1, x10
    4000124c:	a941400f 	ldp	x15, x16, [x0, #16]
    40001250:	d518100f 	msr	sctlr_el1, x15
    40001254:	d5182050 	msr	tcr_el1, x16
    40001258:	a9422411 	ldp	x17, x9, [x0, #32]
    4000125c:	d5181051 	msr	cpacr_el1, x17
    40001260:	d51a0009 	msr	csselr_el1, x9
    40001264:	a9432c0a 	ldp	x10, x11, [x0, #48]
    40001268:	d51c410a 	msr	sp_el1, x10
    4000126c:	d518520b 	msr	esr_el1, x11
    40001270:	a944340c 	ldp	x12, x13, [x0, #64]
    40001274:	d518200c 	msr	ttbr0_el1, x12
    40001278:	d518202d 	msr	ttbr1_el1, x13
    4000127c:	a9453c0e 	ldp	x14, x15, [x0, #80]
    40001280:	d518a20e 	msr	mair_el1, x14
    40001284:	d518a30f 	msr	amair_el1, x15
    40001288:	a9464410 	ldp	x16, x17, [x0, #96]
    4000128c:	d5181030 	msr	actlr_el1, x16
    40001290:	d518d091 	msr	tpidr_el1, x17
    40001294:	a9472809 	ldp	x9, x10, [x0, #112]
    40001298:	d51bd049 	msr	tpidr_el0, x9
    4000129c:	d51bd06a 	msr	tpidrro_el0, x10
    400012a0:	a948380d 	ldp	x13, x14, [x0, #128]
    400012a4:	d518740d 	msr	par_el1, x13
    400012a8:	d518600e 	msr	far_el1, x14
    400012ac:	a949400f 	ldp	x15, x16, [x0, #144]
    400012b0:	d518510f 	msr	afsr0_el1, x15
    400012b4:	d5185130 	msr	afsr1_el1, x16
    400012b8:	a94a2411 	ldp	x17, x9, [x0, #160]
    400012bc:	d518d031 	msr	contextidr_el1, x17
    400012c0:	d518c009 	msr	vbar_el1, x9
    400012c4:	a94b300b 	ldp	x11, x12, [x0, #176]
    400012c8:	d51c432b 	msr	spsr_abt, x11
    400012cc:	d51c434c 	msr	spsr_und, x12
    400012d0:	a94c380d 	ldp	x13, x14, [x0, #192]
    400012d4:	d51c430d 	msr	spsr_irq, x13
    400012d8:	d51c436e 	msr	spsr_fiq, x14
    400012dc:	a94d400f 	ldp	x15, x16, [x0, #208]
    400012e0:	d51c300f 	msr	dacr32_el2, x15
    400012e4:	d51c5030 	msr	ifsr32_el2, x16
    400012e8:	a94e2c0a 	ldp	x10, x11, [x0, #224]
    400012ec:	d51be22a 	msr	cntp_ctl_el0, x10
    400012f0:	d51be24b 	msr	cntp_cval_el0, x11
    400012f4:	a94f340c 	ldp	x12, x13, [x0, #240]
    400012f8:	d51be32c 	msr	cntv_ctl_el0, x12
    400012fc:	d51be34d 	msr	cntv_cval_el0, x13
    40001300:	f940800e 	ldr	x14, [x0, #256]
    40001304:	d518e10e 	msr	cntkctl_el1, x14
    40001308:	d65f03c0 	ret

000000004000130c <el1_sysregs_context_save>:
    4000130c:	d5384009 	mrs	x9, spsr_el1
    40001310:	d538402a 	mrs	x10, elr_el1
    40001314:	a9002809 	stp	x9, x10, [x0]
    40001318:	d538100f 	mrs	x15, sctlr_el1
    4000131c:	d5382050 	mrs	x16, tcr_el1
    40001320:	a901400f 	stp	x15, x16, [x0, #16]
    40001324:	d5381051 	mrs	x17, cpacr_el1
    40001328:	d53a0009 	mrs	x9, csselr_el1
    4000132c:	a9022411 	stp	x17, x9, [x0, #32]
    40001330:	d53c410a 	mrs	x10, sp_el1
    40001334:	d538520b 	mrs	x11, esr_el1
    40001338:	a9032c0a 	stp	x10, x11, [x0, #48]
    4000133c:	d538200c 	mrs	x12, ttbr0_el1
    40001340:	d538202d 	mrs	x13, ttbr1_el1
    40001344:	a904340c 	stp	x12, x13, [x0, #64]
    40001348:	d538a20e 	mrs	x14, mair_el1
    4000134c:	d538a30f 	mrs	x15, amair_el1
    40001350:	a9053c0e 	stp	x14, x15, [x0, #80]
    40001354:	d5381030 	mrs	x16, actlr_el1
    40001358:	d538d091 	mrs	x17, tpidr_el1
    4000135c:	a9064410 	stp	x16, x17, [x0, #96]
    40001360:	d53bd049 	mrs	x9, tpidr_el0
    40001364:	d53bd06a 	mrs	x10, tpidrro_el0
    40001368:	a9072809 	stp	x9, x10, [x0, #112]
    4000136c:	d538740d 	mrs	x13, par_el1
    40001370:	d538600e 	mrs	x14, far_el1
    40001374:	a908380d 	stp	x13, x14, [x0, #128]
    40001378:	d538510f 	mrs	x15, afsr0_el1
    4000137c:	d5385130 	mrs	x16, afsr1_el1
    40001380:	a909400f 	stp	x15, x16, [x0, #144]
    40001384:	d538d031 	mrs	x17, contextidr_el1
    40001388:	d538c009 	mrs	x9, vbar_el1
    4000138c:	a90a2411 	stp	x17, x9, [x0, #160]
    40001390:	d53c432b 	mrs	x11, spsr_abt
    40001394:	d53c434c 	mrs	x12, spsr_und
    40001398:	a90b300b 	stp	x11, x12, [x0, #176]
    4000139c:	d53c430d 	mrs	x13, spsr_irq
    400013a0:	d53c436e 	mrs	x14, spsr_fiq
    400013a4:	a90c380d 	stp	x13, x14, [x0, #192]
    400013a8:	d53c300f 	mrs	x15, dacr32_el2
    400013ac:	d53c5030 	mrs	x16, ifsr32_el2
    400013b0:	a90d400f 	stp	x15, x16, [x0, #208]
    400013b4:	d53be22a 	mrs	x10, cntp_ctl_el0
    400013b8:	d53be24b 	mrs	x11, cntp_cval_el0
    400013bc:	a90e2c0a 	stp	x10, x11, [x0, #224]
    400013c0:	d53be32c 	mrs	x12, cntv_ctl_el0
    400013c4:	d53be34d 	mrs	x13, cntv_cval_el0
    400013c8:	a90f340c 	stp	x12, x13, [x0, #240]
    400013cc:	d538e10e 	mrs	x14, cntkctl_el1
    400013d0:	f900800e 	str	x14, [x0, #256]
    400013d4:	d65f03c0 	ret

00000000400013d8 <el3_exit>:
    400013d8:	d5384211 	mrs	x17, spsel
    400013dc:	f100023f 	cmp	x17, #0x0
    400013e0:	54000080 	b.eq	400013f0 <el3_exit+0x18>  // b.none
    400013e4:	100a2ac0 	adr	x0, 4001593c <denver_regs+0xb>
    400013e8:	d28074e1 	mov	x1, #0x3a7                 	// #935
    400013ec:	17fffe4f 	b	40000d28 <asm_assert>
    400013f0:	910003f1 	mov	x17, sp
    400013f4:	d50041bf 	msr	spsel, #0x1
    400013f8:	f9008bf1 	str	x17, [sp, #272]
    400013fc:	f94083f2 	ldr	x18, [sp, #256]
    40001400:	a951c7f0 	ldp	x16, x17, [sp, #280]
    40001404:	d51e1112 	msr	scr_el3, x18
    40001408:	d51e4010 	msr	spsr_el3, x16
    4000140c:	d51e4031 	msr	elr_el3, x17
    40001410:	a953d3f3 	ldp	x19, x20, [sp, #312]
    40001414:	d51e1153 	msr	cptr_el3, x19
    40001418:	f2780273 	ands	x19, x19, #0x100
    4000141c:	54000060 	b.eq	40001428 <sve_not_enabled>  // b.none
    40001420:	d5033fdf 	isb
    40001424:	d51e1214 	msr	zcr_el3, x20

0000000040001428 <sve_not_enabled>:
    40001428:	9400027d 	bl	40001e1c <restore_gp_pmcr_pauth_regs>
    4000142c:	f9407bfe 	ldr	x30, [sp, #240]
    40001430:	d503221f 	esb
    40001434:	f9009bff 	str	xzr, [sp, #304]
    40001438:	d69f03e0 	eret
    4000143c:	d503379f 	dsb	nsh
    40001440:	d5033fdf 	isb

0000000040001444 <el3_panic>:
    40001444:	d50041bf 	msr	spsel, #0x1
    40001448:	9100001f 	mov	sp, x0
    4000144c:	d53ed040 	mrs	x0, tpidr_el3
    40001450:	9100a000 	add	x0, x0, #0x28
    40001454:	d51ed040 	msr	tpidr_el3, x0
    40001458:	f9000401 	str	x1, [x0, #8]
    4000145c:	910003e1 	mov	x1, sp
    40001460:	f9000001 	str	x1, [x0]
    40001464:	700a20c0 	adr	x0, 4001587f <panic_msg>
    40001468:	9100001f 	mov	sp, x0

000000004000146c <do_crash_reporting>:
    4000146c:	d53ed040 	mrs	x0, tpidr_el3
    40001470:	a9010c02 	stp	x2, x3, [x0, #16]
    40001474:	a9021404 	stp	x4, x5, [x0, #32]
    40001478:	a9037806 	stp	x6, x30, [x0, #48]
    4000147c:	94000172 	bl	40001a44 <plat_crash_console_init>
    40001480:	b4ffda40 	cbz	x0, 40000fc8 <crash_panic>
    40001484:	910003e4 	mov	x4, sp
    40001488:	97fffe37 	bl	40000d64 <asm_print_str>
    4000148c:	d2800080 	mov	x0, #0x4                   	// #4
    40001490:	9400022d 	bl	40001d44 <print_alignment>
    40001494:	d53ed040 	mrs	x0, tpidr_el3
    40001498:	f9401c04 	ldr	x4, [x0, #56]
    4000149c:	97fffe24 	bl	40000d2c <asm_print_hex>
    400014a0:	97fffe2f 	bl	40000d5c <asm_print_newline>
    400014a4:	d53ed040 	mrs	x0, tpidr_el3
    400014a8:	f9001c07 	str	x7, [x0, #56]
    400014ac:	100a0d26 	adr	x6, 40015650 <gp_regs>
    400014b0:	94000281 	bl	40001eb4 <size_controlled_print>
    400014b4:	940002c0 	bl	40001fb4 <str_in_crash_buf_print>
    400014b8:	d53ed040 	mrs	x0, tpidr_el3
    400014bc:	a9004410 	stp	x16, x17, [x0]
    400014c0:	a9014c12 	stp	x18, x19, [x0, #16]
    400014c4:	a9025414 	stp	x20, x21, [x0, #32]
    400014c8:	a9035c16 	stp	x22, x23, [x0, #48]
    400014cc:	9400027a 	bl	40001eb4 <size_controlled_print>
    400014d0:	d53ed040 	mrs	x0, tpidr_el3
    400014d4:	a9006418 	stp	x24, x25, [x0]
    400014d8:	a9016c1a 	stp	x26, x27, [x0, #16]
    400014dc:	a902741c 	stp	x28, x29, [x0, #32]
    400014e0:	94000275 	bl	40001eb4 <size_controlled_print>

00000000400014e4 <print_el3_sys_regs>:
    400014e4:	700a0ec6 	adr	x6, 400156bf <el3_sys_regs>
    400014e8:	d53e1108 	mrs	x8, scr_el3
    400014ec:	d53e1009 	mrs	x9, sctlr_el3
    400014f0:	d53e114a 	mrs	x10, cptr_el3
    400014f4:	d53e204b 	mrs	x11, tcr_el3
    400014f8:	d53b422c 	mrs	x12, daif
    400014fc:	d53ea20d 	mrs	x13, mair_el3
    40001500:	d53e400e 	mrs	x14, spsr_el3
    40001504:	d53e402f 	mrs	x15, elr_el3
    40001508:	940002ab 	bl	40001fb4 <str_in_crash_buf_print>
    4000150c:	d53e2008 	mrs	x8, ttbr0_el3
    40001510:	d53e5209 	mrs	x9, esr_el3
    40001514:	d53e600a 	mrs	x10, far_el3
    40001518:	940002a7 	bl	40001fb4 <str_in_crash_buf_print>
    4000151c:	100a1006 	adr	x6, 4001571c <non_el3_sys_regs>
    40001520:	d5384008 	mrs	x8, spsr_el1
    40001524:	d5384029 	mrs	x9, elr_el1
    40001528:	d53c432a 	mrs	x10, spsr_abt
    4000152c:	d53c434b 	mrs	x11, spsr_und
    40001530:	d53c430c 	mrs	x12, spsr_irq
    40001534:	d53c436d 	mrs	x13, spsr_fiq
    40001538:	d538100e 	mrs	x14, sctlr_el1
    4000153c:	d538102f 	mrs	x15, actlr_el1
    40001540:	9400029d 	bl	40001fb4 <str_in_crash_buf_print>
    40001544:	d5381048 	mrs	x8, cpacr_el1
    40001548:	d53a0009 	mrs	x9, csselr_el1
    4000154c:	d53c410a 	mrs	x10, sp_el1
    40001550:	d538520b 	mrs	x11, esr_el1
    40001554:	d538200c 	mrs	x12, ttbr0_el1
    40001558:	d538202d 	mrs	x13, ttbr1_el1
    4000155c:	d538a20e 	mrs	x14, mair_el1
    40001560:	d538a30f 	mrs	x15, amair_el1
    40001564:	94000294 	bl	40001fb4 <str_in_crash_buf_print>
    40001568:	d5382048 	mrs	x8, tcr_el1
    4000156c:	d538d089 	mrs	x9, tpidr_el1
    40001570:	d53bd04a 	mrs	x10, tpidr_el0
    40001574:	d53bd06b 	mrs	x11, tpidrro_el0
    40001578:	d538740c 	mrs	x12, par_el1
    4000157c:	d53800ad 	mrs	x13, mpidr_el1
    40001580:	d538510e 	mrs	x14, afsr0_el1
    40001584:	d538512f 	mrs	x15, afsr1_el1
    40001588:	9400028b 	bl	40001fb4 <str_in_crash_buf_print>
    4000158c:	d538d028 	mrs	x8, contextidr_el1
    40001590:	d538c009 	mrs	x9, vbar_el1
    40001594:	d53be22a 	mrs	x10, cntp_ctl_el0
    40001598:	d53be24b 	mrs	x11, cntp_cval_el0
    4000159c:	d53be32c 	mrs	x12, cntv_ctl_el0
    400015a0:	d53be34d 	mrs	x13, cntv_cval_el0
    400015a4:	d538e10e 	mrs	x14, cntkctl_el1
    400015a8:	d538410f 	mrs	x15, sp_el0
    400015ac:	94000282 	bl	40001fb4 <str_in_crash_buf_print>
    400015b0:	d538c108 	mrs	x8, isr_el1
    400015b4:	94000280 	bl	40001fb4 <str_in_crash_buf_print>
    400015b8:	100a1586 	adr	x6, 40015868 <aarch32_regs>
    400015bc:	d53c3008 	mrs	x8, dacr32_el2
    400015c0:	d53c5029 	mrs	x9, ifsr32_el2
    400015c4:	9400027c 	bl	40001fb4 <str_in_crash_buf_print>
    400015c8:	97fffed8 	bl	40001128 <do_cpu_reg_dump>
    400015cc:	9400027a 	bl	40001fb4 <str_in_crash_buf_print>
    400015d0:	d2840010 	mov	x16, #0x2000                	// #8192
    400015d4:	f2a07110 	movk	x16, #0x388, lsl #16
    400015d8:	100a0006 	adr	x6, 400155d8 <gicc_regs>
    400015dc:	b9401a08 	ldr	w8, [x16, #24]
    400015e0:	b9402a09 	ldr	w9, [x16, #40]
    400015e4:	b940020a 	ldr	w10, [x16]
    400015e8:	94000273 	bl	40001fb4 <str_in_crash_buf_print>
    400015ec:	d2820010 	mov	x16, #0x1000                	// #4096
    400015f0:	f2a07110 	movk	x16, #0x388, lsl #16
    400015f4:	91080207 	add	x7, x16, #0x200
    400015f8:	500a0004 	adr	x4, 400155fa <gicd_pend_reg>
    400015fc:	97fffdda 	bl	40000d64 <asm_print_str>
    40001600:	cb1000e4 	sub	x4, x7, x16
    40001604:	f10a009f 	cmp	x4, #0x280
    40001608:	54000120 	b.eq	4000162c <print_el3_sys_regs+0x148>  // b.none
    4000160c:	97fffdc8 	bl	40000d2c <asm_print_hex>
    40001610:	100a0144 	adr	x4, 40015638 <spacer>
    40001614:	97fffdd4 	bl	40000d64 <asm_print_str>
    40001618:	b84044e4 	ldr	w4, [x7], #4
    4000161c:	97fffdc4 	bl	40000d2c <asm_print_hex>
    40001620:	500a00a4 	adr	x4, 40015636 <newline>
    40001624:	97fffdd0 	bl	40000d64 <asm_print_str>
    40001628:	17fffff6 	b	40001600 <print_el3_sys_regs+0x11c>
    4000162c:	940000f1 	bl	400019f0 <plat_crash_console_flush>
    40001630:	94000149 	bl	40001b54 <plat_panic_handler>

0000000040001634 <elx_panic>:
    40001634:	d50041bf 	msr	spsel, #0x1
    40001638:	aa0003e8 	mov	x8, x0
    4000163c:	700a14e4 	adr	x4, 400158db <excpt_msg_el>
    40001640:	97fffdc9 	bl	40000d64 <asm_print_str>
    40001644:	9100c100 	add	x0, x8, #0x30
    40001648:	94000111 	bl	40001a8c <plat_crash_console_putc>
    4000164c:	97fffdc4 	bl	40000d5c <asm_print_newline>
    40001650:	100a0006 	adr	x6, 40015650 <gp_regs>
    40001654:	910003e7 	mov	x7, sp

0000000040001658 <print_next>:
    40001658:	394000c4 	ldrb	w4, [x6]
    4000165c:	34000144 	cbz	w4, 40001684 <print_x30>
    40001660:	aa0603e4 	mov	x4, x6
    40001664:	97fffdc0 	bl	40000d64 <asm_print_str>
    40001668:	cb060080 	sub	x0, x4, x6
    4000166c:	aa0403e6 	mov	x6, x4
    40001670:	940001b5 	bl	40001d44 <print_alignment>
    40001674:	f84084e4 	ldr	x4, [x7], #8
    40001678:	97fffdad 	bl	40000d2c <asm_print_hex>
    4000167c:	97fffdb8 	bl	40000d5c <asm_print_newline>
    40001680:	17fffff6 	b	40001658 <print_next>

0000000040001684 <print_x30>:
    40001684:	700a1284 	adr	x4, 400158d7 <x30_msg>
    40001688:	97fffdb7 	bl	40000d64 <asm_print_str>
    4000168c:	d2800080 	mov	x0, #0x4                   	// #4
    40001690:	940001ad 	bl	40001d44 <print_alignment>
    40001694:	f94000e4 	ldr	x4, [x7]
    40001698:	f100091f 	cmp	x8, #0x2
    4000169c:	5400022b 	b.lt	400016e0 <from_el1>  // b.tstop
    400016a0:	d53c1002 	mrs	x2, sctlr_el2
    400016a4:	d53c2041 	mrs	x1, tcr_el2

00000000400016a8 <test_pauth>:
    400016a8:	f262045f 	tst	x2, #0xc0000000
    400016ac:	540000e0 	b.eq	400016c8 <no_pauth>  // b.none
    400016b0:	92401421 	and	x1, x1, #0x3f
    400016b4:	d1010021 	sub	x1, x1, #0x40
    400016b8:	cb0103e1 	neg	x1, x1
    400016bc:	92800002 	mov	x2, #0xffffffffffffffff    	// #-1
    400016c0:	9ac12042 	lsl	x2, x2, x1
    400016c4:	8a220084 	bic	x4, x4, x2

00000000400016c8 <no_pauth>:
    400016c8:	97fffd99 	bl	40000d2c <asm_print_hex>
    400016cc:	97fffda4 	bl	40000d5c <asm_print_newline>
    400016d0:	d53ed040 	mrs	x0, tpidr_el3
    400016d4:	9100a000 	add	x0, x0, #0x28
    400016d8:	d51ed040 	msr	tpidr_el3, x0
    400016dc:	17ffff82 	b	400014e4 <print_el3_sys_regs>

00000000400016e0 <from_el1>:
    400016e0:	d5381002 	mrs	x2, sctlr_el1
    400016e4:	d5382041 	mrs	x1, tcr_el1
    400016e8:	17fffff0 	b	400016a8 <test_pauth>

00000000400016ec <enable_mmu_direct_el3>:
    400016ec:	d53e1001 	mrs	x1, sctlr_el3
    400016f0:	f240003f 	tst	x1, #0x1
    400016f4:	54000080 	b.eq	40001704 <enable_mmu_direct_el3+0x18>  // b.none
    400016f8:	300a1600 	adr	x0, 400159b9 <panic_msg+0x2c>
    400016fc:	d2800541 	mov	x1, #0x2a                  	// #42
    40001700:	17fffd8a 	b	40000d28 <asm_assert>
    40001704:	d50e871f 	tlbi	alle3
    40001708:	aa0003e7 	mov	x7, x0
    4000170c:	900000e0 	adrp	x0, 4001d000 <cpu_state+0x668>
    40001710:	91138000 	add	x0, x0, #0x4e0
    40001714:	f9400001 	ldr	x1, [x0]
    40001718:	d51ea201 	msr	mair_el3, x1
    4000171c:	f9400402 	ldr	x2, [x0, #8]
    40001720:	d51e2042 	msr	tcr_el3, x2
    40001724:	f9400803 	ldr	x3, [x0, #16]
    40001728:	d51e2003 	msr	ttbr0_el3, x3
    4000172c:	d5033b9f 	dsb	ish
    40001730:	d5033fdf 	isb
    40001734:	d53e1004 	mrs	x4, sctlr_el3
    40001738:	d28000a5 	mov	x5, #0x5                   	// #5
    4000173c:	f2a00105 	movk	x5, #0x8, lsl #16
    40001740:	aa050084 	orr	x4, x4, x5
    40001744:	927df885 	and	x5, x4, #0xfffffffffffffffb
    40001748:	f24000ff 	tst	x7, #0x1
    4000174c:	9a8410a4 	csel	x4, x5, x4, ne  // ne = any
    40001750:	d51e1004 	msr	sctlr_el3, x4
    40001754:	d5033fdf 	isb
    40001758:	d65f03c0 	ret

000000004000175c <enter_lower_el_async_ea>:
    4000175c:	f9007bfe 	str	x30, [sp, #240]

0000000040001760 <handle_lower_el_async_ea>:
    40001760:	9400015a 	bl	40001cc8 <prepare_el3_entry>
    40001764:	d2800000 	mov	x0, #0x0                   	// #0
    40001768:	d53e5201 	mrs	x1, esr_el3
    4000176c:	97fffe18 	bl	40000fcc <delegate_async_ea>
    40001770:	d50040bf 	msr	spsel, #0x0
    40001774:	17ffff19 	b	400013d8 <el3_exit>

0000000040001778 <enter_lower_el_sync_ea>:
    40001778:	f9007bfe 	str	x30, [sp, #240]
    4000177c:	d53e521e 	mrs	x30, esr_el3
    40001780:	d35a7fde 	ubfx	x30, x30, #26, #6
    40001784:	f10083df 	cmp	x30, #0x20
    40001788:	540001a0 	b.eq	400017bc <enter_lower_el_sync_ea+0x44>  // b.none
    4000178c:	f10093df 	cmp	x30, #0x24
    40001790:	54000160 	b.eq	400017bc <enter_lower_el_sync_ea+0x44>  // b.none
    40001794:	a90007e0 	stp	x0, x1, [sp]
    40001798:	a9010fe2 	stp	x2, x3, [sp, #16]
    4000179c:	a90217e4 	stp	x4, x5, [sp, #32]
    400017a0:	94000022 	bl	40001828 <get_cpu_ops_ptr>
    400017a4:	f9401400 	ldr	x0, [x0, #40]
    400017a8:	b40001a0 	cbz	x0, 400017dc <enter_lower_el_sync_ea+0x64>
    400017ac:	d53e5201 	mrs	x1, esr_el3
    400017b0:	d35a7c21 	ubfx	x1, x1, #26, #6
    400017b4:	d63f0000 	blr	x0
    400017b8:	14000009 	b	400017dc <enter_lower_el_sync_ea+0x64>
    400017bc:	d53e521e 	mrs	x30, esr_el3
    400017c0:	3648015e 	tbz	w30, #9, 400017e8 <enter_lower_el_sync_ea+0x70>
    400017c4:	94000141 	bl	40001cc8 <prepare_el3_entry>
    400017c8:	d2800020 	mov	x0, #0x1                   	// #1
    400017cc:	d53e5201 	mrs	x1, esr_el3
    400017d0:	97fffe08 	bl	40000ff0 <delegate_sync_ea>
    400017d4:	d50040bf 	msr	spsel, #0x0
    400017d8:	17ffff00 	b	400013d8 <el3_exit>
    400017dc:	a94007e0 	ldp	x0, x1, [sp]
    400017e0:	a9410fe2 	ldp	x2, x3, [sp, #16]
    400017e4:	a94217e4 	ldp	x4, x5, [sp, #32]
    400017e8:	f9407bfe 	ldr	x30, [sp, #240]
    400017ec:	9400016b 	bl	40001d98 <report_unhandled_exception>

00000000400017f0 <flush_dcache_range>:
    400017f0:	b40001a1 	cbz	x1, 40001824 <exit_loop_civac>
    400017f4:	d53b0023 	mrs	x3, ctr_el0
    400017f8:	d3504c63 	ubfx	x3, x3, #16, #4
    400017fc:	d2800082 	mov	x2, #0x4                   	// #4
    40001800:	9ac32042 	lsl	x2, x2, x3
    40001804:	8b010001 	add	x1, x0, x1
    40001808:	d1000443 	sub	x3, x2, #0x1
    4000180c:	8a230000 	bic	x0, x0, x3

0000000040001810 <loop_civac>:
    40001810:	d50b7e20 	dc	civac, x0
    40001814:	8b020000 	add	x0, x0, x2
    40001818:	eb01001f 	cmp	x0, x1
    4000181c:	54ffffa3 	b.cc	40001810 <loop_civac>  // b.lo, b.ul, b.last
    40001820:	d5033f9f 	dsb	sy

0000000040001824 <exit_loop_civac>:
    40001824:	d65f03c0 	ret

0000000040001828 <get_cpu_ops_ptr>:
    40001828:	d5380002 	mrs	x2, midr_el1
    4000182c:	d29ffe03 	mov	x3, #0xfff0                	// #65520
    40001830:	f2bfe003 	movk	x3, #0xff00, lsl #16
    40001834:	0a030042 	and	w2, w2, w3
    40001838:	100a2d05 	adr	x5, 40015dd8 <__cb_func_sdei_cpu_on_initpsci_cpu_on_finish>
    4000183c:	d2800000 	mov	x0, #0x0                   	// #0
    40001840:	100a1644 	adr	x4, 40015b08 <__CPU_OPS_START__>
    40001844:	eb05009f 	cmp	x4, x5
    40001848:	54000180 	b.eq	40001878 <search_def_ptr>  // b.none
    4000184c:	f8448481 	ldr	x1, [x4], #72
    40001850:	0a030021 	and	w1, w1, w3
    40001854:	6b02003f 	cmp	w1, w2
    40001858:	54ffff61 	b.ne	40001844 <get_cpu_ops_ptr+0x1c>  // b.any
    4000185c:	d1012080 	sub	x0, x4, #0x48
    40001860:	f100001f 	cmp	x0, #0x0
    40001864:	54000081 	b.ne	40001874 <get_cpu_ops_ptr+0x4c>  // b.any
    40001868:	500a0540 	adr	x0, 40015912 <excpt_msg_el+0x37>
    4000186c:	d28017c1 	mov	x1, #0xbe                  	// #190
    40001870:	17fffd2e 	b	40000d28 <asm_assert>
    40001874:	d65f03c0 	ret

0000000040001878 <search_def_ptr>:
    40001878:	d65f03c0 	ret

000000004000187c <handle_lower_el_ea_esb>:
    4000187c:	d2800040 	mov	x0, #0x2                   	// #2
    40001880:	d538c121 	mrs	x1, disr_el1
    40001884:	17fffe49 	b	400011a8 <ea_proceed>

0000000040001888 <init_cpu_data_ptr>:
    40001888:	aa1e03ea 	mov	x10, x30
    4000188c:	940000ae 	bl	40001b44 <plat_my_core_pos>
    40001890:	97fffd20 	bl	40000d10 <_cpu_data_by_index>
    40001894:	d51ed040 	msr	tpidr_el3, x0
    40001898:	d65f0140 	ret	x10

000000004000189c <init_cpu_ops>:
    4000189c:	d53ed046 	mrs	x6, tpidr_el3
    400018a0:	f94008c0 	ldr	x0, [x6, #16]
    400018a4:	b5000140 	cbnz	x0, 400018cc <init_cpu_ops+0x30>
    400018a8:	aa1e03ea 	mov	x10, x30
    400018ac:	97ffffdf 	bl	40001828 <get_cpu_ops_ptr>
    400018b0:	f100001f 	cmp	x0, #0x0
    400018b4:	54000081 	b.ne	400018c4 <init_cpu_ops+0x28>  // b.any
    400018b8:	500a02c0 	adr	x0, 40015912 <excpt_msg_el+0x37>
    400018bc:	d2800d01 	mov	x1, #0x68                  	// #104
    400018c0:	17fffd1a 	b	40000d28 <asm_assert>
    400018c4:	f8010cc0 	str	x0, [x6, #16]!
    400018c8:	aa0a03fe 	mov	x30, x10
    400018cc:	d65f03c0 	ret

00000000400018d0 <inv_dcache_range>:
    400018d0:	b40001a1 	cbz	x1, 40001904 <exit_loop_ivac>
    400018d4:	d53b0023 	mrs	x3, ctr_el0
    400018d8:	d3504c63 	ubfx	x3, x3, #16, #4
    400018dc:	d2800082 	mov	x2, #0x4                   	// #4
    400018e0:	9ac32042 	lsl	x2, x2, x3
    400018e4:	8b010001 	add	x1, x0, x1
    400018e8:	d1000443 	sub	x3, x2, #0x1
    400018ec:	8a230000 	bic	x0, x0, x3

00000000400018f0 <loop_ivac>:
    400018f0:	d5087620 	dc	ivac, x0
    400018f4:	8b020000 	add	x0, x0, x2
    400018f8:	eb01001f 	cmp	x0, x1
    400018fc:	54ffffa3 	b.cc	400018f0 <loop_ivac>  // b.lo, b.ul, b.last
    40001900:	d5033f9f 	dsb	sy

0000000040001904 <exit_loop_ivac>:
    40001904:	d65f03c0 	ret

0000000040001908 <longjmp>:
    40001908:	a9467c07 	ldp	x7, xzr, [x0, #96]
    4000190c:	910003f3 	mov	x19, sp
    40001910:	eb1300ff 	cmp	x7, x19
    40001914:	5400008a 	b.ge	40001924 <longjmp+0x1c>  // b.tcont
    40001918:	300a09a0 	adr	x0, 40015a4d <panic_msg+0xc0>
    4000191c:	d28005c1 	mov	x1, #0x2e                  	// #46
    40001920:	17fffd02 	b	40000d28 <asm_assert>
    40001924:	a9405013 	ldp	x19, x20, [x0]
    40001928:	a9415815 	ldp	x21, x22, [x0, #16]
    4000192c:	a9426017 	ldp	x23, x24, [x0, #32]
    40001930:	a9436819 	ldp	x25, x26, [x0, #48]
    40001934:	a944701b 	ldp	x27, x28, [x0, #64]
    40001938:	a945781d 	ldp	x29, x30, [x0, #80]
    4000193c:	910000ff 	mov	sp, x7
    40001940:	ea010020 	ands	x0, x1, x1
    40001944:	9a801400 	cinc	x0, x0, eq  // eq = none
    40001948:	d65f03c0 	ret

000000004000194c <nvg_cache_inval_all>:
    4000194c:	d538f3e0 	mrs	x0, s3_0_c15_c3_7
    40001950:	d65f03c0 	ret

0000000040001954 <nvg_get_result>:
    40001954:	d538f160 	mrs	x0, s3_0_c15_c1_3
    40001958:	d65f03c0 	ret

000000004000195c <nvg_set_request>:
    4000195c:	d518f140 	msr	s3_0_c15_c1_2, x0
    40001960:	d65f03c0 	ret

0000000040001964 <nvg_set_request_data>:
    40001964:	d518f140 	msr	s3_0_c15_c1_2, x0
    40001968:	d518f161 	msr	s3_0_c15_c1_3, x1
    4000196c:	d65f03c0 	ret

0000000040001970 <opteed_enter_sp>:
    40001970:	910003e3 	mov	x3, sp
    40001974:	f9000003 	str	x3, [x0]
    40001978:	d10183ff 	sub	sp, sp, #0x60
    4000197c:	a90053f3 	stp	x19, x20, [sp]
    40001980:	a9015bf5 	stp	x21, x22, [sp, #16]
    40001984:	a90263f7 	stp	x23, x24, [sp, #32]
    40001988:	a9036bf9 	stp	x25, x26, [sp, #48]
    4000198c:	a90473fb 	stp	x27, x28, [sp, #64]
    40001990:	a9057bfd 	stp	x29, x30, [sp, #80]
    40001994:	17fffe91 	b	400013d8 <el3_exit>

0000000040001998 <opteed_exit_sp>:
    40001998:	9100001f 	mov	sp, x0
    4000199c:	a97a5013 	ldp	x19, x20, [x0, #-96]
    400019a0:	a97b5815 	ldp	x21, x22, [x0, #-80]
    400019a4:	a97c6017 	ldp	x23, x24, [x0, #-64]
    400019a8:	a97d6819 	ldp	x25, x26, [x0, #-48]
    400019ac:	a97e701b 	ldp	x27, x28, [x0, #-32]
    400019b0:	a97f781d 	ldp	x29, x30, [x0, #-16]
    400019b4:	aa0103e0 	mov	x0, x1
    400019b8:	d65f03c0 	ret

00000000400019bc <plat_core_pos_by_mpidr>:
    400019bc:	d340fc01 	lsr	x1, x0, #0
    400019c0:	92401c21 	and	x1, x1, #0xff
    400019c4:	d348fc02 	lsr	x2, x0, #8
    400019c8:	92401c42 	and	x2, x2, #0xff
    400019cc:	92800000 	mov	x0, #0xffffffffffffffff    	// #-1
    400019d0:	f100043f 	cmp	x1, #0x1
    400019d4:	540000cc 	b.gt	400019ec <plat_core_pos_by_mpidr+0x30>
    400019d8:	f1000c5f 	cmp	x2, #0x3
    400019dc:	5400008c 	b.gt	400019ec <plat_core_pos_by_mpidr+0x30>
    400019e0:	d2800044 	mov	x4, #0x2                   	// #2
    400019e4:	9b027c84 	mul	x4, x4, x2
    400019e8:	8b040020 	add	x0, x1, x4
    400019ec:	d65f03c0 	ret

00000000400019f0 <plat_crash_console_flush>:
    400019f0:	b00000a1 	adrp	x1, 40016000 <__RODATA_END__>
    400019f4:	9117a021 	add	x1, x1, #0x5e8
    400019f8:	a9003c3e 	stp	x30, x15, [x1]
    400019fc:	a9014430 	stp	x16, x17, [x1, #16]
    40001a00:	900000ef 	adrp	x15, 4001d000 <cpu_state+0x668>
    40001a04:	f9426def 	ldr	x15, [x15, #1240]

0000000040001a08 <flush_loop>:
    40001a08:	b400014f 	cbz	x15, 40001a30 <flush_done>
    40001a0c:	b94009e1 	ldr	w1, [x15, #8]
    40001a10:	721e003f 	tst	w1, #0x4
    40001a14:	540000a0 	b.eq	40001a28 <flush_continue>  // b.none
    40001a18:	f94011e2 	ldr	x2, [x15, #32]
    40001a1c:	b4000062 	cbz	x2, 40001a28 <flush_continue>
    40001a20:	aa0f03e0 	mov	x0, x15
    40001a24:	d63f0040 	blr	x2

0000000040001a28 <flush_continue>:
    40001a28:	f94001ef 	ldr	x15, [x15]
    40001a2c:	17fffff7 	b	40001a08 <flush_loop>

0000000040001a30 <flush_done>:
    40001a30:	b00000a1 	adrp	x1, 40016000 <__RODATA_END__>
    40001a34:	9117a021 	add	x1, x1, #0x5e8
    40001a38:	a9403c3e 	ldp	x30, x15, [x1]
    40001a3c:	a9414430 	ldp	x16, x17, [x1, #16]
    40001a40:	d65f03c0 	ret

0000000040001a44 <plat_crash_console_init>:
    40001a44:	aa1e03e4 	mov	x4, x30
    40001a48:	d2800003 	mov	x3, #0x0                   	// #0
    40001a4c:	d53e1001 	mrs	x1, sctlr_el3
    40001a50:	f27e003f 	tst	x1, #0x4
    40001a54:	54000080 	b.eq	40001a64 <skip_spinlock>  // b.none
    40001a58:	b00000a0 	adrp	x0, 40016000 <__RODATA_END__>
    40001a5c:	911ef000 	add	x0, x0, #0x7bc
    40001a60:	9400014b 	bl	40001f8c <spin_lock>

0000000040001a64 <skip_spinlock>:
    40001a64:	b00000a1 	adrp	x1, 40016000 <__RODATA_END__>
    40001a68:	911f0421 	add	x1, x1, #0x7c1
    40001a6c:	08dffc22 	ldarb	w2, [x1]
    40001a70:	7100005f 	cmp	w2, #0x0
    40001a74:	54000061 	b.ne	40001a80 <init_error>  // b.any
    40001a78:	d2800023 	mov	x3, #0x1                   	// #1
    40001a7c:	089ffc23 	stlrb	w3, [x1]

0000000040001a80 <init_error>:
    40001a80:	9400014b 	bl	40001fac <spin_unlock>
    40001a84:	aa0303e0 	mov	x0, x3
    40001a88:	d65f0080 	ret	x4

0000000040001a8c <plat_crash_console_putc>:
    40001a8c:	b00000a1 	adrp	x1, 40016000 <__RODATA_END__>
    40001a90:	9117a021 	add	x1, x1, #0x5e8
    40001a94:	a9003c2e 	stp	x14, x15, [x1]
    40001a98:	a9014430 	stp	x16, x17, [x1, #16]
    40001a9c:	f900103e 	str	x30, [x1, #32]
    40001aa0:	2a0003ee 	mov	w14, w0
    40001aa4:	900000ef 	adrp	x15, 4001d000 <cpu_state+0x668>
    40001aa8:	f9426def 	ldr	x15, [x15, #1240]

0000000040001aac <putc_loop>:
    40001aac:	b400026f 	cbz	x15, 40001af8 <putc_done>
    40001ab0:	b94009e1 	ldr	w1, [x15, #8]
    40001ab4:	721e003f 	tst	w1, #0x4
    40001ab8:	540001c0 	b.eq	40001af0 <putc_continue>  // b.none
    40001abc:	f94009e2 	ldr	x2, [x15, #16]
    40001ac0:	b4000182 	cbz	x2, 40001af0 <putc_continue>
    40001ac4:	710029df 	cmp	w14, #0xa
    40001ac8:	540000e1 	b.ne	40001ae4 <putc>  // b.any
    40001acc:	7218003f 	tst	w1, #0x100
    40001ad0:	540000a0 	b.eq	40001ae4 <putc>  // b.none
    40001ad4:	aa0f03e1 	mov	x1, x15
    40001ad8:	528001a0 	mov	w0, #0xd                   	// #13
    40001adc:	d63f0040 	blr	x2
    40001ae0:	f94009e2 	ldr	x2, [x15, #16]

0000000040001ae4 <putc>:
    40001ae4:	aa0f03e1 	mov	x1, x15
    40001ae8:	2a0e03e0 	mov	w0, w14
    40001aec:	d63f0040 	blr	x2

0000000040001af0 <putc_continue>:
    40001af0:	f94001ef 	ldr	x15, [x15]
    40001af4:	17ffffee 	b	40001aac <putc_loop>

0000000040001af8 <putc_done>:
    40001af8:	b00000a1 	adrp	x1, 40016000 <__RODATA_END__>
    40001afc:	9117a021 	add	x1, x1, #0x5e8
    40001b00:	a9403c2e 	ldp	x14, x15, [x1]
    40001b04:	a9414430 	ldp	x16, x17, [x1, #16]
    40001b08:	f940103e 	ldr	x30, [x1, #32]
    40001b0c:	d65f03c0 	ret

0000000040001b10 <plat_get_my_entrypoint>:
    40001b10:	100a5801 	adr	x1, 40016610 <tegra_sec_entry_point>
    40001b14:	f9400020 	ldr	x0, [x1]
    40001b18:	d65f03c0 	ret

0000000040001b1c <plat_get_my_stack>:
    40001b1c:	aa1e03ea 	mov	x10, x30
    40001b20:	94000009 	bl	40001b44 <plat_my_core_pos>
    40001b24:	b00000a2 	adrp	x2, 40016000 <__RODATA_END__>
    40001b28:	91300042 	add	x2, x2, #0xc00
    40001b2c:	d2808001 	mov	x1, #0x400                 	// #1024
    40001b30:	9b010800 	madd	x0, x0, x1, x2
    40001b34:	d65f0140 	ret	x10

0000000040001b38 <plat_handle_double_fault>:
    40001b38:	14000098 	b	40001d98 <report_unhandled_exception>

0000000040001b3c <plat_handle_el3_ea>:
    40001b3c:	14000097 	b	40001d98 <report_unhandled_exception>

0000000040001b40 <plat_handle_uncontainable_ea>:
    40001b40:	14000096 	b	40001d98 <report_unhandled_exception>

0000000040001b44 <plat_my_core_pos>:
    40001b44:	aa1e03e8 	mov	x8, x30
    40001b48:	d53800a0 	mrs	x0, mpidr_el1
    40001b4c:	97ffff9c 	bl	400019bc <plat_core_pos_by_mpidr>
    40001b50:	d65f0100 	ret	x8

0000000040001b54 <plat_panic_handler>:
    40001b54:	d503207f 	wfi
    40001b58:	17ffffff 	b	40001b54 <plat_panic_handler>

0000000040001b5c <plat_reset_handler>:
    40001b5c:	10ff2532 	adr	x18, 40000000 <bl31_entrypoint>
    40001b60:	d2a80011 	mov	x17, #0x40000000            	// #1073741824
    40001b64:	eb11025f 	cmp	x18, x17
    40001b68:	54000260 	b.eq	40001bb4 <_end+0xc>  // b.none
    40001b6c:	aa1103e0 	mov	x0, x17
    40001b70:	aa1203e1 	mov	x1, x18
    40001b74:	100b6462 	adr	x2, 40018800 <__STACKS_END__>
    40001b78:	cb120042 	sub	x2, x2, x18

0000000040001b7c <_loop16>:
    40001b7c:	f100405f 	cmp	x2, #0x10
    40001b80:	540000a3 	b.cc	40001b94 <_loop1>  // b.lo, b.ul, b.last
    40001b84:	a8c11023 	ldp	x3, x4, [x1], #16
    40001b88:	a8811003 	stp	x3, x4, [x0], #16
    40001b8c:	d1004042 	sub	x2, x2, #0x10
    40001b90:	17fffffb 	b	40001b7c <_loop16>

0000000040001b94 <_loop1>:
    40001b94:	b40000a2 	cbz	x2, 40001ba8 <_end>
    40001b98:	38401423 	ldrb	w3, [x1], #1
    40001b9c:	38001403 	strb	w3, [x0], #1
    40001ba0:	f1000442 	subs	x2, x2, #0x1
    40001ba4:	54ffff81 	b.ne	40001b94 <_loop1>  // b.any

0000000040001ba8 <_end>:
    40001ba8:	aa1403e0 	mov	x0, x20
    40001bac:	aa1503e1 	mov	x1, x21
    40001bb0:	d61f0220 	br	x17
    40001bb4:	100a5371 	adr	x17, 40016620 <tegra_bl31_phys_base>
    40001bb8:	f9400232 	ldr	x18, [x17]
    40001bbc:	b5000072 	cbnz	x18, 40001bc8 <_end+0x20>
    40001bc0:	10ff2212 	adr	x18, 40000000 <bl31_entrypoint>
    40001bc4:	f9000232 	str	x18, [x17]
    40001bc8:	d5380000 	mrs	x0, midr_el1
    40001bcc:	d29ffe01 	mov	x1, #0xfff0                	// #65520
    40001bd0:	8a010000 	and	x0, x0, x1
    40001bd4:	d344fc00 	lsr	x0, x0, #4
    40001bd8:	f1341c1f 	cmp	x0, #0xd07
    40001bdc:	540002c1 	b.ne	40001c34 <_end+0x8c>  // b.any
    40001be0:	d539b060 	mrs	x0, s3_1_c11_c0_3
    40001be4:	d28000e1 	mov	x1, #0x7                   	// #7
    40001be8:	927df000 	and	x0, x0, #0xfffffffffffffff8
    40001bec:	aa010000 	orr	x0, x0, x1
    40001bf0:	d519b060 	msr	s3_1_c11_c0_3, x0
    40001bf4:	d5033fdf 	isb
    40001bf8:	d539f220 	mrs	x0, s3_1_c15_c2_1
    40001bfc:	d28000e1 	mov	x1, #0x7                   	// #7
    40001c00:	927df000 	and	x0, x0, #0xfffffffffffffff8
    40001c04:	aa010000 	orr	x0, x0, x1
    40001c08:	d519f220 	msr	s3_1_c15_c2_1, x0
    40001c0c:	d5033fdf 	isb
    40001c10:	d53e1020 	mrs	x0, actlr_el3
    40001c14:	d2800e61 	mov	x1, #0x73                  	// #115
    40001c18:	aa010000 	orr	x0, x0, x1
    40001c1c:	d51e1020 	msr	actlr_el3, x0
    40001c20:	d53c1020 	mrs	x0, actlr_el2
    40001c24:	d2800e61 	mov	x1, #0x73                  	// #115
    40001c28:	aa010000 	orr	x0, x0, x1
    40001c2c:	d51c1020 	msr	actlr_el2, x0
    40001c30:	d5033fdf 	isb
    40001c34:	d53b9c00 	mrs	x0, pmcr_el0
    40001c38:	d34b3c00 	ubfx	x0, x0, #11, #5
    40001c3c:	d2800021 	mov	x1, #0x1                   	// #1
    40001c40:	9ac02020 	lsl	x0, x1, x0
    40001c44:	d1000400 	sub	x0, x0, #0x1
    40001c48:	b2610000 	orr	x0, x0, #0x80000000
    40001c4c:	d5189e40 	msr	pmintenclr_el1, x0
    40001c50:	d51b9e01 	msr	pmuserenr_el0, x1
    40001c54:	d538e100 	mrs	x0, cntkctl_el1
    40001c58:	b27f0000 	orr	x0, x0, #0x2
    40001c5c:	d518e100 	msr	cntkctl_el1, x0
    40001c60:	d65f03c0 	ret

0000000040001c64 <plat_set_my_stack>:
    40001c64:	aa1e03e9 	mov	x9, x30
    40001c68:	97ffffad 	bl	40001b1c <plat_get_my_stack>
    40001c6c:	9100001f 	mov	sp, x0
    40001c70:	d65f0120 	ret	x9

0000000040001c74 <platform_mem_init>:
    40001c74:	d2800000 	mov	x0, #0x0                   	// #0
    40001c78:	d65f03c0 	ret

0000000040001c7c <prepare_cpu_pwr_dwn>:
    40001c7c:	d2800022 	mov	x2, #0x1                   	// #1
    40001c80:	eb02001f 	cmp	x0, x2
    40001c84:	9a808042 	csel	x2, x2, x0, hi  // hi = pmore
    40001c88:	d53ed041 	mrs	x1, tpidr_el3
    40001c8c:	f9400820 	ldr	x0, [x1, #16]
    40001c90:	f100001f 	cmp	x0, #0x0
    40001c94:	54000081 	b.ne	40001ca4 <prepare_cpu_pwr_dwn+0x28>  // b.any
    40001c98:	5009e3c0 	adr	x0, 40015912 <excpt_msg_el+0x37>
    40001c9c:	d2800941 	mov	x1, #0x4a                  	// #74
    40001ca0:	17fffc22 	b	40000d28 <asm_assert>
    40001ca4:	d2800601 	mov	x1, #0x30                  	// #48
    40001ca8:	8b020c21 	add	x1, x1, x2, lsl #3
    40001cac:	f8616801 	ldr	x1, [x0, x1]
    40001cb0:	f100003f 	cmp	x1, #0x0
    40001cb4:	54000081 	b.ne	40001cc4 <prepare_cpu_pwr_dwn+0x48>  // b.any
    40001cb8:	5009e2c0 	adr	x0, 40015912 <excpt_msg_el+0x37>
    40001cbc:	d2800a61 	mov	x1, #0x53                  	// #83
    40001cc0:	17fffc1a 	b	40000d28 <asm_assert>
    40001cc4:	d61f0020 	br	x1

0000000040001cc8 <prepare_el3_entry>:
    40001cc8:	a90007e0 	stp	x0, x1, [sp]
    40001ccc:	a9010fe2 	stp	x2, x3, [sp, #16]
    40001cd0:	a90217e4 	stp	x4, x5, [sp, #32]
    40001cd4:	a9031fe6 	stp	x6, x7, [sp, #48]
    40001cd8:	a90427e8 	stp	x8, x9, [sp, #64]
    40001cdc:	a9052fea 	stp	x10, x11, [sp, #80]
    40001ce0:	a90637ec 	stp	x12, x13, [sp, #96]
    40001ce4:	a9073fee 	stp	x14, x15, [sp, #112]
    40001ce8:	a90847f0 	stp	x16, x17, [sp, #128]
    40001cec:	a9094ff2 	stp	x18, x19, [sp, #144]
    40001cf0:	a90a57f4 	stp	x20, x21, [sp, #160]
    40001cf4:	a90b5ff6 	stp	x22, x23, [sp, #176]
    40001cf8:	a90c67f8 	stp	x24, x25, [sp, #192]
    40001cfc:	a90d6ffa 	stp	x26, x27, [sp, #208]
    40001d00:	a90e77fc 	stp	x28, x29, [sp, #224]
    40001d04:	d5384112 	mrs	x18, sp_el0
    40001d08:	f9007ff2 	str	x18, [sp, #248]
    40001d0c:	d2a0100a 	mov	x10, #0x800000              	// #8388608
    40001d10:	f2c0008a 	movk	x10, #0x4, lsl #32
    40001d14:	d53e1329 	mrs	x9, mdcr_el3
    40001d18:	ea0a013f 	tst	x9, x10
    40001d1c:	54000121 	b.ne	40001d40 <prepare_el3_entry+0x78>  // b.any
    40001d20:	d53b9c09 	mrs	x9, pmcr_el0
    40001d24:	d53e110a 	mrs	x10, scr_el3
    40001d28:	f240015f 	tst	x10, #0x1
    40001d2c:	54000040 	b.eq	40001d34 <prepare_el3_entry+0x6c>  // b.none
    40001d30:	f90097e9 	str	x9, [sp, #296]
    40001d34:	b27b0129 	orr	x9, x9, #0x20
    40001d38:	d51b9c09 	msr	pmcr_el0, x9
    40001d3c:	d5033fdf 	isb
    40001d40:	d65f03c0 	ret

0000000040001d44 <print_alignment>:
    40001d44:	7009c7a4 	adr	x4, 4001563b <spacer+0x3>
    40001d48:	8b000084 	add	x4, x4, x0
    40001d4c:	17fffc06 	b	40000d64 <asm_print_str>

0000000040001d50 <psci_do_pwrdown_cache_maintenance>:
    40001d50:	a9bf7bfd 	stp	x29, x30, [sp, #-16]!
    40001d54:	a9bf53f3 	stp	x19, x20, [sp, #-16]!
    40001d58:	97ffffc9 	bl	40001c7c <prepare_cpu_pwr_dwn>
    40001d5c:	97ffff70 	bl	40001b1c <plat_get_my_stack>
    40001d60:	aa0003f3 	mov	x19, x0
    40001d64:	910003e1 	mov	x1, sp
    40001d68:	cb010001 	sub	x1, x0, x1
    40001d6c:	910003e0 	mov	x0, sp
    40001d70:	97fffea0 	bl	400017f0 <flush_dcache_range>
    40001d74:	d1100260 	sub	x0, x19, #0x400
    40001d78:	cb2063e1 	sub	x1, sp, x0
    40001d7c:	97fffed5 	bl	400018d0 <inv_dcache_range>
    40001d80:	a8c153f3 	ldp	x19, x20, [sp], #16
    40001d84:	a8c17bfd 	ldp	x29, x30, [sp], #16
    40001d88:	d65f03c0 	ret

0000000040001d8c <psci_power_down_wfi>:
    40001d8c:	d5033f9f 	dsb	sy
    40001d90:	d503207f 	wfi
    40001d94:	97ffff70 	bl	40001b54 <plat_panic_handler>

0000000040001d98 <report_unhandled_exception>:
    40001d98:	9100001f 	mov	sp, x0
    40001d9c:	d53ed040 	mrs	x0, tpidr_el3
    40001da0:	9100a000 	add	x0, x0, #0x28
    40001da4:	d51ed040 	msr	tpidr_el3, x0
    40001da8:	f9000401 	str	x1, [x0, #8]
    40001dac:	910003e1 	mov	x1, sp
    40001db0:	f9000001 	str	x1, [x0]
    40001db4:	3009d6e0 	adr	x0, 40015891 <excpt_msg>
    40001db8:	9100001f 	mov	sp, x0
    40001dbc:	17fffdac 	b	4000146c <do_crash_reporting>

0000000040001dc0 <report_unhandled_interrupt>:
    40001dc0:	9100001f 	mov	sp, x0
    40001dc4:	d53ed040 	mrs	x0, tpidr_el3
    40001dc8:	9100a000 	add	x0, x0, #0x28
    40001dcc:	d51ed040 	msr	tpidr_el3, x0
    40001dd0:	f9000401 	str	x1, [x0, #8]
    40001dd4:	910003e1 	mov	x1, sp
    40001dd8:	f9000001 	str	x1, [x0]
    40001ddc:	3009d6a0 	adr	x0, 400158b1 <intr_excpt_msg>
    40001de0:	9100001f 	mov	sp, x0
    40001de4:	17fffda2 	b	4000146c <do_crash_reporting>

0000000040001de8 <reset_handler>:
    40001de8:	aa1e03f3 	mov	x19, x30
    40001dec:	97ffff5c 	bl	40001b5c <plat_reset_handler>
    40001df0:	97fffe8e 	bl	40001828 <get_cpu_ops_ptr>
    40001df4:	f100001f 	cmp	x0, #0x0
    40001df8:	54000081 	b.ne	40001e08 <reset_handler+0x20>  // b.any
    40001dfc:	5009d8a0 	adr	x0, 40015912 <excpt_msg_el+0x37>
    40001e00:	d2800461 	mov	x1, #0x23                  	// #35
    40001e04:	17fffbc9 	b	40000d28 <asm_assert>
    40001e08:	f9400402 	ldr	x2, [x0, #8]
    40001e0c:	aa1303fe 	mov	x30, x19
    40001e10:	b4000042 	cbz	x2, 40001e18 <reset_handler+0x30>
    40001e14:	d61f0040 	br	x2
    40001e18:	d65f03c0 	ret

0000000040001e1c <restore_gp_pmcr_pauth_regs>:
    40001e1c:	d53e1100 	mrs	x0, scr_el3
    40001e20:	f240001f 	tst	x0, #0x1
    40001e24:	54000100 	b.eq	40001e44 <restore_gp_pmcr_pauth_regs+0x28>  // b.none
    40001e28:	d2a01001 	mov	x1, #0x800000              	// #8388608
    40001e2c:	f2c00081 	movk	x1, #0x4, lsl #32
    40001e30:	d53e1320 	mrs	x0, mdcr_el3
    40001e34:	ea01001f 	tst	x0, x1
    40001e38:	54000061 	b.ne	40001e44 <restore_gp_pmcr_pauth_regs+0x28>  // b.any
    40001e3c:	f94097e0 	ldr	x0, [sp, #296]
    40001e40:	d51b9c00 	msr	pmcr_el0, x0
    40001e44:	a94007e0 	ldp	x0, x1, [sp]
    40001e48:	a9410fe2 	ldp	x2, x3, [sp, #16]
    40001e4c:	a94217e4 	ldp	x4, x5, [sp, #32]
    40001e50:	a9431fe6 	ldp	x6, x7, [sp, #48]
    40001e54:	a94427e8 	ldp	x8, x9, [sp, #64]
    40001e58:	a9452fea 	ldp	x10, x11, [sp, #80]
    40001e5c:	a94637ec 	ldp	x12, x13, [sp, #96]
    40001e60:	a9473fee 	ldp	x14, x15, [sp, #112]
    40001e64:	a94847f0 	ldp	x16, x17, [sp, #128]
    40001e68:	a9494ff2 	ldp	x18, x19, [sp, #144]
    40001e6c:	a94a57f4 	ldp	x20, x21, [sp, #160]
    40001e70:	a94b5ff6 	ldp	x22, x23, [sp, #176]
    40001e74:	a94c67f8 	ldp	x24, x25, [sp, #192]
    40001e78:	a94d6ffa 	ldp	x26, x27, [sp, #208]
    40001e7c:	f9407ffc 	ldr	x28, [sp, #248]
    40001e80:	d518411c 	msr	sp_el0, x28
    40001e84:	a94e77fc 	ldp	x28, x29, [sp, #224]
    40001e88:	d65f03c0 	ret

0000000040001e8c <setjmp>:
    40001e8c:	910003e7 	mov	x7, sp
    40001e90:	a9005013 	stp	x19, x20, [x0]
    40001e94:	a9015815 	stp	x21, x22, [x0, #16]
    40001e98:	a9026017 	stp	x23, x24, [x0, #32]
    40001e9c:	a9036819 	stp	x25, x26, [x0, #48]
    40001ea0:	a904701b 	stp	x27, x28, [x0, #64]
    40001ea4:	a905781d 	stp	x29, x30, [x0, #80]
    40001ea8:	a9067c07 	stp	x7, xzr, [x0, #96]
    40001eac:	d2800000 	mov	x0, #0x0                   	// #0
    40001eb0:	d65f03c0 	ret

0000000040001eb4 <size_controlled_print>:
    40001eb4:	910003df 	mov	sp, x30
    40001eb8:	d53ed047 	mrs	x7, tpidr_el3

0000000040001ebc <test_size_list>:
    40001ebc:	d53ed045 	mrs	x5, tpidr_el3
    40001ec0:	910100a5 	add	x5, x5, #0x40
    40001ec4:	eb0500ff 	cmp	x7, x5
    40001ec8:	54000180 	b.eq	40001ef8 <exit_size_print>  // b.none
    40001ecc:	394000c4 	ldrb	w4, [x6]
    40001ed0:	34000144 	cbz	w4, 40001ef8 <exit_size_print>
    40001ed4:	aa0603e4 	mov	x4, x6
    40001ed8:	97fffba3 	bl	40000d64 <asm_print_str>
    40001edc:	cb060080 	sub	x0, x4, x6
    40001ee0:	aa0403e6 	mov	x6, x4
    40001ee4:	97ffff98 	bl	40001d44 <print_alignment>
    40001ee8:	f84084e4 	ldr	x4, [x7], #8
    40001eec:	97fffb90 	bl	40000d2c <asm_print_hex>
    40001ef0:	97fffb9b 	bl	40000d5c <asm_print_newline>
    40001ef4:	17fffff2 	b	40001ebc <test_size_list>

0000000040001ef8 <exit_size_print>:
    40001ef8:	910003fe 	mov	x30, sp
    40001efc:	d65f03c0 	ret

0000000040001f00 <smc_handler>:
    40001f00:	37f003a0 	tbnz	w0, #30, 40001f74 <smc_prohibited>

0000000040001f04 <smc_handler64>:
    40001f04:	97ffff71 	bl	40001cc8 <prepare_el3_entry>
    40001f08:	aa1f03e5 	mov	x5, xzr
    40001f0c:	910003e6 	mov	x6, sp
    40001f10:	f94088cc 	ldr	x12, [x6, #272]
    40001f14:	d50040bf 	msr	spsel, #0x0
    40001f18:	d53e4010 	mrs	x16, spsr_el3
    40001f1c:	d53e4031 	mrs	x17, elr_el3
    40001f20:	d53e1112 	mrs	x18, scr_el3
    40001f24:	a911c4d0 	stp	x16, x17, [x6, #280]
    40001f28:	f90080d2 	str	x18, [x6, #256]
    40001f2c:	aa1f03e7 	mov	x7, xzr
    40001f30:	b3400247 	bfxil	x7, x18, #0, #1
    40001f34:	9100019f 	mov	sp, x12
    40001f38:	d3587410 	ubfx	x16, x0, #24, #6
    40001f3c:	d35f7c0f 	ubfx	x15, x0, #31, #1
    40001f40:	aa0f1a10 	orr	x16, x16, x15, lsl #6
    40001f44:	900000ee 	adrp	x14, 4001d000 <cpu_state+0x668>
    40001f48:	912b51ce 	add	x14, x14, #0xad4
    40001f4c:	387069cf 	ldrb	w15, [x14, x16]
    40001f50:	373800cf 	tbnz	w15, #7, 40001f68 <smc_unknown>
    40001f54:	1009d96b 	adr	x11, 40015a80 <__RT_SVC_DESCS_START__+0x18>
    40001f58:	531b69ea 	lsl	w10, w15, #5
    40001f5c:	f86a496f 	ldr	x15, [x11, w10, uxtw]
    40001f60:	d63f01e0 	blr	x15
    40001f64:	17fffd1d 	b	400013d8 <el3_exit>

0000000040001f68 <smc_unknown>:
    40001f68:	92800000 	mov	x0, #0xffffffffffffffff    	// #-1
    40001f6c:	f90000c0 	str	x0, [x6]
    40001f70:	17fffd1a 	b	400013d8 <el3_exit>

0000000040001f74 <smc_prohibited>:
    40001f74:	a94e77fc 	ldp	x28, x29, [sp, #224]
    40001f78:	f9407bfe 	ldr	x30, [sp, #240]
    40001f7c:	92800000 	mov	x0, #0xffffffffffffffff    	// #-1
    40001f80:	d69f03e0 	eret
    40001f84:	d503379f 	dsb	nsh
    40001f88:	d5033fdf 	isb

0000000040001f8c <spin_lock>:
    40001f8c:	52800022 	mov	w2, #0x1                   	// #1
    40001f90:	d50320bf 	sevl

0000000040001f94 <l1>:
    40001f94:	d503205f 	wfe

0000000040001f98 <l2>:
    40001f98:	885ffc01 	ldaxr	w1, [x0]
    40001f9c:	35ffffc1 	cbnz	w1, 40001f94 <l1>
    40001fa0:	88017c02 	stxr	w1, w2, [x0]
    40001fa4:	35ffffa1 	cbnz	w1, 40001f98 <l2>
    40001fa8:	d65f03c0 	ret

0000000040001fac <spin_unlock>:
    40001fac:	889ffc1f 	stlr	wzr, [x0]
    40001fb0:	d65f03c0 	ret

0000000040001fb4 <str_in_crash_buf_print>:
    40001fb4:	d53ed040 	mrs	x0, tpidr_el3
    40001fb8:	a9002408 	stp	x8, x9, [x0]
    40001fbc:	a9012c0a 	stp	x10, x11, [x0, #16]
    40001fc0:	a902340c 	stp	x12, x13, [x0, #32]
    40001fc4:	a9033c0e 	stp	x14, x15, [x0, #48]
    40001fc8:	17ffffbb 	b	40001eb4 <size_controlled_print>

0000000040001fcc <tegra194_get_cpu_reset_handler_base>:
    40001fcc:	10ff1220 	adr	x0, 40000210 <tegra194_cpu_reset_handler>
    40001fd0:	d65f03c0 	ret

0000000040001fd4 <tegra194_get_cpu_reset_handler_size>:
    40001fd4:	10ff5660 	adr	x0, 40000aa0 <CCPMU_err_ctrl>
    40001fd8:	10ff11c1 	adr	x1, 40000210 <tegra194_cpu_reset_handler>
    40001fdc:	cb010000 	sub	x0, x0, x1
    40001fe0:	d65f03c0 	ret

0000000040001fe4 <tegra194_get_mc_ctx_offset>:
    40001fe4:	10ff16e0 	adr	x0, 400002c0 <__tegra194_mc_context>
    40001fe8:	10ff1141 	adr	x1, 40000210 <tegra194_cpu_reset_handler>
    40001fec:	cb010000 	sub	x0, x0, x1
    40001ff0:	d65f03c0 	ret

0000000040001ff4 <tegra194_set_system_suspend_entry>:
    40001ff4:	d2a05820 	mov	x0, #0x2c10000             	// #46202880
    40001ff8:	d2813783 	mov	x3, #0x9bc                 	// #2492
    40001ffc:	b8636801 	ldr	w1, [x0, x3]
    40002000:	d3607c21 	lsl	x1, x1, #32
    40002004:	d2800e03 	mov	x3, #0x70                  	// #112
    40002008:	b8636802 	ldr	w2, [x0, x3]
    4000200c:	aa020023 	orr	x3, x1, x2
    40002010:	10ff1500 	adr	x0, 400002b0 <__tegra194_system_suspend_state>
    40002014:	10ff0fe1 	adr	x1, 40000210 <tegra194_cpu_reset_handler>
    40002018:	cb010002 	sub	x2, x0, x1
    4000201c:	d280b8e0 	mov	x0, #0x5c7                 	// #1479
    40002020:	d370bc00 	lsl	x0, x0, #16
    40002024:	91171c00 	add	x0, x0, #0x5c7
    40002028:	f8226860 	str	x0, [x3, x2]
    4000202c:	d5033f9f 	dsb	sy
    40002030:	d65f03c0 	ret

0000000040002034 <update_stack_protector_canary>:
    40002034:	aa1e03f3 	mov	x19, x30
    40002038:	940012b4 	bl	40006b08 <plat_get_stack_protector_canary>
    4000203c:	900000a1 	adrp	x1, 40016000 <__RODATA_END__>
    40002040:	f902b820 	str	x0, [x1, #1392]
    40002044:	d65f0260 	ret	x19

0000000040002048 <zeromem>:
    40002048:	8b010002 	add	x2, x0, x1
    4000204c:	1400003b 	b	40002138 <zero_normalmem+0xe8>

0000000040002050 <zero_normalmem>:
    40002050:	d53e1004 	mrs	x4, sctlr_el3
    40002054:	f240009f 	tst	x4, #0x1
    40002058:	54000081 	b.ne	40002068 <zero_normalmem+0x18>  // b.any
    4000205c:	5009ca00 	adr	x0, 4001599e <panic_msg+0x11>
    40002060:	d28015c1 	mov	x1, #0xae                  	// #174
    40002064:	17fffb31 	b	40000d28 <asm_assert>
    40002068:	8b010002 	add	x2, x0, x1
    4000206c:	d53b00e3 	mrs	x3, dczid_el0
    40002070:	d3400c63 	ubfx	x3, x3, #0, #4
    40002074:	d2800085 	mov	x5, #0x4                   	// #4
    40002078:	9ac320a3 	lsl	x3, x5, x3
    4000207c:	f100407f 	cmp	x3, #0x10
    40002080:	54000082 	b.cs	40002090 <zero_normalmem+0x40>  // b.hs, b.nlast
    40002084:	5009c8c0 	adr	x0, 4001599e <panic_msg+0x11>
    40002088:	d2801901 	mov	x1, #0xc8                  	// #200
    4000208c:	17fffb27 	b	40000d28 <asm_assert>
    40002090:	eb03003f 	cmp	x1, x3
    40002094:	54000523 	b.cc	40002138 <zero_normalmem+0xe8>  // b.lo, b.ul, b.last
    40002098:	d1000461 	sub	x1, x3, #0x1
    4000209c:	ea01001f 	tst	x0, x1
    400020a0:	54000260 	b.eq	400020ec <zero_normalmem+0x9c>  // b.none
    400020a4:	aa010004 	orr	x4, x0, x1
    400020a8:	91000484 	add	x4, x4, #0x1
    400020ac:	b4000464 	cbz	x4, 40002138 <zero_normalmem+0xe8>
    400020b0:	eb02009f 	cmp	x4, x2
    400020b4:	54000428 	b.hi	40002138 <zero_normalmem+0xe8>  // b.pmore
    400020b8:	f2400c1f 	tst	x0, #0xf
    400020bc:	540000e0 	b.eq	400020d8 <zero_normalmem+0x88>  // b.none
    400020c0:	b2400c05 	orr	x5, x0, #0xf
    400020c4:	910004a5 	add	x5, x5, #0x1
    400020c8:	b4000385 	cbz	x5, 40002138 <zero_normalmem+0xe8>
    400020cc:	3800141f 	strb	wzr, [x0], #1
    400020d0:	eb05001f 	cmp	x0, x5
    400020d4:	54ffffc1 	b.ne	400020cc <zero_normalmem+0x7c>  // b.any
    400020d8:	eb04001f 	cmp	x0, x4
    400020dc:	54000082 	b.cs	400020ec <zero_normalmem+0x9c>  // b.hs, b.nlast
    400020e0:	a8817c1f 	stp	xzr, xzr, [x0], #16
    400020e4:	eb04001f 	cmp	x0, x4
    400020e8:	54ffffc3 	b.cc	400020e0 <zero_normalmem+0x90>  // b.lo, b.ul, b.last
    400020ec:	8a210044 	bic	x4, x2, x1
    400020f0:	eb04001f 	cmp	x0, x4
    400020f4:	540000a2 	b.cs	40002108 <zero_normalmem+0xb8>  // b.hs, b.nlast
    400020f8:	d50b7420 	dc	zva, x0
    400020fc:	8b030000 	add	x0, x0, x3
    40002100:	eb04001f 	cmp	x0, x4
    40002104:	54ffffa3 	b.cc	400020f8 <zero_normalmem+0xa8>  // b.lo, b.ul, b.last
    40002108:	927cec44 	and	x4, x2, #0xfffffffffffffff0
    4000210c:	eb04001f 	cmp	x0, x4
    40002110:	54000082 	b.cs	40002120 <zero_normalmem+0xd0>  // b.hs, b.nlast
    40002114:	a8817c1f 	stp	xzr, xzr, [x0], #16
    40002118:	eb04001f 	cmp	x0, x4
    4000211c:	54ffffc3 	b.cc	40002114 <zero_normalmem+0xc4>  // b.lo, b.ul, b.last
    40002120:	eb02001f 	cmp	x0, x2
    40002124:	54000080 	b.eq	40002134 <zero_normalmem+0xe4>  // b.none
    40002128:	3800141f 	strb	wzr, [x0], #1
    4000212c:	eb02001f 	cmp	x0, x2
    40002130:	54ffffc1 	b.ne	40002128 <zero_normalmem+0xd8>  // b.any
    40002134:	d65f03c0 	ret
    40002138:	f2400c1f 	tst	x0, #0xf
    4000213c:	54fffe60 	b.eq	40002108 <zero_normalmem+0xb8>  // b.none
    40002140:	b2400c04 	orr	x4, x0, #0xf
    40002144:	91000484 	add	x4, x4, #0x1
    40002148:	b4fffec4 	cbz	x4, 40002120 <zero_normalmem+0xd0>
    4000214c:	eb02009f 	cmp	x4, x2
    40002150:	54fffe82 	b.cs	40002120 <zero_normalmem+0xd0>  // b.hs, b.nlast
    40002154:	3800141f 	strb	wzr, [x0], #1
    40002158:	eb04001f 	cmp	x0, x4
    4000215c:	54ffffc1 	b.ne	40002154 <zero_normalmem+0x104>  // b.any
    40002160:	17ffffea 	b	40002108 <zero_normalmem+0xb8>

0000000040002164 <bakery_lock_get>:
    40002164:	a9be7bfd 	stp	x29, x30, [sp, #-32]!
    40002168:	910003fd 	mov	x29, sp
    4000216c:	a90153f3 	stp	x19, x20, [sp, #16]
    40002170:	aa0003f3 	mov	x19, x0
    40002174:	97fffe74 	bl	40001b44 <plat_my_core_pos>
    40002178:	2a0003f4 	mov	w20, w0
    4000217c:	94000ad1 	bl	40004cc0 <is_dcache_enabled>
    40002180:	f00000c5 	adrp	x5, 4001d000 <cpu_state+0x668>
    40002184:	12001c03 	and	w3, w0, #0xff
    40002188:	912f00a5 	add	x5, x5, #0xbc0
    4000218c:	f00000c0 	adrp	x0, 4001d000 <cpu_state+0x668>
    40002190:	912e0000 	add	x0, x0, #0xb80
    40002194:	2a1403e6 	mov	w6, w20
    40002198:	cb0000a5 	sub	x5, x5, x0
    4000219c:	9b057cc6 	mul	x6, x6, x5
    400021a0:	ab1300c0 	adds	x0, x6, x19
    400021a4:	540000e1 	b.ne	400021c0 <bakery_lock_get+0x5c>  // b.any
    400021a8:	f0000062 	adrp	x2, 40011000 <version_string+0x37c>
    400021ac:	912d0442 	add	x2, x2, #0xb41
    400021b0:	52800e21 	mov	w1, #0x71                  	// #113
    400021b4:	f0000060 	adrp	x0, 40011000 <version_string+0x37c>
    400021b8:	912d6000 	add	x0, x0, #0xb58
    400021bc:	97fffa58 	bl	40000b1c <__assert>
    400021c0:	aa1303e4 	mov	x4, x19
    400021c4:	34000043 	cbz	w3, 400021cc <bakery_lock_get+0x68>
    400021c8:	d50b7e20 	dc	civac, x0
    400021cc:	d5033bbf 	dmb	ish
    400021d0:	787368c2 	ldrh	w2, [x6, x19]
    400021d4:	d3413c42 	ubfx	x2, x2, #1, #15
    400021d8:	340000a2 	cbz	w2, 400021ec <bakery_lock_get+0x88>
    400021dc:	f0000062 	adrp	x2, 40011000 <version_string+0x37c>
    400021e0:	52800e81 	mov	w1, #0x74                  	// #116
    400021e4:	912df842 	add	x2, x2, #0xb7e
    400021e8:	17fffff3 	b	400021b4 <bakery_lock_get+0x50>
    400021ec:	52800021 	mov	w1, #0x1                   	// #1
    400021f0:	783368c1 	strh	w1, [x6, x19]
    400021f4:	340001a3 	cbz	w3, 40002228 <bakery_lock_get+0xc4>
    400021f8:	d50b7a20 	dc	cvac, x0
    400021fc:	d5033b9f 	dsb	ish
    40002200:	aa1303e7 	mov	x7, x19
    40002204:	52800001 	mov	w1, #0x0                   	// #0
    40002208:	52800008 	mov	w8, #0x0                   	// #0
    4000220c:	6b08029f 	cmp	w20, w8
    40002210:	540001e0 	b.eq	4000224c <bakery_lock_get+0xe8>  // b.none
    40002214:	b50000e7 	cbnz	x7, 40002230 <bakery_lock_get+0xcc>
    40002218:	f0000062 	adrp	x2, 40011000 <version_string+0x37c>
    4000221c:	52801181 	mov	w1, #0x8c                  	// #140
    40002220:	912eac42 	add	x2, x2, #0xbab
    40002224:	17ffffe4 	b	400021b4 <bakery_lock_get+0x50>
    40002228:	d5087620 	dc	ivac, x0
    4000222c:	17fffff4 	b	400021fc <bakery_lock_get+0x98>
    40002230:	34000043 	cbz	w3, 40002238 <bakery_lock_get+0xd4>
    40002234:	d50b7e27 	dc	civac, x7
    40002238:	d5033bbf 	dmb	ish
    4000223c:	794000e9 	ldrh	w9, [x7]
    40002240:	d3413d29 	ubfx	x9, x9, #1, #15
    40002244:	6b09003f 	cmp	w1, w9
    40002248:	1a892021 	csel	w1, w1, w9, cs  // cs = hs, nlast
    4000224c:	11000508 	add	w8, w8, #0x1
    40002250:	8b0500e7 	add	x7, x7, x5
    40002254:	7100211f 	cmp	w8, #0x8
    40002258:	54fffda1 	b.ne	4000220c <bakery_lock_get+0xa8>  // b.any
    4000225c:	11000421 	add	w1, w1, #0x1
    40002260:	531f3827 	ubfiz	w7, w1, #1, #15
    40002264:	783368c7 	strh	w7, [x6, x19]
    40002268:	34000163 	cbz	w3, 40002294 <bakery_lock_get+0x130>
    4000226c:	d50b7a20 	dc	cvac, x0
    40002270:	d5033b9f 	dsb	ish
    40002274:	2a012281 	orr	w1, w20, w1, lsl #8
    40002278:	6b02029f 	cmp	w20, w2
    4000227c:	54000380 	b.eq	400022ec <bakery_lock_get+0x188>  // b.none
    40002280:	b50000e4 	cbnz	x4, 4000229c <bakery_lock_get+0x138>
    40002284:	f0000062 	adrp	x2, 40011000 <version_string+0x37c>
    40002288:	52801821 	mov	w1, #0xc1                  	// #193
    4000228c:	912eac42 	add	x2, x2, #0xbab
    40002290:	17ffffc9 	b	400021b4 <bakery_lock_get+0x50>
    40002294:	d5087620 	dc	ivac, x0
    40002298:	17fffff6 	b	40002270 <bakery_lock_get+0x10c>
    4000229c:	34000043 	cbz	w3, 400022a4 <bakery_lock_get+0x140>
    400022a0:	d50b7e24 	dc	civac, x4
    400022a4:	d5033bbf 	dmb	ish
    400022a8:	79400086 	ldrh	w6, [x4]
    400022ac:	12003cc0 	and	w0, w6, #0xffff
    400022b0:	3707ff66 	tbnz	w6, #0, 4000229c <bakery_lock_get+0x138>
    400022b4:	53017c06 	lsr	w6, w0, #1
    400022b8:	6b4007ff 	cmp	wzr, w0, lsr #1
    400022bc:	54000180 	b.eq	400022ec <bakery_lock_get+0x188>  // b.none
    400022c0:	2a062040 	orr	w0, w2, w6, lsl #8
    400022c4:	6b00003f 	cmp	w1, w0
    400022c8:	54000129 	b.ls	400022ec <bakery_lock_get+0x188>  // b.plast
    400022cc:	d503205f 	wfe
    400022d0:	34000043 	cbz	w3, 400022d8 <bakery_lock_get+0x174>
    400022d4:	d50b7e24 	dc	civac, x4
    400022d8:	d5033bbf 	dmb	ish
    400022dc:	79400080 	ldrh	w0, [x4]
    400022e0:	d3413c00 	ubfx	x0, x0, #1, #15
    400022e4:	6b0000df 	cmp	w6, w0
    400022e8:	54ffff20 	b.eq	400022cc <bakery_lock_get+0x168>  // b.none
    400022ec:	11000442 	add	w2, w2, #0x1
    400022f0:	8b050084 	add	x4, x4, x5
    400022f4:	7100205f 	cmp	w2, #0x8
    400022f8:	54fffc01 	b.ne	40002278 <bakery_lock_get+0x114>  // b.any
    400022fc:	d5033bbf 	dmb	ish
    40002300:	a94153f3 	ldp	x19, x20, [sp, #16]
    40002304:	a8c27bfd 	ldp	x29, x30, [sp], #32
    40002308:	d65f03c0 	ret

000000004000230c <bakery_lock_release>:
    4000230c:	a9be7bfd 	stp	x29, x30, [sp, #-32]!
    40002310:	910003fd 	mov	x29, sp
    40002314:	a90153f3 	stp	x19, x20, [sp, #16]
    40002318:	aa0003f3 	mov	x19, x0
    4000231c:	94000a69 	bl	40004cc0 <is_dcache_enabled>
    40002320:	12001c14 	and	w20, w0, #0xff
    40002324:	97fffe08 	bl	40001b44 <plat_my_core_pos>
    40002328:	f00000c1 	adrp	x1, 4001d000 <cpu_state+0x668>
    4000232c:	f00000c2 	adrp	x2, 4001d000 <cpu_state+0x668>
    40002330:	912f0021 	add	x1, x1, #0xbc0
    40002334:	912e0042 	add	x2, x2, #0xb80
    40002338:	2a0003e0 	mov	w0, w0
    4000233c:	cb020021 	sub	x1, x1, x2
    40002340:	9b007c21 	mul	x1, x1, x0
    40002344:	8b010260 	add	x0, x19, x1
    40002348:	34000054 	cbz	w20, 40002350 <bakery_lock_release+0x44>
    4000234c:	d50b7e20 	dc	civac, x0
    40002350:	d5033bbf 	dmb	ish
    40002354:	78616a62 	ldrh	w2, [x19, x1]
    40002358:	f27f385f 	tst	x2, #0xfffe
    4000235c:	540000e1 	b.ne	40002378 <bakery_lock_release+0x6c>  // b.any
    40002360:	f0000062 	adrp	x2, 40011000 <version_string+0x37c>
    40002364:	f0000060 	adrp	x0, 40011000 <version_string+0x37c>
    40002368:	912dfc42 	add	x2, x2, #0xb7f
    4000236c:	912d6000 	add	x0, x0, #0xb58
    40002370:	52801d81 	mov	w1, #0xec                  	// #236
    40002374:	97fff9ea 	bl	40000b1c <__assert>
    40002378:	d5033bbf 	dmb	ish
    4000237c:	78216a7f 	strh	wzr, [x19, x1]
    40002380:	340000f4 	cbz	w20, 4000239c <bakery_lock_release+0x90>
    40002384:	d50b7a20 	dc	cvac, x0
    40002388:	d5033b9f 	dsb	ish
    4000238c:	d503209f 	sev
    40002390:	a94153f3 	ldp	x19, x20, [sp, #16]
    40002394:	a8c27bfd 	ldp	x29, x30, [sp], #32
    40002398:	d65f03c0 	ret
    4000239c:	d5087620 	dc	ivac, x0
    400023a0:	17fffffa 	b	40002388 <bakery_lock_release+0x7c>

00000000400023a4 <bl31_check_ns_address>:
    400023a4:	a9bf7bfd 	stp	x29, x30, [sp, #-16]!
    400023a8:	aa0103e2 	mov	x2, x1
    400023ac:	f100001f 	cmp	x0, #0x0
    400023b0:	910003fd 	mov	x29, sp
    400023b4:	d1000421 	sub	x1, x1, #0x1
    400023b8:	aa0003e3 	mov	x3, x0
    400023bc:	8b000021 	add	x1, x1, x0
    400023c0:	fa401844 	ccmp	x2, #0x0, #0x4, ne  // ne = any
    400023c4:	54000101 	b.ne	400023e4 <bl31_check_ns_address+0x40>  // b.any
    400023c8:	aa0003e1 	mov	x1, x0
    400023cc:	90000080 	adrp	x0, 40012000 <version_string+0x137c>
    400023d0:	91158c00 	add	x0, x0, #0x563
    400023d4:	94002d93 	bl	4000da20 <tf_log>
    400023d8:	128002a0 	mov	w0, #0xffffffea            	// #-22
    400023dc:	a8c17bfd 	ldp	x29, x30, [sp], #16
    400023e0:	d65f03c0 	ret
    400023e4:	b26183e0 	mov	x0, #0xffffffff80000000    	// #-2147483648
    400023e8:	b27f77e2 	mov	x2, #0x7ffffffe            	// #2147483646
    400023ec:	8b000060 	add	x0, x3, x0
    400023f0:	f2c001e2 	movk	x2, #0xf, lsl #32
    400023f4:	eb02001f 	cmp	x0, x2
    400023f8:	540000a8 	b.hi	4000240c <bl31_check_ns_address+0x68>  // b.pmore
    400023fc:	b2408fe2 	mov	x2, #0xfffffffff           	// #68719476735
    40002400:	52800000 	mov	w0, #0x0                   	// #0
    40002404:	eb02003f 	cmp	x1, x2
    40002408:	54fffea9 	b.ls	400023dc <bl31_check_ns_address+0x38>  // b.plast
    4000240c:	aa0303e1 	mov	x1, x3
    40002410:	90000080 	adrp	x0, 40012000 <version_string+0x137c>
    40002414:	91163400 	add	x0, x0, #0x58d
    40002418:	94002d82 	bl	4000da20 <tf_log>
    4000241c:	128001a0 	mov	w0, #0xfffffff2            	// #-14
    40002420:	17ffffef 	b	400023dc <bl31_check_ns_address+0x38>

0000000040002424 <bl31_early_platform_setup2>:
    40002424:	a9be7bfd 	stp	x29, x30, [sp, #-32]!
    40002428:	910003fd 	mov	x29, sp
    4000242c:	a90153f3 	stp	x19, x20, [sp, #16]
    40002430:	aa0103f3 	mov	x19, x1
    40002434:	b5000040 	cbnz	x0, 4000243c <bl31_early_platform_setup2+0x18>
    40002438:	94001179 	bl	40006a1c <plat_get_bl31_params>
    4000243c:	aa0003f4 	mov	x20, x0
    40002440:	b5000073 	cbnz	x19, 4000244c <bl31_early_platform_setup2+0x28>
    40002444:	9400117f 	bl	40006a40 <plat_get_bl31_plat_params>
    40002448:	aa0003f3 	mov	x19, x0
    4000244c:	b50000f4 	cbnz	x20, 40002468 <bl31_early_platform_setup2+0x44>
    40002450:	90000082 	adrp	x2, 40012000 <version_string+0x137c>
    40002454:	9116c842 	add	x2, x2, #0x5b2
    40002458:	52800e61 	mov	w1, #0x73                  	// #115
    4000245c:	90000080 	adrp	x0, 40012000 <version_string+0x137c>
    40002460:	91171c00 	add	x0, x0, #0x5c7
    40002464:	97fff9ae 	bl	40000b1c <__assert>
    40002468:	f9401281 	ldr	x1, [x20, #32]
    4000246c:	b50000a1 	cbnz	x1, 40002480 <bl31_early_platform_setup2+0x5c>
    40002470:	90000082 	adrp	x2, 40012000 <version_string+0x137c>
    40002474:	52800e81 	mov	w1, #0x74                  	// #116
    40002478:	9117cc42 	add	x2, x2, #0x5f3
    4000247c:	17fffff8 	b	4000245c <bl31_early_platform_setup2+0x38>
    40002480:	d2800b02 	mov	x2, #0x58                  	// #88
    40002484:	b00000c0 	adrp	x0, 4001b000 <opteed_sp_context+0xe80>
    40002488:	911d8000 	add	x0, x0, #0x760
    4000248c:	94000b46 	bl	400051a4 <memcpy>
    40002490:	f9400a81 	ldr	x1, [x20, #16]
    40002494:	b40000a1 	cbz	x1, 400024a8 <bl31_early_platform_setup2+0x84>
    40002498:	b00000c0 	adrp	x0, 4001b000 <opteed_sp_context+0xe80>
    4000249c:	d2800b02 	mov	x2, #0x58                  	// #88
    400024a0:	911c2000 	add	x0, x0, #0x708
    400024a4:	94000b40 	bl	400051a4 <memcpy>
    400024a8:	b50000b3 	cbnz	x19, 400024bc <bl31_early_platform_setup2+0x98>
    400024ac:	90000082 	adrp	x2, 40012000 <version_string+0x137c>
    400024b0:	52801041 	mov	w1, #0x82                  	// #130
    400024b4:	91185842 	add	x2, x2, #0x616
    400024b8:	17ffffe9 	b	4000245c <bl31_early_platform_setup2+0x38>
    400024bc:	900000a0 	adrp	x0, 40016000 <__RODATA_END__>
    400024c0:	91010014 	add	x20, x0, #0x40
    400024c4:	f9400661 	ldr	x1, [x19, #8]
    400024c8:	f9000681 	str	x1, [x20, #8]
    400024cc:	f9400261 	ldr	x1, [x19]
    400024d0:	f9002001 	str	x1, [x0, #64]
    400024d4:	b9401260 	ldr	w0, [x19, #16]
    400024d8:	b9001280 	str	w0, [x20, #16]
    400024dc:	b9401660 	ldr	w0, [x19, #20]
    400024e0:	b9001680 	str	w0, [x20, #20]
    400024e4:	f9401260 	ldr	x0, [x19, #32]
    400024e8:	f9001280 	str	x0, [x20, #32]
    400024ec:	f9401660 	ldr	x0, [x19, #40]
    400024f0:	f9001680 	str	x0, [x20, #40]
    400024f4:	b9401260 	ldr	w0, [x19, #16]
    400024f8:	94001135 	bl	400069cc <plat_enable_console>
    400024fc:	f9400e60 	ldr	x0, [x19, #24]
    40002500:	d2820001 	mov	x1, #0x1000                	// #4096
    40002504:	97ffffa8 	bl	400023a4 <bl31_check_ns_address>
    40002508:	350000a0 	cbnz	w0, 4000251c <bl31_early_platform_setup2+0xf8>
    4000250c:	f9400e60 	ldr	x0, [x19, #24]
    40002510:	52a185c1 	mov	w1, #0xc2e0000             	// #204341248
    40002514:	f9000e80 	str	x0, [x20, #24]
    40002518:	94000101 	bl	4000291c <boot_profiler_init>
    4000251c:	90000080 	adrp	x0, 40012000 <version_string+0x137c>
    40002520:	9118a800 	add	x0, x0, #0x62a
    40002524:	940000ad 	bl	400027d8 <boot_profiler_add_record>
    40002528:	94002625 	bl	4000bdbc <tegra_delay_timer_init>
    4000252c:	94001092 	bl	40006774 <plat_early_platform_setup>
    40002530:	a94153f3 	ldp	x19, x20, [sp, #16]
    40002534:	90000080 	adrp	x0, 40012000 <version_string+0x137c>
    40002538:	a8c27bfd 	ldp	x29, x30, [sp], #32
    4000253c:	91190400 	add	x0, x0, #0x641
    40002540:	140000a6 	b	400027d8 <boot_profiler_add_record>

0000000040002544 <bl31_get_plat_params>:
    40002544:	900000a0 	adrp	x0, 40016000 <__RODATA_END__>
    40002548:	91010000 	add	x0, x0, #0x40
    4000254c:	d65f03c0 	ret

0000000040002550 <bl31_main>:
    40002550:	a9be7bfd 	stp	x29, x30, [sp, #-32]!
    40002554:	d0000061 	adrp	x1, 40010000 <__TEXT_END__>
    40002558:	91321021 	add	x1, x1, #0xc84
    4000255c:	910003fd 	mov	x29, sp
    40002560:	f9000bf3 	str	x19, [sp, #16]
    40002564:	d0000073 	adrp	x19, 40010000 <__TEXT_END__>
    40002568:	9136a673 	add	x19, x19, #0xda9
    4000256c:	aa1303e0 	mov	x0, x19
    40002570:	94002d2c 	bl	4000da20 <tf_log>
    40002574:	aa1303e0 	mov	x0, x19
    40002578:	d0000061 	adrp	x1, 40010000 <__TEXT_END__>
    4000257c:	91319821 	add	x1, x1, #0xc66
    40002580:	94002d28 	bl	4000da20 <tf_log>
    40002584:	94000056 	bl	400026dc <bl31_platform_setup>
    40002588:	94000185 	bl	40002b9c <cm_init>
    4000258c:	9400044a 	bl	400036b4 <ehf_init>
    40002590:	94001bcd 	bl	400094c4 <runtime_svc_init>
    40002594:	b00000c0 	adrp	x0, 4001b000 <opteed_sp_context+0xe80>
    40002598:	f9430000 	ldr	x0, [x0, #1536]
    4000259c:	b4000040 	cbz	x0, 400025a4 <bl31_main+0x54>
    400025a0:	d63f0000 	blr	x0
    400025a4:	9400005b 	bl	40002710 <bl31_prepare_next_image_entry>
    400025a8:	940002d9 	bl	4000310c <console_flush>
    400025ac:	f9400bf3 	ldr	x19, [sp, #16]
    400025b0:	a8c27bfd 	ldp	x29, x30, [sp], #32
    400025b4:	14000042 	b	400026bc <bl31_plat_runtime_setup>

00000000400025b8 <bl31_plat_arch_setup>:
    400025b8:	a9bc7bfd 	stp	x29, x30, [sp, #-64]!
    400025bc:	90000080 	adrp	x0, 40012000 <version_string+0x137c>
    400025c0:	9114e000 	add	x0, x0, #0x538
    400025c4:	910003fd 	mov	x29, sp
    400025c8:	a90153f3 	stp	x19, x20, [sp, #16]
    400025cc:	900000b4 	adrp	x20, 40016000 <__RODATA_END__>
    400025d0:	d0000073 	adrp	x19, 40010000 <__TEXT_END__>
    400025d4:	91000294 	add	x20, x20, #0x0
    400025d8:	91000273 	add	x19, x19, #0x0
    400025dc:	a9025bf5 	stp	x21, x22, [sp, #32]
    400025e0:	b00001b6 	adrp	x22, 40037000 <__BL31_END__>
    400025e4:	d0fffff5 	adrp	x21, 40000000 <bl31_entrypoint>
    400025e8:	910002d6 	add	x22, x22, #0x0
    400025ec:	910002b5 	add	x21, x21, #0x0
    400025f0:	a90363f7 	stp	x23, x24, [sp, #48]
    400025f4:	900000b8 	adrp	x24, 40016000 <__RODATA_END__>
    400025f8:	d0000077 	adrp	x23, 40010000 <__TEXT_END__>
    400025fc:	91000318 	add	x24, x24, #0x0
    40002600:	910002f7 	add	x23, x23, #0x0
    40002604:	cb1802d6 	sub	x22, x22, x24
    40002608:	cb170294 	sub	x20, x20, x23
    4000260c:	cb150273 	sub	x19, x19, x21
    40002610:	94000072 	bl	400027d8 <boot_profiler_add_record>
    40002614:	9400111f 	bl	40006a90 <plat_get_mmio_map>
    40002618:	b4000040 	cbz	x0, 40002620 <bl31_plat_arch_setup+0x68>
    4000261c:	94000b15 	bl	40005270 <mmap_add>
    40002620:	aa1603e2 	mov	x2, x22
    40002624:	aa1803e1 	mov	x1, x24
    40002628:	aa1803e0 	mov	x0, x24
    4000262c:	52800143 	mov	w3, #0xa                   	// #10
    40002630:	94000bbf 	bl	4000552c <mmap_add_region>
    40002634:	aa1403e2 	mov	x2, x20
    40002638:	aa1703e1 	mov	x1, x23
    4000263c:	aa1703e0 	mov	x0, x23
    40002640:	52800843 	mov	w3, #0x42                  	// #66
    40002644:	94000bba 	bl	4000552c <mmap_add_region>
    40002648:	aa1303e2 	mov	x2, x19
    4000264c:	aa1503e1 	mov	x1, x21
    40002650:	aa1503e0 	mov	x0, x21
    40002654:	52800043 	mov	w3, #0x2                   	// #2
    40002658:	94000bb5 	bl	4000552c <mmap_add_region>
    4000265c:	940008f3 	bl	40004a28 <init_xlat_tables>
    40002660:	52800000 	mov	w0, #0x0                   	// #0
    40002664:	94000470 	bl	40003824 <enable_mmu_el3>
    40002668:	a94153f3 	ldp	x19, x20, [sp, #16]
    4000266c:	90000080 	adrp	x0, 40012000 <version_string+0x137c>
    40002670:	a9425bf5 	ldp	x21, x22, [sp, #32]
    40002674:	91153800 	add	x0, x0, #0x54e
    40002678:	a94363f7 	ldp	x23, x24, [sp, #48]
    4000267c:	a8c47bfd 	ldp	x29, x30, [sp], #64
    40002680:	14000056 	b	400027d8 <boot_profiler_add_record>

0000000040002684 <bl31_plat_get_next_image_ep_info>:
    40002684:	7100041f 	cmp	w0, #0x1
    40002688:	54000100 	b.eq	400026a8 <bl31_plat_get_next_image_ep_info+0x24>  // b.none
    4000268c:	35000140 	cbnz	w0, 400026b4 <bl31_plat_get_next_image_ep_info+0x30>
    40002690:	b00000c0 	adrp	x0, 4001b000 <opteed_sp_context+0xe80>
    40002694:	911c2000 	add	x0, x0, #0x708
    40002698:	f9400401 	ldr	x1, [x0, #8]
    4000269c:	f100003f 	cmp	x1, #0x0
    400026a0:	9a9f1000 	csel	x0, x0, xzr, ne  // ne = any
    400026a4:	d65f03c0 	ret
    400026a8:	b00000c0 	adrp	x0, 4001b000 <opteed_sp_context+0xe80>
    400026ac:	911d8000 	add	x0, x0, #0x760
    400026b0:	17fffffd 	b	400026a4 <bl31_plat_get_next_image_ep_info+0x20>
    400026b4:	d2800000 	mov	x0, #0x0                   	// #0
    400026b8:	17fffffb 	b	400026a4 <bl31_plat_get_next_image_ep_info+0x20>

00000000400026bc <bl31_plat_runtime_setup>:
    400026bc:	a9bf7bfd 	stp	x29, x30, [sp, #-16]!
    400026c0:	910003fd 	mov	x29, sp
    400026c4:	940011ed 	bl	40006e78 <plat_runtime_setup>
    400026c8:	90000080 	adrp	x0, 40012000 <version_string+0x137c>
    400026cc:	9114a400 	add	x0, x0, #0x529
    400026d0:	94000042 	bl	400027d8 <boot_profiler_add_record>
    400026d4:	a8c17bfd 	ldp	x29, x30, [sp], #16
    400026d8:	14000078 	b	400028b8 <boot_profiler_deinit>

00000000400026dc <bl31_platform_setup>:
    400026dc:	90000080 	adrp	x0, 40012000 <version_string+0x137c>
    400026e0:	9113f800 	add	x0, x0, #0x4fe
    400026e4:	a9bf7bfd 	stp	x29, x30, [sp, #-16]!
    400026e8:	910003fd 	mov	x29, sp
    400026ec:	9400003b 	bl	400027d8 <boot_profiler_add_record>
    400026f0:	94001115 	bl	40006b44 <plat_gic_setup>
    400026f4:	940011eb 	bl	40006ea0 <plat_secondary_setup>
    400026f8:	940027cd 	bl	4000c62c <tegra_memctrl_setup>
    400026fc:	940011b0 	bl	40006dbc <plat_late_platform_setup>
    40002700:	a8c17bfd 	ldp	x29, x30, [sp], #16
    40002704:	90000080 	adrp	x0, 40012000 <version_string+0x137c>
    40002708:	91145000 	add	x0, x0, #0x514
    4000270c:	14000033 	b	400027d8 <boot_profiler_add_record>

0000000040002710 <bl31_prepare_next_image_entry>:
    40002710:	a9bd7bfd 	stp	x29, x30, [sp, #-48]!
    40002714:	910003fd 	mov	x29, sp
    40002718:	a90153f3 	stp	x19, x20, [sp, #16]
    4000271c:	f90013f5 	str	x21, [sp, #32]
    40002720:	d5380400 	mrs	x0, id_aa64pfr0_el1
    40002724:	d3441c00 	ubfx	x0, x0, #4, #4
    40002728:	f100041f 	cmp	x0, #0x1
    4000272c:	540000c1 	b.ne	40002744 <bl31_prepare_next_image_entry+0x34>  // b.any
    40002730:	d0000060 	adrp	x0, 40010000 <__TEXT_END__>
    40002734:	91341c00 	add	x0, x0, #0xd07
    40002738:	94002cba 	bl	4000da20 <tf_log>
    4000273c:	94000274 	bl	4000310c <console_flush>
    40002740:	97fffa82 	bl	40001148 <do_panic>
    40002744:	900000a0 	adrp	x0, 40016000 <__RODATA_END__>
    40002748:	b9463815 	ldr	w21, [x0, #1592]
    4000274c:	2a1503e0 	mov	w0, w21
    40002750:	97ffffcd 	bl	40002684 <bl31_plat_get_next_image_ep_info>
    40002754:	aa0003f3 	mov	x19, x0
    40002758:	b50000e0 	cbnz	x0, 40002774 <bl31_prepare_next_image_entry+0x64>
    4000275c:	d0000062 	adrp	x2, 40010000 <__TEXT_END__>
    40002760:	91355c42 	add	x2, x2, #0xd57
    40002764:	52801f21 	mov	w1, #0xf9                  	// #249
    40002768:	d0000060 	adrp	x0, 40010000 <__TEXT_END__>
    4000276c:	9133d800 	add	x0, x0, #0xcf6
    40002770:	97fff8eb 	bl	40000b1c <__assert>
    40002774:	b9400414 	ldr	w20, [x0, #4]
    40002778:	52800421 	mov	w1, #0x21                  	// #33
    4000277c:	0a010294 	and	w20, w20, w1
    40002780:	6b15029f 	cmp	w20, w21
    40002784:	540000a0 	b.eq	40002798 <bl31_prepare_next_image_entry+0x88>  // b.none
    40002788:	d0000062 	adrp	x2, 40010000 <__TEXT_END__>
    4000278c:	52801f41 	mov	w1, #0xfa                  	// #250
    40002790:	9135bc42 	add	x2, x2, #0xd6f
    40002794:	17fffff5 	b	40002768 <bl31_prepare_next_image_entry+0x58>
    40002798:	940012ba 	bl	40007280 <print_entry_point_info>
    4000279c:	aa1303e0 	mov	x0, x19
    400027a0:	9400010c 	bl	40002bd0 <cm_init_my_context>
    400027a4:	2a1403e0 	mov	w0, w20
    400027a8:	a94153f3 	ldp	x19, x20, [sp, #16]
    400027ac:	f94013f5 	ldr	x21, [sp, #32]
    400027b0:	a8c37bfd 	ldp	x29, x30, [sp], #48
    400027b4:	14000113 	b	40002c00 <cm_prepare_el3_exit>

00000000400027b8 <bl31_register_bl32_init>:
    400027b8:	b00000c1 	adrp	x1, 4001b000 <opteed_sp_context+0xe80>
    400027bc:	f9030020 	str	x0, [x1, #1536]
    400027c0:	d65f03c0 	ret

00000000400027c4 <bl31_setup>:
    400027c4:	a9bf7bfd 	stp	x29, x30, [sp, #-16]!
    400027c8:	910003fd 	mov	x29, sp
    400027cc:	97ffff16 	bl	40002424 <bl31_early_platform_setup2>
    400027d0:	a8c17bfd 	ldp	x29, x30, [sp], #16
    400027d4:	17ffff79 	b	400025b8 <bl31_plat_arch_setup>

00000000400027d8 <boot_profiler_add_record>:
    400027d8:	a9bd7bfd 	stp	x29, x30, [sp, #-48]!
    400027dc:	910003fd 	mov	x29, sp
    400027e0:	a90153f3 	stp	x19, x20, [sp, #16]
    400027e4:	a9025bf5 	stp	x21, x22, [sp, #32]
    400027e8:	aa0003f5 	mov	x21, x0
    400027ec:	940022d1 	bl	4000b330 <strlen>
    400027f0:	11000400 	add	w0, w0, #0x1
    400027f4:	7100e01f 	cmp	w0, #0x38
    400027f8:	54000588 	b.hi	400028a8 <boot_profiler_add_record+0xd0>  // b.pmore
    400027fc:	aa1503e0 	mov	x0, x21
    40002800:	940022cc 	bl	4000b330 <strlen>
    40002804:	11000414 	add	w20, w0, #0x1
    40002808:	d00000c0 	adrp	x0, 4001c000 <sdei_private_event_table+0x780>
    4000280c:	aa0003f6 	mov	x22, x0
    40002810:	f9449801 	ldr	x1, [x0, #2352]
    40002814:	b4000421 	cbz	x1, 40002898 <boot_profiler_add_record+0xc0>
    40002818:	f00000d3 	adrp	x19, 4001d000 <cpu_state+0x668>
    4000281c:	396d9260 	ldrb	w0, [x19, #2916]
    40002820:	35000160 	cbnz	w0, 4000284c <boot_profiler_add_record+0x74>
    40002824:	d53e1000 	mrs	x0, sctlr_el3
    40002828:	36000120 	tbz	w0, #0, 4000284c <boot_profiler_add_record+0x74>
    4000282c:	d00000c0 	adrp	x0, 4001c000 <sdei_private_event_table+0x780>
    40002830:	52800b03 	mov	w3, #0x58                  	// #88
    40002834:	d2820002 	mov	x2, #0x1000                	// #4096
    40002838:	f9449c01 	ldr	x1, [x0, #2360]
    4000283c:	aa0103e0 	mov	x0, x1
    40002840:	94000a9f 	bl	400052bc <mmap_add_dynamic_region>
    40002844:	52800020 	mov	w0, #0x1                   	// #1
    40002848:	392d9260 	strb	w0, [x19, #2916]
    4000284c:	d00000d3 	adrp	x19, 4001c000 <sdei_private_event_table+0x780>
    40002850:	2a1403e1 	mov	w1, w20
    40002854:	aa1503e3 	mov	x3, x21
    40002858:	90000082 	adrp	x2, 40012000 <version_string+0x137c>
    4000285c:	f9449660 	ldr	x0, [x19, #2344]
    40002860:	913db042 	add	x2, x2, #0xf6c
    40002864:	9400221b 	bl	4000b0d0 <snprintf>
    40002868:	f00000c0 	adrp	x0, 4001d000 <cpu_state+0x668>
    4000286c:	b94a5000 	ldr	w0, [x0, #2640]
    40002870:	b9400001 	ldr	w1, [x0]
    40002874:	f9449660 	ldr	x0, [x19, #2344]
    40002878:	2a0103e1 	mov	w1, w1
    4000287c:	f9001c01 	str	x1, [x0, #56]
    40002880:	d00000c1 	adrp	x1, 4001c000 <sdei_private_event_table+0x780>
    40002884:	f944a021 	ldr	x1, [x1, #2368]
    40002888:	eb01001f 	cmp	x0, x1
    4000288c:	54000121 	b.ne	400028b0 <boot_profiler_add_record+0xd8>  // b.any
    40002890:	f9449ac0 	ldr	x0, [x22, #2352]
    40002894:	f9049660 	str	x0, [x19, #2344]
    40002898:	a94153f3 	ldp	x19, x20, [sp, #16]
    4000289c:	a9425bf5 	ldp	x21, x22, [sp, #32]
    400028a0:	a8c37bfd 	ldp	x29, x30, [sp], #48
    400028a4:	d65f03c0 	ret
    400028a8:	52800714 	mov	w20, #0x38                  	// #56
    400028ac:	17ffffd7 	b	40002808 <boot_profiler_add_record+0x30>
    400028b0:	91010000 	add	x0, x0, #0x40
    400028b4:	17fffff8 	b	40002894 <boot_profiler_add_record+0xbc>

00000000400028b8 <boot_profiler_deinit>:
    400028b8:	a9be7bfd 	stp	x29, x30, [sp, #-32]!
    400028bc:	910003fd 	mov	x29, sp
    400028c0:	f9000bf3 	str	x19, [sp, #16]
    400028c4:	d00000d3 	adrp	x19, 4001c000 <sdei_private_event_table+0x780>
    400028c8:	f9449e60 	ldr	x0, [x19, #2360]
    400028cc:	b4000220 	cbz	x0, 40002910 <boot_profiler_deinit+0x58>
    400028d0:	d00000c1 	adrp	x1, 4001c000 <sdei_private_event_table+0x780>
    400028d4:	f904943f 	str	xzr, [x1, #2344]
    400028d8:	d00000c1 	adrp	x1, 4001c000 <sdei_private_event_table+0x780>
    400028dc:	f904983f 	str	xzr, [x1, #2352]
    400028e0:	d00000c1 	adrp	x1, 4001c000 <sdei_private_event_table+0x780>
    400028e4:	f904a03f 	str	xzr, [x1, #2368]
    400028e8:	d2820001 	mov	x1, #0x1000                	// #4096
    400028ec:	97fffbc1 	bl	400017f0 <flush_dcache_range>
    400028f0:	f00000c0 	adrp	x0, 4001d000 <cpu_state+0x668>
    400028f4:	396d9000 	ldrb	w0, [x0, #2916]
    400028f8:	340000c0 	cbz	w0, 40002910 <boot_profiler_deinit+0x58>
    400028fc:	f9449e60 	ldr	x0, [x19, #2360]
    40002900:	d2820001 	mov	x1, #0x1000                	// #4096
    40002904:	f9400bf3 	ldr	x19, [sp, #16]
    40002908:	a8c27bfd 	ldp	x29, x30, [sp], #32
    4000290c:	14000bd9 	b	40005870 <mmap_remove_dynamic_region>
    40002910:	f9400bf3 	ldr	x19, [sp, #16]
    40002914:	a8c27bfd 	ldp	x29, x30, [sp], #32
    40002918:	d65f03c0 	ret

000000004000291c <boot_profiler_init>:
    4000291c:	a9bf7bfd 	stp	x29, x30, [sp, #-16]!
    40002920:	910003fd 	mov	x29, sp
    40002924:	b50000e0 	cbnz	x0, 40002940 <boot_profiler_init+0x24>
    40002928:	90000082 	adrp	x2, 40012000 <version_string+0x137c>
    4000292c:	913c7c42 	add	x2, x2, #0xf1f
    40002930:	52800761 	mov	w1, #0x3b                  	// #59
    40002934:	90000080 	adrp	x0, 40012000 <version_string+0x137c>
    40002938:	913cd000 	add	x0, x0, #0xf34
    4000293c:	97fff878 	bl	40000b1c <__assert>
    40002940:	350000a1 	cbnz	w1, 40002954 <boot_profiler_init+0x38>
    40002944:	90000082 	adrp	x2, 40012000 <version_string+0x137c>
    40002948:	52800781 	mov	w1, #0x3c                  	// #60
    4000294c:	913d6c42 	add	x2, x2, #0xf5b
    40002950:	17fffff9 	b	40002934 <boot_profiler_init+0x18>
    40002954:	d00000c2 	adrp	x2, 4001c000 <sdei_private_event_table+0x780>
    40002958:	910f0003 	add	x3, x0, #0x3c0
    4000295c:	a8c17bfd 	ldp	x29, x30, [sp], #16
    40002960:	f9049c40 	str	x0, [x2, #2360]
    40002964:	d00000c2 	adrp	x2, 4001c000 <sdei_private_event_table+0x780>
    40002968:	f9049840 	str	x0, [x2, #2352]
    4000296c:	d00000c2 	adrp	x2, 4001c000 <sdei_private_event_table+0x780>
    40002970:	f904a043 	str	x3, [x2, #2368]
    40002974:	d00000c2 	adrp	x2, 4001c000 <sdei_private_event_table+0x780>
    40002978:	f9049440 	str	x0, [x2, #2344]
    4000297c:	f00000c0 	adrp	x0, 4001d000 <cpu_state+0x668>
    40002980:	b90a5001 	str	w1, [x0, #2640]
    40002984:	d65f03c0 	ret

0000000040002988 <can_sdei_state_trans>:
    40002988:	7100243f 	cmp	w1, #0x9
    4000298c:	54000129 	b.ls	400029b0 <can_sdei_state_trans+0x28>  // b.plast
    40002990:	a9bf7bfd 	stp	x29, x30, [sp, #-16]!
    40002994:	d0000082 	adrp	x2, 40014000 <__func__.4054+0x988>
    40002998:	d0000080 	adrp	x0, 40014000 <__func__.4054+0x988>
    4000299c:	910003fd 	mov	x29, sp
    400029a0:	91367442 	add	x2, x2, #0xd9d
    400029a4:	9136a800 	add	x0, x0, #0xdaa
    400029a8:	52801021 	mov	w1, #0x81                  	// #129
    400029ac:	97fff85c 	bl	40000b1c <__assert>
    400029b0:	39407002 	ldrb	w2, [x0, #28]
    400029b4:	71001c5f 	cmp	w2, #0x7
    400029b8:	540001a8 	b.hi	400029ec <can_sdei_state_trans+0x64>  // b.pmore
    400029bc:	d0000083 	adrp	x3, 40014000 <__func__.4054+0x988>
    400029c0:	91373463 	add	x3, x3, #0xdcd
    400029c4:	d2800144 	mov	x4, #0xa                   	// #10
    400029c8:	9b040c42 	madd	x2, x2, x4, x3
    400029cc:	38614841 	ldrb	w1, [x2, w1, uxtw]
    400029d0:	7103f83f 	cmp	w1, #0xfe
    400029d4:	54000080 	b.eq	400029e4 <can_sdei_state_trans+0x5c>  // b.none
    400029d8:	7103fc3f 	cmp	w1, #0xff
    400029dc:	54000080 	b.eq	400029ec <can_sdei_state_trans+0x64>  // b.none
    400029e0:	39007001 	strb	w1, [x0, #28]
    400029e4:	52800020 	mov	w0, #0x1                   	// #1
    400029e8:	d65f03c0 	ret
    400029ec:	52800000 	mov	w0, #0x0                   	// #0
    400029f0:	d65f03c0 	ret

00000000400029f4 <cm_el1_sysregs_context_restore>:
    400029f4:	a9be7bfd 	stp	x29, x30, [sp, #-32]!
    400029f8:	910003fd 	mov	x29, sp
    400029fc:	a90153f3 	stp	x19, x20, [sp, #16]
    40002a00:	2a0003f3 	mov	w19, w0
    40002a04:	94000048 	bl	40002b24 <cm_get_context>
    40002a08:	b50000e0 	cbnz	x0, 40002a24 <cm_el1_sysregs_context_restore+0x30>
    40002a0c:	d0000082 	adrp	x2, 40014000 <__func__.4054+0x988>
    40002a10:	f0000060 	adrp	x0, 40011000 <version_string+0x37c>
    40002a14:	911cac42 	add	x2, x2, #0x72b
    40002a18:	91180c00 	add	x0, x0, #0x603
    40002a1c:	52805fe1 	mov	w1, #0x2ff                 	// #767
    40002a20:	97fff83f 	bl	40000b1c <__assert>
    40002a24:	91054000 	add	x0, x0, #0x150
    40002a28:	97fffa06 	bl	40001240 <el1_sysregs_context_restore>
    40002a2c:	34000273 	cbz	w19, 40002a78 <cm_el1_sysregs_context_restore+0x84>
    40002a30:	f0000093 	adrp	x19, 40015000 <sdei_state_table+0x233>
    40002a34:	f0000094 	adrp	x20, 40015000 <sdei_state_table+0x233>
    40002a38:	9137c273 	add	x19, x19, #0xdf0
    40002a3c:	9137e294 	add	x20, x20, #0xdf8
    40002a40:	eb14027f 	cmp	x19, x20
    40002a44:	54000142 	b.cs	40002a6c <cm_el1_sysregs_context_restore+0x78>  // b.hs, b.nlast
    40002a48:	f8408661 	ldr	x1, [x19], #8
    40002a4c:	d2800000 	mov	x0, #0x0                   	// #0
    40002a50:	d63f0020 	blr	x1
    40002a54:	17fffffb 	b	40002a40 <cm_el1_sysregs_context_restore+0x4c>
    40002a58:	f8408661 	ldr	x1, [x19], #8
    40002a5c:	d2800000 	mov	x0, #0x0                   	// #0
    40002a60:	d63f0020 	blr	x1
    40002a64:	eb14027f 	cmp	x19, x20
    40002a68:	54ffff83 	b.cc	40002a58 <cm_el1_sysregs_context_restore+0x64>  // b.lo, b.ul, b.last
    40002a6c:	a94153f3 	ldp	x19, x20, [sp, #16]
    40002a70:	a8c27bfd 	ldp	x29, x30, [sp], #32
    40002a74:	d65f03c0 	ret
    40002a78:	f0000093 	adrp	x19, 40015000 <sdei_state_table+0x233>
    40002a7c:	f0000094 	adrp	x20, 40015000 <sdei_state_table+0x233>
    40002a80:	9137a273 	add	x19, x19, #0xde8
    40002a84:	9137c294 	add	x20, x20, #0xdf0
    40002a88:	17fffff7 	b	40002a64 <cm_el1_sysregs_context_restore+0x70>

0000000040002a8c <cm_el1_sysregs_context_save>:
    40002a8c:	a9be7bfd 	stp	x29, x30, [sp, #-32]!
    40002a90:	910003fd 	mov	x29, sp
    40002a94:	a90153f3 	stp	x19, x20, [sp, #16]
    40002a98:	2a0003f3 	mov	w19, w0
    40002a9c:	94000022 	bl	40002b24 <cm_get_context>
    40002aa0:	b50000e0 	cbnz	x0, 40002abc <cm_el1_sysregs_context_save+0x30>
    40002aa4:	d0000082 	adrp	x2, 40014000 <__func__.4054+0x988>
    40002aa8:	f0000060 	adrp	x0, 40011000 <version_string+0x37c>
    40002aac:	911cac42 	add	x2, x2, #0x72b
    40002ab0:	91180c00 	add	x0, x0, #0x603
    40002ab4:	52805dc1 	mov	w1, #0x2ee                 	// #750
    40002ab8:	97fff819 	bl	40000b1c <__assert>
    40002abc:	91054000 	add	x0, x0, #0x150
    40002ac0:	97fffa13 	bl	4000130c <el1_sysregs_context_save>
    40002ac4:	34000273 	cbz	w19, 40002b10 <cm_el1_sysregs_context_save+0x84>
    40002ac8:	f0000093 	adrp	x19, 40015000 <sdei_state_table+0x233>
    40002acc:	f0000094 	adrp	x20, 40015000 <sdei_state_table+0x233>
    40002ad0:	9137e273 	add	x19, x19, #0xdf8
    40002ad4:	91380294 	add	x20, x20, #0xe00
    40002ad8:	eb14027f 	cmp	x19, x20
    40002adc:	54000142 	b.cs	40002b04 <cm_el1_sysregs_context_save+0x78>  // b.hs, b.nlast
    40002ae0:	f8408661 	ldr	x1, [x19], #8
    40002ae4:	d2800000 	mov	x0, #0x0                   	// #0
    40002ae8:	d63f0020 	blr	x1
    40002aec:	17fffffb 	b	40002ad8 <cm_el1_sysregs_context_save+0x4c>
    40002af0:	f8408661 	ldr	x1, [x19], #8
    40002af4:	d2800000 	mov	x0, #0x0                   	// #0
    40002af8:	d63f0020 	blr	x1
    40002afc:	eb14027f 	cmp	x19, x20
    40002b00:	54ffff83 	b.cc	40002af0 <cm_el1_sysregs_context_save+0x64>  // b.lo, b.ul, b.last
    40002b04:	a94153f3 	ldp	x19, x20, [sp, #16]
    40002b08:	a8c27bfd 	ldp	x29, x30, [sp], #32
    40002b0c:	d65f03c0 	ret
    40002b10:	f0000093 	adrp	x19, 40015000 <sdei_state_table+0x233>
    40002b14:	f0000094 	adrp	x20, 40015000 <sdei_state_table+0x233>
    40002b18:	9137c273 	add	x19, x19, #0xdf0
    40002b1c:	9137c294 	add	x20, x20, #0xdf0
    40002b20:	17fffff7 	b	40002afc <cm_el1_sysregs_context_save+0x70>

0000000040002b24 <cm_get_context>:
    40002b24:	7100041f 	cmp	w0, #0x1
    40002b28:	54000129 	b.ls	40002b4c <cm_get_context+0x28>  // b.plast
    40002b2c:	a9bf7bfd 	stp	x29, x30, [sp, #-16]!
    40002b30:	d0000062 	adrp	x2, 40010000 <__TEXT_END__>
    40002b34:	d0000060 	adrp	x0, 40010000 <__TEXT_END__>
    40002b38:	910003fd 	mov	x29, sp
    40002b3c:	91328042 	add	x2, x2, #0xca0
    40002b40:	91330c00 	add	x0, x0, #0xcc3
    40002b44:	528002c1 	mov	w1, #0x16                  	// #22
    40002b48:	97fff7f5 	bl	40000b1c <__assert>
    40002b4c:	d53ed041 	mrs	x1, tpidr_el3
    40002b50:	f8605820 	ldr	x0, [x1, w0, uxtw #3]
    40002b54:	d65f03c0 	ret

0000000040002b58 <cm_get_context_by_index>:
    40002b58:	a9be7bfd 	stp	x29, x30, [sp, #-32]!
    40002b5c:	7100043f 	cmp	w1, #0x1
    40002b60:	910003fd 	mov	x29, sp
    40002b64:	f9000bf3 	str	x19, [sp, #16]
    40002b68:	540000e9 	b.ls	40002b84 <cm_get_context_by_index+0x2c>  // b.plast
    40002b6c:	d0000062 	adrp	x2, 40010000 <__TEXT_END__>
    40002b70:	d0000060 	adrp	x0, 40010000 <__TEXT_END__>
    40002b74:	91328042 	add	x2, x2, #0xca0
    40002b78:	91330c00 	add	x0, x0, #0xcc3
    40002b7c:	52800601 	mov	w1, #0x30                  	// #48
    40002b80:	97fff7e7 	bl	40000b1c <__assert>
    40002b84:	2a0103f3 	mov	w19, w1
    40002b88:	97fff862 	bl	40000d10 <_cpu_data_by_index>
    40002b8c:	f8735800 	ldr	x0, [x0, w19, uxtw #3]
    40002b90:	f9400bf3 	ldr	x19, [sp, #16]
    40002b94:	a8c27bfd 	ldp	x29, x30, [sp], #32
    40002b98:	d65f03c0 	ret

0000000040002b9c <cm_init>:
    40002b9c:	d65f03c0 	ret

0000000040002ba0 <cm_init_context_by_index>:
    40002ba0:	a9be7bfd 	stp	x29, x30, [sp, #-32]!
    40002ba4:	910003fd 	mov	x29, sp
    40002ba8:	f9000bf3 	str	x19, [sp, #16]
    40002bac:	aa0103f3 	mov	x19, x1
    40002bb0:	52800421 	mov	w1, #0x21                  	// #33
    40002bb4:	b9400662 	ldr	w2, [x19, #4]
    40002bb8:	0a010041 	and	w1, w2, w1
    40002bbc:	97ffffe7 	bl	40002b58 <cm_get_context_by_index>
    40002bc0:	aa1303e1 	mov	x1, x19
    40002bc4:	f9400bf3 	ldr	x19, [sp, #16]
    40002bc8:	a8c27bfd 	ldp	x29, x30, [sp], #32
    40002bcc:	140000a1 	b	40002e50 <cm_setup_context>

0000000040002bd0 <cm_init_my_context>:
    40002bd0:	a9be7bfd 	stp	x29, x30, [sp, #-32]!
    40002bd4:	910003fd 	mov	x29, sp
    40002bd8:	f9000bf3 	str	x19, [sp, #16]
    40002bdc:	aa0003f3 	mov	x19, x0
    40002be0:	52800420 	mov	w0, #0x21                  	// #33
    40002be4:	b9400661 	ldr	w1, [x19, #4]
    40002be8:	0a000020 	and	w0, w1, w0
    40002bec:	97ffffce 	bl	40002b24 <cm_get_context>
    40002bf0:	aa1303e1 	mov	x1, x19
    40002bf4:	f9400bf3 	ldr	x19, [sp, #16]
    40002bf8:	a8c27bfd 	ldp	x29, x30, [sp], #32
    40002bfc:	14000095 	b	40002e50 <cm_setup_context>

0000000040002c00 <cm_prepare_el3_exit>:
    40002c00:	a9be7bfd 	stp	x29, x30, [sp, #-32]!
    40002c04:	910003fd 	mov	x29, sp
    40002c08:	a90153f3 	stp	x19, x20, [sp, #16]
    40002c0c:	2a0003f3 	mov	w19, w0
    40002c10:	97ffffc5 	bl	40002b24 <cm_get_context>
    40002c14:	b50000e0 	cbnz	x0, 40002c30 <cm_prepare_el3_exit+0x30>
    40002c18:	d0000082 	adrp	x2, 40014000 <__func__.4054+0x988>
    40002c1c:	f0000060 	adrp	x0, 40011000 <version_string+0x37c>
    40002c20:	911cac42 	add	x2, x2, #0x72b
    40002c24:	91180c00 	add	x0, x0, #0x603
    40002c28:	52803ca1 	mov	w1, #0x1e5                 	// #485
    40002c2c:	97fff7bc 	bl	40000b1c <__assert>
    40002c30:	7100067f 	cmp	w19, #0x1
    40002c34:	54000541 	b.ne	40002cdc <cm_prepare_el3_exit+0xdc>  // b.any
    40002c38:	f9408001 	ldr	x1, [x0, #256]
    40002c3c:	aa0003f4 	mov	x20, x0
    40002c40:	92780022 	and	x2, x1, #0x100
    40002c44:	36400121 	tbz	w1, #8, 40002c68 <cm_prepare_el3_exit+0x68>
    40002c48:	f940b000 	ldr	x0, [x0, #352]
    40002c4c:	d2810601 	mov	x1, #0x830                 	// #2096
    40002c50:	f2a618a1 	movk	x1, #0x30c5, lsl #16
    40002c54:	92670000 	and	x0, x0, #0x2000000
    40002c58:	aa010000 	orr	x0, x0, x1
    40002c5c:	d51c1000 	msr	sctlr_el2, x0
    40002c60:	52800000 	mov	w0, #0x0                   	// #0
    40002c64:	1400001b 	b	40002cd0 <cm_prepare_el3_exit+0xd0>
    40002c68:	d5380400 	mrs	x0, id_aa64pfr0_el1
    40002c6c:	f2780c1f 	tst	x0, #0xf00
    40002c70:	54ffff80 	b.eq	40002c60 <cm_prepare_el3_exit+0x60>  // b.none
    40002c74:	f2760021 	ands	x1, x1, #0x400
    40002c78:	d2b00000 	mov	x0, #0x80000000            	// #2147483648
    40002c7c:	9a800021 	csel	x1, x1, x0, eq  // eq = none
    40002c80:	b2580421 	orr	x1, x1, #0x30000000000
    40002c84:	d51c1101 	msr	hcr_el2, x1
    40002c88:	d2867fe0 	mov	x0, #0x33ff                	// #13311
    40002c8c:	d51c1140 	msr	cptr_el2, x0
    40002c90:	d2800060 	mov	x0, #0x3                   	// #3
    40002c94:	d51ce100 	msr	cnthctl_el2, x0
    40002c98:	d51ce062 	msr	cntvoff_el2, x2
    40002c9c:	d5380000 	mrs	x0, midr_el1
    40002ca0:	d51c0000 	msr	vpidr_el2, x0
    40002ca4:	d53800a0 	mrs	x0, mpidr_el1
    40002ca8:	d51c00a0 	msr	vmpidr_el2, x0
    40002cac:	d51c2102 	msr	vttbr_el2, x2
    40002cb0:	d53b9c00 	mrs	x0, pmcr_el0
    40002cb4:	d34b3c00 	ubfx	x0, x0, #11, #5
    40002cb8:	d2a08041 	mov	x1, #0x4020000             	// #67239936
    40002cbc:	aa010000 	orr	x0, x0, x1
    40002cc0:	d51c1120 	msr	mdcr_el2, x0
    40002cc4:	d51c1162 	msr	hstr_el2, x2
    40002cc8:	d51ce222 	msr	cnthp_ctl_el2, x2
    40002ccc:	2a1303e0 	mov	w0, w19
    40002cd0:	94002135 	bl	4000b1a4 <spe_enable>
    40002cd4:	aa1403e0 	mov	x0, x20
    40002cd8:	940021a7 	bl	4000b374 <sve_enable>
    40002cdc:	2a1303e0 	mov	w0, w19
    40002ce0:	97ffff45 	bl	400029f4 <cm_el1_sysregs_context_restore>
    40002ce4:	2a1303e0 	mov	w0, w19
    40002ce8:	a94153f3 	ldp	x19, x20, [sp, #16]
    40002cec:	a8c27bfd 	ldp	x29, x30, [sp], #32
    40002cf0:	14000041 	b	40002df4 <cm_set_next_eret_context>

0000000040002cf4 <cm_set_context>:
    40002cf4:	7100043f 	cmp	w1, #0x1
    40002cf8:	54000129 	b.ls	40002d1c <cm_set_context+0x28>  // b.plast
    40002cfc:	a9bf7bfd 	stp	x29, x30, [sp, #-16]!
    40002d00:	d0000062 	adrp	x2, 40010000 <__TEXT_END__>
    40002d04:	d0000060 	adrp	x0, 40010000 <__TEXT_END__>
    40002d08:	910003fd 	mov	x29, sp
    40002d0c:	91328042 	add	x2, x2, #0xca0
    40002d10:	91330c00 	add	x0, x0, #0xcc3
    40002d14:	52800421 	mov	w1, #0x21                  	// #33
    40002d18:	97fff781 	bl	40000b1c <__assert>
    40002d1c:	d53ed042 	mrs	x2, tpidr_el3
    40002d20:	f8215840 	str	x0, [x2, w1, uxtw #3]
    40002d24:	d65f03c0 	ret

0000000040002d28 <cm_set_context_by_index>:
    40002d28:	a9be7bfd 	stp	x29, x30, [sp, #-32]!
    40002d2c:	7100045f 	cmp	w2, #0x1
    40002d30:	910003fd 	mov	x29, sp
    40002d34:	a90153f3 	stp	x19, x20, [sp, #16]
    40002d38:	540000e9 	b.ls	40002d54 <cm_set_context_by_index+0x2c>  // b.plast
    40002d3c:	d0000062 	adrp	x2, 40010000 <__TEXT_END__>
    40002d40:	d0000060 	adrp	x0, 40010000 <__TEXT_END__>
    40002d44:	91328042 	add	x2, x2, #0xca0
    40002d48:	91330c00 	add	x0, x0, #0xcc3
    40002d4c:	528007a1 	mov	w1, #0x3d                  	// #61
    40002d50:	97fff773 	bl	40000b1c <__assert>
    40002d54:	2a0203f3 	mov	w19, w2
    40002d58:	aa0103f4 	mov	x20, x1
    40002d5c:	97fff7ed 	bl	40000d10 <_cpu_data_by_index>
    40002d60:	f8335814 	str	x20, [x0, w19, uxtw #3]
    40002d64:	a94153f3 	ldp	x19, x20, [sp, #16]
    40002d68:	a8c27bfd 	ldp	x29, x30, [sp], #32
    40002d6c:	d65f03c0 	ret

0000000040002d70 <cm_set_elr_el3>:
    40002d70:	a9be7bfd 	stp	x29, x30, [sp, #-32]!
    40002d74:	910003fd 	mov	x29, sp
    40002d78:	f9000bf3 	str	x19, [sp, #16]
    40002d7c:	aa0103f3 	mov	x19, x1
    40002d80:	97ffff69 	bl	40002b24 <cm_get_context>
    40002d84:	b50000e0 	cbnz	x0, 40002da0 <cm_set_elr_el3+0x30>
    40002d88:	d0000082 	adrp	x2, 40014000 <__func__.4054+0x988>
    40002d8c:	f0000060 	adrp	x0, 40011000 <version_string+0x37c>
    40002d90:	911cac42 	add	x2, x2, #0x72b
    40002d94:	91180c00 	add	x0, x0, #0x603
    40002d98:	528062a1 	mov	w1, #0x315                 	// #789
    40002d9c:	97fff760 	bl	40000b1c <__assert>
    40002da0:	f9009013 	str	x19, [x0, #288]
    40002da4:	f9400bf3 	ldr	x19, [sp, #16]
    40002da8:	a8c27bfd 	ldp	x29, x30, [sp], #32
    40002dac:	d65f03c0 	ret

0000000040002db0 <cm_set_elr_spsr_el3>:
    40002db0:	a9be7bfd 	stp	x29, x30, [sp, #-32]!
    40002db4:	910003fd 	mov	x29, sp
    40002db8:	a90153f3 	stp	x19, x20, [sp, #16]
    40002dbc:	aa0103f4 	mov	x20, x1
    40002dc0:	2a0203f3 	mov	w19, w2
    40002dc4:	97ffff58 	bl	40002b24 <cm_get_context>
    40002dc8:	b50000e0 	cbnz	x0, 40002de4 <cm_set_elr_spsr_el3+0x34>
    40002dcc:	d0000082 	adrp	x2, 40014000 <__func__.4054+0x988>
    40002dd0:	f0000060 	adrp	x0, 40011000 <version_string+0x37c>
    40002dd4:	911cac42 	add	x2, x2, #0x72b
    40002dd8:	91180c00 	add	x0, x0, #0x603
    40002ddc:	528064e1 	mov	w1, #0x327                 	// #807
    40002de0:	97fff74f 	bl	40000b1c <__assert>
    40002de4:	a911d013 	stp	x19, x20, [x0, #280]
    40002de8:	a94153f3 	ldp	x19, x20, [sp, #16]
    40002dec:	a8c27bfd 	ldp	x29, x30, [sp], #32
    40002df0:	d65f03c0 	ret

0000000040002df4 <cm_set_next_eret_context>:
    40002df4:	a9bf7bfd 	stp	x29, x30, [sp, #-16]!
    40002df8:	910003fd 	mov	x29, sp
    40002dfc:	97ffff4a 	bl	40002b24 <cm_get_context>
    40002e00:	b50000e0 	cbnz	x0, 40002e1c <cm_set_next_eret_context+0x28>
    40002e04:	d0000082 	adrp	x2, 40014000 <__func__.4054+0x988>
    40002e08:	f0000060 	adrp	x0, 40011000 <version_string+0x37c>
    40002e0c:	911cac42 	add	x2, x2, #0x72b
    40002e10:	91180c00 	add	x0, x0, #0x603
    40002e14:	52806d61 	mov	w1, #0x36b                 	// #875
    40002e18:	97fff741 	bl	40000b1c <__assert>
    40002e1c:	d5384201 	mrs	x1, spsel
    40002e20:	b40000e1 	cbz	x1, 40002e3c <cm_set_next_eret_context+0x48>
    40002e24:	f0000062 	adrp	x2, 40011000 <version_string+0x37c>
    40002e28:	f0000060 	adrp	x0, 40011000 <version_string+0x37c>
    40002e2c:	911aa042 	add	x2, x2, #0x6a8
    40002e30:	911afc00 	add	x0, x0, #0x6bf
    40002e34:	52800941 	mov	w1, #0x4a                  	// #74
    40002e38:	17fffff8 	b	40002e18 <cm_set_next_eret_context+0x24>
    40002e3c:	d50041bf 	msr	spsel, #0x1
    40002e40:	9100001f 	mov	sp, x0
    40002e44:	d50040bf 	msr	spsel, #0x0
    40002e48:	a8c17bfd 	ldp	x29, x30, [sp], #16
    40002e4c:	d65f03c0 	ret

0000000040002e50 <cm_setup_context>:
    40002e50:	a9bd7bfd 	stp	x29, x30, [sp, #-48]!
    40002e54:	910003fd 	mov	x29, sp
    40002e58:	a90153f3 	stp	x19, x20, [sp, #16]
    40002e5c:	a9025bf5 	stp	x21, x22, [sp, #32]
    40002e60:	b50000e0 	cbnz	x0, 40002e7c <cm_setup_context+0x2c>
    40002e64:	d0000082 	adrp	x2, 40014000 <__func__.4054+0x988>
    40002e68:	911cac42 	add	x2, x2, #0x72b
    40002e6c:	528009c1 	mov	w1, #0x4e                  	// #78
    40002e70:	f0000060 	adrp	x0, 40011000 <version_string+0x37c>
    40002e74:	91180c00 	add	x0, x0, #0x603
    40002e78:	97fff729 	bl	40000b1c <__assert>
    40002e7c:	aa0103f5 	mov	x21, x1
    40002e80:	52800421 	mov	w1, #0x21                  	// #33
    40002e84:	aa0003f4 	mov	x20, x0
    40002e88:	b94006b6 	ldr	w22, [x21, #4]
    40002e8c:	0a0102d6 	and	w22, w22, w1
    40002e90:	d2804e01 	mov	x1, #0x270                 	// #624
    40002e94:	97fffc6d 	bl	40002048 <zeromem>
    40002e98:	d53e1113 	mrs	x19, scr_el3
    40002e9c:	9281a0e0 	mov	x0, #0xfffffffffffff2f8    	// #-3336
    40002ea0:	710006df 	cmp	w22, #0x1
    40002ea4:	8a000273 	and	x19, x19, x0
    40002ea8:	54000041 	b.ne	40002eb0 <cm_setup_context+0x60>  // b.any
    40002eac:	b2400273 	orr	x19, x19, #0x1
    40002eb0:	b94012a0 	ldr	w0, [x21, #16]
    40002eb4:	37200040 	tbnz	w0, #4, 40002ebc <cm_setup_context+0x6c>
    40002eb8:	b2760273 	orr	x19, x19, #0x400
    40002ebc:	b94006a0 	ldr	w0, [x21, #4]
    40002ec0:	36100040 	tbz	w0, #2, 40002ec8 <cm_setup_context+0x78>
    40002ec4:	b2750273 	orr	x19, x19, #0x800
    40002ec8:	710006df 	cmp	w22, #0x1
    40002ecc:	54000041 	b.ne	40002ed4 <cm_setup_context+0x84>  // b.any
    40002ed0:	b2700673 	orr	x19, x19, #0x30000
    40002ed4:	d5380420 	mrs	x0, id_aa64pfr1_el1
    40002ed8:	53082c00 	ubfx	w0, w0, #8, #4
    40002edc:	7100041f 	cmp	w0, #0x1
    40002ee0:	540000c0 	b.eq	40002ef8 <cm_setup_context+0xa8>  // b.none
    40002ee4:	51000800 	sub	w0, w0, #0x2
    40002ee8:	7100041f 	cmp	w0, #0x1
    40002eec:	54000088 	b.hi	40002efc <cm_setup_context+0xac>  // b.pmore
    40002ef0:	710006df 	cmp	w22, #0x1
    40002ef4:	54000041 	b.ne	40002efc <cm_setup_context+0xac>  // b.any
    40002ef8:	b2660273 	orr	x19, x19, #0x4000000
    40002efc:	710086df 	cmp	w22, #0x21
    40002f00:	54000080 	b.eq	40002f10 <cm_setup_context+0xc0>  // b.none
    40002f04:	2a1603e0 	mov	w0, w22
    40002f08:	940002d7 	bl	40003a64 <get_scr_el3_from_routing_model>
    40002f0c:	aa000273 	orr	x19, x19, x0
    40002f10:	d53e1140 	mrs	x0, cptr_el3
    40002f14:	f9009e80 	str	x0, [x20, #312]
    40002f18:	35000076 	cbnz	w22, 40002f24 <cm_setup_context+0xd4>
    40002f1c:	aa1403e0 	mov	x0, x20
    40002f20:	9400210b 	bl	4000b34c <sve_disable>
    40002f24:	b94012a0 	ldr	w0, [x21, #16]
    40002f28:	d3441003 	ubfx	x3, x0, #4, #1
    40002f2c:	37200240 	tbnz	w0, #4, 40002f74 <cm_setup_context+0x124>
    40002f30:	d3420c01 	ubfx	x1, x0, #2, #2
    40002f34:	7100083f 	cmp	w1, #0x2
    40002f38:	540003a1 	b.ne	40002fac <cm_setup_context+0x15c>  // b.any
    40002f3c:	d5380702 	mrs	x2, id_aa64mmfr0_el1
    40002f40:	d2802001 	mov	x1, #0x100                 	// #256
    40002f44:	d378ec42 	ubfx	x2, x2, #56, #4
    40002f48:	b2780264 	orr	x4, x19, #0x100
    40002f4c:	f100045f 	cmp	x2, #0x1
    40002f50:	f2a10001 	movk	x1, #0x800, lsl #16
    40002f54:	aa010273 	orr	x19, x19, x1
    40002f58:	9a840273 	csel	x19, x19, x4, eq  // eq = none
    40002f5c:	d5380701 	mrs	x1, id_aa64mmfr0_el1
    40002f60:	d37cfc21 	lsr	x1, x1, #60
    40002f64:	f100083f 	cmp	x1, #0x2
    40002f68:	540000c1 	b.ne	40002f80 <cm_setup_context+0x130>  // b.any
    40002f6c:	b2640273 	orr	x19, x19, #0x10000000
    40002f70:	14000004 	b	40002f80 <cm_setup_context+0x130>
    40002f74:	12000c01 	and	w1, w0, #0xf
    40002f78:	7100283f 	cmp	w1, #0xa
    40002f7c:	54fffe00 	b.eq	40002f3c <cm_setup_context+0xec>  // b.none
    40002f80:	35000176 	cbnz	w22, 40002fac <cm_setup_context+0x15c>
    40002f84:	d3420c00 	ubfx	x0, x0, #2, #2
    40002f88:	7100081f 	cmp	w0, #0x2
    40002f8c:	54000101 	b.ne	40002fac <cm_setup_context+0x15c>  // b.any
    40002f90:	b26e0273 	orr	x19, x19, #0x40000
    40002f94:	340000c3 	cbz	w3, 40002fac <cm_setup_context+0x15c>
    40002f98:	f0000060 	adrp	x0, 40011000 <version_string+0x37c>
    40002f9c:	9118a800 	add	x0, x0, #0x62a
    40002fa0:	94002aa0 	bl	4000da20 <tf_log>
    40002fa4:	9400005a 	bl	4000310c <console_flush>
    40002fa8:	97fff868 	bl	40001148 <do_panic>
    40002fac:	d5380400 	mrs	x0, id_aa64pfr0_el1
    40002fb0:	d36cfc00 	lsr	x0, x0, #44
    40002fb4:	f27f081f 	tst	x0, #0xe
    40002fb8:	540000a0 	b.eq	40002fcc <cm_setup_context+0x17c>  // b.none
    40002fbc:	d5380400 	mrs	x0, id_aa64pfr0_el1
    40002fc0:	f2780c1f 	tst	x0, #0xf00
    40002fc4:	54000040 	b.eq	40002fcc <cm_setup_context+0x17c>  // b.none
    40002fc8:	b25d0273 	orr	x19, x19, #0x800000000
    40002fcc:	b94006a0 	ldr	w0, [x21, #4]
    40002fd0:	d2810016 	mov	x22, #0x800                 	// #2048
    40002fd4:	d2810701 	mov	x1, #0x838                 	// #2104
    40002fd8:	7100007f 	cmp	w3, #0x0
    40002fdc:	f2a018a1 	movk	x1, #0xc5, lsl #16
    40002fe0:	f2a61a16 	movk	x22, #0x30d0, lsl #16
    40002fe4:	d3689c00 	lsl	x0, x0, #24
    40002fe8:	92670000 	and	x0, x0, #0x2000000
    40002fec:	aa160016 	orr	x22, x0, x22
    40002ff0:	aa010000 	orr	x0, x0, x1
    40002ff4:	9a961016 	csel	x22, x0, x22, ne  // ne = any
    40002ff8:	d5380720 	mrs	x0, id_aa64mmfr1_el1
    40002ffc:	d3608c00 	ubfx	x0, x0, #32, #4
    40003000:	f100041f 	cmp	x0, #0x1
    40003004:	540001c1 	b.ne	4000303c <cm_setup_context+0x1ec>  // b.any
    40003008:	94000da9 	bl	400066ac <plat_arm_set_twedel_scr_el3>
    4000300c:	3100041f 	cmn	w0, #0x1
    40003010:	54000160 	b.eq	4000303c <cm_setup_context+0x1ec>  // b.none
    40003014:	2a0003e1 	mov	w1, w0
    40003018:	f27c6c1f 	tst	x0, #0xfffffff0
    4000301c:	540000a0 	b.eq	40003030 <cm_setup_context+0x1e0>  // b.none
    40003020:	d0000062 	adrp	x2, 40011000 <version_string+0x37c>
    40003024:	528027c1 	mov	w1, #0x13e                 	// #318
    40003028:	91193442 	add	x2, x2, #0x64d
    4000302c:	17ffff91 	b	40002e70 <cm_setup_context+0x20>
    40003030:	925eee73 	and	x19, x19, #0xfffffffc3fffffff
    40003034:	aa017a73 	orr	x19, x19, x1, lsl #30
    40003038:	b2630273 	orr	x19, x19, #0x20000000
    4000303c:	f900b296 	str	x22, [x20, #352]
    40003040:	d5381020 	mrs	x0, actlr_el1
    40003044:	f94006a1 	ldr	x1, [x21, #8]
    40003048:	f9009281 	str	x1, [x20, #288]
    4000304c:	b94012a1 	ldr	w1, [x21, #16]
    40003050:	d2800802 	mov	x2, #0x40                  	// #64
    40003054:	f9008293 	str	x19, [x20, #256]
    40003058:	f9008e81 	str	x1, [x20, #280]
    4000305c:	910062a1 	add	x1, x21, #0x18
    40003060:	f900da80 	str	x0, [x20, #432]
    40003064:	aa1403e0 	mov	x0, x20
    40003068:	a94153f3 	ldp	x19, x20, [sp, #16]
    4000306c:	a9425bf5 	ldp	x21, x22, [sp, #32]
    40003070:	a8c37bfd 	ldp	x29, x30, [sp], #48
    40003074:	1400084c 	b	400051a4 <memcpy>

0000000040003078 <cm_write_scr_el3_bit>:
    40003078:	a9be7bfd 	stp	x29, x30, [sp, #-32]!
    4000307c:	910003fd 	mov	x29, sp
    40003080:	a90153f3 	stp	x19, x20, [sp, #16]
    40003084:	2a0103f4 	mov	w20, w1
    40003088:	2a0203f3 	mov	w19, w2
    4000308c:	97fffea6 	bl	40002b24 <cm_get_context>
    40003090:	b50000e0 	cbnz	x0, 400030ac <cm_write_scr_el3_bit+0x34>
    40003094:	b0000082 	adrp	x2, 40014000 <__func__.4054+0x988>
    40003098:	911cac42 	add	x2, x2, #0x72b
    4000309c:	528067a1 	mov	w1, #0x33d                 	// #829
    400030a0:	d0000060 	adrp	x0, 40011000 <version_string+0x37c>
    400030a4:	91180c00 	add	x0, x0, #0x603
    400030a8:	97fff69d 	bl	40000b1c <__assert>
    400030ac:	d285f1e1 	mov	x1, #0x2f8f                	// #12175
    400030b0:	f2c04801 	movk	x1, #0x240, lsl #32
    400030b4:	9ad42421 	lsr	x1, x1, x20
    400030b8:	370000a1 	tbnz	w1, #0, 400030cc <cm_write_scr_el3_bit+0x54>
    400030bc:	d0000062 	adrp	x2, 40011000 <version_string+0x37c>
    400030c0:	52806801 	mov	w1, #0x340                 	// #832
    400030c4:	9119b842 	add	x2, x2, #0x66e
    400030c8:	17fffff6 	b	400030a0 <cm_write_scr_el3_bit+0x28>
    400030cc:	7100067f 	cmp	w19, #0x1
    400030d0:	540000a9 	b.ls	400030e4 <cm_write_scr_el3_bit+0x6c>  // b.plast
    400030d4:	d0000062 	adrp	x2, 40011000 <version_string+0x37c>
    400030d8:	52806861 	mov	w1, #0x343                 	// #835
    400030dc:	911a7042 	add	x2, x2, #0x69c
    400030e0:	17fffff0 	b	400030a0 <cm_write_scr_el3_bit+0x28>
    400030e4:	f9408001 	ldr	x1, [x0, #256]
    400030e8:	d2800022 	mov	x2, #0x1                   	// #1
    400030ec:	9ad42042 	lsl	x2, x2, x20
    400030f0:	8a220022 	bic	x2, x1, x2
    400030f4:	9ad42273 	lsl	x19, x19, x20
    400030f8:	aa020273 	orr	x19, x19, x2
    400030fc:	f9008013 	str	x19, [x0, #256]
    40003100:	a94153f3 	ldp	x19, x20, [sp, #16]
    40003104:	a8c27bfd 	ldp	x29, x30, [sp], #32
    40003108:	d65f03c0 	ret

000000004000310c <console_flush>:
    4000310c:	a9be7bfd 	stp	x29, x30, [sp, #-32]!
    40003110:	d00000c0 	adrp	x0, 4001d000 <cpu_state+0x668>
    40003114:	910003fd 	mov	x29, sp
    40003118:	a90153f3 	stp	x19, x20, [sp, #16]
    4000311c:	f0000094 	adrp	x20, 40016000 <__RODATA_END__>
    40003120:	911f0294 	add	x20, x20, #0x7c0
    40003124:	f9426c13 	ldr	x19, [x0, #1240]
    40003128:	b5000093 	cbnz	x19, 40003138 <console_flush+0x2c>
    4000312c:	a94153f3 	ldp	x19, x20, [sp, #16]
    40003130:	a8c27bfd 	ldp	x29, x30, [sp], #32
    40003134:	d65f03c0 	ret
    40003138:	f9400660 	ldr	x0, [x19, #8]
    4000313c:	39400281 	ldrb	w1, [x20]
    40003140:	ea00003f 	tst	x1, x0
    40003144:	540000a0 	b.eq	40003158 <console_flush+0x4c>  // b.none
    40003148:	f9401261 	ldr	x1, [x19, #32]
    4000314c:	b4000061 	cbz	x1, 40003158 <console_flush+0x4c>
    40003150:	aa1303e0 	mov	x0, x19
    40003154:	d63f0020 	blr	x1
    40003158:	f9400273 	ldr	x19, [x19]
    4000315c:	17fffff3 	b	40003128 <console_flush+0x1c>

0000000040003160 <console_is_registered>:
    40003160:	b5000120 	cbnz	x0, 40003184 <console_is_registered+0x24>
    40003164:	a9bf7bfd 	stp	x29, x30, [sp, #-16]!
    40003168:	b0000082 	adrp	x2, 40014000 <__func__.4054+0x988>
    4000316c:	b0000080 	adrp	x0, 40014000 <__func__.4054+0x988>
    40003170:	910003fd 	mov	x29, sp
    40003174:	913b8442 	add	x2, x2, #0xee1
    40003178:	913b0400 	add	x0, x0, #0xec1
    4000317c:	52800681 	mov	w1, #0x34                  	// #52
    40003180:	97fff667 	bl	40000b1c <__assert>
    40003184:	d00000c1 	adrp	x1, 4001d000 <cpu_state+0x668>
    40003188:	f9426c21 	ldr	x1, [x1, #1240]
    4000318c:	b5000061 	cbnz	x1, 40003198 <console_is_registered+0x38>
    40003190:	52800000 	mov	w0, #0x0                   	// #0
    40003194:	d65f03c0 	ret
    40003198:	eb00003f 	cmp	x1, x0
    4000319c:	54000060 	b.eq	400031a8 <console_is_registered+0x48>  // b.none
    400031a0:	f9400021 	ldr	x1, [x1]
    400031a4:	17fffffa 	b	4000318c <console_is_registered+0x2c>
    400031a8:	52800020 	mov	w0, #0x1                   	// #1
    400031ac:	d65f03c0 	ret

00000000400031b0 <console_putc>:
    400031b0:	a9bd7bfd 	stp	x29, x30, [sp, #-48]!
    400031b4:	910003fd 	mov	x29, sp
    400031b8:	a9025bf5 	stp	x21, x22, [sp, #32]
    400031bc:	2a0003f5 	mov	w21, w0
    400031c0:	d00000c0 	adrp	x0, 4001d000 <cpu_state+0x668>
    400031c4:	a90153f3 	stp	x19, x20, [sp, #16]
    400031c8:	f0000096 	adrp	x22, 40016000 <__RODATA_END__>
    400031cc:	911f02d6 	add	x22, x22, #0x7c0
    400031d0:	f9426c13 	ldr	x19, [x0, #1240]
    400031d4:	12800ff4 	mov	w20, #0xffffff80            	// #-128
    400031d8:	b50000d3 	cbnz	x19, 400031f0 <console_putc+0x40>
    400031dc:	2a1403e0 	mov	w0, w20
    400031e0:	a94153f3 	ldp	x19, x20, [sp, #16]
    400031e4:	a9425bf5 	ldp	x21, x22, [sp, #32]
    400031e8:	a8c37bfd 	ldp	x29, x30, [sp], #48
    400031ec:	d65f03c0 	ret
    400031f0:	f9400660 	ldr	x0, [x19, #8]
    400031f4:	394002c1 	ldrb	w1, [x22]
    400031f8:	ea00003f 	tst	x1, x0
    400031fc:	54000180 	b.eq	4000322c <console_putc+0x7c>  // b.none
    40003200:	f9400a62 	ldr	x2, [x19, #16]
    40003204:	b4000142 	cbz	x2, 4000322c <console_putc+0x7c>
    40003208:	71002abf 	cmp	w21, #0xa
    4000320c:	54000140 	b.eq	40003234 <console_putc+0x84>  // b.none
    40003210:	f9400a62 	ldr	x2, [x19, #16]
    40003214:	aa1303e1 	mov	x1, x19
    40003218:	2a1503e0 	mov	w0, w21
    4000321c:	d63f0040 	blr	x2
    40003220:	3102029f 	cmn	w20, #0x80
    40003224:	7a401280 	ccmp	w20, w0, #0x0, ne  // ne = any
    40003228:	1a80d294 	csel	w20, w20, w0, le
    4000322c:	f9400273 	ldr	x19, [x19]
    40003230:	17ffffea 	b	400031d8 <console_putc+0x28>
    40003234:	3647fee0 	tbz	w0, #8, 40003210 <console_putc+0x60>
    40003238:	aa1303e1 	mov	x1, x19
    4000323c:	528001a0 	mov	w0, #0xd                   	// #13
    40003240:	d63f0040 	blr	x2
    40003244:	36fffe60 	tbz	w0, #31, 40003210 <console_putc+0x60>
    40003248:	17fffff6 	b	40003220 <console_putc+0x70>

000000004000324c <console_register>:
    4000324c:	a9be7bfd 	stp	x29, x30, [sp, #-32]!
    40003250:	910003fd 	mov	x29, sp
    40003254:	f9000bf3 	str	x19, [sp, #16]
    40003258:	aa0003f3 	mov	x19, x0
    4000325c:	f0000080 	adrp	x0, 40016000 <__RODATA_END__>
    40003260:	91200000 	add	x0, x0, #0x800
    40003264:	eb00027f 	cmp	x19, x0
    40003268:	54000163 	b.cc	40003294 <console_register+0x48>  // b.lo, b.ul, b.last
    4000326c:	b00000a0 	adrp	x0, 40018000 <__STACKS_START__+0x1800>
    40003270:	91200000 	add	x0, x0, #0x800
    40003274:	eb00027f 	cmp	x19, x0
    40003278:	540000e2 	b.cs	40003294 <console_register+0x48>  // b.hs, b.nlast
    4000327c:	b0000082 	adrp	x2, 40014000 <__func__.4054+0x988>
    40003280:	b0000080 	adrp	x0, 40014000 <__func__.4054+0x988>
    40003284:	913bc442 	add	x2, x2, #0xef1
    40003288:	913b0400 	add	x0, x0, #0xec1
    4000328c:	52800281 	mov	w1, #0x14                  	// #20
    40003290:	97fff623 	bl	40000b1c <__assert>
    40003294:	aa1303e0 	mov	x0, x19
    40003298:	97ffffb2 	bl	40003160 <console_is_registered>
    4000329c:	7100041f 	cmp	w0, #0x1
    400032a0:	540000a0 	b.eq	400032b4 <console_register+0x68>  // b.none
    400032a4:	d00000c0 	adrp	x0, 4001d000 <cpu_state+0x668>
    400032a8:	f9426c01 	ldr	x1, [x0, #1240]
    400032ac:	f9000261 	str	x1, [x19]
    400032b0:	f9026c13 	str	x19, [x0, #1240]
    400032b4:	52800020 	mov	w0, #0x1                   	// #1
    400032b8:	f9400bf3 	ldr	x19, [sp, #16]
    400032bc:	a8c27bfd 	ldp	x29, x30, [sp], #32
    400032c0:	d65f03c0 	ret

00000000400032c4 <console_set_scope>:
    400032c4:	b5000120 	cbnz	x0, 400032e8 <console_set_scope+0x24>
    400032c8:	a9bf7bfd 	stp	x29, x30, [sp, #-16]!
    400032cc:	b0000082 	adrp	x2, 40014000 <__func__.4054+0x988>
    400032d0:	b0000080 	adrp	x0, 40014000 <__func__.4054+0x988>
    400032d4:	910003fd 	mov	x29, sp
    400032d8:	913c9442 	add	x2, x2, #0xf25
    400032dc:	913b0400 	add	x0, x0, #0xec1
    400032e0:	52800881 	mov	w1, #0x44                  	// #68
    400032e4:	97fff60e 	bl	40000b1c <__assert>
    400032e8:	f9400402 	ldr	x2, [x0, #8]
    400032ec:	2a0103e1 	mov	w1, w1
    400032f0:	92785c42 	and	x2, x2, #0xffffff00
    400032f4:	aa010041 	orr	x1, x2, x1
    400032f8:	f9000401 	str	x1, [x0, #8]
    400032fc:	d65f03c0 	ret

0000000040003300 <console_switch_state>:
    40003300:	f0000081 	adrp	x1, 40016000 <__RODATA_END__>
    40003304:	391f0020 	strb	w0, [x1, #1984]
    40003308:	d65f03c0 	ret

000000004000330c <ehf_activate_priority>:
    4000330c:	a9bd7bfd 	stp	x29, x30, [sp, #-48]!
    40003310:	910003fd 	mov	x29, sp
    40003314:	a90153f3 	stp	x19, x20, [sp, #16]
    40003318:	2a0003f3 	mov	w19, w0
    4000331c:	a9025bf5 	stp	x21, x22, [sp, #32]
    40003320:	d53ed055 	mrs	x21, tpidr_el3
    40003324:	94000e2f 	bl	40006be0 <plat_ic_get_running_priority>
    40003328:	6b13001f 	cmp	w0, w19
    4000332c:	54000108 	b.hi	4000334c <ehf_activate_priority+0x40>  // b.pmore
    40003330:	2a0003e1 	mov	w1, w0
    40003334:	2a1303e2 	mov	w2, w19
    40003338:	b0000060 	adrp	x0, 40010000 <__TEXT_END__>
    4000333c:	913b6000 	add	x0, x0, #0xed8
    40003340:	940029b8 	bl	4000da20 <tf_log>
    40003344:	97ffff72 	bl	4000310c <console_flush>
    40003348:	97fff780 	bl	40001148 <do_panic>
    4000334c:	b9406ab6 	ldr	w22, [x21, #104]
    40003350:	2a1303e0 	mov	w0, w19
    40003354:	710002df 	cmp	w22, #0x0
    40003358:	5ac002d4 	rbit	w20, w22
    4000335c:	5ac01294 	clz	w20, w20
    40003360:	5a9f1294 	csinv	w20, w20, wzr, ne  // ne = any
    40003364:	94000fac 	bl	40007214 <pri_to_idx>
    40003368:	6b00029f 	cmp	w20, w0
    4000336c:	3a419a84 	ccmn	w20, #0x1, #0x4, ls  // ls = plast
    40003370:	54000160 	b.eq	4000339c <ehf_activate_priority+0x90>  // b.none
    40003374:	b0000060 	adrp	x0, 40010000 <__TEXT_END__>
    40003378:	528000e2 	mov	w2, #0x7                   	// #7
    4000337c:	2a1303e1 	mov	w1, w19
    40003380:	b940cc00 	ldr	w0, [x0, #204]
    40003384:	4b000042 	sub	w2, w2, w0
    40003388:	b0000060 	adrp	x0, 40010000 <__TEXT_END__>
    4000338c:	913c3c00 	add	x0, x0, #0xf0f
    40003390:	1ac22282 	lsl	w2, w20, w2
    40003394:	12001842 	and	w2, w2, #0x7f
    40003398:	17ffffea 	b	40003340 <ehf_activate_priority+0x34>
    4000339c:	52800021 	mov	w1, #0x1                   	// #1
    400033a0:	1ac02020 	lsl	w0, w1, w0
    400033a4:	2a160000 	orr	w0, w0, w22
    400033a8:	b9006aa0 	str	w0, [x21, #104]
    400033ac:	2a1303e0 	mov	w0, w19
    400033b0:	94000e49 	bl	40006cd4 <plat_ic_set_priority_mask>
    400033b4:	2a0003e2 	mov	w2, w0
    400033b8:	6b00027f 	cmp	w19, w0
    400033bc:	540000a3 	b.cc	400033d0 <ehf_activate_priority+0xc4>  // b.lo, b.ul, b.last
    400033c0:	b0000060 	adrp	x0, 40010000 <__TEXT_END__>
    400033c4:	2a1303e1 	mov	w1, w19
    400033c8:	913d1400 	add	x0, x0, #0xf45
    400033cc:	17ffffdd 	b	40003340 <ehf_activate_priority+0x34>
    400033d0:	3100069f 	cmn	w20, #0x1
    400033d4:	54000041 	b.ne	400033dc <ehf_activate_priority+0xd0>  // b.any
    400033d8:	3901b2a0 	strb	w0, [x21, #108]
    400033dc:	a94153f3 	ldp	x19, x20, [sp, #16]
    400033e0:	a9425bf5 	ldp	x21, x22, [sp, #32]
    400033e4:	a8c37bfd 	ldp	x29, x30, [sp], #48
    400033e8:	d65f03c0 	ret

00000000400033ec <ehf_deactivate_priority>:
    400033ec:	a9bd7bfd 	stp	x29, x30, [sp, #-48]!
    400033f0:	910003fd 	mov	x29, sp
    400033f4:	a90153f3 	stp	x19, x20, [sp, #16]
    400033f8:	2a0003f3 	mov	w19, w0
    400033fc:	a9025bf5 	stp	x21, x22, [sp, #32]
    40003400:	d53ed056 	mrs	x22, tpidr_el3
    40003404:	94000df7 	bl	40006be0 <plat_ic_get_running_priority>
    40003408:	6b13001f 	cmp	w0, w19
    4000340c:	54000108 	b.hi	4000342c <ehf_deactivate_priority+0x40>  // b.pmore
    40003410:	2a0003e1 	mov	w1, w0
    40003414:	2a1303e2 	mov	w2, w19
    40003418:	b0000060 	adrp	x0, 40010000 <__TEXT_END__>
    4000341c:	913b6000 	add	x0, x0, #0xed8
    40003420:	94002980 	bl	4000da20 <tf_log>
    40003424:	97ffff3a 	bl	4000310c <console_flush>
    40003428:	97fff748 	bl	40001148 <do_panic>
    4000342c:	b9406ad5 	ldr	w21, [x22, #104]
    40003430:	2a1303e0 	mov	w0, w19
    40003434:	710002bf 	cmp	w21, #0x0
    40003438:	5ac002b4 	rbit	w20, w21
    4000343c:	5ac01294 	clz	w20, w20
    40003440:	5a9f1294 	csinv	w20, w20, wzr, ne  // ne = any
    40003444:	94000f74 	bl	40007214 <pri_to_idx>
    40003448:	6b00029f 	cmp	w20, w0
    4000344c:	3a410a84 	ccmn	w20, #0x1, #0x4, eq  // eq = none
    40003450:	54000161 	b.ne	4000347c <ehf_deactivate_priority+0x90>  // b.any
    40003454:	b0000060 	adrp	x0, 40010000 <__TEXT_END__>
    40003458:	528000e2 	mov	w2, #0x7                   	// #7
    4000345c:	2a1303e1 	mov	w1, w19
    40003460:	b940cc00 	ldr	w0, [x0, #204]
    40003464:	4b000042 	sub	w2, w2, w0
    40003468:	b0000060 	adrp	x0, 40010000 <__TEXT_END__>
    4000346c:	913e0400 	add	x0, x0, #0xf81
    40003470:	1ac22282 	lsl	w2, w20, w2
    40003474:	12001842 	and	w2, w2, #0x7f
    40003478:	17ffffea 	b	40003420 <ehf_deactivate_priority+0x34>
    4000347c:	510006a0 	sub	w0, w21, #0x1
    40003480:	0a150000 	and	w0, w0, w21
    40003484:	b9006ac0 	str	w0, [x22, #104]
    40003488:	34000140 	cbz	w0, 400034b0 <ehf_deactivate_priority+0xc4>
    4000348c:	2a1303e0 	mov	w0, w19
    40003490:	94000e11 	bl	40006cd4 <plat_ic_set_priority_mask>
    40003494:	2a0003e2 	mov	w2, w0
    40003498:	6b13001f 	cmp	w0, w19
    4000349c:	540000e9 	b.ls	400034b8 <ehf_deactivate_priority+0xcc>  // b.plast
    400034a0:	b0000060 	adrp	x0, 40010000 <__TEXT_END__>
    400034a4:	2a1303e1 	mov	w1, w19
    400034a8:	913ee400 	add	x0, x0, #0xfb9
    400034ac:	17ffffdd 	b	40003420 <ehf_deactivate_priority+0x34>
    400034b0:	3941b2c0 	ldrb	w0, [x22, #108]
    400034b4:	17fffff7 	b	40003490 <ehf_deactivate_priority+0xa4>
    400034b8:	a94153f3 	ldp	x19, x20, [sp, #16]
    400034bc:	a9425bf5 	ldp	x21, x22, [sp, #32]
    400034c0:	a8c37bfd 	ldp	x29, x30, [sp], #48
    400034c4:	d65f03c0 	ret

00000000400034c8 <ehf_el3_interrupt_handler>:
    400034c8:	a9bc7bfd 	stp	x29, x30, [sp, #-64]!
    400034cc:	3100041f 	cmn	w0, #0x1
    400034d0:	910003fd 	mov	x29, sp
    400034d4:	a90153f3 	stp	x19, x20, [sp, #16]
    400034d8:	a9025bf5 	stp	x21, x22, [sp, #32]
    400034dc:	f9001bf7 	str	x23, [sp, #48]
    400034e0:	540000e0 	b.eq	400034fc <ehf_el3_interrupt_handler+0x34>  // b.none
    400034e4:	b0000062 	adrp	x2, 40010000 <__TEXT_END__>
    400034e8:	91387442 	add	x2, x2, #0xe1d
    400034ec:	528032c1 	mov	w1, #0x196                 	// #406
    400034f0:	b0000060 	adrp	x0, 40010000 <__TEXT_END__>
    400034f4:	91380000 	add	x0, x0, #0xe00
    400034f8:	97fff589 	bl	40000b1c <__assert>
    400034fc:	2a0103f4 	mov	w20, w1
    40003500:	aa0203f5 	mov	x21, x2
    40003504:	aa0303f6 	mov	x22, x3
    40003508:	94000d98 	bl	40006b68 <plat_ic_acknowledge_interrupt>
    4000350c:	2a0003f3 	mov	w19, w0
    40003510:	94000d9c 	bl	40006b80 <plat_ic_get_interrupt_id>
    40003514:	3100041f 	cmn	w0, #0x1
    40003518:	54000580 	b.eq	400035c8 <ehf_el3_interrupt_handler+0x100>  // b.none
    4000351c:	94000db1 	bl	40006be0 <plat_ic_get_running_priority>
    40003520:	2a0003f7 	mov	w23, w0
    40003524:	363800b7 	tbz	w23, #7, 40003538 <ehf_el3_interrupt_handler+0x70>
    40003528:	b0000062 	adrp	x2, 40010000 <__TEXT_END__>
    4000352c:	52803501 	mov	w1, #0x1a8                 	// #424
    40003530:	9138dc42 	add	x2, x2, #0xe37
    40003534:	17ffffef 	b	400034f0 <ehf_el3_interrupt_handler+0x28>
    40003538:	94000f37 	bl	40007214 <pri_to_idx>
    4000353c:	b0000061 	adrp	x1, 40010000 <__TEXT_END__>
    40003540:	91030022 	add	x2, x1, #0xc0
    40003544:	528000e4 	mov	w4, #0x7                   	// #7
    40003548:	b9400c42 	ldr	w2, [x2, #12]
    4000354c:	4b020084 	sub	w4, w4, w2
    40003550:	1ac42004 	lsl	w4, w0, w4
    40003554:	12001884 	and	w4, w4, #0x7f
    40003558:	6b17009f 	cmp	w4, w23
    4000355c:	540000a0 	b.eq	40003570 <ehf_el3_interrupt_handler+0xa8>  // b.none
    40003560:	b0000062 	adrp	x2, 40010000 <__TEXT_END__>
    40003564:	52803621 	mov	w1, #0x1b1                 	// #433
    40003568:	91392842 	add	x2, x2, #0xe4a
    4000356c:	17ffffe1 	b	400034f0 <ehf_el3_interrupt_handler+0x28>
    40003570:	f9406021 	ldr	x1, [x1, #192]
    40003574:	f8605824 	ldr	x4, [x1, w0, uxtw #3]
    40003578:	36000064 	tbz	w4, #0, 40003584 <ehf_el3_interrupt_handler+0xbc>
    4000357c:	f27ff884 	ands	x4, x4, #0xfffffffffffffffe
    40003580:	540000e1 	b.ne	4000359c <ehf_el3_interrupt_handler+0xd4>  // b.any
    40003584:	2a1703e1 	mov	w1, w23
    40003588:	b0000060 	adrp	x0, 40010000 <__TEXT_END__>
    4000358c:	91398400 	add	x0, x0, #0xe61
    40003590:	94002924 	bl	4000da20 <tf_log>
    40003594:	97fffede 	bl	4000310c <console_flush>
    40003598:	97fff6ec 	bl	40001148 <do_panic>
    4000359c:	aa1603e3 	mov	x3, x22
    400035a0:	aa1503e2 	mov	x2, x21
    400035a4:	2a1403e1 	mov	w1, w20
    400035a8:	2a1303e0 	mov	w0, w19
    400035ac:	d63f0080 	blr	x4
    400035b0:	93407c00 	sxtw	x0, w0
    400035b4:	a94153f3 	ldp	x19, x20, [sp, #16]
    400035b8:	a9425bf5 	ldp	x21, x22, [sp, #32]
    400035bc:	f9401bf7 	ldr	x23, [sp, #48]
    400035c0:	a8c47bfd 	ldp	x29, x30, [sp], #64
    400035c4:	d65f03c0 	ret
    400035c8:	d2800000 	mov	x0, #0x0                   	// #0
    400035cc:	17fffffa 	b	400035b4 <ehf_el3_interrupt_handler+0xec>

00000000400035d0 <ehf_entering_normal_world>:
    400035d0:	a9be7bfd 	stp	x29, x30, [sp, #-32]!
    400035d4:	910003fd 	mov	x29, sp
    400035d8:	f9000bf3 	str	x19, [sp, #16]
    400035dc:	d53ed053 	mrs	x19, tpidr_el3
    400035e0:	94000d80 	bl	40006be0 <plat_ic_get_running_priority>
    400035e4:	36380240 	tbz	w0, #7, 4000362c <ehf_entering_normal_world+0x5c>
    400035e8:	b9406a60 	ldr	w0, [x19, #104]
    400035ec:	35000200 	cbnz	w0, 4000362c <ehf_entering_normal_world+0x5c>
    400035f0:	3941b660 	ldrb	w0, [x19, #109]
    400035f4:	340001c0 	cbz	w0, 4000362c <ehf_entering_normal_world+0x5c>
    400035f8:	94000db7 	bl	40006cd4 <plat_ic_set_priority_mask>
    400035fc:	2a0003e1 	mov	w1, w0
    40003600:	7102001f 	cmp	w0, #0x80
    40003604:	54000120 	b.eq	40003628 <ehf_entering_normal_world+0x58>  // b.none
    40003608:	3941b660 	ldrb	w0, [x19, #109]
    4000360c:	6b01001f 	cmp	w0, w1
    40003610:	540000c0 	b.eq	40003628 <ehf_entering_normal_world+0x58>  // b.none
    40003614:	b0000060 	adrp	x0, 40010000 <__TEXT_END__>
    40003618:	9136d000 	add	x0, x0, #0xdb4
    4000361c:	94002901 	bl	4000da20 <tf_log>
    40003620:	97fffebb 	bl	4000310c <console_flush>
    40003624:	97fff6c9 	bl	40001148 <do_panic>
    40003628:	3901b67f 	strb	wzr, [x19, #109]
    4000362c:	d2800000 	mov	x0, #0x0                   	// #0
    40003630:	f9400bf3 	ldr	x19, [sp, #16]
    40003634:	a8c27bfd 	ldp	x29, x30, [sp], #32
    40003638:	d65f03c0 	ret

000000004000363c <ehf_exited_normal_world>:
    4000363c:	a9be7bfd 	stp	x29, x30, [sp, #-32]!
    40003640:	910003fd 	mov	x29, sp
    40003644:	f9000bf3 	str	x19, [sp, #16]
    40003648:	d53ed053 	mrs	x19, tpidr_el3
    4000364c:	94000d65 	bl	40006be0 <plat_ic_get_running_priority>
    40003650:	363802a0 	tbz	w0, #7, 400036a4 <ehf_exited_normal_world+0x68>
    40003654:	b9406a60 	ldr	w0, [x19, #104]
    40003658:	35000260 	cbnz	w0, 400036a4 <ehf_exited_normal_world+0x68>
    4000365c:	3941b660 	ldrb	w0, [x19, #109]
    40003660:	340000e0 	cbz	w0, 4000367c <ehf_exited_normal_world+0x40>
    40003664:	b0000062 	adrp	x2, 40010000 <__TEXT_END__>
    40003668:	b0000060 	adrp	x0, 40010000 <__TEXT_END__>
    4000366c:	913a3842 	add	x2, x2, #0xe8e
    40003670:	91380000 	add	x0, x0, #0xe00
    40003674:	52801ea1 	mov	w1, #0xf5                  	// #245
    40003678:	97fff529 	bl	40000b1c <__assert>
    4000367c:	52801000 	mov	w0, #0x80                  	// #128
    40003680:	94000d95 	bl	40006cd4 <plat_ic_set_priority_mask>
    40003684:	3901b660 	strb	w0, [x19, #109]
    40003688:	373800e0 	tbnz	w0, #7, 400036a4 <ehf_exited_normal_world+0x68>
    4000368c:	12001c01 	and	w1, w0, #0xff
    40003690:	b0000060 	adrp	x0, 40010000 <__TEXT_END__>
    40003694:	913aa400 	add	x0, x0, #0xea9
    40003698:	940028e2 	bl	4000da20 <tf_log>
    4000369c:	97fffe9c 	bl	4000310c <console_flush>
    400036a0:	97fff6aa 	bl	40001148 <do_panic>
    400036a4:	d2800000 	mov	x0, #0x0                   	// #0
    400036a8:	f9400bf3 	ldr	x19, [sp, #16]
    400036ac:	a8c27bfd 	ldp	x29, x30, [sp], #32
    400036b0:	d65f03c0 	ret

00000000400036b4 <ehf_init>:
    400036b4:	a9bf7bfd 	stp	x29, x30, [sp, #-16]!
    400036b8:	52800020 	mov	w0, #0x1                   	// #1
    400036bc:	910003fd 	mov	x29, sp
    400036c0:	94000d49 	bl	40006be4 <plat_ic_has_interrupt_type>
    400036c4:	350000e0 	cbnz	w0, 400036e0 <ehf_init+0x2c>
    400036c8:	b0000062 	adrp	x2, 40010000 <__TEXT_END__>
    400036cc:	913fe042 	add	x2, x2, #0xff8
    400036d0:	528039a1 	mov	w1, #0x1cd                 	// #461
    400036d4:	b0000060 	adrp	x0, 40010000 <__TEXT_END__>
    400036d8:	91380000 	add	x0, x0, #0xe00
    400036dc:	97fff510 	bl	40000b1c <__assert>
    400036e0:	b0000060 	adrp	x0, 40010000 <__TEXT_END__>
    400036e4:	91030001 	add	x1, x0, #0xc0
    400036e8:	b9400821 	ldr	w1, [x1, #8]
    400036ec:	7100803f 	cmp	w1, #0x20
    400036f0:	540000a9 	b.ls	40003704 <ehf_init+0x50>  // b.plast
    400036f4:	d0000062 	adrp	x2, 40011000 <version_string+0x37c>
    400036f8:	52803a61 	mov	w1, #0x1d3                 	// #467
    400036fc:	91009c42 	add	x2, x2, #0x27
    40003700:	17fffff5 	b	400036d4 <ehf_init+0x20>
    40003704:	f9406000 	ldr	x0, [x0, #192]
    40003708:	b50000a0 	cbnz	x0, 4000371c <ehf_init+0x68>
    4000370c:	d0000062 	adrp	x2, 40011000 <version_string+0x37c>
    40003710:	52803aa1 	mov	w1, #0x1d5                 	// #469
    40003714:	91019842 	add	x2, x2, #0x66
    40003718:	17ffffef 	b	400036d4 <ehf_init+0x20>
    4000371c:	90000001 	adrp	x1, 40003000 <cm_setup_context+0x1b0>
    40003720:	52800062 	mov	w2, #0x3                   	// #3
    40003724:	91132021 	add	x1, x1, #0x4c8
    40003728:	52800020 	mov	w0, #0x1                   	// #1
    4000372c:	9400173b 	bl	40009418 <register_interrupt_type_handler>
    40003730:	340000a0 	cbz	w0, 40003744 <ehf_init+0x90>
    40003734:	d0000062 	adrp	x2, 40011000 <version_string+0x37c>
    40003738:	52803ca1 	mov	w1, #0x1e5                 	// #485
    4000373c:	91023042 	add	x2, x2, #0x8c
    40003740:	17ffffe5 	b	400036d4 <ehf_init+0x20>
    40003744:	a8c17bfd 	ldp	x29, x30, [sp], #16
    40003748:	d65f03c0 	ret

000000004000374c <ehf_register_priority_handler>:
    4000374c:	a9be7bfd 	stp	x29, x30, [sp, #-32]!
    40003750:	910003fd 	mov	x29, sp
    40003754:	a90153f3 	stp	x19, x20, [sp, #16]
    40003758:	b50000e1 	cbnz	x1, 40003774 <ehf_register_priority_handler+0x28>
    4000375c:	d0000062 	adrp	x2, 40011000 <version_string+0x37c>
    40003760:	9127b042 	add	x2, x2, #0x9ec
    40003764:	52803e61 	mov	w1, #0x1f3                 	// #499
    40003768:	b0000060 	adrp	x0, 40010000 <__TEXT_END__>
    4000376c:	91380000 	add	x0, x0, #0xe00
    40003770:	97fff4eb 	bl	40000b1c <__assert>
    40003774:	aa0103f3 	mov	x19, x1
    40003778:	f240043f 	tst	x1, #0x3
    4000377c:	540000a0 	b.eq	40003790 <ehf_register_priority_handler+0x44>  // b.none
    40003780:	d0000062 	adrp	x2, 40011000 <version_string+0x37c>
    40003784:	52803ec1 	mov	w1, #0x1f6                 	// #502
    40003788:	91025442 	add	x2, x2, #0x95
    4000378c:	17fffff7 	b	40003768 <ehf_register_priority_handler+0x1c>
    40003790:	2a0003f4 	mov	w20, w0
    40003794:	94000ea0 	bl	40007214 <pri_to_idx>
    40003798:	b0000063 	adrp	x3, 40010000 <__TEXT_END__>
    4000379c:	91030061 	add	x1, x3, #0xc0
    400037a0:	b9400822 	ldr	w2, [x1, #8]
    400037a4:	6b00005f 	cmp	w2, w0
    400037a8:	540000a8 	b.hi	400037bc <ehf_register_priority_handler+0x70>  // b.pmore
    400037ac:	b0000062 	adrp	x2, 40010000 <__TEXT_END__>
    400037b0:	52803f41 	mov	w1, #0x1fa                 	// #506
    400037b4:	91377042 	add	x2, x2, #0xddc
    400037b8:	17ffffec 	b	40003768 <ehf_register_priority_handler+0x1c>
    400037bc:	b9400c21 	ldr	w1, [x1, #12]
    400037c0:	528000e2 	mov	w2, #0x7                   	// #7
    400037c4:	4b010042 	sub	w2, w2, w1
    400037c8:	1ac22002 	lsl	w2, w0, w2
    400037cc:	12001841 	and	w1, w2, #0x7f
    400037d0:	6b14003f 	cmp	w1, w20
    400037d4:	540000a0 	b.eq	400037e8 <ehf_register_priority_handler+0x9c>  // b.none
    400037d8:	d0000062 	adrp	x2, 40011000 <version_string+0x37c>
    400037dc:	52803f61 	mov	w1, #0x1fb                 	// #507
    400037e0:	9102e042 	add	x2, x2, #0xb8
    400037e4:	17ffffe1 	b	40003768 <ehf_register_priority_handler+0x1c>
    400037e8:	f9406062 	ldr	x2, [x3, #192]
    400037ec:	d37d7c00 	ubfiz	x0, x0, #3, #32
    400037f0:	f8606843 	ldr	x3, [x2, x0]
    400037f4:	f100047f 	cmp	x3, #0x1
    400037f8:	540000c0 	b.eq	40003810 <ehf_register_priority_handler+0xc4>  // b.none
    400037fc:	d0000060 	adrp	x0, 40011000 <version_string+0x37c>
    40003800:	91033c00 	add	x0, x0, #0xcf
    40003804:	94002887 	bl	4000da20 <tf_log>
    40003808:	97fffe41 	bl	4000310c <console_flush>
    4000380c:	97fff64f 	bl	40001148 <do_panic>
    40003810:	b2400273 	orr	x19, x19, #0x1
    40003814:	f8206853 	str	x19, [x2, x0]
    40003818:	a94153f3 	ldp	x19, x20, [sp, #16]
    4000381c:	a8c27bfd 	ldp	x29, x30, [sp], #32
    40003820:	d65f03c0 	ret

0000000040003824 <enable_mmu_el3>:
    40003824:	a9be7bfd 	stp	x29, x30, [sp, #-32]!
    40003828:	f0000081 	adrp	x1, 40016000 <__RODATA_END__>
    4000382c:	52800065 	mov	w5, #0x3                   	// #3
    40003830:	910003fd 	mov	x29, sp
    40003834:	f9000bf3 	str	x19, [sp, #16]
    40003838:	2a0003f3 	mov	w19, w0
    4000383c:	9115e020 	add	x0, x1, #0x578
    40003840:	f942bc23 	ldr	x3, [x1, #1400]
    40003844:	2a1303e1 	mov	w1, w19
    40003848:	f9400404 	ldr	x4, [x0, #8]
    4000384c:	f9402002 	ldr	x2, [x0, #64]
    40003850:	d00000c0 	adrp	x0, 4001d000 <cpu_state+0x668>
    40003854:	91138000 	add	x0, x0, #0x4e0
    40003858:	94001dd2 	bl	4000afa0 <setup_mmu_cfg>
    4000385c:	2a1303e0 	mov	w0, w19
    40003860:	f9400bf3 	ldr	x19, [sp, #16]
    40003864:	a8c27bfd 	ldp	x29, x30, [sp], #32
    40003868:	17fff7a1 	b	400016ec <enable_mmu_direct_el3>

000000004000386c <find_event_map>:
    4000386c:	2a0003e1 	mov	w1, w0
    40003870:	b0000060 	adrp	x0, 40010000 <__TEXT_END__>
    40003874:	91034002 	add	x2, x0, #0xd0
    40003878:	52800003 	mov	w3, #0x0                   	// #0
    4000387c:	f9406800 	ldr	x0, [x0, #208]
    40003880:	f9400444 	ldr	x4, [x2, #8]
    40003884:	eb23409f 	cmp	x4, w3, uxtw
    40003888:	540000e9 	b.ls	400038a4 <find_event_map+0x38>  // b.plast
    4000388c:	b9400005 	ldr	w5, [x0]
    40003890:	6b05003f 	cmp	w1, w5
    40003894:	540001e0 	b.eq	400038d0 <find_event_map+0x64>  // b.none
    40003898:	11000463 	add	w3, w3, #0x1
    4000389c:	91005000 	add	x0, x0, #0x14
    400038a0:	17fffff9 	b	40003884 <find_event_map+0x18>
    400038a4:	a9410c40 	ldp	x0, x3, [x2, #16]
    400038a8:	52800002 	mov	w2, #0x0                   	// #0
    400038ac:	eb22407f 	cmp	x3, w2, uxtw
    400038b0:	540000e9 	b.ls	400038cc <find_event_map+0x60>  // b.plast
    400038b4:	b9400004 	ldr	w4, [x0]
    400038b8:	6b04003f 	cmp	w1, w4
    400038bc:	540000a0 	b.eq	400038d0 <find_event_map+0x64>  // b.none
    400038c0:	11000442 	add	w2, w2, #0x1
    400038c4:	91005000 	add	x0, x0, #0x14
    400038c8:	17fffff9 	b	400038ac <find_event_map+0x40>
    400038cc:	d2800000 	mov	x0, #0x0                   	// #0
    400038d0:	d65f03c0 	ret

00000000400038d4 <find_event_map_by_intr>:
    400038d4:	72001c3f 	tst	w1, #0xff
    400038d8:	b0000062 	adrp	x2, 40010000 <__TEXT_END__>
    400038dc:	2a0003e3 	mov	w3, w0
    400038e0:	91038041 	add	x1, x2, #0xe0
    400038e4:	b0000060 	adrp	x0, 40010000 <__TEXT_END__>
    400038e8:	91034000 	add	x0, x0, #0xd0
    400038ec:	9a801021 	csel	x1, x1, x0, ne  // ne = any
    400038f0:	a9400820 	ldp	x0, x2, [x1]
    400038f4:	52800001 	mov	w1, #0x0                   	// #0
    400038f8:	eb21405f 	cmp	x2, w1, uxtw
    400038fc:	54000068 	b.hi	40003908 <find_event_map_by_intr+0x34>  // b.pmore
    40003900:	d2800000 	mov	x0, #0x0                   	// #0
    40003904:	d65f03c0 	ret
    40003908:	b9400404 	ldr	w4, [x0, #4]
    4000390c:	6b03009f 	cmp	w4, w3
    40003910:	54ffffa0 	b.eq	40003904 <find_event_map_by_intr+0x30>  // b.none
    40003914:	11000421 	add	w1, w1, #0x1
    40003918:	91005000 	add	x0, x0, #0x14
    4000391c:	17fffff7 	b	400038f8 <find_event_map_by_intr+0x24>

0000000040003920 <get_arm_std_svc_args>:
    40003920:	529ffc01 	mov	w1, #0xffe0                	// #65504
    40003924:	6b01001f 	cmp	w0, w1
    40003928:	54000120 	b.eq	4000394c <get_arm_std_svc_args+0x2c>  // b.none
    4000392c:	a9bf7bfd 	stp	x29, x30, [sp, #-16]!
    40003930:	b0000062 	adrp	x2, 40010000 <__TEXT_END__>
    40003934:	b0000060 	adrp	x0, 40010000 <__TEXT_END__>
    40003938:	910003fd 	mov	x29, sp
    4000393c:	91337042 	add	x2, x2, #0xcdc
    40003940:	9133d800 	add	x0, x0, #0xcf6
    40003944:	528008c1 	mov	w1, #0x46                  	// #70
    40003948:	97fff475 	bl	40000b1c <__assert>
    4000394c:	b0000060 	adrp	x0, 40010000 <__TEXT_END__>
    40003950:	91000000 	add	x0, x0, #0x0
    40003954:	d65f03c0 	ret

0000000040003958 <get_event_entry>:
    40003958:	a9be7bfd 	stp	x29, x30, [sp, #-32]!
    4000395c:	b202e7e1 	mov	x1, #0xcccccccccccccccc    	// #-3689348814741910324
    40003960:	b0000062 	adrp	x2, 40010000 <__TEXT_END__>
    40003964:	910003fd 	mov	x29, sp
    40003968:	b9400803 	ldr	w3, [x0, #8]
    4000396c:	f29999a1 	movk	x1, #0xcccd
    40003970:	a90153f3 	stp	x19, x20, [sp, #16]
    40003974:	91034054 	add	x20, x2, #0xd0
    40003978:	362001e3 	tbz	w3, #4, 400039b4 <get_event_entry+0x5c>
    4000397c:	f9406853 	ldr	x19, [x2, #208]
    40003980:	cb130013 	sub	x19, x0, x19
    40003984:	9342fe73 	asr	x19, x19, #2
    40003988:	9b017e73 	mul	x19, x19, x1
    4000398c:	97fff86e 	bl	40001b44 <plat_my_core_pos>
    40003990:	f9400681 	ldr	x1, [x20, #8]
    40003994:	1b017c00 	mul	w0, w0, w1
    40003998:	8b130013 	add	x19, x0, x19
    4000399c:	900000c0 	adrp	x0, 4001b000 <opteed_sp_context+0xe80>
    400039a0:	91220000 	add	x0, x0, #0x880
    400039a4:	8b131400 	add	x0, x0, x19, lsl #5
    400039a8:	a94153f3 	ldp	x19, x20, [sp, #16]
    400039ac:	a8c27bfd 	ldp	x29, x30, [sp], #32
    400039b0:	d65f03c0 	ret
    400039b4:	f9400a93 	ldr	x19, [x20, #16]
    400039b8:	cb130000 	sub	x0, x0, x19
    400039bc:	9342fc00 	asr	x0, x0, #2
    400039c0:	9b017c00 	mul	x0, x0, x1
    400039c4:	b00000c1 	adrp	x1, 4001c000 <sdei_private_event_table+0x780>
    400039c8:	91220021 	add	x1, x1, #0x880
    400039cc:	8b001420 	add	x0, x1, x0, lsl #5
    400039d0:	17fffff6 	b	400039a8 <get_event_entry+0x50>

00000000400039d4 <get_interrupt_type_handler>:
    400039d4:	7100081f 	cmp	w0, #0x2
    400039d8:	540000c8 	b.hi	400039f0 <get_interrupt_type_handler+0x1c>  // b.pmore
    400039dc:	d37b7c00 	ubfiz	x0, x0, #5, #32
    400039e0:	900000c1 	adrp	x1, 4001b000 <opteed_sp_context+0xe80>
    400039e4:	91182021 	add	x1, x1, #0x608
    400039e8:	f8606820 	ldr	x0, [x1, x0]
    400039ec:	d65f03c0 	ret
    400039f0:	d2800000 	mov	x0, #0x0                   	// #0
    400039f4:	17fffffe 	b	400039ec <get_interrupt_type_handler+0x18>

00000000400039f8 <get_outstanding_dispatch>:
    400039f8:	a9bf7bfd 	stp	x29, x30, [sp, #-16]!
    400039fc:	910003fd 	mov	x29, sp
    40003a00:	97fff851 	bl	40001b44 <plat_my_core_pos>
    40003a04:	2a0003e3 	mov	w3, w0
    40003a08:	b00000c1 	adrp	x1, 4001c000 <sdei_private_event_table+0x780>
    40003a0c:	91266021 	add	x1, x1, #0x998
    40003a10:	d2802d04 	mov	x4, #0x168                 	// #360
    40003a14:	9b040463 	madd	x3, x3, x4, x1
    40003a18:	7942c062 	ldrh	w2, [x3, #352]
    40003a1c:	34000202 	cbz	w2, 40003a5c <get_outstanding_dispatch+0x64>
    40003a20:	7100085f 	cmp	w2, #0x2
    40003a24:	540000e9 	b.ls	40003a40 <get_outstanding_dispatch+0x48>  // b.plast
    40003a28:	b0000082 	adrp	x2, 40014000 <__func__.4054+0x988>
    40003a2c:	b0000080 	adrp	x0, 40014000 <__func__.4054+0x988>
    40003a30:	91275c42 	add	x2, x2, #0x9d7
    40003a34:	91262c00 	add	x0, x0, #0x98b
    40003a38:	52801321 	mov	w1, #0x99                  	// #153
    40003a3c:	97fff438 	bl	40000b1c <__assert>
    40003a40:	51000442 	sub	w2, w2, #0x1
    40003a44:	52801603 	mov	w3, #0xb0                  	// #176
    40003a48:	9ba47c00 	umull	x0, w0, w4
    40003a4c:	9ba30040 	umaddl	x0, w2, w3, x0
    40003a50:	8b000020 	add	x0, x1, x0
    40003a54:	a8c17bfd 	ldp	x29, x30, [sp], #16
    40003a58:	d65f03c0 	ret
    40003a5c:	d2800000 	mov	x0, #0x0                   	// #0
    40003a60:	17fffffd 	b	40003a54 <get_outstanding_dispatch+0x5c>

0000000040003a64 <get_scr_el3_from_routing_model>:
    40003a64:	7100041f 	cmp	w0, #0x1
    40003a68:	54000129 	b.ls	40003a8c <get_scr_el3_from_routing_model+0x28>  // b.plast
    40003a6c:	a9bf7bfd 	stp	x29, x30, [sp, #-16]!
    40003a70:	b0000062 	adrp	x2, 40010000 <__TEXT_END__>
    40003a74:	d0000060 	adrp	x0, 40011000 <version_string+0x37c>
    40003a78:	910003fd 	mov	x29, sp
    40003a7c:	91328042 	add	x2, x2, #0xca0
    40003a80:	9103f800 	add	x0, x0, #0xfe
    40003a84:	52800aa1 	mov	w1, #0x55                  	// #85
    40003a88:	97fff425 	bl	40000b1c <__assert>
    40003a8c:	900000c1 	adrp	x1, 4001b000 <opteed_sp_context+0xe80>
    40003a90:	91182022 	add	x2, x1, #0x608
    40003a94:	2a0003e1 	mov	w1, w0
    40003a98:	8b010c40 	add	x0, x2, x1, lsl #3
    40003a9c:	8b010c43 	add	x3, x2, x1, lsl #3
    40003aa0:	8b010c41 	add	x1, x2, x1, lsl #3
    40003aa4:	f9400463 	ldr	x3, [x3, #8]
    40003aa8:	f9402400 	ldr	x0, [x0, #72]
    40003aac:	f9401421 	ldr	x1, [x1, #40]
    40003ab0:	aa030000 	orr	x0, x0, x3
    40003ab4:	aa010000 	orr	x0, x0, x1
    40003ab8:	d65f03c0 	ret

0000000040003abc <gicd_clr_igroupr>:
    40003abc:	2a0103e3 	mov	w3, w1
    40003ac0:	aa0003e4 	mov	x4, x0
    40003ac4:	a9bf7bfd 	stp	x29, x30, [sp, #-16]!
    40003ac8:	910003fd 	mov	x29, sp
    40003acc:	9400001d 	bl	40003b40 <gicd_read_igroupr>
    40003ad0:	a8c17bfd 	ldp	x29, x30, [sp], #16
    40003ad4:	52800021 	mov	w1, #0x1                   	// #1
    40003ad8:	1ac32021 	lsl	w1, w1, w3
    40003adc:	0a210002 	bic	w2, w0, w1
    40003ae0:	2a0303e1 	mov	w1, w3
    40003ae4:	aa0403e0 	mov	x0, x4
    40003ae8:	1400005c 	b	40003c58 <gicd_write_igroupr>

0000000040003aec <gicd_get_igroupr>:
    40003aec:	2a0103e2 	mov	w2, w1
    40003af0:	a9bf7bfd 	stp	x29, x30, [sp, #-16]!
    40003af4:	910003fd 	mov	x29, sp
    40003af8:	94000012 	bl	40003b40 <gicd_read_igroupr>
    40003afc:	1ac22400 	lsr	w0, w0, w2
    40003b00:	a8c17bfd 	ldp	x29, x30, [sp], #16
    40003b04:	12000000 	and	w0, w0, #0x1
    40003b08:	d65f03c0 	ret

0000000040003b0c <gicd_get_isactiver>:
    40003b0c:	2a0103e2 	mov	w2, w1
    40003b10:	a9bf7bfd 	stp	x29, x30, [sp, #-16]!
    40003b14:	910003fd 	mov	x29, sp
    40003b18:	9400000f 	bl	40003b54 <gicd_read_isactiver>
    40003b1c:	1ac22400 	lsr	w0, w0, w2
    40003b20:	a8c17bfd 	ldp	x29, x30, [sp], #16
    40003b24:	12000000 	and	w0, w0, #0x1
    40003b28:	d65f03c0 	ret

0000000040003b2c <gicd_read_icfgr>:
    40003b2c:	53047c21 	lsr	w1, w1, #4
    40003b30:	91300000 	add	x0, x0, #0xc00
    40003b34:	d37e6c21 	ubfiz	x1, x1, #2, #28
    40003b38:	b8606820 	ldr	w0, [x1, x0]
    40003b3c:	d65f03c0 	ret

0000000040003b40 <gicd_read_igroupr>:
    40003b40:	53057c21 	lsr	w1, w1, #5
    40003b44:	91020000 	add	x0, x0, #0x80
    40003b48:	d37e6821 	ubfiz	x1, x1, #2, #27
    40003b4c:	b8606820 	ldr	w0, [x1, x0]
    40003b50:	d65f03c0 	ret

0000000040003b54 <gicd_read_isactiver>:
    40003b54:	53057c21 	lsr	w1, w1, #5
    40003b58:	910c0000 	add	x0, x0, #0x300
    40003b5c:	d37e6821 	ubfiz	x1, x1, #2, #27
    40003b60:	b8606820 	ldr	w0, [x1, x0]
    40003b64:	d65f03c0 	ret

0000000040003b68 <gicd_set_icenabler>:
    40003b68:	52800022 	mov	w2, #0x1                   	// #1
    40003b6c:	1ac12042 	lsl	w2, w2, w1
    40003b70:	1400002b 	b	40003c1c <gicd_write_icenabler>

0000000040003b74 <gicd_set_icfgr>:
    40003b74:	531f0c26 	ubfiz	w6, w1, #1, #4
    40003b78:	aa0003e5 	mov	x5, x0
    40003b7c:	2a0103e4 	mov	w4, w1
    40003b80:	a9bf7bfd 	stp	x29, x30, [sp, #-16]!
    40003b84:	910003fd 	mov	x29, sp
    40003b88:	97ffffe9 	bl	40003b2c <gicd_read_icfgr>
    40003b8c:	12000442 	and	w2, w2, #0x3
    40003b90:	a8c17bfd 	ldp	x29, x30, [sp], #16
    40003b94:	52800063 	mov	w3, #0x3                   	// #3
    40003b98:	1ac62063 	lsl	w3, w3, w6
    40003b9c:	0a230003 	bic	w3, w0, w3
    40003ba0:	1ac62042 	lsl	w2, w2, w6
    40003ba4:	2a0403e1 	mov	w1, w4
    40003ba8:	2a030042 	orr	w2, w2, w3
    40003bac:	aa0503e0 	mov	x0, x5
    40003bb0:	14000020 	b	40003c30 <gicd_write_icfgr>

0000000040003bb4 <gicd_set_icpendr>:
    40003bb4:	52800022 	mov	w2, #0x1                   	// #1
    40003bb8:	1ac12042 	lsl	w2, w2, w1
    40003bbc:	14000022 	b	40003c44 <gicd_write_icpendr>

0000000040003bc0 <gicd_set_igroupr>:
    40003bc0:	2a0103e3 	mov	w3, w1
    40003bc4:	aa0003e4 	mov	x4, x0
    40003bc8:	a9bf7bfd 	stp	x29, x30, [sp, #-16]!
    40003bcc:	910003fd 	mov	x29, sp
    40003bd0:	97ffffdc 	bl	40003b40 <gicd_read_igroupr>
    40003bd4:	a8c17bfd 	ldp	x29, x30, [sp], #16
    40003bd8:	52800021 	mov	w1, #0x1                   	// #1
    40003bdc:	1ac32021 	lsl	w1, w1, w3
    40003be0:	2a000022 	orr	w2, w1, w0
    40003be4:	2a0303e1 	mov	w1, w3
    40003be8:	aa0403e0 	mov	x0, x4
    40003bec:	1400001b 	b	40003c58 <gicd_write_igroupr>

0000000040003bf0 <gicd_set_ipriorityr>:
    40003bf0:	91100000 	add	x0, x0, #0x400
    40003bf4:	2a0103e1 	mov	w1, w1
    40003bf8:	12001c42 	and	w2, w2, #0xff
    40003bfc:	38216802 	strb	w2, [x0, x1]
    40003c00:	d65f03c0 	ret

0000000040003c04 <gicd_set_isenabler>:
    40003c04:	52800022 	mov	w2, #0x1                   	// #1
    40003c08:	1ac12042 	lsl	w2, w2, w1
    40003c0c:	1400001c 	b	40003c7c <gicd_write_isenabler>

0000000040003c10 <gicd_set_ispendr>:
    40003c10:	52800022 	mov	w2, #0x1                   	// #1
    40003c14:	1ac12042 	lsl	w2, w2, w1
    40003c18:	1400001e 	b	40003c90 <gicd_write_ispendr>

0000000040003c1c <gicd_write_icenabler>:
    40003c1c:	53057c21 	lsr	w1, w1, #5
    40003c20:	91060000 	add	x0, x0, #0x180
    40003c24:	d37e6821 	ubfiz	x1, x1, #2, #27
    40003c28:	b8206822 	str	w2, [x1, x0]
    40003c2c:	d65f03c0 	ret

0000000040003c30 <gicd_write_icfgr>:
    40003c30:	53047c21 	lsr	w1, w1, #4
    40003c34:	91300000 	add	x0, x0, #0xc00
    40003c38:	d37e6c21 	ubfiz	x1, x1, #2, #28
    40003c3c:	b8206822 	str	w2, [x1, x0]
    40003c40:	d65f03c0 	ret

0000000040003c44 <gicd_write_icpendr>:
    40003c44:	53057c21 	lsr	w1, w1, #5
    40003c48:	910a0000 	add	x0, x0, #0x280
    40003c4c:	d37e6821 	ubfiz	x1, x1, #2, #27
    40003c50:	b8206822 	str	w2, [x1, x0]
    40003c54:	d65f03c0 	ret

0000000040003c58 <gicd_write_igroupr>:
    40003c58:	53057c21 	lsr	w1, w1, #5
    40003c5c:	91020000 	add	x0, x0, #0x80
    40003c60:	d37e6821 	ubfiz	x1, x1, #2, #27
    40003c64:	b8206822 	str	w2, [x1, x0]
    40003c68:	d65f03c0 	ret

0000000040003c6c <gicd_write_ipriorityr>:
    40003c6c:	927e7421 	and	x1, x1, #0xfffffffc
    40003c70:	91100000 	add	x0, x0, #0x400
    40003c74:	b8206822 	str	w2, [x1, x0]
    40003c78:	d65f03c0 	ret

0000000040003c7c <gicd_write_isenabler>:
    40003c7c:	53057c21 	lsr	w1, w1, #5
    40003c80:	91040000 	add	x0, x0, #0x100
    40003c84:	d37e6821 	ubfiz	x1, x1, #2, #27
    40003c88:	b8206822 	str	w2, [x1, x0]
    40003c8c:	d65f03c0 	ret

0000000040003c90 <gicd_write_ispendr>:
    40003c90:	53057c21 	lsr	w1, w1, #5
    40003c94:	91080000 	add	x0, x0, #0x200
    40003c98:	d37e6821 	ubfiz	x1, x1, #2, #27
    40003c9c:	b8206822 	str	w2, [x1, x0]
    40003ca0:	d65f03c0 	ret

0000000040003ca4 <gicv2_acknowledge_interrupt>:
    40003ca4:	a9bf7bfd 	stp	x29, x30, [sp, #-16]!
    40003ca8:	900000c0 	adrp	x0, 4001b000 <opteed_sp_context+0xe80>
    40003cac:	910003fd 	mov	x29, sp
    40003cb0:	f9433400 	ldr	x0, [x0, #1640]
    40003cb4:	b50000e0 	cbnz	x0, 40003cd0 <gicv2_acknowledge_interrupt+0x2c>
    40003cb8:	d0000062 	adrp	x2, 40011000 <version_string+0x37c>
    40003cbc:	9109c842 	add	x2, x2, #0x272
    40003cc0:	52801d61 	mov	w1, #0xeb                  	// #235
    40003cc4:	d0000060 	adrp	x0, 40011000 <version_string+0x37c>
    40003cc8:	91093400 	add	x0, x0, #0x24d
    40003ccc:	97fff394 	bl	40000b1c <__assert>
    40003cd0:	f9400400 	ldr	x0, [x0, #8]
    40003cd4:	b50000a0 	cbnz	x0, 40003ce8 <gicv2_acknowledge_interrupt+0x44>
    40003cd8:	d0000062 	adrp	x2, 40011000 <version_string+0x37c>
    40003cdc:	52801d81 	mov	w1, #0xec                  	// #236
    40003ce0:	910ab442 	add	x2, x2, #0x2ad
    40003ce4:	17fffff8 	b	40003cc4 <gicv2_acknowledge_interrupt+0x20>
    40003ce8:	a8c17bfd 	ldp	x29, x30, [sp], #16
    40003cec:	b9400c00 	ldr	w0, [x0, #12]
    40003cf0:	d65f03c0 	ret

0000000040003cf4 <gicv2_clear_interrupt_pending>:
    40003cf4:	a9bf7bfd 	stp	x29, x30, [sp, #-16]!
    40003cf8:	2a0003e1 	mov	w1, w0
    40003cfc:	900000c0 	adrp	x0, 4001b000 <opteed_sp_context+0xe80>
    40003d00:	910003fd 	mov	x29, sp
    40003d04:	f9433400 	ldr	x0, [x0, #1640]
    40003d08:	b50000e0 	cbnz	x0, 40003d24 <gicv2_clear_interrupt_pending+0x30>
    40003d0c:	d0000062 	adrp	x2, 40011000 <version_string+0x37c>
    40003d10:	9109c842 	add	x2, x2, #0x272
    40003d14:	52803d61 	mov	w1, #0x1eb                 	// #491
    40003d18:	d0000060 	adrp	x0, 40011000 <version_string+0x37c>
    40003d1c:	91093400 	add	x0, x0, #0x24d
    40003d20:	97fff37f 	bl	40000b1c <__assert>
    40003d24:	f9400000 	ldr	x0, [x0]
    40003d28:	b50000a0 	cbnz	x0, 40003d3c <gicv2_clear_interrupt_pending+0x48>
    40003d2c:	d0000062 	adrp	x2, 40011000 <version_string+0x37c>
    40003d30:	52803d81 	mov	w1, #0x1ec                 	// #492
    40003d34:	910a2c42 	add	x2, x2, #0x28b
    40003d38:	17fffff8 	b	40003d18 <gicv2_clear_interrupt_pending+0x24>
    40003d3c:	71003c3f 	cmp	w1, #0xf
    40003d40:	540000a8 	b.hi	40003d54 <gicv2_clear_interrupt_pending+0x60>  // b.pmore
    40003d44:	d0000062 	adrp	x2, 40011000 <version_string+0x37c>
    40003d48:	52803de1 	mov	w1, #0x1ef                 	// #495
    40003d4c:	91129842 	add	x2, x2, #0x4a6
    40003d50:	17fffff2 	b	40003d18 <gicv2_clear_interrupt_pending+0x24>
    40003d54:	97ffff98 	bl	40003bb4 <gicd_set_icpendr>
    40003d58:	d5033a9f 	dsb	ishst
    40003d5c:	a8c17bfd 	ldp	x29, x30, [sp], #16
    40003d60:	d65f03c0 	ret

0000000040003d64 <gicv2_cpuif_disable>:
    40003d64:	a9bf7bfd 	stp	x29, x30, [sp, #-16]!
    40003d68:	900000c0 	adrp	x0, 4001b000 <opteed_sp_context+0xe80>
    40003d6c:	910003fd 	mov	x29, sp
    40003d70:	f9433400 	ldr	x0, [x0, #1640]
    40003d74:	b50000e0 	cbnz	x0, 40003d90 <gicv2_cpuif_disable+0x2c>
    40003d78:	d0000062 	adrp	x2, 40011000 <version_string+0x37c>
    40003d7c:	9109c842 	add	x2, x2, #0x272
    40003d80:	528007a1 	mov	w1, #0x3d                  	// #61
    40003d84:	d0000060 	adrp	x0, 40011000 <version_string+0x37c>
    40003d88:	91093400 	add	x0, x0, #0x24d
    40003d8c:	97fff364 	bl	40000b1c <__assert>
    40003d90:	f9400401 	ldr	x1, [x0, #8]
    40003d94:	b50000a1 	cbnz	x1, 40003da8 <gicv2_cpuif_disable+0x44>
    40003d98:	d0000062 	adrp	x2, 40011000 <version_string+0x37c>
    40003d9c:	528007c1 	mov	w1, #0x3e                  	// #62
    40003da0:	910ab442 	add	x2, x2, #0x2ad
    40003da4:	17fffff8 	b	40003d84 <gicv2_cpuif_disable+0x20>
    40003da8:	b9400020 	ldr	w0, [x1]
    40003dac:	121e7400 	and	w0, w0, #0xfffffffc
    40003db0:	321b0c00 	orr	w0, w0, #0x1e0
    40003db4:	b9000020 	str	w0, [x1]
    40003db8:	a8c17bfd 	ldp	x29, x30, [sp], #16
    40003dbc:	d65f03c0 	ret

0000000040003dc0 <gicv2_cpuif_enable>:
    40003dc0:	a9bf7bfd 	stp	x29, x30, [sp, #-16]!
    40003dc4:	900000c0 	adrp	x0, 4001b000 <opteed_sp_context+0xe80>
    40003dc8:	910003fd 	mov	x29, sp
    40003dcc:	f9433400 	ldr	x0, [x0, #1640]
    40003dd0:	b50000e0 	cbnz	x0, 40003dec <gicv2_cpuif_enable+0x2c>
    40003dd4:	d0000062 	adrp	x2, 40011000 <version_string+0x37c>
    40003dd8:	9109c842 	add	x2, x2, #0x272
    40003ddc:	528004c1 	mov	w1, #0x26                  	// #38
    40003de0:	d0000060 	adrp	x0, 40011000 <version_string+0x37c>
    40003de4:	91093400 	add	x0, x0, #0x24d
    40003de8:	97fff34d 	bl	40000b1c <__assert>
    40003dec:	f9400400 	ldr	x0, [x0, #8]
    40003df0:	b50000a0 	cbnz	x0, 40003e04 <gicv2_cpuif_enable+0x44>
    40003df4:	d0000062 	adrp	x2, 40011000 <version_string+0x37c>
    40003df8:	528004e1 	mov	w1, #0x27                  	// #39
    40003dfc:	910ab442 	add	x2, x2, #0x2ad
    40003e00:	17fffff8 	b	40003de0 <gicv2_cpuif_enable+0x20>
    40003e04:	52801fe1 	mov	w1, #0xff                  	// #255
    40003e08:	b9000401 	str	w1, [x0, #4]
    40003e0c:	52803d21 	mov	w1, #0x1e9                 	// #489
    40003e10:	b9000001 	str	w1, [x0]
    40003e14:	a8c17bfd 	ldp	x29, x30, [sp], #16
    40003e18:	d65f03c0 	ret

0000000040003e1c <gicv2_disable_interrupt>:
    40003e1c:	a9bf7bfd 	stp	x29, x30, [sp, #-16]!
    40003e20:	2a0003e1 	mov	w1, w0
    40003e24:	900000c0 	adrp	x0, 4001b000 <opteed_sp_context+0xe80>
    40003e28:	910003fd 	mov	x29, sp
    40003e2c:	f9433400 	ldr	x0, [x0, #1640]
    40003e30:	b50000e0 	cbnz	x0, 40003e4c <gicv2_disable_interrupt+0x30>
    40003e34:	d0000062 	adrp	x2, 40011000 <version_string+0x37c>
    40003e38:	9109c842 	add	x2, x2, #0x272
