
/home/ssysarch/Desktop/nick/jetpack_5/Jetson_Linux_R35.4.1_aarch64/Linux_for_Tegra/sources/tegra/optee-src/nv-optee/optee/build/t234/ta/aes_perf/e626662e-c0e2-485c-b8c8-09fbce6edf3d.elf:     file format elf64-littleaarch64
/home/ssysarch/Desktop/nick/jetpack_5/Jetson_Linux_R35.4.1_aarch64/Linux_for_Tegra/sources/tegra/optee-src/nv-optee/optee/build/t234/ta/aes_perf/e626662e-c0e2-485c-b8c8-09fbce6edf3d.elf
architecture: aarch64, flags 0x00000150:
HAS_SYMS, DYNAMIC, D_PAGED
start address 0x00000000000006d4

Program Header:
    LOAD off    0x0000000000001000 vaddr 0x0000000000000000 paddr 0x0000000000000000 align 2**12
         filesz 0x0000000000018568 memsz 0x0000000000018568 flags r-x
    LOAD off    0x000000000001a000 vaddr 0x0000000000019000 paddr 0x0000000000019000 align 2**12
         filesz 0x000000000000066c memsz 0x000000000000bf28 flags rw-
 DYNAMIC off    0x000000000001a000 vaddr 0x0000000000019000 paddr 0x0000000000019000 align 2**3
         filesz 0x0000000000000110 memsz 0x0000000000000110 flags rw-
   STACK off    0x0000000000000000 vaddr 0x0000000000000000 paddr 0x0000000000000000 align 2**4
         filesz 0x0000000000000000 memsz 0x0000000000000000 flags rw-

Dynamic Section:
  HASH                 0x0000000000018250
  GNU_HASH             0x0000000000018160
  STRTAB               0x0000000000018220
  SYMTAB               0x0000000000018190
  STRSZ                0x000000000000002e
  SYMENT               0x0000000000000018
  DEBUG                0x0000000000000000
  RELA                 0x0000000000018280
  RELASZ               0x0000000000000528
  RELAENT              0x0000000000000018
  FLAGS_1              0x0000000008000000
  RELACOUNT            0x000000000000001f
private flags = 0:

Sections:
Idx Name          Size      VMA               LMA               File off  Algn
  0 .ta_head      00000020  0000000000000000  0000000000000000  00001000  2**3
                  CONTENTS, ALLOC, LOAD, READONLY, DATA
  1 .text         0001309c  0000000000000020  0000000000000020  00001020  2**4
                  CONTENTS, ALLOC, LOAD, READONLY, CODE
  2 .eh_frame     00003c1c  00000000000130c0  00000000000130c0  000140c0  2**3
                  CONTENTS, ALLOC, LOAD, READONLY, DATA
  3 .rodata       0000147b  0000000000016ce0  0000000000016ce0  00017ce0  2**3
                  CONTENTS, ALLOC, LOAD, READONLY, DATA
  4 .gnu.hash     00000030  0000000000018160  0000000000018160  00019160  2**3
                  CONTENTS, ALLOC, LOAD, READONLY, DATA
  5 .dynsym       00000090  0000000000018190  0000000000018190  00019190  2**3
                  CONTENTS, ALLOC, LOAD, READONLY, DATA
  6 .dynstr       0000002e  0000000000018220  0000000000018220  00019220  2**0
                  CONTENTS, ALLOC, LOAD, READONLY, DATA
  7 .hash         0000002c  0000000000018250  0000000000018250  00019250  2**3
                  CONTENTS, ALLOC, LOAD, READONLY, DATA
  8 .rela.dyn     000002e8  0000000000018280  0000000000018280  00019280  2**3
                  CONTENTS, ALLOC, LOAD, READONLY, DATA
  9 .dynamic      00000110  0000000000019000  0000000000019000  0001a000  2**3
                  CONTENTS, ALLOC, LOAD, DATA
 10 .got          000000e0  0000000000019110  0000000000019110  0001a110  2**3
                  CONTENTS, ALLOC, LOAD, DATA
 11 .rela.got     00000240  00000000000191f0  00000000000191f0  0001a1f0  2**3
                  CONTENTS, ALLOC, LOAD, READONLY, DATA
 12 .data         0000023c  0000000000019430  0000000000019430  0001a430  2**3
                  CONTENTS, ALLOC, LOAD, DATA
 13 .bss          0000b8b8  0000000000019670  0000000000019670  0001a66c  2**3
                  ALLOC
 14 .debug_info   00022fc3  0000000000000000  0000000000000000  0001a66c  2**0
                  CONTENTS, READONLY, DEBUGGING
 15 .debug_abbrev 00004bb7  0000000000000000  0000000000000000  0003d62f  2**0
                  CONTENTS, READONLY, DEBUGGING
 16 .debug_loc    00032af1  0000000000000000  0000000000000000  000421e6  2**0
                  CONTENTS, READONLY, DEBUGGING
 17 .debug_aranges 000009e0  0000000000000000  0000000000000000  00074ce0  2**4
                  CONTENTS, READONLY, DEBUGGING
 18 .debug_macro  00019a11  0000000000000000  0000000000000000  000756c0  2**0
                  CONTENTS, READONLY, DEBUGGING
 19 .debug_line   00014128  0000000000000000  0000000000000000  0008f0d1  2**0
                  CONTENTS, READONLY, DEBUGGING
 20 .debug_str    0001be21  0000000000000000  0000000000000000  000a31f9  2**0
                  CONTENTS, READONLY, DEBUGGING
 21 .comment      0000001f  0000000000000000  0000000000000000  000bf01a  2**0
                  CONTENTS, READONLY
 22 .debug_ranges 00002040  0000000000000000  0000000000000000  000bf040  2**4
                  CONTENTS, READONLY, DEBUGGING
SYMBOL TABLE:
0000000000000000 l    d  .ta_head	0000000000000000 .ta_head
0000000000000020 l    d  .text	0000000000000000 .text
00000000000130c0 l    d  .eh_frame	0000000000000000 .eh_frame
0000000000016ce0 l    d  .rodata	0000000000000000 .rodata
0000000000018160 l    d  .gnu.hash	0000000000000000 .gnu.hash
0000000000018190 l    d  .dynsym	0000000000000000 .dynsym
0000000000018220 l    d  .dynstr	0000000000000000 .dynstr
0000000000018250 l    d  .hash	0000000000000000 .hash
0000000000018280 l    d  .rela.dyn	0000000000000000 .rela.dyn
0000000000019000 l    d  .dynamic	0000000000000000 .dynamic
0000000000019110 l    d  .got	0000000000000000 .got
00000000000191f0 l    d  .rela.got	0000000000000000 .rela.got
0000000000019430 l    d  .data	0000000000000000 .data
0000000000019670 l    d  .bss	0000000000000000 .bss
0000000000000000 l    d  .debug_info	0000000000000000 .debug_info
0000000000000000 l    d  .debug_abbrev	0000000000000000 .debug_abbrev
0000000000000000 l    d  .debug_loc	0000000000000000 .debug_loc
0000000000000000 l    d  .debug_aranges	0000000000000000 .debug_aranges
0000000000000000 l    d  .debug_macro	0000000000000000 .debug_macro
0000000000000000 l    d  .debug_line	0000000000000000 .debug_line
0000000000000000 l    d  .debug_str	0000000000000000 .debug_str
0000000000000000 l    d  .comment	0000000000000000 .comment
0000000000000000 l    d  .debug_ranges	0000000000000000 .debug_ranges
0000000000000000 l    df *ABS*	0000000000000000 user_ta_header.c
0000000000016ce8 l     O .rodata	0000000000000001 __compound_literal.6
0000000000016cec l     O .rodata	0000000000000004 __compound_literal.5
0000000000016cf0 l     O .rodata	0000000000000004 __compound_literal.4
0000000000016cf4 l     O .rodata	0000000000000004 __compound_literal.3
0000000000016cf8 l     O .rodata	0000000000000001 __compound_literal.2
0000000000016cf9 l     O .rodata	0000000000000001 __compound_literal.1
0000000000016cfa l     O .rodata	0000000000000001 __compound_literal.0
0000000000000000 l    df *ABS*	0000000000000000 memcpy.c
0000000000000000 l    df *ABS*	0000000000000000 ta_entry.c
00000000000171bb l     O .rodata	000000000000001b __func__.4491
0000000000000000 l    df *ABS*	0000000000000000 ta_aes_perf.c
000000000001961c l     O .data	0000000000000010 iv
000000000001962c l     O .data	0000000000000020 aes_key.4649
000000000001964c l     O .data	0000000000000020 aes_key2.4650
0000000000019670 l     O .bss	0000000000000004 algo
0000000000019678 l     O .bss	0000000000000008 crypto_op
0000000000019680 l     O .bss	0000000000000004 use_iv
0000000000016d3d l     O .rodata	000000000000000c __func__.4628
0000000000016d49 l     O .rodata	0000000000000010 __func__.4659
0000000000000000 l    df *ABS*	0000000000000000 stack_check.c
0000000000000000 l    df *ABS*	0000000000000000 trace.c
0000000000000720 l     F .text	000000000000010c append
00000000000173d2 l     O .rodata	0000000000000005 lvl_strs.3595
00000000000173d7 l     O .rodata	000000000000000a __func__.3657
0000000000000000 l    df *ABS*	0000000000000000 snprintk.c
0000000000000ed0 l     F .text	0000000000000be0 kprintf.constprop.0
0000000000016de6 l     O .rodata	0000000000000011 HEXDIGITS
0000000000016df7 l     O .rodata	0000000000000011 hexdigits
0000000000000000 l    df *ABS*	0000000000000000 memchr.c
0000000000000000 l    df *ABS*	0000000000000000 strlen.c
0000000000000000 l    df *ABS*	0000000000000000 trace_ext.c
0000000000000000 l    df *ABS*	0000000000000000 tee_api.c
0000000000001d24 l     F .text	000000000000006c copy_param
0000000000001d90 l     F .text	0000000000000070 copy_gp11_param
0000000000001e00 l     F .text	0000000000000094 check_mem_access_rights_params
0000000000001e94 l     F .text	0000000000000044 buf_overlaps_no_share_heap
0000000000001ed8 l     F .text	00000000000000a8 check_invoke_param
0000000000001f80 l     F .text	00000000000000a8 update_out_param
0000000000002028 l     F .text	00000000000000ac update_out_gp11_param
00000000000022a4 l     F .text	000000000000019c map_tmp_param
0000000000019688 l     O .bss	0000000000000008 tee_api_instance_data
0000000000016d20 l     O .rodata	000000000000000b __func__.5423
0000000000000000 l    df *ABS*	0000000000000000 tee_api_objects.c
0000000000000000 l    df *ABS*	0000000000000000 tee_api_operations.c
000000000000481c l     F .text	0000000000000118 __tee_alg_get_main_alg
0000000000004934 l     F .text	0000000000000254 tee_buffer_update
0000000000004b88 l     F .text	00000000000000a4 __tee_alg_get_class
0000000000004c2c l     F .text	000000000000005c reset_operation_state
0000000000004c88 l     F .text	00000000000001e4 set_operation_key2
0000000000004e6c l     F .text	00000000000000dc ae_update_helper.part.0
0000000000016e12 l     O .rodata	0000000000000012 __func__.5437
0000000000000000 l    df *ABS*	0000000000000000 tee_api_panic.c
0000000000008d40 l     F .text	000000000000001c check_access
0000000000008d64 l     F .text	0000000000000044 check_res
00000000000174ce l     O .rodata	000000000000000a __func__.4862
0000000000000000 l    df *ABS*	0000000000000000 tee_system_pta.c
000000000000902c l     F .text	0000000000000088 invoke_system_pta
0000000000016e24 l     O .rodata	0000000000000010 uuid.4625
0000000000016e34 l     O .rodata	000000000000000a __func__.4645
0000000000016e3e l     O .rodata	0000000000000017 __func__.4657
0000000000019698 l     O .bss	0000000000000008 sess.4624
0000000000000000 l    df *ABS*	0000000000000000 user_ta_entry.c
000000000000933c l     F .text	00000000000000b0 _get_fn_array
00000000000093ec l     F .text	0000000000000090 _fini_iterate_phdr_cb
000000000000947c l     F .text	0000000000000028 ta_header_get_session
00000000000094a4 l     F .text	000000000000006c to_utee_params
0000000000009510 l     F .text	000000000000005c from_utee_params
000000000000956c l     F .text	0000000000000094 _init_iterate_phdr_cb
0000000000009768 l     F .text	0000000000000098 ta_header_remove_session
000000000001757c l     O .rodata	0000000000000016 __func__.5387
00000000000196a0 l     O .bss	0000000000000008 _num_mod_init
00000000000196a8 l     O .bss	0000000000000001 init_done
0000000000019510 l     O .data	0000000000000010 ta_sessions
0000000000019520 l     O .data	0000000000000010 __phdr_info_head
0000000000000000 l    df *ABS*	0000000000000000 utee_syscalls_a64.o
0000000000000000 l    df *ABS*	0000000000000000 abort.c
0000000000000000 l    df *ABS*	0000000000000000 assert.c
0000000000000000 l    df *ABS*	0000000000000000 tee_api_arith_mpi.c
0000000000009dac l     F .text	0000000000000030 api_panic
0000000000009ddc l     F .text	0000000000000030 mpi_panic
0000000000009e0c l     F .text	0000000000000098 get_mpi
0000000000009ea4 l     F .text	0000000000000064 copy_mpi_to_bigint
0000000000009f08 l     F .text	000000000000014c bigint_binary
000000000000a054 l     F .text	0000000000000020 mpi_is_odd
000000000000a074 l     F .text	0000000000000028 rng_read
000000000000a09c l     F .text	0000000000000574 mpi_egcd
0000000000019710 l     O .bss	0000000000003800 data.5215
000000000000ab3c l     F .text	00000000000001d0 bigint_binary_mod
0000000000017689 l     O .rodata	0000000000000008 __func__.5249
0000000000017691 l     O .rodata	000000000000000e __func__.5387
000000000001769f l     O .rodata	0000000000000009 __func__.5551
00000000000176a8 l     O .rodata	0000000000000012 __func__.5216
00000000000176ba l     O .rodata	000000000000000f __func__.5255
00000000000176c9 l     O .rodata	000000000000001f __func__.5283
00000000000176e8 l     O .rodata	0000000000000019 __func__.5297
0000000000017701 l     O .rodata	0000000000000012 __func__.5406
0000000000017713 l     O .rodata	0000000000000015 __func__.5328
0000000000017728 l     O .rodata	000000000000000e __func__.5427
0000000000017736 l     O .rodata	000000000000000e __func__.5456
0000000000017744 l     O .rodata	000000000000000e __func__.5464
0000000000017752 l     O .rodata	0000000000000011 __func__.5497
0000000000017763 l     O .rodata	0000000000000018 __func__.5510
000000000001777b l     O .rodata	0000000000000011 __func__.5531
000000000001778c l     O .rodata	000000000000001d __func__.5608
00000000000177a9 l     O .rodata	0000000000000019 __func__.5681
00000000000177c2 l     O .rodata	0000000000000015 __func__.5696
0000000000000000 l    df *ABS*	0000000000000000 tee_api_property.c
000000000000bed8 l     F .text	000000000000006c propset_get
000000000000bf44 l     F .text	000000000000002c is_propset_pseudo_handle
000000000000bf70 l     F .text	0000000000000148 propget_get_ext_prop
000000000000c0b8 l     F .text	00000000000001b0 propget_get_property
0000000000016e68 l     O .rodata	0000000000000004 __compound_literal.3
0000000000016e6c l     O .rodata	0000000000000004 __compound_literal.2
0000000000016e70 l     O .rodata	0000000000000004 __compound_literal.1
0000000000016e74 l     O .rodata	0000000000000004 __compound_literal.0
0000000000000000 l    df *ABS*	0000000000000000 tcb.c
00000000000178e7 l     O .rodata	0000000000000010 __func__.4097
00000000000178f7 l     O .rodata	0000000000000010 __func__.4124
000000000001cf10 l     O .bss	0000000000000008 _tls_size
000000000001cf18 l     O .bss	0000000000000008 _tcb
0000000000000000 l    df *ABS*	0000000000000000 base64.c
0000000000016e7c l     O .rodata	0000000000000041 base64_table
0000000000000000 l    df *ABS*	0000000000000000 bignum.c
000000000000d3f4 l     F .text	0000000000000064 mpi_get_digit
000000000000d458 l     F .text	000000000000040c mpi_mul_hlp
000000000000d864 l     F .text	0000000000000038 mpi_montg_init.isra.0
000000000000d89c l     F .text	00000000000000ac mpi_bigendian_to_host.part.0
000000000000d948 l     F .text	00000000000000c0 mpi_fill_random_internal
000000000000da08 l     F .text	0000000000000148 mpi_montmul.isra.0
000000000000db50 l     F .text	0000000000000078 mpi_montred
000000000000dd54 l     F .text	000000000000006c mbedtls_mpi_resize_clear
000000000000fa8c l     F .text	00000000000000c4 mpi_check_small_factors
0000000000010470 l     F .text	00000000000002a4 mpi_miller_rabin
0000000000016ec0 l     O .rodata	00000000000002a0 small_prime
0000000000017160 l     O .rodata	0000000000000024 gcd_pairs
0000000000000000 l    df *ABS*	0000000000000000 constant_time.c
0000000000011584 l     F .text	0000000000000020 mbedtls_ct_uchar_mask_of_range
0000000000000000 l    df *ABS*	0000000000000000 platform_util.c
0000000000019590 l     O .data	0000000000000008 memset_func
0000000000000000 l    df *ABS*	0000000000000000 bget_malloc.c
0000000000011d64 l     F .text	0000000000000010 _assert_trap
0000000000011d74 l     F .text	0000000000000038 raw_malloc_return_hook.isra.0
0000000000011dac l     F .text	0000000000000028 bget_buf_size.part.0
000000000001804e l     O .rodata	000000000000000e __func__.3996
000000000001805c l     O .rodata	0000000000000005 __func__.3908
0000000000018061 l     O .rodata	0000000000000006 __func__.3928
0000000000018067 l     O .rodata	0000000000000005 __func__.3949
000000000001806c l     O .rodata	0000000000000006 __func__.3939
0000000000018072 l     O .rodata	0000000000000006 __func__.3958
0000000000018078 l     O .rodata	0000000000000007 __func__.3968
000000000001807f l     O .rodata	0000000000000014 __func__.4197
0000000000018093 l     O .rodata	0000000000000013 __func__.4061
0000000000019598 l     O .data	0000000000000080 malloc_ctx
0000000000000000 l    df *ABS*	0000000000000000 snprintf.c
0000000000000000 l    df *ABS*	0000000000000000 memmove.c
0000000000000000 l    df *ABS*	0000000000000000 memset.c
0000000000000000 l    df *ABS*	0000000000000000 strcmp.c
0000000000000000 l    df *ABS*	0000000000000000 strlcpy.c
0000000000000000 l    df *ABS*	0000000000000000 mempool.c
000000000001812f l     O .rodata	0000000000000013 __func__.3711
0000000000018142 l     O .rodata	000000000000000b __func__.3692
000000000001814d l     O .rodata	000000000000000e __func__.3717
0000000000000000 l    df *ABS*	0000000000000000 consttime_memcmp.c
0000000000000000 l    df *ABS*	0000000000000000 
0000000000019000 l     O *ABS*	0000000000000000 _DYNAMIC
0000000000019128 l     O *ABS*	0000000000000000 _GLOBAL_OFFSET_TABLE_
0000000000001cb4 g     F .text	0000000000000070 putchar
000000000000a790 g     F .text	0000000000000008 __GP11_TEE_BigIntConvertFromOctetString
0000000000003734 g     F .text	0000000000000110 TEE_PopulateTransientObject
00000000000071e8 g     F .text	0000000000000010 __GP11_TEE_AEInit
000000000000bcbc g     F .text	0000000000000004 TEE_BigIntConvertToFMM
000000000000b530 g     F .text	000000000000000c TEE_BigIntSquareMod
000000000000ad0c g     F .text	00000000000001a0 TEE_BigIntShiftRight
000000000001292c g     F .text	000000000000011c raw_malloc_add_pool
000000000000922c g     F .text	0000000000000110 tee_invoke_supp_plugin
000000000000dc6c g     F .text	00000000000000e8 mbedtls_mpi_grow
0000000000006304 g     F .text	0000000000000070 TEE_DigestUpdate
000000000000cbc0 g     F .text	0000000000000128 __GP11_TEE_GetPropertyName
0000000000002cec g     F .text	00000000000000d8 TEE_Realloc
000000000000613c g     F .text	0000000000000020 TEE_SetOperationKey2
0000000000006f74 g     F .text	00000000000000a0 __GP11_TEE_MACComputeFinal
0000000000009000 g     F .text	000000000000002c __utee_check_inout_annotation
00000000000126e4 g     F .text	0000000000000010 raw_free
0000000000001b74 g     F .text	0000000000000100 printf
000000000000b0a8 g     F .text	000000000000002c TEE_BigIntAbs
00000000000069a8 g     F .text	00000000000000a0 __GP11_TEE_CipherUpdate
0000000000003954 g     F .text	000000000000004c TEE_InitRefAttribute
0000000000009aa0 g     F .text	000000000000000c _utee_log
00000000000026dc g     F .text	0000000000000184 TEE_InvokeTACommand
0000000000003a3c g     F .text	000000000000004c __GP11_TEE_InitValueAttribute
0000000000008da8 g     F .text	0000000000000064 __utee_check_outbuf_annotation
000000000000dbd8 g     F .text	0000000000000028 mbedtls_mpi_init_mempool
0000000000009c20 g     F .text	000000000000000c _utee_cryp_random_number_generate
000000000000e3d4 g     F .text	00000000000000c4 mbedtls_mpi_write_binary
0000000000007528 g     F .text	0000000000000200 TEE_AEEncryptFinal
0000000000000dac g     F .text	0000000000000058 vsnprintk
000000000000ec50 g     F .text	0000000000000074 mbedtls_mpi_sub_int
0000000000007f20 g     F .text	0000000000000178 __GP11_TEE_AsymmetricDecrypt
0000000000012dc8 g     F .text	000000000000005c memmove
0000000000012ca0 g     F .text	00000000000000d0 snprintf
000000000000aac0 g     F .text	000000000000007c TEE_BigIntCmpS32
00000000000029fc g     F .text	0000000000000008 __GP11_TEE_MemMove
0000000000019508 g     O .data	0000000000000008 __stack_chk_guard
0000000000011ac8 g     F .text	000000000000027c mbedtls_ct_rsaes_pkcs1_v15_unpadding
00000000000039f0 g     F .text	000000000000004c TEE_InitValueAttribute
000000000000ddc0 g     F .text	0000000000000120 mbedtls_mpi_shrink
0000000000002a14 g     F .text	0000000000000008 __GP11_TEE_MemFill
000000000000b0d4 g     F .text	000000000000000c TEE_BigIntAdd
0000000000009bc0 g     F .text	000000000000000c _utee_cryp_obj_restrict_usage
00000000000039a0 g     F .text	0000000000000050 __GP11_TEE_InitRefAttribute
0000000000016d08 g     O .rodata	0000000000000008 ta_heap_size
00000000000036a4 g     F .text	0000000000000090 TEE_ResetTransientObject
0000000000009c68 g     F .text	000000000000000c _utee_asymm_operate
000000000000d19c g     F .text	0000000000000018 _base64_enc_len
000000000000ef18 g     F .text	000000000000020c mbedtls_mpi_read_string
0000000000003ce8 g     F .text	00000000000000d4 __GP11_TEE_GenerateKey
000000000000672c g     F .text	00000000000000e0 TEE_CipherInit
000000000000b0ec g     F .text	00000000000000e4 TEE_BigIntNeg
0000000000009cbc g     F .text	000000000000000c _utee_storage_free_enum
0000000000000020 g       .text	0000000000000000 __text_start
000000000000cd70 g     F .text	00000000000000e0 TEE_GetNextProperty
0000000000004220 g     F .text	0000000000000050 TEE_StartPersistentObjectEnumerator
000000000000e5a8 g     F .text	00000000000000c0 mbedtls_mpi_shift_r
0000000000012c8c g     F .text	0000000000000014 malloc_buffer_overlaps_heap
0000000000009b6c g     F .text	000000000000000c _utee_hash_init
000000000000b518 g     F .text	000000000000000c TEE_BigIntSubMod
0000000000010e10 g     F .text	000000000000034c mbedtls_mpi_gen_prime
000000000000c8f0 g     F .text	0000000000000098 TEE_GetPropertyAsBinaryBlock
000000000000e09c g     F .text	000000000000002c mbedtls_mpi_get_bit
0000000000016d00 g     O .rodata	0000000000000008 __ta_no_share_heap_size
000000000000e298 g     F .text	0000000000000084 mbedtls_mpi_read_binary
0000000000007124 g     F .text	00000000000000c4 TEE_AEInit
0000000000000a74 g     F .text	00000000000000e0 trace_printf
000000000000fb58 g     F .text	0000000000000008 mbedtls_mpi_montmul
0000000000009d28 g     F .text	000000000000000c _utee_cache_operation
0000000000000020 g     F .text	00000000000000ec memcpy
000000000000bcc0 g     F .text	00000000000000d0 TEE_BigIntConvertFromFMM
0000000000008d5c g     F .text	0000000000000008 TEE_Panic
00000000000061a8 g     F .text	000000000000015c TEE_CopyOperation
0000000000001c74 g     F .text	0000000000000040 puts
000000000000bd90 g     F .text	0000000000000148 TEE_BigIntComputeFMM
0000000000012c54 g     F .text	0000000000000010 malloc_get_stats
0000000000002b38 g     F .text	0000000000000028 TEE_GetREETime
0000000000012c18 g     F .text	000000000000003c raw_malloc_get_stats
0000000000004140 g     F .text	0000000000000090 TEE_AllocatePersistentObjectEnumerator
0000000000019430 g     O .data	00000000000000d8 ta_props
0000000000007a88 g     F .text	0000000000000190 TEE_AsymmetricEncrypt
0000000000002c84 g     F .text	0000000000000008 __GP11_TEE_Malloc
0000000000002594 g     F .text	0000000000000148 __GP11_TEE_OpenTASession
0000000000008e70 g     F .text	000000000000003c __utee_check_instring_annotation
0000000000012858 g     F .text	0000000000000018 malloc
000000000000cbac g     F .text	0000000000000004 TEE_FreePropertyEnumerator
00000000000115fc g     F .text	0000000000000010 mbedtls_ct_mpi_uint_mask
000000000000680c g     F .text	0000000000000008 __GP11_TEE_CipherInit
0000000000003c14 g     F .text	00000000000000d4 TEE_GenerateKey
0000000000012d70 g     F .text	0000000000000058 vsnprintf
0000000000019618 g     O .data	0000000000000004 trace_level
0000000000003ea0 g     F .text	0000000000000008 __GP11_TEE_OpenPersistentObject
000000000000aa2c g     F .text	0000000000000094 TEE_BigIntCmp
0000000000016ce0 g     O .rodata	0000000000000008 ta_num_props
0000000000012404 g     F .text	00000000000000d0 bgetr
0000000000009c80 g     F .text	000000000000000c _utee_storage_obj_open
0000000000002a08 g     F .text	0000000000000008 __GP11_TEE_MemCompare
0000000000013038 g     F .text	0000000000000014 mempool_free
0000000000006814 g     F .text	0000000000000194 TEE_CipherUpdate
0000000000009b78 g     F .text	000000000000000c _utee_hash_update
000000000000a798 g     F .text	00000000000000c8 TEE_BigIntConvertToOctetString
0000000000005d40 g     F .text	00000000000001b0 TEE_GetOperationInfoMultiple
000000000000e1a8 g     F .text	000000000000005c mbedtls_mpi_bitlen
000000000000aeb4 g     F .text	0000000000000080 TEE_BigIntGetBit
0000000000016d10 g     O .rodata	0000000000000003 trace_ext_prefix
0000000000009ce0 g     F .text	000000000000000c _utee_storage_next_enum
00000000000126d4 g     F .text	0000000000000010 raw_malloc
00000000000120b8 g     F .text	0000000000000088 bgetz
000000000001160c g     F .text	0000000000000018 mbedtls_ct_size_bool_eq
00000000000029ec g     F .text	000000000000000c TEE_GetInstanceData
0000000000002a44 g     F .text	000000000000003c TEE_Wait
000000000000ecc4 g     F .text	00000000000001ac mbedtls_mpi_mul_mpi
000000000000aeac g     F .text	0000000000000008 __GP11_TEE_BigIntShiftRight
0000000000002dd4 g     F .text	0000000000000008 TEE_CacheFlush
0000000000000858 g     F .text	000000000000021c trace_vprintf
0000000000000114 g     F .text	0000000000000004 TA_DestroyEntryPoint
000000000000dbc8 g     F .text	0000000000000010 mbedtls_mpi_init
0000000000009c98 g     F .text	000000000000000c _utee_storage_obj_del
000000000000e154 g     F .text	0000000000000054 mbedtls_mpi_lsb
0000000000006c60 g     F .text	00000000000000b0 __GP11_TEE_CipherDoFinal
0000000000009d54 g     F .text	0000000000000044 _assert_log
0000000000007408 g     F .text	0000000000000120 __GP11_TEE_AEUpdate
0000000000009b54 g     F .text	000000000000000c _utee_cryp_state_copy
000000000000bc9c g     F .text	0000000000000008 TEE_BigIntFMMContextSizeInU32
0000000000009164 g     F .text	00000000000000c8 tee_unmap
0000000000007014 g     F .text	0000000000000104 TEE_MACCompareFinal
0000000000011640 g     F .text	0000000000000030 mbedtls_ct_uint_if
00000000000040dc g     F .text	000000000000005c TEE_RenamePersistentObject
000000000000637c g     F .text	000000000000016c TEE_DigestDoFinal
0000000000003844 g     F .text	0000000000000110 __GP11_TEE_PopulateTransientObject
000000000000a610 g     F .text	0000000000000050 _TEE_MathAPI_Init
000000000000ce50 g     F .text	0000000000000240 __utee_tcb_init
000000000000eac8 g     F .text	0000000000000088 mbedtls_mpi_add_mpi
0000000000009d34 g     F .text	0000000000000020 abort
0000000000010714 g     F .text	00000000000001b8 mbedtls_mpi_random
00000000000006f0 g     F .text	0000000000000030 __stack_chk_fail
0000000000008f74 g     F .text	000000000000002c __utee_check_out_annotation
000000000001cf28 g     O .bss	0000000000008000 ta_heap
000000000000b53c g     F .text	0000000000000150 TEE_BigIntInvMod
0000000000006374 g     F .text	0000000000000008 __GP11_TEE_DigestUpdate
0000000000009600 g     F .text	0000000000000158 __utee_call_elf_init_fn
0000000000002f40 g     F .text	00000000000000c4 __GP11_TEE_GetObjectInfo
0000000000000120 g     F .text	0000000000000004 TA_CloseSessionEntryPoint
0000000000009adc g     F .text	000000000000000c _utee_close_ta_session
000000000000bc64 g     F .text	0000000000000008 __GP11_TEE_BigIntInitFMMContext
0000000000007d8c g     F .text	0000000000000194 TEE_AsymmetricDecrypt
00000000000030b4 g     F .text	00000000000000c0 __GP11_TEE_GetObjectInfo1
0000000000003dbc g     F .text	00000000000000e4 TEE_OpenPersistentObject
000000000000eb50 g     F .text	000000000000008c mbedtls_mpi_sub_mpi
000000000001304c g     F .text	0000000000000070 consttime_memcmp
0000000000009a94 g     F .text	000000000000000c _utee_return
0000000000009aac g     F .text	000000000000000c __utee_panic
00000000000115a4 g     F .text	0000000000000048 mbedtls_ct_memcmp
000000000000d090 g     F .text	000000000000001c __tls_get_addr
0000000000000124 g     F .text	0000000000000068 TA_InvokeCommandEntryPoint
0000000000009758 g     F .text	0000000000000010 __utee_call_elf_fini_fn
00000000000128e8 g     F .text	0000000000000010 free_wipe
0000000000012f84 g     F .text	0000000000000064 mempool_alloc
0000000000009a88 g     F .text	000000000000000c _utee_panic
0000000000012900 g     F .text	000000000000002c raw_malloc_init_ctx
0000000000012fe8 g     F .text	0000000000000050 mempool_calloc
0000000000009d1c g     F .text	000000000000000c _utee_cryp_obj_generate_key
0000000000009d04 g     F .text	000000000000000c _utee_storage_obj_trunc
0000000000003b80 g     F .text	0000000000000094 TEE_CopyObjectAttributes
0000000000019530 g     O .data	0000000000000060 tee_props
0000000000009b0c g     F .text	000000000000000c _utee_unmask_cancellation
000000000000cb58 g     F .text	000000000000000c TEE_ResetPropertyEnumerator
0000000000012870 g     F .text	000000000000001c calloc
0000000000002b60 g     F .text	0000000000000124 TEE_Malloc
000000000000221c g     F .text	0000000000000088 TEE_CheckMemoryAccessRights
000000000000c988 g     F .text	00000000000000e8 TEE_GetPropertyAsUUID
0000000000009ab8 g     F .text	000000000000000c _utee_get_property
00000000000064e8 g     F .text	00000000000000a0 __GP11_TEE_DigestDoFinal
000000000000afa8 g     F .text	00000000000000b0 TEE_BigIntSetBit
000000000000e034 g     F .text	0000000000000068 mbedtls_mpi_lset
000000000000615c g     F .text	000000000000004c __GP11_TEE_SetOperationKey2
00000000000044b8 g     F .text	00000000000000c8 TEE_ReadObjectData
0000000000003248 g     F .text	0000000000000104 TEE_GetObjectBufferAttribute
0000000000000118 g     F .text	0000000000000008 TA_OpenSessionEntryPoint
0000000000004f48 g     F .text	0000000000000040 TEE_FreeOperation
000000000000d0ac g     F .text	00000000000000f0 dl_iterate_phdr
0000000000024f28 g       .bss	0000000000000000 __ftrace_buf_end
00000000000196b0 g     O .bss	0000000000000004 ta_param_types
000000000000f658 g     F .text	0000000000000074 mbedtls_mpi_div_int
0000000000002de4 g     F .text	0000000000000050 __utee_from_attr
0000000000010d24 g     F .text	00000000000000dc mbedtls_mpi_is_prime_ext
000000000000bbd0 g     F .text	0000000000000084 TEE_BigIntIsProbablePrime
000000000000ee70 g     F .text	00000000000000a8 mbedtls_mpi_mul_int
0000000000004068 g     F .text	0000000000000048 TEE_CloseAndDeletePersistentObject1
000000000000fb64 g     F .text	00000000000006cc mbedtls_mpi_exp_mod
0000000000011818 g     F .text	00000000000000bc mbedtls_mpi_safe_cond_assign
000000000000c268 g     F .text	000000000000025c TEE_GetPropertyAsString
00000000000119d0 g     F .text	00000000000000f8 mbedtls_mpi_lt_mpi_ct
00000000000077fc g     F .text	00000000000001d4 TEE_AEDecryptFinal
000000000000a660 g     F .text	0000000000000060 TEE_BigIntInit
000000000000a860 g     F .text	0000000000000060 __GP11_TEE_BigIntConvertToOctetString
000000000000b058 g     F .text	0000000000000050 TEE_BigIntAssign
0000000000008eac g     F .text	0000000000000064 __utee_check_outstring_annotation
00000000000029f8 g     F .text	0000000000000004 TEE_MemMove
0000000000011d44 g     F .text	0000000000000020 mbedtls_platform_zeroize
000000000000a6c8 g     F .text	00000000000000c8 TEE_BigIntConvertFromOctetString
0000000000009c5c g     F .text	000000000000000c _utee_authenc_dec_final
000000000000e668 g     F .text	000000000000009c mbedtls_mpi_cmp_abs
0000000000009cec g     F .text	000000000000000c _utee_storage_obj_read
0000000000006d10 g     F .text	00000000000000a4 TEE_MACInit
0000000000008098 g     F .text	000000000000016c TEE_AsymmetricSignDigest
0000000000001afc g     F .text	000000000000002c memchr
000000000000215c g     F .text	0000000000000060 TEE_UnmaskCancellation
0000000000002e84 g     F .text	00000000000000bc TEE_GetObjectInfo
000000000001115c g     F .text	0000000000000428 mbedtls_mpi_self_test
0000000000008e0c g     F .text	0000000000000064 __utee_check_gp11_outbuf_annotation
0000000000009d10 g     F .text	000000000000000c _utee_storage_obj_seek
0000000000007328 g     F .text	00000000000000e0 TEE_AEUpdate
0000000000003614 g     F .text	0000000000000090 TEE_FreeTransientObject
0000000000009b00 g     F .text	000000000000000c _utee_check_access_rights
0000000000002860 g     F .text	0000000000000178 __GP11_TEE_InvokeTACommand
000000000000e7d8 g     F .text	0000000000000074 mbedtls_mpi_cmp_int
000000000000d2d0 g     F .text	0000000000000124 _base64_dec
0000000000005cc0 g     F .text	000000000000002c __GP11_TEE_FreeOperation
0000000000009cc8 g     F .text	000000000000000c _utee_storage_reset_enum
000000000001175c g     F .text	00000000000000bc mbedtls_ct_base64_dec_value
0000000000008940 g     F .text	0000000000000058 rand
0000000000008fa0 g     F .text	0000000000000030 __utee_check_attr_in_annotation
0000000000009c44 g     F .text	000000000000000c _utee_authenc_update_payload
0000000000005cec g     F .text	0000000000000054 TEE_GetOperationInfo
000000000000b4a0 g     F .text	000000000000006c TEE_BigIntMod
000000000000f780 g     F .text	000000000000009c mbedtls_mpi_mod_int
0000000000008204 g     F .text	000000000000016c __GP11_TEE_AsymmetricSignDigest
000000000000e220 g     F .text	0000000000000078 mbedtls_mpi_read_binary_le
000000000000b2ec g     F .text	00000000000001b4 TEE_BigIntDiv
0000000000009bd8 g     F .text	000000000000000c _utee_cryp_obj_alloc
0000000000024f28 g       .bss	0000000000000000 __ftrace_buf_start
0000000000012e64 g     F .text	0000000000000058 strlcpy
00000000000116ac g     F .text	00000000000000b0 mbedtls_ct_base64_enc_char
000000000000dee0 g     F .text	00000000000000cc mbedtls_mpi_copy
0000000000008998 g     F .text	00000000000003a8 TEE_IsAlgorithmSupported
0000000000012638 g     F .text	0000000000000018 malloc_reset_stats
000000000000ca70 g     F .text	00000000000000e8 TEE_GetPropertyAsIdentity
0000000000001ab0 g     F .text	000000000000004c __vsprintf
000000000000c71c g     F .text	00000000000000e8 TEE_GetPropertyAsU64
0000000000009b3c g     F .text	000000000000000c _utee_set_ta_time
0000000000009ae8 g     F .text	000000000000000c _utee_invoke_ta_command
0000000000003174 g     F .text	0000000000000044 TEE_RestrictObjectUsage1
000000000001288c g     F .text	0000000000000018 realloc
000000000000dfac g     F .text	0000000000000088 mbedtls_mpi_swap
0000000000012ebc g     F .text	00000000000000c8 mempool_alloc_pool
000000000000b1d0 g     F .text	0000000000000114 TEE_BigIntMul
0000000000005f78 g     F .text	000000000000003c TEE_ResetOperation
00000000000128f8 g     F .text	0000000000000008 raw_malloc_get_ctx_size
000000000000e498 g     F .text	0000000000000110 mbedtls_mpi_shift_l
000000000000e704 g     F .text	00000000000000d4 mbedtls_mpi_cmp_mpi
0000000000002a10 g     F .text	0000000000000004 TEE_MemFill
0000000000012c64 g     F .text	0000000000000014 malloc_add_pool
0000000000006dbc g     F .text	00000000000000a0 TEE_MACUpdate
0000000000000848 g     F .text	0000000000000010 trace_get_level
000000000000e84c g     F .text	0000000000000120 mbedtls_mpi_add_abs
00000000000031b8 g     F .text	0000000000000090 TEE_RestrictObjectUsage
000000000000bc74 g     F .text	0000000000000010 TEE_BigIntFMMSizeInU32
000000000000c55c g     F .text	00000000000000d8 TEE_GetPropertyAsBool
0000000000012764 g     F .text	00000000000000f4 raw_realloc
000000000000bc54 g     F .text	0000000000000004 TEE_BigIntInitFMM
000000000000351c g     F .text	0000000000000028 TEE_CloseObject
0000000000009b90 g     F .text	000000000000000c _utee_cipher_init
0000000000009800 g     F .text	0000000000000288 __utee_entry
000000000000c634 g     F .text	00000000000000e8 TEE_GetPropertyAsU32
00000000000130bc g       .text	0000000000000000 __text_end
000000000000b68c g     F .text	0000000000000108 TEE_BigIntRelativePrime
000000000000f6cc g     F .text	00000000000000b4 mbedtls_mpi_mod_mpi
0000000000009bb4 g     F .text	000000000000000c _utee_cryp_obj_get_info
00000000000124d4 g     F .text	00000000000000d0 bpool
000000000000cb64 g     F .text	0000000000000048 TEE_AllocatePropertyEnumerator
0000000000009b48 g     F .text	000000000000000c _utee_cryp_state_alloc
00000000000020fc g     F .text	0000000000000060 TEE_GetCancellationFlag
0000000000003fec g     F .text	000000000000007c __GP11_TEE_CreatePersistentObject
0000000000010230 g     F .text	00000000000001d8 mbedtls_mpi_gcd
0000000000002af4 g     F .text	0000000000000044 TEE_SetTAPersistentTime
000000000000e31c g     F .text	00000000000000b8 mbedtls_mpi_write_binary_le
0000000000012e24 g     F .text	000000000000001c memset
0000000000012650 g     F .text	0000000000000084 raw_memalign
0000000000002a80 g     F .text	0000000000000074 TEE_GetTAPersistentTime
0000000000006100 g     F .text	000000000000003c __GP11_TEE_SetOperationKey
0000000000007728 g     F .text	00000000000000d4 __GP11_TEE_AEEncryptFinal
0000000000000354 g     F .text	0000000000000014 cmd_clean_res
0000000000000b54 g     F .text	0000000000000198 dhex_dump
0000000000003ea8 g     F .text	0000000000000144 TEE_CreatePersistentObject
00000000000021bc g     F .text	0000000000000060 TEE_MaskCancellation
00000000000071f8 g     F .text	000000000000009c TEE_AEUpdateAAD
0000000000004698 g     F .text	000000000000005c TEE_TruncateObjectData
0000000000009bcc g     F .text	000000000000000c _utee_cryp_obj_get_attr
0000000000003004 g     F .text	00000000000000b0 TEE_GetObjectInfo1
0000000000009ba8 g     F .text	000000000000000c _utee_cipher_final
000000000000082c g     F .text	000000000000001c trace_set_level
00000000000033e4 g     F .text	0000000000000138 TEE_GetObjectValueAttribute
0000000000005fb4 g     F .text	000000000000014c TEE_SetOperationKey
0000000000011624 g     F .text	000000000000001c mbedtls_ct_mpi_uint_lt
000000000000334c g     F .text	0000000000000098 __GP11_TEE_GetObjectBufferAttribute
0000000000009b60 g     F .text	000000000000000c _utee_cryp_state_free
0000000000012e40 g     F .text	0000000000000024 strcmp
0000000000009ad0 g     F .text	000000000000000c _utee_open_ta_session
000000000000a970 g     F .text	00000000000000bc TEE_BigIntConvertToS32
000000000000b0e0 g     F .text	000000000000000c TEE_BigIntSub
0000000000004814 g     F .text	0000000000000008 __GP11_TEE_SeekObjectData
00000000000006e8 g     F .text	0000000000000008 tahead_get_trace_level
0000000000009cd4 g     F .text	000000000000000c _utee_storage_start_enum
00000000000046fc g     F .text	0000000000000118 TEE_SeekObjectData
00000000000090b4 g     F .text	00000000000000b0 tee_map_zi
00000000000046f4 g     F .text	0000000000000008 __GP11_TEE_TruncateObjectData
000000000000fb60 g     F .text	0000000000000004 mbedtls_mpi_montred
00000000000128a4 g     F .text	000000000000001c memalign
00000000000115ec g     F .text	0000000000000010 mbedtls_ct_uint_mask
0000000000006a48 g     F .text	0000000000000218 TEE_CipherDoFinal
000000000000a6c0 g     F .text	0000000000000008 __GP11_TEE_BigIntInit
000000000000a8c0 g     F .text	00000000000000b0 TEE_BigIntConvertFromS32
000000000000ebdc g     F .text	0000000000000074 mbedtls_mpi_add_int
0000000000009c50 g     F .text	000000000000000c _utee_authenc_enc_final
0000000000012c78 g     F .text	0000000000000014 malloc_buffer_is_within_alloced
0000000000009be4 g     F .text	000000000000000c _utee_cryp_obj_close
0000000000008938 g     F .text	0000000000000008 __GP11_TEE_GenerateRandom
000000000000bc60 g     F .text	0000000000000004 TEE_BigIntInitFMMContext
0000000000009b18 g     F .text	000000000000000c _utee_mask_cancellation
000000000000018c g     F .text	00000000000001c8 cmd_process
00000000000196b8 g     O .bss	0000000000000008 __ta_no_share_malloc_ctx
0000000000009ca4 g     F .text	000000000000000c _utee_storage_obj_rename
000000000000438c g     F .text	000000000000012c __GP11_TEE_GetNextPersistentObject
0000000000004618 g     F .text	0000000000000078 TEE_WriteObjectData
00000000000041f8 g     F .text	0000000000000028 TEE_ResetPersistentObjectEnumerator
00000000000029d8 g     F .text	0000000000000008 __GP11_TEE_CheckMemoryAccessRights
000000000000b2e4 g     F .text	0000000000000008 TEE_BigIntSquare
0000000000009cf8 g     F .text	000000000000000c _utee_storage_obj_write
000000000000010c g     F .text	0000000000000008 TA_CreateEntryPoint
00000000000006d4 g     F .text	0000000000000014 __ta_entry
0000000000024f28 g     O .bss	0000000000000000 __ta_no_share_heap
0000000000009c38 g     F .text	000000000000000c _utee_authenc_update_aad
000000000000fb50 g     F .text	0000000000000008 mbedtls_mpi_montg_init
0000000000000e04 g     F .text	00000000000000cc snprintk
000000000000af34 g     F .text	0000000000000074 TEE_BigIntGetBitCount
0000000000009c08 g     F .text	000000000000000c _utee_cryp_obj_copy
0000000000007294 g     F .text	0000000000000094 __GP11_TEE_AEUpdateAAD
000000000000b524 g     F .text	000000000000000c TEE_BigIntMulMod
00000000000108cc g     F .text	0000000000000458 mbedtls_mpi_inv_mod
0000000000008fd0 g     F .text	0000000000000030 __utee_check_gp11_attr_in_annotation
0000000000008620 g     F .text	000000000000017c TEE_DeriveKey
00000000000196c0 g     O .bss	0000000000000040 ta_params
000000000000f124 g     F .text	0000000000000534 mbedtls_mpi_div_mpi
0000000000008f10 g     F .text	0000000000000064 __utee_check_gp11_outstring_annotation
000000000000e204 g     F .text	000000000000001c mbedtls_mpi_size
0000000000011dd4 g     F .text	00000000000002e4 bget
0000000000004580 g     F .text	0000000000000098 __GP11_TEE_ReadObjectData
00000000000035f8 g     F .text	000000000000001c TEE_AllocateTransientObject
0000000000006e5c g     F .text	0000000000000008 __GP11_TEE_MACUpdate
000000000000bca4 g     F .text	0000000000000018 __GP11_TEE_BigIntFMMContextSizeInU32
000000000000cbb0 g     F .text	0000000000000010 TEE_StartPropertyEnumerator
0000000000009b24 g     F .text	000000000000000c _utee_wait
000000000000e0c8 g     F .text	000000000000008c mbedtls_mpi_set_bit
0000000000002c8c g     F .text	0000000000000060 TEE_Free
0000000000010e00 g     F .text	0000000000000010 mbedtls_mpi_is_prime
0000000000002ddc g     F .text	0000000000000008 TEE_CacheInvalidate
0000000000009d98 g     F .text	0000000000000014 _assert_break
000000000000b50c g     F .text	000000000000000c TEE_BigIntAddMod
0000000000011670 g     F .text	000000000000003c mbedtls_ct_mpi_uint_cond_assign
000000000000bc58 g     F .text	0000000000000008 __GP11_TEE_BigIntInitFMM
0000000000009b30 g     F .text	000000000000000c _utee_get_time
000000000000cce8 g     F .text	0000000000000088 TEE_GetPropertyName
0000000000002dc4 g     F .text	0000000000000008 __GP11_TEE_Realloc
0000000000004f88 g     F .text	0000000000000d38 TEE_AllocateOperation
0000000000009bfc g     F .text	000000000000000c _utee_cryp_obj_populate
0000000000005ef0 g     F .text	0000000000000088 __GP11_TEE_GetOperationInfoMultiple
0000000000002e34 g     F .text	0000000000000050 __utee_from_gp11_attr
0000000000008918 g     F .text	0000000000000020 TEE_GenerateRandom
0000000000006588 g     F .text	00000000000001a4 TEE_DigestExtract
0000000000002a04 g     F .text	0000000000000004 TEE_MemCompare
0000000000009b9c g     F .text	000000000000000c _utee_cipher_update
0000000000000cec g     F .text	00000000000000c0 __vsnprintf
0000000000019700 g     O .bss	0000000000000010 __elf_phdr_info
00000000000041d0 g     F .text	0000000000000028 TEE_FreePersistentObjectEnumerator
0000000000002440 g     F .text	0000000000000154 TEE_OpenTASession
000000000000879c g     F .text	000000000000017c __GP11_TEE_DeriveKey
00000000000079d0 g     F .text	00000000000000b8 __GP11_TEE_AEDecryptFinal
0000000000001b44 g     F .text	0000000000000028 trace_ext_puts
000000000000c4c4 g     F .text	0000000000000098 __GP11_TEE_GetPropertyAsString
0000000000012ac8 g     F .text	0000000000000150 raw_malloc_buffer_is_within_alloced
0000000000001b6c g     F .text	0000000000000008 trace_ext_get_thread_id
0000000000012a48 g     F .text	0000000000000080 raw_malloc_buffer_overlaps_heap
00000000000040b0 g     F .text	000000000000002c TEE_CloseAndDeletePersistentObject
0000000000009c14 g     F .text	000000000000000c _utee_cryp_derive_key
000000000000dc00 g     F .text	000000000000006c mbedtls_mpi_free
0000000000006db4 g     F .text	0000000000000008 __GP11_TEE_MACInit
00000000000084c8 g     F .text	0000000000000158 __GP11_TEE_AsymmetricVerifyDigest
0000000000009bf0 g     F .text	000000000000000c _utee_cryp_obj_reset
0000000000002dcc g     F .text	0000000000000008 TEE_CacheClean
0000000000009ac4 g     F .text	000000000000000c _utee_get_property_name_to_index
00000000000126f4 g     F .text	0000000000000070 raw_calloc
000000000000d1b4 g     F .text	000000000000011c _base64_enc
00000000000118d4 g     F .text	00000000000000fc mbedtls_mpi_safe_cond_swap
0000000000009c2c g     F .text	000000000000000c _utee_authenc_init
0000000000003a88 g     F .text	00000000000000f8 TEE_CopyObjectAttributes1
0000000000004138 g     F .text	0000000000000008 __GP11_TEE_RenamePersistentObject
0000000000001b28 g     F .text	000000000000001c strlen
000000000000b968 g     F .text	0000000000000268 TEE_BigIntComputeExtendedGcd
0000000000009cb0 g     F .text	000000000000000c _utee_storage_alloc_enum
000000000000b794 g     F .text	00000000000001d4 TEE_BigIntExpMod
0000000000002a1c g     F .text	0000000000000028 TEE_GetSystemTime
0000000000009c74 g     F .text	000000000000000c _utee_asymm_verify
0000000000000000 g     O .ta_head	0000000000000020 ta_head
0000000000012140 g     F .text	00000000000002c4 brel
000000000000c804 g     F .text	00000000000000ec __GP11_TEE_GetPropertyAsBinaryBlock
000000000000e96c g     F .text	000000000000015c mbedtls_mpi_sub_abs
0000000000010408 g     F .text	0000000000000068 mbedtls_mpi_fill_random
0000000000003544 g     F .text	00000000000000b4 __GP11_TEE_AllocateTransientObject
00000000000029e0 g     F .text	000000000000000c TEE_SetInstanceData
0000000000007c18 g     F .text	0000000000000174 __GP11_TEE_AsymmetricEncrypt
0000000000009af4 g     F .text	000000000000000c _utee_get_cancellation_flag
000000000000f81c g     F .text	0000000000000270 mbedtls_mpi_write_string
00000000000128c0 g     F .text	0000000000000018 aligned_alloc
0000000000004270 g     F .text	000000000000011c TEE_GetNextPersistentObject
000000000000bc6c g     F .text	0000000000000008 TEE_BigIntInitFMMContext1
0000000000007118 g     F .text	000000000000000c __GP11_TEE_MACCompareFinal
0000000000004690 g     F .text	0000000000000008 __GP11_TEE_WriteObjectData
00000000000020d4 g     F .text	0000000000000028 TEE_CloseTASession
0000000000008370 g     F .text	0000000000000158 TEE_AsymmetricVerifyDigest
0000000000009c8c g     F .text	000000000000000c _utee_storage_obj_create
000000000000bc84 g     F .text	0000000000000018 __GP11_TEE_BigIntFMMSizeInU32
00000000000128d8 g     F .text	0000000000000010 free
0000000000000368 g     F .text	000000000000036c cmd_prepare_key
00000000000125a4 g     F .text	0000000000000094 bstats
0000000000006e64 g     F .text	0000000000000110 TEE_MACComputeFinal
000000000001cf20 g     O .bss	0000000000000008 mbedtls_mpi_mempool
0000000000009b84 g     F .text	000000000000000c _utee_hash_final



Disassembly of section .text:

0000000000000020 <memcpy>:
memcpy():
/home/ssysarch/Desktop/nick/jetpack_5/Jetson_Linux_R35.4.1_aarch64/Linux_for_Tegra/sources/tegra/optee-src/nv-optee/optee/optee_os/lib/libutils/isoc/newlib/memcpy.c:106
      20:	f1007c5f 	cmp	x2, #0x1f
      24:	54000629 	b.ls	e8 <memcpy+0xc8>  // b.plast
/home/ssysarch/Desktop/nick/jetpack_5/Jetson_Linux_R35.4.1_aarch64/Linux_for_Tegra/sources/tegra/optee-src/nv-optee/optee/optee_os/lib/libutils/isoc/newlib/memcpy.c:106 (discriminator 1)
      28:	aa000025 	orr	x5, x1, x0
      2c:	f24008a5 	ands	x5, x5, #0x7
      30:	54000641 	b.ne	f8 <memcpy+0xd8>  // b.any
      34:	d1008048 	sub	x8, x2, #0x20
/home/ssysarch/Desktop/nick/jetpack_5/Jetson_Linux_R35.4.1_aarch64/Linux_for_Tegra/sources/tegra/optee-src/nv-optee/optee/optee_os/lib/libutils/isoc/newlib/memcpy.c:108
      38:	aa0103e4 	mov	x4, x1
      3c:	927be908 	and	x8, x8, #0xffffffffffffffe0
/home/ssysarch/Desktop/nick/jetpack_5/Jetson_Linux_R35.4.1_aarch64/Linux_for_Tegra/sources/tegra/optee-src/nv-optee/optee/optee_os/lib/libutils/isoc/newlib/memcpy.c:107
      40:	aa0003e3 	mov	x3, x0
      44:	91008108 	add	x8, x8, #0x20
      48:	8b080007 	add	x7, x0, x8
      4c:	d503201f 	nop
/home/ssysarch/Desktop/nick/jetpack_5/Jetson_Linux_R35.4.1_aarch64/Linux_for_Tegra/sources/tegra/optee-src/nv-optee/optee/optee_os/lib/libutils/isoc/newlib/memcpy.c:112
      50:	f9400086 	ldr	x6, [x4]
      54:	f9000066 	str	x6, [x3]
/home/ssysarch/Desktop/nick/jetpack_5/Jetson_Linux_R35.4.1_aarch64/Linux_for_Tegra/sources/tegra/optee-src/nv-optee/optee/optee_os/lib/libutils/isoc/newlib/memcpy.c:113
      58:	91008084 	add	x4, x4, #0x20
      5c:	91008063 	add	x3, x3, #0x20
      60:	f85e8086 	ldur	x6, [x4, #-24]
      64:	f81e8066 	stur	x6, [x3, #-24]
/home/ssysarch/Desktop/nick/jetpack_5/Jetson_Linux_R35.4.1_aarch64/Linux_for_Tegra/sources/tegra/optee-src/nv-optee/optee/optee_os/lib/libutils/isoc/newlib/memcpy.c:114
      68:	f85f0086 	ldur	x6, [x4, #-16]
      6c:	f81f0066 	stur	x6, [x3, #-16]
/home/ssysarch/Desktop/nick/jetpack_5/Jetson_Linux_R35.4.1_aarch64/Linux_for_Tegra/sources/tegra/optee-src/nv-optee/optee/optee_os/lib/libutils/isoc/newlib/memcpy.c:111
      70:	eb0300ff 	cmp	x7, x3
/home/ssysarch/Desktop/nick/jetpack_5/Jetson_Linux_R35.4.1_aarch64/Linux_for_Tegra/sources/tegra/optee-src/nv-optee/optee/optee_os/lib/libutils/isoc/newlib/memcpy.c:115
      74:	f85f8086 	ldur	x6, [x4, #-8]
      78:	f81f8066 	stur	x6, [x3, #-8]
/home/ssysarch/Desktop/nick/jetpack_5/Jetson_Linux_R35.4.1_aarch64/Linux_for_Tegra/sources/tegra/optee-src/nv-optee/optee/optee_os/lib/libutils/isoc/newlib/memcpy.c:111
      7c:	54fffea1 	b.ne	50 <memcpy+0x30>  // b.any
      80:	8b080021 	add	x1, x1, x8
/home/ssysarch/Desktop/nick/jetpack_5/Jetson_Linux_R35.4.1_aarch64/Linux_for_Tegra/sources/tegra/optee-src/nv-optee/optee/optee_os/lib/libutils/isoc/newlib/memcpy.c:120
      84:	f27d045f 	tst	x2, #0x18
      88:	92401044 	and	x4, x2, #0x1f
      8c:	540003c0 	b.eq	104 <memcpy+0xe4>  // b.none
/home/ssysarch/Desktop/nick/jetpack_5/Jetson_Linux_R35.4.1_aarch64/Linux_for_Tegra/sources/tegra/optee-src/nv-optee/optee/optee_os/lib/libutils/isoc/newlib/memcpy.c:121
      90:	f8656826 	ldr	x6, [x1, x5]
      94:	f8256866 	str	x6, [x3, x5]
/home/ssysarch/Desktop/nick/jetpack_5/Jetson_Linux_R35.4.1_aarch64/Linux_for_Tegra/sources/tegra/optee-src/nv-optee/optee/optee_os/lib/libutils/isoc/newlib/memcpy.c:120
      98:	910020a5 	add	x5, x5, #0x8
      9c:	cb050086 	sub	x6, x4, x5
      a0:	f1001cdf 	cmp	x6, #0x7
      a4:	54ffff68 	b.hi	90 <memcpy+0x70>  // b.pmore
      a8:	d1002084 	sub	x4, x4, #0x8
      ac:	92400842 	and	x2, x2, #0x7
      b0:	927df084 	and	x4, x4, #0xfffffffffffffff8
/home/ssysarch/Desktop/nick/jetpack_5/Jetson_Linux_R35.4.1_aarch64/Linux_for_Tegra/sources/tegra/optee-src/nv-optee/optee/optee_os/lib/libutils/isoc/newlib/memcpy.c:130
      b4:	d1000446 	sub	x6, x2, #0x1
      b8:	91002084 	add	x4, x4, #0x8
      bc:	8b040063 	add	x3, x3, x4
      c0:	8b040021 	add	x1, x1, x4
      c4:	b4000102 	cbz	x2, e4 <memcpy+0xc4>
/home/ssysarch/Desktop/nick/jetpack_5/Jetson_Linux_R35.4.1_aarch64/Linux_for_Tegra/sources/tegra/optee-src/nv-optee/optee/optee_os/lib/libutils/isoc/newlib/memcpy.c:99
      c8:	d2800002 	mov	x2, #0x0                   	// #0
      cc:	d503201f 	nop
/home/ssysarch/Desktop/nick/jetpack_5/Jetson_Linux_R35.4.1_aarch64/Linux_for_Tegra/sources/tegra/optee-src/nv-optee/optee/optee_os/lib/libutils/isoc/newlib/memcpy.c:131
      d0:	38626825 	ldrb	w5, [x1, x2]
/home/ssysarch/Desktop/nick/jetpack_5/Jetson_Linux_R35.4.1_aarch64/Linux_for_Tegra/sources/tegra/optee-src/nv-optee/optee/optee_os/lib/libutils/isoc/newlib/memcpy.c:130
      d4:	eb0200df 	cmp	x6, x2
/home/ssysarch/Desktop/nick/jetpack_5/Jetson_Linux_R35.4.1_aarch64/Linux_for_Tegra/sources/tegra/optee-src/nv-optee/optee/optee_os/lib/libutils/isoc/newlib/memcpy.c:131
      d8:	38226865 	strb	w5, [x3, x2]
/home/ssysarch/Desktop/nick/jetpack_5/Jetson_Linux_R35.4.1_aarch64/Linux_for_Tegra/sources/tegra/optee-src/nv-optee/optee/optee_os/lib/libutils/isoc/newlib/memcpy.c:130
      dc:	91000442 	add	x2, x2, #0x1
      e0:	54ffff81 	b.ne	d0 <memcpy+0xb0>  // b.any
/home/ssysarch/Desktop/nick/jetpack_5/Jetson_Linux_R35.4.1_aarch64/Linux_for_Tegra/sources/tegra/optee-src/nv-optee/optee/optee_os/lib/libutils/isoc/newlib/memcpy.c:135
      e4:	d65f03c0 	ret
/home/ssysarch/Desktop/nick/jetpack_5/Jetson_Linux_R35.4.1_aarch64/Linux_for_Tegra/sources/tegra/optee-src/nv-optee/optee/optee_os/lib/libutils/isoc/newlib/memcpy.c:99
      e8:	aa0003e3 	mov	x3, x0
/home/ssysarch/Desktop/nick/jetpack_5/Jetson_Linux_R35.4.1_aarch64/Linux_for_Tegra/sources/tegra/optee-src/nv-optee/optee/optee_os/lib/libutils/isoc/newlib/memcpy.c:130
      ec:	d1000446 	sub	x6, x2, #0x1
      f0:	b5fffec2 	cbnz	x2, c8 <memcpy+0xa8>
/home/ssysarch/Desktop/nick/jetpack_5/Jetson_Linux_R35.4.1_aarch64/Linux_for_Tegra/sources/tegra/optee-src/nv-optee/optee/optee_os/lib/libutils/isoc/newlib/memcpy.c:135
      f4:	d65f03c0 	ret
/home/ssysarch/Desktop/nick/jetpack_5/Jetson_Linux_R35.4.1_aarch64/Linux_for_Tegra/sources/tegra/optee-src/nv-optee/optee/optee_os/lib/libutils/isoc/newlib/memcpy.c:130
      f8:	d1000446 	sub	x6, x2, #0x1
/home/ssysarch/Desktop/nick/jetpack_5/Jetson_Linux_R35.4.1_aarch64/Linux_for_Tegra/sources/tegra/optee-src/nv-optee/optee/optee_os/lib/libutils/isoc/newlib/memcpy.c:99
      fc:	aa0003e3 	mov	x3, x0
     100:	17fffff2 	b	c8 <memcpy+0xa8>
/home/ssysarch/Desktop/nick/jetpack_5/Jetson_Linux_R35.4.1_aarch64/Linux_for_Tegra/sources/tegra/optee-src/nv-optee/optee/optee_os/lib/libutils/isoc/newlib/memcpy.c:120
     104:	aa0403e2 	mov	x2, x4
     108:	17fffff9 	b	ec <memcpy+0xcc>

000000000000010c <TA_CreateEntryPoint>:
TA_CreateEntryPoint():
/home/ssysarch/Desktop/nick/jetpack_5/Jetson_Linux_R35.4.1_aarch64/Linux_for_Tegra/sources/tegra/optee-src/nv-optee/optee/optee_test/ta/aes_perf/ta_entry.c:21
     10c:	52800000 	mov	w0, #0x0                   	// #0
     110:	d65f03c0 	ret

0000000000000114 <TA_DestroyEntryPoint>:
TA_DestroyEntryPoint():
/home/ssysarch/Desktop/nick/jetpack_5/Jetson_Linux_R35.4.1_aarch64/Linux_for_Tegra/sources/tegra/optee-src/nv-optee/optee/optee_test/ta/aes_perf/ta_entry.c:26
     114:	d65f03c0 	ret

0000000000000118 <TA_OpenSessionEntryPoint>:
TA_OpenSessionEntryPoint():
/home/ssysarch/Desktop/nick/jetpack_5/Jetson_Linux_R35.4.1_aarch64/Linux_for_Tegra/sources/tegra/optee-src/nv-optee/optee/optee_test/ta/aes_perf/ta_entry.c:37
     118:	52800000 	mov	w0, #0x0                   	// #0
     11c:	d65f03c0 	ret

0000000000000120 <TA_CloseSessionEntryPoint>:
TA_CloseSessionEntryPoint():
/home/ssysarch/Desktop/nick/jetpack_5/Jetson_Linux_R35.4.1_aarch64/Linux_for_Tegra/sources/tegra/optee-src/nv-optee/optee/optee_test/ta/aes_perf/ta_entry.c:44
     120:	1400008d 	b	354 <cmd_clean_res>

0000000000000124 <TA_InvokeCommandEntryPoint>:
TA_InvokeCommandEntryPoint():
/home/ssysarch/Desktop/nick/jetpack_5/Jetson_Linux_R35.4.1_aarch64/Linux_for_Tegra/sources/tegra/optee-src/nv-optee/optee/optee_test/ta/aes_perf/ta_entry.c:51
     124:	2a0103e4 	mov	w4, w1
     128:	2a0203e0 	mov	w0, w2
     12c:	aa0303e1 	mov	x1, x3
/home/ssysarch/Desktop/nick/jetpack_5/Jetson_Linux_R35.4.1_aarch64/Linux_for_Tegra/sources/tegra/optee-src/nv-optee/optee/optee_test/ta/aes_perf/ta_entry.c:54
     130:	7100049f 	cmp	w4, #0x1
     134:	540000a0 	b.eq	148 <TA_InvokeCommandEntryPoint+0x24>  // b.none
     138:	7100089f 	cmp	w4, #0x2
     13c:	540000a0 	b.eq	150 <TA_InvokeCommandEntryPoint+0x2c>  // b.none
     140:	35000224 	cbnz	w4, 184 <TA_InvokeCommandEntryPoint+0x60>
/home/ssysarch/Desktop/nick/jetpack_5/Jetson_Linux_R35.4.1_aarch64/Linux_for_Tegra/sources/tegra/optee-src/nv-optee/optee/optee_test/ta/aes_perf/ta_entry.c:56
     144:	14000089 	b	368 <cmd_prepare_key>
/home/ssysarch/Desktop/nick/jetpack_5/Jetson_Linux_R35.4.1_aarch64/Linux_for_Tegra/sources/tegra/optee-src/nv-optee/optee/optee_test/ta/aes_perf/ta_entry.c:59
     148:	52800002 	mov	w2, #0x0                   	// #0
     14c:	14000010 	b	18c <cmd_process>
/home/ssysarch/Desktop/nick/jetpack_5/Jetson_Linux_R35.4.1_aarch64/Linux_for_Tegra/sources/tegra/optee-src/nv-optee/optee/optee_test/ta/aes_perf/ta_entry.c:51
     150:	a9bf7bfd 	stp	x29, x30, [sp, #-16]!
/home/ssysarch/Desktop/nick/jetpack_5/Jetson_Linux_R35.4.1_aarch64/Linux_for_Tegra/sources/tegra/optee-src/nv-optee/optee/optee_test/ta/aes_perf/ta_entry.c:64
     154:	52800023 	mov	w3, #0x1                   	// #1
     158:	52800022 	mov	w2, #0x1                   	// #1
/home/ssysarch/Desktop/nick/jetpack_5/Jetson_Linux_R35.4.1_aarch64/Linux_for_Tegra/sources/tegra/optee-src/nv-optee/optee/optee_test/ta/aes_perf/ta_entry.c:51
     15c:	910003fd 	mov	x29, sp
/home/ssysarch/Desktop/nick/jetpack_5/Jetson_Linux_R35.4.1_aarch64/Linux_for_Tegra/sources/tegra/optee-src/nv-optee/optee/optee_test/ta/aes_perf/ta_entry.c:64
     160:	52800801 	mov	w1, #0x40                  	// #64
     164:	f00000a4 	adrp	x4, 17000 <small_prime+0x140>
     168:	91061084 	add	x4, x4, #0x184
     16c:	f00000a0 	adrp	x0, 17000 <small_prime+0x140>
     170:	9106ec00 	add	x0, x0, #0x1bb
     174:	94000240 	bl	a74 <trace_printf>
/home/ssysarch/Desktop/nick/jetpack_5/Jetson_Linux_R35.4.1_aarch64/Linux_for_Tegra/sources/tegra/optee-src/nv-optee/optee/optee_test/ta/aes_perf/ta_entry.c:65
     178:	129ffea0 	mov	w0, #0xffff000a            	// #-65526
/home/ssysarch/Desktop/nick/jetpack_5/Jetson_Linux_R35.4.1_aarch64/Linux_for_Tegra/sources/tegra/optee-src/nv-optee/optee/optee_test/ta/aes_perf/ta_entry.c:71
     17c:	a8c17bfd 	ldp	x29, x30, [sp], #16
     180:	d65f03c0 	ret
/home/ssysarch/Desktop/nick/jetpack_5/Jetson_Linux_R35.4.1_aarch64/Linux_for_Tegra/sources/tegra/optee-src/nv-optee/optee/optee_test/ta/aes_perf/ta_entry.c:54
     184:	129fff20 	mov	w0, #0xffff0006            	// #-65530
/home/ssysarch/Desktop/nick/jetpack_5/Jetson_Linux_R35.4.1_aarch64/Linux_for_Tegra/sources/tegra/optee-src/nv-optee/optee/optee_test/ta/aes_perf/ta_entry.c:71
     188:	d65f03c0 	ret

000000000000018c <cmd_process>:
cmd_process():
/home/ssysarch/Desktop/nick/jetpack_5/Jetson_Linux_R35.4.1_aarch64/Linux_for_Tegra/sources/tegra/optee-src/nv-optee/optee/optee_test/ta/aes_perf/ta_aes_perf.c:86
     18c:	a9b87bfd 	stp	x29, x30, [sp, #-128]!
     190:	b00000c4 	adrp	x4, 19000 <_DYNAMIC>
/home/ssysarch/Desktop/nick/jetpack_5/Jetson_Linux_R35.4.1_aarch64/Linux_for_Tegra/sources/tegra/optee-src/nv-optee/optee/optee_test/ta/aes_perf/ta_aes_perf.c:103
     194:	7105dc1f 	cmp	w0, #0x177
/home/ssysarch/Desktop/nick/jetpack_5/Jetson_Linux_R35.4.1_aarch64/Linux_for_Tegra/sources/tegra/optee-src/nv-optee/optee/optee_test/ta/aes_perf/ta_aes_perf.c:86
     198:	910003fd 	mov	x29, sp
     19c:	a90153f3 	stp	x19, x20, [sp, #16]
     1a0:	aa0103f3 	mov	x19, x1
     1a4:	f9409881 	ldr	x1, [x4, #304]
     1a8:	a9025bf5 	stp	x21, x22, [sp, #32]
     1ac:	aa0403f6 	mov	x22, x4
     1b0:	f9400023 	ldr	x3, [x1]
     1b4:	f9003fe3 	str	x3, [sp, #120]
     1b8:	d2800003 	mov	x3, #0x0                   	// #0
     1bc:	a90363f7 	stp	x23, x24, [sp, #48]
     1c0:	a9046bf9 	stp	x25, x26, [sp, #64]
     1c4:	a90573fb 	stp	x27, x28, [sp, #80]
/home/ssysarch/Desktop/nick/jetpack_5/Jetson_Linux_R35.4.1_aarch64/Linux_for_Tegra/sources/tegra/optee-src/nv-optee/optee/optee_test/ta/aes_perf/ta_aes_perf.c:93
     1c8:	f9003bff 	str	xzr, [sp, #112]
/home/ssysarch/Desktop/nick/jetpack_5/Jetson_Linux_R35.4.1_aarch64/Linux_for_Tegra/sources/tegra/optee-src/nv-optee/optee/optee_test/ta/aes_perf/ta_aes_perf.c:103
     1cc:	54000ac1 	b.ne	324 <cmd_process+0x198>  // b.any
     1d0:	12001c42 	and	w2, w2, #0xff
/home/ssysarch/Desktop/nick/jetpack_5/Jetson_Linux_R35.4.1_aarch64/Linux_for_Tegra/sources/tegra/optee-src/nv-optee/optee/optee_test/ta/aes_perf/ta_aes_perf.c:106
     1d4:	34000162 	cbz	w2, 200 <cmd_process+0x74>
is_inbuf_a_secure_memref():
/home/ssysarch/Desktop/nick/jetpack_5/Jetson_Linux_R35.4.1_aarch64/Linux_for_Tegra/sources/tegra/optee-src/nv-optee/optee/optee_test/ta/aes_perf/ta_aes_perf.c:42
     1d8:	f9400261 	ldr	x1, [x19]
     1dc:	d2800022 	mov	x2, #0x1                   	// #1
     1e0:	528000a0 	mov	w0, #0x5                   	// #5
     1e4:	72a40000 	movk	w0, #0x2000, lsl #16
     1e8:	9400080d 	bl	221c <TEE_CheckMemoryAccessRights>
is_outbuf_a_secure_memref():
/home/ssysarch/Desktop/nick/jetpack_5/Jetson_Linux_R35.4.1_aarch64/Linux_for_Tegra/sources/tegra/optee-src/nv-optee/optee/optee_test/ta/aes_perf/ta_aes_perf.c:59
     1ec:	f9400a61 	ldr	x1, [x19, #16]
     1f0:	528000c0 	mov	w0, #0x6                   	// #6
     1f4:	72a40000 	movk	w0, #0x2000, lsl #16
     1f8:	d2800022 	mov	x2, #0x1                   	// #1
     1fc:	94000808 	bl	221c <TEE_CheckMemoryAccessRights>
cmd_process():
/home/ssysarch/Desktop/nick/jetpack_5/Jetson_Linux_R35.4.1_aarch64/Linux_for_Tegra/sources/tegra/optee-src/nv-optee/optee/optee_test/ta/aes_perf/ta_aes_perf.c:134 (discriminator 2)
     200:	a9407279 	ldp	x25, x28, [x19]
/home/ssysarch/Desktop/nick/jetpack_5/Jetson_Linux_R35.4.1_aarch64/Linux_for_Tegra/sources/tegra/optee-src/nv-optee/optee/optee_test/ta/aes_perf/ta_aes_perf.c:142 (discriminator 2)
     204:	b00000d8 	adrp	x24, 19000 <_DYNAMIC>
     208:	b9467302 	ldr	w2, [x24, #1648]
/home/ssysarch/Desktop/nick/jetpack_5/Jetson_Linux_R35.4.1_aarch64/Linux_for_Tegra/sources/tegra/optee-src/nv-optee/optee/optee_test/ta/aes_perf/ta_aes_perf.c:145 (discriminator 2)
     20c:	52810201 	mov	w1, #0x810                 	// #2064
     210:	72a80001 	movk	w1, #0x4000, lsl #16
/home/ssysarch/Desktop/nick/jetpack_5/Jetson_Linux_R35.4.1_aarch64/Linux_for_Tegra/sources/tegra/optee-src/nv-optee/optee/optee_test/ta/aes_perf/ta_aes_perf.c:150 (discriminator 2)
     214:	9119c318 	add	x24, x24, #0x670
/home/ssysarch/Desktop/nick/jetpack_5/Jetson_Linux_R35.4.1_aarch64/Linux_for_Tegra/sources/tegra/optee-src/nv-optee/optee/optee_test/ta/aes_perf/ta_aes_perf.c:138 (discriminator 2)
     218:	29445277 	ldp	w23, w20, [x19, #32]
/home/ssysarch/Desktop/nick/jetpack_5/Jetson_Linux_R35.4.1_aarch64/Linux_for_Tegra/sources/tegra/optee-src/nv-optee/optee/optee_test/ta/aes_perf/ta_aes_perf.c:136 (discriminator 2)
     21c:	a941027a 	ldp	x26, x0, [x19, #16]
/home/ssysarch/Desktop/nick/jetpack_5/Jetson_Linux_R35.4.1_aarch64/Linux_for_Tegra/sources/tegra/optee-src/nv-optee/optee/optee_test/ta/aes_perf/ta_aes_perf.c:140 (discriminator 2)
     220:	7100029f 	cmp	w20, #0x0
/home/ssysarch/Desktop/nick/jetpack_5/Jetson_Linux_R35.4.1_aarch64/Linux_for_Tegra/sources/tegra/optee-src/nv-optee/optee/optee_test/ta/aes_perf/ta_aes_perf.c:145 (discriminator 2)
     224:	f940d2d5 	ldr	x21, [x22, #416]
/home/ssysarch/Desktop/nick/jetpack_5/Jetson_Linux_R35.4.1_aarch64/Linux_for_Tegra/sources/tegra/optee-src/nv-optee/optee/optee_test/ta/aes_perf/ta_aes_perf.c:136 (discriminator 2)
     228:	f9003be0 	str	x0, [sp, #112]
/home/ssysarch/Desktop/nick/jetpack_5/Jetson_Linux_R35.4.1_aarch64/Linux_for_Tegra/sources/tegra/optee-src/nv-optee/optee/optee_test/ta/aes_perf/ta_aes_perf.c:145 (discriminator 2)
     22c:	f940b2c0 	ldr	x0, [x22, #352]
/home/ssysarch/Desktop/nick/jetpack_5/Jetson_Linux_R35.4.1_aarch64/Linux_for_Tegra/sources/tegra/optee-src/nv-optee/optee/optee_test/ta/aes_perf/ta_aes_perf.c:140 (discriminator 2)
     230:	1a9c1294 	csel	w20, w20, w28, ne  // ne = any
/home/ssysarch/Desktop/nick/jetpack_5/Jetson_Linux_R35.4.1_aarch64/Linux_for_Tegra/sources/tegra/optee-src/nv-optee/optee/optee_test/ta/aes_perf/ta_aes_perf.c:145 (discriminator 2)
     234:	6b01005f 	cmp	w2, w1
     238:	9a8002a0 	csel	x0, x21, x0, eq  // eq = none
/home/ssysarch/Desktop/nick/jetpack_5/Jetson_Linux_R35.4.1_aarch64/Linux_for_Tegra/sources/tegra/optee-src/nv-optee/optee/optee_test/ta/aes_perf/ta_aes_perf.c:149 (discriminator 2)
     23c:	93407e94 	sxtw	x20, w20
/home/ssysarch/Desktop/nick/jetpack_5/Jetson_Linux_R35.4.1_aarch64/Linux_for_Tegra/sources/tegra/optee-src/nv-optee/optee/optee_test/ta/aes_perf/ta_aes_perf.c:150 (discriminator 2)
     240:	9101c3f5 	add	x21, sp, #0x70
/home/ssysarch/Desktop/nick/jetpack_5/Jetson_Linux_R35.4.1_aarch64/Linux_for_Tegra/sources/tegra/optee-src/nv-optee/optee/optee_test/ta/aes_perf/ta_aes_perf.c:145 (discriminator 2)
     244:	f90033e0 	str	x0, [sp, #96]
/home/ssysarch/Desktop/nick/jetpack_5/Jetson_Linux_R35.4.1_aarch64/Linux_for_Tegra/sources/tegra/optee-src/nv-optee/optee/optee_test/ta/aes_perf/ta_aes_perf.c:147 (discriminator 2)
     248:	34000737 	cbz	w23, 32c <cmd_process+0x1a0>
/home/ssysarch/Desktop/nick/jetpack_5/Jetson_Linux_R35.4.1_aarch64/Linux_for_Tegra/sources/tegra/optee-src/nv-optee/optee/optee_test/ta/aes_perf/ta_aes_perf.c:149
     24c:	9ad40b85 	udiv	x5, x28, x20
     250:	5280001b 	mov	w27, #0x0                   	// #0
     254:	1400001f 	b	2d0 <cmd_process+0x144>
     258:	f90037e5 	str	x5, [sp, #104]
/home/ssysarch/Desktop/nick/jetpack_5/Jetson_Linux_R35.4.1_aarch64/Linux_for_Tegra/sources/tegra/optee-src/nv-optee/optee/optee_test/ta/aes_perf/ta_aes_perf.c:150
     25c:	aa1503e4 	mov	x4, x21
     260:	f9400700 	ldr	x0, [x24, #8]
     264:	aa1a03e3 	mov	x3, x26
     268:	f94033e5 	ldr	x5, [sp, #96]
     26c:	aa1403e2 	mov	x2, x20
     270:	aa1903e1 	mov	x1, x25
     274:	d63f00a0 	blr	x5
     278:	2a0003f3 	mov	w19, w0
/home/ssysarch/Desktop/nick/jetpack_5/Jetson_Linux_R35.4.1_aarch64/Linux_for_Tegra/sources/tegra/optee-src/nv-optee/optee/optee_test/ta/aes_perf/ta_aes_perf.c:151
     27c:	f94037e5 	ldr	x5, [sp, #104]
     280:	34000220 	cbz	w0, 2c4 <cmd_process+0x138>
/home/ssysarch/Desktop/nick/jetpack_5/Jetson_Linux_R35.4.1_aarch64/Linux_for_Tegra/sources/tegra/optee-src/nv-optee/optee/optee_test/ta/aes_perf/ta_aes_perf.c:151 (discriminator 1)
     284:	f00000a4 	adrp	x4, 17000 <small_prime+0x140>
     288:	91075884 	add	x4, x4, #0x1d6
     28c:	2a0003e5 	mov	w5, w0
     290:	52800023 	mov	w3, #0x1                   	// #1
     294:	52800062 	mov	w2, #0x3                   	// #3
     298:	528012e1 	mov	w1, #0x97                  	// #151
/home/ssysarch/Desktop/nick/jetpack_5/Jetson_Linux_R35.4.1_aarch64/Linux_for_Tegra/sources/tegra/optee-src/nv-optee/optee/optee_test/ta/aes_perf/ta_aes_perf.c:157 (discriminator 1)
     29c:	d00000a0 	adrp	x0, 16000 <__text_end+0x2f44>
     2a0:	9134f400 	add	x0, x0, #0xd3d
     2a4:	940001f4 	bl	a74 <trace_printf>
/home/ssysarch/Desktop/nick/jetpack_5/Jetson_Linux_R35.4.1_aarch64/Linux_for_Tegra/sources/tegra/optee-src/nv-optee/optee/optee_test/ta/aes_perf/ta_aes_perf.c:168
     2a8:	f9409ad6 	ldr	x22, [x22, #304]
     2ac:	f9403fe0 	ldr	x0, [sp, #120]
     2b0:	f94002c1 	ldr	x1, [x22]
     2b4:	eb010000 	subs	x0, x0, x1
     2b8:	d2800001 	mov	x1, #0x0                   	// #0
     2bc:	540003c0 	b.eq	334 <cmd_process+0x1a8>  // b.none
     2c0:	9400010c 	bl	6f0 <__stack_chk_fail>
/home/ssysarch/Desktop/nick/jetpack_5/Jetson_Linux_R35.4.1_aarch64/Linux_for_Tegra/sources/tegra/optee-src/nv-optee/optee/optee_test/ta/aes_perf/ta_aes_perf.c:152 (discriminator 2)
     2c4:	8b140339 	add	x25, x25, x20
/home/ssysarch/Desktop/nick/jetpack_5/Jetson_Linux_R35.4.1_aarch64/Linux_for_Tegra/sources/tegra/optee-src/nv-optee/optee/optee_test/ta/aes_perf/ta_aes_perf.c:153 (discriminator 2)
     2c8:	8b14035a 	add	x26, x26, x20
/home/ssysarch/Desktop/nick/jetpack_5/Jetson_Linux_R35.4.1_aarch64/Linux_for_Tegra/sources/tegra/optee-src/nv-optee/optee/optee_test/ta/aes_perf/ta_aes_perf.c:149 (discriminator 2)
     2cc:	1100077b 	add	w27, w27, #0x1
     2d0:	eb3b40bf 	cmp	x5, w27, uxtw
     2d4:	54fffc28 	b.hi	258 <cmd_process+0xcc>  // b.pmore
/home/ssysarch/Desktop/nick/jetpack_5/Jetson_Linux_R35.4.1_aarch64/Linux_for_Tegra/sources/tegra/optee-src/nv-optee/optee/optee_test/ta/aes_perf/ta_aes_perf.c:155
     2d8:	9b14f0a2 	msub	x2, x5, x20, x28
     2dc:	b4000202 	cbz	x2, 31c <cmd_process+0x190>
/home/ssysarch/Desktop/nick/jetpack_5/Jetson_Linux_R35.4.1_aarch64/Linux_for_Tegra/sources/tegra/optee-src/nv-optee/optee/optee_test/ta/aes_perf/ta_aes_perf.c:156
     2e0:	f9400700 	ldr	x0, [x24, #8]
     2e4:	aa1503e4 	mov	x4, x21
     2e8:	f94033e5 	ldr	x5, [sp, #96]
     2ec:	aa1a03e3 	mov	x3, x26
     2f0:	aa1903e1 	mov	x1, x25
     2f4:	d63f00a0 	blr	x5
     2f8:	2a0003f3 	mov	w19, w0
/home/ssysarch/Desktop/nick/jetpack_5/Jetson_Linux_R35.4.1_aarch64/Linux_for_Tegra/sources/tegra/optee-src/nv-optee/optee/optee_test/ta/aes_perf/ta_aes_perf.c:157
     2fc:	34000100 	cbz	w0, 31c <cmd_process+0x190>
/home/ssysarch/Desktop/nick/jetpack_5/Jetson_Linux_R35.4.1_aarch64/Linux_for_Tegra/sources/tegra/optee-src/nv-optee/optee/optee_test/ta/aes_perf/ta_aes_perf.c:157 (discriminator 1)
     300:	f00000a4 	adrp	x4, 17000 <small_prime+0x140>
     304:	91075884 	add	x4, x4, #0x1d6
     308:	2a0003e5 	mov	w5, w0
     30c:	52800023 	mov	w3, #0x1                   	// #1
     310:	52800062 	mov	w2, #0x3                   	// #3
     314:	528013a1 	mov	w1, #0x9d                  	// #157
     318:	17ffffe1 	b	29c <cmd_process+0x110>
/home/ssysarch/Desktop/nick/jetpack_5/Jetson_Linux_R35.4.1_aarch64/Linux_for_Tegra/sources/tegra/optee-src/nv-optee/optee/optee_test/ta/aes_perf/ta_aes_perf.c:147
     31c:	510006f7 	sub	w23, w23, #0x1
     320:	17ffffca 	b	248 <cmd_process+0xbc>
/home/ssysarch/Desktop/nick/jetpack_5/Jetson_Linux_R35.4.1_aarch64/Linux_for_Tegra/sources/tegra/optee-src/nv-optee/optee/optee_test/ta/aes_perf/ta_aes_perf.c:104
     324:	129fff33 	mov	w19, #0xffff0006            	// #-65530
     328:	17ffffe0 	b	2a8 <cmd_process+0x11c>
/home/ssysarch/Desktop/nick/jetpack_5/Jetson_Linux_R35.4.1_aarch64/Linux_for_Tegra/sources/tegra/optee-src/nv-optee/optee/optee_test/ta/aes_perf/ta_aes_perf.c:167
     32c:	52800013 	mov	w19, #0x0                   	// #0
     330:	17ffffde 	b	2a8 <cmd_process+0x11c>
/home/ssysarch/Desktop/nick/jetpack_5/Jetson_Linux_R35.4.1_aarch64/Linux_for_Tegra/sources/tegra/optee-src/nv-optee/optee/optee_test/ta/aes_perf/ta_aes_perf.c:168
     334:	2a1303e0 	mov	w0, w19
     338:	a94153f3 	ldp	x19, x20, [sp, #16]
     33c:	a9425bf5 	ldp	x21, x22, [sp, #32]
     340:	a94363f7 	ldp	x23, x24, [sp, #48]
     344:	a9446bf9 	ldp	x25, x26, [sp, #64]
     348:	a94573fb 	ldp	x27, x28, [sp, #80]
     34c:	a8c87bfd 	ldp	x29, x30, [sp], #128
     350:	d65f03c0 	ret

0000000000000354 <cmd_clean_res>:
cmd_clean_res():
/home/ssysarch/Desktop/nick/jetpack_5/Jetson_Linux_R35.4.1_aarch64/Linux_for_Tegra/sources/tegra/optee-src/nv-optee/optee/optee_test/ta/aes_perf/ta_aes_perf.c:289
     354:	b00000c0 	adrp	x0, 19000 <_DYNAMIC>
     358:	f9433c00 	ldr	x0, [x0, #1656]
     35c:	b4000040 	cbz	x0, 364 <cmd_clean_res+0x10>
/home/ssysarch/Desktop/nick/jetpack_5/Jetson_Linux_R35.4.1_aarch64/Linux_for_Tegra/sources/tegra/optee-src/nv-optee/optee/optee_test/ta/aes_perf/ta_aes_perf.c:290
     360:	140012fa 	b	4f48 <TEE_FreeOperation>
/home/ssysarch/Desktop/nick/jetpack_5/Jetson_Linux_R35.4.1_aarch64/Linux_for_Tegra/sources/tegra/optee-src/nv-optee/optee/optee_test/ta/aes_perf/ta_aes_perf.c:291
     364:	d65f03c0 	ret

0000000000000368 <cmd_prepare_key>:
cmd_prepare_key():
/home/ssysarch/Desktop/nick/jetpack_5/Jetson_Linux_R35.4.1_aarch64/Linux_for_Tegra/sources/tegra/optee-src/nv-optee/optee/optee_test/ta/aes_perf/ta_aes_perf.c:171
     368:	a9b87bfd 	stp	x29, x30, [sp, #-128]!
     36c:	b00000c2 	adrp	x2, 19000 <_DYNAMIC>
/home/ssysarch/Desktop/nick/jetpack_5/Jetson_Linux_R35.4.1_aarch64/Linux_for_Tegra/sources/tegra/optee-src/nv-optee/optee/optee_test/ta/aes_perf/ta_aes_perf.c:202
     370:	7100441f 	cmp	w0, #0x11
/home/ssysarch/Desktop/nick/jetpack_5/Jetson_Linux_R35.4.1_aarch64/Linux_for_Tegra/sources/tegra/optee-src/nv-optee/optee/optee_test/ta/aes_perf/ta_aes_perf.c:171
     374:	910003fd 	mov	x29, sp
     378:	f9409842 	ldr	x2, [x2, #304]
     37c:	a90153f3 	stp	x19, x20, [sp, #16]
     380:	f9400043 	ldr	x3, [x2]
     384:	f9003fe3 	str	x3, [sp, #120]
     388:	d2800003 	mov	x3, #0x0                   	// #0
     38c:	a9025bf5 	stp	x21, x22, [sp, #32]
     390:	a90363f7 	stp	x23, x24, [sp, #48]
     394:	f90023f9 	str	x25, [sp, #64]
/home/ssysarch/Desktop/nick/jetpack_5/Jetson_Linux_R35.4.1_aarch64/Linux_for_Tegra/sources/tegra/optee-src/nv-optee/optee/optee_test/ta/aes_perf/ta_aes_perf.c:174
     398:	a9057fff 	stp	xzr, xzr, [sp, #80]
/home/ssysarch/Desktop/nick/jetpack_5/Jetson_Linux_R35.4.1_aarch64/Linux_for_Tegra/sources/tegra/optee-src/nv-optee/optee/optee_test/ta/aes_perf/ta_aes_perf.c:175
     39c:	a9067fff 	stp	xzr, xzr, [sp, #96]
     3a0:	f9003bff 	str	xzr, [sp, #112]
/home/ssysarch/Desktop/nick/jetpack_5/Jetson_Linux_R35.4.1_aarch64/Linux_for_Tegra/sources/tegra/optee-src/nv-optee/optee/optee_test/ta/aes_perf/ta_aes_perf.c:202
     3a4:	54001861 	b.ne	6b0 <cmd_prepare_key+0x348>  // b.any
/home/ssysarch/Desktop/nick/jetpack_5/Jetson_Linux_R35.4.1_aarch64/Linux_for_Tegra/sources/tegra/optee-src/nv-optee/optee/optee_test/ta/aes_perf/ta_aes_perf.c:206
     3a8:	29405420 	ldp	w0, w21, [x1]
     3ac:	b9401021 	ldr	w1, [x1, #16]
/home/ssysarch/Desktop/nick/jetpack_5/Jetson_Linux_R35.4.1_aarch64/Linux_for_Tegra/sources/tegra/optee-src/nv-optee/optee/optee_test/ta/aes_perf/ta_aes_perf.c:205
     3b0:	7100001f 	cmp	w0, #0x0
     3b4:	1a9f07f6 	cset	w22, ne  // ne = any
/home/ssysarch/Desktop/nick/jetpack_5/Jetson_Linux_R35.4.1_aarch64/Linux_for_Tegra/sources/tegra/optee-src/nv-optee/optee/optee_test/ta/aes_perf/ta_aes_perf.c:209
     3b8:	7100103f 	cmp	w1, #0x4
     3bc:	540017a8 	b.hi	6b0 <cmd_prepare_key+0x348>  // b.pmore
     3c0:	d00000a0 	adrp	x0, 16000 <__text_end+0x2f44>
     3c4:	9134e000 	add	x0, x0, #0xd38
     3c8:	b00000d4 	adrp	x20, 19000 <_DYNAMIC>
     3cc:	38614800 	ldrb	w0, [x0, w1, uxtw]
     3d0:	10000061 	adr	x1, 3dc <cmd_prepare_key+0x74>
     3d4:	8b208820 	add	x0, x1, w0, sxtb #2
     3d8:	d61f0000 	br	x0
/home/ssysarch/Desktop/nick/jetpack_5/Jetson_Linux_R35.4.1_aarch64/Linux_for_Tegra/sources/tegra/optee-src/nv-optee/optee/optee_test/ta/aes_perf/ta_aes_perf.c:211
     3dc:	9119c280 	add	x0, x20, #0x670
     3e0:	52800201 	mov	w1, #0x10                  	// #16
     3e4:	72a20001 	movk	w1, #0x1000, lsl #16
     3e8:	b9067281 	str	w1, [x20, #1648]
/home/ssysarch/Desktop/nick/jetpack_5/Jetson_Linux_R35.4.1_aarch64/Linux_for_Tegra/sources/tegra/optee-src/nv-optee/optee/optee_test/ta/aes_perf/ta_aes_perf.c:212
     3ec:	b900101f 	str	wzr, [x0, #16]
/home/ssysarch/Desktop/nick/jetpack_5/Jetson_Linux_R35.4.1_aarch64/Linux_for_Tegra/sources/tegra/optee-src/nv-optee/optee/optee_test/ta/aes_perf/ta_aes_perf.c:207
     3f0:	2a1503f3 	mov	w19, w21
/home/ssysarch/Desktop/nick/jetpack_5/Jetson_Linux_R35.4.1_aarch64/Linux_for_Tegra/sources/tegra/optee-src/nv-optee/optee/optee_test/ta/aes_perf/ta_aes_perf.c:230
     3f4:	14000012 	b	43c <cmd_prepare_key+0xd4>
/home/ssysarch/Desktop/nick/jetpack_5/Jetson_Linux_R35.4.1_aarch64/Linux_for_Tegra/sources/tegra/optee-src/nv-optee/optee/optee_test/ta/aes_perf/ta_aes_perf.c:215
     3f8:	9119c280 	add	x0, x20, #0x670
     3fc:	52802201 	mov	w1, #0x110                 	// #272
/home/ssysarch/Desktop/nick/jetpack_5/Jetson_Linux_R35.4.1_aarch64/Linux_for_Tegra/sources/tegra/optee-src/nv-optee/optee/optee_test/ta/aes_perf/ta_aes_perf.c:219
     400:	72a20001 	movk	w1, #0x1000, lsl #16
/home/ssysarch/Desktop/nick/jetpack_5/Jetson_Linux_R35.4.1_aarch64/Linux_for_Tegra/sources/tegra/optee-src/nv-optee/optee/optee_test/ta/aes_perf/ta_aes_perf.c:228
     404:	b9067281 	str	w1, [x20, #1648]
/home/ssysarch/Desktop/nick/jetpack_5/Jetson_Linux_R35.4.1_aarch64/Linux_for_Tegra/sources/tegra/optee-src/nv-optee/optee/optee_test/ta/aes_perf/ta_aes_perf.c:229
     408:	52800021 	mov	w1, #0x1                   	// #1
     40c:	b9001001 	str	w1, [x0, #16]
     410:	17fffff8 	b	3f0 <cmd_prepare_key+0x88>
/home/ssysarch/Desktop/nick/jetpack_5/Jetson_Linux_R35.4.1_aarch64/Linux_for_Tegra/sources/tegra/optee-src/nv-optee/optee/optee_test/ta/aes_perf/ta_aes_perf.c:219
     414:	9119c280 	add	x0, x20, #0x670
     418:	52804201 	mov	w1, #0x210                 	// #528
     41c:	17fffff9 	b	400 <cmd_prepare_key+0x98>
/home/ssysarch/Desktop/nick/jetpack_5/Jetson_Linux_R35.4.1_aarch64/Linux_for_Tegra/sources/tegra/optee-src/nv-optee/optee/optee_test/ta/aes_perf/ta_aes_perf.c:223
     420:	9119c280 	add	x0, x20, #0x670
     424:	52808201 	mov	w1, #0x410                 	// #1040
     428:	72a20001 	movk	w1, #0x1000, lsl #16
/home/ssysarch/Desktop/nick/jetpack_5/Jetson_Linux_R35.4.1_aarch64/Linux_for_Tegra/sources/tegra/optee-src/nv-optee/optee/optee_test/ta/aes_perf/ta_aes_perf.c:225
     42c:	531f7ab3 	lsl	w19, w21, #1
/home/ssysarch/Desktop/nick/jetpack_5/Jetson_Linux_R35.4.1_aarch64/Linux_for_Tegra/sources/tegra/optee-src/nv-optee/optee/optee_test/ta/aes_perf/ta_aes_perf.c:223
     430:	b9067281 	str	w1, [x20, #1648]
/home/ssysarch/Desktop/nick/jetpack_5/Jetson_Linux_R35.4.1_aarch64/Linux_for_Tegra/sources/tegra/optee-src/nv-optee/optee/optee_test/ta/aes_perf/ta_aes_perf.c:224
     434:	52800021 	mov	w1, #0x1                   	// #1
     438:	b9001001 	str	w1, [x0, #16]
/home/ssysarch/Desktop/nick/jetpack_5/Jetson_Linux_R35.4.1_aarch64/Linux_for_Tegra/sources/tegra/optee-src/nv-optee/optee/optee_test/ta/aes_perf/ta_aes_perf.c:235
     43c:	97ffffc6 	bl	354 <cmd_clean_res>
/home/ssysarch/Desktop/nick/jetpack_5/Jetson_Linux_R35.4.1_aarch64/Linux_for_Tegra/sources/tegra/optee-src/nv-optee/optee/optee_test/ta/aes_perf/ta_aes_perf.c:237
     440:	9119c297 	add	x23, x20, #0x670
     444:	b9467281 	ldr	w1, [x20, #1648]
     448:	2a1303e3 	mov	w3, w19
     44c:	2a1603e2 	mov	w2, w22
     450:	910022e0 	add	x0, x23, #0x8
     454:	940012cd 	bl	4f88 <TEE_AllocateOperation>
     458:	2a0003f3 	mov	w19, w0
/home/ssysarch/Desktop/nick/jetpack_5/Jetson_Linux_R35.4.1_aarch64/Linux_for_Tegra/sources/tegra/optee-src/nv-optee/optee/optee_test/ta/aes_perf/ta_aes_perf.c:238
     45c:	340002e0 	cbz	w0, 4b8 <cmd_prepare_key+0x150>
/home/ssysarch/Desktop/nick/jetpack_5/Jetson_Linux_R35.4.1_aarch64/Linux_for_Tegra/sources/tegra/optee-src/nv-optee/optee/optee_test/ta/aes_perf/ta_aes_perf.c:238 (discriminator 1)
     460:	f00000a4 	adrp	x4, 17000 <small_prime+0x140>
     464:	9107f084 	add	x4, x4, #0x1fc
     468:	2a0003e5 	mov	w5, w0
     46c:	52800023 	mov	w3, #0x1                   	// #1
     470:	52800062 	mov	w2, #0x3                   	// #3
     474:	52801dc1 	mov	w1, #0xee                  	// #238
/home/ssysarch/Desktop/nick/jetpack_5/Jetson_Linux_R35.4.1_aarch64/Linux_for_Tegra/sources/tegra/optee-src/nv-optee/optee/optee_test/ta/aes_perf/ta_aes_perf.c:241 (discriminator 1)
     478:	d00000a0 	adrp	x0, 16000 <__text_end+0x2f44>
     47c:	9134f400 	add	x0, x0, #0xd3d
     480:	91003000 	add	x0, x0, #0xc
     484:	9400017c 	bl	a74 <trace_printf>
/home/ssysarch/Desktop/nick/jetpack_5/Jetson_Linux_R35.4.1_aarch64/Linux_for_Tegra/sources/tegra/optee-src/nv-optee/optee/optee_test/ta/aes_perf/ta_aes_perf.c:285
     488:	b00000c2 	adrp	x2, 19000 <_DYNAMIC>
     48c:	f9409842 	ldr	x2, [x2, #304]
     490:	f9403fe0 	ldr	x0, [sp, #120]
     494:	f9400041 	ldr	x1, [x2]
     498:	eb010000 	subs	x0, x0, x1
     49c:	d2800001 	mov	x1, #0x0                   	// #0
     4a0:	540010c0 	b.eq	6b8 <cmd_prepare_key+0x350>  // b.none
     4a4:	94000093 	bl	6f0 <__stack_chk_fail>
/home/ssysarch/Desktop/nick/jetpack_5/Jetson_Linux_R35.4.1_aarch64/Linux_for_Tegra/sources/tegra/optee-src/nv-optee/optee/optee_test/ta/aes_perf/ta_aes_perf.c:228
     4a8:	52810201 	mov	w1, #0x810                 	// #2064
     4ac:	72a80001 	movk	w1, #0x4000, lsl #16
     4b0:	9119c280 	add	x0, x20, #0x670
     4b4:	17ffffd4 	b	404 <cmd_prepare_key+0x9c>
/home/ssysarch/Desktop/nick/jetpack_5/Jetson_Linux_R35.4.1_aarch64/Linux_for_Tegra/sources/tegra/optee-src/nv-optee/optee/optee_test/ta/aes_perf/ta_aes_perf.c:240 (discriminator 2)
     4b8:	910143e2 	add	x2, sp, #0x50
     4bc:	2a1503e1 	mov	w1, w21
     4c0:	52800200 	mov	w0, #0x10                  	// #16
     4c4:	72b40000 	movk	w0, #0xa000, lsl #16
     4c8:	94000c4c 	bl	35f8 <TEE_AllocateTransientObject>
     4cc:	2a0003f3 	mov	w19, w0
/home/ssysarch/Desktop/nick/jetpack_5/Jetson_Linux_R35.4.1_aarch64/Linux_for_Tegra/sources/tegra/optee-src/nv-optee/optee/optee_test/ta/aes_perf/ta_aes_perf.c:241 (discriminator 2)
     4d0:	34000100 	cbz	w0, 4f0 <cmd_prepare_key+0x188>
/home/ssysarch/Desktop/nick/jetpack_5/Jetson_Linux_R35.4.1_aarch64/Linux_for_Tegra/sources/tegra/optee-src/nv-optee/optee/optee_test/ta/aes_perf/ta_aes_perf.c:241 (discriminator 1)
     4d4:	f00000a4 	adrp	x4, 17000 <small_prime+0x140>
     4d8:	91086884 	add	x4, x4, #0x21a
     4dc:	2a0003e5 	mov	w5, w0
     4e0:	52800023 	mov	w3, #0x1                   	// #1
     4e4:	52800062 	mov	w2, #0x3                   	// #3
     4e8:	52801e21 	mov	w1, #0xf1                  	// #241
     4ec:	17ffffe3 	b	478 <cmd_prepare_key+0x110>
/home/ssysarch/Desktop/nick/jetpack_5/Jetson_Linux_R35.4.1_aarch64/Linux_for_Tegra/sources/tegra/optee-src/nv-optee/optee/optee_test/ta/aes_perf/ta_aes_perf.c:243 (discriminator 2)
     4f0:	52b80000 	mov	w0, #0xc0000000            	// #-1073741824
/home/ssysarch/Desktop/nick/jetpack_5/Jetson_Linux_R35.4.1_aarch64/Linux_for_Tegra/sources/tegra/optee-src/nv-optee/optee/optee_test/ta/aes_perf/ta_aes_perf.c:244 (discriminator 2)
     4f4:	b00000d6 	adrp	x22, 19000 <_DYNAMIC>
     4f8:	911872d8 	add	x24, x22, #0x61c
/home/ssysarch/Desktop/nick/jetpack_5/Jetson_Linux_R35.4.1_aarch64/Linux_for_Tegra/sources/tegra/optee-src/nv-optee/optee/optee_test/ta/aes_perf/ta_aes_perf.c:243 (discriminator 2)
     4fc:	b90063e0 	str	w0, [sp, #96]
/home/ssysarch/Desktop/nick/jetpack_5/Jetson_Linux_R35.4.1_aarch64/Linux_for_Tegra/sources/tegra/optee-src/nv-optee/optee/optee_test/ta/aes_perf/ta_aes_perf.c:244 (discriminator 2)
     500:	91004300 	add	x0, x24, #0x10
     504:	f90037e0 	str	x0, [sp, #104]
/home/ssysarch/Desktop/nick/jetpack_5/Jetson_Linux_R35.4.1_aarch64/Linux_for_Tegra/sources/tegra/optee-src/nv-optee/optee/optee_test/ta/aes_perf/ta_aes_perf.c:245 (discriminator 2)
     508:	53037ea0 	lsr	w0, w21, #3
     50c:	f9003be0 	str	x0, [sp, #112]
/home/ssysarch/Desktop/nick/jetpack_5/Jetson_Linux_R35.4.1_aarch64/Linux_for_Tegra/sources/tegra/optee-src/nv-optee/optee/optee_test/ta/aes_perf/ta_aes_perf.c:247 (discriminator 2)
     510:	f9402be0 	ldr	x0, [sp, #80]
     514:	910183f9 	add	x25, sp, #0x60
     518:	aa1903e1 	mov	x1, x25
     51c:	52800022 	mov	w2, #0x1                   	// #1
     520:	94000c85 	bl	3734 <TEE_PopulateTransientObject>
     524:	2a0003f3 	mov	w19, w0
/home/ssysarch/Desktop/nick/jetpack_5/Jetson_Linux_R35.4.1_aarch64/Linux_for_Tegra/sources/tegra/optee-src/nv-optee/optee/optee_test/ta/aes_perf/ta_aes_perf.c:248 (discriminator 2)
     528:	34000100 	cbz	w0, 548 <cmd_prepare_key+0x1e0>
/home/ssysarch/Desktop/nick/jetpack_5/Jetson_Linux_R35.4.1_aarch64/Linux_for_Tegra/sources/tegra/optee-src/nv-optee/optee/optee_test/ta/aes_perf/ta_aes_perf.c:248 (discriminator 1)
     52c:	f00000a4 	adrp	x4, 17000 <small_prime+0x140>
     530:	9108f884 	add	x4, x4, #0x23e
     534:	2a0003e5 	mov	w5, w0
     538:	52800023 	mov	w3, #0x1                   	// #1
     53c:	52800062 	mov	w2, #0x3                   	// #3
     540:	52801f01 	mov	w1, #0xf8                  	// #248
     544:	17ffffcd 	b	478 <cmd_prepare_key+0x110>
/home/ssysarch/Desktop/nick/jetpack_5/Jetson_Linux_R35.4.1_aarch64/Linux_for_Tegra/sources/tegra/optee-src/nv-optee/optee/optee_test/ta/aes_perf/ta_aes_perf.c:250 (discriminator 2)
     548:	b9467281 	ldr	w1, [x20, #1648]
     54c:	52808200 	mov	w0, #0x410                 	// #1040
     550:	72a20000 	movk	w0, #0x1000, lsl #16
     554:	6b00003f 	cmp	w1, w0
     558:	540008a1 	b.ne	66c <cmd_prepare_key+0x304>  // b.any
/home/ssysarch/Desktop/nick/jetpack_5/Jetson_Linux_R35.4.1_aarch64/Linux_for_Tegra/sources/tegra/optee-src/nv-optee/optee/optee_test/ta/aes_perf/ta_aes_perf.c:251
     55c:	2a1503e1 	mov	w1, w21
     560:	910163e2 	add	x2, sp, #0x58
     564:	52800200 	mov	w0, #0x10                  	// #16
     568:	72b40000 	movk	w0, #0xa000, lsl #16
     56c:	94000c23 	bl	35f8 <TEE_AllocateTransientObject>
     570:	2a0003f5 	mov	w21, w0
/home/ssysarch/Desktop/nick/jetpack_5/Jetson_Linux_R35.4.1_aarch64/Linux_for_Tegra/sources/tegra/optee-src/nv-optee/optee/optee_test/ta/aes_perf/ta_aes_perf.c:253
     574:	340001a0 	cbz	w0, 5a8 <cmd_prepare_key+0x240>
/home/ssysarch/Desktop/nick/jetpack_5/Jetson_Linux_R35.4.1_aarch64/Linux_for_Tegra/sources/tegra/optee-src/nv-optee/optee/optee_test/ta/aes_perf/ta_aes_perf.c:253 (discriminator 1)
     578:	f00000a4 	adrp	x4, 17000 <small_prime+0x140>
     57c:	91086884 	add	x4, x4, #0x21a
     580:	2a0003e5 	mov	w5, w0
     584:	52800023 	mov	w3, #0x1                   	// #1
     588:	52800062 	mov	w2, #0x3                   	// #3
     58c:	52801fa1 	mov	w1, #0xfd                  	// #253
/home/ssysarch/Desktop/nick/jetpack_5/Jetson_Linux_R35.4.1_aarch64/Linux_for_Tegra/sources/tegra/optee-src/nv-optee/optee/optee_test/ta/aes_perf/ta_aes_perf.c:266 (discriminator 1)
     590:	d00000a0 	adrp	x0, 16000 <__text_end+0x2f44>
     594:	9134f400 	add	x0, x0, #0xd3d
     598:	91003000 	add	x0, x0, #0xc
     59c:	2a1503f3 	mov	w19, w21
     5a0:	94000135 	bl	a74 <trace_printf>
     5a4:	17ffffb9 	b	488 <cmd_prepare_key+0x120>
/home/ssysarch/Desktop/nick/jetpack_5/Jetson_Linux_R35.4.1_aarch64/Linux_for_Tegra/sources/tegra/optee-src/nv-optee/optee/optee_test/ta/aes_perf/ta_aes_perf.c:257 (discriminator 2)
     5a8:	f9402fe0 	ldr	x0, [sp, #88]
/home/ssysarch/Desktop/nick/jetpack_5/Jetson_Linux_R35.4.1_aarch64/Linux_for_Tegra/sources/tegra/optee-src/nv-optee/optee/optee_test/ta/aes_perf/ta_aes_perf.c:255 (discriminator 2)
     5ac:	9100c318 	add	x24, x24, #0x30
/home/ssysarch/Desktop/nick/jetpack_5/Jetson_Linux_R35.4.1_aarch64/Linux_for_Tegra/sources/tegra/optee-src/nv-optee/optee/optee_test/ta/aes_perf/ta_aes_perf.c:257 (discriminator 2)
     5b0:	aa1903e1 	mov	x1, x25
     5b4:	52800022 	mov	w2, #0x1                   	// #1
/home/ssysarch/Desktop/nick/jetpack_5/Jetson_Linux_R35.4.1_aarch64/Linux_for_Tegra/sources/tegra/optee-src/nv-optee/optee/optee_test/ta/aes_perf/ta_aes_perf.c:255 (discriminator 2)
     5b8:	f90037f8 	str	x24, [sp, #104]
/home/ssysarch/Desktop/nick/jetpack_5/Jetson_Linux_R35.4.1_aarch64/Linux_for_Tegra/sources/tegra/optee-src/nv-optee/optee/optee_test/ta/aes_perf/ta_aes_perf.c:257 (discriminator 2)
     5bc:	94000c5e 	bl	3734 <TEE_PopulateTransientObject>
     5c0:	2a0003f5 	mov	w21, w0
/home/ssysarch/Desktop/nick/jetpack_5/Jetson_Linux_R35.4.1_aarch64/Linux_for_Tegra/sources/tegra/optee-src/nv-optee/optee/optee_test/ta/aes_perf/ta_aes_perf.c:258 (discriminator 2)
     5c4:	34000100 	cbz	w0, 5e4 <cmd_prepare_key+0x27c>
/home/ssysarch/Desktop/nick/jetpack_5/Jetson_Linux_R35.4.1_aarch64/Linux_for_Tegra/sources/tegra/optee-src/nv-optee/optee/optee_test/ta/aes_perf/ta_aes_perf.c:258 (discriminator 1)
     5c8:	f00000a4 	adrp	x4, 17000 <small_prime+0x140>
     5cc:	9108f884 	add	x4, x4, #0x23e
     5d0:	2a0003e5 	mov	w5, w0
     5d4:	52800023 	mov	w3, #0x1                   	// #1
     5d8:	52800062 	mov	w2, #0x3                   	// #3
     5dc:	52802041 	mov	w1, #0x102                 	// #258
     5e0:	17ffffec 	b	590 <cmd_prepare_key+0x228>
/home/ssysarch/Desktop/nick/jetpack_5/Jetson_Linux_R35.4.1_aarch64/Linux_for_Tegra/sources/tegra/optee-src/nv-optee/optee/optee_test/ta/aes_perf/ta_aes_perf.c:260 (discriminator 2)
     5e4:	a9450be1 	ldp	x1, x2, [sp, #80]
     5e8:	f94006e0 	ldr	x0, [x23, #8]
     5ec:	940016d4 	bl	613c <TEE_SetOperationKey2>
     5f0:	2a0003f5 	mov	w21, w0
/home/ssysarch/Desktop/nick/jetpack_5/Jetson_Linux_R35.4.1_aarch64/Linux_for_Tegra/sources/tegra/optee-src/nv-optee/optee/optee_test/ta/aes_perf/ta_aes_perf.c:261 (discriminator 2)
     5f4:	34000100 	cbz	w0, 614 <cmd_prepare_key+0x2ac>
/home/ssysarch/Desktop/nick/jetpack_5/Jetson_Linux_R35.4.1_aarch64/Linux_for_Tegra/sources/tegra/optee-src/nv-optee/optee/optee_test/ta/aes_perf/ta_aes_perf.c:261 (discriminator 1)
     5f8:	f00000a4 	adrp	x4, 17000 <small_prime+0x140>
     5fc:	91098884 	add	x4, x4, #0x262
     600:	2a0003e5 	mov	w5, w0
     604:	52800023 	mov	w3, #0x1                   	// #1
     608:	52800062 	mov	w2, #0x3                   	// #3
     60c:	528020a1 	mov	w1, #0x105                 	// #261
     610:	17ffffe0 	b	590 <cmd_prepare_key+0x228>
/home/ssysarch/Desktop/nick/jetpack_5/Jetson_Linux_R35.4.1_aarch64/Linux_for_Tegra/sources/tegra/optee-src/nv-optee/optee/optee_test/ta/aes_perf/ta_aes_perf.c:263 (discriminator 2)
     614:	f9402fe0 	ldr	x0, [sp, #88]
     618:	94000bff 	bl	3614 <TEE_FreeTransientObject>
/home/ssysarch/Desktop/nick/jetpack_5/Jetson_Linux_R35.4.1_aarch64/Linux_for_Tegra/sources/tegra/optee-src/nv-optee/optee/optee_test/ta/aes_perf/ta_aes_perf.c:269 (discriminator 2)
     61c:	f9402be0 	ldr	x0, [sp, #80]
     620:	94000bfd 	bl	3614 <TEE_FreeTransientObject>
/home/ssysarch/Desktop/nick/jetpack_5/Jetson_Linux_R35.4.1_aarch64/Linux_for_Tegra/sources/tegra/optee-src/nv-optee/optee/optee_test/ta/aes_perf/ta_aes_perf.c:271 (discriminator 2)
     624:	9119c280 	add	x0, x20, #0x670
     628:	b9401000 	ldr	w0, [x0, #16]
     62c:	35000380 	cbnz	w0, 69c <cmd_prepare_key+0x334>
/home/ssysarch/Desktop/nick/jetpack_5/Jetson_Linux_R35.4.1_aarch64/Linux_for_Tegra/sources/tegra/optee-src/nv-optee/optee/optee_test/ta/aes_perf/ta_aes_perf.c:276
     630:	d2800002 	mov	x2, #0x0                   	// #0
/home/ssysarch/Desktop/nick/jetpack_5/Jetson_Linux_R35.4.1_aarch64/Linux_for_Tegra/sources/tegra/optee-src/nv-optee/optee/optee_test/ta/aes_perf/ta_aes_perf.c:275
     634:	d2800001 	mov	x1, #0x0                   	// #0
/home/ssysarch/Desktop/nick/jetpack_5/Jetson_Linux_R35.4.1_aarch64/Linux_for_Tegra/sources/tegra/optee-src/nv-optee/optee/optee_test/ta/aes_perf/ta_aes_perf.c:279
     638:	9119c280 	add	x0, x20, #0x670
     63c:	b9467284 	ldr	w4, [x20, #1648]
     640:	52810203 	mov	w3, #0x810                 	// #2064
     644:	72a80003 	movk	w3, #0x4000, lsl #16
     648:	6b03009f 	cmp	w4, w3
     64c:	f9400400 	ldr	x0, [x0, #8]
     650:	540002c1 	b.ne	6a8 <cmd_prepare_key+0x340>  // b.any
/home/ssysarch/Desktop/nick/jetpack_5/Jetson_Linux_R35.4.1_aarch64/Linux_for_Tegra/sources/tegra/optee-src/nv-optee/optee/optee_test/ta/aes_perf/ta_aes_perf.c:280
     654:	d2800005 	mov	x5, #0x0                   	// #0
     658:	d2800004 	mov	x4, #0x0                   	// #0
     65c:	52801003 	mov	w3, #0x80                  	// #128
     660:	94001ab1 	bl	7124 <TEE_AEInit>
     664:	2a0003f3 	mov	w19, w0
     668:	17ffff88 	b	488 <cmd_prepare_key+0x120>
/home/ssysarch/Desktop/nick/jetpack_5/Jetson_Linux_R35.4.1_aarch64/Linux_for_Tegra/sources/tegra/optee-src/nv-optee/optee/optee_test/ta/aes_perf/ta_aes_perf.c:265
     66c:	f94006e0 	ldr	x0, [x23, #8]
     670:	f9402be1 	ldr	x1, [sp, #80]
     674:	94001650 	bl	5fb4 <TEE_SetOperationKey>
     678:	2a0003f5 	mov	w21, w0
/home/ssysarch/Desktop/nick/jetpack_5/Jetson_Linux_R35.4.1_aarch64/Linux_for_Tegra/sources/tegra/optee-src/nv-optee/optee/optee_test/ta/aes_perf/ta_aes_perf.c:266
     67c:	34fffd00 	cbz	w0, 61c <cmd_prepare_key+0x2b4>
/home/ssysarch/Desktop/nick/jetpack_5/Jetson_Linux_R35.4.1_aarch64/Linux_for_Tegra/sources/tegra/optee-src/nv-optee/optee/optee_test/ta/aes_perf/ta_aes_perf.c:266 (discriminator 1)
     680:	f00000a4 	adrp	x4, 17000 <small_prime+0x140>
     684:	9109fc84 	add	x4, x4, #0x27f
     688:	2a0003e5 	mov	w5, w0
     68c:	52800023 	mov	w3, #0x1                   	// #1
     690:	52800062 	mov	w2, #0x3                   	// #3
     694:	52802141 	mov	w1, #0x10a                 	// #266
     698:	17ffffbe 	b	590 <cmd_prepare_key+0x228>
/home/ssysarch/Desktop/nick/jetpack_5/Jetson_Linux_R35.4.1_aarch64/Linux_for_Tegra/sources/tegra/optee-src/nv-optee/optee/optee_test/ta/aes_perf/ta_aes_perf.c:272
     69c:	911872c1 	add	x1, x22, #0x61c
/home/ssysarch/Desktop/nick/jetpack_5/Jetson_Linux_R35.4.1_aarch64/Linux_for_Tegra/sources/tegra/optee-src/nv-optee/optee/optee_test/ta/aes_perf/ta_aes_perf.c:273
     6a0:	d2800202 	mov	x2, #0x10                  	// #16
     6a4:	17ffffe5 	b	638 <cmd_prepare_key+0x2d0>
/home/ssysarch/Desktop/nick/jetpack_5/Jetson_Linux_R35.4.1_aarch64/Linux_for_Tegra/sources/tegra/optee-src/nv-optee/optee/optee_test/ta/aes_perf/ta_aes_perf.c:282
     6a8:	94001821 	bl	672c <TEE_CipherInit>
/home/ssysarch/Desktop/nick/jetpack_5/Jetson_Linux_R35.4.1_aarch64/Linux_for_Tegra/sources/tegra/optee-src/nv-optee/optee/optee_test/ta/aes_perf/ta_aes_perf.c:283
     6ac:	17ffff77 	b	488 <cmd_prepare_key+0x120>
/home/ssysarch/Desktop/nick/jetpack_5/Jetson_Linux_R35.4.1_aarch64/Linux_for_Tegra/sources/tegra/optee-src/nv-optee/optee/optee_test/ta/aes_perf/ta_aes_perf.c:209
     6b0:	129fff33 	mov	w19, #0xffff0006            	// #-65530
     6b4:	17ffff75 	b	488 <cmd_prepare_key+0x120>
/home/ssysarch/Desktop/nick/jetpack_5/Jetson_Linux_R35.4.1_aarch64/Linux_for_Tegra/sources/tegra/optee-src/nv-optee/optee/optee_test/ta/aes_perf/ta_aes_perf.c:285
     6b8:	2a1303e0 	mov	w0, w19
     6bc:	a94153f3 	ldp	x19, x20, [sp, #16]
     6c0:	a9425bf5 	ldp	x21, x22, [sp, #32]
     6c4:	a94363f7 	ldp	x23, x24, [sp, #48]
     6c8:	f94023f9 	ldr	x25, [sp, #64]
     6cc:	a8c87bfd 	ldp	x29, x30, [sp], #128
     6d0:	d65f03c0 	ret

00000000000006d4 <__ta_entry>:
__ta_entry():
/home/ssysarch/Desktop/nick/jetpack_5/Jetson_Linux_R35.4.1_aarch64/Linux_for_Tegra/sources/tegra/optee-src/nv-optee/optee/build/t234/export-ta_arm64/src/user_ta_header.c:51
     6d4:	a9bf7bfd 	stp	x29, x30, [sp, #-16]!
     6d8:	910003fd 	mov	x29, sp
/home/ssysarch/Desktop/nick/jetpack_5/Jetson_Linux_R35.4.1_aarch64/Linux_for_Tegra/sources/tegra/optee-src/nv-optee/optee/build/t234/export-ta_arm64/src/user_ta_header.c:70
     6dc:	94002449 	bl	9800 <__utee_entry>
/home/ssysarch/Desktop/nick/jetpack_5/Jetson_Linux_R35.4.1_aarch64/Linux_for_Tegra/sources/tegra/optee-src/nv-optee/optee/build/t234/export-ta_arm64/src/user_ta_header.c:81
     6e0:	2a0003e0 	mov	w0, w0
     6e4:	940024ec 	bl	9a94 <_utee_return>

00000000000006e8 <tahead_get_trace_level>:
tahead_get_trace_level():
/home/ssysarch/Desktop/nick/jetpack_5/Jetson_Linux_R35.4.1_aarch64/Linux_for_Tegra/sources/tegra/optee-src/nv-optee/optee/build/t234/export-ta_arm64/src/user_ta_header.c:193
     6e8:	52800080 	mov	w0, #0x4                   	// #4
     6ec:	d65f03c0 	ret

00000000000006f0 <__stack_chk_fail>:
__stack_chk_fail():
/home/ssysarch/Desktop/nick/jetpack_5/Jetson_Linux_R35.4.1_aarch64/Linux_for_Tegra/sources/tegra/optee-src/nv-optee/optee/optee_os/lib/libutils/isoc/stack_check.c:24
     6f0:	a9bf7bfd 	stp	x29, x30, [sp, #-16]!
/home/ssysarch/Desktop/nick/jetpack_5/Jetson_Linux_R35.4.1_aarch64/Linux_for_Tegra/sources/tegra/optee-src/nv-optee/optee/optee_os/lib/libutils/isoc/stack_check.c:25
     6f4:	f00000a4 	adrp	x4, 17000 <small_prime+0x140>
     6f8:	910e0084 	add	x4, x4, #0x380
/home/ssysarch/Desktop/nick/jetpack_5/Jetson_Linux_R35.4.1_aarch64/Linux_for_Tegra/sources/tegra/optee-src/nv-optee/optee/optee_os/lib/libutils/isoc/stack_check.c:24
     6fc:	910003fd 	mov	x29, sp
/home/ssysarch/Desktop/nick/jetpack_5/Jetson_Linux_R35.4.1_aarch64/Linux_for_Tegra/sources/tegra/optee-src/nv-optee/optee/optee_os/lib/libutils/isoc/stack_check.c:25
     700:	52800023 	mov	w3, #0x1                   	// #1
     704:	52800022 	mov	w2, #0x1                   	// #1
     708:	52800001 	mov	w1, #0x0                   	// #0
     70c:	d2800000 	mov	x0, #0x0                   	// #0
     710:	940000d9 	bl	a74 <trace_printf>
/home/ssysarch/Desktop/nick/jetpack_5/Jetson_Linux_R35.4.1_aarch64/Linux_for_Tegra/sources/tegra/optee-src/nv-optee/optee/optee_os/lib/libutils/isoc/stack_check.c:27 (discriminator 1)
     714:	1299fe00 	mov	w0, #0xffff300f            	// #-53233
     718:	940024dc 	bl	9a88 <_utee_panic>
/home/ssysarch/Desktop/nick/jetpack_5/Jetson_Linux_R35.4.1_aarch64/Linux_for_Tegra/sources/tegra/optee-src/nv-optee/optee/optee_os/lib/libutils/isoc/stack_check.c:26 (discriminator 1)
     71c:	17fffffe 	b	714 <__stack_chk_fail+0x24>

0000000000000720 <append>:
append():
/home/ssysarch/Desktop/nick/jetpack_5/Jetson_Linux_R35.4.1_aarch64/Linux_for_Tegra/sources/tegra/optee-src/nv-optee/optee/optee_os/lib/libutils/ext/trace.c:211
     720:	a9ad7bfd 	stp	x29, x30, [sp, #-304]!
     724:	910003fd 	mov	x29, sp
     728:	a9100fe2 	stp	x2, x3, [sp, #256]
     72c:	b00000c2 	adrp	x2, 19000 <_DYNAMIC>
     730:	f9409842 	ldr	x2, [x2, #304]
     734:	a90153f3 	stp	x19, x20, [sp, #16]
     738:	aa0003f3 	mov	x19, x0
     73c:	3d8023e0 	str	q0, [sp, #128]
     740:	3d8027e1 	str	q1, [sp, #144]
     744:	3d802be2 	str	q2, [sp, #160]
     748:	3d802fe3 	str	q3, [sp, #176]
     74c:	3d8033e4 	str	q4, [sp, #192]
     750:	3d8037e5 	str	q5, [sp, #208]
     754:	3d803be6 	str	q6, [sp, #224]
     758:	3d803fe7 	str	q7, [sp, #240]
     75c:	a91117e4 	stp	x4, x5, [sp, #272]
     760:	a9121fe6 	stp	x6, x7, [sp, #288]
     764:	f9400040 	ldr	x0, [x2]
     768:	f9003fe0 	str	x0, [sp, #120]
     76c:	d2800000 	mov	x0, #0x0                   	// #0
     770:	f90013f5 	str	x21, [sp, #32]
/home/ssysarch/Desktop/nick/jetpack_5/Jetson_Linux_R35.4.1_aarch64/Linux_for_Tegra/sources/tegra/optee-src/nv-optee/optee/optee_os/lib/libutils/ext/trace.c:216
     774:	f9408260 	ldr	x0, [x19, #256]
/home/ssysarch/Desktop/nick/jetpack_5/Jetson_Linux_R35.4.1_aarch64/Linux_for_Tegra/sources/tegra/optee-src/nv-optee/optee/optee_os/lib/libutils/ext/trace.c:211
     778:	aa0103f5 	mov	x21, x1
/home/ssysarch/Desktop/nick/jetpack_5/Jetson_Linux_R35.4.1_aarch64/Linux_for_Tegra/sources/tegra/optee-src/nv-optee/optee/optee_os/lib/libutils/ext/trace.c:216
     77c:	b5000040 	cbnz	x0, 784 <append+0x64>
/home/ssysarch/Desktop/nick/jetpack_5/Jetson_Linux_R35.4.1_aarch64/Linux_for_Tegra/sources/tegra/optee-src/nv-optee/optee/optee_os/lib/libutils/ext/trace.c:217
     780:	f9008273 	str	x19, [x19, #256]
/home/ssysarch/Desktop/nick/jetpack_5/Jetson_Linux_R35.4.1_aarch64/Linux_for_Tegra/sources/tegra/optee-src/nv-optee/optee/optee_os/lib/libutils/ext/trace.c:219
     784:	9104c3e0 	add	x0, sp, #0x130
/home/ssysarch/Desktop/nick/jetpack_5/Jetson_Linux_R35.4.1_aarch64/Linux_for_Tegra/sources/tegra/optee-src/nv-optee/optee/optee_os/lib/libutils/ext/trace.c:220
     788:	9100c3e3 	add	x3, sp, #0x30
/home/ssysarch/Desktop/nick/jetpack_5/Jetson_Linux_R35.4.1_aarch64/Linux_for_Tegra/sources/tegra/optee-src/nv-optee/optee/optee_os/lib/libutils/ext/trace.c:219
     78c:	a90583e0 	stp	x0, x0, [sp, #88]
     790:	910403e0 	add	x0, sp, #0x100
/home/ssysarch/Desktop/nick/jetpack_5/Jetson_Linux_R35.4.1_aarch64/Linux_for_Tegra/sources/tegra/optee-src/nv-optee/optee/optee_os/lib/libutils/ext/trace.c:220
     794:	910163e1 	add	x1, sp, #0x58
/home/ssysarch/Desktop/nick/jetpack_5/Jetson_Linux_R35.4.1_aarch64/Linux_for_Tegra/sources/tegra/optee-src/nv-optee/optee/optee_os/lib/libutils/ext/trace.c:219
     798:	f90037e0 	str	x0, [sp, #104]
     79c:	128005e0 	mov	w0, #0xffffffd0            	// #-48
     7a0:	b90073e0 	str	w0, [sp, #112]
     7a4:	12800fe0 	mov	w0, #0xffffff80            	// #-128
/home/ssysarch/Desktop/nick/jetpack_5/Jetson_Linux_R35.4.1_aarch64/Linux_for_Tegra/sources/tegra/optee-src/nv-optee/optee/optee_os/lib/libutils/ext/trace.c:218
     7a8:	f9408274 	ldr	x20, [x19, #256]
/home/ssysarch/Desktop/nick/jetpack_5/Jetson_Linux_R35.4.1_aarch64/Linux_for_Tegra/sources/tegra/optee-src/nv-optee/optee/optee_os/lib/libutils/ext/trace.c:220
     7ac:	d2800402 	mov	x2, #0x20                  	// #32
/home/ssysarch/Desktop/nick/jetpack_5/Jetson_Linux_R35.4.1_aarch64/Linux_for_Tegra/sources/tegra/optee-src/nv-optee/optee/optee_os/lib/libutils/ext/trace.c:219
     7b0:	b90077e0 	str	w0, [sp, #116]
/home/ssysarch/Desktop/nick/jetpack_5/Jetson_Linux_R35.4.1_aarch64/Linux_for_Tegra/sources/tegra/optee-src/nv-optee/optee/optee_os/lib/libutils/ext/trace.c:220
     7b4:	aa0303e0 	mov	x0, x3
     7b8:	97fffe1a 	bl	20 <memcpy>
     7bc:	aa0003e3 	mov	x3, x0
     7c0:	f9408260 	ldr	x0, [x19, #256]
/home/ssysarch/Desktop/nick/jetpack_5/Jetson_Linux_R35.4.1_aarch64/Linux_for_Tegra/sources/tegra/optee-src/nv-optee/optee/optee_os/lib/libutils/ext/trace.c:218
     7c4:	4b140274 	sub	w20, w19, w20
     7c8:	11040294 	add	w20, w20, #0x100
/home/ssysarch/Desktop/nick/jetpack_5/Jetson_Linux_R35.4.1_aarch64/Linux_for_Tegra/sources/tegra/optee-src/nv-optee/optee/optee_os/lib/libutils/ext/trace.c:220
     7cc:	aa1503e2 	mov	x2, x21
     7d0:	93407e81 	sxtw	x1, w20
     7d4:	94000176 	bl	dac <vsnprintk>
/home/ssysarch/Desktop/nick/jetpack_5/Jetson_Linux_R35.4.1_aarch64/Linux_for_Tegra/sources/tegra/optee-src/nv-optee/optee/optee_os/lib/libutils/ext/trace.c:222
     7d8:	37f801e0 	tbnz	w0, #31, 814 <append+0xf4>
/home/ssysarch/Desktop/nick/jetpack_5/Jetson_Linux_R35.4.1_aarch64/Linux_for_Tegra/sources/tegra/optee-src/nv-optee/optee/optee_os/lib/libutils/ext/trace.c:226
     7dc:	6b00029f 	cmp	w20, w0
     7e0:	540001ad 	b.le	814 <append+0xf4>
/home/ssysarch/Desktop/nick/jetpack_5/Jetson_Linux_R35.4.1_aarch64/Linux_for_Tegra/sources/tegra/optee-src/nv-optee/optee/optee_os/lib/libutils/ext/trace.c:230
     7e4:	f9408261 	ldr	x1, [x19, #256]
     7e8:	8b20c020 	add	x0, x1, w0, sxtw
     7ec:	f9008260 	str	x0, [x19, #256]
/home/ssysarch/Desktop/nick/jetpack_5/Jetson_Linux_R35.4.1_aarch64/Linux_for_Tegra/sources/tegra/optee-src/nv-optee/optee/optee_os/lib/libutils/ext/trace.c:231
     7f0:	52800020 	mov	w0, #0x1                   	// #1
/home/ssysarch/Desktop/nick/jetpack_5/Jetson_Linux_R35.4.1_aarch64/Linux_for_Tegra/sources/tegra/optee-src/nv-optee/optee/optee_os/lib/libutils/ext/trace.c:232
     7f4:	b00000c2 	adrp	x2, 19000 <_DYNAMIC>
     7f8:	f9409842 	ldr	x2, [x2, #304]
     7fc:	f9403fe1 	ldr	x1, [sp, #120]
     800:	f9400043 	ldr	x3, [x2]
     804:	eb030021 	subs	x1, x1, x3
     808:	d2800003 	mov	x3, #0x0                   	// #0
     80c:	54000080 	b.eq	81c <append+0xfc>  // b.none
     810:	97ffffb8 	bl	6f0 <__stack_chk_fail>
/home/ssysarch/Desktop/nick/jetpack_5/Jetson_Linux_R35.4.1_aarch64/Linux_for_Tegra/sources/tegra/optee-src/nv-optee/optee/optee_os/lib/libutils/ext/trace.c:224
     814:	52800000 	mov	w0, #0x0                   	// #0
     818:	17fffff7 	b	7f4 <append+0xd4>
/home/ssysarch/Desktop/nick/jetpack_5/Jetson_Linux_R35.4.1_aarch64/Linux_for_Tegra/sources/tegra/optee-src/nv-optee/optee/optee_os/lib/libutils/ext/trace.c:232
     81c:	a94153f3 	ldp	x19, x20, [sp, #16]
     820:	f94013f5 	ldr	x21, [sp, #32]
     824:	a8d37bfd 	ldp	x29, x30, [sp], #304
     828:	d65f03c0 	ret

000000000000082c <trace_set_level>:
trace_set_level():
/home/ssysarch/Desktop/nick/jetpack_5/Jetson_Linux_R35.4.1_aarch64/Linux_for_Tegra/sources/tegra/optee-src/nv-optee/optee/optee_os/lib/libutils/ext/trace.c:28
     82c:	7100141f 	cmp	w0, #0x5
     830:	52800081 	mov	w1, #0x4                   	// #4
     834:	1a813000 	csel	w0, w0, w1, cc  // cc = lo, ul, last
     838:	b00000c1 	adrp	x1, 19000 <_DYNAMIC>
     83c:	f940a821 	ldr	x1, [x1, #336]
     840:	b9000020 	str	w0, [x1]
/home/ssysarch/Desktop/nick/jetpack_5/Jetson_Linux_R35.4.1_aarch64/Linux_for_Tegra/sources/tegra/optee-src/nv-optee/optee/optee_os/lib/libutils/ext/trace.c:29
     844:	d65f03c0 	ret

0000000000000848 <trace_get_level>:
trace_get_level():
/home/ssysarch/Desktop/nick/jetpack_5/Jetson_Linux_R35.4.1_aarch64/Linux_for_Tegra/sources/tegra/optee-src/nv-optee/optee/optee_os/lib/libutils/ext/trace.c:33
     848:	b00000c0 	adrp	x0, 19000 <_DYNAMIC>
/home/ssysarch/Desktop/nick/jetpack_5/Jetson_Linux_R35.4.1_aarch64/Linux_for_Tegra/sources/tegra/optee-src/nv-optee/optee/optee_os/lib/libutils/ext/trace.c:34
     84c:	f940a800 	ldr	x0, [x0, #336]
     850:	b9400000 	ldr	w0, [x0]
     854:	d65f03c0 	ret

0000000000000858 <trace_vprintf>:
trace_vprintf():
/home/ssysarch/Desktop/nick/jetpack_5/Jetson_Linux_R35.4.1_aarch64/Linux_for_Tegra/sources/tegra/optee-src/nv-optee/optee/optee_os/lib/libutils/ext/trace.c:113
     858:	a9a77bfd 	stp	x29, x30, [sp, #-400]!
     85c:	910003fd 	mov	x29, sp
     860:	a9046bf9 	stp	x25, x26, [sp, #64]
     864:	2a0103f9 	mov	w25, w1
     868:	b00000c1 	adrp	x1, 19000 <_DYNAMIC>
     86c:	a9025bf5 	stp	x21, x22, [sp, #32]
     870:	aa0003f6 	mov	x22, x0
     874:	aa0103f5 	mov	x21, x1
     878:	f9409820 	ldr	x0, [x1, #304]
     87c:	a90153f3 	stp	x19, x20, [sp, #16]
     880:	2a0203f3 	mov	w19, w2
     884:	f9400002 	ldr	x2, [x0]
     888:	f900c7e2 	str	x2, [sp, #392]
     88c:	d2800002 	mov	x2, #0x0                   	// #0
     890:	a90363f7 	stp	x23, x24, [sp, #48]
     894:	aa0403f7 	mov	x23, x4
     898:	a90573fb 	stp	x27, x28, [sp, #80]
     89c:	aa0503f8 	mov	x24, x5
/home/ssysarch/Desktop/nick/jetpack_5/Jetson_Linux_R35.4.1_aarch64/Linux_for_Tegra/sources/tegra/optee-src/nv-optee/optee/optee_os/lib/libutils/ext/trace.c:118
     8a0:	72001c7b 	ands	w27, w3, #0xff
     8a4:	54000b20 	b.eq	a08 <trace_vprintf+0x1b0>  // b.none
/home/ssysarch/Desktop/nick/jetpack_5/Jetson_Linux_R35.4.1_aarch64/Linux_for_Tegra/sources/tegra/optee-src/nv-optee/optee/optee_os/lib/libutils/ext/trace.c:118 (discriminator 1)
     8a8:	f940a820 	ldr	x0, [x1, #336]
     8ac:	b9400000 	ldr	w0, [x0]
     8b0:	6b13001f 	cmp	w0, w19
     8b4:	540009cb 	b.lt	9ec <trace_vprintf+0x194>  // b.tstop
trace_level_to_string():
/home/ssysarch/Desktop/nick/jetpack_5/Jetson_Linux_R35.4.1_aarch64/Linux_for_Tegra/sources/tegra/optee-src/nv-optee/optee/optee_os/lib/libutils/ext/trace.c:51
     8b8:	7100127f 	cmp	w19, #0x4
/home/ssysarch/Desktop/nick/jetpack_5/Jetson_Linux_R35.4.1_aarch64/Linux_for_Tegra/sources/tegra/optee-src/nv-optee/optee/optee_os/lib/libutils/ext/trace.c:54
     8bc:	f00000a0 	adrp	x0, 17000 <small_prime+0x140>
     8c0:	910f4800 	add	x0, x0, #0x3d2
/home/ssysarch/Desktop/nick/jetpack_5/Jetson_Linux_R35.4.1_aarch64/Linux_for_Tegra/sources/tegra/optee-src/nv-optee/optee/optee_os/lib/libutils/ext/trace.c:51
     8c4:	1a9f9261 	csel	w1, w19, wzr, ls  // ls = plast
/home/ssysarch/Desktop/nick/jetpack_5/Jetson_Linux_R35.4.1_aarch64/Linux_for_Tegra/sources/tegra/optee-src/nv-optee/optee/optee_os/lib/libutils/ext/trace.c:54
     8c8:	3861c803 	ldrb	w3, [x0, w1, sxtw]
trace_vprintf():
/home/ssysarch/Desktop/nick/jetpack_5/Jetson_Linux_R35.4.1_aarch64/Linux_for_Tegra/sources/tegra/optee-src/nv-optee/optee/optee_os/lib/libutils/ext/trace.c:122
     8cc:	910223f4 	add	x20, sp, #0x88
     8d0:	f00000a2 	adrp	x2, 17000 <small_prime+0x140>
     8d4:	910e6042 	add	x2, x2, #0x398
     8d8:	aa1403e0 	mov	x0, x20
     8dc:	d2802001 	mov	x1, #0x100                 	// #256
     8e0:	94000149 	bl	e04 <snprintk>
/home/ssysarch/Desktop/nick/jetpack_5/Jetson_Linux_R35.4.1_aarch64/Linux_for_Tegra/sources/tegra/optee-src/nv-optee/optee/optee_os/lib/libutils/ext/trace.c:124
     8e4:	37f80840 	tbnz	w0, #31, 9ec <trace_vprintf+0x194>
/home/ssysarch/Desktop/nick/jetpack_5/Jetson_Linux_R35.4.1_aarch64/Linux_for_Tegra/sources/tegra/optee-src/nv-optee/optee/optee_os/lib/libutils/ext/trace.c:129
     8e8:	f940b6a3 	ldr	x3, [x21, #360]
     8ec:	d280201c 	mov	x28, #0x100                 	// #256
/home/ssysarch/Desktop/nick/jetpack_5/Jetson_Linux_R35.4.1_aarch64/Linux_for_Tegra/sources/tegra/optee-src/nv-optee/optee/optee_os/lib/libutils/ext/trace.c:126
     8f0:	93407c1a 	sxtw	x26, w0
/home/ssysarch/Desktop/nick/jetpack_5/Jetson_Linux_R35.4.1_aarch64/Linux_for_Tegra/sources/tegra/optee-src/nv-optee/optee/optee_os/lib/libutils/ext/trace.c:129
     8f4:	cb20c381 	sub	x1, x28, w0, sxtw
     8f8:	f00000a2 	adrp	x2, 17000 <small_prime+0x140>
     8fc:	910e7042 	add	x2, x2, #0x39c
     900:	8b20c280 	add	x0, x20, w0, sxtw
     904:	94000140 	bl	e04 <snprintk>
/home/ssysarch/Desktop/nick/jetpack_5/Jetson_Linux_R35.4.1_aarch64/Linux_for_Tegra/sources/tegra/optee-src/nv-optee/optee/optee_os/lib/libutils/ext/trace.c:131
     908:	37f80720 	tbnz	w0, #31, 9ec <trace_vprintf+0x194>
/home/ssysarch/Desktop/nick/jetpack_5/Jetson_Linux_R35.4.1_aarch64/Linux_for_Tegra/sources/tegra/optee-src/nv-optee/optee/optee_os/lib/libutils/ext/trace.c:133
     90c:	8b20c35a 	add	x26, x26, w0, sxtw
/home/ssysarch/Desktop/nick/jetpack_5/Jetson_Linux_R35.4.1_aarch64/Linux_for_Tegra/sources/tegra/optee-src/nv-optee/optee/optee_os/lib/libutils/ext/trace.c:135
     910:	3400093b 	cbz	w27, a34 <trace_vprintf+0x1dc>
/home/ssysarch/Desktop/nick/jetpack_5/Jetson_Linux_R35.4.1_aarch64/Linux_for_Tegra/sources/tegra/optee-src/nv-optee/optee/optee_os/lib/libutils/ext/trace.c:135 (discriminator 1)
     914:	52800342 	mov	w2, #0x1a                  	// #26
     918:	1ad32453 	lsr	w19, w2, w19
     91c:	360008d3 	tbz	w19, #0, a34 <trace_vprintf+0x1dc>
print_thread_id():
/home/ssysarch/Desktop/nick/jetpack_5/Jetson_Linux_R35.4.1_aarch64/Linux_for_Tegra/sources/tegra/optee-src/nv-optee/optee/optee_os/lib/libutils/ext/trace.c:66
     920:	94000493 	bl	1b6c <trace_ext_get_thread_id>
trace_vprintf():
/home/ssysarch/Desktop/nick/jetpack_5/Jetson_Linux_R35.4.1_aarch64/Linux_for_Tegra/sources/tegra/optee-src/nv-optee/optee/optee_os/lib/libutils/ext/trace.c:137
     924:	8b1a029b 	add	x27, x20, x26
     928:	cb1a039c 	sub	x28, x28, x26
print_thread_id():
/home/ssysarch/Desktop/nick/jetpack_5/Jetson_Linux_R35.4.1_aarch64/Linux_for_Tegra/sources/tegra/optee-src/nv-optee/optee/optee_os/lib/libutils/ext/trace.c:66
     92c:	2a0003e4 	mov	w4, w0
/home/ssysarch/Desktop/nick/jetpack_5/Jetson_Linux_R35.4.1_aarch64/Linux_for_Tegra/sources/tegra/optee-src/nv-optee/optee/optee_os/lib/libutils/ext/trace.c:68
     930:	37f80700 	tbnz	w0, #31, a10 <trace_vprintf+0x1b8>
/home/ssysarch/Desktop/nick/jetpack_5/Jetson_Linux_R35.4.1_aarch64/Linux_for_Tegra/sources/tegra/optee-src/nv-optee/optee/optee_os/lib/libutils/ext/trace.c:69
     934:	f00000a2 	adrp	x2, 17000 <small_prime+0x140>
     938:	910e8042 	add	x2, x2, #0x3a0
     93c:	aa1c03e1 	mov	x1, x28
     940:	aa1b03e0 	mov	x0, x27
     944:	52800043 	mov	w3, #0x2                   	// #2
     948:	9400012f 	bl	e04 <snprintk>
trace_vprintf():
/home/ssysarch/Desktop/nick/jetpack_5/Jetson_Linux_R35.4.1_aarch64/Linux_for_Tegra/sources/tegra/optee-src/nv-optee/optee/optee_os/lib/libutils/ext/trace.c:144
     94c:	37f80500 	tbnz	w0, #31, 9ec <trace_vprintf+0x194>
/home/ssysarch/Desktop/nick/jetpack_5/Jetson_Linux_R35.4.1_aarch64/Linux_for_Tegra/sources/tegra/optee-src/nv-optee/optee/optee_os/lib/libutils/ext/trace.c:146
     950:	8b20c353 	add	x19, x26, w0, sxtw
/home/ssysarch/Desktop/nick/jetpack_5/Jetson_Linux_R35.4.1_aarch64/Linux_for_Tegra/sources/tegra/optee-src/nv-optee/optee/optee_os/lib/libutils/ext/trace.c:148
     954:	b4000176 	cbz	x22, 980 <trace_vprintf+0x128>
/home/ssysarch/Desktop/nick/jetpack_5/Jetson_Linux_R35.4.1_aarch64/Linux_for_Tegra/sources/tegra/optee-src/nv-optee/optee/optee_os/lib/libutils/ext/trace.c:149
     958:	f00000a2 	adrp	x2, 17000 <small_prime+0x140>
     95c:	910eac42 	add	x2, x2, #0x3ab
     960:	d2802001 	mov	x1, #0x100                 	// #256
     964:	2a1903e4 	mov	w4, w25
     968:	aa1603e3 	mov	x3, x22
     96c:	cb130021 	sub	x1, x1, x19
     970:	8b130280 	add	x0, x20, x19
     974:	94000124 	bl	e04 <snprintk>
/home/ssysarch/Desktop/nick/jetpack_5/Jetson_Linux_R35.4.1_aarch64/Linux_for_Tegra/sources/tegra/optee-src/nv-optee/optee/optee_os/lib/libutils/ext/trace.c:151
     978:	37f803a0 	tbnz	w0, #31, 9ec <trace_vprintf+0x194>
/home/ssysarch/Desktop/nick/jetpack_5/Jetson_Linux_R35.4.1_aarch64/Linux_for_Tegra/sources/tegra/optee-src/nv-optee/optee/optee_os/lib/libutils/ext/trace.c:153
     97c:	8b20c273 	add	x19, x19, w0, sxtw
/home/ssysarch/Desktop/nick/jetpack_5/Jetson_Linux_R35.4.1_aarch64/Linux_for_Tegra/sources/tegra/optee-src/nv-optee/optee/optee_os/lib/libutils/ext/trace.c:163
     980:	910183e3 	add	x3, sp, #0x60
     984:	aa1803e1 	mov	x1, x24
     988:	aa0303e0 	mov	x0, x3
     98c:	d2800402 	mov	x2, #0x20                  	// #32
     990:	97fffda4 	bl	20 <memcpy>
     994:	aa0003e3 	mov	x3, x0
     998:	aa1703e2 	mov	x2, x23
     99c:	8b130280 	add	x0, x20, x19
     9a0:	d2802001 	mov	x1, #0x100                 	// #256
     9a4:	cb130021 	sub	x1, x1, x19
     9a8:	94000101 	bl	dac <vsnprintk>
/home/ssysarch/Desktop/nick/jetpack_5/Jetson_Linux_R35.4.1_aarch64/Linux_for_Tegra/sources/tegra/optee-src/nv-optee/optee/optee_os/lib/libutils/ext/trace.c:164
     9ac:	7100001f 	cmp	w0, #0x0
     9b0:	5400004d 	b.le	9b8 <trace_vprintf+0x160>
/home/ssysarch/Desktop/nick/jetpack_5/Jetson_Linux_R35.4.1_aarch64/Linux_for_Tegra/sources/tegra/optee-src/nv-optee/optee/optee_os/lib/libutils/ext/trace.c:165
     9b4:	8b20c273 	add	x19, x19, w0, sxtw
/home/ssysarch/Desktop/nick/jetpack_5/Jetson_Linux_R35.4.1_aarch64/Linux_for_Tegra/sources/tegra/optee-src/nv-optee/optee/optee_os/lib/libutils/ext/trace.c:167
     9b8:	f103fa7f 	cmp	x19, #0xfe
     9bc:	d2801fc0 	mov	x0, #0xfe                  	// #254
     9c0:	9a809273 	csel	x19, x19, x0, ls  // ls = plast
/home/ssysarch/Desktop/nick/jetpack_5/Jetson_Linux_R35.4.1_aarch64/Linux_for_Tegra/sources/tegra/optee-src/nv-optee/optee/optee_os/lib/libutils/ext/trace.c:170
     9c4:	52800140 	mov	w0, #0xa                   	// #10
     9c8:	38336a80 	strb	w0, [x20, x19]
/home/ssysarch/Desktop/nick/jetpack_5/Jetson_Linux_R35.4.1_aarch64/Linux_for_Tegra/sources/tegra/optee-src/nv-optee/optee/optee_os/lib/libutils/ext/trace.c:171
     9cc:	b4000093 	cbz	x19, 9dc <trace_vprintf+0x184>
/home/ssysarch/Desktop/nick/jetpack_5/Jetson_Linux_R35.4.1_aarch64/Linux_for_Tegra/sources/tegra/optee-src/nv-optee/optee/optee_os/lib/libutils/ext/trace.c:171 (discriminator 1)
     9d0:	38736a80 	ldrb	w0, [x20, x19]
     9d4:	7100281f 	cmp	w0, #0xa
     9d8:	540003c0 	b.eq	a50 <trace_vprintf+0x1f8>  // b.none
/home/ssysarch/Desktop/nick/jetpack_5/Jetson_Linux_R35.4.1_aarch64/Linux_for_Tegra/sources/tegra/optee-src/nv-optee/optee/optee_os/lib/libutils/ext/trace.c:174
     9dc:	91022be0 	add	x0, sp, #0x8a
     9e0:	3833681f 	strb	wzr, [x0, x19]
/home/ssysarch/Desktop/nick/jetpack_5/Jetson_Linux_R35.4.1_aarch64/Linux_for_Tegra/sources/tegra/optee-src/nv-optee/optee/optee_os/lib/libutils/ext/trace.c:176
     9e4:	aa1403e0 	mov	x0, x20
     9e8:	94000457 	bl	1b44 <trace_ext_puts>
/home/ssysarch/Desktop/nick/jetpack_5/Jetson_Linux_R35.4.1_aarch64/Linux_for_Tegra/sources/tegra/optee-src/nv-optee/optee/optee_os/lib/libutils/ext/trace.c:177
     9ec:	f9409ab5 	ldr	x21, [x21, #304]
     9f0:	f940c7e0 	ldr	x0, [sp, #392]
     9f4:	f94002a1 	ldr	x1, [x21]
     9f8:	eb010000 	subs	x0, x0, x1
     9fc:	d2800001 	mov	x1, #0x0                   	// #0
     a00:	540002c0 	b.eq	a58 <trace_vprintf+0x200>  // b.none
     a04:	97ffff3b 	bl	6f0 <__stack_chk_fail>
trace_level_to_string():
/home/ssysarch/Desktop/nick/jetpack_5/Jetson_Linux_R35.4.1_aarch64/Linux_for_Tegra/sources/tegra/optee-src/nv-optee/optee/optee_os/lib/libutils/ext/trace.c:49
     a08:	528009a3 	mov	w3, #0x4d                  	// #77
     a0c:	17ffffb0 	b	8cc <trace_vprintf+0x74>
print_thread_id():
/home/ssysarch/Desktop/nick/jetpack_5/Jetson_Linux_R35.4.1_aarch64/Linux_for_Tegra/sources/tegra/optee-src/nv-optee/optee/optee_os/lib/libutils/ext/trace.c:71
     a10:	aa1c03e1 	mov	x1, x28
     a14:	aa1b03e0 	mov	x0, x27
     a18:	f00000a4 	adrp	x4, 17000 <small_prime+0x140>
     a1c:	91357084 	add	x4, x4, #0xd5c
     a20:	52800043 	mov	w3, #0x2                   	// #2
     a24:	f00000a2 	adrp	x2, 17000 <small_prime+0x140>
     a28:	910e9842 	add	x2, x2, #0x3a6
     a2c:	940000f6 	bl	e04 <snprintk>
     a30:	17ffffc7 	b	94c <trace_vprintf+0xf4>
trace_vprintf():
/home/ssysarch/Desktop/nick/jetpack_5/Jetson_Linux_R35.4.1_aarch64/Linux_for_Tegra/sources/tegra/optee-src/nv-optee/optee/optee_os/lib/libutils/ext/trace.c:157
     a34:	f103fb5f 	cmp	x26, #0xfe
     a38:	54fffda8 	b.hi	9ec <trace_vprintf+0x194>  // b.pmore
/home/ssysarch/Desktop/nick/jetpack_5/Jetson_Linux_R35.4.1_aarch64/Linux_for_Tegra/sources/tegra/optee-src/nv-optee/optee/optee_os/lib/libutils/ext/trace.c:159
     a3c:	91000753 	add	x19, x26, #0x1
     a40:	52800400 	mov	w0, #0x20                  	// #32
     a44:	383a6a80 	strb	w0, [x20, x26]
/home/ssysarch/Desktop/nick/jetpack_5/Jetson_Linux_R35.4.1_aarch64/Linux_for_Tegra/sources/tegra/optee-src/nv-optee/optee/optee_os/lib/libutils/ext/trace.c:160
     a48:	38336a9f 	strb	wzr, [x20, x19]
     a4c:	17ffffcd 	b	980 <trace_vprintf+0x128>
/home/ssysarch/Desktop/nick/jetpack_5/Jetson_Linux_R35.4.1_aarch64/Linux_for_Tegra/sources/tegra/optee-src/nv-optee/optee/optee_os/lib/libutils/ext/trace.c:172
     a50:	d1000673 	sub	x19, x19, #0x1
     a54:	17ffffde 	b	9cc <trace_vprintf+0x174>
/home/ssysarch/Desktop/nick/jetpack_5/Jetson_Linux_R35.4.1_aarch64/Linux_for_Tegra/sources/tegra/optee-src/nv-optee/optee/optee_os/lib/libutils/ext/trace.c:177
     a58:	a94153f3 	ldp	x19, x20, [sp, #16]
     a5c:	a9425bf5 	ldp	x21, x22, [sp, #32]
     a60:	a94363f7 	ldp	x23, x24, [sp, #48]
     a64:	a9446bf9 	ldp	x25, x26, [sp, #64]
     a68:	a94573fb 	ldp	x27, x28, [sp, #80]
     a6c:	a8d97bfd 	ldp	x29, x30, [sp], #400
     a70:	d65f03c0 	ret

0000000000000a74 <trace_printf>:
trace_printf():
/home/ssysarch/Desktop/nick/jetpack_5/Jetson_Linux_R35.4.1_aarch64/Linux_for_Tegra/sources/tegra/optee-src/nv-optee/optee/optee_os/lib/libutils/ext/trace.c:104
     a74:	a9ad7bfd 	stp	x29, x30, [sp, #-304]!
     a78:	910003fd 	mov	x29, sp
     a7c:	a90153f3 	stp	x19, x20, [sp, #16]
     a80:	b00000d3 	adrp	x19, 19000 <_DYNAMIC>
     a84:	aa0003f4 	mov	x20, x0
     a88:	f9409a73 	ldr	x19, [x19, #304]
     a8c:	3d8027e0 	str	q0, [sp, #144]
     a90:	3d802be1 	str	q1, [sp, #160]
     a94:	3d802fe2 	str	q2, [sp, #176]
     a98:	3d8033e3 	str	q3, [sp, #192]
     a9c:	3d8037e4 	str	q4, [sp, #208]
     aa0:	3d803be5 	str	q5, [sp, #224]
     aa4:	3d803fe6 	str	q6, [sp, #240]
     aa8:	3d8043e7 	str	q7, [sp, #256]
     aac:	a9119be5 	stp	x5, x6, [sp, #280]
/home/ssysarch/Desktop/nick/jetpack_5/Jetson_Linux_R35.4.1_aarch64/Linux_for_Tegra/sources/tegra/optee-src/nv-optee/optee/optee_os/lib/libutils/ext/trace.c:108
     ab0:	910103e5 	add	x5, sp, #0x40
/home/ssysarch/Desktop/nick/jetpack_5/Jetson_Linux_R35.4.1_aarch64/Linux_for_Tegra/sources/tegra/optee-src/nv-optee/optee/optee_os/lib/libutils/ext/trace.c:104
     ab4:	f90097e7 	str	x7, [sp, #296]
     ab8:	a9025bf5 	stp	x21, x22, [sp, #32]
     abc:	2a0103f5 	mov	w21, w1
     ac0:	f9400260 	ldr	x0, [x19]
     ac4:	f90047e0 	str	x0, [sp, #136]
     ac8:	d2800000 	mov	x0, #0x0                   	// #0
/home/ssysarch/Desktop/nick/jetpack_5/Jetson_Linux_R35.4.1_aarch64/Linux_for_Tegra/sources/tegra/optee-src/nv-optee/optee/optee_os/lib/libutils/ext/trace.c:107
     acc:	9104c3e0 	add	x0, sp, #0x130
     ad0:	a90683e0 	stp	x0, x0, [sp, #104]
     ad4:	910443e0 	add	x0, sp, #0x110
     ad8:	f9003fe0 	str	x0, [sp, #120]
     adc:	128002e0 	mov	w0, #0xffffffe8            	// #-24
     ae0:	b90083e0 	str	w0, [sp, #128]
     ae4:	12800fe0 	mov	w0, #0xffffff80            	// #-128
/home/ssysarch/Desktop/nick/jetpack_5/Jetson_Linux_R35.4.1_aarch64/Linux_for_Tegra/sources/tegra/optee-src/nv-optee/optee/optee_os/lib/libutils/ext/trace.c:104
     ae8:	2a0203f6 	mov	w22, w2
/home/ssysarch/Desktop/nick/jetpack_5/Jetson_Linux_R35.4.1_aarch64/Linux_for_Tegra/sources/tegra/optee-src/nv-optee/optee/optee_os/lib/libutils/ext/trace.c:108
     aec:	9101a3e1 	add	x1, sp, #0x68
     af0:	d2800402 	mov	x2, #0x20                  	// #32
/home/ssysarch/Desktop/nick/jetpack_5/Jetson_Linux_R35.4.1_aarch64/Linux_for_Tegra/sources/tegra/optee-src/nv-optee/optee/optee_os/lib/libutils/ext/trace.c:104
     af4:	a90363f7 	stp	x23, x24, [sp, #48]
     af8:	12001c78 	and	w24, w3, #0xff
     afc:	aa0403f7 	mov	x23, x4
/home/ssysarch/Desktop/nick/jetpack_5/Jetson_Linux_R35.4.1_aarch64/Linux_for_Tegra/sources/tegra/optee-src/nv-optee/optee/optee_os/lib/libutils/ext/trace.c:107
     b00:	b90087e0 	str	w0, [sp, #132]
/home/ssysarch/Desktop/nick/jetpack_5/Jetson_Linux_R35.4.1_aarch64/Linux_for_Tegra/sources/tegra/optee-src/nv-optee/optee/optee_os/lib/libutils/ext/trace.c:108
     b04:	aa0503e0 	mov	x0, x5
     b08:	97fffd46 	bl	20 <memcpy>
     b0c:	2a1503e1 	mov	w1, w21
     b10:	aa0003e5 	mov	x5, x0
     b14:	aa1703e4 	mov	x4, x23
     b18:	aa1403e0 	mov	x0, x20
     b1c:	2a1803e3 	mov	w3, w24
     b20:	2a1603e2 	mov	w2, w22
     b24:	97ffff4d 	bl	858 <trace_vprintf>
/home/ssysarch/Desktop/nick/jetpack_5/Jetson_Linux_R35.4.1_aarch64/Linux_for_Tegra/sources/tegra/optee-src/nv-optee/optee/optee_os/lib/libutils/ext/trace.c:110
     b28:	f94047e0 	ldr	x0, [sp, #136]
     b2c:	f9400261 	ldr	x1, [x19]
     b30:	eb010000 	subs	x0, x0, x1
     b34:	d2800001 	mov	x1, #0x0                   	// #0
     b38:	54000040 	b.eq	b40 <trace_printf+0xcc>  // b.none
     b3c:	97fffeed 	bl	6f0 <__stack_chk_fail>
     b40:	a94153f3 	ldp	x19, x20, [sp, #16]
     b44:	a9425bf5 	ldp	x21, x22, [sp, #32]
     b48:	a94363f7 	ldp	x23, x24, [sp, #48]
     b4c:	a8d37bfd 	ldp	x29, x30, [sp], #304
     b50:	d65f03c0 	ret

0000000000000b54 <dhex_dump>:
dhex_dump():
/home/ssysarch/Desktop/nick/jetpack_5/Jetson_Linux_R35.4.1_aarch64/Linux_for_Tegra/sources/tegra/optee-src/nv-optee/optee/optee_os/lib/libutils/ext/trace.c:236
     b54:	a9a97bfd 	stp	x29, x30, [sp, #-368]!
     b58:	b00000c5 	adrp	x5, 19000 <_DYNAMIC>
     b5c:	910003fd 	mov	x29, sp
     b60:	a9025bf5 	stp	x21, x22, [sp, #32]
     b64:	aa0003f5 	mov	x21, x0
     b68:	2a0103f6 	mov	w22, w1
     b6c:	f94098a0 	ldr	x0, [x5, #304]
     b70:	a90153f3 	stp	x19, x20, [sp, #16]
/home/ssysarch/Desktop/nick/jetpack_5/Jetson_Linux_R35.4.1_aarch64/Linux_for_Tegra/sources/tegra/optee-src/nv-optee/optee/optee_os/lib/libutils/ext/trace.c:242
     b74:	f940a8a5 	ldr	x5, [x5, #336]
/home/ssysarch/Desktop/nick/jetpack_5/Jetson_Linux_R35.4.1_aarch64/Linux_for_Tegra/sources/tegra/optee-src/nv-optee/optee/optee_os/lib/libutils/ext/trace.c:236
     b78:	f9400001 	ldr	x1, [x0]
     b7c:	f900b7e1 	str	x1, [sp, #360]
     b80:	d2800001 	mov	x1, #0x0                   	// #0
     b84:	a90363f7 	stp	x23, x24, [sp, #48]
/home/ssysarch/Desktop/nick/jetpack_5/Jetson_Linux_R35.4.1_aarch64/Linux_for_Tegra/sources/tegra/optee-src/nv-optee/optee/optee_os/lib/libutils/ext/trace.c:242
     b88:	b94000a0 	ldr	w0, [x5]
/home/ssysarch/Desktop/nick/jetpack_5/Jetson_Linux_R35.4.1_aarch64/Linux_for_Tegra/sources/tegra/optee-src/nv-optee/optee/optee_os/lib/libutils/ext/trace.c:236
     b8c:	a9046bf9 	stp	x25, x26, [sp, #64]
/home/ssysarch/Desktop/nick/jetpack_5/Jetson_Linux_R35.4.1_aarch64/Linux_for_Tegra/sources/tegra/optee-src/nv-optee/optee/optee_os/lib/libutils/ext/trace.c:242
     b90:	6b02001f 	cmp	w0, w2
/home/ssysarch/Desktop/nick/jetpack_5/Jetson_Linux_R35.4.1_aarch64/Linux_for_Tegra/sources/tegra/optee-src/nv-optee/optee/optee_os/lib/libutils/ext/trace.c:236
     b94:	a90573fb 	stp	x27, x28, [sp, #80]
/home/ssysarch/Desktop/nick/jetpack_5/Jetson_Linux_R35.4.1_aarch64/Linux_for_Tegra/sources/tegra/optee-src/nv-optee/optee/optee_os/lib/libutils/ext/trace.c:242
     b98:	5400030b 	b.lt	bf8 <dhex_dump+0xa4>  // b.tstop
/home/ssysarch/Desktop/nick/jetpack_5/Jetson_Linux_R35.4.1_aarch64/Linux_for_Tegra/sources/tegra/optee-src/nv-optee/optee/optee_os/lib/libutils/ext/trace.c:246
     b9c:	f00000ba 	adrp	x26, 17000 <small_prime+0x140>
     ba0:	910ee35a 	add	x26, x26, #0x3b8
/home/ssysarch/Desktop/nick/jetpack_5/Jetson_Linux_R35.4.1_aarch64/Linux_for_Tegra/sources/tegra/optee-src/nv-optee/optee/optee_os/lib/libutils/ext/trace.c:251
     ba4:	f00000bb 	adrp	x27, 17000 <small_prime+0x140>
     ba8:	910ecb7b 	add	x27, x27, #0x3b2
     bac:	2a0203f4 	mov	w20, w2
     bb0:	aa0303f8 	mov	x24, x3
     bb4:	2a0403f9 	mov	w25, w4
/home/ssysarch/Desktop/nick/jetpack_5/Jetson_Linux_R35.4.1_aarch64/Linux_for_Tegra/sources/tegra/optee-src/nv-optee/optee/optee_os/lib/libutils/ext/trace.c:243
     bb8:	910183f7 	add	x23, sp, #0x60
/home/ssysarch/Desktop/nick/jetpack_5/Jetson_Linux_R35.4.1_aarch64/Linux_for_Tegra/sources/tegra/optee-src/nv-optee/optee/optee_os/lib/libutils/ext/trace.c:244
     bbc:	d2800013 	mov	x19, #0x0                   	// #0
/home/ssysarch/Desktop/nick/jetpack_5/Jetson_Linux_R35.4.1_aarch64/Linux_for_Tegra/sources/tegra/optee-src/nv-optee/optee/optee_os/lib/libutils/ext/trace.c:243
     bc0:	f900b3ff 	str	xzr, [sp, #352]
/home/ssysarch/Desktop/nick/jetpack_5/Jetson_Linux_R35.4.1_aarch64/Linux_for_Tegra/sources/tegra/optee-src/nv-optee/optee/optee_os/lib/libutils/ext/trace.c:244
     bc4:	2a1303fc 	mov	w28, w19
/home/ssysarch/Desktop/nick/jetpack_5/Jetson_Linux_R35.4.1_aarch64/Linux_for_Tegra/sources/tegra/optee-src/nv-optee/optee/optee_os/lib/libutils/ext/trace.c:244 (discriminator 1)
     bc8:	6b13033f 	cmp	w25, w19
     bcc:	5400026c 	b.gt	c18 <dhex_dump+0xc4>
/home/ssysarch/Desktop/nick/jetpack_5/Jetson_Linux_R35.4.1_aarch64/Linux_for_Tegra/sources/tegra/optee-src/nv-optee/optee/optee_os/lib/libutils/ext/trace.c:264
     bd0:	f940b3e0 	ldr	x0, [sp, #352]
     bd4:	b4000120 	cbz	x0, bf8 <dhex_dump+0xa4>
/home/ssysarch/Desktop/nick/jetpack_5/Jetson_Linux_R35.4.1_aarch64/Linux_for_Tegra/sources/tegra/optee-src/nv-optee/optee/optee_os/lib/libutils/ext/trace.c:266
     bd8:	f00000a4 	adrp	x4, 17000 <small_prime+0x140>
     bdc:	910f0084 	add	x4, x4, #0x3c0
     be0:	910183e5 	add	x5, sp, #0x60
     be4:	2a1403e2 	mov	w2, w20
     be8:	2a1603e1 	mov	w1, w22
     bec:	aa1503e0 	mov	x0, x21
     bf0:	52800023 	mov	w3, #0x1                   	// #1
     bf4:	97ffffa0 	bl	a74 <trace_printf>
/home/ssysarch/Desktop/nick/jetpack_5/Jetson_Linux_R35.4.1_aarch64/Linux_for_Tegra/sources/tegra/optee-src/nv-optee/optee/optee_os/lib/libutils/ext/trace.c:274
     bf8:	b00000c5 	adrp	x5, 19000 <_DYNAMIC>
     bfc:	f94098a5 	ldr	x5, [x5, #304]
     c00:	f940b7e0 	ldr	x0, [sp, #360]
     c04:	f94000a1 	ldr	x1, [x5]
     c08:	eb010000 	subs	x0, x0, x1
     c0c:	d2800001 	mov	x1, #0x0                   	// #0
     c10:	54000600 	b.eq	cd0 <dhex_dump+0x17c>  // b.none
     c14:	97fffeb7 	bl	6f0 <__stack_chk_fail>
/home/ssysarch/Desktop/nick/jetpack_5/Jetson_Linux_R35.4.1_aarch64/Linux_for_Tegra/sources/tegra/optee-src/nv-optee/optee/optee_os/lib/libutils/ext/trace.c:245
     c18:	f2400e7f 	tst	x19, #0xf
     c1c:	54000200 	b.eq	c5c <dhex_dump+0x108>  // b.none
/home/ssysarch/Desktop/nick/jetpack_5/Jetson_Linux_R35.4.1_aarch64/Linux_for_Tegra/sources/tegra/optee-src/nv-optee/optee/optee_os/lib/libutils/ext/trace.c:251
     c20:	38736b02 	ldrb	w2, [x24, x19]
     c24:	aa1b03e1 	mov	x1, x27
     c28:	aa1703e0 	mov	x0, x23
     c2c:	97fffebd 	bl	720 <append>
/home/ssysarch/Desktop/nick/jetpack_5/Jetson_Linux_R35.4.1_aarch64/Linux_for_Tegra/sources/tegra/optee-src/nv-optee/optee/optee_os/lib/libutils/ext/trace.c:252
     c30:	35000240 	cbnz	w0, c78 <dhex_dump+0x124>
/home/ssysarch/Desktop/nick/jetpack_5/Jetson_Linux_R35.4.1_aarch64/Linux_for_Tegra/sources/tegra/optee-src/nv-optee/optee/optee_os/lib/libutils/ext/trace.c:273
     c34:	f00000a0 	adrp	x0, 17000 <small_prime+0x140>
     c38:	910f4800 	add	x0, x0, #0x3d2
     c3c:	91001400 	add	x0, x0, #0x5
     c40:	f00000a4 	adrp	x4, 17000 <small_prime+0x140>
     c44:	910f0c84 	add	x4, x4, #0x3c3
     c48:	52800023 	mov	w3, #0x1                   	// #1
     c4c:	52800062 	mov	w2, #0x3                   	// #3
     c50:	52802221 	mov	w1, #0x111                 	// #273
     c54:	97ffff88 	bl	a74 <trace_printf>
     c58:	17ffffe8 	b	bf8 <dhex_dump+0xa4>
/home/ssysarch/Desktop/nick/jetpack_5/Jetson_Linux_R35.4.1_aarch64/Linux_for_Tegra/sources/tegra/optee-src/nv-optee/optee/optee_os/lib/libutils/ext/trace.c:246
     c5c:	8b130303 	add	x3, x24, x19
     c60:	aa1a03e1 	mov	x1, x26
     c64:	aa1703e0 	mov	x0, x23
     c68:	52800202 	mov	w2, #0x10                  	// #16
     c6c:	97fffead 	bl	720 <append>
/home/ssysarch/Desktop/nick/jetpack_5/Jetson_Linux_R35.4.1_aarch64/Linux_for_Tegra/sources/tegra/optee-src/nv-optee/optee/optee_os/lib/libutils/ext/trace.c:248
     c70:	35fffd80 	cbnz	w0, c20 <dhex_dump+0xcc>
     c74:	17fffff0 	b	c34 <dhex_dump+0xe0>
/home/ssysarch/Desktop/nick/jetpack_5/Jetson_Linux_R35.4.1_aarch64/Linux_for_Tegra/sources/tegra/optee-src/nv-optee/optee/optee_os/lib/libutils/ext/trace.c:254
     c78:	12000f80 	and	w0, w28, #0xf
     c7c:	71001c1f 	cmp	w0, #0x7
     c80:	54000101 	b.ne	ca0 <dhex_dump+0x14c>  // b.any
/home/ssysarch/Desktop/nick/jetpack_5/Jetson_Linux_R35.4.1_aarch64/Linux_for_Tegra/sources/tegra/optee-src/nv-optee/optee/optee_os/lib/libutils/ext/trace.c:255
     c84:	f00000a1 	adrp	x1, 17000 <small_prime+0x140>
     c88:	910ef821 	add	x1, x1, #0x3be
     c8c:	aa1703e0 	mov	x0, x23
     c90:	97fffea4 	bl	720 <append>
/home/ssysarch/Desktop/nick/jetpack_5/Jetson_Linux_R35.4.1_aarch64/Linux_for_Tegra/sources/tegra/optee-src/nv-optee/optee/optee_os/lib/libutils/ext/trace.c:256
     c94:	34fffd00 	cbz	w0, c34 <dhex_dump+0xe0>
/home/ssysarch/Desktop/nick/jetpack_5/Jetson_Linux_R35.4.1_aarch64/Linux_for_Tegra/sources/tegra/optee-src/nv-optee/optee/optee_os/lib/libutils/ext/trace.c:244 (discriminator 2)
     c98:	91000673 	add	x19, x19, #0x1
     c9c:	17ffffca 	b	bc4 <dhex_dump+0x70>
/home/ssysarch/Desktop/nick/jetpack_5/Jetson_Linux_R35.4.1_aarch64/Linux_for_Tegra/sources/tegra/optee-src/nv-optee/optee/optee_os/lib/libutils/ext/trace.c:258
     ca0:	71003c1f 	cmp	w0, #0xf
     ca4:	54ffffa1 	b.ne	c98 <dhex_dump+0x144>  // b.any
/home/ssysarch/Desktop/nick/jetpack_5/Jetson_Linux_R35.4.1_aarch64/Linux_for_Tegra/sources/tegra/optee-src/nv-optee/optee/optee_os/lib/libutils/ext/trace.c:259
     ca8:	aa1703e5 	mov	x5, x23
     cac:	2a1403e2 	mov	w2, w20
     cb0:	2a1603e1 	mov	w1, w22
     cb4:	aa1503e0 	mov	x0, x21
     cb8:	f00000a4 	adrp	x4, 17000 <small_prime+0x140>
     cbc:	910f0084 	add	x4, x4, #0x3c0
     cc0:	52800023 	mov	w3, #0x1                   	// #1
     cc4:	97ffff6c 	bl	a74 <trace_printf>
/home/ssysarch/Desktop/nick/jetpack_5/Jetson_Linux_R35.4.1_aarch64/Linux_for_Tegra/sources/tegra/optee-src/nv-optee/optee/optee_os/lib/libutils/ext/trace.c:261
     cc8:	f900b3ff 	str	xzr, [sp, #352]
     ccc:	17fffff3 	b	c98 <dhex_dump+0x144>
/home/ssysarch/Desktop/nick/jetpack_5/Jetson_Linux_R35.4.1_aarch64/Linux_for_Tegra/sources/tegra/optee-src/nv-optee/optee/optee_os/lib/libutils/ext/trace.c:274
     cd0:	a94153f3 	ldp	x19, x20, [sp, #16]
     cd4:	a9425bf5 	ldp	x21, x22, [sp, #32]
     cd8:	a94363f7 	ldp	x23, x24, [sp, #48]
     cdc:	a9446bf9 	ldp	x25, x26, [sp, #64]
     ce0:	a94573fb 	ldp	x27, x28, [sp, #80]
     ce4:	a8d77bfd 	ldp	x29, x30, [sp], #368
     ce8:	d65f03c0 	ret

0000000000000cec <__vsnprintf>:
__vsnprintf():
/home/ssysarch/Desktop/nick/jetpack_5/Jetson_Linux_R35.4.1_aarch64/Linux_for_Tegra/sources/tegra/optee-src/nv-optee/optee/optee_os/lib/libutils/ext/snprintk.c:138
     cec:	a9b97bfd 	stp	x29, x30, [sp, #-112]!
     cf0:	b00000c5 	adrp	x5, 19000 <_DYNAMIC>
     cf4:	910003fd 	mov	x29, sp
     cf8:	f94098a5 	ldr	x5, [x5, #304]
     cfc:	a90153f3 	stp	x19, x20, [sp, #16]
     d00:	aa0003f3 	mov	x19, x0
     d04:	aa0103f4 	mov	x20, x1
     d08:	f94000a0 	ldr	x0, [x5]
     d0c:	f90037e0 	str	x0, [sp, #104]
     d10:	d2800000 	mov	x0, #0x0                   	// #0
     d14:	aa0303e1 	mov	x1, x3
/home/ssysarch/Desktop/nick/jetpack_5/Jetson_Linux_R35.4.1_aarch64/Linux_for_Tegra/sources/tegra/optee-src/nv-optee/optee/optee_os/lib/libutils/ext/snprintk.c:143
     d18:	910103e0 	add	x0, sp, #0x40
/home/ssysarch/Desktop/nick/jetpack_5/Jetson_Linux_R35.4.1_aarch64/Linux_for_Tegra/sources/tegra/optee-src/nv-optee/optee/optee_os/lib/libutils/ext/snprintk.c:138
     d1c:	a9025bf5 	stp	x21, x22, [sp, #32]
     d20:	aa0203f5 	mov	x21, x2
/home/ssysarch/Desktop/nick/jetpack_5/Jetson_Linux_R35.4.1_aarch64/Linux_for_Tegra/sources/tegra/optee-src/nv-optee/optee/optee_os/lib/libutils/ext/snprintk.c:142
     d24:	8b140276 	add	x22, x19, x20
/home/ssysarch/Desktop/nick/jetpack_5/Jetson_Linux_R35.4.1_aarch64/Linux_for_Tegra/sources/tegra/optee-src/nv-optee/optee/optee_os/lib/libutils/ext/snprintk.c:143
     d28:	d2800402 	mov	x2, #0x20                  	// #32
/home/ssysarch/Desktop/nick/jetpack_5/Jetson_Linux_R35.4.1_aarch64/Linux_for_Tegra/sources/tegra/optee-src/nv-optee/optee/optee_os/lib/libutils/ext/snprintk.c:138
     d2c:	f9001bf7 	str	x23, [sp, #48]
     d30:	12001c97 	and	w23, w4, #0xff
/home/ssysarch/Desktop/nick/jetpack_5/Jetson_Linux_R35.4.1_aarch64/Linux_for_Tegra/sources/tegra/optee-src/nv-optee/optee/optee_os/lib/libutils/ext/snprintk.c:142
     d34:	f90033f6 	str	x22, [sp, #96]
/home/ssysarch/Desktop/nick/jetpack_5/Jetson_Linux_R35.4.1_aarch64/Linux_for_Tegra/sources/tegra/optee-src/nv-optee/optee/optee_os/lib/libutils/ext/snprintk.c:143
     d38:	97fffcba 	bl	20 <memcpy>
     d3c:	aa0003e3 	mov	x3, x0
     d40:	2a1703e4 	mov	w4, w23
     d44:	aa1303e2 	mov	x2, x19
     d48:	910183e1 	add	x1, sp, #0x60
     d4c:	aa1503e0 	mov	x0, x21
     d50:	94000060 	bl	ed0 <kprintf.constprop.0>
/home/ssysarch/Desktop/nick/jetpack_5/Jetson_Linux_R35.4.1_aarch64/Linux_for_Tegra/sources/tegra/optee-src/nv-optee/optee/optee_os/lib/libutils/ext/snprintk.c:144
     d54:	f100027f 	cmp	x19, #0x0
     d58:	fa401a84 	ccmp	x20, #0x0, #0x4, ne  // ne = any
     d5c:	540000a0 	b.eq	d70 <__vsnprintf+0x84>  // b.none
/home/ssysarch/Desktop/nick/jetpack_5/Jetson_Linux_R35.4.1_aarch64/Linux_for_Tegra/sources/tegra/optee-src/nv-optee/optee/optee_os/lib/libutils/ext/snprintk.c:146
     d60:	93407c01 	sxtw	x1, w0
     d64:	eb20c29f 	cmp	x20, w0, sxtw
     d68:	54000148 	b.hi	d90 <__vsnprintf+0xa4>  // b.pmore
/home/ssysarch/Desktop/nick/jetpack_5/Jetson_Linux_R35.4.1_aarch64/Linux_for_Tegra/sources/tegra/optee-src/nv-optee/optee/optee_os/lib/libutils/ext/snprintk.c:147
     d6c:	381ff2df 	sturb	wzr, [x22, #-1]
/home/ssysarch/Desktop/nick/jetpack_5/Jetson_Linux_R35.4.1_aarch64/Linux_for_Tegra/sources/tegra/optee-src/nv-optee/optee/optee_os/lib/libutils/ext/snprintk.c:152
     d70:	b00000c5 	adrp	x5, 19000 <_DYNAMIC>
     d74:	f94098a5 	ldr	x5, [x5, #304]
     d78:	f94037e1 	ldr	x1, [sp, #104]
     d7c:	f94000a2 	ldr	x2, [x5]
     d80:	eb020021 	subs	x1, x1, x2
     d84:	d2800002 	mov	x2, #0x0                   	// #0
     d88:	54000080 	b.eq	d98 <__vsnprintf+0xac>  // b.none
     d8c:	97fffe59 	bl	6f0 <__stack_chk_fail>
/home/ssysarch/Desktop/nick/jetpack_5/Jetson_Linux_R35.4.1_aarch64/Linux_for_Tegra/sources/tegra/optee-src/nv-optee/optee/optee_os/lib/libutils/ext/snprintk.c:149
     d90:	38216a7f 	strb	wzr, [x19, x1]
/home/ssysarch/Desktop/nick/jetpack_5/Jetson_Linux_R35.4.1_aarch64/Linux_for_Tegra/sources/tegra/optee-src/nv-optee/optee/optee_os/lib/libutils/ext/snprintk.c:151
     d94:	17fffff7 	b	d70 <__vsnprintf+0x84>
/home/ssysarch/Desktop/nick/jetpack_5/Jetson_Linux_R35.4.1_aarch64/Linux_for_Tegra/sources/tegra/optee-src/nv-optee/optee/optee_os/lib/libutils/ext/snprintk.c:152
     d98:	a94153f3 	ldp	x19, x20, [sp, #16]
     d9c:	a9425bf5 	ldp	x21, x22, [sp, #32]
     da0:	f9401bf7 	ldr	x23, [sp, #48]
     da4:	a8c77bfd 	ldp	x29, x30, [sp], #112
     da8:	d65f03c0 	ret

0000000000000dac <vsnprintk>:
vsnprintk():
/home/ssysarch/Desktop/nick/jetpack_5/Jetson_Linux_R35.4.1_aarch64/Linux_for_Tegra/sources/tegra/optee-src/nv-optee/optee/optee_os/lib/libutils/ext/snprintk.c:130
     dac:	a9bb7bfd 	stp	x29, x30, [sp, #-80]!
/home/ssysarch/Desktop/nick/jetpack_5/Jetson_Linux_R35.4.1_aarch64/Linux_for_Tegra/sources/tegra/optee-src/nv-optee/optee/optee_os/lib/libutils/ext/snprintk.c:131
     db0:	9100c3e4 	add	x4, sp, #0x30
/home/ssysarch/Desktop/nick/jetpack_5/Jetson_Linux_R35.4.1_aarch64/Linux_for_Tegra/sources/tegra/optee-src/nv-optee/optee/optee_os/lib/libutils/ext/snprintk.c:130
     db4:	910003fd 	mov	x29, sp
     db8:	a90153f3 	stp	x19, x20, [sp, #16]
     dbc:	aa0003f3 	mov	x19, x0
     dc0:	aa0103f4 	mov	x20, x1
/home/ssysarch/Desktop/nick/jetpack_5/Jetson_Linux_R35.4.1_aarch64/Linux_for_Tegra/sources/tegra/optee-src/nv-optee/optee/optee_os/lib/libutils/ext/snprintk.c:131
     dc4:	aa0403e0 	mov	x0, x4
/home/ssysarch/Desktop/nick/jetpack_5/Jetson_Linux_R35.4.1_aarch64/Linux_for_Tegra/sources/tegra/optee-src/nv-optee/optee/optee_os/lib/libutils/ext/snprintk.c:130
     dc8:	aa0303e1 	mov	x1, x3
     dcc:	f90013f5 	str	x21, [sp, #32]
     dd0:	aa0203f5 	mov	x21, x2
/home/ssysarch/Desktop/nick/jetpack_5/Jetson_Linux_R35.4.1_aarch64/Linux_for_Tegra/sources/tegra/optee-src/nv-optee/optee/optee_os/lib/libutils/ext/snprintk.c:131
     dd4:	d2800402 	mov	x2, #0x20                  	// #32
     dd8:	97fffc92 	bl	20 <memcpy>
     ddc:	aa1503e2 	mov	x2, x21
     de0:	aa0003e3 	mov	x3, x0
     de4:	aa1403e1 	mov	x1, x20
     de8:	aa1303e0 	mov	x0, x19
     dec:	52800024 	mov	w4, #0x1                   	// #1
     df0:	97ffffbf 	bl	cec <__vsnprintf>
/home/ssysarch/Desktop/nick/jetpack_5/Jetson_Linux_R35.4.1_aarch64/Linux_for_Tegra/sources/tegra/optee-src/nv-optee/optee/optee_os/lib/libutils/ext/snprintk.c:132
     df4:	a94153f3 	ldp	x19, x20, [sp, #16]
     df8:	f94013f5 	ldr	x21, [sp, #32]
     dfc:	a8c57bfd 	ldp	x29, x30, [sp], #80
     e00:	d65f03c0 	ret

0000000000000e04 <snprintk>:
snprintk():
/home/ssysarch/Desktop/nick/jetpack_5/Jetson_Linux_R35.4.1_aarch64/Linux_for_Tegra/sources/tegra/optee-src/nv-optee/optee/optee_os/lib/libutils/ext/snprintk.c:113
     e04:	a9ad7bfd 	stp	x29, x30, [sp, #-304]!
     e08:	910003fd 	mov	x29, sp
     e0c:	a90153f3 	stp	x19, x20, [sp, #16]
     e10:	b00000d3 	adrp	x19, 19000 <_DYNAMIC>
     e14:	aa0003f4 	mov	x20, x0
     e18:	f9409a73 	ldr	x19, [x19, #304]
     e1c:	3d8023e0 	str	q0, [sp, #128]
     e20:	3d8027e1 	str	q1, [sp, #144]
     e24:	3d802be2 	str	q2, [sp, #160]
     e28:	3d802fe3 	str	q3, [sp, #176]
     e2c:	3d8033e4 	str	q4, [sp, #192]
     e30:	3d8037e5 	str	q5, [sp, #208]
     e34:	3d803be6 	str	q6, [sp, #224]
     e38:	3d803fe7 	str	q7, [sp, #240]
     e3c:	a91093e3 	stp	x3, x4, [sp, #264]
/home/ssysarch/Desktop/nick/jetpack_5/Jetson_Linux_R35.4.1_aarch64/Linux_for_Tegra/sources/tegra/optee-src/nv-optee/optee/optee_os/lib/libutils/ext/snprintk.c:118
     e40:	9100c3e3 	add	x3, sp, #0x30
/home/ssysarch/Desktop/nick/jetpack_5/Jetson_Linux_R35.4.1_aarch64/Linux_for_Tegra/sources/tegra/optee-src/nv-optee/optee/optee_os/lib/libutils/ext/snprintk.c:113
     e44:	a9119be5 	stp	x5, x6, [sp, #280]
     e48:	f90097e7 	str	x7, [sp, #296]
     e4c:	a9025bf5 	stp	x21, x22, [sp, #32]
     e50:	aa0103f5 	mov	x21, x1
     e54:	f9400260 	ldr	x0, [x19]
     e58:	f9003fe0 	str	x0, [sp, #120]
     e5c:	d2800000 	mov	x0, #0x0                   	// #0
/home/ssysarch/Desktop/nick/jetpack_5/Jetson_Linux_R35.4.1_aarch64/Linux_for_Tegra/sources/tegra/optee-src/nv-optee/optee/optee_os/lib/libutils/ext/snprintk.c:117
     e60:	9104c3e0 	add	x0, sp, #0x130
     e64:	a90583e0 	stp	x0, x0, [sp, #88]
     e68:	910403e0 	add	x0, sp, #0x100
     e6c:	f90037e0 	str	x0, [sp, #104]
     e70:	128004e0 	mov	w0, #0xffffffd8            	// #-40
     e74:	b90073e0 	str	w0, [sp, #112]
     e78:	12800fe0 	mov	w0, #0xffffff80            	// #-128
/home/ssysarch/Desktop/nick/jetpack_5/Jetson_Linux_R35.4.1_aarch64/Linux_for_Tegra/sources/tegra/optee-src/nv-optee/optee/optee_os/lib/libutils/ext/snprintk.c:113
     e7c:	aa0203f6 	mov	x22, x2
/home/ssysarch/Desktop/nick/jetpack_5/Jetson_Linux_R35.4.1_aarch64/Linux_for_Tegra/sources/tegra/optee-src/nv-optee/optee/optee_os/lib/libutils/ext/snprintk.c:118
     e80:	910163e1 	add	x1, sp, #0x58
     e84:	d2800402 	mov	x2, #0x20                  	// #32
/home/ssysarch/Desktop/nick/jetpack_5/Jetson_Linux_R35.4.1_aarch64/Linux_for_Tegra/sources/tegra/optee-src/nv-optee/optee/optee_os/lib/libutils/ext/snprintk.c:117
     e88:	b90077e0 	str	w0, [sp, #116]
/home/ssysarch/Desktop/nick/jetpack_5/Jetson_Linux_R35.4.1_aarch64/Linux_for_Tegra/sources/tegra/optee-src/nv-optee/optee/optee_os/lib/libutils/ext/snprintk.c:118
     e8c:	aa0303e0 	mov	x0, x3
     e90:	97fffc64 	bl	20 <memcpy>
     e94:	aa1603e2 	mov	x2, x22
     e98:	aa0003e3 	mov	x3, x0
     e9c:	aa1503e1 	mov	x1, x21
     ea0:	aa1403e0 	mov	x0, x20
     ea4:	97ffffc2 	bl	dac <vsnprintk>
/home/ssysarch/Desktop/nick/jetpack_5/Jetson_Linux_R35.4.1_aarch64/Linux_for_Tegra/sources/tegra/optee-src/nv-optee/optee/optee_os/lib/libutils/ext/snprintk.c:122
     ea8:	f9403fe1 	ldr	x1, [sp, #120]
     eac:	f9400262 	ldr	x2, [x19]
     eb0:	eb020021 	subs	x1, x1, x2
     eb4:	d2800002 	mov	x2, #0x0                   	// #0
     eb8:	54000040 	b.eq	ec0 <snprintk+0xbc>  // b.none
     ebc:	97fffe0d 	bl	6f0 <__stack_chk_fail>
     ec0:	a94153f3 	ldp	x19, x20, [sp, #16]
     ec4:	a9425bf5 	ldp	x21, x22, [sp, #32]
     ec8:	a8d37bfd 	ldp	x29, x30, [sp], #304
     ecc:	d65f03c0 	ret

0000000000000ed0 <kprintf.constprop.0>:
kprintf():
/home/ssysarch/Desktop/nick/jetpack_5/Jetson_Linux_R35.4.1_aarch64/Linux_for_Tegra/sources/tegra/optee-src/nv-optee/optee/optee_os/lib/libutils/ext/snprintk.c:242
     ed0:	d103c3ff 	sub	sp, sp, #0xf0
     ed4:	aa0103e8 	mov	x8, x1
     ed8:	a9037bfd 	stp	x29, x30, [sp, #48]
     edc:	9100c3fd 	add	x29, sp, #0x30
     ee0:	a90873fb 	stp	x27, x28, [sp, #128]
     ee4:	aa0003fb 	mov	x27, x0
     ee8:	12001c80 	and	w0, w4, #0xff
     eec:	b900a3e0 	str	w0, [sp, #160]
     ef0:	b00000c0 	adrp	x0, 19000 <_DYNAMIC>
     ef4:	a90453f3 	stp	x19, x20, [sp, #64]
     ef8:	b9401874 	ldr	w20, [x3, #24]
     efc:	f9409800 	ldr	x0, [x0, #304]
     f00:	a9055bf5 	stp	x21, x22, [sp, #80]
     f04:	aa0203f6 	mov	x22, x2
     f08:	f9400001 	ldr	x1, [x0]
     f0c:	f90077e1 	str	x1, [sp, #232]
     f10:	d2800001 	mov	x1, #0x0                   	// #0
     f14:	a90663f7 	stp	x23, x24, [sp, #96]
     f18:	a9076bf9 	stp	x25, x26, [sp, #112]
     f1c:	a9406873 	ldp	x19, x26, [x3]
/home/ssysarch/Desktop/nick/jetpack_5/Jetson_Linux_R35.4.1_aarch64/Linux_for_Tegra/sources/tegra/optee-src/nv-optee/optee/optee_os/lib/libutils/ext/snprintk.c:264
     f20:	b40004c8 	cbz	x8, fb8 <kprintf.constprop.0+0xe8>
/home/ssysarch/Desktop/nick/jetpack_5/Jetson_Linux_R35.4.1_aarch64/Linux_for_Tegra/sources/tegra/optee-src/nv-optee/optee/optee_os/lib/libutils/ext/snprintk.c:265
     f24:	f9400118 	ldr	x24, [x8]
/home/ssysarch/Desktop/nick/jetpack_5/Jetson_Linux_R35.4.1_aarch64/Linux_for_Tegra/sources/tegra/optee-src/nv-optee/optee/optee_os/lib/libutils/ext/snprintk.c:543
     f28:	910303ec 	add	x12, sp, #0xc0
     f2c:	d00000a0 	adrp	x0, 16000 <__text_end+0x2f44>
     f30:	91357000 	add	x0, x0, #0xd5c
/home/ssysarch/Desktop/nick/jetpack_5/Jetson_Linux_R35.4.1_aarch64/Linux_for_Tegra/sources/tegra/optee-src/nv-optee/optee/optee_os/lib/libutils/ext/snprintk.c:275
     f34:	d2800017 	mov	x23, #0x0                   	// #0
/home/ssysarch/Desktop/nick/jetpack_5/Jetson_Linux_R35.4.1_aarch64/Linux_for_Tegra/sources/tegra/optee-src/nv-optee/optee/optee_os/lib/libutils/ext/snprintk.c:273
     f38:	52800019 	mov	w25, #0x0                   	// #0
     f3c:	f9004be0 	str	x0, [sp, #144]
/home/ssysarch/Desktop/nick/jetpack_5/Jetson_Linux_R35.4.1_aarch64/Linux_for_Tegra/sources/tegra/optee-src/nv-optee/optee/optee_os/lib/libutils/ext/snprintk.c:281
     f40:	39400360 	ldrb	w0, [x27]
     f44:	7100941f 	cmp	w0, #0x25
     f48:	7a401804 	ccmp	w0, #0x0, #0x4, ne  // ne = any
     f4c:	540003a1 	b.ne	fc0 <kprintf.constprop.0+0xf0>  // b.any
/home/ssysarch/Desktop/nick/jetpack_5/Jetson_Linux_R35.4.1_aarch64/Linux_for_Tegra/sources/tegra/optee-src/nv-optee/optee/optee_os/lib/libutils/ext/snprintk.c:285
     f50:	34005260 	cbz	w0, 199c <kprintf.constprop.0+0xacc>
/home/ssysarch/Desktop/nick/jetpack_5/Jetson_Linux_R35.4.1_aarch64/Linux_for_Tegra/sources/tegra/optee-src/nv-optee/optee/optee_os/lib/libutils/ext/snprintk.c:293
     f54:	12800005 	mov	w5, #0xffffffff            	// #-1
     f58:	d00000a6 	adrp	x6, 16000 <__text_end+0x2f44>
     f5c:	9135e0c6 	add	x6, x6, #0xd78
/home/ssysarch/Desktop/nick/jetpack_5/Jetson_Linux_R35.4.1_aarch64/Linux_for_Tegra/sources/tegra/optee-src/nv-optee/optee/optee_os/lib/libutils/ext/snprintk.c:288
     f60:	9100077b 	add	x27, x27, #0x1
     f64:	2a1403e4 	mov	w4, w20
     f68:	aa1303e3 	mov	x3, x19
/home/ssysarch/Desktop/nick/jetpack_5/Jetson_Linux_R35.4.1_aarch64/Linux_for_Tegra/sources/tegra/optee-src/nv-optee/optee/optee_os/lib/libutils/ext/snprintk.c:330
     f6c:	2a0503ee 	mov	w14, w5
/home/ssysarch/Desktop/nick/jetpack_5/Jetson_Linux_R35.4.1_aarch64/Linux_for_Tegra/sources/tegra/optee-src/nv-optee/optee/optee_os/lib/libutils/ext/snprintk.c:294
     f70:	52800001 	mov	w1, #0x0                   	// #0
/home/ssysarch/Desktop/nick/jetpack_5/Jetson_Linux_R35.4.1_aarch64/Linux_for_Tegra/sources/tegra/optee-src/nv-optee/optee/optee_os/lib/libutils/ext/snprintk.c:292
     f74:	5280000a 	mov	w10, #0x0                   	// #0
/home/ssysarch/Desktop/nick/jetpack_5/Jetson_Linux_R35.4.1_aarch64/Linux_for_Tegra/sources/tegra/optee-src/nv-optee/optee/optee_os/lib/libutils/ext/snprintk.c:290
     f78:	52800015 	mov	w21, #0x0                   	// #0
/home/ssysarch/Desktop/nick/jetpack_5/Jetson_Linux_R35.4.1_aarch64/Linux_for_Tegra/sources/tegra/optee-src/nv-optee/optee/optee_os/lib/libutils/ext/snprintk.c:352
     f7c:	5280014d 	mov	w13, #0xa                   	// #10
/home/ssysarch/Desktop/nick/jetpack_5/Jetson_Linux_R35.4.1_aarch64/Linux_for_Tegra/sources/tegra/optee-src/nv-optee/optee/optee_os/lib/libutils/ext/snprintk.c:305
     f80:	5280040f 	mov	w15, #0x20                  	// #32
/home/ssysarch/Desktop/nick/jetpack_5/Jetson_Linux_R35.4.1_aarch64/Linux_for_Tegra/sources/tegra/optee-src/nv-optee/optee/optee_os/lib/libutils/ext/snprintk.c:296
     f84:	3840177c 	ldrb	w28, [x27], #1
/home/ssysarch/Desktop/nick/jetpack_5/Jetson_Linux_R35.4.1_aarch64/Linux_for_Tegra/sources/tegra/optee-src/nv-optee/optee/optee_os/lib/libutils/ext/snprintk.c:297
     f88:	7100e79f 	cmp	w28, #0x39
     f8c:	5400054c 	b.gt	1034 <kprintf.constprop.0+0x164>
     f90:	71007f9f 	cmp	w28, #0x1f
     f94:	5400502d 	b.le	1998 <kprintf.constprop.0+0xac8>
     f98:	51008380 	sub	w0, w28, #0x20
     f9c:	7100641f 	cmp	w0, #0x19
     fa0:	54000508 	b.hi	1040 <kprintf.constprop.0+0x170>  // b.pmore
     fa4:	f9404be2 	ldr	x2, [sp, #144]
     fa8:	38604840 	ldrb	w0, [x2, w0, uxtw]
     fac:	10000062 	adr	x2, fb8 <kprintf.constprop.0+0xe8>
     fb0:	8b208840 	add	x0, x2, w0, sxtb #2
     fb4:	d61f0000 	br	x0
/home/ssysarch/Desktop/nick/jetpack_5/Jetson_Linux_R35.4.1_aarch64/Linux_for_Tegra/sources/tegra/optee-src/nv-optee/optee/optee_os/lib/libutils/ext/snprintk.c:267
     fb8:	d2800018 	mov	x24, #0x0                   	// #0
     fbc:	17ffffdb 	b	f28 <kprintf.constprop.0+0x58>
/home/ssysarch/Desktop/nick/jetpack_5/Jetson_Linux_R35.4.1_aarch64/Linux_for_Tegra/sources/tegra/optee-src/nv-optee/optee/optee_os/lib/libutils/ext/snprintk.c:282
     fc0:	11000739 	add	w25, w25, #0x1
/home/ssysarch/Desktop/nick/jetpack_5/Jetson_Linux_R35.4.1_aarch64/Linux_for_Tegra/sources/tegra/optee-src/nv-optee/optee/optee_os/lib/libutils/ext/snprintk.c:283
     fc4:	b40000b6 	cbz	x22, fd8 <kprintf.constprop.0+0x108>
     fc8:	f100011f 	cmp	x8, #0x0
     fcc:	fa5812c0 	ccmp	x22, x24, #0x0, ne  // ne = any
     fd0:	54000042 	b.cs	fd8 <kprintf.constprop.0+0x108>  // b.hs, b.nlast
     fd4:	380016c0 	strb	w0, [x22], #1
/home/ssysarch/Desktop/nick/jetpack_5/Jetson_Linux_R35.4.1_aarch64/Linux_for_Tegra/sources/tegra/optee-src/nv-optee/optee/optee_os/lib/libutils/ext/snprintk.c:281
     fd8:	9100077b 	add	x27, x27, #0x1
     fdc:	17ffffd9 	b	f40 <kprintf.constprop.0+0x70>
/home/ssysarch/Desktop/nick/jetpack_5/Jetson_Linux_R35.4.1_aarch64/Linux_for_Tegra/sources/tegra/optee-src/nv-optee/optee/optee_os/lib/libutils/ext/snprintk.c:325
     fe0:	52800561 	mov	w1, #0x2b                  	// #43
     fe4:	17ffffe8 	b	f84 <kprintf.constprop.0+0xb4>
     fe8:	786058c0 	ldrh	w0, [x6, w0, uxtw #1]
     fec:	10000062 	adr	x2, ff8 <kprintf.constprop.0+0x128>
     ff0:	8b20a840 	add	x0, x2, w0, sxth #2
     ff4:	d61f0000 	br	x0
/home/ssysarch/Desktop/nick/jetpack_5/Jetson_Linux_R35.4.1_aarch64/Linux_for_Tegra/sources/tegra/optee-src/nv-optee/optee/optee_os/lib/libutils/ext/snprintk.c:480
     ff8:	d00000b7 	adrp	x23, 16000 <__text_end+0x2f44>
     ffc:	91379af7 	add	x23, x23, #0xde6
    1000:	910046f7 	add	x23, x23, #0x11
/home/ssysarch/Desktop/nick/jetpack_5/Jetson_Linux_R35.4.1_aarch64/Linux_for_Tegra/sources/tegra/optee-src/nv-optee/optee/optee_os/lib/libutils/ext/snprintk.c:481
    1004:	36384515 	tbz	w21, #7, 18a4 <kprintf.constprop.0+0x9d4>
    1008:	37f84644 	tbnz	w4, #31, 18d0 <kprintf.constprop.0+0xa00>
    100c:	91003c73 	add	x19, x3, #0xf
    1010:	2a0403f4 	mov	w20, w4
    1014:	927df273 	and	x19, x19, #0xfffffffffffffff8
    1018:	f9400062 	ldr	x2, [x3]
/home/ssysarch/Desktop/nick/jetpack_5/Jetson_Linux_R35.4.1_aarch64/Linux_for_Tegra/sources/tegra/optee-src/nv-optee/optee/optee_os/lib/libutils/ext/snprintk.c:484
    101c:	36003475 	tbz	w21, #0, 16a8 <kprintf.constprop.0+0x7d8>
    1020:	b4003442 	cbz	x2, 16a8 <kprintf.constprop.0+0x7d8>
/home/ssysarch/Desktop/nick/jetpack_5/Jetson_Linux_R35.4.1_aarch64/Linux_for_Tegra/sources/tegra/optee-src/nv-optee/optee/optee_os/lib/libutils/ext/snprintk.c:485
    1024:	321f02b5 	orr	w21, w21, #0x2
/home/ssysarch/Desktop/nick/jetpack_5/Jetson_Linux_R35.4.1_aarch64/Linux_for_Tegra/sources/tegra/optee-src/nv-optee/optee/optee_os/lib/libutils/ext/snprintk.c:482
    1028:	52800040 	mov	w0, #0x2                   	// #2
/home/ssysarch/Desktop/nick/jetpack_5/Jetson_Linux_R35.4.1_aarch64/Linux_for_Tegra/sources/tegra/optee-src/nv-optee/optee/optee_os/lib/libutils/ext/snprintk.c:488
    102c:	52800001 	mov	w1, #0x0                   	// #0
    1030:	14000078 	b	1210 <kprintf.constprop.0+0x340>
/home/ssysarch/Desktop/nick/jetpack_5/Jetson_Linux_R35.4.1_aarch64/Linux_for_Tegra/sources/tegra/optee-src/nv-optee/optee/optee_os/lib/libutils/ext/snprintk.c:297
    1034:	51011380 	sub	w0, w28, #0x44
    1038:	7100d81f 	cmp	w0, #0x36
    103c:	54fffd69 	b.ls	fe8 <kprintf.constprop.0+0x118>  // b.plast
/home/ssysarch/Desktop/nick/jetpack_5/Jetson_Linux_R35.4.1_aarch64/Linux_for_Tegra/sources/tegra/optee-src/nv-optee/optee/optee_os/lib/libutils/ext/snprintk.c:554
    1040:	2a0403f4 	mov	w20, w4
    1044:	aa0303f3 	mov	x19, x3
/home/ssysarch/Desktop/nick/jetpack_5/Jetson_Linux_R35.4.1_aarch64/Linux_for_Tegra/sources/tegra/optee-src/nv-optee/optee/optee_os/lib/libutils/ext/snprintk.c:551
    1048:	390303fc 	strb	w28, [sp, #192]
/home/ssysarch/Desktop/nick/jetpack_5/Jetson_Linux_R35.4.1_aarch64/Linux_for_Tegra/sources/tegra/optee-src/nv-optee/optee/optee_os/lib/libutils/ext/snprintk.c:554
    104c:	14000058 	b	11ac <kprintf.constprop.0+0x2dc>
/home/ssysarch/Desktop/nick/jetpack_5/Jetson_Linux_R35.4.1_aarch64/Linux_for_Tegra/sources/tegra/optee-src/nv-optee/optee/optee_os/lib/libutils/ext/snprintk.c:305
    1050:	7100003f 	cmp	w1, #0x0
    1054:	1a8f1021 	csel	w1, w1, w15, ne  // ne = any
    1058:	17ffffcb 	b	f84 <kprintf.constprop.0+0xb4>
/home/ssysarch/Desktop/nick/jetpack_5/Jetson_Linux_R35.4.1_aarch64/Linux_for_Tegra/sources/tegra/optee-src/nv-optee/optee/optee_os/lib/libutils/ext/snprintk.c:308
    105c:	320002b5 	orr	w21, w21, #0x1
/home/ssysarch/Desktop/nick/jetpack_5/Jetson_Linux_R35.4.1_aarch64/Linux_for_Tegra/sources/tegra/optee-src/nv-optee/optee/optee_os/lib/libutils/ext/snprintk.c:309
    1060:	17ffffc9 	b	f84 <kprintf.constprop.0+0xb4>
/home/ssysarch/Desktop/nick/jetpack_5/Jetson_Linux_R35.4.1_aarch64/Linux_for_Tegra/sources/tegra/optee-src/nv-optee/optee/optee_os/lib/libutils/ext/snprintk.c:317
    1064:	37f80124 	tbnz	w4, #31, 1088 <kprintf.constprop.0+0x1b8>
    1068:	91002c62 	add	x2, x3, #0xb
    106c:	aa0303e0 	mov	x0, x3
    1070:	927df043 	and	x3, x2, #0xfffffffffffffff8
    1074:	b940000a 	ldr	w10, [x0]
    1078:	36fff86a 	tbz	w10, #31, f84 <kprintf.constprop.0+0xb4>
/home/ssysarch/Desktop/nick/jetpack_5/Jetson_Linux_R35.4.1_aarch64/Linux_for_Tegra/sources/tegra/optee-src/nv-optee/optee/optee_os/lib/libutils/ext/snprintk.c:319
    107c:	4b0a03ea 	neg	w10, w10
/home/ssysarch/Desktop/nick/jetpack_5/Jetson_Linux_R35.4.1_aarch64/Linux_for_Tegra/sources/tegra/optee-src/nv-optee/optee/optee_os/lib/libutils/ext/snprintk.c:322
    1080:	321e02b5 	orr	w21, w21, #0x4
/home/ssysarch/Desktop/nick/jetpack_5/Jetson_Linux_R35.4.1_aarch64/Linux_for_Tegra/sources/tegra/optee-src/nv-optee/optee/optee_os/lib/libutils/ext/snprintk.c:323
    1084:	17ffffc0 	b	f84 <kprintf.constprop.0+0xb4>
/home/ssysarch/Desktop/nick/jetpack_5/Jetson_Linux_R35.4.1_aarch64/Linux_for_Tegra/sources/tegra/optee-src/nv-optee/optee/optee_os/lib/libutils/ext/snprintk.c:317
    1088:	11002082 	add	w2, w4, #0x8
    108c:	7100005f 	cmp	w2, #0x0
    1090:	540000cd 	b.le	10a8 <kprintf.constprop.0+0x1d8>
    1094:	91002c67 	add	x7, x3, #0xb
    1098:	aa0303e0 	mov	x0, x3
    109c:	2a0203e4 	mov	w4, w2
    10a0:	927df0e3 	and	x3, x7, #0xfffffffffffffff8
    10a4:	17fffff4 	b	1074 <kprintf.constprop.0+0x1a4>
    10a8:	8b24c340 	add	x0, x26, w4, sxtw
    10ac:	2a0203e4 	mov	w4, w2
    10b0:	17fffff1 	b	1074 <kprintf.constprop.0+0x1a4>
/home/ssysarch/Desktop/nick/jetpack_5/Jetson_Linux_R35.4.1_aarch64/Linux_for_Tegra/sources/tegra/optee-src/nv-optee/optee/optee_os/lib/libutils/ext/snprintk.c:328
    10b4:	3840177c 	ldrb	w28, [x27], #1
    10b8:	7100ab9f 	cmp	w28, #0x2a
    10bc:	54000341 	b.ne	1124 <kprintf.constprop.0+0x254>  // b.any
/home/ssysarch/Desktop/nick/jetpack_5/Jetson_Linux_R35.4.1_aarch64/Linux_for_Tegra/sources/tegra/optee-src/nv-optee/optee/optee_os/lib/libutils/ext/snprintk.c:329
    10c0:	37f80144 	tbnz	w4, #31, 10e8 <kprintf.constprop.0+0x218>
    10c4:	91002c62 	add	x2, x3, #0xb
    10c8:	2a0403e7 	mov	w7, w4
    10cc:	927df042 	and	x2, x2, #0xfffffffffffffff8
/home/ssysarch/Desktop/nick/jetpack_5/Jetson_Linux_R35.4.1_aarch64/Linux_for_Tegra/sources/tegra/optee-src/nv-optee/optee/optee_os/lib/libutils/ext/snprintk.c:330
    10d0:	b9400065 	ldr	w5, [x3]
/home/ssysarch/Desktop/nick/jetpack_5/Jetson_Linux_R35.4.1_aarch64/Linux_for_Tegra/sources/tegra/optee-src/nv-optee/optee/optee_os/lib/libutils/ext/snprintk.c:331
    10d4:	2a0703e4 	mov	w4, w7
    10d8:	aa0203e3 	mov	x3, x2
/home/ssysarch/Desktop/nick/jetpack_5/Jetson_Linux_R35.4.1_aarch64/Linux_for_Tegra/sources/tegra/optee-src/nv-optee/optee/optee_os/lib/libutils/ext/snprintk.c:330
    10dc:	710000bf 	cmp	w5, #0x0
    10e0:	1a8ea0a5 	csel	w5, w5, w14, ge  // ge = tcont
/home/ssysarch/Desktop/nick/jetpack_5/Jetson_Linux_R35.4.1_aarch64/Linux_for_Tegra/sources/tegra/optee-src/nv-optee/optee/optee_os/lib/libutils/ext/snprintk.c:331
    10e4:	17ffffa8 	b	f84 <kprintf.constprop.0+0xb4>
/home/ssysarch/Desktop/nick/jetpack_5/Jetson_Linux_R35.4.1_aarch64/Linux_for_Tegra/sources/tegra/optee-src/nv-optee/optee/optee_os/lib/libutils/ext/snprintk.c:329
    10e8:	11002087 	add	w7, w4, #0x8
    10ec:	710000ff 	cmp	w7, #0x0
    10f0:	5400008d 	b.le	1100 <kprintf.constprop.0+0x230>
    10f4:	91002c62 	add	x2, x3, #0xb
    10f8:	927df042 	and	x2, x2, #0xfffffffffffffff8
    10fc:	17fffff5 	b	10d0 <kprintf.constprop.0+0x200>
    1100:	aa0303e2 	mov	x2, x3
    1104:	8b24c343 	add	x3, x26, w4, sxtw
    1108:	17fffff2 	b	10d0 <kprintf.constprop.0+0x200>
/home/ssysarch/Desktop/nick/jetpack_5/Jetson_Linux_R35.4.1_aarch64/Linux_for_Tegra/sources/tegra/optee-src/nv-optee/optee/optee_os/lib/libutils/ext/snprintk.c:335
    110c:	1b0d00a5 	madd	w5, w5, w13, w0
/home/ssysarch/Desktop/nick/jetpack_5/Jetson_Linux_R35.4.1_aarch64/Linux_for_Tegra/sources/tegra/optee-src/nv-optee/optee/optee_os/lib/libutils/ext/snprintk.c:336
    1110:	3840177c 	ldrb	w28, [x27], #1
/home/ssysarch/Desktop/nick/jetpack_5/Jetson_Linux_R35.4.1_aarch64/Linux_for_Tegra/sources/tegra/optee-src/nv-optee/optee/optee_os/lib/libutils/ext/snprintk.c:334
    1114:	5100c380 	sub	w0, w28, #0x30
    1118:	7100241f 	cmp	w0, #0x9
    111c:	54ffff89 	b.ls	110c <kprintf.constprop.0+0x23c>  // b.plast
    1120:	17ffff9a 	b	f88 <kprintf.constprop.0+0xb8>
/home/ssysarch/Desktop/nick/jetpack_5/Jetson_Linux_R35.4.1_aarch64/Linux_for_Tegra/sources/tegra/optee-src/nv-optee/optee/optee_os/lib/libutils/ext/snprintk.c:333
    1124:	52800005 	mov	w5, #0x0                   	// #0
    1128:	17fffffb 	b	1114 <kprintf.constprop.0+0x244>
/home/ssysarch/Desktop/nick/jetpack_5/Jetson_Linux_R35.4.1_aarch64/Linux_for_Tegra/sources/tegra/optee-src/nv-optee/optee/optee_os/lib/libutils/ext/snprintk.c:346
    112c:	321602b5 	orr	w21, w21, #0x400
/home/ssysarch/Desktop/nick/jetpack_5/Jetson_Linux_R35.4.1_aarch64/Linux_for_Tegra/sources/tegra/optee-src/nv-optee/optee/optee_os/lib/libutils/ext/snprintk.c:347
    1130:	17ffff95 	b	f84 <kprintf.constprop.0+0xb4>
/home/ssysarch/Desktop/nick/jetpack_5/Jetson_Linux_R35.4.1_aarch64/Linux_for_Tegra/sources/tegra/optee-src/nv-optee/optee/optee_os/lib/libutils/ext/snprintk.c:297
    1134:	5280000a 	mov	w10, #0x0                   	// #0
/home/ssysarch/Desktop/nick/jetpack_5/Jetson_Linux_R35.4.1_aarch64/Linux_for_Tegra/sources/tegra/optee-src/nv-optee/optee/optee_os/lib/libutils/ext/snprintk.c:352
    1138:	5100c39c 	sub	w28, w28, #0x30
    113c:	1b0d714a 	madd	w10, w10, w13, w28
/home/ssysarch/Desktop/nick/jetpack_5/Jetson_Linux_R35.4.1_aarch64/Linux_for_Tegra/sources/tegra/optee-src/nv-optee/optee/optee_os/lib/libutils/ext/snprintk.c:353
    1140:	3840177c 	ldrb	w28, [x27], #1
/home/ssysarch/Desktop/nick/jetpack_5/Jetson_Linux_R35.4.1_aarch64/Linux_for_Tegra/sources/tegra/optee-src/nv-optee/optee/optee_os/lib/libutils/ext/snprintk.c:354
    1144:	5100c380 	sub	w0, w28, #0x30
    1148:	7100241f 	cmp	w0, #0x9
    114c:	54ffff69 	b.ls	1138 <kprintf.constprop.0+0x268>  // b.plast
    1150:	17ffff8e 	b	f88 <kprintf.constprop.0+0xb8>
/home/ssysarch/Desktop/nick/jetpack_5/Jetson_Linux_R35.4.1_aarch64/Linux_for_Tegra/sources/tegra/optee-src/nv-optee/optee/optee_os/lib/libutils/ext/snprintk.c:358
    1154:	321a02b5 	orr	w21, w21, #0x40
/home/ssysarch/Desktop/nick/jetpack_5/Jetson_Linux_R35.4.1_aarch64/Linux_for_Tegra/sources/tegra/optee-src/nv-optee/optee/optee_os/lib/libutils/ext/snprintk.c:359
    1158:	17ffff8b 	b	f84 <kprintf.constprop.0+0xb4>
/home/ssysarch/Desktop/nick/jetpack_5/Jetson_Linux_R35.4.1_aarch64/Linux_for_Tegra/sources/tegra/optee-src/nv-optee/optee/optee_os/lib/libutils/ext/snprintk.c:361
    115c:	321902b5 	orr	w21, w21, #0x80
/home/ssysarch/Desktop/nick/jetpack_5/Jetson_Linux_R35.4.1_aarch64/Linux_for_Tegra/sources/tegra/optee-src/nv-optee/optee/optee_os/lib/libutils/ext/snprintk.c:362
    1160:	17ffff89 	b	f84 <kprintf.constprop.0+0xb4>
/home/ssysarch/Desktop/nick/jetpack_5/Jetson_Linux_R35.4.1_aarch64/Linux_for_Tegra/sources/tegra/optee-src/nv-optee/optee/optee_os/lib/libutils/ext/snprintk.c:364
    1164:	39400360 	ldrb	w0, [x27]
    1168:	7101b01f 	cmp	w0, #0x6c
    116c:	54000081 	b.ne	117c <kprintf.constprop.0+0x2ac>  // b.any
    1170:	9100077b 	add	x27, x27, #0x1
/home/ssysarch/Desktop/nick/jetpack_5/Jetson_Linux_R35.4.1_aarch64/Linux_for_Tegra/sources/tegra/optee-src/nv-optee/optee/optee_os/lib/libutils/ext/snprintk.c:372
    1174:	321b02b5 	orr	w21, w21, #0x20
/home/ssysarch/Desktop/nick/jetpack_5/Jetson_Linux_R35.4.1_aarch64/Linux_for_Tegra/sources/tegra/optee-src/nv-optee/optee/optee_os/lib/libutils/ext/snprintk.c:373
    1178:	17ffff83 	b	f84 <kprintf.constprop.0+0xb4>
/home/ssysarch/Desktop/nick/jetpack_5/Jetson_Linux_R35.4.1_aarch64/Linux_for_Tegra/sources/tegra/optee-src/nv-optee/optee/optee_os/lib/libutils/ext/snprintk.c:368
    117c:	321c02b5 	orr	w21, w21, #0x10
    1180:	17ffff81 	b	f84 <kprintf.constprop.0+0xb4>
/home/ssysarch/Desktop/nick/jetpack_5/Jetson_Linux_R35.4.1_aarch64/Linux_for_Tegra/sources/tegra/optee-src/nv-optee/optee/optee_os/lib/libutils/ext/snprintk.c:375
    1184:	321802b5 	orr	w21, w21, #0x100
/home/ssysarch/Desktop/nick/jetpack_5/Jetson_Linux_R35.4.1_aarch64/Linux_for_Tegra/sources/tegra/optee-src/nv-optee/optee/optee_os/lib/libutils/ext/snprintk.c:376
    1188:	17ffff7f 	b	f84 <kprintf.constprop.0+0xb4>
/home/ssysarch/Desktop/nick/jetpack_5/Jetson_Linux_R35.4.1_aarch64/Linux_for_Tegra/sources/tegra/optee-src/nv-optee/optee/optee_os/lib/libutils/ext/snprintk.c:378
    118c:	321702b5 	orr	w21, w21, #0x200
/home/ssysarch/Desktop/nick/jetpack_5/Jetson_Linux_R35.4.1_aarch64/Linux_for_Tegra/sources/tegra/optee-src/nv-optee/optee/optee_os/lib/libutils/ext/snprintk.c:379
    1190:	17ffff7d 	b	f84 <kprintf.constprop.0+0xb4>
/home/ssysarch/Desktop/nick/jetpack_5/Jetson_Linux_R35.4.1_aarch64/Linux_for_Tegra/sources/tegra/optee-src/nv-optee/optee/optee_os/lib/libutils/ext/snprintk.c:381
    1194:	37f80164 	tbnz	w4, #31, 11c0 <kprintf.constprop.0+0x2f0>
    1198:	91002c73 	add	x19, x3, #0xb
    119c:	2a0403f4 	mov	w20, w4
    11a0:	927df273 	and	x19, x19, #0xfffffffffffffff8
    11a4:	b9400060 	ldr	w0, [x3]
    11a8:	390303e0 	strb	w0, [sp, #192]
/home/ssysarch/Desktop/nick/jetpack_5/Jetson_Linux_R35.4.1_aarch64/Linux_for_Tegra/sources/tegra/optee-src/nv-optee/optee/optee_os/lib/libutils/ext/snprintk.c:550
    11ac:	910303e3 	add	x3, sp, #0xc0
/home/ssysarch/Desktop/nick/jetpack_5/Jetson_Linux_R35.4.1_aarch64/Linux_for_Tegra/sources/tegra/optee-src/nv-optee/optee/optee_os/lib/libutils/ext/snprintk.c:552
    11b0:	52800025 	mov	w5, #0x1                   	// #1
/home/ssysarch/Desktop/nick/jetpack_5/Jetson_Linux_R35.4.1_aarch64/Linux_for_Tegra/sources/tegra/optee-src/nv-optee/optee/optee_os/lib/libutils/ext/snprintk.c:291
    11b4:	52800006 	mov	w6, #0x0                   	// #0
/home/ssysarch/Desktop/nick/jetpack_5/Jetson_Linux_R35.4.1_aarch64/Linux_for_Tegra/sources/tegra/optee-src/nv-optee/optee/optee_os/lib/libutils/ext/snprintk.c:553
    11b8:	52800001 	mov	w1, #0x0                   	// #0
/home/ssysarch/Desktop/nick/jetpack_5/Jetson_Linux_R35.4.1_aarch64/Linux_for_Tegra/sources/tegra/optee-src/nv-optee/optee/optee_os/lib/libutils/ext/snprintk.c:554
    11bc:	140000fa 	b	15a4 <kprintf.constprop.0+0x6d4>
/home/ssysarch/Desktop/nick/jetpack_5/Jetson_Linux_R35.4.1_aarch64/Linux_for_Tegra/sources/tegra/optee-src/nv-optee/optee/optee_os/lib/libutils/ext/snprintk.c:381
    11c0:	11002094 	add	w20, w4, #0x8
    11c4:	7100029f 	cmp	w20, #0x0
    11c8:	5400008d 	b.le	11d8 <kprintf.constprop.0+0x308>
    11cc:	91002c73 	add	x19, x3, #0xb
    11d0:	927df273 	and	x19, x19, #0xfffffffffffffff8
    11d4:	17fffff4 	b	11a4 <kprintf.constprop.0+0x2d4>
    11d8:	aa0303f3 	mov	x19, x3
    11dc:	8b24c343 	add	x3, x26, w4, sxtw
    11e0:	17fffff1 	b	11a4 <kprintf.constprop.0+0x2d4>
/home/ssysarch/Desktop/nick/jetpack_5/Jetson_Linux_R35.4.1_aarch64/Linux_for_Tegra/sources/tegra/optee-src/nv-optee/optee/optee_os/lib/libutils/ext/snprintk.c:386
    11e4:	321c02b5 	orr	w21, w21, #0x10
/home/ssysarch/Desktop/nick/jetpack_5/Jetson_Linux_R35.4.1_aarch64/Linux_for_Tegra/sources/tegra/optee-src/nv-optee/optee/optee_os/lib/libutils/ext/snprintk.c:390
    11e8:	363802f5 	tbz	w21, #7, 1244 <kprintf.constprop.0+0x374>
    11ec:	37f80424 	tbnz	w4, #31, 1270 <kprintf.constprop.0+0x3a0>
    11f0:	91003c73 	add	x19, x3, #0xf
    11f4:	2a0403f4 	mov	w20, w4
    11f8:	927df273 	and	x19, x19, #0xfffffffffffffff8
    11fc:	f9400062 	ldr	x2, [x3]
/home/ssysarch/Desktop/nick/jetpack_5/Jetson_Linux_R35.4.1_aarch64/Linux_for_Tegra/sources/tegra/optee-src/nv-optee/optee/optee_os/lib/libutils/ext/snprintk.c:391
    1200:	b6f82e02 	tbz	x2, #63, 17c0 <kprintf.constprop.0+0x8f0>
/home/ssysarch/Desktop/nick/jetpack_5/Jetson_Linux_R35.4.1_aarch64/Linux_for_Tegra/sources/tegra/optee-src/nv-optee/optee/optee_os/lib/libutils/ext/snprintk.c:392
    1204:	cb0203e2 	neg	x2, x2
/home/ssysarch/Desktop/nick/jetpack_5/Jetson_Linux_R35.4.1_aarch64/Linux_for_Tegra/sources/tegra/optee-src/nv-optee/optee/optee_os/lib/libutils/ext/snprintk.c:395
    1208:	52800020 	mov	w0, #0x1                   	// #1
/home/ssysarch/Desktop/nick/jetpack_5/Jetson_Linux_R35.4.1_aarch64/Linux_for_Tegra/sources/tegra/optee-src/nv-optee/optee/optee_os/lib/libutils/ext/snprintk.c:393
    120c:	528005a1 	mov	w1, #0x2d                  	// #45
/home/ssysarch/Desktop/nick/jetpack_5/Jetson_Linux_R35.4.1_aarch64/Linux_for_Tegra/sources/tegra/optee-src/nv-optee/optee/optee_os/lib/libutils/ext/snprintk.c:494
    1210:	310004bf 	cmn	w5, #0x1
    1214:	54003a21 	b.ne	1958 <kprintf.constprop.0+0xa88>  // b.any
/home/ssysarch/Desktop/nick/jetpack_5/Jetson_Linux_R35.4.1_aarch64/Linux_for_Tegra/sources/tegra/optee-src/nv-optee/optee/optee_os/lib/libutils/ext/snprintk.c:509
    1218:	7100041f 	cmp	w0, #0x1
    121c:	54002d60 	b.eq	17c8 <kprintf.constprop.0+0x8f8>  // b.none
    1220:	7100081f 	cmp	w0, #0x2
    1224:	54000ea1 	b.ne	13f8 <kprintf.constprop.0+0x528>  // b.any
/home/ssysarch/Desktop/nick/jetpack_5/Jetson_Linux_R35.4.1_aarch64/Linux_for_Tegra/sources/tegra/optee-src/nv-optee/optee/optee_os/lib/libutils/ext/snprintk.c:502
    1228:	91009583 	add	x3, x12, #0x25
/home/ssysarch/Desktop/nick/jetpack_5/Jetson_Linux_R35.4.1_aarch64/Linux_for_Tegra/sources/tegra/optee-src/nv-optee/optee/optee_os/lib/libutils/ext/snprintk.c:531
    122c:	92400c40 	and	x0, x2, #0xf
/home/ssysarch/Desktop/nick/jetpack_5/Jetson_Linux_R35.4.1_aarch64/Linux_for_Tegra/sources/tegra/optee-src/nv-optee/optee/optee_os/lib/libutils/ext/snprintk.c:532
    1230:	d344fc42 	lsr	x2, x2, #4
/home/ssysarch/Desktop/nick/jetpack_5/Jetson_Linux_R35.4.1_aarch64/Linux_for_Tegra/sources/tegra/optee-src/nv-optee/optee/optee_os/lib/libutils/ext/snprintk.c:531
    1234:	38606ae0 	ldrb	w0, [x23, x0]
    1238:	381ffc60 	strb	w0, [x3, #-1]!
/home/ssysarch/Desktop/nick/jetpack_5/Jetson_Linux_R35.4.1_aarch64/Linux_for_Tegra/sources/tegra/optee-src/nv-optee/optee/optee_os/lib/libutils/ext/snprintk.c:533
    123c:	b5ffff82 	cbnz	x2, 122c <kprintf.constprop.0+0x35c>
    1240:	1400007b 	b	142c <kprintf.constprop.0+0x55c>
/home/ssysarch/Desktop/nick/jetpack_5/Jetson_Linux_R35.4.1_aarch64/Linux_for_Tegra/sources/tegra/optee-src/nv-optee/optee/optee_os/lib/libutils/ext/snprintk.c:390
    1244:	3747fd55 	tbnz	w21, #8, 11ec <kprintf.constprop.0+0x31c>
    1248:	374ffd35 	tbnz	w21, #9, 11ec <kprintf.constprop.0+0x31c>
    124c:	372ffd15 	tbnz	w21, #5, 11ec <kprintf.constprop.0+0x31c>
    1250:	3727fcf5 	tbnz	w21, #4, 11ec <kprintf.constprop.0+0x31c>
    1254:	36300335 	tbz	w21, #6, 12b8 <kprintf.constprop.0+0x3e8>
    1258:	37f801e4 	tbnz	w4, #31, 1294 <kprintf.constprop.0+0x3c4>
    125c:	91002c73 	add	x19, x3, #0xb
    1260:	2a0403f4 	mov	w20, w4
    1264:	927df273 	and	x19, x19, #0xfffffffffffffff8
    1268:	79800062 	ldrsh	x2, [x3]
    126c:	17ffffe5 	b	1200 <kprintf.constprop.0+0x330>
    1270:	11002094 	add	w20, w4, #0x8
    1274:	7100029f 	cmp	w20, #0x0
    1278:	5400008d 	b.le	1288 <kprintf.constprop.0+0x3b8>
    127c:	91003c73 	add	x19, x3, #0xf
    1280:	927df273 	and	x19, x19, #0xfffffffffffffff8
    1284:	17ffffde 	b	11fc <kprintf.constprop.0+0x32c>
    1288:	aa0303f3 	mov	x19, x3
    128c:	8b24c343 	add	x3, x26, w4, sxtw
    1290:	17ffffdb 	b	11fc <kprintf.constprop.0+0x32c>
    1294:	11002094 	add	w20, w4, #0x8
    1298:	7100029f 	cmp	w20, #0x0
    129c:	5400008d 	b.le	12ac <kprintf.constprop.0+0x3dc>
    12a0:	91002c73 	add	x19, x3, #0xb
    12a4:	927df273 	and	x19, x19, #0xfffffffffffffff8
    12a8:	17fffff0 	b	1268 <kprintf.constprop.0+0x398>
    12ac:	aa0303f3 	mov	x19, x3
    12b0:	8b24c343 	add	x3, x26, w4, sxtw
    12b4:	17ffffed 	b	1268 <kprintf.constprop.0+0x398>
    12b8:	37f800c4 	tbnz	w4, #31, 12d0 <kprintf.constprop.0+0x400>
    12bc:	91002c73 	add	x19, x3, #0xb
    12c0:	2a0403f4 	mov	w20, w4
    12c4:	927df273 	and	x19, x19, #0xfffffffffffffff8
    12c8:	b9800062 	ldrsw	x2, [x3]
    12cc:	17ffffcd 	b	1200 <kprintf.constprop.0+0x330>
    12d0:	11002094 	add	w20, w4, #0x8
    12d4:	7100029f 	cmp	w20, #0x0
    12d8:	5400008d 	b.le	12e8 <kprintf.constprop.0+0x418>
    12dc:	91002c73 	add	x19, x3, #0xb
    12e0:	927df273 	and	x19, x19, #0xfffffffffffffff8
    12e4:	17fffff9 	b	12c8 <kprintf.constprop.0+0x3f8>
    12e8:	aa0303f3 	mov	x19, x3
    12ec:	8b24c343 	add	x3, x26, w4, sxtw
    12f0:	17fffff6 	b	12c8 <kprintf.constprop.0+0x3f8>
/home/ssysarch/Desktop/nick/jetpack_5/Jetson_Linux_R35.4.1_aarch64/Linux_for_Tegra/sources/tegra/optee-src/nv-optee/optee/optee_os/lib/libutils/ext/snprintk.c:398
    12f4:	36380135 	tbz	w21, #7, 1318 <kprintf.constprop.0+0x448>
/home/ssysarch/Desktop/nick/jetpack_5/Jetson_Linux_R35.4.1_aarch64/Linux_for_Tegra/sources/tegra/optee-src/nv-optee/optee/optee_os/lib/libutils/ext/snprintk.c:407
    12f8:	37f80284 	tbnz	w4, #31, 1348 <kprintf.constprop.0+0x478>
    12fc:	91003c73 	add	x19, x3, #0xf
    1300:	2a0403f4 	mov	w20, w4
    1304:	927df273 	and	x19, x19, #0xfffffffffffffff8
    1308:	f9400060 	ldr	x0, [x3]
    130c:	93407f21 	sxtw	x1, w25
    1310:	f9000001 	str	x1, [x0]
    1314:	17ffff0b 	b	f40 <kprintf.constprop.0+0x70>
/home/ssysarch/Desktop/nick/jetpack_5/Jetson_Linux_R35.4.1_aarch64/Linux_for_Tegra/sources/tegra/optee-src/nv-optee/optee/optee_os/lib/libutils/ext/snprintk.c:400
    1318:	3747ff15 	tbnz	w21, #8, 12f8 <kprintf.constprop.0+0x428>
/home/ssysarch/Desktop/nick/jetpack_5/Jetson_Linux_R35.4.1_aarch64/Linux_for_Tegra/sources/tegra/optee-src/nv-optee/optee/optee_os/lib/libutils/ext/snprintk.c:402
    131c:	374ffef5 	tbnz	w21, #9, 12f8 <kprintf.constprop.0+0x428>
/home/ssysarch/Desktop/nick/jetpack_5/Jetson_Linux_R35.4.1_aarch64/Linux_for_Tegra/sources/tegra/optee-src/nv-optee/optee/optee_os/lib/libutils/ext/snprintk.c:404
    1320:	372ffed5 	tbnz	w21, #5, 12f8 <kprintf.constprop.0+0x428>
/home/ssysarch/Desktop/nick/jetpack_5/Jetson_Linux_R35.4.1_aarch64/Linux_for_Tegra/sources/tegra/optee-src/nv-optee/optee/optee_os/lib/libutils/ext/snprintk.c:406
    1324:	3727feb5 	tbnz	w21, #4, 12f8 <kprintf.constprop.0+0x428>
/home/ssysarch/Desktop/nick/jetpack_5/Jetson_Linux_R35.4.1_aarch64/Linux_for_Tegra/sources/tegra/optee-src/nv-optee/optee/optee_os/lib/libutils/ext/snprintk.c:408
    1328:	36300355 	tbz	w21, #6, 1390 <kprintf.constprop.0+0x4c0>
/home/ssysarch/Desktop/nick/jetpack_5/Jetson_Linux_R35.4.1_aarch64/Linux_for_Tegra/sources/tegra/optee-src/nv-optee/optee/optee_os/lib/libutils/ext/snprintk.c:409
    132c:	37f80204 	tbnz	w4, #31, 136c <kprintf.constprop.0+0x49c>
    1330:	91003c73 	add	x19, x3, #0xf
    1334:	2a0403f4 	mov	w20, w4
    1338:	927df273 	and	x19, x19, #0xfffffffffffffff8
    133c:	f9400060 	ldr	x0, [x3]
    1340:	79000019 	strh	w25, [x0]
    1344:	17fffeff 	b	f40 <kprintf.constprop.0+0x70>
/home/ssysarch/Desktop/nick/jetpack_5/Jetson_Linux_R35.4.1_aarch64/Linux_for_Tegra/sources/tegra/optee-src/nv-optee/optee/optee_os/lib/libutils/ext/snprintk.c:407
    1348:	11002094 	add	w20, w4, #0x8
    134c:	7100029f 	cmp	w20, #0x0
    1350:	5400008d 	b.le	1360 <kprintf.constprop.0+0x490>
    1354:	91003c73 	add	x19, x3, #0xf
    1358:	927df273 	and	x19, x19, #0xfffffffffffffff8
    135c:	17ffffeb 	b	1308 <kprintf.constprop.0+0x438>
    1360:	aa0303f3 	mov	x19, x3
    1364:	8b24c343 	add	x3, x26, w4, sxtw
    1368:	17ffffe8 	b	1308 <kprintf.constprop.0+0x438>
/home/ssysarch/Desktop/nick/jetpack_5/Jetson_Linux_R35.4.1_aarch64/Linux_for_Tegra/sources/tegra/optee-src/nv-optee/optee/optee_os/lib/libutils/ext/snprintk.c:409
    136c:	11002094 	add	w20, w4, #0x8
    1370:	7100029f 	cmp	w20, #0x0
    1374:	5400008d 	b.le	1384 <kprintf.constprop.0+0x4b4>
    1378:	91003c73 	add	x19, x3, #0xf
    137c:	927df273 	and	x19, x19, #0xfffffffffffffff8
    1380:	17ffffef 	b	133c <kprintf.constprop.0+0x46c>
    1384:	aa0303f3 	mov	x19, x3
    1388:	8b24c343 	add	x3, x26, w4, sxtw
    138c:	17ffffec 	b	133c <kprintf.constprop.0+0x46c>
/home/ssysarch/Desktop/nick/jetpack_5/Jetson_Linux_R35.4.1_aarch64/Linux_for_Tegra/sources/tegra/optee-src/nv-optee/optee/optee_os/lib/libutils/ext/snprintk.c:411
    1390:	37f800e4 	tbnz	w4, #31, 13ac <kprintf.constprop.0+0x4dc>
    1394:	91003c73 	add	x19, x3, #0xf
    1398:	2a0403f4 	mov	w20, w4
    139c:	927df273 	and	x19, x19, #0xfffffffffffffff8
    13a0:	f9400060 	ldr	x0, [x3]
    13a4:	b9000019 	str	w25, [x0]
    13a8:	17fffee6 	b	f40 <kprintf.constprop.0+0x70>
    13ac:	11002094 	add	w20, w4, #0x8
    13b0:	7100029f 	cmp	w20, #0x0
    13b4:	5400008d 	b.le	13c4 <kprintf.constprop.0+0x4f4>
    13b8:	91003c73 	add	x19, x3, #0xf
    13bc:	927df273 	and	x19, x19, #0xfffffffffffffff8
    13c0:	17fffff8 	b	13a0 <kprintf.constprop.0+0x4d0>
    13c4:	aa0303f3 	mov	x19, x3
    13c8:	8b24c343 	add	x3, x26, w4, sxtw
    13cc:	17fffff5 	b	13a0 <kprintf.constprop.0+0x4d0>
/home/ssysarch/Desktop/nick/jetpack_5/Jetson_Linux_R35.4.1_aarch64/Linux_for_Tegra/sources/tegra/optee-src/nv-optee/optee/optee_os/lib/libutils/ext/snprintk.c:414
    13d0:	321c02b5 	orr	w21, w21, #0x10
/home/ssysarch/Desktop/nick/jetpack_5/Jetson_Linux_R35.4.1_aarch64/Linux_for_Tegra/sources/tegra/optee-src/nv-optee/optee/optee_os/lib/libutils/ext/snprintk.c:417
    13d4:	36380355 	tbz	w21, #7, 143c <kprintf.constprop.0+0x56c>
    13d8:	37f80484 	tbnz	w4, #31, 1468 <kprintf.constprop.0+0x598>
    13dc:	91003c73 	add	x19, x3, #0xf
    13e0:	2a0403f4 	mov	w20, w4
    13e4:	927df273 	and	x19, x19, #0xfffffffffffffff8
    13e8:	f9400062 	ldr	x2, [x3]
/home/ssysarch/Desktop/nick/jetpack_5/Jetson_Linux_R35.4.1_aarch64/Linux_for_Tegra/sources/tegra/optee-src/nv-optee/optee/optee_os/lib/libutils/ext/snprintk.c:494
    13ec:	310004bf 	cmn	w5, #0x1
    13f0:	52800001 	mov	w1, #0x0                   	// #0
    13f4:	54002b01 	b.ne	1954 <kprintf.constprop.0+0xa84>  // b.any
/home/ssysarch/Desktop/nick/jetpack_5/Jetson_Linux_R35.4.1_aarch64/Linux_for_Tegra/sources/tegra/optee-src/nv-optee/optee/optee_os/lib/libutils/ext/snprintk.c:502
    13f8:	91009583 	add	x3, x12, #0x25
/home/ssysarch/Desktop/nick/jetpack_5/Jetson_Linux_R35.4.1_aarch64/Linux_for_Tegra/sources/tegra/optee-src/nv-optee/optee/optee_os/lib/libutils/ext/snprintk.c:512
    13fc:	12000840 	and	w0, w2, #0x7
    1400:	aa0303e4 	mov	x4, x3
    1404:	1100c000 	add	w0, w0, #0x30
    1408:	381ffc60 	strb	w0, [x3, #-1]!
/home/ssysarch/Desktop/nick/jetpack_5/Jetson_Linux_R35.4.1_aarch64/Linux_for_Tegra/sources/tegra/optee-src/nv-optee/optee/optee_os/lib/libutils/ext/snprintk.c:513
    140c:	d343fc42 	lsr	x2, x2, #3
/home/ssysarch/Desktop/nick/jetpack_5/Jetson_Linux_R35.4.1_aarch64/Linux_for_Tegra/sources/tegra/optee-src/nv-optee/optee/optee_os/lib/libutils/ext/snprintk.c:514
    1410:	b5ffff62 	cbnz	x2, 13fc <kprintf.constprop.0+0x52c>
/home/ssysarch/Desktop/nick/jetpack_5/Jetson_Linux_R35.4.1_aarch64/Linux_for_Tegra/sources/tegra/optee-src/nv-optee/optee/optee_os/lib/libutils/ext/snprintk.c:516
    1414:	360000d5 	tbz	w21, #0, 142c <kprintf.constprop.0+0x55c>
    1418:	7100c01f 	cmp	w0, #0x30
    141c:	54000080 	b.eq	142c <kprintf.constprop.0+0x55c>  // b.none
/home/ssysarch/Desktop/nick/jetpack_5/Jetson_Linux_R35.4.1_aarch64/Linux_for_Tegra/sources/tegra/optee-src/nv-optee/optee/optee_os/lib/libutils/ext/snprintk.c:517
    1420:	52800600 	mov	w0, #0x30                  	// #48
    1424:	381ff060 	sturb	w0, [x3, #-1]
    1428:	d1000883 	sub	x3, x4, #0x2
/home/ssysarch/Desktop/nick/jetpack_5/Jetson_Linux_R35.4.1_aarch64/Linux_for_Tegra/sources/tegra/optee-src/nv-optee/optee/optee_os/lib/libutils/ext/snprintk.c:543
    142c:	91009580 	add	x0, x12, #0x25
    1430:	2a0503e6 	mov	w6, w5
    1434:	4b030005 	sub	w5, w0, w3
    1438:	1400005b 	b	15a4 <kprintf.constprop.0+0x6d4>
/home/ssysarch/Desktop/nick/jetpack_5/Jetson_Linux_R35.4.1_aarch64/Linux_for_Tegra/sources/tegra/optee-src/nv-optee/optee/optee_os/lib/libutils/ext/snprintk.c:417
    143c:	3747fcf5 	tbnz	w21, #8, 13d8 <kprintf.constprop.0+0x508>
    1440:	374ffcd5 	tbnz	w21, #9, 13d8 <kprintf.constprop.0+0x508>
    1444:	372ffcb5 	tbnz	w21, #5, 13d8 <kprintf.constprop.0+0x508>
    1448:	3727fc95 	tbnz	w21, #4, 13d8 <kprintf.constprop.0+0x508>
    144c:	36300335 	tbz	w21, #6, 14b0 <kprintf.constprop.0+0x5e0>
    1450:	37f801e4 	tbnz	w4, #31, 148c <kprintf.constprop.0+0x5bc>
    1454:	91002c73 	add	x19, x3, #0xb
    1458:	2a0403f4 	mov	w20, w4
    145c:	927df273 	and	x19, x19, #0xfffffffffffffff8
    1460:	79400062 	ldrh	w2, [x3]
    1464:	17ffffe2 	b	13ec <kprintf.constprop.0+0x51c>
    1468:	11002094 	add	w20, w4, #0x8
    146c:	7100029f 	cmp	w20, #0x0
    1470:	5400008d 	b.le	1480 <kprintf.constprop.0+0x5b0>
    1474:	91003c73 	add	x19, x3, #0xf
    1478:	927df273 	and	x19, x19, #0xfffffffffffffff8
    147c:	17ffffdb 	b	13e8 <kprintf.constprop.0+0x518>
    1480:	aa0303f3 	mov	x19, x3
    1484:	8b24c343 	add	x3, x26, w4, sxtw
    1488:	17ffffd8 	b	13e8 <kprintf.constprop.0+0x518>
    148c:	11002094 	add	w20, w4, #0x8
    1490:	7100029f 	cmp	w20, #0x0
    1494:	5400008d 	b.le	14a4 <kprintf.constprop.0+0x5d4>
    1498:	91002c73 	add	x19, x3, #0xb
    149c:	927df273 	and	x19, x19, #0xfffffffffffffff8
    14a0:	17fffff0 	b	1460 <kprintf.constprop.0+0x590>
    14a4:	aa0303f3 	mov	x19, x3
    14a8:	8b24c343 	add	x3, x26, w4, sxtw
    14ac:	17ffffed 	b	1460 <kprintf.constprop.0+0x590>
    14b0:	37f800c4 	tbnz	w4, #31, 14c8 <kprintf.constprop.0+0x5f8>
    14b4:	91002c73 	add	x19, x3, #0xb
    14b8:	2a0403f4 	mov	w20, w4
    14bc:	927df273 	and	x19, x19, #0xfffffffffffffff8
    14c0:	b9400062 	ldr	w2, [x3]
    14c4:	17ffffca 	b	13ec <kprintf.constprop.0+0x51c>
    14c8:	11002094 	add	w20, w4, #0x8
    14cc:	7100029f 	cmp	w20, #0x0
    14d0:	5400008d 	b.le	14e0 <kprintf.constprop.0+0x610>
    14d4:	91002c73 	add	x19, x3, #0xb
    14d8:	927df273 	and	x19, x19, #0xfffffffffffffff8
    14dc:	17fffff9 	b	14c0 <kprintf.constprop.0+0x5f0>
    14e0:	aa0303f3 	mov	x19, x3
    14e4:	8b24c343 	add	x3, x26, w4, sxtw
    14e8:	17fffff6 	b	14c0 <kprintf.constprop.0+0x5f0>
/home/ssysarch/Desktop/nick/jetpack_5/Jetson_Linux_R35.4.1_aarch64/Linux_for_Tegra/sources/tegra/optee-src/nv-optee/optee/optee_os/lib/libutils/ext/snprintk.c:421
    14ec:	b940a3e0 	ldr	w0, [sp, #160]
    14f0:	34000c80 	cbz	w0, 1680 <kprintf.constprop.0+0x7b0>
    14f4:	39400360 	ldrb	w0, [x27]
    14f8:	7101541f 	cmp	w0, #0x55
    14fc:	54000c21 	b.ne	1680 <kprintf.constprop.0+0x7b0>  // b.any
    1500:	39400760 	ldrb	w0, [x27, #1]
    1504:	7101b01f 	cmp	w0, #0x6c
    1508:	54000bc1 	b.ne	1680 <kprintf.constprop.0+0x7b0>  // b.any
/home/ssysarch/Desktop/nick/jetpack_5/Jetson_Linux_R35.4.1_aarch64/Linux_for_Tegra/sources/tegra/optee-src/nv-optee/optee/optee_os/lib/libutils/ext/snprintk.c:426
    150c:	91000b7b 	add	x27, x27, #0x2
/home/ssysarch/Desktop/nick/jetpack_5/Jetson_Linux_R35.4.1_aarch64/Linux_for_Tegra/sources/tegra/optee-src/nv-optee/optee/optee_os/lib/libutils/ext/snprintk.c:427
    1510:	37f80a64 	tbnz	w4, #31, 165c <kprintf.constprop.0+0x78c>
    1514:	91003c73 	add	x19, x3, #0xf
    1518:	2a0403f4 	mov	w20, w4
    151c:	927df273 	and	x19, x19, #0xfffffffffffffff8
    1520:	f9400060 	ldr	x0, [x3]
uuid2str():
/home/ssysarch/Desktop/nick/jetpack_5/Jetson_Linux_R35.4.1_aarch64/Linux_for_Tegra/sources/tegra/optee-src/nv-optee/optee/optee_os/lib/libutils/ext/snprintk.c:229
    1524:	d00000a2 	adrp	x2, 17000 <small_prime+0x140>
    1528:	910fa042 	add	x2, x2, #0x3e8
    152c:	f9004fec 	str	x12, [sp, #152]
    1530:	b900a7ea 	str	w10, [sp, #164]
    1534:	39403c01 	ldrb	w1, [x0, #15]
    1538:	39402006 	ldrb	w6, [x0, #8]
    153c:	79400c05 	ldrh	w5, [x0, #6]
    1540:	39402407 	ldrb	w7, [x0, #9]
    1544:	79400804 	ldrh	w4, [x0, #4]
    1548:	b9002be1 	str	w1, [sp, #40]
    154c:	f90057e8 	str	x8, [sp, #168]
    1550:	39403801 	ldrb	w1, [x0, #14]
    1554:	b90023e1 	str	w1, [sp, #32]
    1558:	39403401 	ldrb	w1, [x0, #13]
    155c:	b9001be1 	str	w1, [sp, #24]
    1560:	39403001 	ldrb	w1, [x0, #12]
    1564:	b90013e1 	str	w1, [sp, #16]
    1568:	39402c01 	ldrb	w1, [x0, #11]
    156c:	b9000be1 	str	w1, [sp, #8]
    1570:	39402801 	ldrb	w1, [x0, #10]
    1574:	b90003e1 	str	w1, [sp]
    1578:	d28004a1 	mov	x1, #0x25                  	// #37
    157c:	b9400003 	ldr	w3, [x0]
    1580:	aa0c03e0 	mov	x0, x12
    1584:	97fffe20 	bl	e04 <snprintk>
    1588:	2a0003e5 	mov	w5, w0
kprintf():
/home/ssysarch/Desktop/nick/jetpack_5/Jetson_Linux_R35.4.1_aarch64/Linux_for_Tegra/sources/tegra/optee-src/nv-optee/optee/optee_os/lib/libutils/ext/snprintk.c:429
    158c:	f9404fec 	ldr	x12, [sp, #152]
/home/ssysarch/Desktop/nick/jetpack_5/Jetson_Linux_R35.4.1_aarch64/Linux_for_Tegra/sources/tegra/optee-src/nv-optee/optee/optee_os/lib/libutils/ext/snprintk.c:291
    1590:	52800006 	mov	w6, #0x0                   	// #0
/home/ssysarch/Desktop/nick/jetpack_5/Jetson_Linux_R35.4.1_aarch64/Linux_for_Tegra/sources/tegra/optee-src/nv-optee/optee/optee_os/lib/libutils/ext/snprintk.c:431
    1594:	b940a7ea 	ldr	w10, [sp, #164]
/home/ssysarch/Desktop/nick/jetpack_5/Jetson_Linux_R35.4.1_aarch64/Linux_for_Tegra/sources/tegra/optee-src/nv-optee/optee/optee_os/lib/libutils/ext/snprintk.c:430
    1598:	52800001 	mov	w1, #0x0                   	// #0
/home/ssysarch/Desktop/nick/jetpack_5/Jetson_Linux_R35.4.1_aarch64/Linux_for_Tegra/sources/tegra/optee-src/nv-optee/optee/optee_os/lib/libutils/ext/snprintk.c:431
    159c:	f94057e8 	ldr	x8, [sp, #168]
/home/ssysarch/Desktop/nick/jetpack_5/Jetson_Linux_R35.4.1_aarch64/Linux_for_Tegra/sources/tegra/optee-src/nv-optee/optee/optee_os/lib/libutils/ext/snprintk.c:429
    15a0:	aa0c03e3 	mov	x3, x12
/home/ssysarch/Desktop/nick/jetpack_5/Jetson_Linux_R35.4.1_aarch64/Linux_for_Tegra/sources/tegra/optee-src/nv-optee/optee/optee_os/lib/libutils/ext/snprintk.c:571
    15a4:	6b0500df 	cmp	w6, w5
    15a8:	1a85a0c4 	csel	w4, w6, w5, ge  // ge = tcont
/home/ssysarch/Desktop/nick/jetpack_5/Jetson_Linux_R35.4.1_aarch64/Linux_for_Tegra/sources/tegra/optee-src/nv-optee/optee/optee_os/lib/libutils/ext/snprintk.c:572
    15ac:	340020c1 	cbz	w1, 19c4 <kprintf.constprop.0+0xaf4>
/home/ssysarch/Desktop/nick/jetpack_5/Jetson_Linux_R35.4.1_aarch64/Linux_for_Tegra/sources/tegra/optee-src/nv-optee/optee/optee_os/lib/libutils/ext/snprintk.c:573
    15b0:	11000484 	add	w4, w4, #0x1
/home/ssysarch/Desktop/nick/jetpack_5/Jetson_Linux_R35.4.1_aarch64/Linux_for_Tegra/sources/tegra/optee-src/nv-optee/optee/optee_os/lib/libutils/ext/snprintk.c:578
    15b4:	6b0a009f 	cmp	w4, w10
    15b8:	1a8aa080 	csel	w0, w4, w10, ge  // ge = tcont
    15bc:	0b000339 	add	w25, w25, w0
/home/ssysarch/Desktop/nick/jetpack_5/Jetson_Linux_R35.4.1_aarch64/Linux_for_Tegra/sources/tegra/optee-src/nv-optee/optee/optee_os/lib/libutils/ext/snprintk.c:581
    15c0:	52808080 	mov	w0, #0x404                 	// #1028
    15c4:	6a0002a0 	ands	w0, w21, w0
    15c8:	540000a1 	b.ne	15dc <kprintf.constprop.0+0x70c>  // b.any
/home/ssysarch/Desktop/nick/jetpack_5/Jetson_Linux_R35.4.1_aarch64/Linux_for_Tegra/sources/tegra/optee-src/nv-optee/optee/optee_os/lib/libutils/ext/snprintk.c:582
    15cc:	4b040147 	sub	w7, w10, w4
/home/ssysarch/Desktop/nick/jetpack_5/Jetson_Linux_R35.4.1_aarch64/Linux_for_Tegra/sources/tegra/optee-src/nv-optee/optee/optee_os/lib/libutils/ext/snprintk.c:584
    15d0:	52800402 	mov	w2, #0x20                  	// #32
/home/ssysarch/Desktop/nick/jetpack_5/Jetson_Linux_R35.4.1_aarch64/Linux_for_Tegra/sources/tegra/optee-src/nv-optee/optee/optee_os/lib/libutils/ext/snprintk.c:583
    15d4:	710000ff 	cmp	w7, #0x0
    15d8:	54001fcc 	b.gt	19d0 <kprintf.constprop.0+0xb00>
/home/ssysarch/Desktop/nick/jetpack_5/Jetson_Linux_R35.4.1_aarch64/Linux_for_Tegra/sources/tegra/optee-src/nv-optee/optee/optee_os/lib/libutils/ext/snprintk.c:588
    15dc:	34002081 	cbz	w1, 19ec <kprintf.constprop.0+0xb1c>
/home/ssysarch/Desktop/nick/jetpack_5/Jetson_Linux_R35.4.1_aarch64/Linux_for_Tegra/sources/tegra/optee-src/nv-optee/optee/optee_os/lib/libutils/ext/snprintk.c:589
    15e0:	b40000b6 	cbz	x22, 15f4 <kprintf.constprop.0+0x724>
    15e4:	f100011f 	cmp	x8, #0x0
    15e8:	fa561302 	ccmp	x24, x22, #0x2, ne  // ne = any
    15ec:	54000049 	b.ls	15f4 <kprintf.constprop.0+0x724>  // b.plast
    15f0:	380016c1 	strb	w1, [x22], #1
/home/ssysarch/Desktop/nick/jetpack_5/Jetson_Linux_R35.4.1_aarch64/Linux_for_Tegra/sources/tegra/optee-src/nv-optee/optee/optee_os/lib/libutils/ext/snprintk.c:596
    15f4:	7110001f 	cmp	w0, #0x400
    15f8:	540000a1 	b.ne	160c <kprintf.constprop.0+0x73c>  // b.any
/home/ssysarch/Desktop/nick/jetpack_5/Jetson_Linux_R35.4.1_aarch64/Linux_for_Tegra/sources/tegra/optee-src/nv-optee/optee/optee_os/lib/libutils/ext/snprintk.c:597
    15fc:	4b040140 	sub	w0, w10, w4
/home/ssysarch/Desktop/nick/jetpack_5/Jetson_Linux_R35.4.1_aarch64/Linux_for_Tegra/sources/tegra/optee-src/nv-optee/optee/optee_os/lib/libutils/ext/snprintk.c:599
    1600:	52800601 	mov	w1, #0x30                  	// #48
/home/ssysarch/Desktop/nick/jetpack_5/Jetson_Linux_R35.4.1_aarch64/Linux_for_Tegra/sources/tegra/optee-src/nv-optee/optee/optee_os/lib/libutils/ext/snprintk.c:598
    1604:	7100001f 	cmp	w0, #0x0
    1608:	5400216c 	b.gt	1a34 <kprintf.constprop.0+0xb64>
/home/ssysarch/Desktop/nick/jetpack_5/Jetson_Linux_R35.4.1_aarch64/Linux_for_Tegra/sources/tegra/optee-src/nv-optee/optee/optee_os/lib/libutils/ext/snprintk.c:603
    160c:	4b0500c6 	sub	w6, w6, w5
/home/ssysarch/Desktop/nick/jetpack_5/Jetson_Linux_R35.4.1_aarch64/Linux_for_Tegra/sources/tegra/optee-src/nv-optee/optee/optee_os/lib/libutils/ext/snprintk.c:605
    1610:	52800600 	mov	w0, #0x30                  	// #48
/home/ssysarch/Desktop/nick/jetpack_5/Jetson_Linux_R35.4.1_aarch64/Linux_for_Tegra/sources/tegra/optee-src/nv-optee/optee/optee_os/lib/libutils/ext/snprintk.c:604
    1614:	710000df 	cmp	w6, #0x0
    1618:	540021cc 	b.gt	1a50 <kprintf.constprop.0+0xb80>
    161c:	2a0503e5 	mov	w5, w5
    1620:	d2800001 	mov	x1, #0x0                   	// #0
/home/ssysarch/Desktop/nick/jetpack_5/Jetson_Linux_R35.4.1_aarch64/Linux_for_Tegra/sources/tegra/optee-src/nv-optee/optee/optee_os/lib/libutils/ext/snprintk.c:608
    1624:	eb05003f 	cmp	x1, x5
    1628:	54002221 	b.ne	1a6c <kprintf.constprop.0+0xb9c>  // b.any
/home/ssysarch/Desktop/nick/jetpack_5/Jetson_Linux_R35.4.1_aarch64/Linux_for_Tegra/sources/tegra/optee-src/nv-optee/optee/optee_os/lib/libutils/ext/snprintk.c:611
    162c:	3617c8b5 	tbz	w21, #2, f40 <kprintf.constprop.0+0x70>
/home/ssysarch/Desktop/nick/jetpack_5/Jetson_Linux_R35.4.1_aarch64/Linux_for_Tegra/sources/tegra/optee-src/nv-optee/optee/optee_os/lib/libutils/ext/snprintk.c:612
    1630:	4b04014a 	sub	w10, w10, w4
/home/ssysarch/Desktop/nick/jetpack_5/Jetson_Linux_R35.4.1_aarch64/Linux_for_Tegra/sources/tegra/optee-src/nv-optee/optee/optee_os/lib/libutils/ext/snprintk.c:614
    1634:	52800400 	mov	w0, #0x20                  	// #32
/home/ssysarch/Desktop/nick/jetpack_5/Jetson_Linux_R35.4.1_aarch64/Linux_for_Tegra/sources/tegra/optee-src/nv-optee/optee/optee_os/lib/libutils/ext/snprintk.c:613
    1638:	7100015f 	cmp	w10, #0x0
    163c:	54ffc82d 	b.le	f40 <kprintf.constprop.0+0x70>
/home/ssysarch/Desktop/nick/jetpack_5/Jetson_Linux_R35.4.1_aarch64/Linux_for_Tegra/sources/tegra/optee-src/nv-optee/optee/optee_os/lib/libutils/ext/snprintk.c:614
    1640:	b40000b6 	cbz	x22, 1654 <kprintf.constprop.0+0x784>
    1644:	f100011f 	cmp	x8, #0x0
    1648:	fa561302 	ccmp	x24, x22, #0x2, ne  // ne = any
    164c:	54000049 	b.ls	1654 <kprintf.constprop.0+0x784>  // b.plast
    1650:	380016c0 	strb	w0, [x22], #1
    1654:	5100054a 	sub	w10, w10, #0x1
    1658:	17fffff8 	b	1638 <kprintf.constprop.0+0x768>
/home/ssysarch/Desktop/nick/jetpack_5/Jetson_Linux_R35.4.1_aarch64/Linux_for_Tegra/sources/tegra/optee-src/nv-optee/optee/optee_os/lib/libutils/ext/snprintk.c:427
    165c:	11002094 	add	w20, w4, #0x8
    1660:	7100029f 	cmp	w20, #0x0
    1664:	5400008d 	b.le	1674 <kprintf.constprop.0+0x7a4>
    1668:	91003c73 	add	x19, x3, #0xf
    166c:	927df273 	and	x19, x19, #0xfffffffffffffff8
    1670:	17ffffac 	b	1520 <kprintf.constprop.0+0x650>
    1674:	aa0303f3 	mov	x19, x3
    1678:	8b24c343 	add	x3, x26, w4, sxtw
    167c:	17ffffa9 	b	1520 <kprintf.constprop.0+0x650>
/home/ssysarch/Desktop/nick/jetpack_5/Jetson_Linux_R35.4.1_aarch64/Linux_for_Tegra/sources/tegra/optee-src/nv-optee/optee/optee_os/lib/libutils/ext/snprintk.c:441
    1680:	37f801e4 	tbnz	w4, #31, 16bc <kprintf.constprop.0+0x7ec>
    1684:	91003c73 	add	x19, x3, #0xf
    1688:	2a0403f4 	mov	w20, w4
    168c:	927df273 	and	x19, x19, #0xfffffffffffffff8
/home/ssysarch/Desktop/nick/jetpack_5/Jetson_Linux_R35.4.1_aarch64/Linux_for_Tegra/sources/tegra/optee-src/nv-optee/optee/optee_os/lib/libutils/ext/snprintk.c:443
    1690:	b00000b7 	adrp	x23, 16000 <__text_end+0x2f44>
    1694:	91379af7 	add	x23, x23, #0xde6
/home/ssysarch/Desktop/nick/jetpack_5/Jetson_Linux_R35.4.1_aarch64/Linux_for_Tegra/sources/tegra/optee-src/nv-optee/optee/optee_os/lib/libutils/ext/snprintk.c:441
    1698:	f9400062 	ldr	x2, [x3]
/home/ssysarch/Desktop/nick/jetpack_5/Jetson_Linux_R35.4.1_aarch64/Linux_for_Tegra/sources/tegra/optee-src/nv-optee/optee/optee_os/lib/libutils/ext/snprintk.c:444
    169c:	321f02b5 	orr	w21, w21, #0x2
/home/ssysarch/Desktop/nick/jetpack_5/Jetson_Linux_R35.4.1_aarch64/Linux_for_Tegra/sources/tegra/optee-src/nv-optee/optee/optee_os/lib/libutils/ext/snprintk.c:443
    16a0:	910046f7 	add	x23, x23, #0x11
/home/ssysarch/Desktop/nick/jetpack_5/Jetson_Linux_R35.4.1_aarch64/Linux_for_Tegra/sources/tegra/optee-src/nv-optee/optee/optee_os/lib/libutils/ext/snprintk.c:445
    16a4:	52800f1c 	mov	w28, #0x78                  	// #120
/home/ssysarch/Desktop/nick/jetpack_5/Jetson_Linux_R35.4.1_aarch64/Linux_for_Tegra/sources/tegra/optee-src/nv-optee/optee/optee_os/lib/libutils/ext/snprintk.c:494
    16a8:	310004bf 	cmn	w5, #0x1
    16ac:	52800001 	mov	w1, #0x0                   	// #0
    16b0:	54ffdbc0 	b.eq	1228 <kprintf.constprop.0+0x358>  // b.none
    16b4:	52800040 	mov	w0, #0x2                   	// #2
    16b8:	140000a8 	b	1958 <kprintf.constprop.0+0xa88>
/home/ssysarch/Desktop/nick/jetpack_5/Jetson_Linux_R35.4.1_aarch64/Linux_for_Tegra/sources/tegra/optee-src/nv-optee/optee/optee_os/lib/libutils/ext/snprintk.c:441
    16bc:	11002094 	add	w20, w4, #0x8
    16c0:	7100029f 	cmp	w20, #0x0
    16c4:	5400008d 	b.le	16d4 <kprintf.constprop.0+0x804>
    16c8:	91003c73 	add	x19, x3, #0xf
    16cc:	927df273 	and	x19, x19, #0xfffffffffffffff8
    16d0:	17fffff0 	b	1690 <kprintf.constprop.0+0x7c0>
    16d4:	aa0303f3 	mov	x19, x3
    16d8:	8b24c343 	add	x3, x26, w4, sxtw
    16dc:	17ffffed 	b	1690 <kprintf.constprop.0+0x7c0>
/home/ssysarch/Desktop/nick/jetpack_5/Jetson_Linux_R35.4.1_aarch64/Linux_for_Tegra/sources/tegra/optee-src/nv-optee/optee/optee_os/lib/libutils/ext/snprintk.c:448
    16e0:	37f80364 	tbnz	w4, #31, 174c <kprintf.constprop.0+0x87c>
    16e4:	91003c73 	add	x19, x3, #0xf
    16e8:	2a0403f4 	mov	w20, w4
    16ec:	927df273 	and	x19, x19, #0xfffffffffffffff8
    16f0:	f9400063 	ldr	x3, [x3]
    16f4:	b5000063 	cbnz	x3, 1700 <kprintf.constprop.0+0x830>
/home/ssysarch/Desktop/nick/jetpack_5/Jetson_Linux_R35.4.1_aarch64/Linux_for_Tegra/sources/tegra/optee-src/nv-optee/optee/optee_os/lib/libutils/ext/snprintk.c:450
    16f8:	d00000a3 	adrp	x3, 17000 <small_prime+0x140>
    16fc:	910f8463 	add	x3, x3, #0x3e1
/home/ssysarch/Desktop/nick/jetpack_5/Jetson_Linux_R35.4.1_aarch64/Linux_for_Tegra/sources/tegra/optee-src/nv-optee/optee/optee_os/lib/libutils/ext/snprintk.c:451
    1700:	310004bf 	cmn	w5, #0x1
    1704:	54000360 	b.eq	1770 <kprintf.constprop.0+0x8a0>  // b.none
/home/ssysarch/Desktop/nick/jetpack_5/Jetson_Linux_R35.4.1_aarch64/Linux_for_Tegra/sources/tegra/optee-src/nv-optee/optee/optee_os/lib/libutils/ext/snprintk.c:457
    1708:	93407ca2 	sxtw	x2, w5
    170c:	aa0303e0 	mov	x0, x3
    1710:	52800001 	mov	w1, #0x0                   	// #0
    1714:	f9004fe3 	str	x3, [sp, #152]
    1718:	2914abe5 	stp	w5, w10, [sp, #164]
    171c:	a90b33e8 	stp	x8, x12, [sp, #176]
    1720:	940000f7 	bl	1afc <memchr>
/home/ssysarch/Desktop/nick/jetpack_5/Jetson_Linux_R35.4.1_aarch64/Linux_for_Tegra/sources/tegra/optee-src/nv-optee/optee/optee_os/lib/libutils/ext/snprintk.c:459
    1724:	2954abe5 	ldp	w5, w10, [sp, #164]
    1728:	f9404fe3 	ldr	x3, [sp, #152]
    172c:	a94b33e8 	ldp	x8, x12, [sp, #176]
    1730:	b4000080 	cbz	x0, 1740 <kprintf.constprop.0+0x870>
/home/ssysarch/Desktop/nick/jetpack_5/Jetson_Linux_R35.4.1_aarch64/Linux_for_Tegra/sources/tegra/optee-src/nv-optee/optee/optee_os/lib/libutils/ext/snprintk.c:460
    1734:	cb030000 	sub	x0, x0, x3
    1738:	6b0000bf 	cmp	w5, w0
    173c:	1a80d0a5 	csel	w5, w5, w0, le
/home/ssysarch/Desktop/nick/jetpack_5/Jetson_Linux_R35.4.1_aarch64/Linux_for_Tegra/sources/tegra/optee-src/nv-optee/optee/optee_os/lib/libutils/ext/snprintk.c:291
    1740:	52800006 	mov	w6, #0x0                   	// #0
/home/ssysarch/Desktop/nick/jetpack_5/Jetson_Linux_R35.4.1_aarch64/Linux_for_Tegra/sources/tegra/optee-src/nv-optee/optee/optee_os/lib/libutils/ext/snprintk.c:467
    1744:	52800001 	mov	w1, #0x0                   	// #0
    1748:	17ffff97 	b	15a4 <kprintf.constprop.0+0x6d4>
/home/ssysarch/Desktop/nick/jetpack_5/Jetson_Linux_R35.4.1_aarch64/Linux_for_Tegra/sources/tegra/optee-src/nv-optee/optee/optee_os/lib/libutils/ext/snprintk.c:448
    174c:	11002094 	add	w20, w4, #0x8
    1750:	7100029f 	cmp	w20, #0x0
    1754:	5400008d 	b.le	1764 <kprintf.constprop.0+0x894>
    1758:	91003c73 	add	x19, x3, #0xf
    175c:	927df273 	and	x19, x19, #0xfffffffffffffff8
    1760:	17ffffe4 	b	16f0 <kprintf.constprop.0+0x820>
    1764:	aa0303f3 	mov	x19, x3
    1768:	8b24c343 	add	x3, x26, w4, sxtw
    176c:	17ffffe1 	b	16f0 <kprintf.constprop.0+0x820>
/home/ssysarch/Desktop/nick/jetpack_5/Jetson_Linux_R35.4.1_aarch64/Linux_for_Tegra/sources/tegra/optee-src/nv-optee/optee/optee_os/lib/libutils/ext/snprintk.c:466
    1770:	aa0303e0 	mov	x0, x3
    1774:	f9004fe3 	str	x3, [sp, #152]
    1778:	b900a7ea 	str	w10, [sp, #164]
    177c:	a90ab3e8 	stp	x8, x12, [sp, #168]
    1780:	940000ea 	bl	1b28 <strlen>
    1784:	b940a7ea 	ldr	w10, [sp, #164]
    1788:	2a0003e5 	mov	w5, w0
/home/ssysarch/Desktop/nick/jetpack_5/Jetson_Linux_R35.4.1_aarch64/Linux_for_Tegra/sources/tegra/optee-src/nv-optee/optee/optee_os/lib/libutils/ext/snprintk.c:291
    178c:	52800006 	mov	w6, #0x0                   	// #0
/home/ssysarch/Desktop/nick/jetpack_5/Jetson_Linux_R35.4.1_aarch64/Linux_for_Tegra/sources/tegra/optee-src/nv-optee/optee/optee_os/lib/libutils/ext/snprintk.c:467
    1790:	52800001 	mov	w1, #0x0                   	// #0
    1794:	f9404fe3 	ldr	x3, [sp, #152]
    1798:	a94ab3e8 	ldp	x8, x12, [sp, #168]
    179c:	17ffff82 	b	15a4 <kprintf.constprop.0+0x6d4>
/home/ssysarch/Desktop/nick/jetpack_5/Jetson_Linux_R35.4.1_aarch64/Linux_for_Tegra/sources/tegra/optee-src/nv-optee/optee/optee_os/lib/libutils/ext/snprintk.c:470
    17a0:	321c02b5 	orr	w21, w21, #0x10
/home/ssysarch/Desktop/nick/jetpack_5/Jetson_Linux_R35.4.1_aarch64/Linux_for_Tegra/sources/tegra/optee-src/nv-optee/optee/optee_os/lib/libutils/ext/snprintk.c:473
    17a4:	36380235 	tbz	w21, #7, 17e8 <kprintf.constprop.0+0x918>
    17a8:	37f80364 	tbnz	w4, #31, 1814 <kprintf.constprop.0+0x944>
    17ac:	91003c73 	add	x19, x3, #0xf
    17b0:	2a0403f4 	mov	w20, w4
    17b4:	927df273 	and	x19, x19, #0xfffffffffffffff8
    17b8:	f9400062 	ldr	x2, [x3]
/home/ssysarch/Desktop/nick/jetpack_5/Jetson_Linux_R35.4.1_aarch64/Linux_for_Tegra/sources/tegra/optee-src/nv-optee/optee/optee_os/lib/libutils/ext/snprintk.c:488
    17bc:	52800001 	mov	w1, #0x0                   	// #0
/home/ssysarch/Desktop/nick/jetpack_5/Jetson_Linux_R35.4.1_aarch64/Linux_for_Tegra/sources/tegra/optee-src/nv-optee/optee/optee_os/lib/libutils/ext/snprintk.c:494
    17c0:	310004bf 	cmn	w5, #0x1
    17c4:	54000d81 	b.ne	1974 <kprintf.constprop.0+0xaa4>  // b.any
/home/ssysarch/Desktop/nick/jetpack_5/Jetson_Linux_R35.4.1_aarch64/Linux_for_Tegra/sources/tegra/optee-src/nv-optee/optee/optee_os/lib/libutils/ext/snprintk.c:502
    17c8:	91009580 	add	x0, x12, #0x25
/home/ssysarch/Desktop/nick/jetpack_5/Jetson_Linux_R35.4.1_aarch64/Linux_for_Tegra/sources/tegra/optee-src/nv-optee/optee/optee_os/lib/libutils/ext/snprintk.c:523
    17cc:	d2800144 	mov	x4, #0xa                   	// #10
/home/ssysarch/Desktop/nick/jetpack_5/Jetson_Linux_R35.4.1_aarch64/Linux_for_Tegra/sources/tegra/optee-src/nv-optee/optee/optee_os/lib/libutils/ext/snprintk.c:522
    17d0:	d1000403 	sub	x3, x0, #0x1
    17d4:	f100245f 	cmp	x2, #0x9
    17d8:	54000d28 	b.hi	197c <kprintf.constprop.0+0xaac>  // b.pmore
/home/ssysarch/Desktop/nick/jetpack_5/Jetson_Linux_R35.4.1_aarch64/Linux_for_Tegra/sources/tegra/optee-src/nv-optee/optee/optee_os/lib/libutils/ext/snprintk.c:526
    17dc:	1100c042 	add	w2, w2, #0x30
    17e0:	381ff002 	sturb	w2, [x0, #-1]
/home/ssysarch/Desktop/nick/jetpack_5/Jetson_Linux_R35.4.1_aarch64/Linux_for_Tegra/sources/tegra/optee-src/nv-optee/optee/optee_os/lib/libutils/ext/snprintk.c:527
    17e4:	17ffff12 	b	142c <kprintf.constprop.0+0x55c>
/home/ssysarch/Desktop/nick/jetpack_5/Jetson_Linux_R35.4.1_aarch64/Linux_for_Tegra/sources/tegra/optee-src/nv-optee/optee/optee_os/lib/libutils/ext/snprintk.c:473
    17e8:	3747fe15 	tbnz	w21, #8, 17a8 <kprintf.constprop.0+0x8d8>
    17ec:	374ffdf5 	tbnz	w21, #9, 17a8 <kprintf.constprop.0+0x8d8>
    17f0:	372ffdd5 	tbnz	w21, #5, 17a8 <kprintf.constprop.0+0x8d8>
    17f4:	3727fdb5 	tbnz	w21, #4, 17a8 <kprintf.constprop.0+0x8d8>
    17f8:	36300335 	tbz	w21, #6, 185c <kprintf.constprop.0+0x98c>
    17fc:	37f801e4 	tbnz	w4, #31, 1838 <kprintf.constprop.0+0x968>
    1800:	91002c73 	add	x19, x3, #0xb
    1804:	2a0403f4 	mov	w20, w4
    1808:	927df273 	and	x19, x19, #0xfffffffffffffff8
    180c:	79400062 	ldrh	w2, [x3]
    1810:	17ffffeb 	b	17bc <kprintf.constprop.0+0x8ec>
    1814:	11002094 	add	w20, w4, #0x8
    1818:	7100029f 	cmp	w20, #0x0
    181c:	5400008d 	b.le	182c <kprintf.constprop.0+0x95c>
    1820:	91003c73 	add	x19, x3, #0xf
    1824:	927df273 	and	x19, x19, #0xfffffffffffffff8
    1828:	17ffffe4 	b	17b8 <kprintf.constprop.0+0x8e8>
    182c:	aa0303f3 	mov	x19, x3
    1830:	8b24c343 	add	x3, x26, w4, sxtw
    1834:	17ffffe1 	b	17b8 <kprintf.constprop.0+0x8e8>
    1838:	11002094 	add	w20, w4, #0x8
    183c:	7100029f 	cmp	w20, #0x0
    1840:	5400008d 	b.le	1850 <kprintf.constprop.0+0x980>
    1844:	91002c73 	add	x19, x3, #0xb
    1848:	927df273 	and	x19, x19, #0xfffffffffffffff8
    184c:	17fffff0 	b	180c <kprintf.constprop.0+0x93c>
    1850:	aa0303f3 	mov	x19, x3
    1854:	8b24c343 	add	x3, x26, w4, sxtw
    1858:	17ffffed 	b	180c <kprintf.constprop.0+0x93c>
    185c:	37f800c4 	tbnz	w4, #31, 1874 <kprintf.constprop.0+0x9a4>
    1860:	91002c73 	add	x19, x3, #0xb
    1864:	2a0403f4 	mov	w20, w4
    1868:	927df273 	and	x19, x19, #0xfffffffffffffff8
    186c:	b9400062 	ldr	w2, [x3]
    1870:	17ffffd3 	b	17bc <kprintf.constprop.0+0x8ec>
    1874:	11002094 	add	w20, w4, #0x8
    1878:	7100029f 	cmp	w20, #0x0
    187c:	5400008d 	b.le	188c <kprintf.constprop.0+0x9bc>
    1880:	91002c73 	add	x19, x3, #0xb
    1884:	927df273 	and	x19, x19, #0xfffffffffffffff8
    1888:	17fffff9 	b	186c <kprintf.constprop.0+0x99c>
    188c:	aa0303f3 	mov	x19, x3
    1890:	8b24c343 	add	x3, x26, w4, sxtw
    1894:	17fffff6 	b	186c <kprintf.constprop.0+0x99c>
/home/ssysarch/Desktop/nick/jetpack_5/Jetson_Linux_R35.4.1_aarch64/Linux_for_Tegra/sources/tegra/optee-src/nv-optee/optee/optee_os/lib/libutils/ext/snprintk.c:477
    1898:	b00000b7 	adrp	x23, 16000 <__text_end+0x2f44>
    189c:	91379af7 	add	x23, x23, #0xde6
    18a0:	17fffdd9 	b	1004 <kprintf.constprop.0+0x134>
/home/ssysarch/Desktop/nick/jetpack_5/Jetson_Linux_R35.4.1_aarch64/Linux_for_Tegra/sources/tegra/optee-src/nv-optee/optee/optee_os/lib/libutils/ext/snprintk.c:481
    18a4:	3747bb35 	tbnz	w21, #8, 1008 <kprintf.constprop.0+0x138>
    18a8:	374fbb15 	tbnz	w21, #9, 1008 <kprintf.constprop.0+0x138>
    18ac:	372fbaf5 	tbnz	w21, #5, 1008 <kprintf.constprop.0+0x138>
    18b0:	3727bad5 	tbnz	w21, #4, 1008 <kprintf.constprop.0+0x138>
    18b4:	36300335 	tbz	w21, #6, 1918 <kprintf.constprop.0+0xa48>
    18b8:	37f801e4 	tbnz	w4, #31, 18f4 <kprintf.constprop.0+0xa24>
    18bc:	91002c73 	add	x19, x3, #0xb
    18c0:	2a0403f4 	mov	w20, w4
    18c4:	927df273 	and	x19, x19, #0xfffffffffffffff8
    18c8:	79400062 	ldrh	w2, [x3]
    18cc:	17fffdd4 	b	101c <kprintf.constprop.0+0x14c>
    18d0:	11002094 	add	w20, w4, #0x8
    18d4:	7100029f 	cmp	w20, #0x0
    18d8:	5400008d 	b.le	18e8 <kprintf.constprop.0+0xa18>
    18dc:	91003c73 	add	x19, x3, #0xf
    18e0:	927df273 	and	x19, x19, #0xfffffffffffffff8
    18e4:	17fffdcd 	b	1018 <kprintf.constprop.0+0x148>
    18e8:	aa0303f3 	mov	x19, x3
    18ec:	8b24c343 	add	x3, x26, w4, sxtw
    18f0:	17fffdca 	b	1018 <kprintf.constprop.0+0x148>
    18f4:	11002094 	add	w20, w4, #0x8
    18f8:	7100029f 	cmp	w20, #0x0
    18fc:	5400008d 	b.le	190c <kprintf.constprop.0+0xa3c>
    1900:	91002c73 	add	x19, x3, #0xb
    1904:	927df273 	and	x19, x19, #0xfffffffffffffff8
    1908:	17fffff0 	b	18c8 <kprintf.constprop.0+0x9f8>
    190c:	aa0303f3 	mov	x19, x3
    1910:	8b24c343 	add	x3, x26, w4, sxtw
    1914:	17ffffed 	b	18c8 <kprintf.constprop.0+0x9f8>
    1918:	37f800c4 	tbnz	w4, #31, 1930 <kprintf.constprop.0+0xa60>
    191c:	91002c73 	add	x19, x3, #0xb
    1920:	2a0403f4 	mov	w20, w4
    1924:	927df273 	and	x19, x19, #0xfffffffffffffff8
    1928:	b9400062 	ldr	w2, [x3]
    192c:	17fffdbc 	b	101c <kprintf.constprop.0+0x14c>
    1930:	11002094 	add	w20, w4, #0x8
    1934:	7100029f 	cmp	w20, #0x0
    1938:	5400008d 	b.le	1948 <kprintf.constprop.0+0xa78>
    193c:	91002c73 	add	x19, x3, #0xb
    1940:	927df273 	and	x19, x19, #0xfffffffffffffff8
    1944:	17fffff9 	b	1928 <kprintf.constprop.0+0xa58>
    1948:	aa0303f3 	mov	x19, x3
    194c:	8b24c343 	add	x3, x26, w4, sxtw
    1950:	17fffff6 	b	1928 <kprintf.constprop.0+0xa58>
/home/ssysarch/Desktop/nick/jetpack_5/Jetson_Linux_R35.4.1_aarch64/Linux_for_Tegra/sources/tegra/optee-src/nv-optee/optee/optee_os/lib/libutils/ext/snprintk.c:494
    1954:	52800000 	mov	w0, #0x0                   	// #0
/home/ssysarch/Desktop/nick/jetpack_5/Jetson_Linux_R35.4.1_aarch64/Linux_for_Tegra/sources/tegra/optee-src/nv-optee/optee/optee_os/lib/libutils/ext/snprintk.c:503
    1958:	f100005f 	cmp	x2, #0x0
/home/ssysarch/Desktop/nick/jetpack_5/Jetson_Linux_R35.4.1_aarch64/Linux_for_Tegra/sources/tegra/optee-src/nv-optee/optee/optee_os/lib/libutils/ext/snprintk.c:495
    195c:	12157ab5 	and	w21, w21, #0xfffffbff
/home/ssysarch/Desktop/nick/jetpack_5/Jetson_Linux_R35.4.1_aarch64/Linux_for_Tegra/sources/tegra/optee-src/nv-optee/optee/optee_os/lib/libutils/ext/snprintk.c:503
    1960:	7a4008a0 	ccmp	w5, #0x0, #0x0, eq  // eq = none
    1964:	54ffc5a1 	b.ne	1218 <kprintf.constprop.0+0x348>  // b.any
/home/ssysarch/Desktop/nick/jetpack_5/Jetson_Linux_R35.4.1_aarch64/Linux_for_Tegra/sources/tegra/optee-src/nv-optee/optee/optee_os/lib/libutils/ext/snprintk.c:502
    1968:	91009583 	add	x3, x12, #0x25
/home/ssysarch/Desktop/nick/jetpack_5/Jetson_Linux_R35.4.1_aarch64/Linux_for_Tegra/sources/tegra/optee-src/nv-optee/optee/optee_os/lib/libutils/ext/snprintk.c:542
    196c:	52800005 	mov	w5, #0x0                   	// #0
    1970:	17fffeaf 	b	142c <kprintf.constprop.0+0x55c>
/home/ssysarch/Desktop/nick/jetpack_5/Jetson_Linux_R35.4.1_aarch64/Linux_for_Tegra/sources/tegra/optee-src/nv-optee/optee/optee_os/lib/libutils/ext/snprintk.c:494
    1974:	52800020 	mov	w0, #0x1                   	// #1
    1978:	17fffff8 	b	1958 <kprintf.constprop.0+0xa88>
/home/ssysarch/Desktop/nick/jetpack_5/Jetson_Linux_R35.4.1_aarch64/Linux_for_Tegra/sources/tegra/optee-src/nv-optee/optee/optee_os/lib/libutils/ext/snprintk.c:523
    197c:	9ac40846 	udiv	x6, x2, x4
    1980:	9b0488c2 	msub	x2, x6, x4, x2
    1984:	1100c042 	add	w2, w2, #0x30
    1988:	381ff002 	sturb	w2, [x0, #-1]
/home/ssysarch/Desktop/nick/jetpack_5/Jetson_Linux_R35.4.1_aarch64/Linux_for_Tegra/sources/tegra/optee-src/nv-optee/optee/optee_os/lib/libutils/ext/snprintk.c:524
    198c:	aa0603e2 	mov	x2, x6
    1990:	aa0303e0 	mov	x0, x3
    1994:	17ffff8f 	b	17d0 <kprintf.constprop.0+0x900>
/home/ssysarch/Desktop/nick/jetpack_5/Jetson_Linux_R35.4.1_aarch64/Linux_for_Tegra/sources/tegra/optee-src/nv-optee/optee/optee_os/lib/libutils/ext/snprintk.c:547
    1998:	35ffb55c 	cbnz	w28, 1040 <kprintf.constprop.0+0x170>
/home/ssysarch/Desktop/nick/jetpack_5/Jetson_Linux_R35.4.1_aarch64/Linux_for_Tegra/sources/tegra/optee-src/nv-optee/optee/optee_os/lib/libutils/ext/snprintk.c:619
    199c:	b4000048 	cbz	x8, 19a4 <kprintf.constprop.0+0xad4>
/home/ssysarch/Desktop/nick/jetpack_5/Jetson_Linux_R35.4.1_aarch64/Linux_for_Tegra/sources/tegra/optee-src/nv-optee/optee/optee_os/lib/libutils/ext/snprintk.c:620
    19a0:	f9000116 	str	x22, [x8]
/home/ssysarch/Desktop/nick/jetpack_5/Jetson_Linux_R35.4.1_aarch64/Linux_for_Tegra/sources/tegra/optee-src/nv-optee/optee/optee_os/lib/libutils/ext/snprintk.c:622
    19a4:	900000c0 	adrp	x0, 19000 <_DYNAMIC>
    19a8:	f9409800 	ldr	x0, [x0, #304]
    19ac:	f94077e1 	ldr	x1, [sp, #232]
    19b0:	f9400002 	ldr	x2, [x0]
    19b4:	eb020021 	subs	x1, x1, x2
    19b8:	d2800002 	mov	x2, #0x0                   	// #0
    19bc:	54000680 	b.eq	1a8c <kprintf.constprop.0+0xbbc>  // b.none
    19c0:	97fffb4c 	bl	6f0 <__stack_chk_fail>
/home/ssysarch/Desktop/nick/jetpack_5/Jetson_Linux_R35.4.1_aarch64/Linux_for_Tegra/sources/tegra/optee-src/nv-optee/optee/optee_os/lib/libutils/ext/snprintk.c:574
    19c4:	360fdf95 	tbz	w21, #1, 15b4 <kprintf.constprop.0+0x6e4>
/home/ssysarch/Desktop/nick/jetpack_5/Jetson_Linux_R35.4.1_aarch64/Linux_for_Tegra/sources/tegra/optee-src/nv-optee/optee/optee_os/lib/libutils/ext/snprintk.c:575
    19c8:	11000884 	add	w4, w4, #0x2
    19cc:	17fffefa 	b	15b4 <kprintf.constprop.0+0x6e4>
/home/ssysarch/Desktop/nick/jetpack_5/Jetson_Linux_R35.4.1_aarch64/Linux_for_Tegra/sources/tegra/optee-src/nv-optee/optee/optee_os/lib/libutils/ext/snprintk.c:584
    19d0:	b40000b6 	cbz	x22, 19e4 <kprintf.constprop.0+0xb14>
    19d4:	f100011f 	cmp	x8, #0x0
    19d8:	fa561302 	ccmp	x24, x22, #0x2, ne  // ne = any
    19dc:	54000049 	b.ls	19e4 <kprintf.constprop.0+0xb14>  // b.plast
    19e0:	380016c2 	strb	w2, [x22], #1
    19e4:	510004e7 	sub	w7, w7, #0x1
    19e8:	17fffefb 	b	15d4 <kprintf.constprop.0+0x704>
/home/ssysarch/Desktop/nick/jetpack_5/Jetson_Linux_R35.4.1_aarch64/Linux_for_Tegra/sources/tegra/optee-src/nv-optee/optee/optee_os/lib/libutils/ext/snprintk.c:590
    19ec:	360fe055 	tbz	w21, #1, 15f4 <kprintf.constprop.0+0x724>
/home/ssysarch/Desktop/nick/jetpack_5/Jetson_Linux_R35.4.1_aarch64/Linux_for_Tegra/sources/tegra/optee-src/nv-optee/optee/optee_os/lib/libutils/ext/snprintk.c:591
    19f0:	b4ffe036 	cbz	x22, 15f4 <kprintf.constprop.0+0x724>
    19f4:	f100011f 	cmp	x8, #0x0
    19f8:	1a9f17e2 	cset	w2, eq  // eq = none
    19fc:	7100005f 	cmp	w2, #0x0
    1a00:	fa560302 	ccmp	x24, x22, #0x2, eq  // eq = none
    1a04:	54ffdf89 	b.ls	15f4 <kprintf.constprop.0+0x724>  // b.plast
    1a08:	aa1603e1 	mov	x1, x22
    1a0c:	52800607 	mov	w7, #0x30                  	// #48
/home/ssysarch/Desktop/nick/jetpack_5/Jetson_Linux_R35.4.1_aarch64/Linux_for_Tegra/sources/tegra/optee-src/nv-optee/optee/optee_os/lib/libutils/ext/snprintk.c:592
    1a10:	7100005f 	cmp	w2, #0x0
/home/ssysarch/Desktop/nick/jetpack_5/Jetson_Linux_R35.4.1_aarch64/Linux_for_Tegra/sources/tegra/optee-src/nv-optee/optee/optee_os/lib/libutils/ext/snprintk.c:591
    1a14:	38001427 	strb	w7, [x1], #1
/home/ssysarch/Desktop/nick/jetpack_5/Jetson_Linux_R35.4.1_aarch64/Linux_for_Tegra/sources/tegra/optee-src/nv-optee/optee/optee_os/lib/libutils/ext/snprintk.c:592
    1a18:	fa410302 	ccmp	x24, x1, #0x2, eq  // eq = none
    1a1c:	54000089 	b.ls	1a2c <kprintf.constprop.0+0xb5c>  // b.plast
    1a20:	91000ad6 	add	x22, x22, #0x2
    1a24:	381ff2dc 	sturb	w28, [x22, #-1]
    1a28:	17fffef3 	b	15f4 <kprintf.constprop.0+0x724>
    1a2c:	aa0103f6 	mov	x22, x1
    1a30:	17fffef1 	b	15f4 <kprintf.constprop.0+0x724>
/home/ssysarch/Desktop/nick/jetpack_5/Jetson_Linux_R35.4.1_aarch64/Linux_for_Tegra/sources/tegra/optee-src/nv-optee/optee/optee_os/lib/libutils/ext/snprintk.c:599
    1a34:	b40000b6 	cbz	x22, 1a48 <kprintf.constprop.0+0xb78>
    1a38:	f100011f 	cmp	x8, #0x0
    1a3c:	fa561302 	ccmp	x24, x22, #0x2, ne  // ne = any
    1a40:	54000049 	b.ls	1a48 <kprintf.constprop.0+0xb78>  // b.plast
    1a44:	380016c1 	strb	w1, [x22], #1
    1a48:	51000400 	sub	w0, w0, #0x1
    1a4c:	17fffeee 	b	1604 <kprintf.constprop.0+0x734>
/home/ssysarch/Desktop/nick/jetpack_5/Jetson_Linux_R35.4.1_aarch64/Linux_for_Tegra/sources/tegra/optee-src/nv-optee/optee/optee_os/lib/libutils/ext/snprintk.c:605
    1a50:	b40000b6 	cbz	x22, 1a64 <kprintf.constprop.0+0xb94>
    1a54:	f100011f 	cmp	x8, #0x0
    1a58:	fa561302 	ccmp	x24, x22, #0x2, ne  // ne = any
    1a5c:	54000049 	b.ls	1a64 <kprintf.constprop.0+0xb94>  // b.plast
    1a60:	380016c0 	strb	w0, [x22], #1
    1a64:	510004c6 	sub	w6, w6, #0x1
    1a68:	17fffeeb 	b	1614 <kprintf.constprop.0+0x744>
/home/ssysarch/Desktop/nick/jetpack_5/Jetson_Linux_R35.4.1_aarch64/Linux_for_Tegra/sources/tegra/optee-src/nv-optee/optee/optee_os/lib/libutils/ext/snprintk.c:609
    1a6c:	b40000d6 	cbz	x22, 1a84 <kprintf.constprop.0+0xbb4>
    1a70:	f100011f 	cmp	x8, #0x0
    1a74:	fa561302 	ccmp	x24, x22, #0x2, ne  // ne = any
    1a78:	54000069 	b.ls	1a84 <kprintf.constprop.0+0xbb4>  // b.plast
    1a7c:	38616860 	ldrb	w0, [x3, x1]
    1a80:	380016c0 	strb	w0, [x22], #1
/home/ssysarch/Desktop/nick/jetpack_5/Jetson_Linux_R35.4.1_aarch64/Linux_for_Tegra/sources/tegra/optee-src/nv-optee/optee/optee_os/lib/libutils/ext/snprintk.c:608
    1a84:	91000421 	add	x1, x1, #0x1
    1a88:	17fffee7 	b	1624 <kprintf.constprop.0+0x754>
/home/ssysarch/Desktop/nick/jetpack_5/Jetson_Linux_R35.4.1_aarch64/Linux_for_Tegra/sources/tegra/optee-src/nv-optee/optee/optee_os/lib/libutils/ext/snprintk.c:622
    1a8c:	2a1903e0 	mov	w0, w25
    1a90:	a9437bfd 	ldp	x29, x30, [sp, #48]
    1a94:	a94453f3 	ldp	x19, x20, [sp, #64]
    1a98:	a9455bf5 	ldp	x21, x22, [sp, #80]
    1a9c:	a94663f7 	ldp	x23, x24, [sp, #96]
    1aa0:	a9476bf9 	ldp	x25, x26, [sp, #112]
    1aa4:	a94873fb 	ldp	x27, x28, [sp, #128]
    1aa8:	9103c3ff 	add	sp, sp, #0xf0
    1aac:	d65f03c0 	ret

0000000000001ab0 <__vsprintf>:
__vsprintf():
/home/ssysarch/Desktop/nick/jetpack_5/Jetson_Linux_R35.4.1_aarch64/Linux_for_Tegra/sources/tegra/optee-src/nv-optee/optee/optee_os/lib/libutils/ext/snprintk.c:155
    1ab0:	a9bc7bfd 	stp	x29, x30, [sp, #-64]!
/home/ssysarch/Desktop/nick/jetpack_5/Jetson_Linux_R35.4.1_aarch64/Linux_for_Tegra/sources/tegra/optee-src/nv-optee/optee/optee_os/lib/libutils/ext/snprintk.c:156
    1ab4:	910083e3 	add	x3, sp, #0x20
/home/ssysarch/Desktop/nick/jetpack_5/Jetson_Linux_R35.4.1_aarch64/Linux_for_Tegra/sources/tegra/optee-src/nv-optee/optee/optee_os/lib/libutils/ext/snprintk.c:155
    1ab8:	910003fd 	mov	x29, sp
    1abc:	a90153f3 	stp	x19, x20, [sp, #16]
    1ac0:	aa0003f4 	mov	x20, x0
    1ac4:	aa0103f3 	mov	x19, x1
/home/ssysarch/Desktop/nick/jetpack_5/Jetson_Linux_R35.4.1_aarch64/Linux_for_Tegra/sources/tegra/optee-src/nv-optee/optee/optee_os/lib/libutils/ext/snprintk.c:156
    1ac8:	aa0303e0 	mov	x0, x3
/home/ssysarch/Desktop/nick/jetpack_5/Jetson_Linux_R35.4.1_aarch64/Linux_for_Tegra/sources/tegra/optee-src/nv-optee/optee/optee_os/lib/libutils/ext/snprintk.c:155
    1acc:	aa0203e1 	mov	x1, x2
/home/ssysarch/Desktop/nick/jetpack_5/Jetson_Linux_R35.4.1_aarch64/Linux_for_Tegra/sources/tegra/optee-src/nv-optee/optee/optee_os/lib/libutils/ext/snprintk.c:156
    1ad0:	d2800402 	mov	x2, #0x20                  	// #32
    1ad4:	97fff953 	bl	20 <memcpy>
    1ad8:	aa1403e2 	mov	x2, x20
    1adc:	aa0003e3 	mov	x3, x0
    1ae0:	52800004 	mov	w4, #0x0                   	// #0
    1ae4:	aa1303e0 	mov	x0, x19
    1ae8:	d2800001 	mov	x1, #0x0                   	// #0
    1aec:	97fffcf9 	bl	ed0 <kprintf.constprop.0>
/home/ssysarch/Desktop/nick/jetpack_5/Jetson_Linux_R35.4.1_aarch64/Linux_for_Tegra/sources/tegra/optee-src/nv-optee/optee/optee_os/lib/libutils/ext/snprintk.c:157
    1af0:	a94153f3 	ldp	x19, x20, [sp, #16]
    1af4:	a8c47bfd 	ldp	x29, x30, [sp], #64
    1af8:	d65f03c0 	ret

0000000000001afc <memchr>:
memchr():
/home/ssysarch/Desktop/nick/jetpack_5/Jetson_Linux_R35.4.1_aarch64/Linux_for_Tegra/sources/tegra/optee-src/nv-optee/optee/optee_os/lib/libutils/isoc/newlib/memchr.c:109
    1afc:	12001c21 	and	w1, w1, #0xff
/home/ssysarch/Desktop/nick/jetpack_5/Jetson_Linux_R35.4.1_aarch64/Linux_for_Tegra/sources/tegra/optee-src/nv-optee/optee/optee_os/lib/libutils/isoc/newlib/memchr.c:153
    1b00:	8b020002 	add	x2, x0, x2
    1b04:	eb02001f 	cmp	x0, x2
    1b08:	54000061 	b.ne	1b14 <memchr+0x18>  // b.any
/home/ssysarch/Desktop/nick/jetpack_5/Jetson_Linux_R35.4.1_aarch64/Linux_for_Tegra/sources/tegra/optee-src/nv-optee/optee/optee_os/lib/libutils/isoc/newlib/memchr.c:159
    1b0c:	d2800000 	mov	x0, #0x0                   	// #0
/home/ssysarch/Desktop/nick/jetpack_5/Jetson_Linux_R35.4.1_aarch64/Linux_for_Tegra/sources/tegra/optee-src/nv-optee/optee/optee_os/lib/libutils/isoc/newlib/memchr.c:160
    1b10:	d65f03c0 	ret
/home/ssysarch/Desktop/nick/jetpack_5/Jetson_Linux_R35.4.1_aarch64/Linux_for_Tegra/sources/tegra/optee-src/nv-optee/optee/optee_os/lib/libutils/isoc/newlib/memchr.c:154
    1b14:	39400003 	ldrb	w3, [x0]
    1b18:	6b01007f 	cmp	w3, w1
    1b1c:	54ffffa0 	b.eq	1b10 <memchr+0x14>  // b.none
/home/ssysarch/Desktop/nick/jetpack_5/Jetson_Linux_R35.4.1_aarch64/Linux_for_Tegra/sources/tegra/optee-src/nv-optee/optee/optee_os/lib/libutils/isoc/newlib/memchr.c:156
    1b20:	91000400 	add	x0, x0, #0x1
    1b24:	17fffff8 	b	1b04 <memchr+0x8>

0000000000001b28 <strlen>:
strlen():
/home/ssysarch/Desktop/nick/jetpack_5/Jetson_Linux_R35.4.1_aarch64/Linux_for_Tegra/sources/tegra/optee-src/nv-optee/optee/optee_os/lib/libutils/isoc/newlib/strlen.c:117
    1b28:	aa0003e1 	mov	x1, x0
    1b2c:	39400022 	ldrb	w2, [x1]
    1b30:	35000062 	cbnz	w2, 1b3c <strlen+0x14>
/home/ssysarch/Desktop/nick/jetpack_5/Jetson_Linux_R35.4.1_aarch64/Linux_for_Tegra/sources/tegra/optee-src/nv-optee/optee/optee_os/lib/libutils/isoc/newlib/strlen.c:120
    1b34:	cb000020 	sub	x0, x1, x0
    1b38:	d65f03c0 	ret
/home/ssysarch/Desktop/nick/jetpack_5/Jetson_Linux_R35.4.1_aarch64/Linux_for_Tegra/sources/tegra/optee-src/nv-optee/optee/optee_os/lib/libutils/isoc/newlib/strlen.c:118
    1b3c:	91000421 	add	x1, x1, #0x1
    1b40:	17fffffb 	b	1b2c <strlen+0x4>

0000000000001b44 <trace_ext_puts>:
trace_ext_puts():
/home/ssysarch/Desktop/nick/jetpack_5/Jetson_Linux_R35.4.1_aarch64/Linux_for_Tegra/sources/tegra/optee-src/nv-optee/optee/optee_os/lib/libutee/trace_ext.c:22
    1b44:	a9be7bfd 	stp	x29, x30, [sp, #-32]!
    1b48:	910003fd 	mov	x29, sp
    1b4c:	f9000bf3 	str	x19, [sp, #16]
    1b50:	aa0003f3 	mov	x19, x0
/home/ssysarch/Desktop/nick/jetpack_5/Jetson_Linux_R35.4.1_aarch64/Linux_for_Tegra/sources/tegra/optee-src/nv-optee/optee/optee_os/lib/libutee/trace_ext.c:26
    1b54:	97fffff5 	bl	1b28 <strlen>
    1b58:	aa0003e1 	mov	x1, x0
    1b5c:	aa1303e0 	mov	x0, x19
/home/ssysarch/Desktop/nick/jetpack_5/Jetson_Linux_R35.4.1_aarch64/Linux_for_Tegra/sources/tegra/optee-src/nv-optee/optee/optee_os/lib/libutee/trace_ext.c:28
    1b60:	f9400bf3 	ldr	x19, [sp, #16]
    1b64:	a8c27bfd 	ldp	x29, x30, [sp], #32
/home/ssysarch/Desktop/nick/jetpack_5/Jetson_Linux_R35.4.1_aarch64/Linux_for_Tegra/sources/tegra/optee-src/nv-optee/optee/optee_os/lib/libutee/trace_ext.c:26
    1b68:	14001fce 	b	9aa0 <_utee_log>

0000000000001b6c <trace_ext_get_thread_id>:
trace_ext_get_thread_id():
/home/ssysarch/Desktop/nick/jetpack_5/Jetson_Linux_R35.4.1_aarch64/Linux_for_Tegra/sources/tegra/optee-src/nv-optee/optee/optee_os/lib/libutee/trace_ext.c:33
    1b6c:	12800000 	mov	w0, #0xffffffff            	// #-1
    1b70:	d65f03c0 	ret

0000000000001b74 <printf>:
printf():
/home/ssysarch/Desktop/nick/jetpack_5/Jetson_Linux_R35.4.1_aarch64/Linux_for_Tegra/sources/tegra/optee-src/nv-optee/optee/optee_os/lib/libutee/trace_ext.c:41
    1b74:	d108c3ff 	sub	sp, sp, #0x230
    1b78:	a9007bfd 	stp	x29, x30, [sp]
    1b7c:	910003fd 	mov	x29, sp
    1b80:	a90153f3 	stp	x19, x20, [sp, #16]
    1b84:	aa0003f3 	mov	x19, x0
    1b88:	910823e0 	add	x0, sp, #0x208
    1b8c:	a91f8be1 	stp	x1, x2, [sp, #504]
    1b90:	900000c1 	adrp	x1, 19000 <_DYNAMIC>
    1b94:	3d805fe0 	str	q0, [sp, #368]
    1b98:	3d8063e1 	str	q1, [sp, #384]
    1b9c:	3d8067e2 	str	q2, [sp, #400]
    1ba0:	3d806be3 	str	q3, [sp, #416]
    1ba4:	3d806fe4 	str	q4, [sp, #432]
    1ba8:	3d8073e5 	str	q5, [sp, #448]
    1bac:	3d8077e6 	str	q6, [sp, #464]
    1bb0:	3d807be7 	str	q7, [sp, #480]
    1bb4:	f9409821 	ldr	x1, [x1, #304]
    1bb8:	a9001003 	stp	x3, x4, [x0]
    1bbc:	a9011805 	stp	x5, x6, [x0, #16]
    1bc0:	f90117e7 	str	x7, [sp, #552]
    1bc4:	f9400020 	ldr	x0, [x1]
    1bc8:	f900b7e0 	str	x0, [sp, #360]
    1bcc:	d2800000 	mov	x0, #0x0                   	// #0
/home/ssysarch/Desktop/nick/jetpack_5/Jetson_Linux_R35.4.1_aarch64/Linux_for_Tegra/sources/tegra/optee-src/nv-optee/optee/optee_os/lib/libutee/trace_ext.c:46
    1bd0:	97fffb1e 	bl	848 <trace_get_level>
    1bd4:	7100001f 	cmp	w0, #0x0
    1bd8:	5400040d 	b.le	1c58 <printf+0xe4>
/home/ssysarch/Desktop/nick/jetpack_5/Jetson_Linux_R35.4.1_aarch64/Linux_for_Tegra/sources/tegra/optee-src/nv-optee/optee/optee_os/lib/libutee/trace_ext.c:49
    1bdc:	9108c3e0 	add	x0, sp, #0x230
/home/ssysarch/Desktop/nick/jetpack_5/Jetson_Linux_R35.4.1_aarch64/Linux_for_Tegra/sources/tegra/optee-src/nv-optee/optee/optee_os/lib/libutee/trace_ext.c:50
    1be0:	910083e3 	add	x3, sp, #0x20
/home/ssysarch/Desktop/nick/jetpack_5/Jetson_Linux_R35.4.1_aarch64/Linux_for_Tegra/sources/tegra/optee-src/nv-optee/optee/optee_os/lib/libutee/trace_ext.c:49
    1be4:	a90483e0 	stp	x0, x0, [sp, #72]
    1be8:	9107c3e0 	add	x0, sp, #0x1f0
/home/ssysarch/Desktop/nick/jetpack_5/Jetson_Linux_R35.4.1_aarch64/Linux_for_Tegra/sources/tegra/optee-src/nv-optee/optee/optee_os/lib/libutee/trace_ext.c:50
    1bec:	910123e1 	add	x1, sp, #0x48
/home/ssysarch/Desktop/nick/jetpack_5/Jetson_Linux_R35.4.1_aarch64/Linux_for_Tegra/sources/tegra/optee-src/nv-optee/optee/optee_os/lib/libutee/trace_ext.c:49
    1bf0:	f9002fe0 	str	x0, [sp, #88]
    1bf4:	128006e0 	mov	w0, #0xffffffc8            	// #-56
    1bf8:	b90063e0 	str	w0, [sp, #96]
    1bfc:	12800fe0 	mov	w0, #0xffffff80            	// #-128
/home/ssysarch/Desktop/nick/jetpack_5/Jetson_Linux_R35.4.1_aarch64/Linux_for_Tegra/sources/tegra/optee-src/nv-optee/optee/optee_os/lib/libutee/trace_ext.c:50
    1c00:	d2800402 	mov	x2, #0x20                  	// #32
    1c04:	9101a3f4 	add	x20, sp, #0x68
/home/ssysarch/Desktop/nick/jetpack_5/Jetson_Linux_R35.4.1_aarch64/Linux_for_Tegra/sources/tegra/optee-src/nv-optee/optee/optee_os/lib/libutee/trace_ext.c:49
    1c08:	b90067e0 	str	w0, [sp, #100]
/home/ssysarch/Desktop/nick/jetpack_5/Jetson_Linux_R35.4.1_aarch64/Linux_for_Tegra/sources/tegra/optee-src/nv-optee/optee/optee_os/lib/libutee/trace_ext.c:50
    1c0c:	aa0303e0 	mov	x0, x3
    1c10:	97fff904 	bl	20 <memcpy>
    1c14:	aa0003e3 	mov	x3, x0
    1c18:	aa1303e2 	mov	x2, x19
    1c1c:	aa1403e0 	mov	x0, x20
    1c20:	d2802001 	mov	x1, #0x100                 	// #256
    1c24:	94004453 	bl	12d70 <vsnprintf>
    1c28:	2a0003f3 	mov	w19, w0
/home/ssysarch/Desktop/nick/jetpack_5/Jetson_Linux_R35.4.1_aarch64/Linux_for_Tegra/sources/tegra/optee-src/nv-optee/optee/optee_os/lib/libutee/trace_ext.c:53
    1c2c:	37f80060 	tbnz	w0, #31, 1c38 <printf+0xc4>
/home/ssysarch/Desktop/nick/jetpack_5/Jetson_Linux_R35.4.1_aarch64/Linux_for_Tegra/sources/tegra/optee-src/nv-optee/optee/optee_os/lib/libutee/trace_ext.c:56
    1c30:	aa1403e0 	mov	x0, x20
    1c34:	97ffffc4 	bl	1b44 <trace_ext_puts>
/home/ssysarch/Desktop/nick/jetpack_5/Jetson_Linux_R35.4.1_aarch64/Linux_for_Tegra/sources/tegra/optee-src/nv-optee/optee/optee_os/lib/libutee/trace_ext.c:59
    1c38:	900000c1 	adrp	x1, 19000 <_DYNAMIC>
    1c3c:	f9409821 	ldr	x1, [x1, #304]
    1c40:	f940b7e0 	ldr	x0, [sp, #360]
    1c44:	f9400022 	ldr	x2, [x1]
    1c48:	eb020000 	subs	x0, x0, x2
    1c4c:	d2800002 	mov	x2, #0x0                   	// #0
    1c50:	54000080 	b.eq	1c60 <printf+0xec>  // b.none
    1c54:	97fffaa7 	bl	6f0 <__stack_chk_fail>
/home/ssysarch/Desktop/nick/jetpack_5/Jetson_Linux_R35.4.1_aarch64/Linux_for_Tegra/sources/tegra/optee-src/nv-optee/optee/optee_os/lib/libutee/trace_ext.c:47
    1c58:	52800013 	mov	w19, #0x0                   	// #0
    1c5c:	17fffff7 	b	1c38 <printf+0xc4>
/home/ssysarch/Desktop/nick/jetpack_5/Jetson_Linux_R35.4.1_aarch64/Linux_for_Tegra/sources/tegra/optee-src/nv-optee/optee/optee_os/lib/libutee/trace_ext.c:59
    1c60:	2a1303e0 	mov	w0, w19
    1c64:	a9407bfd 	ldp	x29, x30, [sp]
    1c68:	a94153f3 	ldp	x19, x20, [sp, #16]
    1c6c:	9108c3ff 	add	sp, sp, #0x230
    1c70:	d65f03c0 	ret

0000000000001c74 <puts>:
puts():
/home/ssysarch/Desktop/nick/jetpack_5/Jetson_Linux_R35.4.1_aarch64/Linux_for_Tegra/sources/tegra/optee-src/nv-optee/optee/optee_os/lib/libutee/trace_ext.c:62
    1c74:	a9be7bfd 	stp	x29, x30, [sp, #-32]!
    1c78:	910003fd 	mov	x29, sp
    1c7c:	f9000bf3 	str	x19, [sp, #16]
    1c80:	aa0003f3 	mov	x19, x0
/home/ssysarch/Desktop/nick/jetpack_5/Jetson_Linux_R35.4.1_aarch64/Linux_for_Tegra/sources/tegra/optee-src/nv-optee/optee/optee_os/lib/libutee/trace_ext.c:63
    1c84:	97fffaf1 	bl	848 <trace_get_level>
    1c88:	7100001f 	cmp	w0, #0x0
    1c8c:	540000cd 	b.le	1ca4 <puts+0x30>
/home/ssysarch/Desktop/nick/jetpack_5/Jetson_Linux_R35.4.1_aarch64/Linux_for_Tegra/sources/tegra/optee-src/nv-optee/optee/optee_os/lib/libutee/trace_ext.c:64
    1c90:	aa1303e0 	mov	x0, x19
    1c94:	97ffffac 	bl	1b44 <trace_ext_puts>
/home/ssysarch/Desktop/nick/jetpack_5/Jetson_Linux_R35.4.1_aarch64/Linux_for_Tegra/sources/tegra/optee-src/nv-optee/optee/optee_os/lib/libutee/trace_ext.c:65
    1c98:	d00000a0 	adrp	x0, 17000 <small_prime+0x140>
    1c9c:	91356c00 	add	x0, x0, #0xd5b
    1ca0:	97ffffa9 	bl	1b44 <trace_ext_puts>
/home/ssysarch/Desktop/nick/jetpack_5/Jetson_Linux_R35.4.1_aarch64/Linux_for_Tegra/sources/tegra/optee-src/nv-optee/optee/optee_os/lib/libutee/trace_ext.c:68
    1ca4:	52800020 	mov	w0, #0x1                   	// #1
    1ca8:	f9400bf3 	ldr	x19, [sp, #16]
    1cac:	a8c27bfd 	ldp	x29, x30, [sp], #32
    1cb0:	d65f03c0 	ret

0000000000001cb4 <putchar>:
putchar():
/home/ssysarch/Desktop/nick/jetpack_5/Jetson_Linux_R35.4.1_aarch64/Linux_for_Tegra/sources/tegra/optee-src/nv-optee/optee/optee_os/lib/libutee/trace_ext.c:71
    1cb4:	a9bd7bfd 	stp	x29, x30, [sp, #-48]!
    1cb8:	900000c1 	adrp	x1, 19000 <_DYNAMIC>
    1cbc:	910003fd 	mov	x29, sp
    1cc0:	f9409821 	ldr	x1, [x1, #304]
    1cc4:	f9000bf3 	str	x19, [sp, #16]
    1cc8:	2a0003f3 	mov	w19, w0
/home/ssysarch/Desktop/nick/jetpack_5/Jetson_Linux_R35.4.1_aarch64/Linux_for_Tegra/sources/tegra/optee-src/nv-optee/optee/optee_os/lib/libutee/trace_ext.c:72
    1ccc:	390083f3 	strb	w19, [sp, #32]
/home/ssysarch/Desktop/nick/jetpack_5/Jetson_Linux_R35.4.1_aarch64/Linux_for_Tegra/sources/tegra/optee-src/nv-optee/optee/optee_os/lib/libutee/trace_ext.c:71
    1cd0:	f9400020 	ldr	x0, [x1]
    1cd4:	f90017e0 	str	x0, [sp, #40]
    1cd8:	d2800000 	mov	x0, #0x0                   	// #0
/home/ssysarch/Desktop/nick/jetpack_5/Jetson_Linux_R35.4.1_aarch64/Linux_for_Tegra/sources/tegra/optee-src/nv-optee/optee/optee_os/lib/libutee/trace_ext.c:72
    1cdc:	390087ff 	strb	wzr, [sp, #33]
/home/ssysarch/Desktop/nick/jetpack_5/Jetson_Linux_R35.4.1_aarch64/Linux_for_Tegra/sources/tegra/optee-src/nv-optee/optee/optee_os/lib/libutee/trace_ext.c:74
    1ce0:	97fffada 	bl	848 <trace_get_level>
    1ce4:	7100001f 	cmp	w0, #0x0
    1ce8:	5400006d 	b.le	1cf4 <putchar+0x40>
/home/ssysarch/Desktop/nick/jetpack_5/Jetson_Linux_R35.4.1_aarch64/Linux_for_Tegra/sources/tegra/optee-src/nv-optee/optee/optee_os/lib/libutee/trace_ext.c:75
    1cec:	910083e0 	add	x0, sp, #0x20
    1cf0:	97ffff95 	bl	1b44 <trace_ext_puts>
/home/ssysarch/Desktop/nick/jetpack_5/Jetson_Linux_R35.4.1_aarch64/Linux_for_Tegra/sources/tegra/optee-src/nv-optee/optee/optee_os/lib/libutee/trace_ext.c:82
    1cf4:	900000c1 	adrp	x1, 19000 <_DYNAMIC>
/home/ssysarch/Desktop/nick/jetpack_5/Jetson_Linux_R35.4.1_aarch64/Linux_for_Tegra/sources/tegra/optee-src/nv-optee/optee/optee_os/lib/libutee/trace_ext.c:81
    1cf8:	12001e60 	and	w0, w19, #0xff
/home/ssysarch/Desktop/nick/jetpack_5/Jetson_Linux_R35.4.1_aarch64/Linux_for_Tegra/sources/tegra/optee-src/nv-optee/optee/optee_os/lib/libutee/trace_ext.c:82
    1cfc:	f9409821 	ldr	x1, [x1, #304]
    1d00:	f94017e2 	ldr	x2, [sp, #40]
    1d04:	f9400023 	ldr	x3, [x1]
    1d08:	eb030042 	subs	x2, x2, x3
    1d0c:	d2800003 	mov	x3, #0x0                   	// #0
    1d10:	54000040 	b.eq	1d18 <putchar+0x64>  // b.none
    1d14:	97fffa77 	bl	6f0 <__stack_chk_fail>
    1d18:	f9400bf3 	ldr	x19, [sp, #16]
    1d1c:	a8c37bfd 	ldp	x29, x30, [sp], #48
    1d20:	d65f03c0 	ret

0000000000001d24 <copy_param>:
copy_param():
/home/ssysarch/Desktop/nick/jetpack_5/Jetson_Linux_R35.4.1_aarch64/Linux_for_Tegra/sources/tegra/optee-src/nv-optee/optee/optee_os/lib/libutee/tee_api.c:43
    1d24:	2a0103e3 	mov	w3, w1
    1d28:	52800004 	mov	w4, #0x0                   	// #0
    1d2c:	f8008403 	str	x3, [x0], #8
/home/ssysarch/Desktop/nick/jetpack_5/Jetson_Linux_R35.4.1_aarch64/Linux_for_Tegra/sources/tegra/optee-src/nv-optee/optee/optee_os/lib/libutee/tee_api.c:45
    1d30:	1ac42425 	lsr	w5, w1, w4
    1d34:	12000ca3 	and	w3, w5, #0xf
    1d38:	71000c7f 	cmp	w3, #0x3
    1d3c:	540001a0 	b.eq	1d70 <copy_param+0x4c>  // b.none
    1d40:	721e04bf 	tst	w5, #0xc
    1d44:	540000c1 	b.ne	1d5c <copy_param+0x38>  // b.any
    1d48:	7100047f 	cmp	w3, #0x1
    1d4c:	54000120 	b.eq	1d70 <copy_param+0x4c>  // b.none
    1d50:	d2800003 	mov	x3, #0x0                   	// #0
    1d54:	d2800005 	mov	x5, #0x0                   	// #0
    1d58:	14000007 	b	1d74 <copy_param+0x50>
    1d5c:	51001463 	sub	w3, w3, #0x5
    1d60:	7100087f 	cmp	w3, #0x2
    1d64:	54ffff68 	b.hi	1d50 <copy_param+0x2c>  // b.pmore
/home/ssysarch/Desktop/nick/jetpack_5/Jetson_Linux_R35.4.1_aarch64/Linux_for_Tegra/sources/tegra/optee-src/nv-optee/optee/optee_os/lib/libutee/tee_api.c:55
    1d68:	a9400c45 	ldp	x5, x3, [x2]
/home/ssysarch/Desktop/nick/jetpack_5/Jetson_Linux_R35.4.1_aarch64/Linux_for_Tegra/sources/tegra/optee-src/nv-optee/optee/optee_os/lib/libutee/tee_api.c:56
    1d6c:	14000002 	b	1d74 <copy_param+0x50>
/home/ssysarch/Desktop/nick/jetpack_5/Jetson_Linux_R35.4.1_aarch64/Linux_for_Tegra/sources/tegra/optee-src/nv-optee/optee/optee_os/lib/libutee/tee_api.c:49
    1d70:	29400c45 	ldp	w5, w3, [x2]
/home/ssysarch/Desktop/nick/jetpack_5/Jetson_Linux_R35.4.1_aarch64/Linux_for_Tegra/sources/tegra/optee-src/nv-optee/optee/optee_os/lib/libutee/tee_api.c:62 (discriminator 2)
    1d74:	a9000c05 	stp	x5, x3, [x0]
/home/ssysarch/Desktop/nick/jetpack_5/Jetson_Linux_R35.4.1_aarch64/Linux_for_Tegra/sources/tegra/optee-src/nv-optee/optee/optee_os/lib/libutee/tee_api.c:44 (discriminator 2)
    1d78:	11001084 	add	w4, w4, #0x4
    1d7c:	91004042 	add	x2, x2, #0x10
    1d80:	7100409f 	cmp	w4, #0x10
    1d84:	91004000 	add	x0, x0, #0x10
    1d88:	54fffd41 	b.ne	1d30 <copy_param+0xc>  // b.any
/home/ssysarch/Desktop/nick/jetpack_5/Jetson_Linux_R35.4.1_aarch64/Linux_for_Tegra/sources/tegra/optee-src/nv-optee/optee/optee_os/lib/libutee/tee_api.c:64
    1d8c:	d65f03c0 	ret

0000000000001d90 <copy_gp11_param>:
copy_gp11_param():
/home/ssysarch/Desktop/nick/jetpack_5/Jetson_Linux_R35.4.1_aarch64/Linux_for_Tegra/sources/tegra/optee-src/nv-optee/optee/optee_os/lib/libutee/tee_api.c:73
    1d90:	2a0103e3 	mov	w3, w1
    1d94:	52800004 	mov	w4, #0x0                   	// #0
    1d98:	f8008403 	str	x3, [x0], #8
/home/ssysarch/Desktop/nick/jetpack_5/Jetson_Linux_R35.4.1_aarch64/Linux_for_Tegra/sources/tegra/optee-src/nv-optee/optee/optee_os/lib/libutee/tee_api.c:75
    1d9c:	1ac42425 	lsr	w5, w1, w4
    1da0:	12000ca3 	and	w3, w5, #0xf
    1da4:	71000c7f 	cmp	w3, #0x3
    1da8:	540001c0 	b.eq	1de0 <copy_gp11_param+0x50>  // b.none
    1dac:	721e04bf 	tst	w5, #0xc
    1db0:	540000c1 	b.ne	1dc8 <copy_gp11_param+0x38>  // b.any
    1db4:	7100047f 	cmp	w3, #0x1
    1db8:	54000140 	b.eq	1de0 <copy_gp11_param+0x50>  // b.none
    1dbc:	d2800003 	mov	x3, #0x0                   	// #0
    1dc0:	d2800005 	mov	x5, #0x0                   	// #0
    1dc4:	14000008 	b	1de4 <copy_gp11_param+0x54>
    1dc8:	51001463 	sub	w3, w3, #0x5
    1dcc:	7100087f 	cmp	w3, #0x2
    1dd0:	54ffff68 	b.hi	1dbc <copy_gp11_param+0x2c>  // b.pmore
/home/ssysarch/Desktop/nick/jetpack_5/Jetson_Linux_R35.4.1_aarch64/Linux_for_Tegra/sources/tegra/optee-src/nv-optee/optee/optee_os/lib/libutee/tee_api.c:85
    1dd4:	b9400843 	ldr	w3, [x2, #8]
/home/ssysarch/Desktop/nick/jetpack_5/Jetson_Linux_R35.4.1_aarch64/Linux_for_Tegra/sources/tegra/optee-src/nv-optee/optee/optee_os/lib/libutee/tee_api.c:84
    1dd8:	f9400045 	ldr	x5, [x2]
/home/ssysarch/Desktop/nick/jetpack_5/Jetson_Linux_R35.4.1_aarch64/Linux_for_Tegra/sources/tegra/optee-src/nv-optee/optee/optee_os/lib/libutee/tee_api.c:86
    1ddc:	14000002 	b	1de4 <copy_gp11_param+0x54>
/home/ssysarch/Desktop/nick/jetpack_5/Jetson_Linux_R35.4.1_aarch64/Linux_for_Tegra/sources/tegra/optee-src/nv-optee/optee/optee_os/lib/libutee/tee_api.c:79
    1de0:	29400c45 	ldp	w5, w3, [x2]
/home/ssysarch/Desktop/nick/jetpack_5/Jetson_Linux_R35.4.1_aarch64/Linux_for_Tegra/sources/tegra/optee-src/nv-optee/optee/optee_os/lib/libutee/tee_api.c:92 (discriminator 2)
    1de4:	a9000c05 	stp	x5, x3, [x0]
/home/ssysarch/Desktop/nick/jetpack_5/Jetson_Linux_R35.4.1_aarch64/Linux_for_Tegra/sources/tegra/optee-src/nv-optee/optee/optee_os/lib/libutee/tee_api.c:74 (discriminator 2)
    1de8:	11001084 	add	w4, w4, #0x4
    1dec:	91004042 	add	x2, x2, #0x10
    1df0:	7100409f 	cmp	w4, #0x10
    1df4:	91004000 	add	x0, x0, #0x10
    1df8:	54fffd21 	b.ne	1d9c <copy_gp11_param+0xc>  // b.any
/home/ssysarch/Desktop/nick/jetpack_5/Jetson_Linux_R35.4.1_aarch64/Linux_for_Tegra/sources/tegra/optee-src/nv-optee/optee/optee_os/lib/libutee/tee_api.c:94
    1dfc:	d65f03c0 	ret

0000000000001e00 <check_mem_access_rights_params>:
check_mem_access_rights_params():
/home/ssysarch/Desktop/nick/jetpack_5/Jetson_Linux_R35.4.1_aarch64/Linux_for_Tegra/sources/tegra/optee-src/nv-optee/optee/optee_os/lib/libutee/tee_api.c:261
    1e00:	900000c3 	adrp	x3, 19000 <_DYNAMIC>
bufs_intersect():
/home/ssysarch/Desktop/nick/jetpack_5/Jetson_Linux_R35.4.1_aarch64/Linux_for_Tegra/sources/tegra/optee-src/nv-optee/optee/optee_os/lib/libutee/tee_api.c:241
    1e04:	d1000447 	sub	x7, x2, #0x1
    1e08:	8b0100e7 	add	x7, x7, x1
check_mem_access_rights_params():
/home/ssysarch/Desktop/nick/jetpack_5/Jetson_Linux_R35.4.1_aarch64/Linux_for_Tegra/sources/tegra/optee-src/nv-optee/optee/optee_os/lib/libutee/tee_api.c:261
    1e0c:	52800005 	mov	w5, #0x0                   	// #0
    1e10:	f940cc64 	ldr	x4, [x3, #408]
    1e14:	f940e463 	ldr	x3, [x3, #456]
    1e18:	b9400089 	ldr	w9, [x4]
    1e1c:	1ac52524 	lsr	w4, w9, w5
    1e20:	12000c84 	and	w4, w4, #0xf
    1e24:	7100149f 	cmp	w4, #0x5
    1e28:	540002e0 	b.eq	1e84 <check_mem_access_rights_params+0x84>  // b.none
    1e2c:	51001884 	sub	w4, w4, #0x6
    1e30:	7100049f 	cmp	w4, #0x1
    1e34:	540001c8 	b.hi	1e6c <check_mem_access_rights_params+0x6c>  // b.pmore
    1e38:	528000c6 	mov	w6, #0x6                   	// #6
/home/ssysarch/Desktop/nick/jetpack_5/Jetson_Linux_R35.4.1_aarch64/Linux_for_Tegra/sources/tegra/optee-src/nv-optee/optee/optee_os/lib/libutee/tee_api.c:268
    1e3c:	a9401068 	ldp	x8, x4, [x3]
bufs_intersect():
/home/ssysarch/Desktop/nick/jetpack_5/Jetson_Linux_R35.4.1_aarch64/Linux_for_Tegra/sources/tegra/optee-src/nv-optee/optee/optee_os/lib/libutee/tee_api.c:244
    1e40:	f100005f 	cmp	x2, #0x0
    1e44:	fa401884 	ccmp	x4, #0x0, #0x4, ne  // ne = any
    1e48:	54000120 	b.eq	1e6c <check_mem_access_rights_params+0x6c>  // b.none
/home/ssysarch/Desktop/nick/jetpack_5/Jetson_Linux_R35.4.1_aarch64/Linux_for_Tegra/sources/tegra/optee-src/nv-optee/optee/optee_os/lib/libutee/tee_api.c:242
    1e4c:	d1000484 	sub	x4, x4, #0x1
/home/ssysarch/Desktop/nick/jetpack_5/Jetson_Linux_R35.4.1_aarch64/Linux_for_Tegra/sources/tegra/optee-src/nv-optee/optee/optee_os/lib/libutee/tee_api.c:247
    1e50:	eb07011f 	cmp	x8, x7
/home/ssysarch/Desktop/nick/jetpack_5/Jetson_Linux_R35.4.1_aarch64/Linux_for_Tegra/sources/tegra/optee-src/nv-optee/optee/optee_os/lib/libutee/tee_api.c:242
    1e54:	8b080084 	add	x4, x4, x8
/home/ssysarch/Desktop/nick/jetpack_5/Jetson_Linux_R35.4.1_aarch64/Linux_for_Tegra/sources/tegra/optee-src/nv-optee/optee/optee_os/lib/libutee/tee_api.c:247
    1e58:	fa449022 	ccmp	x1, x4, #0x2, ls  // ls = plast
    1e5c:	54000088 	b.hi	1e6c <check_mem_access_rights_params+0x6c>  // b.pmore
check_mem_access_rights_params():
/home/ssysarch/Desktop/nick/jetpack_5/Jetson_Linux_R35.4.1_aarch64/Linux_for_Tegra/sources/tegra/optee-src/nv-optee/optee/optee_os/lib/libutee/tee_api.c:267
    1e60:	320000c6 	orr	w6, w6, #0x1
/home/ssysarch/Desktop/nick/jetpack_5/Jetson_Linux_R35.4.1_aarch64/Linux_for_Tegra/sources/tegra/optee-src/nv-optee/optee/optee_os/lib/libutee/tee_api.c:271
    1e64:	6a26001f 	bics	wzr, w0, w6
    1e68:	54000121 	b.ne	1e8c <check_mem_access_rights_params+0x8c>  // b.any
/home/ssysarch/Desktop/nick/jetpack_5/Jetson_Linux_R35.4.1_aarch64/Linux_for_Tegra/sources/tegra/optee-src/nv-optee/optee/optee_os/lib/libutee/tee_api.c:258 (discriminator 2)
    1e6c:	110010a5 	add	w5, w5, #0x4
    1e70:	91004063 	add	x3, x3, #0x10
    1e74:	710040bf 	cmp	w5, #0x10
    1e78:	54fffd21 	b.ne	1e1c <check_mem_access_rights_params+0x1c>  // b.any
/home/ssysarch/Desktop/nick/jetpack_5/Jetson_Linux_R35.4.1_aarch64/Linux_for_Tegra/sources/tegra/optee-src/nv-optee/optee/optee_os/lib/libutee/tee_api.c:280
    1e7c:	52800000 	mov	w0, #0x0                   	// #0
/home/ssysarch/Desktop/nick/jetpack_5/Jetson_Linux_R35.4.1_aarch64/Linux_for_Tegra/sources/tegra/optee-src/nv-optee/optee/optee_os/lib/libutee/tee_api.c:281
    1e80:	d65f03c0 	ret
/home/ssysarch/Desktop/nick/jetpack_5/Jetson_Linux_R35.4.1_aarch64/Linux_for_Tegra/sources/tegra/optee-src/nv-optee/optee/optee_os/lib/libutee/tee_api.c:259
    1e84:	52800086 	mov	w6, #0x4                   	// #4
    1e88:	17ffffed 	b	1e3c <check_mem_access_rights_params+0x3c>
/home/ssysarch/Desktop/nick/jetpack_5/Jetson_Linux_R35.4.1_aarch64/Linux_for_Tegra/sources/tegra/optee-src/nv-optee/optee/optee_os/lib/libutee/tee_api.c:272
    1e8c:	129fffc0 	mov	w0, #0xffff0001            	// #-65535
    1e90:	17fffffc 	b	1e80 <check_mem_access_rights_params+0x80>

0000000000001e94 <buf_overlaps_no_share_heap>:
buf_overlaps_no_share_heap():
/home/ssysarch/Desktop/nick/jetpack_5/Jetson_Linux_R35.4.1_aarch64/Linux_for_Tegra/sources/tegra/optee-src/nv-optee/optee/optee_os/lib/libutee/tee_api.c:284
    1e94:	aa0003e3 	mov	x3, x0
/home/ssysarch/Desktop/nick/jetpack_5/Jetson_Linux_R35.4.1_aarch64/Linux_for_Tegra/sources/tegra/optee-src/nv-optee/optee/optee_os/lib/libutee/tee_api.c:285
    1e98:	900000c0 	adrp	x0, 19000 <_DYNAMIC>
    1e9c:	f940dc00 	ldr	x0, [x0, #440]
    1ea0:	f9400000 	ldr	x0, [x0]
/home/ssysarch/Desktop/nick/jetpack_5/Jetson_Linux_R35.4.1_aarch64/Linux_for_Tegra/sources/tegra/optee-src/nv-optee/optee/optee_os/lib/libutee/tee_api.c:287
    1ea4:	b4000140 	cbz	x0, 1ecc <buf_overlaps_no_share_heap+0x38>
/home/ssysarch/Desktop/nick/jetpack_5/Jetson_Linux_R35.4.1_aarch64/Linux_for_Tegra/sources/tegra/optee-src/nv-optee/optee/optee_os/lib/libutee/tee_api.c:284 (discriminator 1)
    1ea8:	a9bf7bfd 	stp	x29, x30, [sp, #-16]!
    1eac:	aa0103e2 	mov	x2, x1
/home/ssysarch/Desktop/nick/jetpack_5/Jetson_Linux_R35.4.1_aarch64/Linux_for_Tegra/sources/tegra/optee-src/nv-optee/optee/optee_os/lib/libutee/tee_api.c:287 (discriminator 1)
    1eb0:	aa0303e1 	mov	x1, x3
/home/ssysarch/Desktop/nick/jetpack_5/Jetson_Linux_R35.4.1_aarch64/Linux_for_Tegra/sources/tegra/optee-src/nv-optee/optee/optee_os/lib/libutee/tee_api.c:284 (discriminator 1)
    1eb4:	910003fd 	mov	x29, sp
/home/ssysarch/Desktop/nick/jetpack_5/Jetson_Linux_R35.4.1_aarch64/Linux_for_Tegra/sources/tegra/optee-src/nv-optee/optee/optee_os/lib/libutee/tee_api.c:287 (discriminator 1)
    1eb8:	940042e4 	bl	12a48 <raw_malloc_buffer_overlaps_heap>
    1ebc:	12001c00 	and	w0, w0, #0xff
/home/ssysarch/Desktop/nick/jetpack_5/Jetson_Linux_R35.4.1_aarch64/Linux_for_Tegra/sources/tegra/optee-src/nv-optee/optee/optee_os/lib/libutee/tee_api.c:288 (discriminator 1)
    1ec0:	12000000 	and	w0, w0, #0x1
    1ec4:	a8c17bfd 	ldp	x29, x30, [sp], #16
    1ec8:	d65f03c0 	ret
/home/ssysarch/Desktop/nick/jetpack_5/Jetson_Linux_R35.4.1_aarch64/Linux_for_Tegra/sources/tegra/optee-src/nv-optee/optee/optee_os/lib/libutee/tee_api.c:287
    1ecc:	52800000 	mov	w0, #0x0                   	// #0
/home/ssysarch/Desktop/nick/jetpack_5/Jetson_Linux_R35.4.1_aarch64/Linux_for_Tegra/sources/tegra/optee-src/nv-optee/optee/optee_os/lib/libutee/tee_api.c:288
    1ed0:	12000000 	and	w0, w0, #0x1
    1ed4:	d65f03c0 	ret

0000000000001ed8 <check_invoke_param>:
check_invoke_param():
/home/ssysarch/Desktop/nick/jetpack_5/Jetson_Linux_R35.4.1_aarch64/Linux_for_Tegra/sources/tegra/optee-src/nv-optee/optee/optee_os/lib/libutee/tee_api.c:291
    1ed8:	a9bc7bfd 	stp	x29, x30, [sp, #-64]!
    1edc:	910003fd 	mov	x29, sp
    1ee0:	a90153f3 	stp	x19, x20, [sp, #16]
    1ee4:	91002033 	add	x19, x1, #0x8
    1ee8:	52800014 	mov	w20, #0x0                   	// #0
    1eec:	a9025bf5 	stp	x21, x22, [sp, #32]
    1ef0:	2a0003f5 	mov	w21, w0
    1ef4:	f9001bf7 	str	x23, [sp, #48]
/home/ssysarch/Desktop/nick/jetpack_5/Jetson_Linux_R35.4.1_aarch64/Linux_for_Tegra/sources/tegra/optee-src/nv-optee/optee/optee_os/lib/libutee/tee_api.c:299
    1ef8:	1ad426a1 	lsr	w1, w21, w20
    1efc:	12000c21 	and	w1, w1, #0xf
    1f00:	7100143f 	cmp	w1, #0x5
    1f04:	540003a0 	b.eq	1f78 <check_invoke_param+0xa0>  // b.none
    1f08:	51001821 	sub	w1, w1, #0x6
    1f0c:	7100043f 	cmp	w1, #0x1
    1f10:	54000228 	b.hi	1f54 <check_invoke_param+0x7c>  // b.pmore
    1f14:	528000c0 	mov	w0, #0x6                   	// #6
/home/ssysarch/Desktop/nick/jetpack_5/Jetson_Linux_R35.4.1_aarch64/Linux_for_Tegra/sources/tegra/optee-src/nv-optee/optee/optee_os/lib/libutee/tee_api.c:297
    1f18:	a97fde76 	ldp	x22, x23, [x19, #-8]
/home/ssysarch/Desktop/nick/jetpack_5/Jetson_Linux_R35.4.1_aarch64/Linux_for_Tegra/sources/tegra/optee-src/nv-optee/optee/optee_os/lib/libutee/tee_api.c:306
    1f1c:	32000000 	orr	w0, w0, #0x1
    1f20:	aa1703e2 	mov	x2, x23
    1f24:	aa1603e1 	mov	x1, x22
    1f28:	97ffffb6 	bl	1e00 <check_mem_access_rights_params>
    1f2c:	34000060 	cbz	w0, 1f38 <check_invoke_param+0x60>
/home/ssysarch/Desktop/nick/jetpack_5/Jetson_Linux_R35.4.1_aarch64/Linux_for_Tegra/sources/tegra/optee-src/nv-optee/optee/optee_os/lib/libutee/tee_api.c:307
    1f30:	52800000 	mov	w0, #0x0                   	// #0
    1f34:	94001b8a 	bl	8d5c <TEE_Panic>
/home/ssysarch/Desktop/nick/jetpack_5/Jetson_Linux_R35.4.1_aarch64/Linux_for_Tegra/sources/tegra/optee-src/nv-optee/optee/optee_os/lib/libutee/tee_api.c:308
    1f38:	aa1703e1 	mov	x1, x23
    1f3c:	aa1603e0 	mov	x0, x22
    1f40:	97ffffd5 	bl	1e94 <buf_overlaps_no_share_heap>
    1f44:	72001c1f 	tst	w0, #0xff
    1f48:	54000060 	b.eq	1f54 <check_invoke_param+0x7c>  // b.none
/home/ssysarch/Desktop/nick/jetpack_5/Jetson_Linux_R35.4.1_aarch64/Linux_for_Tegra/sources/tegra/optee-src/nv-optee/optee/optee_os/lib/libutee/tee_api.c:309
    1f4c:	52800000 	mov	w0, #0x0                   	// #0
    1f50:	94001b83 	bl	8d5c <TEE_Panic>
/home/ssysarch/Desktop/nick/jetpack_5/Jetson_Linux_R35.4.1_aarch64/Linux_for_Tegra/sources/tegra/optee-src/nv-optee/optee/optee_os/lib/libutee/tee_api.c:294 (discriminator 2)
    1f54:	11001294 	add	w20, w20, #0x4
    1f58:	91004273 	add	x19, x19, #0x10
    1f5c:	7100429f 	cmp	w20, #0x10
    1f60:	54fffcc1 	b.ne	1ef8 <check_invoke_param+0x20>  // b.any
/home/ssysarch/Desktop/nick/jetpack_5/Jetson_Linux_R35.4.1_aarch64/Linux_for_Tegra/sources/tegra/optee-src/nv-optee/optee/optee_os/lib/libutee/tee_api.c:315
    1f64:	a94153f3 	ldp	x19, x20, [sp, #16]
    1f68:	a9425bf5 	ldp	x21, x22, [sp, #32]
    1f6c:	f9401bf7 	ldr	x23, [sp, #48]
    1f70:	a8c47bfd 	ldp	x29, x30, [sp], #64
    1f74:	d65f03c0 	ret
/home/ssysarch/Desktop/nick/jetpack_5/Jetson_Linux_R35.4.1_aarch64/Linux_for_Tegra/sources/tegra/optee-src/nv-optee/optee/optee_os/lib/libutee/tee_api.c:295
    1f78:	52800080 	mov	w0, #0x4                   	// #4
    1f7c:	17ffffe7 	b	1f18 <check_invoke_param+0x40>

0000000000001f80 <update_out_param>:
update_out_param():
/home/ssysarch/Desktop/nick/jetpack_5/Jetson_Linux_R35.4.1_aarch64/Linux_for_Tegra/sources/tegra/optee-src/nv-optee/optee/optee_os/lib/libutee/tee_api.c:180
    1f80:	a9bc7bfd 	stp	x29, x30, [sp, #-64]!
    1f84:	910003fd 	mov	x29, sp
    1f88:	a90153f3 	stp	x19, x20, [sp, #16]
/home/ssysarch/Desktop/nick/jetpack_5/Jetson_Linux_R35.4.1_aarch64/Linux_for_Tegra/sources/tegra/optee-src/nv-optee/optee/optee_os/lib/libutee/tee_api.c:182
    1f8c:	aa0203f4 	mov	x20, x2
    1f90:	aa0003f3 	mov	x19, x0
/home/ssysarch/Desktop/nick/jetpack_5/Jetson_Linux_R35.4.1_aarch64/Linux_for_Tegra/sources/tegra/optee-src/nv-optee/optee/optee_os/lib/libutee/tee_api.c:180
    1f94:	a90363f7 	stp	x23, x24, [sp, #48]
    1f98:	aa0103f8 	mov	x24, x1
/home/ssysarch/Desktop/nick/jetpack_5/Jetson_Linux_R35.4.1_aarch64/Linux_for_Tegra/sources/tegra/optee-src/nv-optee/optee/optee_os/lib/libutee/tee_api.c:182
    1f9c:	f8408697 	ldr	x23, [x20], #8
/home/ssysarch/Desktop/nick/jetpack_5/Jetson_Linux_R35.4.1_aarch64/Linux_for_Tegra/sources/tegra/optee-src/nv-optee/optee/optee_os/lib/libutee/tee_api.c:180
    1fa0:	a9025bf5 	stp	x21, x22, [sp, #32]
/home/ssysarch/Desktop/nick/jetpack_5/Jetson_Linux_R35.4.1_aarch64/Linux_for_Tegra/sources/tegra/optee-src/nv-optee/optee/optee_os/lib/libutee/tee_api.c:184
    1fa4:	d2800015 	mov	x21, #0x0                   	// #0
/home/ssysarch/Desktop/nick/jetpack_5/Jetson_Linux_R35.4.1_aarch64/Linux_for_Tegra/sources/tegra/optee-src/nv-optee/optee/optee_os/lib/libutee/tee_api.c:188
    1fa8:	531e76a0 	lsl	w0, w21, #2
/home/ssysarch/Desktop/nick/jetpack_5/Jetson_Linux_R35.4.1_aarch64/Linux_for_Tegra/sources/tegra/optee-src/nv-optee/optee/optee_os/lib/libutee/tee_api.c:186
    1fac:	f9400696 	ldr	x22, [x20, #8]
/home/ssysarch/Desktop/nick/jetpack_5/Jetson_Linux_R35.4.1_aarch64/Linux_for_Tegra/sources/tegra/optee-src/nv-optee/optee/optee_os/lib/libutee/tee_api.c:188
    1fb0:	1ac026e0 	lsr	w0, w23, w0
    1fb4:	12000c01 	and	w1, w0, #0xf
    1fb8:	721e041f 	tst	w0, #0xc
    1fbc:	540000c1 	b.ne	1fd4 <update_out_param+0x54>  // b.any
    1fc0:	721f081f 	tst	w0, #0xe
    1fc4:	540000e0 	b.eq	1fe0 <update_out_param+0x60>  // b.none
/home/ssysarch/Desktop/nick/jetpack_5/Jetson_Linux_R35.4.1_aarch64/Linux_for_Tegra/sources/tegra/optee-src/nv-optee/optee/optee_os/lib/libutee/tee_api.c:191
    1fc8:	f9400280 	ldr	x0, [x20]
/home/ssysarch/Desktop/nick/jetpack_5/Jetson_Linux_R35.4.1_aarch64/Linux_for_Tegra/sources/tegra/optee-src/nv-optee/optee/optee_os/lib/libutee/tee_api.c:192
    1fcc:	29005a60 	stp	w0, w22, [x19]
/home/ssysarch/Desktop/nick/jetpack_5/Jetson_Linux_R35.4.1_aarch64/Linux_for_Tegra/sources/tegra/optee-src/nv-optee/optee/optee_os/lib/libutee/tee_api.c:193
    1fd0:	14000004 	b	1fe0 <update_out_param+0x60>
/home/ssysarch/Desktop/nick/jetpack_5/Jetson_Linux_R35.4.1_aarch64/Linux_for_Tegra/sources/tegra/optee-src/nv-optee/optee/optee_os/lib/libutee/tee_api.c:188
    1fd4:	51001820 	sub	w0, w1, #0x6
    1fd8:	7100041f 	cmp	w0, #0x1
    1fdc:	54000169 	b.ls	2008 <update_out_param+0x88>  // b.plast
/home/ssysarch/Desktop/nick/jetpack_5/Jetson_Linux_R35.4.1_aarch64/Linux_for_Tegra/sources/tegra/optee-src/nv-optee/optee/optee_os/lib/libutee/tee_api.c:184 (discriminator 2)
    1fe0:	910006b5 	add	x21, x21, #0x1
    1fe4:	91004294 	add	x20, x20, #0x10
    1fe8:	91004273 	add	x19, x19, #0x10
    1fec:	f10012bf 	cmp	x21, #0x4
    1ff0:	54fffdc1 	b.ne	1fa8 <update_out_param+0x28>  // b.any
/home/ssysarch/Desktop/nick/jetpack_5/Jetson_Linux_R35.4.1_aarch64/Linux_for_Tegra/sources/tegra/optee-src/nv-optee/optee/optee_os/lib/libutee/tee_api.c:205
    1ff4:	a94153f3 	ldp	x19, x20, [sp, #16]
    1ff8:	a9425bf5 	ldp	x21, x22, [sp, #32]
    1ffc:	a94363f7 	ldp	x23, x24, [sp, #48]
    2000:	a8c47bfd 	ldp	x29, x30, [sp], #64
    2004:	d65f03c0 	ret
/home/ssysarch/Desktop/nick/jetpack_5/Jetson_Linux_R35.4.1_aarch64/Linux_for_Tegra/sources/tegra/optee-src/nv-optee/optee/optee_os/lib/libutee/tee_api.c:196
    2008:	f8757b01 	ldr	x1, [x24, x21, lsl #3]
    200c:	b40000a1 	cbz	x1, 2020 <update_out_param+0xa0>
/home/ssysarch/Desktop/nick/jetpack_5/Jetson_Linux_R35.4.1_aarch64/Linux_for_Tegra/sources/tegra/optee-src/nv-optee/optee/optee_os/lib/libutee/tee_api.c:198
    2010:	a9400a60 	ldp	x0, x2, [x19]
    2014:	eb16005f 	cmp	x2, x22
/home/ssysarch/Desktop/nick/jetpack_5/Jetson_Linux_R35.4.1_aarch64/Linux_for_Tegra/sources/tegra/optee-src/nv-optee/optee/optee_os/lib/libutee/tee_api.c:197
    2018:	9a969042 	csel	x2, x2, x22, ls  // ls = plast
    201c:	97fff801 	bl	20 <memcpy>
/home/ssysarch/Desktop/nick/jetpack_5/Jetson_Linux_R35.4.1_aarch64/Linux_for_Tegra/sources/tegra/optee-src/nv-optee/optee/optee_os/lib/libutee/tee_api.c:199
    2020:	f9000676 	str	x22, [x19, #8]
/home/ssysarch/Desktop/nick/jetpack_5/Jetson_Linux_R35.4.1_aarch64/Linux_for_Tegra/sources/tegra/optee-src/nv-optee/optee/optee_os/lib/libutee/tee_api.c:200
    2024:	17ffffef 	b	1fe0 <update_out_param+0x60>

0000000000002028 <update_out_gp11_param>:
update_out_gp11_param():
/home/ssysarch/Desktop/nick/jetpack_5/Jetson_Linux_R35.4.1_aarch64/Linux_for_Tegra/sources/tegra/optee-src/nv-optee/optee/optee_os/lib/libutee/tee_api.c:210
    2028:	a9bc7bfd 	stp	x29, x30, [sp, #-64]!
    202c:	910003fd 	mov	x29, sp
    2030:	a90153f3 	stp	x19, x20, [sp, #16]
/home/ssysarch/Desktop/nick/jetpack_5/Jetson_Linux_R35.4.1_aarch64/Linux_for_Tegra/sources/tegra/optee-src/nv-optee/optee/optee_os/lib/libutee/tee_api.c:212
    2034:	aa0203f4 	mov	x20, x2
    2038:	aa0003f3 	mov	x19, x0
/home/ssysarch/Desktop/nick/jetpack_5/Jetson_Linux_R35.4.1_aarch64/Linux_for_Tegra/sources/tegra/optee-src/nv-optee/optee/optee_os/lib/libutee/tee_api.c:210
    203c:	a90363f7 	stp	x23, x24, [sp, #48]
    2040:	aa0103f8 	mov	x24, x1
/home/ssysarch/Desktop/nick/jetpack_5/Jetson_Linux_R35.4.1_aarch64/Linux_for_Tegra/sources/tegra/optee-src/nv-optee/optee/optee_os/lib/libutee/tee_api.c:212
    2044:	f8408697 	ldr	x23, [x20], #8
/home/ssysarch/Desktop/nick/jetpack_5/Jetson_Linux_R35.4.1_aarch64/Linux_for_Tegra/sources/tegra/optee-src/nv-optee/optee/optee_os/lib/libutee/tee_api.c:210
    2048:	a9025bf5 	stp	x21, x22, [sp, #32]
/home/ssysarch/Desktop/nick/jetpack_5/Jetson_Linux_R35.4.1_aarch64/Linux_for_Tegra/sources/tegra/optee-src/nv-optee/optee/optee_os/lib/libutee/tee_api.c:214
    204c:	d2800015 	mov	x21, #0x0                   	// #0
/home/ssysarch/Desktop/nick/jetpack_5/Jetson_Linux_R35.4.1_aarch64/Linux_for_Tegra/sources/tegra/optee-src/nv-optee/optee/optee_os/lib/libutee/tee_api.c:218
    2050:	531e76a0 	lsl	w0, w21, #2
/home/ssysarch/Desktop/nick/jetpack_5/Jetson_Linux_R35.4.1_aarch64/Linux_for_Tegra/sources/tegra/optee-src/nv-optee/optee/optee_os/lib/libutee/tee_api.c:216
    2054:	f9400696 	ldr	x22, [x20, #8]
/home/ssysarch/Desktop/nick/jetpack_5/Jetson_Linux_R35.4.1_aarch64/Linux_for_Tegra/sources/tegra/optee-src/nv-optee/optee/optee_os/lib/libutee/tee_api.c:218
    2058:	1ac026e0 	lsr	w0, w23, w0
    205c:	12000c01 	and	w1, w0, #0xf
    2060:	721e041f 	tst	w0, #0xc
    2064:	540000c1 	b.ne	207c <update_out_gp11_param+0x54>  // b.any
    2068:	721f081f 	tst	w0, #0xe
    206c:	540000e0 	b.eq	2088 <update_out_gp11_param+0x60>  // b.none
/home/ssysarch/Desktop/nick/jetpack_5/Jetson_Linux_R35.4.1_aarch64/Linux_for_Tegra/sources/tegra/optee-src/nv-optee/optee/optee_os/lib/libutee/tee_api.c:221
    2070:	f9400280 	ldr	x0, [x20]
/home/ssysarch/Desktop/nick/jetpack_5/Jetson_Linux_R35.4.1_aarch64/Linux_for_Tegra/sources/tegra/optee-src/nv-optee/optee/optee_os/lib/libutee/tee_api.c:222
    2074:	29005a60 	stp	w0, w22, [x19]
/home/ssysarch/Desktop/nick/jetpack_5/Jetson_Linux_R35.4.1_aarch64/Linux_for_Tegra/sources/tegra/optee-src/nv-optee/optee/optee_os/lib/libutee/tee_api.c:223
    2078:	14000004 	b	2088 <update_out_gp11_param+0x60>
/home/ssysarch/Desktop/nick/jetpack_5/Jetson_Linux_R35.4.1_aarch64/Linux_for_Tegra/sources/tegra/optee-src/nv-optee/optee/optee_os/lib/libutee/tee_api.c:218
    207c:	51001820 	sub	w0, w1, #0x6
    2080:	7100041f 	cmp	w0, #0x1
    2084:	54000169 	b.ls	20b0 <update_out_gp11_param+0x88>  // b.plast
/home/ssysarch/Desktop/nick/jetpack_5/Jetson_Linux_R35.4.1_aarch64/Linux_for_Tegra/sources/tegra/optee-src/nv-optee/optee/optee_os/lib/libutee/tee_api.c:214 (discriminator 2)
    2088:	910006b5 	add	x21, x21, #0x1
    208c:	91004294 	add	x20, x20, #0x10
    2090:	91004273 	add	x19, x19, #0x10
    2094:	f10012bf 	cmp	x21, #0x4
    2098:	54fffdc1 	b.ne	2050 <update_out_gp11_param+0x28>  // b.any
/home/ssysarch/Desktop/nick/jetpack_5/Jetson_Linux_R35.4.1_aarch64/Linux_for_Tegra/sources/tegra/optee-src/nv-optee/optee/optee_os/lib/libutee/tee_api.c:235
    209c:	a94153f3 	ldp	x19, x20, [sp, #16]
    20a0:	a9425bf5 	ldp	x21, x22, [sp, #32]
    20a4:	a94363f7 	ldp	x23, x24, [sp, #48]
    20a8:	a8c47bfd 	ldp	x29, x30, [sp], #64
    20ac:	d65f03c0 	ret
/home/ssysarch/Desktop/nick/jetpack_5/Jetson_Linux_R35.4.1_aarch64/Linux_for_Tegra/sources/tegra/optee-src/nv-optee/optee/optee_os/lib/libutee/tee_api.c:226
    20b0:	f8757b01 	ldr	x1, [x24, x21, lsl #3]
    20b4:	b40000c1 	cbz	x1, 20cc <update_out_gp11_param+0xa4>
/home/ssysarch/Desktop/nick/jetpack_5/Jetson_Linux_R35.4.1_aarch64/Linux_for_Tegra/sources/tegra/optee-src/nv-optee/optee/optee_os/lib/libutee/tee_api.c:228
    20b8:	b9400a62 	ldr	w2, [x19, #8]
/home/ssysarch/Desktop/nick/jetpack_5/Jetson_Linux_R35.4.1_aarch64/Linux_for_Tegra/sources/tegra/optee-src/nv-optee/optee/optee_os/lib/libutee/tee_api.c:227
    20bc:	f9400260 	ldr	x0, [x19]
/home/ssysarch/Desktop/nick/jetpack_5/Jetson_Linux_R35.4.1_aarch64/Linux_for_Tegra/sources/tegra/optee-src/nv-optee/optee/optee_os/lib/libutee/tee_api.c:228
    20c0:	eb16005f 	cmp	x2, x22
/home/ssysarch/Desktop/nick/jetpack_5/Jetson_Linux_R35.4.1_aarch64/Linux_for_Tegra/sources/tegra/optee-src/nv-optee/optee/optee_os/lib/libutee/tee_api.c:227
    20c4:	9a969042 	csel	x2, x2, x22, ls  // ls = plast
    20c8:	97fff7d6 	bl	20 <memcpy>
/home/ssysarch/Desktop/nick/jetpack_5/Jetson_Linux_R35.4.1_aarch64/Linux_for_Tegra/sources/tegra/optee-src/nv-optee/optee/optee_os/lib/libutee/tee_api.c:229
    20cc:	b9000a76 	str	w22, [x19, #8]
/home/ssysarch/Desktop/nick/jetpack_5/Jetson_Linux_R35.4.1_aarch64/Linux_for_Tegra/sources/tegra/optee-src/nv-optee/optee/optee_os/lib/libutee/tee_api.c:230
    20d0:	17ffffee 	b	2088 <update_out_gp11_param+0x60>

00000000000020d4 <TEE_CloseTASession>:
TEE_CloseTASession():
/home/ssysarch/Desktop/nick/jetpack_5/Jetson_Linux_R35.4.1_aarch64/Linux_for_Tegra/sources/tegra/optee-src/nv-optee/optee/optee_os/lib/libutee/tee_api.c:415
    20d4:	b4000120 	cbz	x0, 20f8 <TEE_CloseTASession+0x24>
/home/ssysarch/Desktop/nick/jetpack_5/Jetson_Linux_R35.4.1_aarch64/Linux_for_Tegra/sources/tegra/optee-src/nv-optee/optee/optee_os/lib/libutee/tee_api.c:414
    20d8:	a9bf7bfd 	stp	x29, x30, [sp, #-16]!
    20dc:	910003fd 	mov	x29, sp
