
234-t234/tegra/t234/release/bl31/bl31.elf:     file format elf64-littleaarch64
234-t234/tegra/t234/release/bl31/bl31.elf
architecture: aarch64, flags 0x00000112:
EXEC_P, HAS_SYMS, D_PAGED
start address 0x0000000050000000

Program Header:
    LOAD off    0x0000000000010000 vaddr 0x0000000050000000 paddr 0x0000000050000000 align 2**16
         filesz 0x0000000000019372 memsz 0x0000000000040000 flags rwx
   STACK off    0x0000000000000000 vaddr 0x0000000000000000 paddr 0x0000000000000000 align 2**4
         filesz 0x0000000000000000 memsz 0x0000000000000000 flags rw-
private flags = 0:

Sections:
Idx Name          Size      VMA               LMA               File off  Algn
  0 .text         00012000  0000000050000000  0000000050000000  00010000  2**11
                  CONTENTS, ALLOC, LOAD, READONLY, CODE
  1 .rodata       00006000  0000000050012000  0000000050012000  00022000  2**3
                  CONTENTS, ALLOC, LOAD, DATA
  2 .data         00001372  0000000050018000  0000000050018000  00028000  2**3
                  CONTENTS, ALLOC, LOAD, DATA
  3 stacks        00003000  0000000050019380  0000000050019380  00029372  2**6
                  ALLOC
  4 .bss          00009fd0  000000005001c380  000000005001c380  00029372  2**6
                  ALLOC
  5 xlat_table    00019000  0000000050027000  0000000050027000  00029372  2**12
                  ALLOC
  6 .comment      0000001f  0000000000000000  0000000000000000  00029372  2**0
                  CONTENTS, READONLY
  7 .debug_frame  00000ff8  0000000000000000  0000000000000000  00029398  2**3
                  CONTENTS, READONLY, DEBUGGING
SYMBOL TABLE:
0000000050000000 l    d  .text	0000000000000000 .text
0000000050012000 l    d  .rodata	0000000000000000 .rodata
0000000050018000 l    d  .data	0000000000000000 .data
0000000050019380 l    d  stacks	0000000000000000 stacks
000000005001c380 l    d  .bss	0000000000000000 .bss
0000000050027000 l    d  xlat_table	0000000000000000 xlat_table
0000000000000000 l    d  .comment	0000000000000000 .comment
0000000000000000 l    d  .debug_frame	0000000000000000 .debug_frame
0000000000000000 l    df *ABS*	0000000000000000 ./234-t234/tegra/t234/release/bl31/bl31_entrypoint.o
000000005000002c l       .text	0000000000000000 do_cold_boot
0000000000000000 l    df *ABS*	0000000000000000 ./234-t234/tegra/t234/release/bl31/tegra_helpers.o
0000000000000008 l       *ABS*	0000000000000000 CPU_MIDR_SIZE
0000000000000008 l       *ABS*	0000000000000000 CPU_EXTRA1_FUNC_SIZE
0000000000000008 l       *ABS*	0000000000000000 CPU_EXTRA2_FUNC_SIZE
0000000000000008 l       *ABS*	0000000000000000 CPU_EXTRA3_FUNC_SIZE
0000000000000008 l       *ABS*	0000000000000000 CPU_E_HANDLER_FUNC_SIZE
0000000000000008 l       *ABS*	0000000000000000 CPU_RESET_FUNC_SIZE
0000000000000010 l       *ABS*	0000000000000000 CPU_PWR_DWN_OPS_SIZE
0000000000000000 l       *ABS*	0000000000000000 CPU_ERRATA_FUNC_SIZE
0000000000000000 l       *ABS*	0000000000000000 CPU_ERRATA_LOCK_SIZE
0000000000000000 l       *ABS*	0000000000000000 CPU_ERRATA_PRINTED_SIZE
0000000000000008 l       *ABS*	0000000000000000 CPU_REG_DUMP_SIZE
0000000000000000 l       *ABS*	0000000000000000 CPU_MIDR
0000000000000008 l       *ABS*	0000000000000000 CPU_RESET_FUNC
0000000000000010 l       *ABS*	0000000000000000 CPU_EXTRA1_FUNC
0000000000000018 l       *ABS*	0000000000000000 CPU_EXTRA2_FUNC
0000000000000020 l       *ABS*	0000000000000000 CPU_EXTRA3_FUNC
0000000000000028 l       *ABS*	0000000000000000 CPU_E_HANDLER_FUNC
0000000000000030 l       *ABS*	0000000000000000 CPU_PWR_DWN_OPS
0000000000000040 l       *ABS*	0000000000000000 CPU_ERRATA_FUNC
0000000000000040 l       *ABS*	0000000000000000 CPU_ERRATA_LOCK
0000000000000040 l       *ABS*	0000000000000000 CPU_ERRATA_PRINTED
0000000000000040 l       *ABS*	0000000000000000 CPU_REG_DUMP
0000000000000048 l       *ABS*	0000000000000000 CPU_OPS_SIZE
00000000500016ac l       .text	0000000000000000 _loop16
00000000500016c4 l       .text	0000000000000000 _loop1
00000000500016d8 l       .text	0000000000000000 _end
0000000050000200 l       .text	0000000000000000 restore_oslock
0000000000000000 l    df *ABS*	0000000000000000 plat_ras.c
0000000050000228 l     F .text	0000000000000008 CCPMU_get_ue_mask
0000000050000220 l     F .text	0000000000000008 CCPMU_get_ce_mask
0000000050000238 l     F .text	0000000000000008 CMU_CLOCKS_get_ue_mask
000000005000026c l     F .text	0000000000000008 IH_get_ue_mask
000000005000028c l     F .text	0000000000000008 IST_get_ue_mask
0000000050000284 l     F .text	0000000000000008 IST_get_ce_mask
000000005000027c l     F .text	0000000000000008 IOB_get_ue_mask
0000000050000274 l     F .text	0000000000000008 IOB_get_ce_mask
00000000500002ac l     F .text	0000000000000008 SNOC_get_ue_mask
00000000500002a4 l     F .text	0000000000000008 SNOC_get_ce_mask
000000005000029c l     F .text	0000000000000008 SCC_get_ue_mask
0000000050000294 l     F .text	0000000000000008 SCC_get_ce_mask
0000000050000218 l     F .text	0000000000000008 ACI_get_ue_mask
0000000050000248 l     F .text	000000000000000c CORE_DCLS_get_ue_mask
000000005000c92c l     F .text	0000000000000008 tegra234_gic_ras_record_handler
000000005000c934 l     F .text	0000000000000008 tegra234_gic_ras_record_probe
000000005000cf98 l     F .text	0000000000000010 tegra234_ras_record_probe
000000005000ccd8 l     F .text	00000000000002c0 tegra234_ras_record_handler
0000000050006184 l     F .text	000000000000014c is_err_record_supported.isra.0
000000005000c93c l     F .text	00000000000001e0 tegra234_ras_handler
00000000500032bc l     F .text	0000000000000130 enable_error_detection_for_group
0000000050000254 l     F .text	0000000000000008 GIC600_FMU_get_ce_mask
0000000050000230 l     F .text	0000000000000008 CMU_CLOCKS_get_ce_mask
0000000050000264 l     F .text	0000000000000008 IH_get_ce_mask
0000000050000210 l     F .text	0000000000000008 ACI_get_ce_mask
0000000050000240 l     F .text	0000000000000008 CORE_DCLS_get_ce_mask
000000005000025c l     F .text	0000000000000008 GIC600_FMU_get_ue_mask
00000000500189f0 l     O .data	0000000000000180 tegra234_ras_records_cluster0
0000000050018b70 l     O .data	0000000000000180 tegra234_ras_records_cluster1
0000000050018cf0 l     O .data	0000000000000180 tegra234_ras_records_cluster2
00000000500247b0 l     O .bss	0000000000000000 GIC600_FMU_uncorr_ras_errors
0000000050026006 l     O .bss	0000000000000001 ehf_handler_registered
0000000050018110 l     O .data	0000000000000028 ACI_aux_data
0000000050018138 l     O .data	0000000000000110 ACI_uncorr_ras_errors
0000000050018248 l     O .data	0000000000000028 CCPMU_aux_data
0000000050018270 l     O .data	00000000000000b0 CCPMU_uncorr_ras_errors
0000000050018320 l     O .data	0000000000000028 CMU_CLOCKS_aux_data
0000000050018348 l     O .data	00000000000000a0 CMU_CLOCKS_uncorr_ras_errors
00000000500183e8 l     O .data	0000000000000028 CORE_DCLS_aux_data
0000000050018410 l     O .data	0000000000000100 CORE_DCLS_uncorr_ras_errors
0000000050018510 l     O .data	0000000000000028 GIC600_FMU_aux_data
0000000050018538 l     O .data	0000000000000028 IH_aux_data
0000000050018560 l     O .data	0000000000000040 IH_uncorr_ras_errors
00000000500185a0 l     O .data	0000000000000028 IOB_aux_data
00000000500185c8 l     O .data	00000000000000f0 IOB_uncorr_ras_errors
00000000500186b8 l     O .data	0000000000000028 IST_aux_data
00000000500186e0 l     O .data	00000000000000a0 IST_uncorr_ras_errors
0000000050018780 l     O .data	0000000000000028 SCC_aux_data
00000000500187a8 l     O .data	0000000000000140 SCC_uncorr_ras_errors
00000000500188e8 l     O .data	0000000000000028 SNOC_aux_data
0000000050018910 l     O .data	00000000000000e0 SNOC_uncorr_ras_errors
0000000050018e70 l     O .data	00000000000002a0 tegra234_ras_records_common
0000000000000000 l    df *ABS*	0000000000000000 assert.c
0000000000000000 l    df *ABS*	0000000000000000 stack_protector.c
0000000000000000 l    df *ABS*	0000000000000000 ari.c
000000005000033c l     F .text	0000000000000010 ari_clobber_response
0000000050000568 l     F .text	00000000000000b0 ari_request_wait.constprop.0
0000000050019358 l     O .data	0000000000000004 cluster_bitmap
00000000500155d1 l     O .rodata	0000000000000010 __func__.3078
00000000500155e1 l     O .rodata	000000000000000e __func__.3083
00000000500155ef l     O .rodata	0000000000000018 __func__.3088
0000000050015607 l     O .rodata	0000000000000013 __func__.3112
0000000000000000 l    df *ABS*	0000000000000000 arm_arch_svc_setup.c
0000000050000704 l     F .text	00000000000001c0 arm_arch_svc_smc_handler
0000000050017bd8 l     O .rodata	0000000000000020 __svc_desc_arm_arch_svc
0000000000000000 l    df *ABS*	0000000000000000 tegra_gicv3.c
0000000050008738 l     F .text	0000000000000004 plat_tegra_mpidr_to_core_pos
00000000500206d0 l     O .bss	0000000000002720 dist_ctx
0000000050022df0 l     O .bss	0000000000000008 plat_dist_ctx
0000000050022df8 l     O .bss	0000000000000008 plat_redist_ctx
0000000050022e00 l     O .bss	0000000000000058 rdist_ctx
0000000050022e58 l     O .bss	0000000000000060 rdistif_base_addrs
0000000050022eb8 l     O .bss	0000000000000030 tegra_gic_data.3435
0000000050018060 l     O .data	0000000000000008 tegra_gicr_frames
0000000050012308 l     O .rodata	0000000000000010 gicr_base_addrs
0000000000000000 l    df *ABS*	0000000000000000 ./234-t234/tegra/t234/release/bl31/cpu_data.o
0000000000000000 l    df *ABS*	0000000000000000 ./234-t234/tegra/t234/release/bl31/debug.o
0000000050017add l       .rodata	0000000000000000 panic_msg
0000000050000cc0 l       .text	0000000000000000 to_panic_common
0000000050000cc4 l       .text	0000000000000000 panic_common
0000000050000cec l       .text	0000000000000000 _panic_handler
0000000000000000 l    df *ABS*	0000000000000000 ./234-t234/tegra/t234/release/bl31/sdei_dispatch.o
0000000000000000 l    df *ABS*	0000000000000000 ./234-t234/tegra/t234/release/bl31/platform_helpers.o
0000000000000000 l    df *ABS*	0000000000000000 ./234-t234/tegra/t234/release/bl31/cortex_a78_ae.o
0000000000000008 l       *ABS*	0000000000000000 CPU_MIDR_SIZE
0000000000000008 l       *ABS*	0000000000000000 CPU_EXTRA1_FUNC_SIZE
0000000000000008 l       *ABS*	0000000000000000 CPU_EXTRA2_FUNC_SIZE
0000000000000008 l       *ABS*	0000000000000000 CPU_EXTRA3_FUNC_SIZE
0000000000000008 l       *ABS*	0000000000000000 CPU_E_HANDLER_FUNC_SIZE
0000000000000008 l       *ABS*	0000000000000000 CPU_RESET_FUNC_SIZE
0000000000000010 l       *ABS*	0000000000000000 CPU_PWR_DWN_OPS_SIZE
0000000000000000 l       *ABS*	0000000000000000 CPU_ERRATA_FUNC_SIZE
0000000000000000 l       *ABS*	0000000000000000 CPU_ERRATA_LOCK_SIZE
0000000000000000 l       *ABS*	0000000000000000 CPU_ERRATA_PRINTED_SIZE
0000000000000008 l       *ABS*	0000000000000000 CPU_REG_DUMP_SIZE
0000000000000000 l       *ABS*	0000000000000000 CPU_MIDR
0000000000000008 l       *ABS*	0000000000000000 CPU_RESET_FUNC
0000000000000010 l       *ABS*	0000000000000000 CPU_EXTRA1_FUNC
0000000000000018 l       *ABS*	0000000000000000 CPU_EXTRA2_FUNC
0000000000000020 l       *ABS*	0000000000000000 CPU_EXTRA3_FUNC
0000000000000028 l       *ABS*	0000000000000000 CPU_E_HANDLER_FUNC
0000000000000030 l       *ABS*	0000000000000000 CPU_PWR_DWN_OPS
0000000000000040 l       *ABS*	0000000000000000 CPU_ERRATA_FUNC
0000000000000040 l       *ABS*	0000000000000000 CPU_ERRATA_LOCK
0000000000000040 l       *ABS*	0000000000000000 CPU_ERRATA_PRINTED
0000000000000040 l       *ABS*	0000000000000000 CPU_REG_DUMP
0000000000000048 l       *ABS*	0000000000000000 CPU_OPS_SIZE
0000000050011000 l     F .text	0000000000000000 bhb_sync_exception_sp_el0_cortex_a78_ae
0000000050011080 l     F .text	0000000000000000 bhb_irq_sp_el0_cortex_a78_ae
0000000050011100 l     F .text	0000000000000000 bhb_fiq_sp_el0_cortex_a78_ae
0000000050011180 l     F .text	0000000000000000 bhb_serror_sp_el0_cortex_a78_ae
0000000050011200 l     F .text	0000000000000000 bhb_sync_exception_sp_elx_cortex_a78_ae
0000000050011280 l     F .text	0000000000000000 bhb_irq_sp_elx_cortex_a78_ae
0000000050011300 l     F .text	0000000000000000 bhb_fiq_sp_elx_cortex_a78_ae
0000000050011380 l     F .text	0000000000000000 bhb_serror_sp_elx_cortex_a78_ae
0000000050011400 l     F .text	0000000000000000 bhb_sync_exception_aarch64_cortex_a78_ae
0000000050011480 l     F .text	0000000000000000 bhb_irq_aarch64_cortex_a78_ae
0000000050011500 l     F .text	0000000000000000 bhb_fiq_aarch64_cortex_a78_ae
0000000050011580 l     F .text	0000000000000000 bhb_serror_aarch64_cortex_a78_ae
0000000050011600 l     F .text	0000000000000000 bhb_sync_exception_aarch32_cortex_a78_ae
0000000050011680 l     F .text	0000000000000000 bhb_irq_aarch32_cortex_a78_ae
0000000050011700 l     F .text	0000000000000000 bhb_fiq_aarch32_cortex_a78_ae
0000000050011780 l     F .text	0000000000000000 bhb_serror_aarch32_cortex_a78_ae
00000000500012d0 l     F .text	0000000000000044 errata_a78_ae_2466780_wa
0000000050000954 l     F .text	000000000000000c check_errata_2466780
0000000050001314 l     F .text	0000000000000014 errata_a78_ae_2743093_wa
0000000050000960 l     F .text	0000000000000008 check_errata_2743093
0000000050001328 l     F .text	0000000000000020 errata_a78_ae_2743229
0000000050000968 l     F .text	000000000000000c check_errata_2743229
0000000050000bb8 l     F .text	000000000000002c cortex_a78_ae_reset_func
0000000050000b88 l     F .text	0000000000000024 cortex_a78_ae_core_pwr_dwn
0000000050017a5f l       .rodata	0000000000000000 cortex_a78_ae_regs
0000000050000bac l     F .text	000000000000000c cortex_a78_ae_cpu_reg_dump
0000000000000000 l    df *ABS*	0000000000000000 ./234-t234/tegra/t234/release/bl31/cpu_helpers.o
0000000000000008 l       *ABS*	0000000000000000 CPU_MIDR_SIZE
0000000000000008 l       *ABS*	0000000000000000 CPU_EXTRA1_FUNC_SIZE
0000000000000008 l       *ABS*	0000000000000000 CPU_EXTRA2_FUNC_SIZE
0000000000000008 l       *ABS*	0000000000000000 CPU_EXTRA3_FUNC_SIZE
0000000000000008 l       *ABS*	0000000000000000 CPU_E_HANDLER_FUNC_SIZE
0000000000000008 l       *ABS*	0000000000000000 CPU_RESET_FUNC_SIZE
0000000000000010 l       *ABS*	0000000000000000 CPU_PWR_DWN_OPS_SIZE
0000000000000000 l       *ABS*	0000000000000000 CPU_ERRATA_FUNC_SIZE
0000000000000000 l       *ABS*	0000000000000000 CPU_ERRATA_LOCK_SIZE
0000000000000000 l       *ABS*	0000000000000000 CPU_ERRATA_PRINTED_SIZE
0000000000000008 l       *ABS*	0000000000000000 CPU_REG_DUMP_SIZE
0000000000000000 l       *ABS*	0000000000000000 CPU_MIDR
0000000000000008 l       *ABS*	0000000000000000 CPU_RESET_FUNC
0000000000000010 l       *ABS*	0000000000000000 CPU_EXTRA1_FUNC
0000000000000018 l       *ABS*	0000000000000000 CPU_EXTRA2_FUNC
0000000000000020 l       *ABS*	0000000000000000 CPU_EXTRA3_FUNC
0000000000000028 l       *ABS*	0000000000000000 CPU_E_HANDLER_FUNC
0000000000000030 l       *ABS*	0000000000000000 CPU_PWR_DWN_OPS
0000000000000040 l       *ABS*	0000000000000000 CPU_ERRATA_FUNC
0000000000000040 l       *ABS*	0000000000000000 CPU_ERRATA_LOCK
0000000000000040 l       *ABS*	0000000000000000 CPU_ERRATA_PRINTED
0000000000000040 l       *ABS*	0000000000000000 CPU_REG_DUMP
0000000000000048 l       *ABS*	0000000000000000 CPU_OPS_SIZE
00000000500013d0 l       .text	0000000000000000 search_def_ptr
0000000000000000 l    df *ABS*	0000000000000000 ./234-t234/tegra/t234/release/bl31/cache_helpers.o
000000005000137c l       .text	0000000000000000 exit_loop_civac
0000000050001368 l       .text	0000000000000000 loop_civac
0000000050000a38 l       .text	0000000000000000 exit_loop_cvac
0000000050000a24 l       .text	0000000000000000 loop_cvac
000000005000145c l       .text	0000000000000000 exit_loop_ivac
0000000050001448 l       .text	0000000000000000 loop_ivac
0000000000000000 l    df *ABS*	0000000000000000 ./234-t234/tegra/t234/release/bl31/shared_console.o
0000000050000b80 l       .text	0000000000000000 register_fail
00000000500191d0 l       .data	0000000000000000 spe_console_stack
0000000050000af0 l       .text	0000000000000000 putc_error
0000000050000aa8 l       .text	0000000000000000 not_eol
0000000000000000 l    df *ABS*	0000000000000000 ./234-t234/tegra/t234/release/bl31/crash_reporting.o
000000005001773c l       .rodata	0000000000000000 gicc_regs
000000005001775e l       .rodata	0000000000000000 gicd_pend_reg
000000005001779a l       .rodata	0000000000000000 newline
000000005001779c l       .rodata	0000000000000000 spacer
00000000500177a2 l       .rodata	0000000000000000 print_spacer
00000000500177b4 l       .rodata	0000000000000000 gp_regs
0000000050017823 l       .rodata	0000000000000000 el3_sys_regs
0000000050017880 l       .rodata	0000000000000000 non_el3_sys_regs
00000000500179cc l       .rodata	0000000000000000 panic_msg
00000000500179de l       .rodata	0000000000000000 excpt_msg
00000000500179fe l       .rodata	0000000000000000 intr_excpt_msg
0000000050017a24 l       .rodata	0000000000000000 x30_msg
0000000050017a28 l       .rodata	0000000000000000 excpt_msg_el
00000000500019a8 l     F .text	000000000000004c size_controlled_print
00000000500019b0 l       .text	0000000000000000 test_size_list
00000000500019ec l       .text	0000000000000000 exit_size_print
0000000050001874 l     F .text	000000000000000c print_alignment
0000000050001aa8 l     F .text	0000000000000018 str_in_crash_buf_print
0000000050000f7c l       .text	0000000000000000 do_crash_reporting
0000000050001138 l       .text	0000000000000000 print_next
0000000050001164 l       .text	0000000000000000 print_x30
00000000500011c0 l       .text	0000000000000000 from_el1
0000000050001188 l       .text	0000000000000000 test_pauth
00000000500011a8 l       .text	0000000000000000 no_pauth
0000000050000ff4 l       .text	0000000000000000 print_el3_sys_regs
0000000050000c2c l     F .text	0000000000000004 crash_panic
0000000000000000 l    df *ABS*	0000000000000000 ./234-t234/tegra/t234/release/bl31/ea_delegate.o
0000000000000008 l       *ABS*	0000000000000000 CPU_MIDR_SIZE
0000000000000008 l       *ABS*	0000000000000000 CPU_EXTRA1_FUNC_SIZE
0000000000000008 l       *ABS*	0000000000000000 CPU_EXTRA2_FUNC_SIZE
0000000000000008 l       *ABS*	0000000000000000 CPU_EXTRA3_FUNC_SIZE
0000000000000008 l       *ABS*	0000000000000000 CPU_E_HANDLER_FUNC_SIZE
0000000000000008 l       *ABS*	0000000000000000 CPU_RESET_FUNC_SIZE
0000000000000010 l       *ABS*	0000000000000000 CPU_PWR_DWN_OPS_SIZE
0000000000000000 l       *ABS*	0000000000000000 CPU_ERRATA_FUNC_SIZE
0000000000000000 l       *ABS*	0000000000000000 CPU_ERRATA_LOCK_SIZE
0000000000000000 l       *ABS*	0000000000000000 CPU_ERRATA_PRINTED_SIZE
0000000000000008 l       *ABS*	0000000000000000 CPU_REG_DUMP_SIZE
0000000000000000 l       *ABS*	0000000000000000 CPU_MIDR
0000000000000008 l       *ABS*	0000000000000000 CPU_RESET_FUNC
0000000000000010 l       *ABS*	0000000000000000 CPU_EXTRA1_FUNC
0000000000000018 l       *ABS*	0000000000000000 CPU_EXTRA2_FUNC
0000000000000020 l       *ABS*	0000000000000000 CPU_EXTRA3_FUNC
0000000000000028 l       *ABS*	0000000000000000 CPU_E_HANDLER_FUNC
0000000000000030 l       *ABS*	0000000000000000 CPU_PWR_DWN_OPS
0000000000000040 l       *ABS*	0000000000000000 CPU_ERRATA_FUNC
0000000000000040 l       *ABS*	0000000000000000 CPU_ERRATA_LOCK
0000000000000040 l       *ABS*	0000000000000000 CPU_ERRATA_PRINTED
0000000000000040 l       *ABS*	0000000000000000 CPU_REG_DUMP
0000000000000048 l       *ABS*	0000000000000000 CPU_OPS_SIZE
0000000050000cf4 l     F .text	0000000000000098 ea_proceed
0000000050000c54 l     F .text	0000000000000020 delegate_sync_ea
0000000050000c30 l     F .text	0000000000000024 delegate_async_ea
0000000000000000 l    df *ABS*	0000000000000000 ./234-t234/tegra/t234/release/bl31/context.o
0000000050000f2c l       .text	0000000000000000 sve_not_enabled
0000000000000000 l    df *ABS*	0000000000000000 ./234-t234/tegra/t234/release/bl31/enable_mmu.o
0000000000000000 l    df *ABS*	0000000000000000 setjmp.o
0000000000000000 l    df *ABS*	0000000000000000 ./234-t234/tegra/t234/release/bl31/opteed_helpers.o
0000000000000000 l    df *ABS*	0000000000000000 ./234-t234/tegra/t234/release/bl31/crash_console_helpers.o
000000005001936c l       .data	0000000000000000 crash_console_spinlock
0000000050019371 l       .data	0000000000000000 crash_console_triggered
0000000050019188 l       .data	0000000000000000 crash_console_reg_stash
0000000050001598 l       .text	0000000000000000 skip_spinlock
00000000500015b4 l       .text	0000000000000000 init_error
00000000500015e0 l       .text	0000000000000000 putc_loop
000000005000162c l       .text	0000000000000000 putc_done
0000000050001624 l       .text	0000000000000000 putc_continue
0000000050001618 l       .text	0000000000000000 putc
000000005000153c l       .text	0000000000000000 flush_loop
0000000050001564 l       .text	0000000000000000 flush_done
000000005000155c l       .text	0000000000000000 flush_continue
0000000000000000 l    df *ABS*	0000000000000000 ./234-t234/tegra/t234/release/bl31/platform_mp_stack.o
0000000050019380 l       stacks	0000000000000000 platform_normal_stacks
0000000000000006 l       *ABS*	0000000000000000 TZ_COUNT
0000000000000000 l    df *ABS*	0000000000000000 ./234-t234/tegra/t234/release/bl31/psci_helpers.o
0000000000000000 l    df *ABS*	0000000000000000 ./234-t234/tegra/t234/release/bl31/runtime_exceptions.o
00000000500019f4 l       .text	0000000000000000 smc_handler32
00000000500019f8 l       .text	0000000000000000 smc_handler64
0000000050010cf0 l       .text	0000000000000000 interrupt_exit_irq_aarch64
0000000050010d70 l       .text	0000000000000000 interrupt_exit_fiq_aarch64
0000000050010ef0 l       .text	0000000000000000 interrupt_exit_irq_aarch32
0000000050010f70 l       .text	0000000000000000 interrupt_exit_fiq_aarch32
00000000500019f4 l     F .text	000000000000008c smc_handler
0000000050001a68 l       .text	0000000000000000 smc_prohibited
0000000050001a5c l       .text	0000000000000000 smc_unknown
0000000000000000 l    df *ABS*	0000000000000000 ./234-t234/tegra/t234/release/bl31/spinlock.o
0000000050001a88 l       .text	0000000000000000 l1
0000000050001a8c l       .text	0000000000000000 l2
0000000000000000 l    df *ABS*	0000000000000000 ./234-t234/tegra/t234/release/bl31/asm_stack_protector.o
0000000000000000 l    df *ABS*	0000000000000000 ./234-t234/tegra/t234/release/bl31/misc_helpers.o
0000000050001b14 l     F .text	0000000000000114 zeromem_dczva
0000000000000000 l    df *ABS*	0000000000000000 bakery_lock_normal.c
0000000000000000 l    df *ABS*	0000000000000000 tegra_bl31_setup.c
0000000050020548 l     O .bss	0000000000000058 bl32_image_ep_info
00000000500205a0 l     O .bss	0000000000000058 bl33_image_ep_info
0000000050018028 l     O .data	0000000000000038 plat_bl31_params_from_bl2
0000000000000000 l    df *ABS*	0000000000000000 bl31_main.c
0000000050020400 l     O .bss	0000000000000008 bl32_init
00000000500191d8 l     O .data	0000000000000004 next_image_type
0000000050012000 l     O .rodata	0000000000000010 psci_args.3231
0000000000000000 l    df *ABS*	0000000000000000 profiler.c
0000000050024790 l     O .bss	0000000000000008 cur
0000000050024798 l     O .bss	0000000000000008 head
0000000050026005 l     O .bss	0000000000000001 is_shmem_buf_mapped
00000000500247a0 l     O .bss	0000000000000008 shmem_base_addr
00000000500247a8 l     O .bss	0000000000000008 tail
0000000050025ef8 l     O .bss	0000000000000004 tmr
0000000000000000 l    df *ABS*	0000000000000000 sdei_state.c
0000000050016f31 l     O .rodata	0000000000000050 sdei_state_table
0000000000000000 l    df *ABS*	0000000000000000 context_mgmt.c
0000000000000000 l    df *ABS*	0000000000000000 bl31_context_mgmt.c
0000000000000000 l    df *ABS*	0000000000000000 multi_console.c
0000000000000000 l    df *ABS*	0000000000000000 ehf.c
0000000050003068 l     F .text	000000000000006c ehf_entering_normal_world
0000000050008890 l     F .text	000000000000006c pri_to_idx
0000000050002f60 l     F .text	0000000000000108 ehf_el3_interrupt_handler
00000000500030d4 l     F .text	0000000000000078 ehf_exited_normal_world
0000000000000000 l    df *ABS*	0000000000000000 xlat_tables_context.c
0000000050025f08 l     O .bss	0000000000000064 tf_mapped_regions
00000000500259c0 l     O .bss	00000000000004d8 tf_mmap
0000000050019118 l     O .data	0000000000000070 tf_xlat_ctx
0000000050027000 l     O xlat_table	0000000000019000 tf_xlat_tables
0000000050026340 l     O .bss	0000000000000010 tf_base_xlat_table
0000000000000000 l    df *ABS*	0000000000000000 sdei_event.c
0000000000000000 l    df *ABS*	0000000000000000 gic-x00.c
000000005000410c l     F .text	0000000000000014 gicr_wait_group_not_in_transit
00000000500057dc l     F .text	0000000000000038 gicv3_redists_need_power_mgmt
000000005000359c l     F .text	0000000000000080 get_gicr_base
0000000050025fec l     O .bss	0000000000000001 gic600_errata_wa_2384374
0000000000000000 l    df *ABS*	0000000000000000 interrupt_mgmt.c
000000005000c3f8 l     F .text	0000000000000084 set_scr_el3_from_rm
0000000050020408 l     O .bss	0000000000000060 intr_type_descs
0000000000000000 l    df *ABS*	0000000000000000 sdei_intr_mgmt.c
000000005000ab1c l     F .text	00000000000000d0 save_event_ctx
0000000050024800 l     O .bss	00000000000011a0 cpu_state
0000000050003640 l     F .text	000000000000006c get_outstanding_dispatch
000000005000a970 l     F .text	0000000000000044 restore_and_resume_ns_context
000000005000ba14 l     F .text	00000000000000f0 sdei_set_elr_spsr.isra.0
0000000000000000 l    df *ABS*	0000000000000000 gic600ae_fmu.c
0000000050012010 l     O .rodata	0000000000000110 gicd_sm_info
0000000050012120 l     O .rodata	0000000000000078 its_sm_info
0000000050012198 l     O .rodata	0000000000000068 ppi_sm_info
0000000050012200 l     O .rodata	0000000000000030 spicol_sm_info
0000000050012230 l     O .rodata	0000000000000018 wkrqst_sm_info
0000000000000000 l    df *ABS*	0000000000000000 gic600ae_fmu_helpers.c
000000005000f7b4 l     F .text	000000000000005c wait_until_fmu_is_idle
00000000500137ca l     O .rodata	000000000000002c CSWTCH.23
0000000000000000 l    df *ABS*	0000000000000000 gicdv3_helpers.c
0000000000000000 l    df *ABS*	0000000000000000 gicrv3_helpers.c
0000000000000000 l    df *ABS*	0000000000000000 gicv3_main.c
0000000050004100 l     F .text	000000000000000c gicr_wait_for_pending_write
000000005000637c l     F .text	0000000000000040 is_sgi_ppi
0000000050025e98 l     O .bss	0000000000000004 gic_lock
0000000050013bdd l     O .rodata	0000000000000003 CSWTCH.215
0000000050013be0 l     O .rodata	0000000000000003 CSWTCH.216
0000000000000000 l    df *ABS*	0000000000000000 gicv3_helpers.c
0000000000000000 l    df *ABS*	0000000000000000 xlat_tables_core.c
0000000050006e68 l     F .text	0000000000000164 mmap_add_region_check
000000005000fb1c l     F .text	0000000000000050 xlat_table_get_index
000000005000fe08 l     F .text	000000000000020c xlat_tables_unmap_region
000000005000fb6c l     F .text	0000000000000298 xlat_tables_map_region
0000000000000000 l    df *ABS*	0000000000000000 xlat_tables_arch.c
0000000050012880 l     O .rodata	000000000000001c pa_range_bits_arr
0000000000000000 l    df *ABS*	0000000000000000 ivc.c
00000000500063e8 l     F .text	000000000000002c ivc_advance_tx
00000000500063bc l     F .text	000000000000002c ivc_advance_rx
0000000050006480 l     F .text	0000000000000050 ivc_check_write
00000000500064d0 l     F .text	0000000000000020 ivc_frame_pointer.part.0
0000000050006414 l     F .text	000000000000006c ivc_check_read
0000000000000000 l    df *ABS*	0000000000000000 mce.c
00000000500066c4 l     F .text	0000000000000068 mce_get_curr_cpu_ari_base
000000005000665c l     F .text	0000000000000068 mce_firmware_not_supported
000000005001935c l     O .data	0000000000000004 cluster_present_bitmap
0000000050019360 l     O .data	0000000000000004 core_present_bitmap
0000000050019364 l     O .data	0000000000000004 tegra_unsupported_platform_bitmap
0000000050015783 l     O .rodata	0000000000000014 __func__.3184
0000000050015797 l     O .rodata	0000000000000020 __func__.3211
0000000050012804 l     O .rodata	0000000000000030 mce_cfg_table
0000000000000000 l    df *ABS*	0000000000000000 delay_timer.c
0000000050020470 l     O .bss	0000000000000008 timer_ops
0000000000000000 l    df *ABS*	0000000000000000 memcmp.c
0000000000000000 l    df *ABS*	0000000000000000 memcpy.c
0000000000000000 l    df *ABS*	0000000000000000 memmove.c
0000000000000000 l    df *ABS*	0000000000000000 memset.c
0000000000000000 l    df *ABS*	0000000000000000 opteed_pm.c
0000000050007478 l     F .text	0000000000000004 opteed_cpu_on_handler
00000000500072c0 l     F .text	0000000000000008 opteed_cpu_migrate_info
0000000050007cb8 l     F .text	000000000000008c opteed_system_reset
0000000050007c2c l     F .text	000000000000008c opteed_system_off
000000005000747c l     F .text	00000000000000c0 opteed_cpu_suspend_finish_handler
000000005000753c l     F .text	00000000000000c0 opteed_cpu_suspend_handler
00000000500072c8 l     F .text	00000000000000b4 opteed_cpu_off_handler
000000005000737c l     F .text	00000000000000fc opteed_cpu_on_finish_handler
0000000000000000 l    df *ABS*	0000000000000000 opteed_main.c
00000000500078ac l     F .text	0000000000000264 opteed_smc_handler
0000000050007754 l     F .text	00000000000000e0 opteed_sel1_interrupt_handler
0000000050007834 l     F .text	0000000000000078 opteed_setup
00000000500075fc l     F .text	0000000000000070 opteed_init
0000000050017bf8 l     O .rodata	0000000000000020 __svc_desc_opteed_std
0000000050017c18 l     O .rodata	0000000000000020 __svc_desc_opteed_fast
0000000000000000 l    df *ABS*	0000000000000000 opteed_common.c
0000000000000000 l    df *ABS*	0000000000000000 plat_common.c
0000000000000000 l    df *ABS*	0000000000000000 plat_setup.c
00000000500247b0 l     O .bss	0000000000000018 bpmp_ipc
00000000500247c8 l     O .bss	0000000000000030 spe_console.3823
0000000050012834 l     O .rodata	0000000000000010 tegra234_interrupt_props
0000000050012368 l     O .rodata	00000000000003e8 tegra_mmap
0000000050016833 l     O .rodata	0000000000000006 tegra_power_domain_tree_desc
0000000000000000 l    df *ABS*	0000000000000000 tegra_platform.c
000000005000d6a8 l     F .text	00000000000000ac tegra_get_platform
0000000050014d24 l     O .rodata	0000000000000007 CSWTCH.11
0000000050014d2b l     O .rodata	0000000000000009 CSWTCH.7
0000000000000000 l    df *ABS*	0000000000000000 tegra_stack_protector.c
0000000000000000 l    df *ABS*	0000000000000000 tegra_pm.c
000000005000d754 l     F .text	0000000000000014 tegra_get_sys_suspend_power_state
000000005000eac4 l     F .text	000000000000001c tegra_validate_ns_entrypoint
000000005000eaa4 l     F .text	0000000000000010 tegra_system_reset
000000005000ea98 l     F .text	000000000000000c tegra_system_off
000000005000e12c l     F .text	0000000000000038 tegra_pwr_domain_power_down_wfi
000000005000e0c0 l     F .text	000000000000006c tegra_pwr_domain_on_finish
000000005000e18c l     F .text	0000000000000004 tegra_pwr_domain_suspend_finish
000000005000e164 l     F .text	0000000000000028 tegra_pwr_domain_suspend
000000005000e0a8 l     F .text	0000000000000014 tegra_pwr_domain_off
000000005000e0bc l     F .text	0000000000000004 tegra_pwr_domain_on
000000005000d4b0 l     F .text	0000000000000048 tegra_cpu_standby
000000005000eae0 l     F .text	0000000000000028 tegra_validate_power_state
0000000050018068 l     O .data	00000000000000a8 tegra_plat_psci_ops
0000000050014d76 l     O .rodata	0000000000000012 __func__.3428
0000000000000000 l    df *ABS*	0000000000000000 plat_gicv3.c
0000000050014b73 l     O .rodata	0000000000000004 CSWTCH.13
0000000000000000 l    df *ABS*	0000000000000000 plat_log_common.c
0000000050012798 l     O .rodata	0000000000000028 plat_prefix_str
0000000000000000 l    df *ABS*	0000000000000000 plat_memctrl.c
0000000000000000 l    df *ABS*	0000000000000000 tegra_sdei.c
00000000500191dc l     O .data	0000000000000140 tegra_sdei_private
000000005001931c l     O .data	000000000000003c tegra_sdei_shared
0000000000000000 l    df *ABS*	0000000000000000 plat_secondary.c
0000000000000000 l    df *ABS*	0000000000000000 plat_sip_calls.c
0000000000000000 l    df *ABS*	0000000000000000 bl_common.c
0000000000000000 l    df *ABS*	0000000000000000 printf.c
000000005000ed14 l     F .text	00000000000000fc unsigned_num_print
0000000000000000 l    df *ABS*	0000000000000000 psci_common.c
0000000050009cb0 l     F .text	000000000000005c psci_set_req_local_pwr_state
0000000050025fed l     O .bss	0000000000000018 psci_req_local_pwr_states
0000000000000000 l    df *ABS*	0000000000000000 psci_main.c
0000000000000000 l    df *ABS*	0000000000000000 psci_setup.c
000000005001cc80 l     O .bss	0000000000001b00 psci_ns_context
0000000000000000 l    df *ABS*	0000000000000000 psci_on.c
0000000000000000 l    df *ABS*	0000000000000000 psci_suspend.c
0000000000000000 l    df *ABS*	0000000000000000 psci_off.c
0000000000000000 l    df *ABS*	0000000000000000 psci_mem_protect.c
0000000000000000 l    df *ABS*	0000000000000000 psci_system_off.c
0000000000000000 l    df *ABS*	0000000000000000 putchar.c
0000000000000000 l    df *ABS*	0000000000000000 ras_common.c
0000000000000000 l    df *ABS*	0000000000000000 runtime_svc.c
0000000000000000 l    df *ABS*	0000000000000000 sdei_main.c
000000005000af28 l     F .text	0000000000000068 sdei_cpu_on_init
000000005000abec l     F .text	000000000000033c sdei_class_init
000000005000af90 l     F .text	0000000000000018 sdei_cpu_wakeup_init
000000005000b33c l     F .text	000000000000012c sdei_event_unregister
000000005000b4b0 l     F .text	00000000000000a8 sdei_interrupt_release
0000000050025f00 l     O .bss	0000000000000004 num_dyn_priv_slots
0000000050025f04 l     O .bss	0000000000000004 num_dyn_shrd_slots
0000000000000000 l    df *ABS*	0000000000000000 std_err_record.c
0000000000000000 l    df *ABS*	0000000000000000 snprintf.c
000000005000ee10 l     F .text	0000000000000160 unsigned_num_print
0000000000000000 l    df *ABS*	0000000000000000 spe.c
000000005000c650 l     F .text	0000000000000030 spe_drain_buffers_hook
0000000000000000 l    df *ABS*	0000000000000000 std_svc_setup.c
000000005000c72c l     F .text	00000000000000e0 std_svc_smc_handler
000000005000c6dc l     F .text	0000000000000050 std_svc_setup
0000000050017c38 l     O .rodata	0000000000000020 __svc_desc_std_svc
0000000000000000 l    df *ABS*	0000000000000000 strlen.c
0000000000000000 l    df *ABS*	0000000000000000 strncmp.c
0000000000000000 l    df *ABS*	0000000000000000 sve.c
0000000000000000 l    df *ABS*	0000000000000000 intf.c
000000005000d418 l     F .text	0000000000000014 tegra_bpmp_ivc_notify
000000005000d288 l     F .text	0000000000000190 tegra_bpmp_ipc_send_req_atomic
0000000050024748 l     O .bss	0000000000000028 ivc_ccplex_bpmp_channel
0000000050024770 l     O .bss	0000000000000010 s_channel
000000005001505a l     O .rodata	000000000000001e __func__.2500
0000000050015078 l     O .rodata	000000000000001f __func__.2547
0000000050015097 l     O .rodata	0000000000000014 __func__.2559
00000000500150ab l     O .rodata	000000000000001c __func__.2575
00000000500150c7 l     O .rodata	000000000000001d __func__.2581
0000000000000000 l    df *ABS*	0000000000000000 memctrl_v2.c
000000005000d42c l     F .text	0000000000000084 tegra_clear_videomem
0000000050024780 l     O .bss	0000000000000008 video_mem_base
0000000050024788 l     O .bss	0000000000000008 video_mem_size_mb
0000000000000000 l    df *ABS*	0000000000000000 tegra_delay_timer.c
000000005000eab4 l     F .text	0000000000000010 tegra_timer_get_value
00000000500205f8 l     O .bss	0000000000000010 tegra_timer_ops.3274
0000000000000000 l    df *ABS*	0000000000000000 tegra_fiq_glue.c
000000005000d5f4 l     F .text	0000000000000080 tegra_fiq_interrupt_handler
0000000050025ef4 l     O .bss	0000000000000004 fiq_handler_active
0000000050020608 l     O .bss	00000000000000c0 fiq_state
00000000500206c8 l     O .bss	0000000000000008 ns_fiq_handler_addr
0000000000000000 l    df *ABS*	0000000000000000 psc_mailbox.c
0000000050015470 l     O .rodata	0000000000000017 __func__.2409
0000000000000000 l    df *ABS*	0000000000000000 se.c
000000005000e194 l     F .text	00000000000001a8 tegra_se_program_ctx_ops
00000000500158a4 l     O .rodata	000000000000001f __func__.2759
00000000500158c3 l     O .rodata	0000000000000012 __func__.2769
00000000500158d5 l     O .rodata	0000000000000013 __func__.2777
00000000500158e8 l     O .rodata	0000000000000019 __func__.2784
0000000000000000 l    df *ABS*	0000000000000000 tegra_sip_calls.c
0000000050014e2d l     O .rodata	0000000000000012 __func__.3091
0000000050017bb8 l     O .rodata	0000000000000020 __svc_desc_tegra_sip_fast
0000000000000000 l    df *ABS*	0000000000000000 plat_psci_handlers.c
000000005001c980 l     O .bss	0000000000000300 t234_percpu_data
00000000500159a4 l     O .rodata	000000000000001f __func__.3634
00000000500159c3 l     O .rodata	0000000000000018 __func__.3687
00000000500159db l     O .rodata	000000000000001f __func__.3701
0000000000000000 l    df *ABS*	0000000000000000 tf_log.c
0000000050019368 l     O .data	0000000000000004 max_log_level
0000000000000000 l    df *ABS*	0000000000000000 xlat_tables_utils.c
0000000000000000 l    df *ABS*	0000000000000000 plat_ehf.c
0000000000000000 l    df *ABS*	0000000000000000 
0000000050003704 g     F .text	0000000000000188 gic600_fmu_init
0000000050003d6c g     F .text	0000000000000014 gicd_read_nsacr
0000000050001460 g     F .text	0000000000000044 longjmp
000000005000cbf0 g     F .text	00000000000000e8 tegra234_ras_init_my_cluster
000000005000a864 g     F .text	000000000000002c putchar
0000000050005064 g     F .text	000000000000001c gicv3_get_spi_limit
000000005000d768 g     F .text	0000000000000014 tegra_gic_cpuif_deactivate
0000000050002698 g     F .text	00000000000000f4 cm_prepare_el3_exit
0000000050004e04 g     F .text	0000000000000018 gicv3_get_component_prodid_rev
0000000050002d5c g     F .text	000000000000003c console_set_scope
00000000500191c0 g       .data	0000000000000000 tegra_bl31_phys_base
0000000050006a08 g     F .text	000000000000003c mdelay
000000005000852c g     F .text	0000000000000014 plat_is_smccc_feature_available
0000000050026340 g       .bss	0000000000000000 __PMF_TIMESTAMP_START__
0000000050008248  w    F .text	000000000000005c plat_ic_get_pending_interrupt_type
0000000050003ebc g     F .text	0000000000000014 gicd_write_igrpmodr
000000005000248c g     F .text	0000000000000098 cm_el1_sysregs_context_restore
0000000050009a38 g     F .text	000000000000005c psci_migrate_info_up_cpu
0000000050040000 g       xlat_table	0000000000000000 __BL31_END__
0000000050001980 g     F .text	0000000000000028 setjmp
0000000050002ce4 g     F .text	0000000000000078 console_register
0000000050008e50 g     F .text	0000000000000158 psci_cpu_suspend
0000000050003d80 g     F .text	000000000000001c gicd_set_icenabler
000000005000df50 g     F .text	000000000000001c tegra_platform_is_qt
000000005000505c g     F .text	0000000000000008 gicv3_get_running_priority
0000000050003c14 g     F .text	0000000000000034 gic_fmu_write_smen
00000000500018dc g     F .text	0000000000000034 reset_handler
0000000050002848 g     F .text	0000000000000044 cm_set_elr_spsr_el3
0000000050010e00 g     F .text	0000000000000000 sync_exception_aarch32
0000000050001b0c g     F .text	0000000000000008 zeromem
00000000500128fc g     O .rodata	000000000000001c version_string
0000000050000918 g     F .text	0000000000000008 asm_print_newline
0000000050017cb0 g       .rodata	0000000000000000 __pubsub_psci_suspend_pwrdown_finish_end
000000005000a54c g     F .text	00000000000000f4 psci_validate_entry_point
0000000050006b54 g     F .text	000000000000003c mmap_add_ctx
00000000500088fc g     F .text	0000000000000004 print_entry_point_info
00000000500025bc g     F .text	0000000000000034 cm_get_context
0000000050008900 g     F .text	0000000000000090 printf
0000000050006bf8 g     F .text	0000000000000208 mmap_add_dynamic_region_ctx
00000000500259a8 g     O .bss	0000000000000018 mmu_cfg_params
000000005000fe04 g     F .text	0000000000000004 xlat_tables_print
0000000050009bbc g     F .text	0000000000000060 psci_release_pwr_domain_locks
00000000500014f0  w    F .text	0000000000000034 plat_core_pos_by_mpidr
000000005000a660 g     F .text	000000000000004c psci_validate_power_state
0000000050018000 g       .rodata	0000000000000000 __RW_START__
00000000500082d8  w    F .text	0000000000000010 plat_ic_is_ppi
000000005000dca8 g     F .text	0000000000000004 tegra_memctrl_clear_pending_interrupts
0000000050008fa8 g     F .text	00000000000000ec psci_cpu_suspend_finish
000000005000e3c0 g     F .text	0000000000000080 tegra_se_suspend
0000000050006b90 g     F .text	0000000000000068 mmap_add_dynamic_region
00000000500008e4 g     F .text	0000000000000004 asm_assert
0000000050002148 g     F .text	0000000000000038 bl31_plat_get_next_image_ep_info
0000000050006938 g     F .text	0000000000000014 mce_system_shutdown
0000000050006824 g     F .text	000000000000008c mce_is_cluster_present
0000000050000c94 g     F .text	0000000000000060 do_panic
000000005000cfa8 g     F .text	00000000000000ac tegra_bpmp_ipc_disable_clock
0000000050000938 g     F .text	0000000000000018 begin_sdei_synchronous_dispatch
0000000050007e5c g     F .text	0000000000000028 plat_get_bl31_params
0000000050004208 g     F .text	00000000000000a4 gicv3_check_erratas_applies
0000000050006a98 g     F .text	0000000000000034 memmove
0000000050003f80 g     F .text	0000000000000020 gicr_get_igroupr
0000000050025f6c g     O .bss	0000000000000080 rt_svc_descs_indices
0000000050003ef4 g     F .text	0000000000000014 gicd_write_isenabler
000000005000864c g     F .text	000000000000008c plat_setup_psci_ops
0000000050010a00 g     F .text	0000000000000000 sync_exception_sp_elx
0000000050003f08 g     F .text	0000000000000014 gicd_write_ispendr
0000000050000618 g     F .text	0000000000000034 ari_system_reboot
000000005000c47c g     F .text	0000000000000130 setup_mmu_cfg
0000000050010800 g     F .text	0000000000000000 sync_exception_sp_el0
000000005000c5ac g     F .text	00000000000000a4 snprintf
0000000050001880 g     F .text	000000000000000c psci_power_down_wfi
0000000050004e1c g     F .text	00000000000000c0 gicv3_get_interrupt_active
00000000500083b8  w    F .text	0000000000000030 plat_ic_set_interrupt_priority
000000005000d8c0 g     F .text	0000000000000078 tegra_gic_setup
0000000050007158 g     F .text	0000000000000168 mmap_remove_dynamic_region_ctx
000000005000436c g     F .text	00000000000000e8 gicv3_cpuif_disable
00000000500013d4 g     F .text	000000000000000c handle_lower_el_ea_esb
00000000500089fc g     F .text	0000000000000058 psci_affinity_info
0000000050019110 g     O .data	0000000000000008 __stack_chk_guard
0000000050002250 g     F .text	000000000000000c bl31_register_bl32_init
000000005000dbc8 g     F .text	0000000000000038 tegra_ivc_total_queue_size
0000000050008588  w    F .text	0000000000000030 plat_log_get_prefix
000000005000990c g     F .text	00000000000000e0 psci_migrate
00000000500082a8 g     F .text	0000000000000030 plat_ic_has_interrupt_type
000000005000dd64 g     F .text	0000000000000004 tegra_memctrl_setup
0000000050005180 g     F .text	0000000000000088 gicv3_rdistif_base_addrs_probe
0000000050003b90 g     F .text	000000000000001c gic_fmu_read_errstatus
0000000050022ee8 g     O .bss	0000000000001800 sdei_private_event_table
00000000500128de g     O .rodata	000000000000001e build_message
0000000050002350 g     F .text	0000000000000064 boot_profiler_deinit
0000000050000edc g     F .text	0000000000000078 el3_exit
0000000050009d0c g     F .text	000000000000041c psci_setup
000000005000278c g     F .text	0000000000000034 cm_set_context
0000000050005ee0 g     F .text	0000000000000078 init_xlat_tables
0000000050002180 g     F .text	0000000000000020 bl31_plat_runtime_setup
0000000050018000 g       .data	0000000000000000 __DATA_START__
0000000050025e9c g     O .bss	0000000000000010 psci_locks
000000005000db7c g     F .text	000000000000004c tegra_ivc_read_get_next_frame
000000005000e6ac g     F .text	0000000000000018 tegra_soc_prepare_system_reset
000000005000df88 g     F .text	000000000000001c tegra_platform_is_virt_dev_kit
000000005000d944 g     F .text	00000000000000c0 tegra_ivc_channel_notified
000000005000db18 g     F .text	0000000000000064 tegra_ivc_read_advance
0000000050005bf4 g     F .text	0000000000000178 gicv3_set_interrupt_type
00000000500095f4 g     F .text	0000000000000034 psci_find_target_suspend_lvl
000000005000f8a4 g     F .text	0000000000000040 xlat_arch_regime_get_xn_desc
0000000050005a50 g     F .text	00000000000000d0 gicv3_set_interrupt_pending
0000000050003e48 g     F .text	000000000000001c gicd_set_isenabler
0000000050008a54 g     F .text	000000000000001c psci_arch_setup
00000000500009bc g     F .text	0000000000000048 check_wa_cve_2017_5715
0000000050001ac0 g     F .text	0000000000000014 update_stack_protector_canary
000000005000a32c g     F .text	0000000000000064 psci_system_reset
0000000050003e34 g     F .text	0000000000000014 gicd_set_ipriorityr
0000000050006a78 g     F .text	0000000000000020 memcpy
000000005000dc00 g     F .text	0000000000000060 tegra_ivc_write_advance
0000000050012318 g     O .rodata	0000000000000020 sdei_global_mappings
0000000050003520 g     F .text	000000000000007c get_event_entry
000000005000a640 g     F .text	0000000000000020 psci_validate_mpidr
000000005000a454 g     F .text	00000000000000f8 psci_system_suspend
0000000050010b80 g     F .text	0000000000000000 serror_sp_elx
0000000050002638 g     F .text	0000000000000030 cm_init_context_by_index
000000005000df14 g     F .text	000000000000001c tegra_platform_is_fpga
000000005000463c g     F .text	00000000000000e8 gicv3_distif_init
0000000050003b88 g     F .text	0000000000000008 gic_fmu_read_erridr
0000000050000460 g     F .text	0000000000000064 ari_is_sc7_allowed
0000000050010880 g     F .text	0000000000000000 irq_sp_el0
0000000050001b14 g     F .text	0000000000000114 zero_normalmem
000000005000e590 g     F .text	0000000000000108 tegra_soc_get_target_pwr_state
0000000050009628 g     F .text	0000000000000048 psci_get_parent_pwr_domain_nodes
0000000050004c14 g     F .text	0000000000000120 gicv3_driver_init
0000000050008600 g     F .text	000000000000001c plat_runtime_setup
0000000050000a5c g     F .text	00000000000000a8 console_spe_core_putc
0000000050017cb0 g     O .rodata	0000000000000008 __cb_func_spe_drain_buffers_hookcm_entering_secure_world
0000000050007d4c g     F .text	0000000000000050 plat_ea_handler
0000000050002e84 g     F .text	00000000000000dc ehf_deactivate_priority
000000005000a2c8 g     F .text	0000000000000064 psci_system_off
00000000500017a4 g     F .text	0000000000000008 platform_mem_init
000000005000e740 g     F .text	000000000000012c tegra_soc_pwr_domain_on_finish
0000000050003e80 g     F .text	0000000000000014 gicd_write_icenabler
00000000500081bc  w    F .text	0000000000000028 plat_ic_get_interrupt_active
0000000050005d6c g     F .text	0000000000000014 gicv3_set_pmr
000000005000f38c g     F .text	0000000000000428 vsnprintf
0000000050007e84 g     F .text	0000000000000028 plat_get_bl31_plat_params
0000000050017cb8 g       .rodata	0000000000000000 __pubsub_cm_exited_secure_world_end
0000000050006b44 g     F .text	0000000000000010 mmap_add
0000000050001ad4 g     F .text	0000000000000038 wa_cve_2018_3639_get_disable_ptr
000000005000013c g     F .text	000000000000008c bl31_warm_entrypoint
0000000050007fd4 g     F .text	000000000000000c plat_get_syscnt_freq2
0000000050001684  w    F .text	0000000000000008 plat_panic_handler
0000000050017bb8 g       .rodata	0000000000000000 __RT_SVC_DESCS_START__
000000005001c380 g       stacks	0000000000000000 __STACKS_END__
00000000500054e0 g     F .text	000000000000001c gicv3_rdistif_mark_core_asleep
0000000050017ca8 g       .rodata	0000000000000000 __pubsub_psci_suspend_pwrdown_start_end
0000000050000974 g     F .text	0000000000000048 check_smccc_arch_wa3_applies
0000000050000b1c g     F .text	000000000000006c console_spe_register
0000000050026080 g       .bss	0000000000000000 __PERCPU_BAKERY_LOCK_END__
0000000050000a04 g     F .text	0000000000000038 clean_dcache_range
00000000500017ac g     F .text	000000000000004c prepare_cpu_pwr_dwn
0000000050003e64 g     F .text	000000000000001c gicd_set_ispendr
000000005000b110 g     F .text	00000000000001b0 sdei_event_complete
0000000050007d44  w    F .text	0000000000000008 plat_arm_set_twedel_scr_el3
0000000050000a3c g     F .text	0000000000000020 console_spe_core_flush
000000005000766c g     F .text	00000000000000e8 opteed_init_optee_ep_state
000000005000349c g     F .text	000000000000004c find_event_map_by_intr
0000000050001910 g     F .text	0000000000000070 restore_gp_pmcr_pauth_regs
000000005000e440 g     F .text	0000000000000148 tegra_sip_handler
00000000500049ac g     F .text	0000000000000004 gicv3_distif_post_restore
000000005000e190 g     F .text	0000000000000004 tegra_pwr_domain_suspend_pwrdown_early
000000005000a74c g     F .text	0000000000000118 psci_warmboot_entrypoint
00000000500054fc g     F .text	0000000000000044 gicv3_rdistif_mark_core_awake
0000000050006534 g     F .text	0000000000000128 mce_command_handler
0000000050017cc0 g       .rodata	0000000000000000 __pubsub_cm_exited_normal_world_start
0000000050001794  w    F .text	0000000000000010 plat_set_my_stack
00000000500027c0 g     F .text	0000000000000048 cm_set_context_by_index
00000000500086d8 g     F .text	0000000000000058 plat_sip_handler
0000000050017c58 g       .rodata	0000000000000000 __RT_SVC_DESCS_END__
000000005000dcac g     F .text	0000000000000004 tegra_memctrl_disable_ahb_redirection
0000000050008494  w    F .text	0000000000000098 plat_interrupt_type_to_line
0000000050001e68 g     F .text	0000000000000080 bl31_check_ns_address
0000000050003b58 g     F .text	000000000000001c gic_fmu_read_errctlr
0000000050002524 g     F .text	0000000000000098 cm_el1_sysregs_context_save
00000000500008e8 g     F .text	0000000000000030 asm_print_hex
000000005000207c g     F .text	00000000000000cc bl31_plat_arch_setup
0000000050002014 g     F .text	0000000000000068 bl31_main
000000005000cb1c g     F .text	00000000000000d4 tegra234_ras_init_common
0000000050008620 g     F .text	0000000000000004 plat_sdei_setup
0000000050020478 g     O .bss	00000000000000c0 psci_cpu_pd_nodes
00000000500082a4  w    F .text	0000000000000004 plat_ic_get_running_priority
0000000050000920 g     F .text	0000000000000018 asm_print_str
0000000050008730 g     F .text	0000000000000008 plat_supports_system_suspend
00000000500083e8  w    F .text	0000000000000030 plat_ic_set_interrupt_type
0000000050007ba8 g     F .text	0000000000000084 opteed_synchronous_sp_exit
00000000500002dc g     F .text	0000000000000010 __stack_chk_fail
0000000050000950  w    F .text	0000000000000004 bl31_plat_enable_mmu
00000000500085bc g     F .text	0000000000000004 plat_memctrl_setup
0000000050002634 g     F .text	0000000000000004 cm_init
000000005000388c g     F .text	000000000000005c gic600_fmu_probe
0000000050001524 g     F .text	0000000000000054 plat_crash_console_flush
0000000050010800 g       .text	0000000000000000 runtime_exceptions
000000005000067c g     F .text	0000000000000038 ari_update_ccplex_gsc
0000000050001670  w    F .text	0000000000000004 plat_handle_uncontainable_ea
000000005000672c g     F .text	000000000000007c mce_is_cluster_in_hybrid_mode
00000000500246e8 g     O .bss	0000000000000060 sdei_shared_event_table
0000000050003f1c g     F .text	0000000000000014 gicd_write_nsacr
0000000050002808 g     F .text	0000000000000040 cm_set_elr_el3
000000005000d694 g     F .text	0000000000000014 tegra_get_chipid_minor
0000000050004120 g     F .text	0000000000000014 gicr_write_ipriorityr
0000000050000c08 g     F .text	0000000000000024 cpu_rev_var_range
0000000050017cb8 g       .rodata	0000000000000000 __pubsub_cm_exited_secure_world_start
000000005000a274 g     F .text	0000000000000054 psci_spd_migrate_info
0000000050005578 g     F .text	00000000000000d8 gicv3_rdistif_probe
00000000500008cc g     F .text	0000000000000018 _cpu_data_by_index
0000000050009b20 g     F .text	0000000000000004 psci_print_power_domain_map
0000000050007fe0 g     F .text	0000000000000004 plat_get_target_pwr_state
000000005000dd70 g     F .text	00000000000001a4 tegra_memctrl_videomem_setup
0000000050002c48 g     F .text	000000000000009c console_putc
0000000050004000 g     F .text	0000000000000038 gicr_set_icfgr
0000000050012750 g     O .rodata	0000000000000048 opteed_pm
0000000050008624  w    F .text	0000000000000008 plat_sdei_validate_entry_point
00000000500049b4 g     F .text	0000000000000260 gicv3_distif_save
0000000050003e94 g     F .text	0000000000000014 gicd_write_icfgr
0000000050008068 g     F .text	0000000000000040 plat_handle_el3_ea
00000000500191c8 g       .data	0000000000000000 tegra_console_base
00000000500023b4 g     F .text	000000000000006c boot_profiler_init
0000000050009758 g     F .text	0000000000000094 psci_is_last_on_cpu
0000000050001578 g     F .text	0000000000000048 plat_crash_console_init
00000000500050f0 g     F .text	0000000000000090 gicv3_raise_secure_g0_sgi
000000005000da1c g     F .text	00000000000000fc tegra_ivc_init
0000000050010e80 g     F .text	0000000000000000 irq_aarch32
0000000050001348 g     F .text	0000000000000038 flush_dcache_range
00000000500014a4 g     F .text	0000000000000028 opteed_enter_sp
0000000050007d9c g     F .text	0000000000000070 plat_early_platform_setup
000000005000ec14 g     F .text	0000000000000048 timer_init
0000000050001ee8 g     F .text	0000000000000120 bl31_early_platform_setup2
000000005000d79c g     F .text	0000000000000060 tegra_gic_pcpu_init
000000005000d77c g     F .text	0000000000000020 tegra_gic_init
00000000500006b4 g     F .text	0000000000000050 ari_update_cstate_info
000000005000064c g     F .text	0000000000000030 ari_system_shutdown
00000000500064f0 g     F .text	0000000000000044 mce_clean_and_invalidate_caches
0000000050017c58 g       .rodata	0000000000000000 __PMF_SVC_DESCS_END__
000000005000fafc g     F .text	000000000000001c xlat_get_min_virt_addr_space_size
0000000050019378 g       .data	0000000000000000 __RELA_END__
0000000050000b14 g     F .text	0000000000000008 console_spe_putc
0000000050019378 g       .data	0000000000000000 __RELA_START__
0000000050005338 g     F .text	00000000000001a8 gicv3_rdistif_init_restore
0000000050003dd0 g     F .text	000000000000001c gicd_set_icpendr
0000000050010980 g     F .text	0000000000000000 serror_sp_el0
00000000500191b8 g       .data	0000000000000000 ns_image_entrypoint
000000005000ef70 g     F .text	000000000000041c vprintf
000000005000c358 g     F .text	00000000000000a0 set_routing_model
0000000050006178 g     F .text	000000000000000c is_dcache_enabled
000000005000188c g     F .text	0000000000000028 report_unhandled_exception
0000000050008b30 g     F .text	00000000000000fc psci_cpu_on_finish
0000000050008a70 g     F .text	0000000000000038 psci_cpu_off
00000000500031e4 g     F .text	00000000000000d8 ehf_register_priority_handler
00000000500081e4 g     F .text	0000000000000014 plat_ic_get_interrupt_id
000000005000168c g     F .text	0000000000000108 plat_reset_handler
000000005000b8ec g     F .text	0000000000000128 sdei_pe_unmask
00000000500011cc g     F .text	0000000000000070 enable_mmu_direct_el3
0000000050005208 g     F .text	0000000000000130 gicv3_rdistif_init
0000000050017cc0 g       .rodata	0000000000000000 __pubsub_cm_entering_normal_world_end
0000000050001380 g     F .text	0000000000000054 get_cpu_ops_ptr
00000000500041e4 g     F .text	0000000000000024 gicv3_apply_errata_wa_2384374
0000000050000000 g     F .text	000000000000013c bl31_entrypoint
00000000500025f0 g     F .text	0000000000000044 cm_get_context_by_index
00000000500080e4  w    F .text	0000000000000048 plat_ic_clear_interrupt_pending
000000005000e938 g     F .text	00000000000000d4 tegra_soc_pwr_domain_suspend
00000000500040a8 g     F .text	0000000000000018 gicr_set_ipriorityr
0000000050004058 g     F .text	0000000000000028 gicr_set_igroupr
0000000050003bc8 g     F .text	000000000000004c gic_fmu_write_errstatus
0000000050002668 g     F .text	0000000000000030 cm_init_my_context
0000000050010d80 g     F .text	0000000000000000 serror_aarch64
0000000050008418 g     F .text	0000000000000004 plat_ic_set_priority_mask
000000005000e6ec g     F .text	0000000000000054 tegra_soc_pwr_domain_on
00000000500080a8  w    F .text	000000000000003c plat_ic_acknowledge_interrupt
0000000050003f30 g     F .text	0000000000000028 gicr_clr_igroupr
00000000500013e0 g     F .text	0000000000000014 init_cpu_data_ptr
0000000050007f50 g     F .text	000000000000000c plat_get_mmio_map
00000000500122f8 g     O .rodata	0000000000000010 exception_data
0000000050018000 g       .rodata	0000000000000000 __RODATA_END__
00000000500067a8 g     F .text	000000000000007c mce_is_cluster_in_split_mode
0000000050001258 g     F .text	0000000000000078 enter_lower_el_sync_ea
000000005000f810 g     F .text	0000000000000034 xlat_arch_current_el
0000000050005920 g     F .text	0000000000000130 gicv3_secure_spis_config_props
0000000050003b74 g     F .text	0000000000000014 gic_fmu_read_errgsr
0000000000000040 g       *ABS*	0000000000000000 __PERCPU_BAKERY_LOCK_SIZE__
0000000050003fe0 g     F .text	0000000000000020 gicr_set_icenabler
0000000050003ce4 g     F .text	0000000000000014 gicd_read_icfgr
000000005000f890 g     F .text	0000000000000014 xlat_arch_get_pas
0000000050003d20 g     F .text	0000000000000010 gicd_read_ipriorityr
0000000050002420 g     F .text	000000000000006c can_sdei_state_trans
000000005000c6cc g     F .text	0000000000000010 spe_supported
0000000050009278 g     F .text	0000000000000134 psci_do_cpu_off
0000000050025ef0 g     O .bss	0000000000000004 psci_caps
0000000050017ca0 g     O .rodata	0000000000000008 __cb_func_sdei_cpu_on_initpsci_cpu_on_finish
00000000500081f8  w    F .text	0000000000000050 plat_ic_get_interrupt_type
0000000050003bac g     F .text	000000000000001c gic_fmu_write_errctlr
0000000050000c74 g     F .text	0000000000000020 do_cpu_reg_dump
000000005000e86c g     F .text	00000000000000cc tegra_soc_pwr_domain_power_down_wfi
00000000500028e8 g     F .text	0000000000000228 cm_setup_context
0000000050000b0c g     F .text	0000000000000008 console_spe_getc
000000005000dc60 g     F .text	0000000000000048 tegra_ivc_write_get_next_frame
0000000050000000 g       .text	0000000000000000 __BL31_START__
0000000050010a80 g     F .text	0000000000000000 irq_sp_elx
0000000050026340 g       .bss	0000000000000000 __PMF_PERCPU_TIMESTAMP_END__
0000000050010900 g     F .text	0000000000000000 fiq_sp_el0
000000005000c828 g     F .text	0000000000000038 strncmp
000000005000dfc0 g     F .text	0000000000000028 tegra_psc_notify_sc7_entry
0000000050012000 g       .rodata	0000000000000000 __RODATA_START__
0000000050003434 g     F .text	0000000000000068 find_event_map
0000000050017ca8 g     O .rodata	0000000000000008 __cb_func_sdei_cpu_wakeup_initpsci_suspend_pwrdown_finish
0000000050019372 g       .data	0000000000000000 __DATA_END__
00000000500008ec g       .text	0000000000000000 asm_print_hex_bits
0000000050003e10 g     F .text	0000000000000024 gicd_set_igrpmodr
000000005000dfe8 g     F .text	00000000000000c0 tegra_psc_wait_for_ack
0000000050017c58 g       .rodata	0000000000000000 __CPU_OPS_START__
000000005000ec5c g     F .text	00000000000000b8 udelay
0000000050008154  w    F .text	0000000000000028 plat_ic_enable_interrupt
000000005000c8b8 g     F .text	0000000000000074 tcr_physical_addr_size_bits
0000000050005080 g     F .text	0000000000000070 gicv3_ppi_sgi_config_defaults
0000000050001428 g     F .text	0000000000000038 inv_dcache_range
0000000050019370 g     O .data	0000000000000001 console_state
0000000050008540 g     F .text	0000000000000048 plat_late_platform_setup
000000005000a128 g     F .text	000000000000014c psci_smc_handler
0000000050009094 g     F .text	00000000000001e4 psci_cpu_suspend_start
0000000050009700 g     F .text	0000000000000058 psci_init_req_local_pwr_states
0000000050017cb8 g       .rodata	0000000000000000 __pubsub_cm_entering_secure_world_end
000000005000e33c g     F .text	0000000000000084 tegra_se_resume
000000005000b8a8 g     F .text	0000000000000044 sdei_pe_mask
0000000050026340 g       .bss	0000000000000000 __BAKERY_LOCK_END__
0000000050005d80 g     F .text	00000000000000c8 gicv3_set_spi_routing
000000005000841c  w    F .text	0000000000000078 plat_ic_set_spi_routing
0000000050006a44 g     F .text	0000000000000034 memcmp
0000000050000be4 g     F .text	0000000000000010 cpu_get_rev_var
000000005000bb04 g     F .text	00000000000007c4 sdei_smc_handler
0000000050008c2c g     F .text	0000000000000224 psci_cpu_on_start
00000000500095a8 g     F .text	000000000000004c psci_find_max_off_lvl
000000005000f9b0 g     F .text	000000000000014c xlat_desc
0000000050017cc0 g     O .rodata	0000000000000008 __cb_func_ehf_exited_normal_worldcm_exited_normal_world
0000000050003d9c g     F .text	0000000000000034 gicd_set_icfgr
0000000050025eac g     O .bss	0000000000000040 psci_non_cpu_pd_nodes
0000000050001114 g     F .text	00000000000000b8 elx_panic
0000000050026350 g       .bss	0000000000000000 __BSS_END__
0000000050017ca0 g       .rodata	0000000000000000 __CPU_OPS_END__
00000000500085c0 g     F .text	0000000000000040 plat_memctrl_tzdram_setup
000000005000812c  w    F .text	0000000000000028 plat_ic_disable_interrupt
00000000500093ac g     F .text	0000000000000004 psci_do_pwrdown_sequence
0000000050002008 g     F .text	000000000000000c bl31_get_plat_params
00000000500068b0 g     F .text	0000000000000074 mce_num_cores
0000000050001644 g     F .text	000000000000000c plat_get_my_entrypoint
0000000050003d0c g     F .text	0000000000000014 gicd_read_igrpmodr
000000005000873c g     F .text	0000000000000154 plat_verify_sysreg_settings
000000005000862c g     F .text	0000000000000020 plat_secondary_setup
000000005000288c g     F .text	000000000000005c cm_set_next_eret_context
0000000050017cb0 g       .rodata	0000000000000000 __pubsub_cm_entering_secure_world_start
00000000500191b0 g       .data	0000000000000000 tegra_sec_entry_point
0000000050003d44 g     F .text	0000000000000014 gicd_read_isenabler
0000000050008aa8 g     F .text	0000000000000088 psci_cpu_on
0000000050003dec g     F .text	0000000000000024 gicd_set_igroupr
0000000050017cb8 g     O .rodata	0000000000000008 __cb_func_ehf_entering_normal_worldcm_entering_normal_world
00000000500021d4 g     F .text	000000000000007c bl31_prepare_next_image_entry
000000005000a6ac g     F .text	00000000000000a0 psci_validate_suspend_req
0000000050025eec g     O .bss	0000000000000004 psci_plat_core_count
0000000050009528 g     F .text	0000000000000080 psci_features
0000000050017ca0 g       .rodata	0000000000000000 __GOT_END__
0000000050006acc g     F .text	0000000000000078 memset
000000005000ea0c g     F .text	0000000000000008 tegra_soc_pwr_domain_suspend_pwrdown_early
000000005000df30 g     F .text	0000000000000020 tegra_platform_is_linsim
0000000050017c58 g       .rodata	0000000000000000 __PARSER_LIB_DESCS_END__
0000000050026040 g       .bss	0000000000000000 __BAKERY_LOCK_START__
0000000050000314 g     F .text	0000000000000028 ari_ccplex_cache_clean_and_invalidate
0000000050009670 g     F .text	0000000000000090 psci_get_target_local_pwr_states
0000000050002b10 g     F .text	0000000000000094 cm_write_scr_el3_bit
00000000500038e8 g     F .text	00000000000001fc gic600_fmu_ras_handler
0000000050017cc8 g       .rodata	0000000000000000 __pubsub_cm_exited_normal_world_end
0000000050005b20 g     F .text	00000000000000d4 gicv3_set_interrupt_priority
00000000500247f8 g     O .bss	0000000000000008 optee_vector_table
000000005000123c g     F .text	000000000000001c enter_lower_el_async_ea
000000005000861c  w    F .text	0000000000000004 plat_sdei_handle_masked_trigger
0000000050020538 g     O .bss	0000000000000008 psci_plat_pm_ops
0000000050007f68 g     F .text	0000000000000024 plat_get_soc_revision
000000005000d4f8 g     F .text	0000000000000064 tegra_delay_timer_init
000000005000314c g     F .text	0000000000000098 ehf_init
000000005000f844 g     F .text	000000000000004c xlat_arch_get_max_supported_pa
000000005000225c g     F .text	0000000000000014 bl31_setup
000000005000df6c g     F .text	000000000000001c tegra_platform_is_silicon
0000000050017ca8 g       .rodata	0000000000000000 __pubsub_psci_suspend_pwrdown_start_start
0000000050003c90 g     F .text	000000000000001c gicd_get_igroupr
000000005000817c  w    F .text	0000000000000040 plat_ic_end_of_interrupt
0000000050017ca0 g       .rodata	0000000000000000 __GOT_START__
0000000050001240 g       .text	0000000000000000 handle_lower_el_async_ea
0000000050003f58 g     F .text	0000000000000028 gicr_clr_igrpmodr
00000000500034e8 g     F .text	0000000000000038 get_arm_std_svc_args
0000000050017cb8 g       .rodata	0000000000000000 __pubsub_cm_entering_normal_world_start
0000000000000000 g       *ABS*	0000000000000000 __PERCPU_TIMESTAMP_SIZE__
00000000500003c0 g     F .text	0000000000000038 ari_enter_cstate
000000005000dfa4 g     F .text	000000000000001c tegra_platform_is_vsp
0000000050001c28 g     F .text	00000000000001a8 bakery_lock_get
0000000050012000 g       .text	0000000000000000 __TEXT_END__
000000005000d674 g     F .text	000000000000000c tegra_fiq_set_ns_entrypoint
0000000050009848 g     F .text	00000000000000c4 psci_mem_protect
0000000050017c58 g       .rodata	0000000000000000 __FCONF_POPULATOR_END__
0000000050001dd0 g     F .text	0000000000000098 bakery_lock_release
00000000500085b8 g     F .text	0000000000000004 plat_memctrl_restore
0000000050002270 g     F .text	00000000000000e0 boot_profiler_add_record
000000005000361c g     F .text	0000000000000024 get_interrupt_type_handler
0000000050007f5c g     F .text	000000000000000c plat_get_power_domain_tree_desc
000000005000694c g     F .text	0000000000000030 mce_update_cstate_info
0000000050003ed0 g     F .text	0000000000000010 gicd_write_ipriorityr
0000000050006984 g     F .text	0000000000000030 mce_update_gsc_videomem
00000000500002ec g     F .text	0000000000000028 ari_ccplex_cache_clean
0000000050009a94 g     F .text	000000000000008c psci_node_hw_state
0000000050000e34 g     F .text	00000000000000a8 el1_sysregs_context_save
00000000500040e0 g     F .text	0000000000000020 gicr_set_ispendr
0000000050011000 g       .text	0000000000000000 wa_cve_vbar_cortex_a78_ae
0000000050003ee0 g     F .text	0000000000000014 gicd_write_isactiver
00000000500013f4 g     F .text	0000000000000034 init_cpu_ops
0000000050002ba4 g     F .text	0000000000000054 console_flush
0000000050010b00 g     F .text	0000000000000000 fiq_sp_elx
000000005000f9a4 g     F .text	000000000000000c xlat_arch_tlbi_va_sync
0000000050010c00 g     F .text	0000000000000000 sync_exception_aarch64
0000000050010d00 g     F .text	0000000000000000 fiq_aarch64
0000000050003cf8 g     F .text	0000000000000014 gicd_read_igroupr
0000000050002d98 g     F .text	000000000000000c console_switch_state
0000000050026040 g     O .bss	0000000000000002 tegra234_ras_lock
000000005000afa8 g     F .text	0000000000000168 sdei_dispatch_event
0000000050001aa0 g     F .text	0000000000000008 spin_unlock
000000005000d680 g     F .text	0000000000000014 tegra_get_chipid_major
00000000500017f8 g     F .text	000000000000007c prepare_el3_entry
000000005001c380 g       .bss	0000000000000000 __BSS_START__
00000000500042ac g     F .text	00000000000000c0 gicv3_clear_interrupt_pending
000000005000b2c0 g     F .text	000000000000007c sdei_event_context
0000000050006fcc g     F .text	0000000000000178 mmap_add_region_ctx
000000005000c680 g     F .text	000000000000004c spe_enable
0000000050017c58 g       .rodata	0000000000000000 __PMF_SVC_DESCS_START__
0000000050025efc g     O .bss	0000000000000004 opteed_rw
00000000500015c0 g     F .text	0000000000000084 plat_crash_console_putc
0000000050008370  w    F .text	0000000000000048 plat_ic_set_interrupt_pending
000000005001c380 g     O .bss	0000000000000600 percpu_data
0000000050003ae4 g     F .text	0000000000000074 gic_fmu_disable_all_sm_blkid
0000000050009b5c g     F .text	0000000000000060 psci_register_spd_pm_hook
0000000050000200 g     F .text	0000000000000010 tegra_secure_entrypoint
0000000050003cac g     F .text	000000000000001c gicd_get_igrpmodr
000000005000ea14 g     F .text	0000000000000084 tegra_soc_validate_power_state
0000000050005540 g     F .text	0000000000000038 gicv3_rdistif_on
0000000050000520 g     F .text	0000000000000048 ari_online_core
0000000050007e0c g     F .text	0000000000000050 plat_enable_console
000000005000da04 g     F .text	0000000000000018 tegra_ivc_channel_reset
0000000050001a80 g     F .text	0000000000000020 spin_lock
0000000050002bf8 g     F .text	0000000000000050 console_is_registered
0000000050005020 g     F .text	000000000000003c gicv3_get_pending_interrupt_type
00000000500014cc g     F .text	0000000000000024 opteed_exit_sp
00000000500040c0 g     F .text	0000000000000020 gicr_set_isenabler
00000000500082e8  w    F .text	000000000000000c plat_ic_is_sgi
0000000050009b24 g     F .text	0000000000000038 psci_query_sys_suspend_pwrstate
000000005000c2c8 g     F .text	0000000000000090 ser_probe_memmap
00000000500062d0 g     F .text	00000000000000ac is_mmu_enabled_ctx
000000005000eb08 g     F .text	000000000000010c tf_log
0000000050004080 g     F .text	0000000000000028 gicr_set_igrpmodr
0000000050000b04 g     F .text	0000000000000008 console_spe_flush
0000000050017ca0 g       .rodata	0000000000000000 __pubsub_psci_cpu_on_finish_start
000000005000697c g     F .text	0000000000000008 mce_update_gsc_tzdram
000000005000e698 g     F .text	0000000000000014 tegra_soc_prepare_system_off
000000005000a890 g     F .text	0000000000000078 ras_serr_to_str
0000000050017c58 g       .rodata	0000000000000000 __FCONF_POPULATOR_START__
0000000050000bf4 g     F .text	0000000000000014 cpu_rev_var_ls
00000000500036ac g     F .text	0000000000000058 get_scr_el3_from_routing_model
0000000050040000 g       xlat_table	0000000000000000 __RW_END__
000000005000454c g     F .text	00000000000000f0 gicv3_disable_interrupt
000000005000dd68 g     F .text	0000000000000008 tegra_memctrl_tzdram_setup
000000005000b468 g     F .text	0000000000000048 sdei_init
0000000050007eac g     F .text	00000000000000a4 plat_get_bpmp_ipc_data
00000000500021a0 g     F .text	0000000000000034 bl31_platform_setup
0000000050004134 g     F .text	00000000000000b0 gicv3_apply_errata_wa_1568841_2079287
000000005000d054 g     F .text	00000000000000f0 tegra_bpmp_ipc_enable_clock
000000005000b558 g     F .text	0000000000000350 sdei_intr_handler
000000005000034c g     F .text	0000000000000074 ari_cluster_present_map
0000000050019380 g       stacks	0000000000000000 __STACKS_START__
000000005001e780 g     O .bss	0000000000001c80 opteed_sp_context
0000000050004724 g     F .text	0000000000000288 gicv3_distif_init_restore
0000000050003cc8 g     F .text	000000000000001c gicd_get_isactiver
0000000050004d34 g     F .text	00000000000000d0 gicv3_enable_interrupt
00000000500093b0 g     F .text	0000000000000178 psci_do_state_coordination
000000005000a390 g     F .text	00000000000000c4 psci_system_reset2
0000000050006924 g     F .text	0000000000000014 mce_system_reboot
00000000500033ec g     F .text	0000000000000048 enable_mmu_el3
000000005000d5b8 g     F .text	000000000000003c tegra_fiq_handler_setup
0000000050003fa0 g     F .text	0000000000000020 gicr_get_igrpmodr
0000000050010f80 g     F .text	0000000000000000 serror_aarch32
000000005000166c  w    F .text	0000000000000004 plat_handle_double_fault
0000000050026340 g       .bss	0000000000000000 __PMF_TIMESTAMP_END__
000000005000c888 g     F .text	0000000000000030 sve_enable
0000000050007b10 g     F .text	0000000000000098 opteed_synchronous_sp_entry
0000000050005f58 g     F .text	0000000000000220 init_xlat_tables_ctx
00000000500008c8 g     F .text	0000000000000004 arm_gicv3_distif_pre_save
0000000050017ca8 g       .rodata	0000000000000000 __pubsub_psci_suspend_pwrdown_finish_start
0000000050005e48 g     F .text	0000000000000098 gicv3_spis_config_defaults
0000000050003c6c g     F .text	0000000000000024 gicd_clr_igrpmodr
0000000050007fe4 g     F .text	0000000000000084 plat_gic_setup
0000000050001674 g     F .text	0000000000000010 plat_my_core_pos
00000000500082f4  w    F .text	0000000000000010 plat_ic_is_spi
000000005000e588 g     F .text	0000000000000008 tegra_soc_cpu_standby
0000000050005814 g     F .text	000000000000010c gicv3_secure_ppi_sgi_config_props
00000000500069b4 g     F .text	0000000000000054 mce_verify_firmware_version
000000005000a9b4 g     F .text	0000000000000168 runtime_svc_init
0000000050003d58 g     F .text	0000000000000014 gicd_read_ispendr
000000005000dcb0 g     F .text	00000000000000b4 tegra_memctrl_restore_settings
000000005000c80c g     F .text	000000000000001c strlen
0000000050026007 g     O .bss	0000000000000001 tegra234_fake_system_suspend
0000000050010c80 g     F .text	0000000000000000 irq_aarch64
000000005000e6c4 g     F .text	0000000000000028 tegra_soc_pwr_domain_off
00000000500099ec g     F .text	000000000000004c psci_migrate_info_type
0000000050007f8c g     F .text	000000000000001c plat_get_soc_version
000000005000f8e4 g     F .text	00000000000000c0 xlat_arch_tlbi_va
00000000500049b0 g     F .text	0000000000000004 gicv3_distif_pre_save
0000000050008304  w    F .text	000000000000006c plat_ic_raise_el3_sgi
00000000500002b4 g     F .text	0000000000000028 __assert
00000000500097ec g     F .text	000000000000005c psci_mem_chk_range
0000000050000f54 g     F .text	00000000000001c0 el3_panic
0000000050003c48 g     F .text	0000000000000024 gicd_clr_igroupr
000000005000a908 g     F .text	0000000000000068 register_interrupt_type_handler
000000005000d938 g     F .text	000000000000000c tegra_ivc_align
0000000050020468 g     O .bss	0000000000000008 gicv3_driver_data
000000005000fb18 g     F .text	0000000000000004 xlat_mmap_print
0000000050004038 g     F .text	0000000000000020 gicr_set_icpendr
000000005000c860 g     F .text	0000000000000028 sve_disable
000000005000d144 g     F .text	0000000000000144 tegra_bpmp_ipc_init
000000005000d55c g     F .text	000000000000005c tegra_fiq_get_intr_context
0000000050004edc g     F .text	0000000000000144 gicv3_get_interrupt_type
0000000050008990 g     F .text	000000000000006c psci_acquire_pwr_domain_locks
0000000050002da4 g     F .text	00000000000000e0 ehf_activate_priority
0000000050017ca8 g       .rodata	0000000000000000 __pubsub_psci_cpu_on_finish_end
0000000050000d8c g     F .text	00000000000000a8 el1_sysregs_context_restore
0000000050007144 g     F .text	0000000000000014 mmap_remove_dynamic_region
00000000500259a0 g     O .bss	0000000000000008 console_list
00000000500004c4 g     F .text	000000000000005c ari_num_cores
0000000050009c1c g     F .text	0000000000000094 psci_set_pwr_domains_to_run
0000000050004454 g     F .text	00000000000000f8 gicv3_cpuif_enable
00000000500008c4 g     F .text	0000000000000004 arm_gicv3_distif_post_restore
000000005000d85c g     F .text	0000000000000064 tegra_gic_save
0000000050003ea8 g     F .text	0000000000000014 gicd_write_igroupr
00000000500018b4 g     F .text	0000000000000028 report_unhandled_interrupt
0000000050003fc0 g     F .text	0000000000000020 gicr_get_isactiver
00000000500003f8 g     F .text	0000000000000068 ari_get_version
0000000050007fa8 g     F .text	000000000000002c plat_get_stack_protector_canary
0000000050010f00 g     F .text	0000000000000000 fiq_aarch32
0000000050026040 g       .bss	0000000000000000 __PERCPU_BAKERY_LOCK_START__
000000005000d7fc g     F .text	0000000000000060 tegra_gic_restore
0000000050001650  w    F .text	000000000000001c plat_get_my_stack
0000000050006e00 g     F .text	0000000000000068 mmap_add_region
0000000050000000 g       .text	0000000000000000 __TEXT_START__
0000000050003d30 g     F .text	0000000000000014 gicd_read_isactiver
0000000050005650 g     F .text	000000000000018c gicv3_rdistif_save
0000000050017c58 g       .rodata	0000000000000000 __PARSER_LIB_DESCS_START__
0000000050020540 g     O .bss	0000000000000008 psci_spd_pm
0000000050018000 g     O .data	0000000000000028 plat_exceptions



Disassembly of section .text:

0000000050000000 <bl31_entrypoint>:
    50000000:	aa0003f4 	mov	x20, x0
    50000004:	aa0103f5 	mov	x21, x1
    50000008:	aa0203f6 	mov	x22, x2
    5000000c:	aa0303f7 	mov	x23, x3
    50000010:	d2810600 	mov	x0, #0x830                 	// #2096
    50000014:	f2a618a0 	movk	x0, #0x30c5, lsl #16
    50000018:	d51e1000 	msr	sctlr_el3, x0
    5000001c:	d5033fdf 	isb
    50000020:	94000589 	bl	50001644 <plat_get_my_entrypoint>
    50000024:	b4000040 	cbz	x0, 5000002c <do_cold_boot>
    50000028:	d61f0000 	br	x0

000000005000002c <do_cold_boot>:
    5000002c:	10083ea0 	adr	x0, 50010800 <sync_exception_sp_el0>
    50000030:	d51ec000 	msr	vbar_el3, x0
    50000034:	d5033fdf 	isb
    50000038:	94000629 	bl	500018dc <reset_handler>
    5000003c:	d2820141 	mov	x1, #0x100a                	// #4106
    50000040:	d53e1000 	mrs	x0, sctlr_el3
    50000044:	aa010000 	orr	x0, x0, x1
    50000048:	d51e1000 	msr	sctlr_el3, x0
    5000004c:	d5033fdf 	isb
    50000050:	940004e4 	bl	500013e0 <init_cpu_data_ptr>
    50000054:	d2804700 	mov	x0, #0x238                 	// #568
    50000058:	d51e1100 	msr	scr_el3, x0
    5000005c:	d2900000 	mov	x0, #0x8000                	// #32768
    50000060:	f2a01020 	movk	x0, #0x81, lsl #16
    50000064:	f2c00080 	movk	x0, #0x4, lsl #32
    50000068:	d5380501 	mrs	x1, id_aa64dfr0_el1
    5000006c:	d368ac21 	ubfx	x1, x1, #40, #4
    50000070:	b4000041 	cbz	x1, 50000078 <do_cold_boot+0x4c>
    50000074:	b26d0000 	orr	x0, x0, #0x80000
    50000078:	d51e1320 	msr	mdcr_el3, x0
    5000007c:	d2801c00 	mov	x0, #0xe0                  	// #224
    50000080:	d51b9c00 	msr	pmcr_el0, x0
    50000084:	d50344ff 	msr	daifclr, #0x4
    50000088:	d2a80000 	mov	x0, #0x40000000            	// #1073741824
    5000008c:	d5380501 	mrs	x1, id_aa64dfr0_el1
    50000090:	d3441c21 	ubfx	x1, x1, #4, #4
    50000094:	b4000041 	cbz	x1, 5000009c <do_cold_boot+0x70>
    50000098:	b26c0000 	orr	x0, x0, #0x100000
    5000009c:	d51e1140 	msr	cptr_el3, x0
    500000a0:	940005c1 	bl	500017a4 <platform_mem_init>
    500000a4:	900000c0 	adrp	x0, 50018000 <__RODATA_END__>
    500000a8:	91000000 	add	x0, x0, #0x0
    500000ac:	90000201 	adrp	x1, 50040000 <__BL31_END__>
    500000b0:	91000021 	add	x1, x1, #0x0
    500000b4:	cb000021 	sub	x1, x1, x0
    500000b8:	940004dc 	bl	50001428 <inv_dcache_range>
    500000bc:	900000e0 	adrp	x0, 5001c000 <__STACKS_START__+0x2c80>
    500000c0:	910e0000 	add	x0, x0, #0x380
    500000c4:	d0000121 	adrp	x1, 50026000 <psci_req_local_pwr_states+0x13>
    500000c8:	910d4021 	add	x1, x1, #0x350
    500000cc:	cb000021 	sub	x1, x1, x0
    500000d0:	9400068f 	bl	50001b0c <zeromem>
    500000d4:	d50040bf 	msr	spsel, #0x0
    500000d8:	940005af 	bl	50001794 <plat_set_my_stack>
    500000dc:	94000679 	bl	50001ac0 <update_stack_protector_canary>
    500000e0:	d2800014 	mov	x20, #0x0                   	// #0
    500000e4:	d2800015 	mov	x21, #0x0                   	// #0
    500000e8:	d2800016 	mov	x22, #0x0                   	// #0
    500000ec:	d2800017 	mov	x23, #0x0                   	// #0
    500000f0:	aa1403e0 	mov	x0, x20
    500000f4:	aa1503e1 	mov	x1, x21
    500000f8:	aa1603e2 	mov	x2, x22
    500000fc:	aa1703e3 	mov	x3, x23
    50000100:	94000857 	bl	5000225c <bl31_setup>
    50000104:	940007c4 	bl	50002014 <bl31_main>
    50000108:	900000c0 	adrp	x0, 50018000 <__RODATA_END__>
    5000010c:	91000000 	add	x0, x0, #0x0
    50000110:	b00000c1 	adrp	x1, 50019000 <tegra234_ras_records_common+0x190>
    50000114:	910dc821 	add	x1, x1, #0x372
    50000118:	cb000021 	sub	x1, x1, x0
    5000011c:	9400023a 	bl	50000a04 <clean_dcache_range>
    50000120:	900000e0 	adrp	x0, 5001c000 <__STACKS_START__+0x2c80>
    50000124:	910e0000 	add	x0, x0, #0x380
    50000128:	d0000121 	adrp	x1, 50026000 <psci_req_local_pwr_states+0x13>
    5000012c:	910d4021 	add	x1, x1, #0x350
    50000130:	cb000021 	sub	x1, x1, x0
    50000134:	94000234 	bl	50000a04 <clean_dcache_range>
    50000138:	14000369 	b	50000edc <el3_exit>

000000005000013c <bl31_warm_entrypoint>:
    5000013c:	10083620 	adr	x0, 50010800 <sync_exception_sp_el0>
    50000140:	d51ec000 	msr	vbar_el3, x0
    50000144:	d5033fdf 	isb
    50000148:	940005e5 	bl	500018dc <reset_handler>
    5000014c:	d2820141 	mov	x1, #0x100a                	// #4106
    50000150:	d53e1000 	mrs	x0, sctlr_el3
    50000154:	aa010000 	orr	x0, x0, x1
    50000158:	d51e1000 	msr	sctlr_el3, x0
    5000015c:	d5033fdf 	isb
    50000160:	940004a0 	bl	500013e0 <init_cpu_data_ptr>
    50000164:	d2804700 	mov	x0, #0x238                 	// #568
    50000168:	d51e1100 	msr	scr_el3, x0
    5000016c:	d2900000 	mov	x0, #0x8000                	// #32768
    50000170:	f2a01020 	movk	x0, #0x81, lsl #16
    50000174:	f2c00080 	movk	x0, #0x4, lsl #32
    50000178:	d5380501 	mrs	x1, id_aa64dfr0_el1
    5000017c:	d368ac21 	ubfx	x1, x1, #40, #4
    50000180:	b4000041 	cbz	x1, 50000188 <bl31_warm_entrypoint+0x4c>
    50000184:	b26d0000 	orr	x0, x0, #0x80000
    50000188:	d51e1320 	msr	mdcr_el3, x0
    5000018c:	d2801c00 	mov	x0, #0xe0                  	// #224
    50000190:	d51b9c00 	msr	pmcr_el0, x0
    50000194:	d50344ff 	msr	daifclr, #0x4
    50000198:	d2a80000 	mov	x0, #0x40000000            	// #1073741824
    5000019c:	d5380501 	mrs	x1, id_aa64dfr0_el1
    500001a0:	d3441c21 	ubfx	x1, x1, #4, #4
    500001a4:	b4000041 	cbz	x1, 500001ac <bl31_warm_entrypoint+0x70>
    500001a8:	b26c0000 	orr	x0, x0, #0x100000
    500001ac:	d51e1140 	msr	cptr_el3, x0
    500001b0:	d50040bf 	msr	spsel, #0x0
    500001b4:	94000578 	bl	50001794 <plat_set_my_stack>
    500001b8:	aa1f03e0 	mov	x0, xzr
    500001bc:	940001e5 	bl	50000950 <bl31_plat_enable_mmu>
    500001c0:	94002963 	bl	5000a74c <psci_warmboot_entrypoint>
    500001c4:	14000346 	b	50000edc <el3_exit>
	...

0000000050000200 <tegra_secure_entrypoint>:
    50000200:	d2800020 	mov	x0, #0x1                   	// #1
    50000204:	d5101080 	msr	oslar_el1, x0
    50000208:	9400050f 	bl	50001644 <plat_get_my_entrypoint>
    5000020c:	d61f0000 	br	x0

0000000050000210 <ACI_get_ce_mask>:
    50000210:	d2c00020 	mov	x0, #0x100000000           	// #4294967296
    50000214:	d65f03c0 	ret

0000000050000218 <ACI_get_ue_mask>:
    50000218:	b25f43e0 	mov	x0, #0x3fffe00000000       	// #1125891316908032
    5000021c:	d65f03c0 	ret

0000000050000220 <CCPMU_get_ce_mask>:
    50000220:	d2800000 	mov	x0, #0x0                   	// #0
    50000224:	d65f03c0 	ret

0000000050000228 <CCPMU_get_ue_mask>:
    50000228:	d2c0ffe0 	mov	x0, #0x7ff00000000         	// #8791798054912
    5000022c:	d65f03c0 	ret

0000000050000230 <CMU_CLOCKS_get_ce_mask>:
    50000230:	d2800000 	mov	x0, #0x0                   	// #0
    50000234:	d65f03c0 	ret

0000000050000238 <CMU_CLOCKS_get_ue_mask>:
    50000238:	d2c07fe0 	mov	x0, #0x3ff00000000         	// #4393751543808
    5000023c:	d65f03c0 	ret

0000000050000240 <CORE_DCLS_get_ce_mask>:
    50000240:	d2800000 	mov	x0, #0x0                   	// #0
    50000244:	d65f03c0 	ret

0000000050000248 <CORE_DCLS_get_ue_mask>:
    50000248:	d2deffe0 	mov	x0, #0xf7ff00000000        	// #272674588721152
    5000024c:	f2e00020 	movk	x0, #0x1, lsl #48
    50000250:	d65f03c0 	ret

0000000050000254 <GIC600_FMU_get_ce_mask>:
    50000254:	d2800000 	mov	x0, #0x0                   	// #0
    50000258:	d65f03c0 	ret

000000005000025c <GIC600_FMU_get_ue_mask>:
    5000025c:	d2800000 	mov	x0, #0x0                   	// #0
    50000260:	d65f03c0 	ret

0000000050000264 <IH_get_ce_mask>:
    50000264:	d2800000 	mov	x0, #0x0                   	// #0
    50000268:	d65f03c0 	ret

000000005000026c <IH_get_ue_mask>:
    5000026c:	d2c001e0 	mov	x0, #0xf00000000           	// #64424509440
    50000270:	d65f03c0 	ret

0000000050000274 <IOB_get_ce_mask>:
    50000274:	d2c00020 	mov	x0, #0x100000000           	// #4294967296
    50000278:	d65f03c0 	ret

000000005000027c <IOB_get_ue_mask>:
    5000027c:	d2dfffc0 	mov	x0, #0xfffe00000000        	// #281466386776064
    50000280:	d65f03c0 	ret

0000000050000284 <IST_get_ce_mask>:
    50000284:	d2c03fe0 	mov	x0, #0x1ff00000000         	// #2194728288256
    50000288:	d65f03c0 	ret

000000005000028c <IST_get_ue_mask>:
    5000028c:	b25727e0 	mov	x0, #0x7fe0000000000       	// #2249600790429696
    50000290:	d65f03c0 	ret

0000000050000294 <SCC_get_ce_mask>:
    50000294:	d2e00200 	mov	x0, #0x10000000000000      	// #4503599627370496
    50000298:	d65f03c0 	ret

000000005000029c <SCC_get_ue_mask>:
    5000029c:	b2604fe0 	mov	x0, #0xfffff00000000       	// #4503595332403200
    500002a0:	d65f03c0 	ret

00000000500002a4 <SNOC_get_ce_mask>:
    500002a4:	d2c00060 	mov	x0, #0x300000000           	// #12884901888
    500002a8:	d65f03c0 	ret

00000000500002ac <SNOC_get_ue_mask>:
    500002ac:	d2dfff80 	mov	x0, #0xfffc00000000        	// #281457796841472
    500002b0:	d65f03c0 	ret

00000000500002b4 <__assert>:
    500002b4:	a9bf7bfd 	stp	x29, x30, [sp, #-16]!
    500002b8:	aa0203e3 	mov	x3, x2
    500002bc:	2a0103e2 	mov	w2, w1
    500002c0:	aa0003e1 	mov	x1, x0
    500002c4:	910003fd 	mov	x29, sp
    500002c8:	f00000a0 	adrp	x0, 50017000 <sdei_state_table+0xcf>
    500002cc:	912cc400 	add	x0, x0, #0xb31
    500002d0:	9400218c 	bl	50008900 <printf>
    500002d4:	94000a34 	bl	50002ba4 <console_flush>
    500002d8:	940004eb 	bl	50001684 <plat_panic_handler>

00000000500002dc <__stack_chk_fail>:
    500002dc:	a9bf7bfd 	stp	x29, x30, [sp, #-16]!
    500002e0:	910003fd 	mov	x29, sp
    500002e4:	94000a30 	bl	50002ba4 <console_flush>
    500002e8:	9400026b 	bl	50000c94 <do_panic>

00000000500002ec <ari_ccplex_cache_clean>:
    500002ec:	2a0003e4 	mov	w4, w0
    500002f0:	a9bf7bfd 	stp	x29, x30, [sp, #-16]!
    500002f4:	910003fd 	mov	x29, sp
    500002f8:	94000011 	bl	5000033c <ari_clobber_response>
    500002fc:	2a0403e0 	mov	w0, w4
    50000300:	a8c17bfd 	ldp	x29, x30, [sp], #16
    50000304:	52800003 	mov	w3, #0x0                   	// #0
    50000308:	52800002 	mov	w2, #0x0                   	// #0
    5000030c:	52800c21 	mov	w1, #0x61                  	// #97
    50000310:	14000096 	b	50000568 <ari_request_wait.constprop.0>

0000000050000314 <ari_ccplex_cache_clean_and_invalidate>:
    50000314:	2a0003e4 	mov	w4, w0
    50000318:	a9bf7bfd 	stp	x29, x30, [sp, #-16]!
    5000031c:	910003fd 	mov	x29, sp
    50000320:	94000007 	bl	5000033c <ari_clobber_response>
    50000324:	2a0403e0 	mov	w0, w4
    50000328:	a8c17bfd 	ldp	x29, x30, [sp], #16
    5000032c:	52800003 	mov	w3, #0x0                   	// #0
    50000330:	52800022 	mov	w2, #0x1                   	// #1
    50000334:	52800c21 	mov	w1, #0x61                  	// #97
    50000338:	1400008c 	b	50000568 <ari_request_wait.constprop.0>

000000005000033c <ari_clobber_response>:
    5000033c:	2a0003e0 	mov	w0, w0
    50000340:	b900281f 	str	wzr, [x0, #40]
    50000344:	b900301f 	str	wzr, [x0, #48]
    50000348:	d65f03c0 	ret

000000005000034c <ari_cluster_present_map>:
    5000034c:	a9be7bfd 	stp	x29, x30, [sp, #-32]!
    50000350:	529e01a2 	mov	w2, #0xf00d                	// #61453
    50000354:	72bbd5a2 	movk	w2, #0xdead, lsl #16
    50000358:	910003fd 	mov	x29, sp
    5000035c:	a90153f3 	stp	x19, x20, [sp, #16]
    50000360:	b00000d3 	adrp	x19, 50019000 <tegra234_ras_records_common+0x190>
    50000364:	b9435a61 	ldr	w1, [x19, #856]
    50000368:	6b02003f 	cmp	w1, w2
    5000036c:	54000161 	b.ne	50000398 <ari_cluster_present_map+0x4c>  // b.any
    50000370:	2a0003f4 	mov	w20, w0
    50000374:	52800003 	mov	w3, #0x0                   	// #0
    50000378:	52800002 	mov	w2, #0x0                   	// #0
    5000037c:	52800081 	mov	w1, #0x4                   	// #4
    50000380:	9400007a 	bl	50000568 <ari_request_wait.constprop.0>
    50000384:	35000120 	cbnz	w0, 500003a8 <ari_cluster_present_map+0x5c>
    50000388:	b9402a80 	ldr	w0, [x20, #40]
    5000038c:	12001400 	and	w0, w0, #0x3f
    50000390:	b9035a60 	str	w0, [x19, #856]
    50000394:	b9435a61 	ldr	w1, [x19, #856]
    50000398:	2a0103e0 	mov	w0, w1
    5000039c:	a94153f3 	ldp	x19, x20, [sp, #16]
    500003a0:	a8c27bfd 	ldp	x29, x30, [sp], #32
    500003a4:	d65f03c0 	ret
    500003a8:	b00000a1 	adrp	x1, 50015000 <__func__.3091+0x1d3>
    500003ac:	b00000a0 	adrp	x0, 50015000 <__func__.3091+0x1d3>
    500003b0:	9117bc21 	add	x1, x1, #0x5ef
    500003b4:	91159c00 	add	x0, x0, #0x567
    500003b8:	940039d4 	bl	5000eb08 <tf_log>
    500003bc:	17fffff6 	b	50000394 <ari_cluster_present_map+0x48>

00000000500003c0 <ari_enter_cstate>:
    500003c0:	2a0003e2 	mov	w2, w0
    500003c4:	a9bf7bfd 	stp	x29, x30, [sp, #-16]!
    500003c8:	910003fd 	mov	x29, sp
    500003cc:	97ffffdc 	bl	5000033c <ari_clobber_response>
    500003d0:	2a0203e0 	mov	w0, w2
    500003d4:	b9001801 	str	w1, [x0, #24]
    500003d8:	52800021 	mov	w1, #0x1                   	// #1
    500003dc:	b900201f 	str	wzr, [x0, #32]
    500003e0:	b9000801 	str	w1, [x0, #8]
    500003e4:	52802461 	mov	w1, #0x123                 	// #291
    500003e8:	b9000001 	str	w1, [x0]
    500003ec:	52800000 	mov	w0, #0x0                   	// #0
    500003f0:	a8c17bfd 	ldp	x29, x30, [sp], #16
    500003f4:	d65f03c0 	ret

00000000500003f8 <ari_get_version>:
    500003f8:	a9be7bfd 	stp	x29, x30, [sp, #-32]!
    500003fc:	910003fd 	mov	x29, sp
    50000400:	a90153f3 	stp	x19, x20, [sp, #16]
    50000404:	2a0003f3 	mov	w19, w0
    50000408:	97ffffcd 	bl	5000033c <ari_clobber_response>
    5000040c:	2a1303e0 	mov	w0, w19
    50000410:	52800003 	mov	w3, #0x0                   	// #0
    50000414:	52800002 	mov	w2, #0x0                   	// #0
    50000418:	52800001 	mov	w1, #0x0                   	// #0
    5000041c:	94000053 	bl	50000568 <ari_request_wait.constprop.0>
    50000420:	35000120 	cbnz	w0, 50000444 <ari_get_version+0x4c>
    50000424:	b9402a74 	ldr	w20, [x19, #40]
    50000428:	2a1403e0 	mov	w0, w20
    5000042c:	b9403274 	ldr	w20, [x19, #48]
    50000430:	aa148014 	orr	x20, x0, x20, lsl #32
    50000434:	aa1403e0 	mov	x0, x20
    50000438:	a94153f3 	ldp	x19, x20, [sp, #16]
    5000043c:	a8c27bfd 	ldp	x29, x30, [sp], #32
    50000440:	d65f03c0 	ret
    50000444:	2a0003f4 	mov	w20, w0
    50000448:	b00000a1 	adrp	x1, 50015000 <__func__.3091+0x1d3>
    5000044c:	b00000a0 	adrp	x0, 50015000 <__func__.3091+0x1d3>
    50000450:	91174421 	add	x1, x1, #0x5d1
    50000454:	91154000 	add	x0, x0, #0x550
    50000458:	940039ac 	bl	5000eb08 <tf_log>
    5000045c:	17fffff6 	b	50000434 <ari_get_version+0x3c>

0000000050000460 <ari_is_sc7_allowed>:
    50000460:	a9be7bfd 	stp	x29, x30, [sp, #-32]!
    50000464:	910003fd 	mov	x29, sp
    50000468:	f9000bf3 	str	x19, [sp, #16]
    5000046c:	2a0003f3 	mov	w19, w0
    50000470:	97ffffb3 	bl	5000033c <ari_clobber_response>
    50000474:	2a1303e0 	mov	w0, w19
    50000478:	52800003 	mov	w3, #0x0                   	// #0
    5000047c:	52800002 	mov	w2, #0x0                   	// #0
    50000480:	52800d21 	mov	w1, #0x69                  	// #105
    50000484:	94000039 	bl	50000568 <ari_request_wait.constprop.0>
    50000488:	34000160 	cbz	w0, 500004b4 <ari_is_sc7_allowed+0x54>
    5000048c:	2a0003e2 	mov	w2, w0
    50000490:	b00000a1 	adrp	x1, 50015000 <__func__.3091+0x1d3>
    50000494:	b00000a0 	adrp	x0, 50015000 <__func__.3091+0x1d3>
    50000498:	91181c21 	add	x1, x1, #0x607
    5000049c:	9115fc00 	add	x0, x0, #0x57f
    500004a0:	9400399a 	bl	5000eb08 <tf_log>
    500004a4:	52800000 	mov	w0, #0x0                   	// #0
    500004a8:	f9400bf3 	ldr	x19, [sp, #16]
    500004ac:	a8c27bfd 	ldp	x29, x30, [sp], #32
    500004b0:	d65f03c0 	ret
    500004b4:	b9402a60 	ldr	w0, [x19, #40]
    500004b8:	7100001f 	cmp	w0, #0x0
    500004bc:	1a9f07e0 	cset	w0, ne  // ne = any
    500004c0:	17fffffa 	b	500004a8 <ari_is_sc7_allowed+0x48>

00000000500004c4 <ari_num_cores>:
    500004c4:	a9be7bfd 	stp	x29, x30, [sp, #-32]!
    500004c8:	910003fd 	mov	x29, sp
    500004cc:	a90153f3 	stp	x19, x20, [sp, #16]
    500004d0:	2a0003f3 	mov	w19, w0
    500004d4:	97ffff9a 	bl	5000033c <ari_clobber_response>
    500004d8:	2a1303e0 	mov	w0, w19
    500004dc:	52800003 	mov	w3, #0x0                   	// #0
    500004e0:	52800002 	mov	w2, #0x0                   	// #0
    500004e4:	52800041 	mov	w1, #0x2                   	// #2
    500004e8:	94000020 	bl	50000568 <ari_request_wait.constprop.0>
    500004ec:	350000c0 	cbnz	w0, 50000504 <ari_num_cores+0x40>
    500004f0:	b9402a74 	ldr	w20, [x19, #40]
    500004f4:	12003e80 	and	w0, w20, #0xffff
    500004f8:	a94153f3 	ldp	x19, x20, [sp, #16]
    500004fc:	a8c27bfd 	ldp	x29, x30, [sp], #32
    50000500:	d65f03c0 	ret
    50000504:	2a0003f4 	mov	w20, w0
    50000508:	b00000a1 	adrp	x1, 50015000 <__func__.3091+0x1d3>
    5000050c:	b00000a0 	adrp	x0, 50015000 <__func__.3091+0x1d3>
    50000510:	91178421 	add	x1, x1, #0x5e1
    50000514:	91154000 	add	x0, x0, #0x550
    50000518:	9400397c 	bl	5000eb08 <tf_log>
    5000051c:	17fffff6 	b	500004f4 <ari_num_cores+0x30>

0000000050000520 <ari_online_core>:
    50000520:	a9bf7bfd 	stp	x29, x30, [sp, #-16]!
    50000524:	71002c3f 	cmp	w1, #0xb
    50000528:	910003fd 	mov	x29, sp
    5000052c:	540000e9 	b.ls	50000548 <ari_online_core+0x28>  // b.plast
    50000530:	b00000a2 	adrp	x2, 50015000 <__func__.3091+0x1d3>
    50000534:	b00000a0 	adrp	x0, 50015000 <__func__.3091+0x1d3>
    50000538:	91164442 	add	x2, x2, #0x591
    5000053c:	91148c00 	add	x0, x0, #0x523
    50000540:	528040a1 	mov	w1, #0x205                 	// #517
    50000544:	97ffff5c 	bl	500002b4 <__assert>
    50000548:	2a0003e4 	mov	w4, w0
    5000054c:	2a0103e2 	mov	w2, w1
    50000550:	97ffff7b 	bl	5000033c <ari_clobber_response>
    50000554:	2a0403e0 	mov	w0, w4
    50000558:	a8c17bfd 	ldp	x29, x30, [sp], #16
    5000055c:	52800003 	mov	w3, #0x0                   	// #0
    50000560:	52800441 	mov	w1, #0x22                  	// #34
    50000564:	14000001 	b	50000568 <ari_request_wait.constprop.0>

0000000050000568 <ari_request_wait.constprop.0>:
    50000568:	a9bd7bfd 	stp	x29, x30, [sp, #-48]!
    5000056c:	910003fd 	mov	x29, sp
    50000570:	a90153f3 	stp	x19, x20, [sp, #16]
    50000574:	2a0003f3 	mov	w19, w0
    50000578:	2a0103f4 	mov	w20, w1
    5000057c:	a9025bf5 	stp	x21, x22, [sp, #32]
    50000580:	52909016 	mov	w22, #0x8480                	// #33920
    50000584:	32180020 	orr	w0, w1, #0x100
    50000588:	b9002a7f 	str	wzr, [x19, #40]
    5000058c:	72a003d6 	movk	w22, #0x1e, lsl #16
    50000590:	b900327f 	str	wzr, [x19, #48]
    50000594:	b9001a62 	str	w2, [x19, #24]
    50000598:	b9002263 	str	w3, [x19, #32]
    5000059c:	b9000a7f 	str	wzr, [x19, #8]
    500005a0:	b9000260 	str	w0, [x19]
    500005a4:	b9401260 	ldr	w0, [x19, #16]
    500005a8:	72001c15 	ands	w21, w0, #0xff
    500005ac:	54000100 	b.eq	500005cc <ari_request_wait.constprop.0+0x64>  // b.none
    500005b0:	721e141f 	tst	w0, #0xfc
    500005b4:	54000160 	b.eq	500005e0 <ari_request_wait.constprop.0+0x78>  // b.none
    500005b8:	d3421c15 	ubfx	x21, x0, #2, #6
    500005bc:	b00000a0 	adrp	x0, 50015000 <__func__.3091+0x1d3>
    500005c0:	2a1503e1 	mov	w1, w21
    500005c4:	91135c00 	add	x0, x0, #0x4d7
    500005c8:	94003950 	bl	5000eb08 <tf_log>
    500005cc:	2a1503e0 	mov	w0, w21
    500005d0:	a94153f3 	ldp	x19, x20, [sp, #16]
    500005d4:	a9425bf5 	ldp	x21, x22, [sp, #32]
    500005d8:	a8c37bfd 	ldp	x29, x30, [sp], #48
    500005dc:	d65f03c0 	ret
    500005e0:	52800020 	mov	w0, #0x1                   	// #1
    500005e4:	9400399e 	bl	5000ec5c <udelay>
    500005e8:	710006d6 	subs	w22, w22, #0x1
    500005ec:	54fffdc1 	b.ne	500005a4 <ari_request_wait.constprop.0+0x3c>  // b.any
    500005f0:	2a1403e1 	mov	w1, w20
    500005f4:	b00000a0 	adrp	x0, 50015000 <__func__.3091+0x1d3>
    500005f8:	9113d400 	add	x0, x0, #0x4f5
    500005fc:	94003943 	bl	5000eb08 <tf_log>
    50000600:	b00000a2 	adrp	x2, 50015000 <__func__.3091+0x1d3>
    50000604:	b00000a0 	adrp	x0, 50015000 <__func__.3091+0x1d3>
    50000608:	91145442 	add	x2, x2, #0x515
    5000060c:	91148c00 	add	x0, x0, #0x523
    50000610:	52801341 	mov	w1, #0x9a                  	// #154
    50000614:	97ffff28 	bl	500002b4 <__assert>

0000000050000618 <ari_system_reboot>:
    50000618:	2a0003e1 	mov	w1, w0
    5000061c:	a9bf7bfd 	stp	x29, x30, [sp, #-16]!
    50000620:	910003fd 	mov	x29, sp
    50000624:	97ffff46 	bl	5000033c <ari_clobber_response>
    50000628:	2a0103e0 	mov	w0, w1
    5000062c:	52800021 	mov	w1, #0x1                   	// #1
    50000630:	b9001801 	str	w1, [x0, #24]
    50000634:	52802cc1 	mov	w1, #0x166                 	// #358
    50000638:	b900201f 	str	wzr, [x0, #32]
    5000063c:	b900081f 	str	wzr, [x0, #8]
    50000640:	b9000001 	str	w1, [x0]
    50000644:	a8c17bfd 	ldp	x29, x30, [sp], #16
    50000648:	d65f03c0 	ret

000000005000064c <ari_system_shutdown>:
    5000064c:	2a0003e1 	mov	w1, w0
    50000650:	a9bf7bfd 	stp	x29, x30, [sp, #-16]!
    50000654:	910003fd 	mov	x29, sp
    50000658:	97ffff39 	bl	5000033c <ari_clobber_response>
    5000065c:	2a0103e0 	mov	w0, w1
    50000660:	52802cc1 	mov	w1, #0x166                 	// #358
    50000664:	b900181f 	str	wzr, [x0, #24]
    50000668:	b900201f 	str	wzr, [x0, #32]
    5000066c:	b900081f 	str	wzr, [x0, #8]
    50000670:	b9000001 	str	w1, [x0]
    50000674:	a8c17bfd 	ldp	x29, x30, [sp], #16
    50000678:	d65f03c0 	ret

000000005000067c <ari_update_ccplex_gsc>:
    5000067c:	7140803f 	cmp	w1, #0x20, lsl #12
    50000680:	54000161 	b.ne	500006ac <ari_update_ccplex_gsc+0x30>  // b.any
    50000684:	2a0003e4 	mov	w4, w0
    50000688:	2a0103e2 	mov	w2, w1
    5000068c:	a9bf7bfd 	stp	x29, x30, [sp, #-16]!
    50000690:	910003fd 	mov	x29, sp
    50000694:	97ffff2a 	bl	5000033c <ari_clobber_response>
    50000698:	2a0403e0 	mov	w0, w4
    5000069c:	a8c17bfd 	ldp	x29, x30, [sp], #16
    500006a0:	52800003 	mov	w3, #0x0                   	// #0
    500006a4:	52800da1 	mov	w1, #0x6d                  	// #109
    500006a8:	17ffffb0 	b	50000568 <ari_request_wait.constprop.0>
    500006ac:	128002a0 	mov	w0, #0xffffffea            	// #-22
    500006b0:	d65f03c0 	ret

00000000500006b4 <ari_update_cstate_info>:
    500006b4:	a9bf7bfd 	stp	x29, x30, [sp, #-16]!
    500006b8:	2a0003e5 	mov	w5, w0
    500006bc:	12001c84 	and	w4, w4, #0xff
    500006c0:	910003fd 	mov	x29, sp
    500006c4:	34000061 	cbz	w1, 500006d0 <ari_update_cstate_info+0x1c>
    500006c8:	12000821 	and	w1, w1, #0x7
    500006cc:	32190021 	orr	w1, w1, #0x80
    500006d0:	34000082 	cbz	w2, 500006e0 <ari_update_cstate_info+0x2c>
    500006d4:	53100c42 	ubfiz	w2, w2, #16, #4
    500006d8:	2a010041 	orr	w1, w2, w1
    500006dc:	32090021 	orr	w1, w1, #0x800000
    500006e0:	34000044 	cbz	w4, 500006e8 <ari_update_cstate_info+0x34>
    500006e4:	32010021 	orr	w1, w1, #0x80000000
    500006e8:	2a0503e0 	mov	w0, w5
    500006ec:	97ffff14 	bl	5000033c <ari_clobber_response>
    500006f0:	a8c17bfd 	ldp	x29, x30, [sp], #16
    500006f4:	2a0103e2 	mov	w2, w1
    500006f8:	2a0503e0 	mov	w0, w5
    500006fc:	52800d01 	mov	w1, #0x68                  	// #104
    50000700:	17ffff9a 	b	50000568 <ari_request_wait.constprop.0>

0000000050000704 <arm_arch_svc_smc_handler>:
    50000704:	a9be7bfd 	stp	x29, x30, [sp, #-32]!
    50000708:	32013fe2 	mov	w2, #0x80007fff            	// #-2147450881
    5000070c:	6b02001f 	cmp	w0, w2
    50000710:	910003fd 	mov	x29, sp
    50000714:	f9000bf3 	str	x19, [sp, #16]
    50000718:	aa0603f3 	mov	x19, x6
    5000071c:	54000280 	b.eq	5000076c <arm_arch_svc_smc_handler+0x68>  // b.none
    50000720:	540002e8 	b.hi	5000077c <arm_arch_svc_smc_handler+0x78>  // b.pmore
    50000724:	52800042 	mov	w2, #0x2                   	// #2
    50000728:	72b00002 	movk	w2, #0x8000, lsl #16
    5000072c:	6b02001f 	cmp	w0, w2
    50000730:	540009a0 	b.eq	50000864 <arm_arch_svc_smc_handler+0x160>  // b.none
    50000734:	32010be2 	mov	w2, #0x80000003            	// #-2147483645
    50000738:	6b02001f 	cmp	w0, w2
    5000073c:	54000122 	b.cs	50000760 <arm_arch_svc_smc_handler+0x5c>  // b.hs, b.nlast
    50000740:	52b00002 	mov	w2, #0x80000000            	// #-2147483648
    50000744:	6b02001f 	cmp	w0, w2
    50000748:	54000340 	b.eq	500007b0 <arm_arch_svc_smc_handler+0xac>  // b.none
    5000074c:	320107e2 	mov	w2, #0x80000001            	// #-2147483647
    50000750:	6b02001f 	cmp	w0, w2
    50000754:	54000360 	b.eq	500007c0 <arm_arch_svc_smc_handler+0xbc>  // b.none
    50000758:	92800000 	mov	x0, #0xffffffffffffffff    	// #-1
    5000075c:	14000017 	b	500007b8 <arm_arch_svc_smc_handler+0xb4>
    50000760:	32013be1 	mov	w1, #0x80003fff            	// #-2147467265
    50000764:	6b01001f 	cmp	w0, w1
    50000768:	54ffff81 	b.ne	50000758 <arm_arch_svc_smc_handler+0x54>  // b.any
    5000076c:	aa1303e0 	mov	x0, x19
    50000770:	f9400bf3 	ldr	x19, [sp, #16]
    50000774:	a8c27bfd 	ldp	x29, x30, [sp], #32
    50000778:	d65f03c0 	ret
    5000077c:	529fe021 	mov	w1, #0xff01                	// #65281
    50000780:	72b00001 	movk	w1, #0x8000, lsl #16
    50000784:	6b01001f 	cmp	w0, w1
    50000788:	54000800 	b.eq	50000888 <arm_arch_svc_smc_handler+0x184>  // b.none
    5000078c:	11000821 	add	w1, w1, #0x2
    50000790:	6b01001f 	cmp	w0, w1
    50000794:	54000920 	b.eq	500008b8 <arm_arch_svc_smc_handler+0x1b4>  // b.none
    50000798:	529fe001 	mov	w1, #0xff00                	// #65280
    5000079c:	72b00001 	movk	w1, #0x8000, lsl #16
    500007a0:	6b01001f 	cmp	w0, w1
    500007a4:	54fffda1 	b.ne	50000758 <arm_arch_svc_smc_handler+0x54>  // b.any
    500007a8:	d28000e0 	mov	x0, #0x7                   	// #7
    500007ac:	14000003 	b	500007b8 <arm_arch_svc_smc_handler+0xb4>
    500007b0:	d2800040 	mov	x0, #0x2                   	// #2
    500007b4:	f2a00020 	movk	x0, #0x1, lsl #16
    500007b8:	f9000260 	str	x0, [x19]
    500007bc:	17ffffec 	b	5000076c <arm_arch_svc_smc_handler+0x68>
    500007c0:	32013be0 	mov	w0, #0x80003fff            	// #-2147467265
    500007c4:	eb00003f 	cmp	x1, x0
    500007c8:	540003c0 	b.eq	50000840 <arm_arch_svc_smc_handler+0x13c>  // b.none
    500007cc:	540001e8 	b.hi	50000808 <arm_arch_svc_smc_handler+0x104>  // b.pmore
    500007d0:	320107e0 	mov	w0, #0x80000001            	// #-2147483647
    500007d4:	eb00003f 	cmp	x1, x0
    500007d8:	540000c8 	b.hi	500007f0 <arm_arch_svc_smc_handler+0xec>  // b.pmore
    500007dc:	b2407be0 	mov	x0, #0x7fffffff            	// #2147483647
    500007e0:	eb00003f 	cmp	x1, x0
    500007e4:	5a9f83e0 	csetm	w0, ls  // ls = plast
    500007e8:	93407c00 	sxtw	x0, w0
    500007ec:	17fffff3 	b	500007b8 <arm_arch_svc_smc_handler+0xb4>
    500007f0:	d2800040 	mov	x0, #0x2                   	// #2
    500007f4:	f2b00000 	movk	x0, #0x8000, lsl #16
    500007f8:	eb00003f 	cmp	x1, x0
    500007fc:	540001a0 	b.eq	50000830 <arm_arch_svc_smc_handler+0x12c>  // b.none
    50000800:	12800000 	mov	w0, #0xffffffff            	// #-1
    50000804:	17fffff9 	b	500007e8 <arm_arch_svc_smc_handler+0xe4>
    50000808:	32013fe0 	mov	w0, #0x80007fff            	// #-2147450881
    5000080c:	eb00003f 	cmp	x1, x0
    50000810:	54ffff81 	b.ne	50000800 <arm_arch_svc_smc_handler+0xfc>  // b.any
    50000814:	d5380420 	mrs	x0, id_aa64pfr1_el1
    50000818:	f27c0c1f 	tst	x0, #0xf0
    5000081c:	540001c1 	b.ne	50000854 <arm_arch_svc_smc_handler+0x150>  // b.any
    50000820:	940004ad 	bl	50001ad4 <wa_cve_2018_3639_get_disable_ptr>
    50000824:	f100001f 	cmp	x0, #0x0
    50000828:	1a9f17e0 	cset	w0, eq  // eq = none
    5000082c:	17ffffef 	b	500007e8 <arm_arch_svc_smc_handler+0xe4>
    50000830:	d2800040 	mov	x0, #0x2                   	// #2
    50000834:	f2b00000 	movk	x0, #0x8000, lsl #16
    50000838:	94001f3d 	bl	5000852c <plat_is_smccc_feature_available>
    5000083c:	17ffffeb 	b	500007e8 <arm_arch_svc_smc_handler+0xe4>
    50000840:	9400004d 	bl	50000974 <check_smccc_arch_wa3_applies>
    50000844:	350000c0 	cbnz	w0, 5000085c <arm_arch_svc_smc_handler+0x158>
    50000848:	9400005d 	bl	500009bc <check_wa_cve_2017_5715>
    5000084c:	7100001f 	cmp	w0, #0x0
    50000850:	17fffff6 	b	50000828 <arm_arch_svc_smc_handler+0x124>
    50000854:	52800020 	mov	w0, #0x1                   	// #1
    50000858:	17ffffe4 	b	500007e8 <arm_arch_svc_smc_handler+0xe4>
    5000085c:	52800000 	mov	w0, #0x0                   	// #0
    50000860:	17ffffe2 	b	500007e8 <arm_arch_svc_smc_handler+0xe4>
    50000864:	f100043f 	cmp	x1, #0x1
    50000868:	54000061 	b.ne	50000874 <arm_arch_svc_smc_handler+0x170>  // b.any
    5000086c:	94001dbf 	bl	50007f68 <plat_get_soc_revision>
    50000870:	17ffffde 	b	500007e8 <arm_arch_svc_smc_handler+0xe4>
    50000874:	b5000061 	cbnz	x1, 50000880 <arm_arch_svc_smc_handler+0x17c>
    50000878:	94001dc5 	bl	50007f8c <plat_get_soc_version>
    5000087c:	17ffffdb 	b	500007e8 <arm_arch_svc_smc_handler+0xe4>
    50000880:	12800040 	mov	w0, #0xfffffffd            	// #-3
    50000884:	17ffffd9 	b	500007e8 <arm_arch_svc_smc_handler+0xe4>
    50000888:	d2909260 	mov	x0, #0x8493                	// #33939
    5000088c:	f2bb2ec0 	movk	x0, #0xd976, lsl #16
    50000890:	f9000cc0 	str	x0, [x6, #24]
    50000894:	d283b380 	mov	x0, #0x1d9c                	// #7580
    50000898:	f2bed0e0 	movk	x0, #0xf687, lsl #16
    5000089c:	f90008c0 	str	x0, [x6, #16]
    500008a0:	d287be00 	mov	x0, #0x3df0                	// #15856
    500008a4:	f2b1a840 	movk	x0, #0x8d42, lsl #16
    500008a8:	f90004c0 	str	x0, [x6, #8]
    500008ac:	d29c16e0 	mov	x0, #0xe0b7                	// #57527
    500008b0:	f2a9bc40 	movk	x0, #0x4de2, lsl #16
    500008b4:	17ffffc1 	b	500007b8 <arm_arch_svc_smc_handler+0xb4>
    500008b8:	d2800020 	mov	x0, #0x1                   	// #1
    500008bc:	a90000df 	stp	xzr, x0, [x6]
    500008c0:	17ffffab 	b	5000076c <arm_arch_svc_smc_handler+0x68>

00000000500008c4 <arm_gicv3_distif_post_restore>:
    500008c4:	d65f03c0 	ret

00000000500008c8 <arm_gicv3_distif_pre_save>:
    500008c8:	d65f03c0 	ret

00000000500008cc <_cpu_data_by_index>:
    500008cc:	d2801001 	mov	x1, #0x80                  	// #128
    500008d0:	9b017c00 	mul	x0, x0, x1
    500008d4:	900000e1 	adrp	x1, 5001c000 <__STACKS_START__+0x2c80>
    500008d8:	910e0021 	add	x1, x1, #0x380
    500008dc:	8b010000 	add	x0, x0, x1
    500008e0:	d65f03c0 	ret

00000000500008e4 <asm_assert>:
    500008e4:	94000368 	bl	50001684 <plat_panic_handler>

00000000500008e8 <asm_print_hex>:
    500008e8:	d2800805 	mov	x5, #0x40                  	// #64

00000000500008ec <asm_print_hex_bits>:
    500008ec:	aa1e03e3 	mov	x3, x30
    500008f0:	d10010a5 	sub	x5, x5, #0x4
    500008f4:	9ac52480 	lsr	x0, x4, x5
    500008f8:	92400c00 	and	x0, x0, #0xf
    500008fc:	f100281f 	cmp	x0, #0xa
    50000900:	54000043 	b.cc	50000908 <asm_print_hex_bits+0x1c>  // b.lo, b.ul, b.last
    50000904:	91009c00 	add	x0, x0, #0x27
    50000908:	9100c000 	add	x0, x0, #0x30
    5000090c:	9400032d 	bl	500015c0 <plat_crash_console_putc>
    50000910:	b5ffff05 	cbnz	x5, 500008f0 <asm_print_hex_bits+0x4>
    50000914:	d65f0060 	ret	x3

0000000050000918 <asm_print_newline>:
    50000918:	d2800140 	mov	x0, #0xa                   	// #10
    5000091c:	14000329 	b	500015c0 <plat_crash_console_putc>

0000000050000920 <asm_print_str>:
    50000920:	aa1e03e3 	mov	x3, x30
    50000924:	38401480 	ldrb	w0, [x4], #1
    50000928:	b4000060 	cbz	x0, 50000934 <asm_print_str+0x14>
    5000092c:	94000325 	bl	500015c0 <plat_crash_console_putc>
    50000930:	17fffffd 	b	50000924 <asm_print_str+0x4>
    50000934:	d65f0060 	ret	x3

0000000050000938 <begin_sdei_synchronous_dispatch>:
    50000938:	a9bf7ffe 	stp	x30, xzr, [sp, #-16]!
    5000093c:	94000411 	bl	50001980 <setjmp>
    50000940:	b4000060 	cbz	x0, 5000094c <begin_sdei_synchronous_dispatch+0x14>
    50000944:	a8c17ffe 	ldp	x30, xzr, [sp], #16
    50000948:	d65f03c0 	ret
    5000094c:	14000164 	b	50000edc <el3_exit>

0000000050000950 <bl31_plat_enable_mmu>:
    50000950:	1400021f 	b	500011cc <enable_mmu_direct_el3>

0000000050000954 <check_errata_2466780>:
    50000954:	d2800001 	mov	x1, #0x0                   	// #0
    50000958:	d2800042 	mov	x2, #0x2                   	// #2
    5000095c:	140000ab 	b	50000c08 <cpu_rev_var_range>

0000000050000960 <check_errata_2743093>:
    50000960:	d2800041 	mov	x1, #0x2                   	// #2
    50000964:	140000a4 	b	50000bf4 <cpu_rev_var_ls>

0000000050000968 <check_errata_2743229>:
    50000968:	d2800001 	mov	x1, #0x0                   	// #0
    5000096c:	d2800042 	mov	x2, #0x2                   	// #2
    50000970:	140000a6 	b	50000c08 <cpu_rev_var_range>

0000000050000974 <check_smccc_arch_wa3_applies>:
    50000974:	d53ed040 	mrs	x0, tpidr_el3
    50000978:	f100001f 	cmp	x0, #0x0
    5000097c:	54000081 	b.ne	5000098c <check_smccc_arch_wa3_applies+0x18>  // b.any
    50000980:	300b8760 	adr	x0, 50017a6d <cortex_a78_ae_regs+0xe>
    50000984:	d28036c1 	mov	x1, #0x1b6                 	// #438
    50000988:	17ffffd7 	b	500008e4 <asm_assert>
    5000098c:	f9400800 	ldr	x0, [x0, #16]
    50000990:	f100001f 	cmp	x0, #0x0
    50000994:	54000081 	b.ne	500009a4 <check_smccc_arch_wa3_applies+0x30>  // b.any
    50000998:	300b86a0 	adr	x0, 50017a6d <cortex_a78_ae_regs+0xe>
    5000099c:	d2803761 	mov	x1, #0x1bb                 	// #443
    500009a0:	17ffffd1 	b	500008e4 <asm_assert>
    500009a4:	f9401000 	ldr	x0, [x0, #32]
    500009a8:	f100001f 	cmp	x0, #0x0
    500009ac:	54000040 	b.eq	500009b4 <check_smccc_arch_wa3_applies+0x40>  // b.none
    500009b0:	d61f0000 	br	x0
    500009b4:	d2800000 	mov	x0, #0x0                   	// #0
    500009b8:	d65f03c0 	ret

00000000500009bc <check_wa_cve_2017_5715>:
    500009bc:	d53ed040 	mrs	x0, tpidr_el3
    500009c0:	f100001f 	cmp	x0, #0x0
    500009c4:	54000081 	b.ne	500009d4 <check_wa_cve_2017_5715+0x18>  // b.any
    500009c8:	300b8520 	adr	x0, 50017a6d <cortex_a78_ae_regs+0xe>
    500009cc:	d2802e81 	mov	x1, #0x174                 	// #372
    500009d0:	17ffffc5 	b	500008e4 <asm_assert>
    500009d4:	f9400800 	ldr	x0, [x0, #16]
    500009d8:	f100001f 	cmp	x0, #0x0
    500009dc:	54000081 	b.ne	500009ec <check_wa_cve_2017_5715+0x30>  // b.any
    500009e0:	300b8460 	adr	x0, 50017a6d <cortex_a78_ae_regs+0xe>
    500009e4:	d2802f21 	mov	x1, #0x179                 	// #377
    500009e8:	17ffffbf 	b	500008e4 <asm_assert>
    500009ec:	f9400800 	ldr	x0, [x0, #16]
    500009f0:	f100001f 	cmp	x0, #0x0
    500009f4:	54000040 	b.eq	500009fc <check_wa_cve_2017_5715+0x40>  // b.none
    500009f8:	d61f0000 	br	x0
    500009fc:	d2800000 	mov	x0, #0x0                   	// #0
    50000a00:	d65f03c0 	ret

0000000050000a04 <clean_dcache_range>:
    50000a04:	b40001a1 	cbz	x1, 50000a38 <exit_loop_cvac>
    50000a08:	d53b0023 	mrs	x3, ctr_el0
    50000a0c:	d3504c63 	ubfx	x3, x3, #16, #4
    50000a10:	d2800082 	mov	x2, #0x4                   	// #4
    50000a14:	9ac32042 	lsl	x2, x2, x3
    50000a18:	8b010001 	add	x1, x0, x1
    50000a1c:	d1000443 	sub	x3, x2, #0x1
    50000a20:	8a230000 	bic	x0, x0, x3

0000000050000a24 <loop_cvac>:
    50000a24:	d50b7a20 	dc	cvac, x0
    50000a28:	8b020000 	add	x0, x0, x2
    50000a2c:	eb01001f 	cmp	x0, x1
    50000a30:	54ffffa3 	b.cc	50000a24 <loop_cvac>  // b.lo, b.ul, b.last
    50000a34:	d5033f9f 	dsb	sy

0000000050000a38 <exit_loop_cvac>:
    50000a38:	d65f03c0 	ret

0000000050000a3c <console_spe_core_flush>:
    50000a3c:	f100001f 	cmp	x0, #0x0
    50000a40:	54000081 	b.ne	50000a50 <console_spe_core_flush+0x14>  // b.any
    50000a44:	500b8340 	adr	x0, 50017aae <cortex_a78_ae_regs+0x4f>
    50000a48:	d2801661 	mov	x1, #0xb3                  	// #179
    50000a4c:	17ffffa6 	b	500008e4 <asm_assert>
    50000a50:	52b08001 	mov	w1, #0x84000000            	// #-2080374784
    50000a54:	b9000001 	str	w1, [x0]
    50000a58:	d65f03c0 	ret

0000000050000a5c <console_spe_core_putc>:
    50000a5c:	100c3ba2 	adr	x2, 500191d0 <spe_console_stack>
    50000a60:	f9000043 	str	x3, [x2]
    50000a64:	b4000461 	cbz	x1, 50000af0 <putc_error>
    50000a68:	7100281f 	cmp	w0, #0xa
    50000a6c:	540001e1 	b.ne	50000aa8 <not_eol>  // b.any
    50000a70:	d53fe203 	mrs	x3, cntps_tval_el1
    50000a74:	f9400022 	ldr	x2, [x1]
    50000a78:	92610042 	and	x2, x2, #0x80000000
    50000a7c:	b40000c2 	cbz	x2, 50000a94 <console_spe_core_putc+0x38>
    50000a80:	d53fe202 	mrs	x2, cntps_tval_el1
    50000a84:	cb020062 	sub	x2, x3, x2
    50000a88:	f140305f 	cmp	x2, #0xc, lsl #12
    50000a8c:	54ffff4b 	b.lt	50000a74 <console_spe_core_putc+0x18>  // b.tstop
    50000a90:	14000018 	b	50000af0 <putc_error>
    50000a94:	528001a2 	mov	w2, #0xd                   	// #13
    50000a98:	12001c42 	and	w2, w2, #0xff
    50000a9c:	52b02003 	mov	w3, #0x81000000            	// #-2130706432
    50000aa0:	2a030042 	orr	w2, w2, w3
    50000aa4:	b9000022 	str	w2, [x1]

0000000050000aa8 <not_eol>:
    50000aa8:	d53fe203 	mrs	x3, cntps_tval_el1
    50000aac:	f9400022 	ldr	x2, [x1]
    50000ab0:	92610042 	and	x2, x2, #0x80000000
    50000ab4:	b40000c2 	cbz	x2, 50000acc <not_eol+0x24>
    50000ab8:	d53fe202 	mrs	x2, cntps_tval_el1
    50000abc:	cb020062 	sub	x2, x3, x2
    50000ac0:	f140305f 	cmp	x2, #0xc, lsl #12
    50000ac4:	54ffff4b 	b.lt	50000aac <not_eol+0x4>  // b.tstop
    50000ac8:	1400000a 	b	50000af0 <putc_error>
    50000acc:	2a0003e2 	mov	w2, w0
    50000ad0:	12001c42 	and	w2, w2, #0xff
    50000ad4:	52b02003 	mov	w3, #0x81000000            	// #-2130706432
    50000ad8:	2a030042 	orr	w2, w2, w3
    50000adc:	b9000022 	str	w2, [x1]
    50000ae0:	100c3782 	adr	x2, 500191d0 <spe_console_stack>
    50000ae4:	f9400043 	ldr	x3, [x2]
    50000ae8:	d2800002 	mov	x2, #0x0                   	// #0
    50000aec:	d65f03c0 	ret

0000000050000af0 <putc_error>:
    50000af0:	12800000 	mov	w0, #0xffffffff            	// #-1
    50000af4:	100c36e2 	adr	x2, 500191d0 <spe_console_stack>
    50000af8:	f9400043 	ldr	x3, [x2]
    50000afc:	d2800002 	mov	x2, #0x0                   	// #0
    50000b00:	d65f03c0 	ret

0000000050000b04 <console_spe_flush>:
    50000b04:	f9401400 	ldr	x0, [x0, #40]
    50000b08:	17ffffcd 	b	50000a3c <console_spe_core_flush>

0000000050000b0c <console_spe_getc>:
    50000b0c:	12800000 	mov	w0, #0xffffffff            	// #-1
    50000b10:	d65f03c0 	ret

0000000050000b14 <console_spe_putc>:
    50000b14:	f9401421 	ldr	x1, [x1, #40]
    50000b18:	17ffffd1 	b	50000a5c <console_spe_core_putc>

0000000050000b1c <console_spe_register>:
    50000b1c:	b4000320 	cbz	x0, 50000b80 <register_fail>
    50000b20:	d53fe202 	mrs	x2, cntps_tval_el1
    50000b24:	f9400001 	ldr	x1, [x0]
    50000b28:	92610021 	and	x1, x1, #0x80000000
    50000b2c:	b40000c1 	cbz	x1, 50000b44 <console_spe_register+0x28>
    50000b30:	d53fe201 	mrs	x1, cntps_tval_el1
    50000b34:	cb010041 	sub	x1, x2, x1
    50000b38:	f140303f 	cmp	x1, #0xc, lsl #12
    50000b3c:	54ffff4b 	b.lt	50000b24 <console_spe_register+0x8>  // b.tstop
    50000b40:	14000010 	b	50000b80 <register_fail>
    50000b44:	b40001e3 	cbz	x3, 50000b80 <register_fail>
    50000b48:	f9001460 	str	x0, [x3, #40]
    50000b4c:	aa0303e0 	mov	x0, x3
    50000b50:	90000001 	adrp	x1, 50000000 <bl31_entrypoint>
    50000b54:	912c5021 	add	x1, x1, #0xb14
    50000b58:	f9000801 	str	x1, [x0, #16]
    50000b5c:	90000001 	adrp	x1, 50000000 <bl31_entrypoint>
    50000b60:	912c3021 	add	x1, x1, #0xb0c
    50000b64:	f9000c01 	str	x1, [x0, #24]
    50000b68:	90000001 	adrp	x1, 50000000 <bl31_entrypoint>
    50000b6c:	912c1021 	add	x1, x1, #0xb04
    50000b70:	f9001001 	str	x1, [x0, #32]
    50000b74:	d28000a1 	mov	x1, #0x5                   	// #5
    50000b78:	f9000401 	str	x1, [x0, #8]
    50000b7c:	1400085a 	b	50002ce4 <console_register>

0000000050000b80 <register_fail>:
    50000b80:	2a1f03e0 	mov	w0, wzr
    50000b84:	d65f03c0 	ret

0000000050000b88 <cortex_a78_ae_core_pwr_dwn>:
    50000b88:	d538f2e0 	mrs	x0, s3_0_c15_c2_7
    50000b8c:	b2400000 	orr	x0, x0, #0x1
    50000b90:	d518f2e0 	msr	s3_0_c15_c2_7, x0
    50000b94:	aa1e03ef 	mov	x15, x30
    50000b98:	94000013 	bl	50000be4 <cpu_get_rev_var>
    50000b9c:	940001de 	bl	50001314 <errata_a78_ae_2743093_wa>
    50000ba0:	aa0f03fe 	mov	x30, x15
    50000ba4:	d5033fdf 	isb
    50000ba8:	d65f03c0 	ret

0000000050000bac <cortex_a78_ae_cpu_reg_dump>:
    50000bac:	700b7586 	adr	x6, 50017a5f <cortex_a78_ae_regs>
    50000bb0:	d538f188 	mrs	x8, s3_0_c15_c1_4
    50000bb4:	d65f03c0 	ret

0000000050000bb8 <cortex_a78_ae_reset_func>:
    50000bb8:	aa1e03f3 	mov	x19, x30
    50000bbc:	9400000a 	bl	50000be4 <cpu_get_rev_var>
    50000bc0:	aa0003f2 	mov	x18, x0
    50000bc4:	aa1203e0 	mov	x0, x18
    50000bc8:	940001c2 	bl	500012d0 <errata_a78_ae_2466780_wa>
    50000bcc:	aa1203e0 	mov	x0, x18
    50000bd0:	940001d6 	bl	50001328 <errata_a78_ae_2743229>
    50000bd4:	10082160 	adr	x0, 50011000 <bhb_sync_exception_sp_el0_cortex_a78_ae>
    50000bd8:	d51ec000 	msr	vbar_el3, x0
    50000bdc:	d5033fdf 	isb
    50000be0:	d65f0260 	ret	x19

0000000050000be4 <cpu_get_rev_var>:
    50000be4:	d5380001 	mrs	x1, midr_el1
    50000be8:	d3505c20 	ubfx	x0, x1, #16, #8
    50000bec:	b3400c20 	bfxil	x0, x1, #0, #4
    50000bf0:	d65f03c0 	ret

0000000050000bf4 <cpu_rev_var_ls>:
    50000bf4:	d2800022 	mov	x2, #0x1                   	// #1
    50000bf8:	d2800003 	mov	x3, #0x0                   	// #0
    50000bfc:	eb01001f 	cmp	x0, x1
    50000c00:	9a839040 	csel	x0, x2, x3, ls  // ls = plast
    50000c04:	d65f03c0 	ret

0000000050000c08 <cpu_rev_var_range>:
    50000c08:	d2800023 	mov	x3, #0x1                   	// #1
    50000c0c:	d2800004 	mov	x4, #0x0                   	// #0
    50000c10:	eb01001f 	cmp	x0, x1
    50000c14:	9a842061 	csel	x1, x3, x4, cs  // cs = hs, nlast
    50000c18:	b4000061 	cbz	x1, 50000c24 <cpu_rev_var_range+0x1c>
    50000c1c:	eb02001f 	cmp	x0, x2
    50000c20:	9a849061 	csel	x1, x3, x4, ls  // ls = plast
    50000c24:	aa0103e0 	mov	x0, x1
    50000c28:	d65f03c0 	ret

0000000050000c2c <crash_panic>:
    50000c2c:	94000296 	bl	50001684 <plat_panic_handler>

0000000050000c30 <delegate_async_ea>:
    50000c30:	37c00101 	tbnz	w1, #24, 50000c50 <delegate_async_ea+0x20>
    50000c34:	d34a3022 	ubfx	x2, x1, #10, #3
    50000c38:	f100005f 	cmp	x2, #0x0
    50000c3c:	540000a1 	b.ne	50000c50 <delegate_async_ea+0x20>  // b.any
    50000c40:	d3401423 	ubfx	x3, x1, #0, #6
    50000c44:	f100447f 	cmp	x3, #0x11
    50000c48:	54000041 	b.ne	50000c50 <delegate_async_ea+0x20>  // b.any
    50000c4c:	94000289 	bl	50001670 <plat_handle_uncontainable_ea>
    50000c50:	14000029 	b	50000cf4 <ea_proceed>

0000000050000c54 <delegate_sync_ea>:
    50000c54:	d34b3022 	ubfx	x2, x1, #11, #2
    50000c58:	f100085f 	cmp	x2, #0x2
    50000c5c:	540000a1 	b.ne	50000c70 <delegate_sync_ea+0x1c>  // b.any
    50000c60:	d3401423 	ubfx	x3, x1, #0, #6
    50000c64:	f100407f 	cmp	x3, #0x10
    50000c68:	54000041 	b.ne	50000c70 <delegate_sync_ea+0x1c>  // b.any
    50000c6c:	94000281 	bl	50001670 <plat_handle_uncontainable_ea>
    50000c70:	14000021 	b	50000cf4 <ea_proceed>

0000000050000c74 <do_cpu_reg_dump>:
    50000c74:	aa1e03f0 	mov	x16, x30
    50000c78:	940001c2 	bl	50001380 <get_cpu_ops_ptr>
    50000c7c:	b4000080 	cbz	x0, 50000c8c <do_cpu_reg_dump+0x18>
    50000c80:	f9402002 	ldr	x2, [x0, #64]
    50000c84:	b4000042 	cbz	x2, 50000c8c <do_cpu_reg_dump+0x18>
    50000c88:	d63f0040 	blr	x2
    50000c8c:	aa1003fe 	mov	x30, x16
    50000c90:	d65f03c0 	ret

0000000050000c94 <do_panic>:
    50000c94:	f81f0fe0 	str	x0, [sp, #-16]!
    50000c98:	d5384240 	mrs	x0, currentel
    50000c9c:	d3420c00 	ubfx	x0, x0, #2, #2
    50000ca0:	f1000c1f 	cmp	x0, #0x3
    50000ca4:	540000e1 	b.ne	50000cc0 <to_panic_common>  // b.any
    50000ca8:	d53e4000 	mrs	x0, spsr_el3
    50000cac:	d3420c00 	ubfx	x0, x0, #2, #2
    50000cb0:	f1000c1f 	cmp	x0, #0x3
    50000cb4:	54002301 	b.ne	50001114 <elx_panic>  // b.any
    50000cb8:	f84107e0 	ldr	x0, [sp], #16
    50000cbc:	140000a6 	b	50000f54 <el3_panic>

0000000050000cc0 <to_panic_common>:
    50000cc0:	f84107e0 	ldr	x0, [sp], #16

0000000050000cc4 <panic_common>:
    50000cc4:	aa1e03e6 	mov	x6, x30
    50000cc8:	9400022c 	bl	50001578 <plat_crash_console_init>
    50000ccc:	b4000100 	cbz	x0, 50000cec <_panic_handler>
    50000cd0:	300b7064 	adr	x4, 50017add <panic_msg>
    50000cd4:	97ffff13 	bl	50000920 <asm_print_str>
    50000cd8:	aa0603e4 	mov	x4, x6
    50000cdc:	d1001084 	sub	x4, x4, #0x4
    50000ce0:	97ffff02 	bl	500008e8 <asm_print_hex>
    50000ce4:	97ffff0d 	bl	50000918 <asm_print_newline>
    50000ce8:	9400020f 	bl	50001524 <plat_crash_console_flush>

0000000050000cec <_panic_handler>:
    50000cec:	aa0603fe 	mov	x30, x6
    50000cf0:	14000265 	b	50001684 <plat_panic_handler>

0000000050000cf4 <ea_proceed>:
    50000cf4:	f94087e5 	ldr	x5, [sp, #264]
    50000cf8:	b4000045 	cbz	x5, 50000d00 <ea_proceed+0xc>
    50000cfc:	9400025c 	bl	5000166c <plat_handle_double_fault>
    50000d00:	d53e4002 	mrs	x2, spsr_el3
    50000d04:	d53e4023 	mrs	x3, elr_el3
    50000d08:	a9118fe2 	stp	x2, x3, [sp, #280]
    50000d0c:	d53e1104 	mrs	x4, scr_el3
    50000d10:	d53e5205 	mrs	x5, esr_el3
    50000d14:	a91017e4 	stp	x4, x5, [sp, #256]
    50000d18:	aa1f03e2 	mov	x2, xzr
    50000d1c:	910003e3 	mov	x3, sp
    50000d20:	d3400084 	ubfx	x4, x4, #0, #1
    50000d24:	f9408be5 	ldr	x5, [sp, #272]
    50000d28:	d50040bf 	msr	spsel, #0x0
    50000d2c:	910000bf 	mov	sp, x5
    50000d30:	aa1e03fd 	mov	x29, x30
    50000d34:	910003fc 	mov	x28, sp
    50000d38:	94001c05 	bl	50007d4c <plat_ea_handler>
    50000d3c:	910003fb 	mov	x27, sp
    50000d40:	eb1b039f 	cmp	x28, x27
    50000d44:	54000080 	b.eq	50000d54 <ea_proceed+0x60>  // b.none
    50000d48:	100b67e0 	adr	x0, 50017a44 <excpt_msg_el+0x1c>
    50000d4c:	d2802481 	mov	x1, #0x124                 	// #292
    50000d50:	17fffee5 	b	500008e4 <asm_assert>
    50000d54:	d50041bf 	msr	spsel, #0x1
    50000d58:	a9518be1 	ldp	x1, x2, [sp, #280]
    50000d5c:	d51e4001 	msr	spsr_el3, x1
    50000d60:	d51e4022 	msr	elr_el3, x2
    50000d64:	a95013e3 	ldp	x3, x4, [sp, #256]
    50000d68:	d51e1103 	msr	scr_el3, x3
    50000d6c:	d51e5204 	msr	esr_el3, x4
    50000d70:	eb1f009f 	cmp	x4, xzr
    50000d74:	54000081 	b.ne	50000d84 <ea_proceed+0x90>  // b.any
    50000d78:	100b6660 	adr	x0, 50017a44 <excpt_msg_el+0x1c>
    50000d7c:	d28026c1 	mov	x1, #0x136                 	// #310
    50000d80:	17fffed9 	b	500008e4 <asm_assert>
    50000d84:	f90087ff 	str	xzr, [sp, #264]
    50000d88:	d65f03a0 	ret	x29

0000000050000d8c <el1_sysregs_context_restore>:
    50000d8c:	a9402809 	ldp	x9, x10, [x0]
    50000d90:	d5184009 	msr	spsr_el1, x9
    50000d94:	d518402a 	msr	elr_el1, x10
    50000d98:	a941400f 	ldp	x15, x16, [x0, #16]
    50000d9c:	d518100f 	msr	sctlr_el1, x15
    50000da0:	d5182050 	msr	tcr_el1, x16
    50000da4:	a9422411 	ldp	x17, x9, [x0, #32]
    50000da8:	d5181051 	msr	cpacr_el1, x17
    50000dac:	d51a0009 	msr	csselr_el1, x9
    50000db0:	a9432c0a 	ldp	x10, x11, [x0, #48]
    50000db4:	d51c410a 	msr	sp_el1, x10
    50000db8:	d518520b 	msr	esr_el1, x11
    50000dbc:	a944340c 	ldp	x12, x13, [x0, #64]
    50000dc0:	d518200c 	msr	ttbr0_el1, x12
    50000dc4:	d518202d 	msr	ttbr1_el1, x13
    50000dc8:	a9453c0e 	ldp	x14, x15, [x0, #80]
    50000dcc:	d518a20e 	msr	mair_el1, x14
    50000dd0:	d518a30f 	msr	amair_el1, x15
    50000dd4:	a9464410 	ldp	x16, x17, [x0, #96]
    50000dd8:	d5181030 	msr	actlr_el1, x16
    50000ddc:	d518d091 	msr	tpidr_el1, x17
    50000de0:	a9472809 	ldp	x9, x10, [x0, #112]
    50000de4:	d51bd049 	msr	tpidr_el0, x9
    50000de8:	d51bd06a 	msr	tpidrro_el0, x10
    50000dec:	a948380d 	ldp	x13, x14, [x0, #128]
    50000df0:	d518740d 	msr	par_el1, x13
    50000df4:	d518600e 	msr	far_el1, x14
    50000df8:	a949400f 	ldp	x15, x16, [x0, #144]
    50000dfc:	d518510f 	msr	afsr0_el1, x15
    50000e00:	d5185130 	msr	afsr1_el1, x16
    50000e04:	a94a2411 	ldp	x17, x9, [x0, #160]
    50000e08:	d518d031 	msr	contextidr_el1, x17
    50000e0c:	d518c009 	msr	vbar_el1, x9
    50000e10:	a94b2c0a 	ldp	x10, x11, [x0, #176]
    50000e14:	d51be22a 	msr	cntp_ctl_el0, x10
    50000e18:	d51be24b 	msr	cntp_cval_el0, x11
    50000e1c:	a94c340c 	ldp	x12, x13, [x0, #192]
    50000e20:	d51be32c 	msr	cntv_ctl_el0, x12
    50000e24:	d51be34d 	msr	cntv_cval_el0, x13
    50000e28:	f940680e 	ldr	x14, [x0, #208]
    50000e2c:	d518e10e 	msr	cntkctl_el1, x14
    50000e30:	d65f03c0 	ret

0000000050000e34 <el1_sysregs_context_save>:
    50000e34:	d5384009 	mrs	x9, spsr_el1
    50000e38:	d538402a 	mrs	x10, elr_el1
    50000e3c:	a9002809 	stp	x9, x10, [x0]
    50000e40:	d538100f 	mrs	x15, sctlr_el1
    50000e44:	d5382050 	mrs	x16, tcr_el1
    50000e48:	a901400f 	stp	x15, x16, [x0, #16]
    50000e4c:	d5381051 	mrs	x17, cpacr_el1
    50000e50:	d53a0009 	mrs	x9, csselr_el1
    50000e54:	a9022411 	stp	x17, x9, [x0, #32]
    50000e58:	d53c410a 	mrs	x10, sp_el1
    50000e5c:	d538520b 	mrs	x11, esr_el1
    50000e60:	a9032c0a 	stp	x10, x11, [x0, #48]
    50000e64:	d538200c 	mrs	x12, ttbr0_el1
    50000e68:	d538202d 	mrs	x13, ttbr1_el1
    50000e6c:	a904340c 	stp	x12, x13, [x0, #64]
    50000e70:	d538a20e 	mrs	x14, mair_el1
    50000e74:	d538a30f 	mrs	x15, amair_el1
    50000e78:	a9053c0e 	stp	x14, x15, [x0, #80]
    50000e7c:	d5381030 	mrs	x16, actlr_el1
    50000e80:	d538d091 	mrs	x17, tpidr_el1
    50000e84:	a9064410 	stp	x16, x17, [x0, #96]
    50000e88:	d53bd049 	mrs	x9, tpidr_el0
    50000e8c:	d53bd06a 	mrs	x10, tpidrro_el0
    50000e90:	a9072809 	stp	x9, x10, [x0, #112]
    50000e94:	d538740d 	mrs	x13, par_el1
    50000e98:	d538600e 	mrs	x14, far_el1
    50000e9c:	a908380d 	stp	x13, x14, [x0, #128]
    50000ea0:	d538510f 	mrs	x15, afsr0_el1
    50000ea4:	d5385130 	mrs	x16, afsr1_el1
    50000ea8:	a909400f 	stp	x15, x16, [x0, #144]
    50000eac:	d538d031 	mrs	x17, contextidr_el1
    50000eb0:	d538c009 	mrs	x9, vbar_el1
    50000eb4:	a90a2411 	stp	x17, x9, [x0, #160]
    50000eb8:	d53be22a 	mrs	x10, cntp_ctl_el0
    50000ebc:	d53be24b 	mrs	x11, cntp_cval_el0
    50000ec0:	a90b2c0a 	stp	x10, x11, [x0, #176]
    50000ec4:	d53be32c 	mrs	x12, cntv_ctl_el0
    50000ec8:	d53be34d 	mrs	x13, cntv_cval_el0
    50000ecc:	a90c340c 	stp	x12, x13, [x0, #192]
    50000ed0:	d538e10e 	mrs	x14, cntkctl_el1
    50000ed4:	f900680e 	str	x14, [x0, #208]
    50000ed8:	d65f03c0 	ret

0000000050000edc <el3_exit>:
    50000edc:	d5384211 	mrs	x17, spsel
    50000ee0:	f100023f 	cmp	x17, #0x0
    50000ee4:	54000080 	b.eq	50000ef4 <el3_exit+0x18>  // b.none
    50000ee8:	100b5d20 	adr	x0, 50017a8c <cortex_a78_ae_regs+0x2d>
    50000eec:	d28074e1 	mov	x1, #0x3a7                 	// #935
    50000ef0:	17fffe7d 	b	500008e4 <asm_assert>
    50000ef4:	910003f1 	mov	x17, sp
    50000ef8:	d50041bf 	msr	spsel, #0x1
    50000efc:	f9008bf1 	str	x17, [sp, #272]
    50000f00:	f94083f2 	ldr	x18, [sp, #256]
    50000f04:	a951c7f0 	ldp	x16, x17, [sp, #280]
    50000f08:	d51e1112 	msr	scr_el3, x18
    50000f0c:	d51e4010 	msr	spsr_el3, x16
    50000f10:	d51e4031 	msr	elr_el3, x17
    50000f14:	a953d3f3 	ldp	x19, x20, [sp, #312]
    50000f18:	d51e1153 	msr	cptr_el3, x19
    50000f1c:	f2780273 	ands	x19, x19, #0x100
    50000f20:	54000060 	b.eq	50000f2c <sve_not_enabled>  // b.none
    50000f24:	d5033fdf 	isb
    50000f28:	d51e1214 	msr	zcr_el3, x20

0000000050000f2c <sve_not_enabled>:
    50000f2c:	f9411bf1 	ldr	x17, [sp, #560]
    50000f30:	b4000051 	cbz	x17, 50000f38 <sve_not_enabled+0xc>
    50000f34:	d63f0220 	blr	x17
    50000f38:	94000276 	bl	50001910 <restore_gp_pmcr_pauth_regs>
    50000f3c:	f9407bfe 	ldr	x30, [sp, #240]
    50000f40:	d503221f 	esb
    50000f44:	f9009bff 	str	xzr, [sp, #304]
    50000f48:	d69f03e0 	eret
    50000f4c:	d503379f 	dsb	nsh
    50000f50:	d5033fdf 	isb

0000000050000f54 <el3_panic>:
    50000f54:	d50041bf 	msr	spsel, #0x1
    50000f58:	9100001f 	mov	sp, x0
    50000f5c:	d53ed040 	mrs	x0, tpidr_el3
    50000f60:	9100a000 	add	x0, x0, #0x28
    50000f64:	d51ed040 	msr	tpidr_el3, x0
    50000f68:	f9000401 	str	x1, [x0, #8]
    50000f6c:	910003e1 	mov	x1, sp
    50000f70:	f9000001 	str	x1, [x0]
    50000f74:	100b52c0 	adr	x0, 500179cc <panic_msg>
    50000f78:	9100001f 	mov	sp, x0

0000000050000f7c <do_crash_reporting>:
    50000f7c:	d53ed040 	mrs	x0, tpidr_el3
    50000f80:	a9010c02 	stp	x2, x3, [x0, #16]
    50000f84:	a9021404 	stp	x4, x5, [x0, #32]
    50000f88:	a9037806 	stp	x6, x30, [x0, #48]
    50000f8c:	9400017b 	bl	50001578 <plat_crash_console_init>
    50000f90:	b4ffe4e0 	cbz	x0, 50000c2c <crash_panic>
    50000f94:	910003e4 	mov	x4, sp
    50000f98:	97fffe62 	bl	50000920 <asm_print_str>
    50000f9c:	d2800080 	mov	x0, #0x4                   	// #4
    50000fa0:	94000235 	bl	50001874 <print_alignment>
    50000fa4:	d53ed040 	mrs	x0, tpidr_el3
    50000fa8:	f9401c04 	ldr	x4, [x0, #56]
    50000fac:	97fffe4f 	bl	500008e8 <asm_print_hex>
    50000fb0:	97fffe5a 	bl	50000918 <asm_print_newline>
    50000fb4:	d53ed040 	mrs	x0, tpidr_el3
    50000fb8:	f9001c07 	str	x7, [x0, #56]
    50000fbc:	100b3fc6 	adr	x6, 500177b4 <gp_regs>
    50000fc0:	9400027a 	bl	500019a8 <size_controlled_print>
    50000fc4:	940002b9 	bl	50001aa8 <str_in_crash_buf_print>
    50000fc8:	d53ed040 	mrs	x0, tpidr_el3
    50000fcc:	a9004410 	stp	x16, x17, [x0]
    50000fd0:	a9014c12 	stp	x18, x19, [x0, #16]
    50000fd4:	a9025414 	stp	x20, x21, [x0, #32]
    50000fd8:	a9035c16 	stp	x22, x23, [x0, #48]
    50000fdc:	94000273 	bl	500019a8 <size_controlled_print>
    50000fe0:	d53ed040 	mrs	x0, tpidr_el3
    50000fe4:	a9006418 	stp	x24, x25, [x0]
    50000fe8:	a9016c1a 	stp	x26, x27, [x0, #16]
    50000fec:	a902741c 	stp	x28, x29, [x0, #32]
    50000ff0:	9400026e 	bl	500019a8 <size_controlled_print>

0000000050000ff4 <print_el3_sys_regs>:
    50000ff4:	700b4166 	adr	x6, 50017823 <el3_sys_regs>
    50000ff8:	d53e1108 	mrs	x8, scr_el3
    50000ffc:	d53e1009 	mrs	x9, sctlr_el3
    50001000:	d53e114a 	mrs	x10, cptr_el3
    50001004:	d53e204b 	mrs	x11, tcr_el3
    50001008:	d53b422c 	mrs	x12, daif
    5000100c:	d53ea20d 	mrs	x13, mair_el3
    50001010:	d53e400e 	mrs	x14, spsr_el3
    50001014:	d53e402f 	mrs	x15, elr_el3
    50001018:	940002a4 	bl	50001aa8 <str_in_crash_buf_print>
    5000101c:	d53e2008 	mrs	x8, ttbr0_el3
    50001020:	d53e5209 	mrs	x9, esr_el3
    50001024:	d53e600a 	mrs	x10, far_el3
    50001028:	940002a0 	bl	50001aa8 <str_in_crash_buf_print>
    5000102c:	100b42a6 	adr	x6, 50017880 <non_el3_sys_regs>
    50001030:	d5384008 	mrs	x8, spsr_el1
    50001034:	d5384029 	mrs	x9, elr_el1
    50001038:	d53c432a 	mrs	x10, spsr_abt
    5000103c:	d53c434b 	mrs	x11, spsr_und
    50001040:	d53c430c 	mrs	x12, spsr_irq
    50001044:	d53c436d 	mrs	x13, spsr_fiq
    50001048:	d538100e 	mrs	x14, sctlr_el1
    5000104c:	d538102f 	mrs	x15, actlr_el1
    50001050:	94000296 	bl	50001aa8 <str_in_crash_buf_print>
    50001054:	d5381048 	mrs	x8, cpacr_el1
    50001058:	d53a0009 	mrs	x9, csselr_el1
    5000105c:	d53c410a 	mrs	x10, sp_el1
    50001060:	d538520b 	mrs	x11, esr_el1
    50001064:	d538200c 	mrs	x12, ttbr0_el1
    50001068:	d538202d 	mrs	x13, ttbr1_el1
    5000106c:	d538a20e 	mrs	x14, mair_el1
    50001070:	d538a30f 	mrs	x15, amair_el1
    50001074:	9400028d 	bl	50001aa8 <str_in_crash_buf_print>
    50001078:	d5382048 	mrs	x8, tcr_el1
    5000107c:	d538d089 	mrs	x9, tpidr_el1
    50001080:	d53bd04a 	mrs	x10, tpidr_el0
    50001084:	d53bd06b 	mrs	x11, tpidrro_el0
    50001088:	d538740c 	mrs	x12, par_el1
    5000108c:	d53800ad 	mrs	x13, mpidr_el1
    50001090:	d538510e 	mrs	x14, afsr0_el1
    50001094:	d538512f 	mrs	x15, afsr1_el1
    50001098:	94000284 	bl	50001aa8 <str_in_crash_buf_print>
    5000109c:	d538d028 	mrs	x8, contextidr_el1
    500010a0:	d538c009 	mrs	x9, vbar_el1
    500010a4:	d53be22a 	mrs	x10, cntp_ctl_el0
    500010a8:	d53be24b 	mrs	x11, cntp_cval_el0
    500010ac:	d53be32c 	mrs	x12, cntv_ctl_el0
    500010b0:	d53be34d 	mrs	x13, cntv_cval_el0
    500010b4:	d538e10e 	mrs	x14, cntkctl_el1
    500010b8:	d538410f 	mrs	x15, sp_el0
    500010bc:	9400027b 	bl	50001aa8 <str_in_crash_buf_print>
    500010c0:	d538c108 	mrs	x8, isr_el1
    500010c4:	94000279 	bl	50001aa8 <str_in_crash_buf_print>
    500010c8:	97fffeeb 	bl	50000c74 <do_cpu_reg_dump>
    500010cc:	94000277 	bl	50001aa8 <str_in_crash_buf_print>
    500010d0:	d2a1e810 	mov	x16, #0xf400000             	// #255852544
    500010d4:	91080207 	add	x7, x16, #0x200
    500010d8:	500b3424 	adr	x4, 5001775e <gicd_pend_reg>
    500010dc:	97fffe11 	bl	50000920 <asm_print_str>
    500010e0:	cb1000e4 	sub	x4, x7, x16
    500010e4:	f10a009f 	cmp	x4, #0x280
    500010e8:	54000120 	b.eq	5000110c <print_el3_sys_regs+0x118>  // b.none
    500010ec:	97fffdff 	bl	500008e8 <asm_print_hex>
    500010f0:	100b3564 	adr	x4, 5001779c <spacer>
    500010f4:	97fffe0b 	bl	50000920 <asm_print_str>
    500010f8:	b84044e4 	ldr	w4, [x7], #4
    500010fc:	97fffdfb 	bl	500008e8 <asm_print_hex>
    50001100:	500b34c4 	adr	x4, 5001779a <newline>
    50001104:	97fffe07 	bl	50000920 <asm_print_str>
    50001108:	17fffff6 	b	500010e0 <print_el3_sys_regs+0xec>
    5000110c:	94000106 	bl	50001524 <plat_crash_console_flush>
    50001110:	9400015d 	bl	50001684 <plat_panic_handler>

0000000050001114 <elx_panic>:
    50001114:	d50041bf 	msr	spsel, #0x1
    50001118:	aa0003e8 	mov	x8, x0
    5000111c:	100b4864 	adr	x4, 50017a28 <excpt_msg_el>
    50001120:	97fffe00 	bl	50000920 <asm_print_str>
    50001124:	9100c100 	add	x0, x8, #0x30
    50001128:	94000126 	bl	500015c0 <plat_crash_console_putc>
    5000112c:	97fffdfb 	bl	50000918 <asm_print_newline>
    50001130:	100b3426 	adr	x6, 500177b4 <gp_regs>
    50001134:	910003e7 	mov	x7, sp

0000000050001138 <print_next>:
    50001138:	394000c4 	ldrb	w4, [x6]
    5000113c:	34000144 	cbz	w4, 50001164 <print_x30>
    50001140:	aa0603e4 	mov	x4, x6
    50001144:	97fffdf7 	bl	50000920 <asm_print_str>
    50001148:	cb060080 	sub	x0, x4, x6
    5000114c:	aa0403e6 	mov	x6, x4
    50001150:	940001c9 	bl	50001874 <print_alignment>
    50001154:	f84084e4 	ldr	x4, [x7], #8
    50001158:	97fffde4 	bl	500008e8 <asm_print_hex>
    5000115c:	97fffdef 	bl	50000918 <asm_print_newline>
    50001160:	17fffff6 	b	50001138 <print_next>

0000000050001164 <print_x30>:
    50001164:	100b4604 	adr	x4, 50017a24 <x30_msg>
    50001168:	97fffdee 	bl	50000920 <asm_print_str>
    5000116c:	d2800080 	mov	x0, #0x4                   	// #4
    50001170:	940001c1 	bl	50001874 <print_alignment>
    50001174:	f94000e4 	ldr	x4, [x7]
    50001178:	f100091f 	cmp	x8, #0x2
    5000117c:	5400022b 	b.lt	500011c0 <from_el1>  // b.tstop
    50001180:	d53c1002 	mrs	x2, sctlr_el2
    50001184:	d53c2041 	mrs	x1, tcr_el2

0000000050001188 <test_pauth>:
    50001188:	f262045f 	tst	x2, #0xc0000000
    5000118c:	540000e0 	b.eq	500011a8 <no_pauth>  // b.none
    50001190:	92401421 	and	x1, x1, #0x3f
    50001194:	d1010021 	sub	x1, x1, #0x40
    50001198:	cb0103e1 	neg	x1, x1
    5000119c:	92800002 	mov	x2, #0xffffffffffffffff    	// #-1
    500011a0:	9ac12042 	lsl	x2, x2, x1
    500011a4:	8a220084 	bic	x4, x4, x2

00000000500011a8 <no_pauth>:
    500011a8:	97fffdd0 	bl	500008e8 <asm_print_hex>
    500011ac:	97fffddb 	bl	50000918 <asm_print_newline>
    500011b0:	d53ed040 	mrs	x0, tpidr_el3
    500011b4:	9100a000 	add	x0, x0, #0x28
    500011b8:	d51ed040 	msr	tpidr_el3, x0
    500011bc:	17ffff8e 	b	50000ff4 <print_el3_sys_regs>

00000000500011c0 <from_el1>:
    500011c0:	d5381002 	mrs	x2, sctlr_el1
    500011c4:	d5382041 	mrs	x1, tcr_el1
    500011c8:	17fffff0 	b	50001188 <test_pauth>

00000000500011cc <enable_mmu_direct_el3>:
    500011cc:	d53e1001 	mrs	x1, sctlr_el3
    500011d0:	f240003f 	tst	x1, #0x1
    500011d4:	54000080 	b.eq	500011e4 <enable_mmu_direct_el3+0x18>  // b.none
    500011d8:	300b4980 	adr	x0, 50017b09 <panic_msg+0x2c>
    500011dc:	d2800541 	mov	x1, #0x2a                  	// #42
    500011e0:	17fffdc1 	b	500008e4 <asm_assert>
    500011e4:	d50e871f 	tlbi	alle3
    500011e8:	aa0003e7 	mov	x7, x0
    500011ec:	90000120 	adrp	x0, 50025000 <cpu_state+0x800>
    500011f0:	9126a000 	add	x0, x0, #0x9a8
    500011f4:	f9400001 	ldr	x1, [x0]
    500011f8:	d51ea201 	msr	mair_el3, x1
    500011fc:	f9400402 	ldr	x2, [x0, #8]
    50001200:	d51e2042 	msr	tcr_el3, x2
    50001204:	f9400803 	ldr	x3, [x0, #16]
    50001208:	d51e2003 	msr	ttbr0_el3, x3
    5000120c:	d5033b9f 	dsb	ish
    50001210:	d5033fdf 	isb
    50001214:	d53e1004 	mrs	x4, sctlr_el3
    50001218:	d28000a5 	mov	x5, #0x5                   	// #5
    5000121c:	f2a00105 	movk	x5, #0x8, lsl #16
    50001220:	aa050084 	orr	x4, x4, x5
    50001224:	927df885 	and	x5, x4, #0xfffffffffffffffb
    50001228:	f24000ff 	tst	x7, #0x1
    5000122c:	9a8410a4 	csel	x4, x5, x4, ne  // ne = any
    50001230:	d51e1004 	msr	sctlr_el3, x4
    50001234:	d5033fdf 	isb
    50001238:	d65f03c0 	ret

000000005000123c <enter_lower_el_async_ea>:
    5000123c:	f9007bfe 	str	x30, [sp, #240]

0000000050001240 <handle_lower_el_async_ea>:
    50001240:	9400016e 	bl	500017f8 <prepare_el3_entry>
    50001244:	d2800000 	mov	x0, #0x0                   	// #0
    50001248:	d53e5201 	mrs	x1, esr_el3
    5000124c:	97fffe79 	bl	50000c30 <delegate_async_ea>
    50001250:	d50040bf 	msr	spsel, #0x0
    50001254:	17ffff22 	b	50000edc <el3_exit>

0000000050001258 <enter_lower_el_sync_ea>:
    50001258:	f9007bfe 	str	x30, [sp, #240]
    5000125c:	d53e521e 	mrs	x30, esr_el3
    50001260:	d35a7fde 	ubfx	x30, x30, #26, #6
    50001264:	f10083df 	cmp	x30, #0x20
    50001268:	540001a0 	b.eq	5000129c <enter_lower_el_sync_ea+0x44>  // b.none
    5000126c:	f10093df 	cmp	x30, #0x24
    50001270:	54000160 	b.eq	5000129c <enter_lower_el_sync_ea+0x44>  // b.none
    50001274:	a90007e0 	stp	x0, x1, [sp]
    50001278:	a9010fe2 	stp	x2, x3, [sp, #16]
    5000127c:	a90217e4 	stp	x4, x5, [sp, #32]
    50001280:	94000040 	bl	50001380 <get_cpu_ops_ptr>
    50001284:	f9401400 	ldr	x0, [x0, #40]
    50001288:	b40001a0 	cbz	x0, 500012bc <enter_lower_el_sync_ea+0x64>
    5000128c:	d53e5201 	mrs	x1, esr_el3
    50001290:	d35a7c21 	ubfx	x1, x1, #26, #6
    50001294:	d63f0000 	blr	x0
    50001298:	14000009 	b	500012bc <enter_lower_el_sync_ea+0x64>
    5000129c:	d53e521e 	mrs	x30, esr_el3
    500012a0:	3648015e 	tbz	w30, #9, 500012c8 <enter_lower_el_sync_ea+0x70>
    500012a4:	94000155 	bl	500017f8 <prepare_el3_entry>
    500012a8:	d2800020 	mov	x0, #0x1                   	// #1
    500012ac:	d53e5201 	mrs	x1, esr_el3
    500012b0:	97fffe69 	bl	50000c54 <delegate_sync_ea>
    500012b4:	d50040bf 	msr	spsel, #0x0
    500012b8:	17ffff09 	b	50000edc <el3_exit>
    500012bc:	a94007e0 	ldp	x0, x1, [sp]
    500012c0:	a9410fe2 	ldp	x2, x3, [sp, #16]
    500012c4:	a94217e4 	ldp	x4, x5, [sp, #32]
    500012c8:	f9407bfe 	ldr	x30, [sp, #240]
    500012cc:	94000170 	bl	5000188c <report_unhandled_exception>

00000000500012d0 <errata_a78_ae_2466780_wa>:
    500012d0:	aa1e03f1 	mov	x17, x30
    500012d4:	97fffda0 	bl	50000954 <check_errata_2466780>
    500012d8:	b40001c0 	cbz	x0, 50001310 <errata_a78_ae_2466780_wa+0x40>
    500012dc:	d2800060 	mov	x0, #0x3                   	// #3
    500012e0:	d51ef800 	msr	s3_6_c15_c8_0, x0
    500012e4:	d281e200 	mov	x0, #0xf10                 	// #3856
    500012e8:	f2bdc020 	movk	x0, #0xee01, lsl #16
    500012ec:	d51ef840 	msr	s3_6_c15_c8_2, x0
    500012f0:	d281ffc0 	mov	x0, #0xffe                 	// #4094
    500012f4:	f2bfe3e0 	movk	x0, #0xff1f, lsl #16
    500012f8:	d51ef860 	msr	s3_6_c15_c8_3, x0
    500012fc:	d2807fe0 	mov	x0, #0x3ff                 	// #1023
    50001300:	f2a00800 	movk	x0, #0x40, lsl #16
    50001304:	f2e00200 	movk	x0, #0x10, lsl #48
    50001308:	d51ef820 	msr	s3_6_c15_c8_1, x0
    5000130c:	d5033fdf 	isb
    50001310:	d65f0220 	ret	x17

0000000050001314 <errata_a78_ae_2743093_wa>:
    50001314:	aa1e03f1 	mov	x17, x30
    50001318:	97fffd92 	bl	50000960 <check_errata_2743093>
    5000131c:	b4000040 	cbz	x0, 50001324 <errata_a78_ae_2743093_wa+0x10>
    50001320:	d5033f9f 	dsb	sy
    50001324:	d65f0220 	ret	x17

0000000050001328 <errata_a78_ae_2743229>:
    50001328:	aa1e03f1 	mov	x17, x30
    5000132c:	97fffd8f 	bl	50000968 <check_errata_2743229>
    50001330:	b40000a0 	cbz	x0, 50001344 <errata_a78_ae_2743229+0x1c>
    50001334:	d538f900 	mrs	x0, s3_0_c15_c9_0
    50001338:	b2490000 	orr	x0, x0, #0x80000000000000
    5000133c:	9247f800 	and	x0, x0, #0xfeffffffffffffff
    50001340:	d518f900 	msr	s3_0_c15_c9_0, x0
    50001344:	d65f0220 	ret	x17

0000000050001348 <flush_dcache_range>:
    50001348:	b40001a1 	cbz	x1, 5000137c <exit_loop_civac>
    5000134c:	d53b0023 	mrs	x3, ctr_el0
    50001350:	d3504c63 	ubfx	x3, x3, #16, #4
    50001354:	d2800082 	mov	x2, #0x4                   	// #4
    50001358:	9ac32042 	lsl	x2, x2, x3
    5000135c:	8b010001 	add	x1, x0, x1
    50001360:	d1000443 	sub	x3, x2, #0x1
    50001364:	8a230000 	bic	x0, x0, x3

0000000050001368 <loop_civac>:
    50001368:	d50b7e20 	dc	civac, x0
    5000136c:	8b020000 	add	x0, x0, x2
    50001370:	eb01001f 	cmp	x0, x1
    50001374:	54ffffa3 	b.cc	50001368 <loop_civac>  // b.lo, b.ul, b.last
    50001378:	d5033f9f 	dsb	sy

000000005000137c <exit_loop_civac>:
    5000137c:	d65f03c0 	ret

0000000050001380 <get_cpu_ops_ptr>:
    50001380:	d5380002 	mrs	x2, midr_el1
    50001384:	d29ffe03 	mov	x3, #0xfff0                	// #65520
    50001388:	f2bfe003 	movk	x3, #0xff00, lsl #16
    5000138c:	0a030042 	and	w2, w2, w3
    50001390:	100b4885 	adr	x5, 50017ca0 <__cb_func_sdei_cpu_on_initpsci_cpu_on_finish>
    50001394:	d2800000 	mov	x0, #0x0                   	// #0
    50001398:	100b4604 	adr	x4, 50017c58 <__CPU_OPS_START__>
    5000139c:	eb05009f 	cmp	x4, x5
    500013a0:	54000180 	b.eq	500013d0 <search_def_ptr>  // b.none
    500013a4:	f8448481 	ldr	x1, [x4], #72
    500013a8:	0a030021 	and	w1, w1, w3
    500013ac:	6b02003f 	cmp	w1, w2
    500013b0:	54ffff61 	b.ne	5000139c <get_cpu_ops_ptr+0x1c>  // b.any
    500013b4:	d1012080 	sub	x0, x4, #0x48
    500013b8:	f100001f 	cmp	x0, #0x0
    500013bc:	54000081 	b.ne	500013cc <get_cpu_ops_ptr+0x4c>  // b.any
    500013c0:	300b3560 	adr	x0, 50017a6d <cortex_a78_ae_regs+0xe>
    500013c4:	d28017c1 	mov	x1, #0xbe                  	// #190
    500013c8:	17fffd47 	b	500008e4 <asm_assert>
    500013cc:	d65f03c0 	ret

00000000500013d0 <search_def_ptr>:
    500013d0:	d65f03c0 	ret

00000000500013d4 <handle_lower_el_ea_esb>:
    500013d4:	d2800040 	mov	x0, #0x2                   	// #2
    500013d8:	d538c121 	mrs	x1, disr_el1
    500013dc:	17fffe46 	b	50000cf4 <ea_proceed>

00000000500013e0 <init_cpu_data_ptr>:
    500013e0:	aa1e03ea 	mov	x10, x30
    500013e4:	940000a4 	bl	50001674 <plat_my_core_pos>
    500013e8:	97fffd39 	bl	500008cc <_cpu_data_by_index>
    500013ec:	d51ed040 	msr	tpidr_el3, x0
    500013f0:	d65f0140 	ret	x10

00000000500013f4 <init_cpu_ops>:
    500013f4:	d53ed046 	mrs	x6, tpidr_el3
    500013f8:	f94008c0 	ldr	x0, [x6, #16]
    500013fc:	b5000140 	cbnz	x0, 50001424 <init_cpu_ops+0x30>
    50001400:	aa1e03ea 	mov	x10, x30
    50001404:	97ffffdf 	bl	50001380 <get_cpu_ops_ptr>
    50001408:	f100001f 	cmp	x0, #0x0
    5000140c:	54000081 	b.ne	5000141c <init_cpu_ops+0x28>  // b.any
    50001410:	300b32e0 	adr	x0, 50017a6d <cortex_a78_ae_regs+0xe>
    50001414:	d2800d01 	mov	x1, #0x68                  	// #104
    50001418:	17fffd33 	b	500008e4 <asm_assert>
    5000141c:	f8010cc0 	str	x0, [x6, #16]!
    50001420:	aa0a03fe 	mov	x30, x10
    50001424:	d65f03c0 	ret

0000000050001428 <inv_dcache_range>:
    50001428:	b40001a1 	cbz	x1, 5000145c <exit_loop_ivac>
    5000142c:	d53b0023 	mrs	x3, ctr_el0
    50001430:	d3504c63 	ubfx	x3, x3, #16, #4
    50001434:	d2800082 	mov	x2, #0x4                   	// #4
    50001438:	9ac32042 	lsl	x2, x2, x3
    5000143c:	8b010001 	add	x1, x0, x1
    50001440:	d1000443 	sub	x3, x2, #0x1
    50001444:	8a230000 	bic	x0, x0, x3

0000000050001448 <loop_ivac>:
    50001448:	d5087620 	dc	ivac, x0
    5000144c:	8b020000 	add	x0, x0, x2
    50001450:	eb01001f 	cmp	x0, x1
    50001454:	54ffffa3 	b.cc	50001448 <loop_ivac>  // b.lo, b.ul, b.last
    50001458:	d5033f9f 	dsb	sy

000000005000145c <exit_loop_ivac>:
    5000145c:	d65f03c0 	ret

0000000050001460 <longjmp>:
    50001460:	a9467c07 	ldp	x7, xzr, [x0, #96]
    50001464:	910003f3 	mov	x19, sp
    50001468:	eb1300ff 	cmp	x7, x19
    5000146c:	5400008a 	b.ge	5000147c <longjmp+0x1c>  // b.tcont
    50001470:	300b3960 	adr	x0, 50017b9d <panic_msg+0xc0>
    50001474:	d28005c1 	mov	x1, #0x2e                  	// #46
    50001478:	17fffd1b 	b	500008e4 <asm_assert>
    5000147c:	a9405013 	ldp	x19, x20, [x0]
    50001480:	a9415815 	ldp	x21, x22, [x0, #16]
    50001484:	a9426017 	ldp	x23, x24, [x0, #32]
    50001488:	a9436819 	ldp	x25, x26, [x0, #48]
    5000148c:	a944701b 	ldp	x27, x28, [x0, #64]
    50001490:	a945781d 	ldp	x29, x30, [x0, #80]
    50001494:	910000ff 	mov	sp, x7
    50001498:	ea010020 	ands	x0, x1, x1
    5000149c:	9a801400 	cinc	x0, x0, eq  // eq = none
    500014a0:	d65f03c0 	ret

00000000500014a4 <opteed_enter_sp>:
    500014a4:	910003e3 	mov	x3, sp
    500014a8:	f9000003 	str	x3, [x0]
    500014ac:	d10183ff 	sub	sp, sp, #0x60
    500014b0:	a90053f3 	stp	x19, x20, [sp]
    500014b4:	a9015bf5 	stp	x21, x22, [sp, #16]
    500014b8:	a90263f7 	stp	x23, x24, [sp, #32]
    500014bc:	a9036bf9 	stp	x25, x26, [sp, #48]
    500014c0:	a90473fb 	stp	x27, x28, [sp, #64]
    500014c4:	a9057bfd 	stp	x29, x30, [sp, #80]
    500014c8:	17fffe85 	b	50000edc <el3_exit>

00000000500014cc <opteed_exit_sp>:
    500014cc:	9100001f 	mov	sp, x0
    500014d0:	a97a5013 	ldp	x19, x20, [x0, #-96]
    500014d4:	a97b5815 	ldp	x21, x22, [x0, #-80]
    500014d8:	a97c6017 	ldp	x23, x24, [x0, #-64]
    500014dc:	a97d6819 	ldp	x25, x26, [x0, #-48]
    500014e0:	a97e701b 	ldp	x27, x28, [x0, #-32]
    500014e4:	a97f781d 	ldp	x29, x30, [x0, #-16]
    500014e8:	aa0103e0 	mov	x0, x1
    500014ec:	d65f03c0 	ret

00000000500014f0 <plat_core_pos_by_mpidr>:
    500014f0:	d348fc01 	lsr	x1, x0, #8
    500014f4:	92401c21 	and	x1, x1, #0xff
    500014f8:	d350fc02 	lsr	x2, x0, #16
    500014fc:	92401c42 	and	x2, x2, #0xff
    50001500:	92800000 	mov	x0, #0xffffffffffffffff    	// #-1
    50001504:	f1000c3f 	cmp	x1, #0x3
    50001508:	540000cc 	b.gt	50001520 <plat_core_pos_by_mpidr+0x30>
    5000150c:	f100085f 	cmp	x2, #0x2
    50001510:	5400008c 	b.gt	50001520 <plat_core_pos_by_mpidr+0x30>
    50001514:	d2800084 	mov	x4, #0x4                   	// #4
    50001518:	9b027c84 	mul	x4, x4, x2
    5000151c:	8b040020 	add	x0, x1, x4
    50001520:	d65f03c0 	ret

0000000050001524 <plat_crash_console_flush>:
    50001524:	900000c1 	adrp	x1, 50019000 <tegra234_ras_records_common+0x190>
    50001528:	91062021 	add	x1, x1, #0x188
    5000152c:	a9003c3e 	stp	x30, x15, [x1]
    50001530:	a9014430 	stp	x16, x17, [x1, #16]
    50001534:	9000012f 	adrp	x15, 50025000 <cpu_state+0x800>
    50001538:	f944d1ef 	ldr	x15, [x15, #2464]

000000005000153c <flush_loop>:
    5000153c:	b400014f 	cbz	x15, 50001564 <flush_done>
    50001540:	b94009e1 	ldr	w1, [x15, #8]
    50001544:	721e003f 	tst	w1, #0x4
    50001548:	540000a0 	b.eq	5000155c <flush_continue>  // b.none
    5000154c:	f94011e2 	ldr	x2, [x15, #32]
    50001550:	b4000062 	cbz	x2, 5000155c <flush_continue>
    50001554:	aa0f03e0 	mov	x0, x15
    50001558:	d63f0040 	blr	x2

000000005000155c <flush_continue>:
    5000155c:	f94001ef 	ldr	x15, [x15]
    50001560:	17fffff7 	b	5000153c <flush_loop>

0000000050001564 <flush_done>:
    50001564:	900000c1 	adrp	x1, 50019000 <tegra234_ras_records_common+0x190>
    50001568:	91062021 	add	x1, x1, #0x188
    5000156c:	a9403c3e 	ldp	x30, x15, [x1]
    50001570:	a9414430 	ldp	x16, x17, [x1, #16]
    50001574:	d65f03c0 	ret

0000000050001578 <plat_crash_console_init>:
    50001578:	aa1e03e4 	mov	x4, x30
    5000157c:	d2800003 	mov	x3, #0x0                   	// #0
    50001580:	d53e1001 	mrs	x1, sctlr_el3
    50001584:	f27e003f 	tst	x1, #0x4
    50001588:	54000080 	b.eq	50001598 <skip_spinlock>  // b.none
    5000158c:	900000c0 	adrp	x0, 50019000 <tegra234_ras_records_common+0x190>
    50001590:	910db000 	add	x0, x0, #0x36c
    50001594:	9400013b 	bl	50001a80 <spin_lock>

0000000050001598 <skip_spinlock>:
    50001598:	900000c1 	adrp	x1, 50019000 <tegra234_ras_records_common+0x190>
    5000159c:	910dc421 	add	x1, x1, #0x371
    500015a0:	08dffc22 	ldarb	w2, [x1]
    500015a4:	7100005f 	cmp	w2, #0x0
    500015a8:	54000061 	b.ne	500015b4 <init_error>  // b.any
    500015ac:	d2800023 	mov	x3, #0x1                   	// #1
    500015b0:	089ffc23 	stlrb	w3, [x1]

00000000500015b4 <init_error>:
    500015b4:	9400013b 	bl	50001aa0 <spin_unlock>
    500015b8:	aa0303e0 	mov	x0, x3
    500015bc:	d65f0080 	ret	x4

00000000500015c0 <plat_crash_console_putc>:
    500015c0:	900000c1 	adrp	x1, 50019000 <tegra234_ras_records_common+0x190>
    500015c4:	91062021 	add	x1, x1, #0x188
    500015c8:	a9003c2e 	stp	x14, x15, [x1]
    500015cc:	a9014430 	stp	x16, x17, [x1, #16]
    500015d0:	f900103e 	str	x30, [x1, #32]
    500015d4:	2a0003ee 	mov	w14, w0
    500015d8:	9000012f 	adrp	x15, 50025000 <cpu_state+0x800>
    500015dc:	f944d1ef 	ldr	x15, [x15, #2464]

00000000500015e0 <putc_loop>:
    500015e0:	b400026f 	cbz	x15, 5000162c <putc_done>
    500015e4:	b94009e1 	ldr	w1, [x15, #8]
    500015e8:	721e003f 	tst	w1, #0x4
    500015ec:	540001c0 	b.eq	50001624 <putc_continue>  // b.none
    500015f0:	f94009e2 	ldr	x2, [x15, #16]
    500015f4:	b4000182 	cbz	x2, 50001624 <putc_continue>
    500015f8:	710029df 	cmp	w14, #0xa
    500015fc:	540000e1 	b.ne	50001618 <putc>  // b.any
    50001600:	7218003f 	tst	w1, #0x100
    50001604:	540000a0 	b.eq	50001618 <putc>  // b.none
    50001608:	aa0f03e1 	mov	x1, x15
    5000160c:	528001a0 	mov	w0, #0xd                   	// #13
    50001610:	d63f0040 	blr	x2
    50001614:	f94009e2 	ldr	x2, [x15, #16]

0000000050001618 <putc>:
    50001618:	aa0f03e1 	mov	x1, x15
    5000161c:	2a0e03e0 	mov	w0, w14
    50001620:	d63f0040 	blr	x2

0000000050001624 <putc_continue>:
    50001624:	f94001ef 	ldr	x15, [x15]
    50001628:	17ffffee 	b	500015e0 <putc_loop>

000000005000162c <putc_done>:
    5000162c:	900000c1 	adrp	x1, 50019000 <tegra234_ras_records_common+0x190>
    50001630:	91062021 	add	x1, x1, #0x188
    50001634:	a9403c2e 	ldp	x14, x15, [x1]
    50001638:	a9414430 	ldp	x16, x17, [x1, #16]
    5000163c:	f940103e 	ldr	x30, [x1, #32]
    50001640:	d65f03c0 	ret

0000000050001644 <plat_get_my_entrypoint>:
    50001644:	100bdb61 	adr	x1, 500191b0 <tegra_sec_entry_point>
    50001648:	f9400020 	ldr	x0, [x1]
    5000164c:	d65f03c0 	ret

0000000050001650 <plat_get_my_stack>:
    50001650:	aa1e03ea 	mov	x10, x30
    50001654:	94000008 	bl	50001674 <plat_my_core_pos>
    50001658:	900000c2 	adrp	x2, 50019000 <tegra234_ras_records_common+0x190>
    5000165c:	911e0042 	add	x2, x2, #0x780
    50001660:	d2808001 	mov	x1, #0x400                 	// #1024
    50001664:	9b010800 	madd	x0, x0, x1, x2
    50001668:	d65f0140 	ret	x10

000000005000166c <plat_handle_double_fault>:
    5000166c:	14000088 	b	5000188c <report_unhandled_exception>

0000000050001670 <plat_handle_uncontainable_ea>:
    50001670:	14000087 	b	5000188c <report_unhandled_exception>

0000000050001674 <plat_my_core_pos>:
    50001674:	aa1e03e8 	mov	x8, x30
    50001678:	d53800a0 	mrs	x0, mpidr_el1
    5000167c:	97ffff9d 	bl	500014f0 <plat_core_pos_by_mpidr>
    50001680:	d65f0100 	ret	x8

0000000050001684 <plat_panic_handler>:
    50001684:	d503207f 	wfi
    50001688:	17ffffff 	b	50001684 <plat_panic_handler>

000000005000168c <plat_reset_handler>:
    5000168c:	10ff4bb2 	adr	x18, 50000000 <bl31_entrypoint>
    50001690:	d2aa0011 	mov	x17, #0x50000000            	// #1342177280
    50001694:	eb11025f 	cmp	x18, x17
    50001698:	54000260 	b.eq	500016e4 <_end+0xc>  // b.none
    5000169c:	aa1103e0 	mov	x0, x17
    500016a0:	aa1203e1 	mov	x1, x18
    500016a4:	100d66e2 	adr	x2, 5001c380 <__STACKS_END__>
    500016a8:	cb120042 	sub	x2, x2, x18

00000000500016ac <_loop16>:
    500016ac:	f100405f 	cmp	x2, #0x10
    500016b0:	540000a3 	b.cc	500016c4 <_loop1>  // b.lo, b.ul, b.last
    500016b4:	a8c11023 	ldp	x3, x4, [x1], #16
    500016b8:	a8811003 	stp	x3, x4, [x0], #16
    500016bc:	d1004042 	sub	x2, x2, #0x10
    500016c0:	17fffffb 	b	500016ac <_loop16>

00000000500016c4 <_loop1>:
    500016c4:	b40000a2 	cbz	x2, 500016d8 <_end>
    500016c8:	38401423 	ldrb	w3, [x1], #1
    500016cc:	38001403 	strb	w3, [x0], #1
    500016d0:	f1000442 	subs	x2, x2, #0x1
    500016d4:	54ffff81 	b.ne	500016c4 <_loop1>  // b.any

00000000500016d8 <_end>:
    500016d8:	aa1403e0 	mov	x0, x20
    500016dc:	aa1503e1 	mov	x1, x21
    500016e0:	d61f0220 	br	x17
    500016e4:	100bd6f1 	adr	x17, 500191c0 <tegra_bl31_phys_base>
    500016e8:	f9400232 	ldr	x18, [x17]
    500016ec:	b5000072 	cbnz	x18, 500016f8 <_end+0x20>
    500016f0:	10ff4892 	adr	x18, 50000000 <bl31_entrypoint>
    500016f4:	f9000232 	str	x18, [x17]
    500016f8:	d5380000 	mrs	x0, midr_el1
    500016fc:	d29ffe01 	mov	x1, #0xfff0                	// #65520
    50001700:	8a010000 	and	x0, x0, x1
    50001704:	d344fc00 	lsr	x0, x0, #4
    50001708:	f1341c1f 	cmp	x0, #0xd07
    5000170c:	540002c1 	b.ne	50001764 <_end+0x8c>  // b.any
    50001710:	d539b060 	mrs	x0, s3_1_c11_c0_3
    50001714:	d28000e1 	mov	x1, #0x7                   	// #7
    50001718:	927df000 	and	x0, x0, #0xfffffffffffffff8
    5000171c:	aa010000 	orr	x0, x0, x1
    50001720:	d519b060 	msr	s3_1_c11_c0_3, x0
    50001724:	d5033fdf 	isb
    50001728:	d539f220 	mrs	x0, s3_1_c15_c2_1
    5000172c:	d28000e1 	mov	x1, #0x7                   	// #7
    50001730:	927df000 	and	x0, x0, #0xfffffffffffffff8
    50001734:	aa010000 	orr	x0, x0, x1
    50001738:	d519f220 	msr	s3_1_c15_c2_1, x0
    5000173c:	d5033fdf 	isb
    50001740:	d53e1020 	mrs	x0, actlr_el3
    50001744:	d2800e61 	mov	x1, #0x73                  	// #115
    50001748:	aa010000 	orr	x0, x0, x1
    5000174c:	d51e1020 	msr	actlr_el3, x0
    50001750:	d53c1020 	mrs	x0, actlr_el2
    50001754:	d2800e61 	mov	x1, #0x73                  	// #115
    50001758:	aa010000 	orr	x0, x0, x1
    5000175c:	d51c1020 	msr	actlr_el2, x0
    50001760:	d5033fdf 	isb
    50001764:	d53b9c00 	mrs	x0, pmcr_el0
    50001768:	d34b3c00 	ubfx	x0, x0, #11, #5
    5000176c:	d2800021 	mov	x1, #0x1                   	// #1
    50001770:	9ac02020 	lsl	x0, x1, x0
    50001774:	d1000400 	sub	x0, x0, #0x1
    50001778:	b2610000 	orr	x0, x0, #0x80000000
    5000177c:	d5189e40 	msr	pmintenclr_el1, x0
    50001780:	d51b9e01 	msr	pmuserenr_el0, x1
    50001784:	d538e100 	mrs	x0, cntkctl_el1
    50001788:	b27f0000 	orr	x0, x0, #0x2
    5000178c:	d518e100 	msr	cntkctl_el1, x0
    50001790:	d65f03c0 	ret

0000000050001794 <plat_set_my_stack>:
    50001794:	aa1e03e9 	mov	x9, x30
    50001798:	97ffffae 	bl	50001650 <plat_get_my_stack>
    5000179c:	9100001f 	mov	sp, x0
    500017a0:	d65f0120 	ret	x9

00000000500017a4 <platform_mem_init>:
    500017a4:	d2800000 	mov	x0, #0x0                   	// #0
    500017a8:	d65f03c0 	ret

00000000500017ac <prepare_cpu_pwr_dwn>:
    500017ac:	d2800022 	mov	x2, #0x1                   	// #1
    500017b0:	eb02001f 	cmp	x0, x2
    500017b4:	9a808042 	csel	x2, x2, x0, hi  // hi = pmore
    500017b8:	d53ed041 	mrs	x1, tpidr_el3
    500017bc:	f9400820 	ldr	x0, [x1, #16]
    500017c0:	f100001f 	cmp	x0, #0x0
    500017c4:	54000081 	b.ne	500017d4 <prepare_cpu_pwr_dwn+0x28>  // b.any
    500017c8:	300b1520 	adr	x0, 50017a6d <cortex_a78_ae_regs+0xe>
    500017cc:	d2800941 	mov	x1, #0x4a                  	// #74
    500017d0:	17fffc45 	b	500008e4 <asm_assert>
    500017d4:	d2800601 	mov	x1, #0x30                  	// #48
    500017d8:	8b020c21 	add	x1, x1, x2, lsl #3
    500017dc:	f8616801 	ldr	x1, [x0, x1]
    500017e0:	f100003f 	cmp	x1, #0x0
    500017e4:	54000081 	b.ne	500017f4 <prepare_cpu_pwr_dwn+0x48>  // b.any
    500017e8:	300b1420 	adr	x0, 50017a6d <cortex_a78_ae_regs+0xe>
    500017ec:	d2800a61 	mov	x1, #0x53                  	// #83
    500017f0:	17fffc3d 	b	500008e4 <asm_assert>
    500017f4:	d61f0020 	br	x1

00000000500017f8 <prepare_el3_entry>:
    500017f8:	a90007e0 	stp	x0, x1, [sp]
    500017fc:	a9010fe2 	stp	x2, x3, [sp, #16]
    50001800:	a90217e4 	stp	x4, x5, [sp, #32]
    50001804:	a9031fe6 	stp	x6, x7, [sp, #48]
    50001808:	a90427e8 	stp	x8, x9, [sp, #64]
    5000180c:	a9052fea 	stp	x10, x11, [sp, #80]
    50001810:	a90637ec 	stp	x12, x13, [sp, #96]
    50001814:	a9073fee 	stp	x14, x15, [sp, #112]
    50001818:	a90847f0 	stp	x16, x17, [sp, #128]
    5000181c:	a9094ff2 	stp	x18, x19, [sp, #144]
    50001820:	a90a57f4 	stp	x20, x21, [sp, #160]
    50001824:	a90b5ff6 	stp	x22, x23, [sp, #176]
    50001828:	a90c67f8 	stp	x24, x25, [sp, #192]
    5000182c:	a90d6ffa 	stp	x26, x27, [sp, #208]
    50001830:	a90e77fc 	stp	x28, x29, [sp, #224]
    50001834:	d5384112 	mrs	x18, sp_el0
    50001838:	f9007ff2 	str	x18, [sp, #248]
    5000183c:	d2a0100a 	mov	x10, #0x800000              	// #8388608
    50001840:	f2c0008a 	movk	x10, #0x4, lsl #32
    50001844:	d53e1329 	mrs	x9, mdcr_el3
    50001848:	ea0a013f 	tst	x9, x10
    5000184c:	54000121 	b.ne	50001870 <prepare_el3_entry+0x78>  // b.any
    50001850:	d53b9c09 	mrs	x9, pmcr_el0
    50001854:	d53e110a 	mrs	x10, scr_el3
    50001858:	f240015f 	tst	x10, #0x1
    5000185c:	54000040 	b.eq	50001864 <prepare_el3_entry+0x6c>  // b.none
    50001860:	f90097e9 	str	x9, [sp, #296]
    50001864:	b27b0129 	orr	x9, x9, #0x20
    50001868:	d51b9c09 	msr	pmcr_el0, x9
    5000186c:	d5033fdf 	isb
    50001870:	d65f03c0 	ret

0000000050001874 <print_alignment>:
    50001874:	700af944 	adr	x4, 5001779f <spacer+0x3>
    50001878:	8b000084 	add	x4, x4, x0
    5000187c:	17fffc29 	b	50000920 <asm_print_str>

0000000050001880 <psci_power_down_wfi>:
    50001880:	d5033f9f 	dsb	sy
    50001884:	d503207f 	wfi
    50001888:	97ffff7f 	bl	50001684 <plat_panic_handler>

000000005000188c <report_unhandled_exception>:
    5000188c:	9100001f 	mov	sp, x0
    50001890:	d53ed040 	mrs	x0, tpidr_el3
    50001894:	9100a000 	add	x0, x0, #0x28
    50001898:	d51ed040 	msr	tpidr_el3, x0
    5000189c:	f9000401 	str	x1, [x0, #8]
    500018a0:	910003e1 	mov	x1, sp
    500018a4:	f9000001 	str	x1, [x0]
    500018a8:	500b09a0 	adr	x0, 500179de <excpt_msg>
    500018ac:	9100001f 	mov	sp, x0
    500018b0:	17fffdb3 	b	50000f7c <do_crash_reporting>

00000000500018b4 <report_unhandled_interrupt>:
    500018b4:	9100001f 	mov	sp, x0
    500018b8:	d53ed040 	mrs	x0, tpidr_el3
    500018bc:	9100a000 	add	x0, x0, #0x28
    500018c0:	d51ed040 	msr	tpidr_el3, x0
    500018c4:	f9000401 	str	x1, [x0, #8]
    500018c8:	910003e1 	mov	x1, sp
    500018cc:	f9000001 	str	x1, [x0]
    500018d0:	500b0960 	adr	x0, 500179fe <intr_excpt_msg>
    500018d4:	9100001f 	mov	sp, x0
    500018d8:	17fffda9 	b	50000f7c <do_crash_reporting>

00000000500018dc <reset_handler>:
    500018dc:	aa1e03f3 	mov	x19, x30
    500018e0:	97ffff6b 	bl	5000168c <plat_reset_handler>
    500018e4:	97fffea7 	bl	50001380 <get_cpu_ops_ptr>
    500018e8:	f100001f 	cmp	x0, #0x0
    500018ec:	54000081 	b.ne	500018fc <reset_handler+0x20>  // b.any
    500018f0:	300b0be0 	adr	x0, 50017a6d <cortex_a78_ae_regs+0xe>
    500018f4:	d2800461 	mov	x1, #0x23                  	// #35
    500018f8:	17fffbfb 	b	500008e4 <asm_assert>
    500018fc:	f9400402 	ldr	x2, [x0, #8]
    50001900:	aa1303fe 	mov	x30, x19
    50001904:	b4000042 	cbz	x2, 5000190c <reset_handler+0x30>
    50001908:	d61f0040 	br	x2
    5000190c:	d65f03c0 	ret

0000000050001910 <restore_gp_pmcr_pauth_regs>:
    50001910:	d53e1100 	mrs	x0, scr_el3
    50001914:	f240001f 	tst	x0, #0x1
    50001918:	54000100 	b.eq	50001938 <restore_gp_pmcr_pauth_regs+0x28>  // b.none
    5000191c:	d2a01001 	mov	x1, #0x800000              	// #8388608
    50001920:	f2c00081 	movk	x1, #0x4, lsl #32
    50001924:	d53e1320 	mrs	x0, mdcr_el3
    50001928:	ea01001f 	tst	x0, x1
    5000192c:	54000061 	b.ne	50001938 <restore_gp_pmcr_pauth_regs+0x28>  // b.any
    50001930:	f94097e0 	ldr	x0, [sp, #296]
    50001934:	d51b9c00 	msr	pmcr_el0, x0
    50001938:	a94007e0 	ldp	x0, x1, [sp]
    5000193c:	a9410fe2 	ldp	x2, x3, [sp, #16]
    50001940:	a94217e4 	ldp	x4, x5, [sp, #32]
    50001944:	a9431fe6 	ldp	x6, x7, [sp, #48]
    50001948:	a94427e8 	ldp	x8, x9, [sp, #64]
    5000194c:	a9452fea 	ldp	x10, x11, [sp, #80]
    50001950:	a94637ec 	ldp	x12, x13, [sp, #96]
    50001954:	a9473fee 	ldp	x14, x15, [sp, #112]
    50001958:	a94847f0 	ldp	x16, x17, [sp, #128]
    5000195c:	a9494ff2 	ldp	x18, x19, [sp, #144]
    50001960:	a94a57f4 	ldp	x20, x21, [sp, #160]
    50001964:	a94b5ff6 	ldp	x22, x23, [sp, #176]
    50001968:	a94c67f8 	ldp	x24, x25, [sp, #192]
    5000196c:	a94d6ffa 	ldp	x26, x27, [sp, #208]
    50001970:	f9407ffc 	ldr	x28, [sp, #248]
    50001974:	d518411c 	msr	sp_el0, x28
    50001978:	a94e77fc 	ldp	x28, x29, [sp, #224]
    5000197c:	d65f03c0 	ret

0000000050001980 <setjmp>:
    50001980:	910003e7 	mov	x7, sp
    50001984:	a9005013 	stp	x19, x20, [x0]
    50001988:	a9015815 	stp	x21, x22, [x0, #16]
    5000198c:	a9026017 	stp	x23, x24, [x0, #32]
    50001990:	a9036819 	stp	x25, x26, [x0, #48]
    50001994:	a904701b 	stp	x27, x28, [x0, #64]
    50001998:	a905781d 	stp	x29, x30, [x0, #80]
    5000199c:	a9067c07 	stp	x7, xzr, [x0, #96]
    500019a0:	d2800000 	mov	x0, #0x0                   	// #0
    500019a4:	d65f03c0 	ret

00000000500019a8 <size_controlled_print>:
    500019a8:	910003df 	mov	sp, x30
    500019ac:	d53ed047 	mrs	x7, tpidr_el3

00000000500019b0 <test_size_list>:
    500019b0:	d53ed045 	mrs	x5, tpidr_el3
    500019b4:	910100a5 	add	x5, x5, #0x40
    500019b8:	eb0500ff 	cmp	x7, x5
    500019bc:	54000180 	b.eq	500019ec <exit_size_print>  // b.none
    500019c0:	394000c4 	ldrb	w4, [x6]
    500019c4:	34000144 	cbz	w4, 500019ec <exit_size_print>
    500019c8:	aa0603e4 	mov	x4, x6
    500019cc:	97fffbd5 	bl	50000920 <asm_print_str>
    500019d0:	cb060080 	sub	x0, x4, x6
    500019d4:	aa0403e6 	mov	x6, x4
    500019d8:	97ffffa7 	bl	50001874 <print_alignment>
    500019dc:	f84084e4 	ldr	x4, [x7], #8
    500019e0:	97fffbc2 	bl	500008e8 <asm_print_hex>
    500019e4:	97fffbcd 	bl	50000918 <asm_print_newline>
    500019e8:	17fffff2 	b	500019b0 <test_size_list>

00000000500019ec <exit_size_print>:
    500019ec:	910003fe 	mov	x30, sp
    500019f0:	d65f03c0 	ret

00000000500019f4 <smc_handler>:
    500019f4:	37f003a0 	tbnz	w0, #30, 50001a68 <smc_prohibited>

00000000500019f8 <smc_handler64>:
    500019f8:	97ffff80 	bl	500017f8 <prepare_el3_entry>
    500019fc:	aa1f03e5 	mov	x5, xzr
    50001a00:	910003e6 	mov	x6, sp
    50001a04:	f94088cc 	ldr	x12, [x6, #272]
    50001a08:	d50040bf 	msr	spsel, #0x0
    50001a0c:	d53e4010 	mrs	x16, spsr_el3
    50001a10:	d53e4031 	mrs	x17, elr_el3
    50001a14:	d53e1112 	mrs	x18, scr_el3
    50001a18:	a911c4d0 	stp	x16, x17, [x6, #280]
    50001a1c:	f90080d2 	str	x18, [x6, #256]
    50001a20:	aa1f03e7 	mov	x7, xzr
    50001a24:	b3400247 	bfxil	x7, x18, #0, #1
    50001a28:	9100019f 	mov	sp, x12
    50001a2c:	d3587410 	ubfx	x16, x0, #24, #6
    50001a30:	d35f7c0f 	ubfx	x15, x0, #31, #1
    50001a34:	aa0f1a10 	orr	x16, x16, x15, lsl #6
    50001a38:	9000012e 	adrp	x14, 50025000 <cpu_state+0x800>
    50001a3c:	913db1ce 	add	x14, x14, #0xf6c
    50001a40:	387069cf 	ldrb	w15, [x14, x16]
    50001a44:	373800cf 	tbnz	w15, #7, 50001a5c <smc_unknown>
    50001a48:	100b0c4b 	adr	x11, 50017bd0 <__RT_SVC_DESCS_START__+0x18>
    50001a4c:	531b69ea 	lsl	w10, w15, #5
    50001a50:	f86a496f 	ldr	x15, [x11, w10, uxtw]
    50001a54:	d63f01e0 	blr	x15
    50001a58:	17fffd21 	b	50000edc <el3_exit>

0000000050001a5c <smc_unknown>:
    50001a5c:	92800000 	mov	x0, #0xffffffffffffffff    	// #-1
    50001a60:	f90000c0 	str	x0, [x6]
    50001a64:	17fffd1e 	b	50000edc <el3_exit>

0000000050001a68 <smc_prohibited>:
    50001a68:	a94e77fc 	ldp	x28, x29, [sp, #224]
    50001a6c:	f9407bfe 	ldr	x30, [sp, #240]
    50001a70:	92800000 	mov	x0, #0xffffffffffffffff    	// #-1
    50001a74:	d69f03e0 	eret
    50001a78:	d503379f 	dsb	nsh
    50001a7c:	d5033fdf 	isb

0000000050001a80 <spin_lock>:
    50001a80:	52800022 	mov	w2, #0x1                   	// #1
    50001a84:	d50320bf 	sevl

0000000050001a88 <l1>:
    50001a88:	d503205f 	wfe

0000000050001a8c <l2>:
    50001a8c:	885ffc01 	ldaxr	w1, [x0]
    50001a90:	35ffffc1 	cbnz	w1, 50001a88 <l1>
    50001a94:	88017c02 	stxr	w1, w2, [x0]
    50001a98:	35ffffa1 	cbnz	w1, 50001a8c <l2>
    50001a9c:	d65f03c0 	ret

0000000050001aa0 <spin_unlock>:
    50001aa0:	889ffc1f 	stlr	wzr, [x0]
    50001aa4:	d65f03c0 	ret

0000000050001aa8 <str_in_crash_buf_print>:
    50001aa8:	d53ed040 	mrs	x0, tpidr_el3
    50001aac:	a9002408 	stp	x8, x9, [x0]
    50001ab0:	a9012c0a 	stp	x10, x11, [x0, #16]
    50001ab4:	a902340c 	stp	x12, x13, [x0, #32]
    50001ab8:	a9033c0e 	stp	x14, x15, [x0, #48]
    50001abc:	17ffffbb 	b	500019a8 <size_controlled_print>

0000000050001ac0 <update_stack_protector_canary>:
    50001ac0:	aa1e03f3 	mov	x19, x30
    50001ac4:	94001939 	bl	50007fa8 <plat_get_stack_protector_canary>
    50001ac8:	900000c1 	adrp	x1, 50019000 <tegra234_ras_records_common+0x190>
    50001acc:	f9008820 	str	x0, [x1, #272]
    50001ad0:	d65f0260 	ret	x19

0000000050001ad4 <wa_cve_2018_3639_get_disable_ptr>:
    50001ad4:	d53ed040 	mrs	x0, tpidr_el3
    50001ad8:	f100001f 	cmp	x0, #0x0
    50001adc:	54000081 	b.ne	50001aec <wa_cve_2018_3639_get_disable_ptr+0x18>  // b.any
    50001ae0:	300afc60 	adr	x0, 50017a6d <cortex_a78_ae_regs+0xe>
    50001ae4:	d2803321 	mov	x1, #0x199                 	// #409
    50001ae8:	17fffb7f 	b	500008e4 <asm_assert>
    50001aec:	f9400800 	ldr	x0, [x0, #16]
    50001af0:	f100001f 	cmp	x0, #0x0
    50001af4:	54000081 	b.ne	50001b04 <wa_cve_2018_3639_get_disable_ptr+0x30>  // b.any
    50001af8:	300afba0 	adr	x0, 50017a6d <cortex_a78_ae_regs+0xe>
    50001afc:	d28033c1 	mov	x1, #0x19e                 	// #414
    50001b00:	17fffb79 	b	500008e4 <asm_assert>
    50001b04:	f9400c00 	ldr	x0, [x0, #24]
    50001b08:	d65f03c0 	ret

0000000050001b0c <zeromem>:
    50001b0c:	8b010002 	add	x2, x0, x1
    50001b10:	1400003b 	b	50001bfc <zero_normalmem+0xe8>

0000000050001b14 <zero_normalmem>:
    50001b14:	d53e1004 	mrs	x4, sctlr_el3
    50001b18:	f240009f 	tst	x4, #0x1
    50001b1c:	54000081 	b.ne	50001b2c <zero_normalmem+0x18>  // b.any
    50001b20:	500afe60 	adr	x0, 50017aee <panic_msg+0x11>
    50001b24:	d28015c1 	mov	x1, #0xae                  	// #174
    50001b28:	17fffb6f 	b	500008e4 <asm_assert>
    50001b2c:	8b010002 	add	x2, x0, x1
    50001b30:	d53b00e3 	mrs	x3, dczid_el0
    50001b34:	d3400c63 	ubfx	x3, x3, #0, #4
    50001b38:	d2800085 	mov	x5, #0x4                   	// #4
    50001b3c:	9ac320a3 	lsl	x3, x5, x3
    50001b40:	f100407f 	cmp	x3, #0x10
    50001b44:	54000082 	b.cs	50001b54 <zero_normalmem+0x40>  // b.hs, b.nlast
    50001b48:	500afd20 	adr	x0, 50017aee <panic_msg+0x11>
    50001b4c:	d2801901 	mov	x1, #0xc8                  	// #200
    50001b50:	17fffb65 	b	500008e4 <asm_assert>
    50001b54:	eb03003f 	cmp	x1, x3
    50001b58:	54000523 	b.cc	50001bfc <zero_normalmem+0xe8>  // b.lo, b.ul, b.last
    50001b5c:	d1000461 	sub	x1, x3, #0x1
    50001b60:	ea01001f 	tst	x0, x1
    50001b64:	54000260 	b.eq	50001bb0 <zero_normalmem+0x9c>  // b.none
    50001b68:	aa010004 	orr	x4, x0, x1
    50001b6c:	91000484 	add	x4, x4, #0x1
    50001b70:	b4000464 	cbz	x4, 50001bfc <zero_normalmem+0xe8>
    50001b74:	eb02009f 	cmp	x4, x2
    50001b78:	54000428 	b.hi	50001bfc <zero_normalmem+0xe8>  // b.pmore
    50001b7c:	f2400c1f 	tst	x0, #0xf
    50001b80:	540000e0 	b.eq	50001b9c <zero_normalmem+0x88>  // b.none
    50001b84:	b2400c05 	orr	x5, x0, #0xf
    50001b88:	910004a5 	add	x5, x5, #0x1
    50001b8c:	b4000385 	cbz	x5, 50001bfc <zero_normalmem+0xe8>
    50001b90:	3800141f 	strb	wzr, [x0], #1
    50001b94:	eb05001f 	cmp	x0, x5
    50001b98:	54ffffc1 	b.ne	50001b90 <zero_normalmem+0x7c>  // b.any
    50001b9c:	eb04001f 	cmp	x0, x4
    50001ba0:	54000082 	b.cs	50001bb0 <zero_normalmem+0x9c>  // b.hs, b.nlast
    50001ba4:	a8817c1f 	stp	xzr, xzr, [x0], #16
    50001ba8:	eb04001f 	cmp	x0, x4
    50001bac:	54ffffc3 	b.cc	50001ba4 <zero_normalmem+0x90>  // b.lo, b.ul, b.last
    50001bb0:	8a210044 	bic	x4, x2, x1
    50001bb4:	eb04001f 	cmp	x0, x4
    50001bb8:	540000a2 	b.cs	50001bcc <zero_normalmem+0xb8>  // b.hs, b.nlast
    50001bbc:	d50b7420 	dc	zva, x0
    50001bc0:	8b030000 	add	x0, x0, x3
    50001bc4:	eb04001f 	cmp	x0, x4
    50001bc8:	54ffffa3 	b.cc	50001bbc <zero_normalmem+0xa8>  // b.lo, b.ul, b.last
    50001bcc:	927cec44 	and	x4, x2, #0xfffffffffffffff0
    50001bd0:	eb04001f 	cmp	x0, x4
    50001bd4:	54000082 	b.cs	50001be4 <zero_normalmem+0xd0>  // b.hs, b.nlast
    50001bd8:	a8817c1f 	stp	xzr, xzr, [x0], #16
    50001bdc:	eb04001f 	cmp	x0, x4
    50001be0:	54ffffc3 	b.cc	50001bd8 <zero_normalmem+0xc4>  // b.lo, b.ul, b.last
    50001be4:	eb02001f 	cmp	x0, x2
    50001be8:	54000080 	b.eq	50001bf8 <zero_normalmem+0xe4>  // b.none
    50001bec:	3800141f 	strb	wzr, [x0], #1
    50001bf0:	eb02001f 	cmp	x0, x2
    50001bf4:	54ffffc1 	b.ne	50001bec <zero_normalmem+0xd8>  // b.any
    50001bf8:	d65f03c0 	ret
    50001bfc:	f2400c1f 	tst	x0, #0xf
    50001c00:	54fffe60 	b.eq	50001bcc <zero_normalmem+0xb8>  // b.none
    50001c04:	b2400c04 	orr	x4, x0, #0xf
    50001c08:	91000484 	add	x4, x4, #0x1
    50001c0c:	b4fffec4 	cbz	x4, 50001be4 <zero_normalmem+0xd0>
    50001c10:	eb02009f 	cmp	x4, x2
    50001c14:	54fffe82 	b.cs	50001be4 <zero_normalmem+0xd0>  // b.hs, b.nlast
    50001c18:	3800141f 	strb	wzr, [x0], #1
    50001c1c:	eb04001f 	cmp	x0, x4
    50001c20:	54ffffc1 	b.ne	50001c18 <zero_normalmem+0x104>  // b.any
    50001c24:	17ffffea 	b	50001bcc <zero_normalmem+0xb8>

0000000050001c28 <bakery_lock_get>:
    50001c28:	a9be7bfd 	stp	x29, x30, [sp, #-32]!
    50001c2c:	910003fd 	mov	x29, sp
    50001c30:	a90153f3 	stp	x19, x20, [sp, #16]
    50001c34:	aa0003f3 	mov	x19, x0
    50001c38:	97fffe8f 	bl	50001674 <plat_my_core_pos>
    50001c3c:	2a0003f4 	mov	w20, w0
    50001c40:	9400114e 	bl	50006178 <is_dcache_enabled>
    50001c44:	b0000125 	adrp	x5, 50026000 <psci_req_local_pwr_states+0x13>
    50001c48:	12001c03 	and	w3, w0, #0xff
    50001c4c:	910200a5 	add	x5, x5, #0x80
    50001c50:	b0000120 	adrp	x0, 50026000 <psci_req_local_pwr_states+0x13>
    50001c54:	91010000 	add	x0, x0, #0x40
    50001c58:	2a1403e6 	mov	w6, w20
    50001c5c:	cb0000a5 	sub	x5, x5, x0
    50001c60:	9b057cc6 	mul	x6, x6, x5
    50001c64:	ab1300c0 	adds	x0, x6, x19
    50001c68:	540000e1 	b.ne	50001c84 <bakery_lock_get+0x5c>  // b.any
    50001c6c:	f0000082 	adrp	x2, 50014000 <CSWTCH.216+0x420>
    50001c70:	91042442 	add	x2, x2, #0x109
    50001c74:	52800e21 	mov	w1, #0x71                  	// #113
    50001c78:	f0000080 	adrp	x0, 50014000 <CSWTCH.216+0x420>
    50001c7c:	91048000 	add	x0, x0, #0x120
    50001c80:	97fff98d 	bl	500002b4 <__assert>
    50001c84:	aa1303e4 	mov	x4, x19
    50001c88:	34000043 	cbz	w3, 50001c90 <bakery_lock_get+0x68>
    50001c8c:	d50b7e20 	dc	civac, x0
    50001c90:	d5033bbf 	dmb	ish
    50001c94:	787368c2 	ldrh	w2, [x6, x19]
    50001c98:	d3413c42 	ubfx	x2, x2, #1, #15
    50001c9c:	340000a2 	cbz	w2, 50001cb0 <bakery_lock_get+0x88>
    50001ca0:	f0000082 	adrp	x2, 50014000 <CSWTCH.216+0x420>
    50001ca4:	52800e81 	mov	w1, #0x74                  	// #116
    50001ca8:	91051842 	add	x2, x2, #0x146
    50001cac:	17fffff3 	b	50001c78 <bakery_lock_get+0x50>
    50001cb0:	52800021 	mov	w1, #0x1                   	// #1
    50001cb4:	783368c1 	strh	w1, [x6, x19]
    50001cb8:	340001a3 	cbz	w3, 50001cec <bakery_lock_get+0xc4>
    50001cbc:	d50b7a20 	dc	cvac, x0
    50001cc0:	d5033b9f 	dsb	ish
    50001cc4:	aa1303e7 	mov	x7, x19
    50001cc8:	52800001 	mov	w1, #0x0                   	// #0
    50001ccc:	52800008 	mov	w8, #0x0                   	// #0
    50001cd0:	6b08029f 	cmp	w20, w8
    50001cd4:	540001e0 	b.eq	50001d10 <bakery_lock_get+0xe8>  // b.none
    50001cd8:	b50000e7 	cbnz	x7, 50001cf4 <bakery_lock_get+0xcc>
    50001cdc:	f0000082 	adrp	x2, 50014000 <CSWTCH.216+0x420>
    50001ce0:	52801181 	mov	w1, #0x8c                  	// #140
    50001ce4:	9105cc42 	add	x2, x2, #0x173
    50001ce8:	17ffffe4 	b	50001c78 <bakery_lock_get+0x50>
    50001cec:	d5087620 	dc	ivac, x0
    50001cf0:	17fffff4 	b	50001cc0 <bakery_lock_get+0x98>
    50001cf4:	34000043 	cbz	w3, 50001cfc <bakery_lock_get+0xd4>
    50001cf8:	d50b7e27 	dc	civac, x7
    50001cfc:	d5033bbf 	dmb	ish
    50001d00:	794000e9 	ldrh	w9, [x7]
    50001d04:	d3413d29 	ubfx	x9, x9, #1, #15
    50001d08:	6b09003f 	cmp	w1, w9
    50001d0c:	1a892021 	csel	w1, w1, w9, cs  // cs = hs, nlast
    50001d10:	11000508 	add	w8, w8, #0x1
    50001d14:	8b0500e7 	add	x7, x7, x5
    50001d18:	7100311f 	cmp	w8, #0xc
    50001d1c:	54fffda1 	b.ne	50001cd0 <bakery_lock_get+0xa8>  // b.any
    50001d20:	11000421 	add	w1, w1, #0x1
    50001d24:	531f3827 	ubfiz	w7, w1, #1, #15
    50001d28:	783368c7 	strh	w7, [x6, x19]
    50001d2c:	34000163 	cbz	w3, 50001d58 <bakery_lock_get+0x130>
    50001d30:	d50b7a20 	dc	cvac, x0
    50001d34:	d5033b9f 	dsb	ish
    50001d38:	2a012281 	orr	w1, w20, w1, lsl #8
    50001d3c:	6b02029f 	cmp	w20, w2
    50001d40:	54000380 	b.eq	50001db0 <bakery_lock_get+0x188>  // b.none
    50001d44:	b50000e4 	cbnz	x4, 50001d60 <bakery_lock_get+0x138>
    50001d48:	f0000082 	adrp	x2, 50014000 <CSWTCH.216+0x420>
    50001d4c:	52801821 	mov	w1, #0xc1                  	// #193
    50001d50:	9105cc42 	add	x2, x2, #0x173
    50001d54:	17ffffc9 	b	50001c78 <bakery_lock_get+0x50>
    50001d58:	d5087620 	dc	ivac, x0
    50001d5c:	17fffff6 	b	50001d34 <bakery_lock_get+0x10c>
    50001d60:	34000043 	cbz	w3, 50001d68 <bakery_lock_get+0x140>
    50001d64:	d50b7e24 	dc	civac, x4
    50001d68:	d5033bbf 	dmb	ish
    50001d6c:	79400086 	ldrh	w6, [x4]
    50001d70:	12003cc0 	and	w0, w6, #0xffff
    50001d74:	3707ff66 	tbnz	w6, #0, 50001d60 <bakery_lock_get+0x138>
    50001d78:	53017c06 	lsr	w6, w0, #1
    50001d7c:	6b4007ff 	cmp	wzr, w0, lsr #1
    50001d80:	54000180 	b.eq	50001db0 <bakery_lock_get+0x188>  // b.none
    50001d84:	2a062040 	orr	w0, w2, w6, lsl #8
    50001d88:	6b00003f 	cmp	w1, w0
    50001d8c:	54000129 	b.ls	50001db0 <bakery_lock_get+0x188>  // b.plast
    50001d90:	d503205f 	wfe
    50001d94:	34000043 	cbz	w3, 50001d9c <bakery_lock_get+0x174>
    50001d98:	d50b7e24 	dc	civac, x4
    50001d9c:	d5033bbf 	dmb	ish
    50001da0:	79400080 	ldrh	w0, [x4]
    50001da4:	d3413c00 	ubfx	x0, x0, #1, #15
    50001da8:	6b0000df 	cmp	w6, w0
    50001dac:	54ffff20 	b.eq	50001d90 <bakery_lock_get+0x168>  // b.none
    50001db0:	11000442 	add	w2, w2, #0x1
    50001db4:	8b050084 	add	x4, x4, x5
    50001db8:	7100305f 	cmp	w2, #0xc
    50001dbc:	54fffc01 	b.ne	50001d3c <bakery_lock_get+0x114>  // b.any
    50001dc0:	d5033bbf 	dmb	ish
    50001dc4:	a94153f3 	ldp	x19, x20, [sp, #16]
    50001dc8:	a8c27bfd 	ldp	x29, x30, [sp], #32
    50001dcc:	d65f03c0 	ret

0000000050001dd0 <bakery_lock_release>:
    50001dd0:	a9be7bfd 	stp	x29, x30, [sp, #-32]!
    50001dd4:	910003fd 	mov	x29, sp
    50001dd8:	a90153f3 	stp	x19, x20, [sp, #16]
    50001ddc:	aa0003f3 	mov	x19, x0
    50001de0:	940010e6 	bl	50006178 <is_dcache_enabled>
    50001de4:	12001c14 	and	w20, w0, #0xff
    50001de8:	97fffe23 	bl	50001674 <plat_my_core_pos>
    50001dec:	b0000121 	adrp	x1, 50026000 <psci_req_local_pwr_states+0x13>
    50001df0:	b0000122 	adrp	x2, 50026000 <psci_req_local_pwr_states+0x13>
    50001df4:	91020021 	add	x1, x1, #0x80
    50001df8:	91010042 	add	x2, x2, #0x40
    50001dfc:	2a0003e0 	mov	w0, w0
    50001e00:	cb020021 	sub	x1, x1, x2
    50001e04:	9b007c21 	mul	x1, x1, x0
    50001e08:	8b010260 	add	x0, x19, x1
    50001e0c:	34000054 	cbz	w20, 50001e14 <bakery_lock_release+0x44>
    50001e10:	d50b7e20 	dc	civac, x0
    50001e14:	d5033bbf 	dmb	ish
    50001e18:	78616a62 	ldrh	w2, [x19, x1]
    50001e1c:	f27f385f 	tst	x2, #0xfffe
    50001e20:	540000e1 	b.ne	50001e3c <bakery_lock_release+0x6c>  // b.any
    50001e24:	f0000082 	adrp	x2, 50014000 <CSWTCH.216+0x420>
    50001e28:	f0000080 	adrp	x0, 50014000 <CSWTCH.216+0x420>
    50001e2c:	91051c42 	add	x2, x2, #0x147
    50001e30:	91048000 	add	x0, x0, #0x120
    50001e34:	52801d81 	mov	w1, #0xec                  	// #236
    50001e38:	97fff91f 	bl	500002b4 <__assert>
    50001e3c:	d5033bbf 	dmb	ish
    50001e40:	78216a7f 	strh	wzr, [x19, x1]
    50001e44:	340000f4 	cbz	w20, 50001e60 <bakery_lock_release+0x90>
    50001e48:	d50b7a20 	dc	cvac, x0
    50001e4c:	d5033b9f 	dsb	ish
    50001e50:	d503209f 	sev
    50001e54:	a94153f3 	ldp	x19, x20, [sp, #16]
    50001e58:	a8c27bfd 	ldp	x29, x30, [sp], #32
    50001e5c:	d65f03c0 	ret
    50001e60:	d5087620 	dc	ivac, x0
    50001e64:	17fffffa 	b	50001e4c <bakery_lock_release+0x7c>

0000000050001e68 <bl31_check_ns_address>:
    50001e68:	a9bf7bfd 	stp	x29, x30, [sp, #-16]!
    50001e6c:	aa0103e2 	mov	x2, x1
    50001e70:	f100001f 	cmp	x0, #0x0
    50001e74:	910003fd 	mov	x29, sp
    50001e78:	d1000421 	sub	x1, x1, #0x1
    50001e7c:	aa0003e3 	mov	x3, x0
    50001e80:	8b000021 	add	x1, x1, x0
    50001e84:	fa401844 	ccmp	x2, #0x0, #0x4, ne  // ne = any
    50001e88:	54000101 	b.ne	50001ea8 <bl31_check_ns_address+0x40>  // b.any
    50001e8c:	aa0003e1 	mov	x1, x0
    50001e90:	f0000080 	adrp	x0, 50014000 <CSWTCH.216+0x420>
    50001e94:	912f7000 	add	x0, x0, #0xbdc
    50001e98:	9400331c 	bl	5000eb08 <tf_log>
    50001e9c:	128002a0 	mov	w0, #0xffffffea            	// #-22
    50001ea0:	a8c17bfd 	ldp	x29, x30, [sp], #16
    50001ea4:	d65f03c0 	ret
    50001ea8:	b26183e0 	mov	x0, #0xffffffff80000000    	// #-2147483648
    50001eac:	8b000060 	add	x0, x3, x0
    50001eb0:	b27f8fe2 	mov	x2, #0x1ffffffffe          	// #137438953470
    50001eb4:	eb02001f 	cmp	x0, x2
    50001eb8:	540000c8 	b.hi	50001ed0 <bl31_check_ns_address+0x68>  // b.pmore
    50001ebc:	b2407be2 	mov	x2, #0x7fffffff            	// #2147483647
    50001ec0:	52800000 	mov	w0, #0x0                   	// #0
    50001ec4:	f2c00402 	movk	x2, #0x20, lsl #32
    50001ec8:	eb02003f 	cmp	x1, x2
    50001ecc:	54fffea9 	b.ls	50001ea0 <bl31_check_ns_address+0x38>  // b.plast
    50001ed0:	aa0303e1 	mov	x1, x3
    50001ed4:	f0000080 	adrp	x0, 50014000 <CSWTCH.216+0x420>
    50001ed8:	91301800 	add	x0, x0, #0xc06
    50001edc:	9400330b 	bl	5000eb08 <tf_log>
    50001ee0:	128001a0 	mov	w0, #0xfffffff2            	// #-14
    50001ee4:	17ffffef 	b	50001ea0 <bl31_check_ns_address+0x38>

0000000050001ee8 <bl31_early_platform_setup2>:
    50001ee8:	a9be7bfd 	stp	x29, x30, [sp, #-32]!
    50001eec:	910003fd 	mov	x29, sp
    50001ef0:	a90153f3 	stp	x19, x20, [sp, #16]
    50001ef4:	aa0103f3 	mov	x19, x1
    50001ef8:	b5000040 	cbnz	x0, 50001f00 <bl31_early_platform_setup2+0x18>
    50001efc:	940017d8 	bl	50007e5c <plat_get_bl31_params>
    50001f00:	aa0003f4 	mov	x20, x0
    50001f04:	b5000073 	cbnz	x19, 50001f10 <bl31_early_platform_setup2+0x28>
    50001f08:	940017df 	bl	50007e84 <plat_get_bl31_plat_params>
    50001f0c:	aa0003f3 	mov	x19, x0
    50001f10:	b50000f4 	cbnz	x20, 50001f2c <bl31_early_platform_setup2+0x44>
    50001f14:	f0000082 	adrp	x2, 50014000 <CSWTCH.216+0x420>
    50001f18:	9130ac42 	add	x2, x2, #0xc2b
    50001f1c:	52800e61 	mov	w1, #0x73                  	// #115
    50001f20:	f0000080 	adrp	x0, 50014000 <CSWTCH.216+0x420>
    50001f24:	91310000 	add	x0, x0, #0xc40
    50001f28:	97fff8e3 	bl	500002b4 <__assert>
    50001f2c:	f9401281 	ldr	x1, [x20, #32]
    50001f30:	b50000a1 	cbnz	x1, 50001f44 <bl31_early_platform_setup2+0x5c>
    50001f34:	f0000082 	adrp	x2, 50014000 <CSWTCH.216+0x420>
    50001f38:	52800e81 	mov	w1, #0x74                  	// #116
    50001f3c:	9131b042 	add	x2, x2, #0xc6c
    50001f40:	17fffff8 	b	50001f20 <bl31_early_platform_setup2+0x38>
    50001f44:	d2800b02 	mov	x2, #0x58                  	// #88
    50001f48:	f00000e0 	adrp	x0, 50020000 <opteed_sp_context+0x1880>
    50001f4c:	91168000 	add	x0, x0, #0x5a0
    50001f50:	940012ca 	bl	50006a78 <memcpy>
    50001f54:	f9400a81 	ldr	x1, [x20, #16]
    50001f58:	b40000a1 	cbz	x1, 50001f6c <bl31_early_platform_setup2+0x84>
    50001f5c:	f00000e0 	adrp	x0, 50020000 <opteed_sp_context+0x1880>
    50001f60:	d2800b02 	mov	x2, #0x58                  	// #88
    50001f64:	91152000 	add	x0, x0, #0x548
    50001f68:	940012c4 	bl	50006a78 <memcpy>
    50001f6c:	b50000b3 	cbnz	x19, 50001f80 <bl31_early_platform_setup2+0x98>
    50001f70:	f0000082 	adrp	x2, 50014000 <CSWTCH.216+0x420>
    50001f74:	52801041 	mov	w1, #0x82                  	// #130
    50001f78:	91323c42 	add	x2, x2, #0xc8f
    50001f7c:	17ffffe9 	b	50001f20 <bl31_early_platform_setup2+0x38>
    50001f80:	f00000a0 	adrp	x0, 50018000 <__RODATA_END__>
    50001f84:	9100a014 	add	x20, x0, #0x28
    50001f88:	f9400661 	ldr	x1, [x19, #8]
    50001f8c:	f9000681 	str	x1, [x20, #8]
    50001f90:	f9400261 	ldr	x1, [x19]
    50001f94:	f9001401 	str	x1, [x0, #40]
    50001f98:	b9401260 	ldr	w0, [x19, #16]
    50001f9c:	b9001280 	str	w0, [x20, #16]
    50001fa0:	b9401660 	ldr	w0, [x19, #20]
    50001fa4:	b9001680 	str	w0, [x20, #20]
    50001fa8:	f9401260 	ldr	x0, [x19, #32]
    50001fac:	f9001280 	str	x0, [x20, #32]
    50001fb0:	f9401660 	ldr	x0, [x19, #40]
    50001fb4:	f9001680 	str	x0, [x20, #40]
    50001fb8:	b9401260 	ldr	w0, [x19, #16]
    50001fbc:	94001794 	bl	50007e0c <plat_enable_console>
    50001fc0:	f9400e60 	ldr	x0, [x19, #24]
    50001fc4:	d2820001 	mov	x1, #0x1000                	// #4096
    50001fc8:	97ffffa8 	bl	50001e68 <bl31_check_ns_address>
    50001fcc:	350000a0 	cbnz	w0, 50001fe0 <bl31_early_platform_setup2+0xf8>
    50001fd0:	f9400e60 	ldr	x0, [x19, #24]
    50001fd4:	52a18d61 	mov	w1, #0xc6b0000             	// #208338944
    50001fd8:	f9000e80 	str	x0, [x20, #24]
    50001fdc:	940000f6 	bl	500023b4 <boot_profiler_init>
    50001fe0:	f0000080 	adrp	x0, 50014000 <CSWTCH.216+0x420>
    50001fe4:	91328c00 	add	x0, x0, #0xca3
    50001fe8:	940000a2 	bl	50002270 <boot_profiler_add_record>
    50001fec:	94002d43 	bl	5000d4f8 <tegra_delay_timer_init>
    50001ff0:	9400176b 	bl	50007d9c <plat_early_platform_setup>
    50001ff4:	a94153f3 	ldp	x19, x20, [sp, #16]
    50001ff8:	f0000080 	adrp	x0, 50014000 <CSWTCH.216+0x420>
    50001ffc:	a8c27bfd 	ldp	x29, x30, [sp], #32
    50002000:	9132e800 	add	x0, x0, #0xcba
    50002004:	1400009b 	b	50002270 <boot_profiler_add_record>

0000000050002008 <bl31_get_plat_params>:
    50002008:	d00000a0 	adrp	x0, 50018000 <__RODATA_END__>
    5000200c:	9100a000 	add	x0, x0, #0x28
    50002010:	d65f03c0 	ret

0000000050002014 <bl31_main>:
    50002014:	a9be7bfd 	stp	x29, x30, [sp, #-32]!
    50002018:	90000081 	adrp	x1, 50012000 <__TEXT_END__>
    5000201c:	9123f021 	add	x1, x1, #0x8fc
    50002020:	910003fd 	mov	x29, sp
    50002024:	f9000bf3 	str	x19, [sp, #16]
    50002028:	90000093 	adrp	x19, 50012000 <__TEXT_END__>
    5000202c:	91274673 	add	x19, x19, #0x9d1
    50002030:	aa1303e0 	mov	x0, x19
    50002034:	940032b5 	bl	5000eb08 <tf_log>
    50002038:	aa1303e0 	mov	x0, x19
    5000203c:	90000081 	adrp	x1, 50012000 <__TEXT_END__>
    50002040:	91237821 	add	x1, x1, #0x8de
    50002044:	940032b1 	bl	5000eb08 <tf_log>
    50002048:	94000056 	bl	500021a0 <bl31_platform_setup>
    5000204c:	9400017a 	bl	50002634 <cm_init>
    50002050:	9400043f 	bl	5000314c <ehf_init>
    50002054:	94002258 	bl	5000a9b4 <runtime_svc_init>
    50002058:	d00000e0 	adrp	x0, 50020000 <opteed_sp_context+0x1880>
    5000205c:	f9420000 	ldr	x0, [x0, #1024]
    50002060:	b4000040 	cbz	x0, 50002068 <bl31_main+0x54>
    50002064:	d63f0000 	blr	x0
    50002068:	9400005b 	bl	500021d4 <bl31_prepare_next_image_entry>
    5000206c:	940002ce 	bl	50002ba4 <console_flush>
    50002070:	f9400bf3 	ldr	x19, [sp, #16]
    50002074:	a8c27bfd 	ldp	x29, x30, [sp], #32
    50002078:	14000042 	b	50002180 <bl31_plat_runtime_setup>

000000005000207c <bl31_plat_arch_setup>:
    5000207c:	a9bc7bfd 	stp	x29, x30, [sp, #-64]!
    50002080:	d0000080 	adrp	x0, 50014000 <CSWTCH.216+0x420>
    50002084:	912ec400 	add	x0, x0, #0xbb1
    50002088:	910003fd 	mov	x29, sp
    5000208c:	a90153f3 	stp	x19, x20, [sp, #16]
    50002090:	d00000b4 	adrp	x20, 50018000 <__RODATA_END__>
    50002094:	90000093 	adrp	x19, 50012000 <__TEXT_END__>
    50002098:	91000294 	add	x20, x20, #0x0
    5000209c:	91000273 	add	x19, x19, #0x0
    500020a0:	a9025bf5 	stp	x21, x22, [sp, #32]
    500020a4:	d00001f6 	adrp	x22, 50040000 <__BL31_END__>
    500020a8:	d0fffff5 	adrp	x21, 50000000 <bl31_entrypoint>
    500020ac:	910002d6 	add	x22, x22, #0x0
    500020b0:	910002b5 	add	x21, x21, #0x0
    500020b4:	a90363f7 	stp	x23, x24, [sp, #48]
    500020b8:	d00000b8 	adrp	x24, 50018000 <__RODATA_END__>
    500020bc:	90000097 	adrp	x23, 50012000 <__TEXT_END__>
    500020c0:	91000318 	add	x24, x24, #0x0
    500020c4:	910002f7 	add	x23, x23, #0x0
    500020c8:	cb1802d6 	sub	x22, x22, x24
    500020cc:	cb170294 	sub	x20, x20, x23
    500020d0:	cb150273 	sub	x19, x19, x21
    500020d4:	94000067 	bl	50002270 <boot_profiler_add_record>
    500020d8:	9400179e 	bl	50007f50 <plat_get_mmio_map>
    500020dc:	b4000040 	cbz	x0, 500020e4 <bl31_plat_arch_setup+0x68>
    500020e0:	94001299 	bl	50006b44 <mmap_add>
    500020e4:	aa1603e2 	mov	x2, x22
    500020e8:	aa1803e1 	mov	x1, x24
    500020ec:	aa1803e0 	mov	x0, x24
    500020f0:	52800143 	mov	w3, #0xa                   	// #10
    500020f4:	94001343 	bl	50006e00 <mmap_add_region>
    500020f8:	aa1403e2 	mov	x2, x20
    500020fc:	aa1703e1 	mov	x1, x23
    50002100:	aa1703e0 	mov	x0, x23
    50002104:	52800843 	mov	w3, #0x42                  	// #66
    50002108:	9400133e 	bl	50006e00 <mmap_add_region>
    5000210c:	aa1303e2 	mov	x2, x19
    50002110:	aa1503e1 	mov	x1, x21
    50002114:	aa1503e0 	mov	x0, x21
    50002118:	52800043 	mov	w3, #0x2                   	// #2
    5000211c:	94001339 	bl	50006e00 <mmap_add_region>
    50002120:	94000f70 	bl	50005ee0 <init_xlat_tables>
    50002124:	52800000 	mov	w0, #0x0                   	// #0
    50002128:	940004b1 	bl	500033ec <enable_mmu_el3>
    5000212c:	a94153f3 	ldp	x19, x20, [sp, #16]
    50002130:	d0000080 	adrp	x0, 50014000 <CSWTCH.216+0x420>
    50002134:	a9425bf5 	ldp	x21, x22, [sp, #32]
    50002138:	912f1c00 	add	x0, x0, #0xbc7
    5000213c:	a94363f7 	ldp	x23, x24, [sp, #48]
    50002140:	a8c47bfd 	ldp	x29, x30, [sp], #64
    50002144:	1400004b 	b	50002270 <boot_profiler_add_record>

0000000050002148 <bl31_plat_get_next_image_ep_info>:
    50002148:	7100041f 	cmp	w0, #0x1
    5000214c:	54000100 	b.eq	5000216c <bl31_plat_get_next_image_ep_info+0x24>  // b.none
    50002150:	35000140 	cbnz	w0, 50002178 <bl31_plat_get_next_image_ep_info+0x30>
    50002154:	d00000e0 	adrp	x0, 50020000 <opteed_sp_context+0x1880>
    50002158:	91152000 	add	x0, x0, #0x548
    5000215c:	f9400401 	ldr	x1, [x0, #8]
    50002160:	f100003f 	cmp	x1, #0x0
    50002164:	9a9f1000 	csel	x0, x0, xzr, ne  // ne = any
    50002168:	d65f03c0 	ret
    5000216c:	d00000e0 	adrp	x0, 50020000 <opteed_sp_context+0x1880>
    50002170:	91168000 	add	x0, x0, #0x5a0
    50002174:	17fffffd 	b	50002168 <bl31_plat_get_next_image_ep_info+0x20>
    50002178:	d2800000 	mov	x0, #0x0                   	// #0
    5000217c:	17fffffb 	b	50002168 <bl31_plat_get_next_image_ep_info+0x20>

0000000050002180 <bl31_plat_runtime_setup>:
    50002180:	a9bf7bfd 	stp	x29, x30, [sp, #-16]!
    50002184:	910003fd 	mov	x29, sp
    50002188:	9400191e 	bl	50008600 <plat_runtime_setup>
    5000218c:	d0000080 	adrp	x0, 50014000 <CSWTCH.216+0x420>
    50002190:	912e8800 	add	x0, x0, #0xba2
    50002194:	94000037 	bl	50002270 <boot_profiler_add_record>
    50002198:	a8c17bfd 	ldp	x29, x30, [sp], #16
    5000219c:	1400006d 	b	50002350 <boot_profiler_deinit>

00000000500021a0 <bl31_platform_setup>:
    500021a0:	d0000080 	adrp	x0, 50014000 <CSWTCH.216+0x420>
    500021a4:	912ddc00 	add	x0, x0, #0xb77
    500021a8:	a9bf7bfd 	stp	x29, x30, [sp, #-16]!
    500021ac:	910003fd 	mov	x29, sp
    500021b0:	94000030 	bl	50002270 <boot_profiler_add_record>
    500021b4:	9400178c 	bl	50007fe4 <plat_gic_setup>
    500021b8:	9400191d 	bl	5000862c <plat_secondary_setup>
    500021bc:	94002eea 	bl	5000dd64 <tegra_memctrl_setup>
    500021c0:	940018e0 	bl	50008540 <plat_late_platform_setup>
    500021c4:	a8c17bfd 	ldp	x29, x30, [sp], #16
    500021c8:	d0000080 	adrp	x0, 50014000 <CSWTCH.216+0x420>
    500021cc:	912e3400 	add	x0, x0, #0xb8d
    500021d0:	14000028 	b	50002270 <boot_profiler_add_record>

00000000500021d4 <bl31_prepare_next_image_entry>:
    500021d4:	a9be7bfd 	stp	x29, x30, [sp, #-32]!
    500021d8:	f00000a0 	adrp	x0, 50019000 <tegra234_ras_records_common+0x190>
    500021dc:	910003fd 	mov	x29, sp
    500021e0:	a90153f3 	stp	x19, x20, [sp, #16]
    500021e4:	b941d814 	ldr	w20, [x0, #472]
    500021e8:	2a1403e0 	mov	w0, w20
    500021ec:	97ffffd7 	bl	50002148 <bl31_plat_get_next_image_ep_info>
    500021f0:	b50000e0 	cbnz	x0, 5000220c <bl31_prepare_next_image_entry+0x38>
    500021f4:	90000082 	adrp	x2, 50012000 <__TEXT_END__>
    500021f8:	9125fc42 	add	x2, x2, #0x97f
    500021fc:	52801f21 	mov	w1, #0xf9                  	// #249
    50002200:	90000080 	adrp	x0, 50012000 <__TEXT_END__>
    50002204:	9125b800 	add	x0, x0, #0x96e
    50002208:	97fff82b 	bl	500002b4 <__assert>
    5000220c:	b9400401 	ldr	w1, [x0, #4]
    50002210:	52800422 	mov	w2, #0x21                  	// #33
    50002214:	aa0003f3 	mov	x19, x0
    50002218:	0a020021 	and	w1, w1, w2
    5000221c:	6b01029f 	cmp	w20, w1
    50002220:	540000a0 	b.eq	50002234 <bl31_prepare_next_image_entry+0x60>  // b.none
    50002224:	90000082 	adrp	x2, 50012000 <__TEXT_END__>
    50002228:	52801f41 	mov	w1, #0xfa                  	// #250
    5000222c:	91265c42 	add	x2, x2, #0x997
    50002230:	17fffff4 	b	50002200 <bl31_prepare_next_image_entry+0x2c>
    50002234:	940019b2 	bl	500088fc <print_entry_point_info>
    50002238:	aa1303e0 	mov	x0, x19
    5000223c:	9400010b 	bl	50002668 <cm_init_my_context>
    50002240:	2a1403e0 	mov	w0, w20
    50002244:	a94153f3 	ldp	x19, x20, [sp, #16]
    50002248:	a8c27bfd 	ldp	x29, x30, [sp], #32
    5000224c:	14000113 	b	50002698 <cm_prepare_el3_exit>

0000000050002250 <bl31_register_bl32_init>:
    50002250:	d00000e1 	adrp	x1, 50020000 <opteed_sp_context+0x1880>
    50002254:	f9020020 	str	x0, [x1, #1024]
    50002258:	d65f03c0 	ret

000000005000225c <bl31_setup>:
    5000225c:	a9bf7bfd 	stp	x29, x30, [sp, #-16]!
    50002260:	910003fd 	mov	x29, sp
    50002264:	97ffff21 	bl	50001ee8 <bl31_early_platform_setup2>
    50002268:	a8c17bfd 	ldp	x29, x30, [sp], #16
    5000226c:	17ffff84 	b	5000207c <bl31_plat_arch_setup>

0000000050002270 <boot_profiler_add_record>:
    50002270:	a9bd7bfd 	stp	x29, x30, [sp, #-48]!
    50002274:	910003fd 	mov	x29, sp
    50002278:	a90153f3 	stp	x19, x20, [sp, #16]
    5000227c:	a9025bf5 	stp	x21, x22, [sp, #32]
    50002280:	aa0003f5 	mov	x21, x0
    50002284:	94002962 	bl	5000c80c <strlen>
    50002288:	11000400 	add	w0, w0, #0x1
    5000228c:	7100e01f 	cmp	w0, #0x38
    50002290:	54000588 	b.hi	50002340 <boot_profiler_add_record+0xd0>  // b.pmore
    50002294:	aa1503e0 	mov	x0, x21
    50002298:	9400295d 	bl	5000c80c <strlen>
    5000229c:	11000414 	add	w20, w0, #0x1
    500022a0:	d0000100 	adrp	x0, 50024000 <sdei_private_event_table+0x1118>
    500022a4:	aa0003f6 	mov	x22, x0
    500022a8:	f943cc01 	ldr	x1, [x0, #1944]
    500022ac:	b4000421 	cbz	x1, 50002330 <boot_profiler_add_record+0xc0>
    500022b0:	90000133 	adrp	x19, 50026000 <psci_req_local_pwr_states+0x13>
    500022b4:	39401660 	ldrb	w0, [x19, #5]
    500022b8:	35000160 	cbnz	w0, 500022e4 <boot_profiler_add_record+0x74>
    500022bc:	d53e1000 	mrs	x0, sctlr_el3
    500022c0:	36000120 	tbz	w0, #0, 500022e4 <boot_profiler_add_record+0x74>
    500022c4:	d0000100 	adrp	x0, 50024000 <sdei_private_event_table+0x1118>
    500022c8:	52800b03 	mov	w3, #0x58                  	// #88
    500022cc:	d2820002 	mov	x2, #0x1000                	// #4096
    500022d0:	f943d001 	ldr	x1, [x0, #1952]
    500022d4:	aa0103e0 	mov	x0, x1
    500022d8:	9400122e 	bl	50006b90 <mmap_add_dynamic_region>
    500022dc:	52800020 	mov	w0, #0x1                   	// #1
    500022e0:	39001660 	strb	w0, [x19, #5]
    500022e4:	d0000113 	adrp	x19, 50024000 <sdei_private_event_table+0x1118>
    500022e8:	2a1403e1 	mov	w1, w20
    500022ec:	aa1503e3 	mov	x3, x21
    500022f0:	f0000082 	adrp	x2, 50015000 <__func__.3091+0x1d3>
    500022f4:	f943ca60 	ldr	x0, [x19, #1936]
    500022f8:	91135042 	add	x2, x2, #0x4d4
    500022fc:	940028ac 	bl	5000c5ac <snprintf>
    50002300:	f0000100 	adrp	x0, 50025000 <cpu_state+0x800>
    50002304:	b94ef800 	ldr	w0, [x0, #3832]
    50002308:	b9400001 	ldr	w1, [x0]
    5000230c:	f943ca60 	ldr	x0, [x19, #1936]
    50002310:	2a0103e1 	mov	w1, w1
    50002314:	f9001c01 	str	x1, [x0, #56]
    50002318:	d0000101 	adrp	x1, 50024000 <sdei_private_event_table+0x1118>
    5000231c:	f943d421 	ldr	x1, [x1, #1960]
    50002320:	eb01001f 	cmp	x0, x1
    50002324:	54000121 	b.ne	50002348 <boot_profiler_add_record+0xd8>  // b.any
    50002328:	f943cec0 	ldr	x0, [x22, #1944]
    5000232c:	f903ca60 	str	x0, [x19, #1936]
    50002330:	a94153f3 	ldp	x19, x20, [sp, #16]
    50002334:	a9425bf5 	ldp	x21, x22, [sp, #32]
    50002338:	a8c37bfd 	ldp	x29, x30, [sp], #48
    5000233c:	d65f03c0 	ret
    50002340:	52800714 	mov	w20, #0x38                  	// #56
    50002344:	17ffffd7 	b	500022a0 <boot_profiler_add_record+0x30>
    50002348:	91010000 	add	x0, x0, #0x40
    5000234c:	17fffff8 	b	5000232c <boot_profiler_add_record+0xbc>

0000000050002350 <boot_profiler_deinit>:
    50002350:	a9be7bfd 	stp	x29, x30, [sp, #-32]!
    50002354:	910003fd 	mov	x29, sp
    50002358:	f9000bf3 	str	x19, [sp, #16]
    5000235c:	d0000113 	adrp	x19, 50024000 <sdei_private_event_table+0x1118>
    50002360:	f943d260 	ldr	x0, [x19, #1952]
    50002364:	b4000220 	cbz	x0, 500023a8 <boot_profiler_deinit+0x58>
    50002368:	d0000101 	adrp	x1, 50024000 <sdei_private_event_table+0x1118>
    5000236c:	f903c83f 	str	xzr, [x1, #1936]
    50002370:	d0000101 	adrp	x1, 50024000 <sdei_private_event_table+0x1118>
    50002374:	f903cc3f 	str	xzr, [x1, #1944]
    50002378:	d0000101 	adrp	x1, 50024000 <sdei_private_event_table+0x1118>
    5000237c:	f903d43f 	str	xzr, [x1, #1960]
    50002380:	d2820001 	mov	x1, #0x1000                	// #4096
    50002384:	97fffbf1 	bl	50001348 <flush_dcache_range>
    50002388:	90000120 	adrp	x0, 50026000 <psci_req_local_pwr_states+0x13>
    5000238c:	39401400 	ldrb	w0, [x0, #5]
    50002390:	340000c0 	cbz	w0, 500023a8 <boot_profiler_deinit+0x58>
    50002394:	f943d260 	ldr	x0, [x19, #1952]
    50002398:	d2820001 	mov	x1, #0x1000                	// #4096
    5000239c:	f9400bf3 	ldr	x19, [sp, #16]
    500023a0:	a8c27bfd 	ldp	x29, x30, [sp], #32
    500023a4:	14001368 	b	50007144 <mmap_remove_dynamic_region>
    500023a8:	f9400bf3 	ldr	x19, [sp, #16]
    500023ac:	a8c27bfd 	ldp	x29, x30, [sp], #32
    500023b0:	d65f03c0 	ret

00000000500023b4 <boot_profiler_init>:
    500023b4:	a9bf7bfd 	stp	x29, x30, [sp, #-16]!
    500023b8:	910003fd 	mov	x29, sp
    500023bc:	b50000e0 	cbnz	x0, 500023d8 <boot_profiler_init+0x24>
    500023c0:	f0000082 	adrp	x2, 50015000 <__func__.3091+0x1d3>
    500023c4:	91121c42 	add	x2, x2, #0x487
    500023c8:	52800761 	mov	w1, #0x3b                  	// #59
    500023cc:	f0000080 	adrp	x0, 50015000 <__func__.3091+0x1d3>
    500023d0:	91127000 	add	x0, x0, #0x49c
    500023d4:	97fff7b8 	bl	500002b4 <__assert>
    500023d8:	350000a1 	cbnz	w1, 500023ec <boot_profiler_init+0x38>
    500023dc:	f0000082 	adrp	x2, 50015000 <__func__.3091+0x1d3>
    500023e0:	52800781 	mov	w1, #0x3c                  	// #60
    500023e4:	91130c42 	add	x2, x2, #0x4c3
    500023e8:	17fffff9 	b	500023cc <boot_profiler_init+0x18>
    500023ec:	d0000102 	adrp	x2, 50024000 <sdei_private_event_table+0x1118>
    500023f0:	910f0003 	add	x3, x0, #0x3c0
    500023f4:	a8c17bfd 	ldp	x29, x30, [sp], #16
    500023f8:	f903d040 	str	x0, [x2, #1952]
    500023fc:	d0000102 	adrp	x2, 50024000 <sdei_private_event_table+0x1118>
    50002400:	f903cc40 	str	x0, [x2, #1944]
    50002404:	d0000102 	adrp	x2, 50024000 <sdei_private_event_table+0x1118>
    50002408:	f903d443 	str	x3, [x2, #1960]
    5000240c:	d0000102 	adrp	x2, 50024000 <sdei_private_event_table+0x1118>
    50002410:	f903c840 	str	x0, [x2, #1936]
    50002414:	f0000100 	adrp	x0, 50025000 <cpu_state+0x800>
    50002418:	b90ef801 	str	w1, [x0, #3832]
    5000241c:	d65f03c0 	ret

0000000050002420 <can_sdei_state_trans>:
    50002420:	7100243f 	cmp	w1, #0x9
    50002424:	54000129 	b.ls	50002448 <can_sdei_state_trans+0x28>  // b.plast
    50002428:	a9bf7bfd 	stp	x29, x30, [sp, #-16]!
    5000242c:	900000a2 	adrp	x2, 50016000 <__func__.3701+0x625>
    50002430:	900000a0 	adrp	x0, 50016000 <__func__.3701+0x625>
    50002434:	910003fd 	mov	x29, sp
    50002438:	913c0442 	add	x2, x2, #0xf01
    5000243c:	913c3800 	add	x0, x0, #0xf0e
    50002440:	52801021 	mov	w1, #0x81                  	// #129
    50002444:	97fff79c 	bl	500002b4 <__assert>
    50002448:	39407002 	ldrb	w2, [x0, #28]
    5000244c:	71001c5f 	cmp	w2, #0x7
    50002450:	540001a8 	b.hi	50002484 <can_sdei_state_trans+0x64>  // b.pmore
    50002454:	900000a3 	adrp	x3, 50016000 <__func__.3701+0x625>
    50002458:	913cc463 	add	x3, x3, #0xf31
    5000245c:	d2800144 	mov	x4, #0xa                   	// #10
    50002460:	9b040c42 	madd	x2, x2, x4, x3
    50002464:	38614841 	ldrb	w1, [x2, w1, uxtw]
    50002468:	7103f83f 	cmp	w1, #0xfe
    5000246c:	54000080 	b.eq	5000247c <can_sdei_state_trans+0x5c>  // b.none
    50002470:	7103fc3f 	cmp	w1, #0xff
    50002474:	54000080 	b.eq	50002484 <can_sdei_state_trans+0x64>  // b.none
    50002478:	39007001 	strb	w1, [x0, #28]
    5000247c:	52800020 	mov	w0, #0x1                   	// #1
    50002480:	d65f03c0 	ret
    50002484:	52800000 	mov	w0, #0x0                   	// #0
    50002488:	d65f03c0 	ret

000000005000248c <cm_el1_sysregs_context_restore>:
    5000248c:	a9be7bfd 	stp	x29, x30, [sp, #-32]!
    50002490:	910003fd 	mov	x29, sp
    50002494:	a90153f3 	stp	x19, x20, [sp, #16]
    50002498:	2a0003f3 	mov	w19, w0
    5000249c:	94000048 	bl	500025bc <cm_get_context>
    500024a0:	b50000e0 	cbnz	x0, 500024bc <cm_el1_sysregs_context_restore+0x30>
    500024a4:	900000a2 	adrp	x2, 50016000 <__func__.3701+0x625>
    500024a8:	b0000080 	adrp	x0, 50013000 <version_string+0x704>
    500024ac:	91223c42 	add	x2, x2, #0x88f
    500024b0:	9134bc00 	add	x0, x0, #0xd2f
    500024b4:	52805fe1 	mov	w1, #0x2ff                 	// #767
    500024b8:	97fff77f 	bl	500002b4 <__assert>
    500024bc:	91054000 	add	x0, x0, #0x150
    500024c0:	97fffa33 	bl	50000d8c <el1_sysregs_context_restore>
    500024c4:	34000273 	cbz	w19, 50002510 <cm_el1_sysregs_context_restore+0x84>
    500024c8:	b00000b3 	adrp	x19, 50017000 <sdei_state_table+0xcf>
    500024cc:	b00000b4 	adrp	x20, 50017000 <sdei_state_table+0xcf>
    500024d0:	9132e273 	add	x19, x19, #0xcb8
    500024d4:	91330294 	add	x20, x20, #0xcc0
    500024d8:	eb14027f 	cmp	x19, x20
    500024dc:	54000142 	b.cs	50002504 <cm_el1_sysregs_context_restore+0x78>  // b.hs, b.nlast
    500024e0:	f8408661 	ldr	x1, [x19], #8
    500024e4:	d2800000 	mov	x0, #0x0                   	// #0
    500024e8:	d63f0020 	blr	x1
    500024ec:	17fffffb 	b	500024d8 <cm_el1_sysregs_context_restore+0x4c>
    500024f0:	f8408661 	ldr	x1, [x19], #8
    500024f4:	d2800000 	mov	x0, #0x0                   	// #0
    500024f8:	d63f0020 	blr	x1
    500024fc:	eb14027f 	cmp	x19, x20
    50002500:	54ffff83 	b.cc	500024f0 <cm_el1_sysregs_context_restore+0x64>  // b.lo, b.ul, b.last
    50002504:	a94153f3 	ldp	x19, x20, [sp, #16]
    50002508:	a8c27bfd 	ldp	x29, x30, [sp], #32
    5000250c:	d65f03c0 	ret
    50002510:	b00000b3 	adrp	x19, 50017000 <sdei_state_table+0xcf>
    50002514:	b00000b4 	adrp	x20, 50017000 <sdei_state_table+0xcf>
    50002518:	9132c273 	add	x19, x19, #0xcb0
    5000251c:	9132e294 	add	x20, x20, #0xcb8
    50002520:	17fffff7 	b	500024fc <cm_el1_sysregs_context_restore+0x70>

0000000050002524 <cm_el1_sysregs_context_save>:
    50002524:	a9be7bfd 	stp	x29, x30, [sp, #-32]!
    50002528:	910003fd 	mov	x29, sp
    5000252c:	a90153f3 	stp	x19, x20, [sp, #16]
    50002530:	2a0003f3 	mov	w19, w0
    50002534:	94000022 	bl	500025bc <cm_get_context>
    50002538:	b50000e0 	cbnz	x0, 50002554 <cm_el1_sysregs_context_save+0x30>
    5000253c:	900000a2 	adrp	x2, 50016000 <__func__.3701+0x625>
    50002540:	b0000080 	adrp	x0, 50013000 <version_string+0x704>
    50002544:	91223c42 	add	x2, x2, #0x88f
    50002548:	9134bc00 	add	x0, x0, #0xd2f
    5000254c:	52805dc1 	mov	w1, #0x2ee                 	// #750
    50002550:	97fff759 	bl	500002b4 <__assert>
    50002554:	91054000 	add	x0, x0, #0x150
    50002558:	97fffa37 	bl	50000e34 <el1_sysregs_context_save>
    5000255c:	34000273 	cbz	w19, 500025a8 <cm_el1_sysregs_context_save+0x84>
    50002560:	b00000b3 	adrp	x19, 50017000 <sdei_state_table+0xcf>
    50002564:	b00000b4 	adrp	x20, 50017000 <sdei_state_table+0xcf>
    50002568:	91330273 	add	x19, x19, #0xcc0
    5000256c:	91332294 	add	x20, x20, #0xcc8
    50002570:	eb14027f 	cmp	x19, x20
    50002574:	54000142 	b.cs	5000259c <cm_el1_sysregs_context_save+0x78>  // b.hs, b.nlast
    50002578:	f8408661 	ldr	x1, [x19], #8
    5000257c:	d2800000 	mov	x0, #0x0                   	// #0
    50002580:	d63f0020 	blr	x1
    50002584:	17fffffb 	b	50002570 <cm_el1_sysregs_context_save+0x4c>
    50002588:	f8408661 	ldr	x1, [x19], #8
    5000258c:	d2800000 	mov	x0, #0x0                   	// #0
    50002590:	d63f0020 	blr	x1
    50002594:	eb14027f 	cmp	x19, x20
    50002598:	54ffff83 	b.cc	50002588 <cm_el1_sysregs_context_save+0x64>  // b.lo, b.ul, b.last
    5000259c:	a94153f3 	ldp	x19, x20, [sp, #16]
    500025a0:	a8c27bfd 	ldp	x29, x30, [sp], #32
    500025a4:	d65f03c0 	ret
    500025a8:	b00000b3 	adrp	x19, 50017000 <sdei_state_table+0xcf>
    500025ac:	b00000b4 	adrp	x20, 50017000 <sdei_state_table+0xcf>
    500025b0:	9132e273 	add	x19, x19, #0xcb8
    500025b4:	9132e294 	add	x20, x20, #0xcb8
    500025b8:	17fffff7 	b	50002594 <cm_el1_sysregs_context_save+0x70>

00000000500025bc <cm_get_context>:
    500025bc:	7100041f 	cmp	w0, #0x1
    500025c0:	54000129 	b.ls	500025e4 <cm_get_context+0x28>  // b.plast
    500025c4:	a9bf7bfd 	stp	x29, x30, [sp, #-16]!
    500025c8:	90000082 	adrp	x2, 50012000 <__TEXT_END__>
    500025cc:	90000080 	adrp	x0, 50012000 <__TEXT_END__>
    500025d0:	910003fd 	mov	x29, sp
    500025d4:	91246042 	add	x2, x2, #0x918
    500025d8:	9124ec00 	add	x0, x0, #0x93b
    500025dc:	528002c1 	mov	w1, #0x16                  	// #22
    500025e0:	97fff735 	bl	500002b4 <__assert>
    500025e4:	d53ed041 	mrs	x1, tpidr_el3
    500025e8:	f8605820 	ldr	x0, [x1, w0, uxtw #3]
    500025ec:	d65f03c0 	ret

00000000500025f0 <cm_get_context_by_index>:
    500025f0:	a9be7bfd 	stp	x29, x30, [sp, #-32]!
    500025f4:	7100043f 	cmp	w1, #0x1
    500025f8:	910003fd 	mov	x29, sp
    500025fc:	f9000bf3 	str	x19, [sp, #16]
    50002600:	540000e9 	b.ls	5000261c <cm_get_context_by_index+0x2c>  // b.plast
    50002604:	90000082 	adrp	x2, 50012000 <__TEXT_END__>
    50002608:	90000080 	adrp	x0, 50012000 <__TEXT_END__>
    5000260c:	91246042 	add	x2, x2, #0x918
    50002610:	9124ec00 	add	x0, x0, #0x93b
    50002614:	52800601 	mov	w1, #0x30                  	// #48
    50002618:	97fff727 	bl	500002b4 <__assert>
    5000261c:	2a0103f3 	mov	w19, w1
    50002620:	97fff8ab 	bl	500008cc <_cpu_data_by_index>
    50002624:	f8735800 	ldr	x0, [x0, w19, uxtw #3]
    50002628:	f9400bf3 	ldr	x19, [sp, #16]
    5000262c:	a8c27bfd 	ldp	x29, x30, [sp], #32
    50002630:	d65f03c0 	ret

0000000050002634 <cm_init>:
    50002634:	d65f03c0 	ret

0000000050002638 <cm_init_context_by_index>:
    50002638:	a9be7bfd 	stp	x29, x30, [sp, #-32]!
    5000263c:	910003fd 	mov	x29, sp
    50002640:	f9000bf3 	str	x19, [sp, #16]
    50002644:	aa0103f3 	mov	x19, x1
    50002648:	52800421 	mov	w1, #0x21                  	// #33
    5000264c:	b9400662 	ldr	w2, [x19, #4]
    50002650:	0a010041 	and	w1, w2, w1
    50002654:	97ffffe7 	bl	500025f0 <cm_get_context_by_index>
    50002658:	aa1303e1 	mov	x1, x19
    5000265c:	f9400bf3 	ldr	x19, [sp, #16]
    50002660:	a8c27bfd 	ldp	x29, x30, [sp], #32
    50002664:	140000a1 	b	500028e8 <cm_setup_context>

0000000050002668 <cm_init_my_context>:
    50002668:	a9be7bfd 	stp	x29, x30, [sp, #-32]!
    5000266c:	910003fd 	mov	x29, sp
    50002670:	f9000bf3 	str	x19, [sp, #16]
    50002674:	aa0003f3 	mov	x19, x0
    50002678:	52800420 	mov	w0, #0x21                  	// #33
    5000267c:	b9400661 	ldr	w1, [x19, #4]
    50002680:	0a000020 	and	w0, w1, w0
    50002684:	97ffffce 	bl	500025bc <cm_get_context>
    50002688:	aa1303e1 	mov	x1, x19
    5000268c:	f9400bf3 	ldr	x19, [sp, #16]
    50002690:	a8c27bfd 	ldp	x29, x30, [sp], #32
    50002694:	14000095 	b	500028e8 <cm_setup_context>

0000000050002698 <cm_prepare_el3_exit>:
    50002698:	a9be7bfd 	stp	x29, x30, [sp, #-32]!
    5000269c:	910003fd 	mov	x29, sp
    500026a0:	a90153f3 	stp	x19, x20, [sp, #16]
    500026a4:	2a0003f3 	mov	w19, w0
    500026a8:	97ffffc5 	bl	500025bc <cm_get_context>
    500026ac:	b50000e0 	cbnz	x0, 500026c8 <cm_prepare_el3_exit+0x30>
    500026b0:	900000a2 	adrp	x2, 50016000 <__func__.3701+0x625>
    500026b4:	b0000080 	adrp	x0, 50013000 <version_string+0x704>
    500026b8:	91223c42 	add	x2, x2, #0x88f
    500026bc:	9134bc00 	add	x0, x0, #0xd2f
    500026c0:	52803ca1 	mov	w1, #0x1e5                 	// #485
    500026c4:	97fff6fc 	bl	500002b4 <__assert>
    500026c8:	7100067f 	cmp	w19, #0x1
    500026cc:	54000541 	b.ne	50002774 <cm_prepare_el3_exit+0xdc>  // b.any
    500026d0:	f9408001 	ldr	x1, [x0, #256]
    500026d4:	aa0003f4 	mov	x20, x0
    500026d8:	92780022 	and	x2, x1, #0x100
    500026dc:	36400121 	tbz	w1, #8, 50002700 <cm_prepare_el3_exit+0x68>
    500026e0:	f940b000 	ldr	x0, [x0, #352]
    500026e4:	d2810601 	mov	x1, #0x830                 	// #2096
    500026e8:	f2a618a1 	movk	x1, #0x30c5, lsl #16
    500026ec:	92670000 	and	x0, x0, #0x2000000
    500026f0:	aa010000 	orr	x0, x0, x1
    500026f4:	d51c1000 	msr	sctlr_el2, x0
    500026f8:	52800000 	mov	w0, #0x0                   	// #0
    500026fc:	1400001b 	b	50002768 <cm_prepare_el3_exit+0xd0>
    50002700:	d5380400 	mrs	x0, id_aa64pfr0_el1
    50002704:	f2780c1f 	tst	x0, #0xf00
    50002708:	54ffff80 	b.eq	500026f8 <cm_prepare_el3_exit+0x60>  // b.none
    5000270c:	f2760021 	ands	x1, x1, #0x400
    50002710:	d2b00000 	mov	x0, #0x80000000            	// #2147483648
    50002714:	9a800021 	csel	x1, x1, x0, eq  // eq = none
    50002718:	b2580421 	orr	x1, x1, #0x30000000000
    5000271c:	d51c1101 	msr	hcr_el2, x1
    50002720:	d2867fe0 	mov	x0, #0x33ff                	// #13311
    50002724:	d51c1140 	msr	cptr_el2, x0
    50002728:	d2800060 	mov	x0, #0x3                   	// #3
    5000272c:	d51ce100 	msr	cnthctl_el2, x0
    50002730:	d51ce062 	msr	cntvoff_el2, x2
    50002734:	d5380000 	mrs	x0, midr_el1
    50002738:	d51c0000 	msr	vpidr_el2, x0
    5000273c:	d53800a0 	mrs	x0, mpidr_el1
    50002740:	d51c00a0 	msr	vmpidr_el2, x0
    50002744:	d51c2102 	msr	vttbr_el2, x2
    50002748:	d53b9c00 	mrs	x0, pmcr_el0
    5000274c:	d34b3c00 	ubfx	x0, x0, #11, #5
    50002750:	d2a08041 	mov	x1, #0x4020000             	// #67239936
    50002754:	aa010000 	orr	x0, x0, x1
    50002758:	d51c1120 	msr	mdcr_el2, x0
    5000275c:	d51c1162 	msr	hstr_el2, x2
    50002760:	d51ce222 	msr	cnthp_ctl_el2, x2
    50002764:	2a1303e0 	mov	w0, w19
    50002768:	940027c6 	bl	5000c680 <spe_enable>
    5000276c:	aa1403e0 	mov	x0, x20
    50002770:	94002846 	bl	5000c888 <sve_enable>
    50002774:	2a1303e0 	mov	w0, w19
    50002778:	97ffff45 	bl	5000248c <cm_el1_sysregs_context_restore>
    5000277c:	2a1303e0 	mov	w0, w19
    50002780:	a94153f3 	ldp	x19, x20, [sp, #16]
    50002784:	a8c27bfd 	ldp	x29, x30, [sp], #32
    50002788:	14000041 	b	5000288c <cm_set_next_eret_context>

000000005000278c <cm_set_context>:
    5000278c:	7100043f 	cmp	w1, #0x1
    50002790:	54000129 	b.ls	500027b4 <cm_set_context+0x28>  // b.plast
    50002794:	a9bf7bfd 	stp	x29, x30, [sp, #-16]!
    50002798:	90000082 	adrp	x2, 50012000 <__TEXT_END__>
    5000279c:	90000080 	adrp	x0, 50012000 <__TEXT_END__>
    500027a0:	910003fd 	mov	x29, sp
    500027a4:	91246042 	add	x2, x2, #0x918
    500027a8:	9124ec00 	add	x0, x0, #0x93b
    500027ac:	52800421 	mov	w1, #0x21                  	// #33
    500027b0:	97fff6c1 	bl	500002b4 <__assert>
    500027b4:	d53ed042 	mrs	x2, tpidr_el3
    500027b8:	f8215840 	str	x0, [x2, w1, uxtw #3]
    500027bc:	d65f03c0 	ret

00000000500027c0 <cm_set_context_by_index>:
    500027c0:	a9be7bfd 	stp	x29, x30, [sp, #-32]!
    500027c4:	7100045f 	cmp	w2, #0x1
    500027c8:	910003fd 	mov	x29, sp
    500027cc:	a90153f3 	stp	x19, x20, [sp, #16]
    500027d0:	540000e9 	b.ls	500027ec <cm_set_context_by_index+0x2c>  // b.plast
    500027d4:	90000082 	adrp	x2, 50012000 <__TEXT_END__>
    500027d8:	90000080 	adrp	x0, 50012000 <__TEXT_END__>
    500027dc:	91246042 	add	x2, x2, #0x918
    500027e0:	9124ec00 	add	x0, x0, #0x93b
    500027e4:	528007a1 	mov	w1, #0x3d                  	// #61
    500027e8:	97fff6b3 	bl	500002b4 <__assert>
    500027ec:	2a0203f3 	mov	w19, w2
    500027f0:	aa0103f4 	mov	x20, x1
    500027f4:	97fff836 	bl	500008cc <_cpu_data_by_index>
    500027f8:	f8335814 	str	x20, [x0, w19, uxtw #3]
    500027fc:	a94153f3 	ldp	x19, x20, [sp, #16]
    50002800:	a8c27bfd 	ldp	x29, x30, [sp], #32
    50002804:	d65f03c0 	ret

0000000050002808 <cm_set_elr_el3>:
    50002808:	a9be7bfd 	stp	x29, x30, [sp, #-32]!
    5000280c:	910003fd 	mov	x29, sp
    50002810:	f9000bf3 	str	x19, [sp, #16]
    50002814:	aa0103f3 	mov	x19, x1
    50002818:	97ffff69 	bl	500025bc <cm_get_context>
    5000281c:	b50000e0 	cbnz	x0, 50002838 <cm_set_elr_el3+0x30>
    50002820:	900000a2 	adrp	x2, 50016000 <__func__.3701+0x625>
    50002824:	b0000080 	adrp	x0, 50013000 <version_string+0x704>
    50002828:	91223c42 	add	x2, x2, #0x88f
    5000282c:	9134bc00 	add	x0, x0, #0xd2f
    50002830:	528062a1 	mov	w1, #0x315                 	// #789
    50002834:	97fff6a0 	bl	500002b4 <__assert>
    50002838:	f9009013 	str	x19, [x0, #288]
    5000283c:	f9400bf3 	ldr	x19, [sp, #16]
    50002840:	a8c27bfd 	ldp	x29, x30, [sp], #32
    50002844:	d65f03c0 	ret

0000000050002848 <cm_set_elr_spsr_el3>:
    50002848:	a9be7bfd 	stp	x29, x30, [sp, #-32]!
    5000284c:	910003fd 	mov	x29, sp
    50002850:	a90153f3 	stp	x19, x20, [sp, #16]
    50002854:	aa0103f4 	mov	x20, x1
    50002858:	2a0203f3 	mov	w19, w2
    5000285c:	97ffff58 	bl	500025bc <cm_get_context>
    50002860:	b50000e0 	cbnz	x0, 5000287c <cm_set_elr_spsr_el3+0x34>
    50002864:	900000a2 	adrp	x2, 50016000 <__func__.3701+0x625>
    50002868:	b0000080 	adrp	x0, 50013000 <version_string+0x704>
    5000286c:	91223c42 	add	x2, x2, #0x88f
    50002870:	9134bc00 	add	x0, x0, #0xd2f
    50002874:	528064e1 	mov	w1, #0x327                 	// #807
    50002878:	97fff68f 	bl	500002b4 <__assert>
    5000287c:	a911d013 	stp	x19, x20, [x0, #280]
    50002880:	a94153f3 	ldp	x19, x20, [sp, #16]
    50002884:	a8c27bfd 	ldp	x29, x30, [sp], #32
    50002888:	d65f03c0 	ret

000000005000288c <cm_set_next_eret_context>:
    5000288c:	a9bf7bfd 	stp	x29, x30, [sp, #-16]!
    50002890:	910003fd 	mov	x29, sp
    50002894:	97ffff4a 	bl	500025bc <cm_get_context>
    50002898:	b50000e0 	cbnz	x0, 500028b4 <cm_set_next_eret_context+0x28>
    5000289c:	900000a2 	adrp	x2, 50016000 <__func__.3701+0x625>
    500028a0:	b0000080 	adrp	x0, 50013000 <version_string+0x704>
    500028a4:	91223c42 	add	x2, x2, #0x88f
    500028a8:	9134bc00 	add	x0, x0, #0xd2f
    500028ac:	52806d61 	mov	w1, #0x36b                 	// #875
    500028b0:	97fff681 	bl	500002b4 <__assert>
    500028b4:	d5384201 	mrs	x1, spsel
    500028b8:	b40000e1 	cbz	x1, 500028d4 <cm_set_next_eret_context+0x48>
    500028bc:	b0000082 	adrp	x2, 50013000 <version_string+0x704>
    500028c0:	b0000080 	adrp	x0, 50013000 <version_string+0x704>
    500028c4:	91375042 	add	x2, x2, #0xdd4
    500028c8:	9137ac00 	add	x0, x0, #0xdeb
    500028cc:	52800941 	mov	w1, #0x4a                  	// #74
    500028d0:	17fffff8 	b	500028b0 <cm_set_next_eret_context+0x24>
    500028d4:	d50041bf 	msr	spsel, #0x1
    500028d8:	9100001f 	mov	sp, x0
    500028dc:	d50040bf 	msr	spsel, #0x0
    500028e0:	a8c17bfd 	ldp	x29, x30, [sp], #16
    500028e4:	d65f03c0 	ret

00000000500028e8 <cm_setup_context>:
    500028e8:	a9bd7bfd 	stp	x29, x30, [sp, #-48]!
    500028ec:	910003fd 	mov	x29, sp
    500028f0:	a90153f3 	stp	x19, x20, [sp, #16]
    500028f4:	a9025bf5 	stp	x21, x22, [sp, #32]
    500028f8:	b50000e0 	cbnz	x0, 50002914 <cm_setup_context+0x2c>
    500028fc:	900000a2 	adrp	x2, 50016000 <__func__.3701+0x625>
    50002900:	91223c42 	add	x2, x2, #0x88f
    50002904:	528009c1 	mov	w1, #0x4e                  	// #78
    50002908:	b0000080 	adrp	x0, 50013000 <version_string+0x704>
    5000290c:	9134bc00 	add	x0, x0, #0xd2f
    50002910:	97fff669 	bl	500002b4 <__assert>
    50002914:	aa0103f5 	mov	x21, x1
    50002918:	52800421 	mov	w1, #0x21                  	// #33
    5000291c:	aa0003f4 	mov	x20, x0
    50002920:	b94006b6 	ldr	w22, [x21, #4]
    50002924:	0a0102d6 	and	w22, w22, w1
    50002928:	d2804801 	mov	x1, #0x240                 	// #576
    5000292c:	97fffc78 	bl	50001b0c <zeromem>
    50002930:	d53e1113 	mrs	x19, scr_el3
    50002934:	9281a0e0 	mov	x0, #0xfffffffffffff2f8    	// #-3336
    50002938:	710006df 	cmp	w22, #0x1
    5000293c:	8a000273 	and	x19, x19, x0
    50002940:	54000041 	b.ne	50002948 <cm_setup_context+0x60>  // b.any
    50002944:	b2400273 	orr	x19, x19, #0x1
    50002948:	b94012a0 	ldr	w0, [x21, #16]
    5000294c:	37200040 	tbnz	w0, #4, 50002954 <cm_setup_context+0x6c>
    50002950:	b2760273 	orr	x19, x19, #0x400
    50002954:	b94006a0 	ldr	w0, [x21, #4]
    50002958:	36100040 	tbz	w0, #2, 50002960 <cm_setup_context+0x78>
    5000295c:	b2750273 	orr	x19, x19, #0x800
    50002960:	710006df 	cmp	w22, #0x1
    50002964:	54000041 	b.ne	5000296c <cm_setup_context+0x84>  // b.any
    50002968:	b2700673 	orr	x19, x19, #0x30000
    5000296c:	d5380420 	mrs	x0, id_aa64pfr1_el1
    50002970:	53082c00 	ubfx	w0, w0, #8, #4
    50002974:	7100041f 	cmp	w0, #0x1
    50002978:	540000c0 	b.eq	50002990 <cm_setup_context+0xa8>  // b.none
    5000297c:	51000800 	sub	w0, w0, #0x2
    50002980:	7100041f 	cmp	w0, #0x1
    50002984:	54000088 	b.hi	50002994 <cm_setup_context+0xac>  // b.pmore
    50002988:	710006df 	cmp	w22, #0x1
    5000298c:	54000041 	b.ne	50002994 <cm_setup_context+0xac>  // b.any
    50002990:	b2660273 	orr	x19, x19, #0x4000000
    50002994:	710086df 	cmp	w22, #0x21
    50002998:	54000080 	b.eq	500029a8 <cm_setup_context+0xc0>  // b.none
    5000299c:	2a1603e0 	mov	w0, w22
    500029a0:	94000343 	bl	500036ac <get_scr_el3_from_routing_model>
    500029a4:	aa000273 	orr	x19, x19, x0
    500029a8:	d53e1140 	mrs	x0, cptr_el3
    500029ac:	f9009e80 	str	x0, [x20, #312]
    500029b0:	35000076 	cbnz	w22, 500029bc <cm_setup_context+0xd4>
    500029b4:	aa1403e0 	mov	x0, x20
    500029b8:	940027aa 	bl	5000c860 <sve_disable>
    500029bc:	b94012a0 	ldr	w0, [x21, #16]
    500029c0:	d3441003 	ubfx	x3, x0, #4, #1
    500029c4:	37200240 	tbnz	w0, #4, 50002a0c <cm_setup_context+0x124>
    500029c8:	d3420c01 	ubfx	x1, x0, #2, #2
    500029cc:	7100083f 	cmp	w1, #0x2
    500029d0:	540003a1 	b.ne	50002a44 <cm_setup_context+0x15c>  // b.any
    500029d4:	d5380702 	mrs	x2, id_aa64mmfr0_el1
    500029d8:	d2802001 	mov	x1, #0x100                 	// #256
    500029dc:	d378ec42 	ubfx	x2, x2, #56, #4
    500029e0:	b2780264 	orr	x4, x19, #0x100
    500029e4:	f100045f 	cmp	x2, #0x1
    500029e8:	f2a10001 	movk	x1, #0x800, lsl #16
    500029ec:	aa010273 	orr	x19, x19, x1
    500029f0:	9a840273 	csel	x19, x19, x4, eq  // eq = none
    500029f4:	d5380701 	mrs	x1, id_aa64mmfr0_el1
    500029f8:	d37cfc21 	lsr	x1, x1, #60
    500029fc:	f100083f 	cmp	x1, #0x2
    50002a00:	540000c1 	b.ne	50002a18 <cm_setup_context+0x130>  // b.any
    50002a04:	b2640273 	orr	x19, x19, #0x10000000
    50002a08:	14000004 	b	50002a18 <cm_setup_context+0x130>
    50002a0c:	12000c01 	and	w1, w0, #0xf
    50002a10:	7100283f 	cmp	w1, #0xa
    50002a14:	54fffe00 	b.eq	500029d4 <cm_setup_context+0xec>  // b.none
    50002a18:	35000176 	cbnz	w22, 50002a44 <cm_setup_context+0x15c>
    50002a1c:	d3420c00 	ubfx	x0, x0, #2, #2
    50002a20:	7100081f 	cmp	w0, #0x2
    50002a24:	54000101 	b.ne	50002a44 <cm_setup_context+0x15c>  // b.any
    50002a28:	b26e0273 	orr	x19, x19, #0x40000
    50002a2c:	340000c3 	cbz	w3, 50002a44 <cm_setup_context+0x15c>
    50002a30:	b0000080 	adrp	x0, 50013000 <version_string+0x704>
    50002a34:	91355800 	add	x0, x0, #0xd56
    50002a38:	94003034 	bl	5000eb08 <tf_log>
    50002a3c:	9400005a 	bl	50002ba4 <console_flush>
    50002a40:	97fff895 	bl	50000c94 <do_panic>
    50002a44:	d5380400 	mrs	x0, id_aa64pfr0_el1
    50002a48:	d36cfc00 	lsr	x0, x0, #44
    50002a4c:	f27f081f 	tst	x0, #0xe
    50002a50:	540000a0 	b.eq	50002a64 <cm_setup_context+0x17c>  // b.none
    50002a54:	d5380400 	mrs	x0, id_aa64pfr0_el1
    50002a58:	f2780c1f 	tst	x0, #0xf00
    50002a5c:	54000040 	b.eq	50002a64 <cm_setup_context+0x17c>  // b.none
    50002a60:	b25d0273 	orr	x19, x19, #0x800000000
    50002a64:	b94006a0 	ldr	w0, [x21, #4]
    50002a68:	d2810016 	mov	x22, #0x800                 	// #2048
    50002a6c:	d2810701 	mov	x1, #0x838                 	// #2104
    50002a70:	7100007f 	cmp	w3, #0x0
    50002a74:	f2a018a1 	movk	x1, #0xc5, lsl #16
    50002a78:	f2a61a16 	movk	x22, #0x30d0, lsl #16
    50002a7c:	d3689c00 	lsl	x0, x0, #24
    50002a80:	92670000 	and	x0, x0, #0x2000000
    50002a84:	aa160016 	orr	x22, x0, x22
    50002a88:	aa010000 	orr	x0, x0, x1
    50002a8c:	9a961016 	csel	x22, x0, x22, ne  // ne = any
    50002a90:	d5380720 	mrs	x0, id_aa64mmfr1_el1
    50002a94:	d3608c00 	ubfx	x0, x0, #32, #4
    50002a98:	f100041f 	cmp	x0, #0x1
    50002a9c:	540001c1 	b.ne	50002ad4 <cm_setup_context+0x1ec>  // b.any
    50002aa0:	940014a9 	bl	50007d44 <plat_arm_set_twedel_scr_el3>
    50002aa4:	3100041f 	cmn	w0, #0x1
    50002aa8:	54000160 	b.eq	50002ad4 <cm_setup_context+0x1ec>  // b.none
    50002aac:	2a0003e1 	mov	w1, w0
    50002ab0:	f27c6c1f 	tst	x0, #0xfffffff0
    50002ab4:	540000a0 	b.eq	50002ac8 <cm_setup_context+0x1e0>  // b.none
    50002ab8:	b0000082 	adrp	x2, 50013000 <version_string+0x704>
    50002abc:	528027c1 	mov	w1, #0x13e                 	// #318
    50002ac0:	9135e442 	add	x2, x2, #0xd79
    50002ac4:	17ffff91 	b	50002908 <cm_setup_context+0x20>
    50002ac8:	925eee73 	and	x19, x19, #0xfffffffc3fffffff
    50002acc:	aa017a73 	orr	x19, x19, x1, lsl #30
    50002ad0:	b2630273 	orr	x19, x19, #0x20000000
    50002ad4:	f900b296 	str	x22, [x20, #352]
    50002ad8:	d5381020 	mrs	x0, actlr_el1
    50002adc:	f94006a1 	ldr	x1, [x21, #8]
    50002ae0:	f9009281 	str	x1, [x20, #288]
    50002ae4:	b94012a1 	ldr	w1, [x21, #16]
    50002ae8:	d2800802 	mov	x2, #0x40                  	// #64
    50002aec:	f9008293 	str	x19, [x20, #256]
    50002af0:	f9008e81 	str	x1, [x20, #280]
    50002af4:	910062a1 	add	x1, x21, #0x18
    50002af8:	f900da80 	str	x0, [x20, #432]
    50002afc:	aa1403e0 	mov	x0, x20
    50002b00:	a94153f3 	ldp	x19, x20, [sp, #16]
    50002b04:	a9425bf5 	ldp	x21, x22, [sp, #32]
    50002b08:	a8c37bfd 	ldp	x29, x30, [sp], #48
    50002b0c:	14000fdb 	b	50006a78 <memcpy>

0000000050002b10 <cm_write_scr_el3_bit>:
    50002b10:	a9be7bfd 	stp	x29, x30, [sp, #-32]!
    50002b14:	910003fd 	mov	x29, sp
    50002b18:	a90153f3 	stp	x19, x20, [sp, #16]
    50002b1c:	2a0103f4 	mov	w20, w1
    50002b20:	2a0203f3 	mov	w19, w2
    50002b24:	97fffea6 	bl	500025bc <cm_get_context>
    50002b28:	b50000e0 	cbnz	x0, 50002b44 <cm_write_scr_el3_bit+0x34>
    50002b2c:	900000a2 	adrp	x2, 50016000 <__func__.3701+0x625>
    50002b30:	91223c42 	add	x2, x2, #0x88f
    50002b34:	528067a1 	mov	w1, #0x33d                 	// #829
    50002b38:	b0000080 	adrp	x0, 50013000 <version_string+0x704>
    50002b3c:	9134bc00 	add	x0, x0, #0xd2f
    50002b40:	97fff5dd 	bl	500002b4 <__assert>
    50002b44:	d285f1e1 	mov	x1, #0x2f8f                	// #12175
    50002b48:	f2c04801 	movk	x1, #0x240, lsl #32
    50002b4c:	9ad42421 	lsr	x1, x1, x20
    50002b50:	370000a1 	tbnz	w1, #0, 50002b64 <cm_write_scr_el3_bit+0x54>
    50002b54:	b0000082 	adrp	x2, 50013000 <version_string+0x704>
    50002b58:	52806801 	mov	w1, #0x340                 	// #832
    50002b5c:	91366842 	add	x2, x2, #0xd9a
    50002b60:	17fffff6 	b	50002b38 <cm_write_scr_el3_bit+0x28>
    50002b64:	7100067f 	cmp	w19, #0x1
    50002b68:	540000a9 	b.ls	50002b7c <cm_write_scr_el3_bit+0x6c>  // b.plast
    50002b6c:	b0000082 	adrp	x2, 50013000 <version_string+0x704>
    50002b70:	52806861 	mov	w1, #0x343                 	// #835
    50002b74:	91372042 	add	x2, x2, #0xdc8
    50002b78:	17fffff0 	b	50002b38 <cm_write_scr_el3_bit+0x28>
    50002b7c:	f9408001 	ldr	x1, [x0, #256]
    50002b80:	d2800022 	mov	x2, #0x1                   	// #1
    50002b84:	9ad42042 	lsl	x2, x2, x20
    50002b88:	8a220022 	bic	x2, x1, x2
    50002b8c:	9ad42273 	lsl	x19, x19, x20
    50002b90:	aa020273 	orr	x19, x19, x2
    50002b94:	f9008013 	str	x19, [x0, #256]
    50002b98:	a94153f3 	ldp	x19, x20, [sp, #16]
    50002b9c:	a8c27bfd 	ldp	x29, x30, [sp], #32
    50002ba0:	d65f03c0 	ret

0000000050002ba4 <console_flush>:
    50002ba4:	a9be7bfd 	stp	x29, x30, [sp, #-32]!
    50002ba8:	f0000100 	adrp	x0, 50025000 <cpu_state+0x800>
    50002bac:	910003fd 	mov	x29, sp
    50002bb0:	a90153f3 	stp	x19, x20, [sp, #16]
    50002bb4:	f00000b4 	adrp	x20, 50019000 <tegra234_ras_records_common+0x190>
    50002bb8:	910dc294 	add	x20, x20, #0x370
    50002bbc:	f944d013 	ldr	x19, [x0, #2464]
    50002bc0:	b5000093 	cbnz	x19, 50002bd0 <console_flush+0x2c>
    50002bc4:	a94153f3 	ldp	x19, x20, [sp, #16]
    50002bc8:	a8c27bfd 	ldp	x29, x30, [sp], #32
    50002bcc:	d65f03c0 	ret
    50002bd0:	f9400660 	ldr	x0, [x19, #8]
    50002bd4:	39400281 	ldrb	w1, [x20]
    50002bd8:	ea00003f 	tst	x1, x0
    50002bdc:	540000a0 	b.eq	50002bf0 <console_flush+0x4c>  // b.none
    50002be0:	f9401261 	ldr	x1, [x19, #32]
    50002be4:	b4000061 	cbz	x1, 50002bf0 <console_flush+0x4c>
    50002be8:	aa1303e0 	mov	x0, x19
    50002bec:	d63f0020 	blr	x1
    50002bf0:	f9400273 	ldr	x19, [x19]
    50002bf4:	17fffff3 	b	50002bc0 <console_flush+0x1c>

0000000050002bf8 <console_is_registered>:
    50002bf8:	b5000120 	cbnz	x0, 50002c1c <console_is_registered+0x24>
    50002bfc:	a9bf7bfd 	stp	x29, x30, [sp, #-16]!
    50002c00:	b00000a2 	adrp	x2, 50017000 <sdei_state_table+0xcf>
    50002c04:	b00000a0 	adrp	x0, 50017000 <sdei_state_table+0xcf>
    50002c08:	910003fd 	mov	x29, sp
    50002c0c:	91011442 	add	x2, x2, #0x45
    50002c10:	91009400 	add	x0, x0, #0x25
    50002c14:	52800681 	mov	w1, #0x34                  	// #52
    50002c18:	97fff5a7 	bl	500002b4 <__assert>
    50002c1c:	f0000101 	adrp	x1, 50025000 <cpu_state+0x800>
    50002c20:	f944d021 	ldr	x1, [x1, #2464]
    50002c24:	b5000061 	cbnz	x1, 50002c30 <console_is_registered+0x38>
    50002c28:	52800000 	mov	w0, #0x0                   	// #0
    50002c2c:	d65f03c0 	ret
    50002c30:	eb00003f 	cmp	x1, x0
    50002c34:	54000060 	b.eq	50002c40 <console_is_registered+0x48>  // b.none
    50002c38:	f9400021 	ldr	x1, [x1]
    50002c3c:	17fffffa 	b	50002c24 <console_is_registered+0x2c>
    50002c40:	52800020 	mov	w0, #0x1                   	// #1
    50002c44:	d65f03c0 	ret

0000000050002c48 <console_putc>:
    50002c48:	a9bd7bfd 	stp	x29, x30, [sp, #-48]!
    50002c4c:	910003fd 	mov	x29, sp
    50002c50:	a9025bf5 	stp	x21, x22, [sp, #32]
    50002c54:	2a0003f5 	mov	w21, w0
    50002c58:	f0000100 	adrp	x0, 50025000 <cpu_state+0x800>
    50002c5c:	a90153f3 	stp	x19, x20, [sp, #16]
    50002c60:	f00000b6 	adrp	x22, 50019000 <tegra234_ras_records_common+0x190>
    50002c64:	910dc2d6 	add	x22, x22, #0x370
    50002c68:	f944d013 	ldr	x19, [x0, #2464]
    50002c6c:	12800ff4 	mov	w20, #0xffffff80            	// #-128
    50002c70:	b50000d3 	cbnz	x19, 50002c88 <console_putc+0x40>
    50002c74:	2a1403e0 	mov	w0, w20
    50002c78:	a94153f3 	ldp	x19, x20, [sp, #16]
    50002c7c:	a9425bf5 	ldp	x21, x22, [sp, #32]
    50002c80:	a8c37bfd 	ldp	x29, x30, [sp], #48
    50002c84:	d65f03c0 	ret
    50002c88:	f9400660 	ldr	x0, [x19, #8]
    50002c8c:	394002c1 	ldrb	w1, [x22]
    50002c90:	ea00003f 	tst	x1, x0
    50002c94:	54000180 	b.eq	50002cc4 <console_putc+0x7c>  // b.none
    50002c98:	f9400a62 	ldr	x2, [x19, #16]
    50002c9c:	b4000142 	cbz	x2, 50002cc4 <console_putc+0x7c>
    50002ca0:	71002abf 	cmp	w21, #0xa
    50002ca4:	54000140 	b.eq	50002ccc <console_putc+0x84>  // b.none
    50002ca8:	f9400a62 	ldr	x2, [x19, #16]
    50002cac:	aa1303e1 	mov	x1, x19
    50002cb0:	2a1503e0 	mov	w0, w21
    50002cb4:	d63f0040 	blr	x2
    50002cb8:	3102029f 	cmn	w20, #0x80
    50002cbc:	7a401280 	ccmp	w20, w0, #0x0, ne  // ne = any
    50002cc0:	1a80d294 	csel	w20, w20, w0, le
    50002cc4:	f9400273 	ldr	x19, [x19]
    50002cc8:	17ffffea 	b	50002c70 <console_putc+0x28>
    50002ccc:	3647fee0 	tbz	w0, #8, 50002ca8 <console_putc+0x60>
    50002cd0:	aa1303e1 	mov	x1, x19
    50002cd4:	528001a0 	mov	w0, #0xd                   	// #13
    50002cd8:	d63f0040 	blr	x2
    50002cdc:	36fffe60 	tbz	w0, #31, 50002ca8 <console_putc+0x60>
    50002ce0:	17fffff6 	b	50002cb8 <console_putc+0x70>

0000000050002ce4 <console_register>:
    50002ce4:	a9be7bfd 	stp	x29, x30, [sp, #-32]!
    50002ce8:	910003fd 	mov	x29, sp
    50002cec:	f9000bf3 	str	x19, [sp, #16]
    50002cf0:	aa0003f3 	mov	x19, x0
    50002cf4:	f00000a0 	adrp	x0, 50019000 <tegra234_ras_records_common+0x190>
    50002cf8:	910e0000 	add	x0, x0, #0x380
    50002cfc:	eb00027f 	cmp	x19, x0
    50002d00:	54000163 	b.cc	50002d2c <console_register+0x48>  // b.lo, b.ul, b.last
    50002d04:	d00000c0 	adrp	x0, 5001c000 <__STACKS_START__+0x2c80>
    50002d08:	910e0000 	add	x0, x0, #0x380
    50002d0c:	eb00027f 	cmp	x19, x0
    50002d10:	540000e2 	b.cs	50002d2c <console_register+0x48>  // b.hs, b.nlast
    50002d14:	b00000a2 	adrp	x2, 50017000 <sdei_state_table+0xcf>
    50002d18:	b00000a0 	adrp	x0, 50017000 <sdei_state_table+0xcf>
    50002d1c:	91015442 	add	x2, x2, #0x55
    50002d20:	91009400 	add	x0, x0, #0x25
    50002d24:	52800281 	mov	w1, #0x14                  	// #20
    50002d28:	97fff563 	bl	500002b4 <__assert>
    50002d2c:	aa1303e0 	mov	x0, x19
    50002d30:	97ffffb2 	bl	50002bf8 <console_is_registered>
    50002d34:	7100041f 	cmp	w0, #0x1
    50002d38:	540000a0 	b.eq	50002d4c <console_register+0x68>  // b.none
    50002d3c:	f0000100 	adrp	x0, 50025000 <cpu_state+0x800>
    50002d40:	f944d001 	ldr	x1, [x0, #2464]
    50002d44:	f9000261 	str	x1, [x19]
    50002d48:	f904d013 	str	x19, [x0, #2464]
    50002d4c:	52800020 	mov	w0, #0x1                   	// #1
    50002d50:	f9400bf3 	ldr	x19, [sp, #16]
    50002d54:	a8c27bfd 	ldp	x29, x30, [sp], #32
    50002d58:	d65f03c0 	ret

0000000050002d5c <console_set_scope>:
    50002d5c:	b5000120 	cbnz	x0, 50002d80 <console_set_scope+0x24>
    50002d60:	a9bf7bfd 	stp	x29, x30, [sp, #-16]!
    50002d64:	b00000a2 	adrp	x2, 50017000 <sdei_state_table+0xcf>
    50002d68:	b00000a0 	adrp	x0, 50017000 <sdei_state_table+0xcf>
    50002d6c:	910003fd 	mov	x29, sp
    50002d70:	91022442 	add	x2, x2, #0x89
    50002d74:	91009400 	add	x0, x0, #0x25
    50002d78:	52800881 	mov	w1, #0x44                  	// #68
    50002d7c:	97fff54e 	bl	500002b4 <__assert>
    50002d80:	f9400402 	ldr	x2, [x0, #8]
    50002d84:	2a0103e1 	mov	w1, w1
    50002d88:	92785c42 	and	x2, x2, #0xffffff00
    50002d8c:	aa010041 	orr	x1, x2, x1
    50002d90:	f9000401 	str	x1, [x0, #8]
    50002d94:	d65f03c0 	ret

0000000050002d98 <console_switch_state>:
    50002d98:	f00000a1 	adrp	x1, 50019000 <tegra234_ras_records_common+0x190>
    50002d9c:	390dc020 	strb	w0, [x1, #880]
    50002da0:	d65f03c0 	ret

0000000050002da4 <ehf_activate_priority>:
    50002da4:	a9bd7bfd 	stp	x29, x30, [sp, #-48]!
    50002da8:	910003fd 	mov	x29, sp
    50002dac:	a90153f3 	stp	x19, x20, [sp, #16]
    50002db0:	2a0003f3 	mov	w19, w0
    50002db4:	a9025bf5 	stp	x21, x22, [sp, #32]
    50002db8:	d53ed055 	mrs	x21, tpidr_el3
    50002dbc:	9400153a 	bl	500082a4 <plat_ic_get_running_priority>
    50002dc0:	6b13001f 	cmp	w0, w19
    50002dc4:	54000108 	b.hi	50002de4 <ehf_activate_priority+0x40>  // b.pmore
    50002dc8:	2a0003e1 	mov	w1, w0
    50002dcc:	2a1303e2 	mov	w2, w19
    50002dd0:	90000080 	adrp	x0, 50012000 <__TEXT_END__>
    50002dd4:	912c0000 	add	x0, x0, #0xb00
    50002dd8:	94002f4c 	bl	5000eb08 <tf_log>
    50002ddc:	97ffff72 	bl	50002ba4 <console_flush>
    50002de0:	97fff7ad 	bl	50000c94 <do_panic>
    50002de4:	b9406ab6 	ldr	w22, [x21, #104]
    50002de8:	2a1303e0 	mov	w0, w19
    50002dec:	710002df 	cmp	w22, #0x0
    50002df0:	5ac002d4 	rbit	w20, w22
    50002df4:	5ac01294 	clz	w20, w20
    50002df8:	5a9f1294 	csinv	w20, w20, wzr, ne  // ne = any
    50002dfc:	940016a5 	bl	50008890 <pri_to_idx>
    50002e00:	6b00029f 	cmp	w20, w0
    50002e04:	3a419a84 	ccmn	w20, #0x1, #0x4, ls  // ls = plast
    50002e08:	54000160 	b.eq	50002e34 <ehf_activate_priority+0x90>  // b.none
    50002e0c:	90000080 	adrp	x0, 50012000 <__TEXT_END__>
    50002e10:	528000e2 	mov	w2, #0x7                   	// #7
    50002e14:	2a1303e1 	mov	w1, w19
    50002e18:	b9430400 	ldr	w0, [x0, #772]
    50002e1c:	4b000042 	sub	w2, w2, w0
    50002e20:	90000080 	adrp	x0, 50012000 <__TEXT_END__>
    50002e24:	912cdc00 	add	x0, x0, #0xb37
    50002e28:	1ac22282 	lsl	w2, w20, w2
    50002e2c:	12001842 	and	w2, w2, #0x7f
    50002e30:	17ffffea 	b	50002dd8 <ehf_activate_priority+0x34>
    50002e34:	52800021 	mov	w1, #0x1                   	// #1
    50002e38:	1ac02020 	lsl	w0, w1, w0
    50002e3c:	2a160000 	orr	w0, w0, w22
    50002e40:	b9006aa0 	str	w0, [x21, #104]
    50002e44:	2a1303e0 	mov	w0, w19
    50002e48:	94001574 	bl	50008418 <plat_ic_set_priority_mask>
    50002e4c:	2a0003e2 	mov	w2, w0
    50002e50:	6b00027f 	cmp	w19, w0
    50002e54:	540000a3 	b.cc	50002e68 <ehf_activate_priority+0xc4>  // b.lo, b.ul, b.last
    50002e58:	90000080 	adrp	x0, 50012000 <__TEXT_END__>
    50002e5c:	2a1303e1 	mov	w1, w19
    50002e60:	912db400 	add	x0, x0, #0xb6d
    50002e64:	17ffffdd 	b	50002dd8 <ehf_activate_priority+0x34>
    50002e68:	3100069f 	cmn	w20, #0x1
    50002e6c:	54000041 	b.ne	50002e74 <ehf_activate_priority+0xd0>  // b.any
    50002e70:	3901b2a0 	strb	w0, [x21, #108]
    50002e74:	a94153f3 	ldp	x19, x20, [sp, #16]
    50002e78:	a9425bf5 	ldp	x21, x22, [sp, #32]
    50002e7c:	a8c37bfd 	ldp	x29, x30, [sp], #48
    50002e80:	d65f03c0 	ret

0000000050002e84 <ehf_deactivate_priority>:
    50002e84:	a9bd7bfd 	stp	x29, x30, [sp, #-48]!
    50002e88:	910003fd 	mov	x29, sp
    50002e8c:	a90153f3 	stp	x19, x20, [sp, #16]
    50002e90:	2a0003f3 	mov	w19, w0
    50002e94:	a9025bf5 	stp	x21, x22, [sp, #32]
    50002e98:	d53ed056 	mrs	x22, tpidr_el3
    50002e9c:	94001502 	bl	500082a4 <plat_ic_get_running_priority>
    50002ea0:	6b13001f 	cmp	w0, w19
    50002ea4:	54000108 	b.hi	50002ec4 <ehf_deactivate_priority+0x40>  // b.pmore
    50002ea8:	2a0003e1 	mov	w1, w0
    50002eac:	2a1303e2 	mov	w2, w19
    50002eb0:	90000080 	adrp	x0, 50012000 <__TEXT_END__>
    50002eb4:	912c0000 	add	x0, x0, #0xb00
    50002eb8:	94002f14 	bl	5000eb08 <tf_log>
    50002ebc:	97ffff3a 	bl	50002ba4 <console_flush>
    50002ec0:	97fff775 	bl	50000c94 <do_panic>
    50002ec4:	b9406ad5 	ldr	w21, [x22, #104]
    50002ec8:	2a1303e0 	mov	w0, w19
    50002ecc:	710002bf 	cmp	w21, #0x0
    50002ed0:	5ac002b4 	rbit	w20, w21
    50002ed4:	5ac01294 	clz	w20, w20
    50002ed8:	5a9f1294 	csinv	w20, w20, wzr, ne  // ne = any
    50002edc:	9400166d 	bl	50008890 <pri_to_idx>
    50002ee0:	6b00029f 	cmp	w20, w0
    50002ee4:	3a410a84 	ccmn	w20, #0x1, #0x4, eq  // eq = none
    50002ee8:	54000161 	b.ne	50002f14 <ehf_deactivate_priority+0x90>  // b.any
    50002eec:	90000080 	adrp	x0, 50012000 <__TEXT_END__>
    50002ef0:	528000e2 	mov	w2, #0x7                   	// #7
    50002ef4:	2a1303e1 	mov	w1, w19
    50002ef8:	b9430400 	ldr	w0, [x0, #772]
    50002efc:	4b000042 	sub	w2, w2, w0
    50002f00:	90000080 	adrp	x0, 50012000 <__TEXT_END__>
    50002f04:	912ea400 	add	x0, x0, #0xba9
    50002f08:	1ac22282 	lsl	w2, w20, w2
    50002f0c:	12001842 	and	w2, w2, #0x7f
    50002f10:	17ffffea 	b	50002eb8 <ehf_deactivate_priority+0x34>
    50002f14:	510006a0 	sub	w0, w21, #0x1
    50002f18:	0a150000 	and	w0, w0, w21
    50002f1c:	b9006ac0 	str	w0, [x22, #104]
    50002f20:	34000140 	cbz	w0, 50002f48 <ehf_deactivate_priority+0xc4>
    50002f24:	2a1303e0 	mov	w0, w19
    50002f28:	9400153c 	bl	50008418 <plat_ic_set_priority_mask>
    50002f2c:	2a0003e2 	mov	w2, w0
    50002f30:	6b13001f 	cmp	w0, w19
    50002f34:	540000e9 	b.ls	50002f50 <ehf_deactivate_priority+0xcc>  // b.plast
    50002f38:	90000080 	adrp	x0, 50012000 <__TEXT_END__>
    50002f3c:	2a1303e1 	mov	w1, w19
    50002f40:	912f8400 	add	x0, x0, #0xbe1
    50002f44:	17ffffdd 	b	50002eb8 <ehf_deactivate_priority+0x34>
    50002f48:	3941b2c0 	ldrb	w0, [x22, #108]
    50002f4c:	17fffff7 	b	50002f28 <ehf_deactivate_priority+0xa4>
    50002f50:	a94153f3 	ldp	x19, x20, [sp, #16]
    50002f54:	a9425bf5 	ldp	x21, x22, [sp, #32]
    50002f58:	a8c37bfd 	ldp	x29, x30, [sp], #48
    50002f5c:	d65f03c0 	ret

0000000050002f60 <ehf_el3_interrupt_handler>:
    50002f60:	a9bc7bfd 	stp	x29, x30, [sp, #-64]!
    50002f64:	3100041f 	cmn	w0, #0x1
    50002f68:	910003fd 	mov	x29, sp
    50002f6c:	a90153f3 	stp	x19, x20, [sp, #16]
    50002f70:	a9025bf5 	stp	x21, x22, [sp, #32]
    50002f74:	f9001bf7 	str	x23, [sp, #48]
    50002f78:	540000e0 	b.eq	50002f94 <ehf_el3_interrupt_handler+0x34>  // b.none
    50002f7c:	90000082 	adrp	x2, 50012000 <__TEXT_END__>
    50002f80:	91291442 	add	x2, x2, #0xa45
    50002f84:	528032c1 	mov	w1, #0x196                 	// #406
    50002f88:	90000080 	adrp	x0, 50012000 <__TEXT_END__>
    50002f8c:	9128a000 	add	x0, x0, #0xa28
    50002f90:	97fff4c9 	bl	500002b4 <__assert>
    50002f94:	2a0103f4 	mov	w20, w1
    50002f98:	aa0203f5 	mov	x21, x2
    50002f9c:	aa0303f6 	mov	x22, x3
    50002fa0:	94001442 	bl	500080a8 <plat_ic_acknowledge_interrupt>
    50002fa4:	2a0003f3 	mov	w19, w0
    50002fa8:	9400148f 	bl	500081e4 <plat_ic_get_interrupt_id>
    50002fac:	3100041f 	cmn	w0, #0x1
    50002fb0:	54000580 	b.eq	50003060 <ehf_el3_interrupt_handler+0x100>  // b.none
    50002fb4:	940014bc 	bl	500082a4 <plat_ic_get_running_priority>
    50002fb8:	2a0003f7 	mov	w23, w0
    50002fbc:	363800b7 	tbz	w23, #7, 50002fd0 <ehf_el3_interrupt_handler+0x70>
    50002fc0:	90000082 	adrp	x2, 50012000 <__TEXT_END__>
    50002fc4:	52803501 	mov	w1, #0x1a8                 	// #424
    50002fc8:	91297c42 	add	x2, x2, #0xa5f
    50002fcc:	17ffffef 	b	50002f88 <ehf_el3_interrupt_handler+0x28>
    50002fd0:	94001630 	bl	50008890 <pri_to_idx>
    50002fd4:	90000081 	adrp	x1, 50012000 <__TEXT_END__>
    50002fd8:	910be022 	add	x2, x1, #0x2f8
    50002fdc:	528000e4 	mov	w4, #0x7                   	// #7
    50002fe0:	b9400c42 	ldr	w2, [x2, #12]
    50002fe4:	4b020084 	sub	w4, w4, w2
    50002fe8:	1ac42004 	lsl	w4, w0, w4
    50002fec:	12001884 	and	w4, w4, #0x7f
    50002ff0:	6b17009f 	cmp	w4, w23
    50002ff4:	540000a0 	b.eq	50003008 <ehf_el3_interrupt_handler+0xa8>  // b.none
    50002ff8:	90000082 	adrp	x2, 50012000 <__TEXT_END__>
    50002ffc:	52803621 	mov	w1, #0x1b1                 	// #433
    50003000:	9129c842 	add	x2, x2, #0xa72
    50003004:	17ffffe1 	b	50002f88 <ehf_el3_interrupt_handler+0x28>
    50003008:	f9417c21 	ldr	x1, [x1, #760]
    5000300c:	f8605824 	ldr	x4, [x1, w0, uxtw #3]
    50003010:	36000064 	tbz	w4, #0, 5000301c <ehf_el3_interrupt_handler+0xbc>
    50003014:	f27ff884 	ands	x4, x4, #0xfffffffffffffffe
    50003018:	540000e1 	b.ne	50003034 <ehf_el3_interrupt_handler+0xd4>  // b.any
    5000301c:	2a1703e1 	mov	w1, w23
    50003020:	f0000060 	adrp	x0, 50012000 <__TEXT_END__>
    50003024:	912a2400 	add	x0, x0, #0xa89
    50003028:	94002eb8 	bl	5000eb08 <tf_log>
    5000302c:	97fffede 	bl	50002ba4 <console_flush>
    50003030:	97fff719 	bl	50000c94 <do_panic>
    50003034:	aa1603e3 	mov	x3, x22
    50003038:	aa1503e2 	mov	x2, x21
    5000303c:	2a1403e1 	mov	w1, w20
    50003040:	2a1303e0 	mov	w0, w19
    50003044:	d63f0080 	blr	x4
    50003048:	93407c00 	sxtw	x0, w0
    5000304c:	a94153f3 	ldp	x19, x20, [sp, #16]
    50003050:	a9425bf5 	ldp	x21, x22, [sp, #32]
    50003054:	f9401bf7 	ldr	x23, [sp, #48]
    50003058:	a8c47bfd 	ldp	x29, x30, [sp], #64
    5000305c:	d65f03c0 	ret
    50003060:	d2800000 	mov	x0, #0x0                   	// #0
    50003064:	17fffffa 	b	5000304c <ehf_el3_interrupt_handler+0xec>

0000000050003068 <ehf_entering_normal_world>:
    50003068:	a9be7bfd 	stp	x29, x30, [sp, #-32]!
    5000306c:	910003fd 	mov	x29, sp
    50003070:	f9000bf3 	str	x19, [sp, #16]
    50003074:	d53ed053 	mrs	x19, tpidr_el3
    50003078:	9400148b 	bl	500082a4 <plat_ic_get_running_priority>
    5000307c:	36380240 	tbz	w0, #7, 500030c4 <ehf_entering_normal_world+0x5c>
    50003080:	b9406a60 	ldr	w0, [x19, #104]
    50003084:	35000200 	cbnz	w0, 500030c4 <ehf_entering_normal_world+0x5c>
    50003088:	3941b660 	ldrb	w0, [x19, #109]
    5000308c:	340001c0 	cbz	w0, 500030c4 <ehf_entering_normal_world+0x5c>
    50003090:	940014e2 	bl	50008418 <plat_ic_set_priority_mask>
    50003094:	2a0003e1 	mov	w1, w0
    50003098:	7102001f 	cmp	w0, #0x80
    5000309c:	54000120 	b.eq	500030c0 <ehf_entering_normal_world+0x58>  // b.none
    500030a0:	3941b660 	ldrb	w0, [x19, #109]
    500030a4:	6b01001f 	cmp	w0, w1
    500030a8:	540000c0 	b.eq	500030c0 <ehf_entering_normal_world+0x58>  // b.none
    500030ac:	f0000060 	adrp	x0, 50012000 <__TEXT_END__>
    500030b0:	91277000 	add	x0, x0, #0x9dc
    500030b4:	94002e95 	bl	5000eb08 <tf_log>
    500030b8:	97fffebb 	bl	50002ba4 <console_flush>
    500030bc:	97fff6f6 	bl	50000c94 <do_panic>
    500030c0:	3901b67f 	strb	wzr, [x19, #109]
    500030c4:	d2800000 	mov	x0, #0x0                   	// #0
    500030c8:	f9400bf3 	ldr	x19, [sp, #16]
    500030cc:	a8c27bfd 	ldp	x29, x30, [sp], #32
    500030d0:	d65f03c0 	ret

00000000500030d4 <ehf_exited_normal_world>:
    500030d4:	a9be7bfd 	stp	x29, x30, [sp, #-32]!
    500030d8:	910003fd 	mov	x29, sp
    500030dc:	f9000bf3 	str	x19, [sp, #16]
    500030e0:	d53ed053 	mrs	x19, tpidr_el3
    500030e4:	94001470 	bl	500082a4 <plat_ic_get_running_priority>
    500030e8:	363802a0 	tbz	w0, #7, 5000313c <ehf_exited_normal_world+0x68>
    500030ec:	b9406a60 	ldr	w0, [x19, #104]
    500030f0:	35000260 	cbnz	w0, 5000313c <ehf_exited_normal_world+0x68>
    500030f4:	3941b660 	ldrb	w0, [x19, #109]
    500030f8:	340000e0 	cbz	w0, 50003114 <ehf_exited_normal_world+0x40>
    500030fc:	f0000062 	adrp	x2, 50012000 <__TEXT_END__>
    50003100:	f0000060 	adrp	x0, 50012000 <__TEXT_END__>
    50003104:	912ad842 	add	x2, x2, #0xab6
    50003108:	9128a000 	add	x0, x0, #0xa28
    5000310c:	52801ea1 	mov	w1, #0xf5                  	// #245
    50003110:	97fff469 	bl	500002b4 <__assert>
    50003114:	52801000 	mov	w0, #0x80                  	// #128
    50003118:	940014c0 	bl	50008418 <plat_ic_set_priority_mask>
    5000311c:	3901b660 	strb	w0, [x19, #109]
    50003120:	373800e0 	tbnz	w0, #7, 5000313c <ehf_exited_normal_world+0x68>
    50003124:	12001c01 	and	w1, w0, #0xff
    50003128:	f0000060 	adrp	x0, 50012000 <__TEXT_END__>
    5000312c:	912b4400 	add	x0, x0, #0xad1
    50003130:	94002e76 	bl	5000eb08 <tf_log>
    50003134:	97fffe9c 	bl	50002ba4 <console_flush>
    50003138:	97fff6d7 	bl	50000c94 <do_panic>
    5000313c:	d2800000 	mov	x0, #0x0                   	// #0
    50003140:	f9400bf3 	ldr	x19, [sp, #16]
    50003144:	a8c27bfd 	ldp	x29, x30, [sp], #32
    50003148:	d65f03c0 	ret

000000005000314c <ehf_init>:
    5000314c:	a9bf7bfd 	stp	x29, x30, [sp, #-16]!
    50003150:	52800020 	mov	w0, #0x1                   	// #1
    50003154:	910003fd 	mov	x29, sp
    50003158:	94001454 	bl	500082a8 <plat_ic_has_interrupt_type>
    5000315c:	350000e0 	cbnz	w0, 50003178 <ehf_init+0x2c>
    50003160:	f0000062 	adrp	x2, 50012000 <__TEXT_END__>
    50003164:	91308042 	add	x2, x2, #0xc20
    50003168:	528039a1 	mov	w1, #0x1cd                 	// #461
    5000316c:	f0000060 	adrp	x0, 50012000 <__TEXT_END__>
    50003170:	9128a000 	add	x0, x0, #0xa28
    50003174:	97fff450 	bl	500002b4 <__assert>
    50003178:	f0000060 	adrp	x0, 50012000 <__TEXT_END__>
    5000317c:	910be001 	add	x1, x0, #0x2f8
    50003180:	b9400821 	ldr	w1, [x1, #8]
    50003184:	7100803f 	cmp	w1, #0x20
    50003188:	540000a9 	b.ls	5000319c <ehf_init+0x50>  // b.plast
    5000318c:	f0000062 	adrp	x2, 50012000 <__TEXT_END__>
    50003190:	52803a61 	mov	w1, #0x1d3                 	// #467
    50003194:	91313c42 	add	x2, x2, #0xc4f
    50003198:	17fffff5 	b	5000316c <ehf_init+0x20>
    5000319c:	f9417c00 	ldr	x0, [x0, #760]
    500031a0:	b50000a0 	cbnz	x0, 500031b4 <ehf_init+0x68>
    500031a4:	f0000062 	adrp	x2, 50012000 <__TEXT_END__>
    500031a8:	52803aa1 	mov	w1, #0x1d5                 	// #469
    500031ac:	91323842 	add	x2, x2, #0xc8e
    500031b0:	17ffffef 	b	5000316c <ehf_init+0x20>
    500031b4:	f0ffffe1 	adrp	x1, 50002000 <bl31_early_platform_setup2+0x118>
    500031b8:	52800062 	mov	w2, #0x3                   	// #3
    500031bc:	913d8021 	add	x1, x1, #0xf60
    500031c0:	52800020 	mov	w0, #0x1                   	// #1
    500031c4:	94001dd1 	bl	5000a908 <register_interrupt_type_handler>
    500031c8:	340000a0 	cbz	w0, 500031dc <ehf_init+0x90>
    500031cc:	f0000062 	adrp	x2, 50012000 <__TEXT_END__>
    500031d0:	52803ca1 	mov	w1, #0x1e5                 	// #485
    500031d4:	9132d042 	add	x2, x2, #0xcb4
    500031d8:	17ffffe5 	b	5000316c <ehf_init+0x20>
    500031dc:	a8c17bfd 	ldp	x29, x30, [sp], #16
    500031e0:	d65f03c0 	ret

00000000500031e4 <ehf_register_priority_handler>:
    500031e4:	a9be7bfd 	stp	x29, x30, [sp, #-32]!
    500031e8:	910003fd 	mov	x29, sp
    500031ec:	a90153f3 	stp	x19, x20, [sp, #16]
    500031f0:	b50000e1 	cbnz	x1, 5000320c <ehf_register_priority_handler+0x28>
    500031f4:	f0000062 	adrp	x2, 50012000 <__TEXT_END__>
    500031f8:	9132f442 	add	x2, x2, #0xcbd
    500031fc:	52803e61 	mov	w1, #0x1f3                 	// #499
    50003200:	f0000060 	adrp	x0, 50012000 <__TEXT_END__>
    50003204:	9128a000 	add	x0, x0, #0xa28
    50003208:	97fff42b 	bl	500002b4 <__assert>
    5000320c:	aa0103f3 	mov	x19, x1
    50003210:	f240043f 	tst	x1, #0x3
    50003214:	540000a0 	b.eq	50003228 <ehf_register_priority_handler+0x44>  // b.none
    50003218:	f0000062 	adrp	x2, 50012000 <__TEXT_END__>
    5000321c:	52803ec1 	mov	w1, #0x1f6                 	// #502
    50003220:	91333442 	add	x2, x2, #0xccd
    50003224:	17fffff7 	b	50003200 <ehf_register_priority_handler+0x1c>
    50003228:	2a0003f4 	mov	w20, w0
    5000322c:	94001599 	bl	50008890 <pri_to_idx>
    50003230:	f0000063 	adrp	x3, 50012000 <__TEXT_END__>
    50003234:	910be061 	add	x1, x3, #0x2f8
    50003238:	b9400822 	ldr	w2, [x1, #8]
    5000323c:	6b00005f 	cmp	w2, w0
    50003240:	540000a8 	b.hi	50003254 <ehf_register_priority_handler+0x70>  // b.pmore
    50003244:	f0000062 	adrp	x2, 50012000 <__TEXT_END__>
    50003248:	52803f41 	mov	w1, #0x1fa                 	// #506
    5000324c:	91281042 	add	x2, x2, #0xa04
    50003250:	17ffffec 	b	50003200 <ehf_register_priority_handler+0x1c>
    50003254:	b9400c21 	ldr	w1, [x1, #12]
    50003258:	528000e2 	mov	w2, #0x7                   	// #7
    5000325c:	4b010042 	sub	w2, w2, w1
    50003260:	1ac22002 	lsl	w2, w0, w2
    50003264:	12001841 	and	w1, w2, #0x7f
    50003268:	6b14003f 	cmp	w1, w20
    5000326c:	540000a0 	b.eq	50003280 <ehf_register_priority_handler+0x9c>  // b.none
    50003270:	f0000062 	adrp	x2, 50012000 <__TEXT_END__>
    50003274:	52803f61 	mov	w1, #0x1fb                 	// #507
    50003278:	9133c042 	add	x2, x2, #0xcf0
    5000327c:	17ffffe1 	b	50003200 <ehf_register_priority_handler+0x1c>
    50003280:	f9417c62 	ldr	x2, [x3, #760]
    50003284:	d37d7c00 	ubfiz	x0, x0, #3, #32
    50003288:	f8606843 	ldr	x3, [x2, x0]
    5000328c:	f100047f 	cmp	x3, #0x1
    50003290:	540000c0 	b.eq	500032a8 <ehf_register_priority_handler+0xc4>  // b.none
    50003294:	f0000060 	adrp	x0, 50012000 <__TEXT_END__>
    50003298:	91341c00 	add	x0, x0, #0xd07
    5000329c:	94002e1b 	bl	5000eb08 <tf_log>
    500032a0:	97fffe41 	bl	50002ba4 <console_flush>
    500032a4:	97fff67c 	bl	50000c94 <do_panic>
    500032a8:	b2400273 	orr	x19, x19, #0x1
    500032ac:	f8206853 	str	x19, [x2, x0]
    500032b0:	a94153f3 	ldp	x19, x20, [sp, #16]
    500032b4:	a8c27bfd 	ldp	x29, x30, [sp], #32
    500032b8:	d65f03c0 	ret

00000000500032bc <enable_error_detection_for_group>:
    500032bc:	a9ba7bfd 	stp	x29, x30, [sp, #-96]!
    500032c0:	910003fd 	mov	x29, sp
    500032c4:	a90153f3 	stp	x19, x20, [sp, #16]
    500032c8:	2a0103f4 	mov	w20, w1
    500032cc:	a9025bf5 	stp	x21, x22, [sp, #32]
    500032d0:	d0000095 	adrp	x21, 50015000 <__func__.3091+0x1d3>
    500032d4:	912e0ab5 	add	x21, x21, #0xb82
    500032d8:	a90363f7 	stp	x23, x24, [sp, #48]
    500032dc:	aa0003f8 	mov	x24, x0
    500032e0:	d28000b6 	mov	x22, #0x5                   	// #5
    500032e4:	d2800037 	mov	x23, #0x1                   	// #1
    500032e8:	a9046bf9 	stp	x25, x26, [sp, #64]
    500032ec:	f9002bfb 	str	x27, [sp, #80]
    500032f0:	35000114 	cbnz	w20, 50003310 <enable_error_detection_for_group+0x54>
    500032f4:	a94153f3 	ldp	x19, x20, [sp, #16]
    500032f8:	a9425bf5 	ldp	x21, x22, [sp, #32]
    500032fc:	a94363f7 	ldp	x23, x24, [sp, #48]
    50003300:	a9446bf9 	ldp	x25, x26, [sp, #64]
    50003304:	f9402bfb 	ldr	x27, [sp, #80]
    50003308:	a8c67bfd 	ldp	x29, x30, [sp], #96
    5000330c:	d65f03c0 	ret
    50003310:	f9400b00 	ldr	x0, [x24, #16]
    50003314:	94000b9c 	bl	50006184 <is_err_record_supported.isra.0>
    50003318:	72001c1f 	tst	w0, #0xff
    5000331c:	54000620 	b.eq	500033e0 <enable_error_detection_for_group+0x124>  // b.none
    50003320:	a941671b 	ldp	x27, x25, [x24, #16]
    50003324:	aa1503e0 	mov	x0, x21
    50003328:	f9400373 	ldr	x19, [x27]
    5000332c:	94002538 	bl	5000c80c <strlen>
    50003330:	aa1503e1 	mov	x1, x21
    50003334:	aa0003e2 	mov	x2, x0
    50003338:	aa1303e0 	mov	x0, x19
    5000333c:	9400253b 	bl	5000c828 <strncmp>
    50003340:	34000500 	cbz	w0, 500033e0 <enable_error_detection_for_group+0x124>
    50003344:	f9400f60 	ldr	x0, [x27, #24]
    50003348:	b50000e0 	cbnz	x0, 50003364 <enable_error_detection_for_group+0xa8>
    5000334c:	d0000082 	adrp	x2, 50015000 <__func__.3091+0x1d3>
    50003350:	912e3442 	add	x2, x2, #0xb8d
    50003354:	52804241 	mov	w1, #0x212                 	// #530
    50003358:	d0000080 	adrp	x0, 50015000 <__func__.3091+0x1d3>
    5000335c:	91286800 	add	x0, x0, #0xa1a
    50003360:	97fff3d5 	bl	500002b4 <__assert>
    50003364:	f9401361 	ldr	x1, [x27, #32]
    50003368:	b50000a1 	cbnz	x1, 5000337c <enable_error_detection_for_group+0xc0>
    5000336c:	d0000082 	adrp	x2, 50015000 <__func__.3091+0x1d3>
    50003370:	52804261 	mov	w1, #0x213                 	// #531
    50003374:	912eac42 	add	x2, x2, #0xbab
    50003378:	17fffff8 	b	50003358 <enable_error_detection_for_group+0x9c>
    5000337c:	92407f39 	and	x25, x25, #0xffffffff
    50003380:	f9400333 	ldr	x19, [x25]
    50003384:	d63f0000 	blr	x0
    50003388:	92607e7a 	and	x26, x19, #0xffffffff00000000
    5000338c:	aa0003f3 	mov	x19, x0
    50003390:	f9401360 	ldr	x0, [x27, #32]
    50003394:	d63f0000 	blr	x0
    50003398:	ea13035f 	tst	x26, x19
    5000339c:	9a9712c1 	csel	x1, x22, x23, ne  // ne = any
    500033a0:	ea00035f 	tst	x26, x0
    500033a4:	54000040 	b.eq	500033ac <enable_error_detection_for_group+0xf0>  // b.none
    500033a8:	b2780021 	orr	x1, x1, #0x100
    500033ac:	aa000273 	orr	x19, x19, x0
    500033b0:	8a1a0273 	and	x19, x19, x26
    500033b4:	aa010273 	orr	x19, x19, x1
    500033b8:	f9000733 	str	x19, [x25, #8]
    500033bc:	92607e73 	and	x19, x19, #0xffffffff00000000
    500033c0:	f9400720 	ldr	x0, [x25, #8]
    500033c4:	92607c00 	and	x0, x0, #0xffffffff00000000
    500033c8:	eb13001f 	cmp	x0, x19
    500033cc:	540000a0 	b.eq	500033e0 <enable_error_detection_for_group+0x124>  // b.none
    500033d0:	d0000082 	adrp	x2, 50015000 <__func__.3091+0x1d3>
    500033d4:	52804661 	mov	w1, #0x233                 	// #563
    500033d8:	912f2442 	add	x2, x2, #0xbc9
    500033dc:	17ffffdf 	b	50003358 <enable_error_detection_for_group+0x9c>
    500033e0:	51000694 	sub	w20, w20, #0x1
    500033e4:	9100c318 	add	x24, x24, #0x30
    500033e8:	17ffffc2 	b	500032f0 <enable_error_detection_for_group+0x34>

00000000500033ec <enable_mmu_el3>:
    500033ec:	a9be7bfd 	stp	x29, x30, [sp, #-32]!
    500033f0:	d00000a1 	adrp	x1, 50019000 <tegra234_ras_records_common+0x190>
    500033f4:	52800065 	mov	w5, #0x3                   	// #3
    500033f8:	910003fd 	mov	x29, sp
    500033fc:	f9000bf3 	str	x19, [sp, #16]
    50003400:	2a0003f3 	mov	w19, w0
    50003404:	91046020 	add	x0, x1, #0x118
    50003408:	f9408c23 	ldr	x3, [x1, #280]
    5000340c:	2a1303e1 	mov	w1, w19
    50003410:	f9400404 	ldr	x4, [x0, #8]
    50003414:	f9402002 	ldr	x2, [x0, #64]
    50003418:	d0000100 	adrp	x0, 50025000 <cpu_state+0x800>
    5000341c:	9126a000 	add	x0, x0, #0x9a8
    50003420:	94002417 	bl	5000c47c <setup_mmu_cfg>
    50003424:	2a1303e0 	mov	w0, w19
    50003428:	f9400bf3 	ldr	x19, [sp, #16]
    5000342c:	a8c27bfd 	ldp	x29, x30, [sp], #32
    50003430:	17fff767 	b	500011cc <enable_mmu_direct_el3>

0000000050003434 <find_event_map>:
    50003434:	2a0003e1 	mov	w1, w0
    50003438:	f0000060 	adrp	x0, 50012000 <__TEXT_END__>
    5000343c:	910c6002 	add	x2, x0, #0x318
    50003440:	52800003 	mov	w3, #0x0                   	// #0
    50003444:	f9418c00 	ldr	x0, [x0, #792]
    50003448:	f9400444 	ldr	x4, [x2, #8]
    5000344c:	eb23409f 	cmp	x4, w3, uxtw
    50003450:	540000e9 	b.ls	5000346c <find_event_map+0x38>  // b.plast
    50003454:	b9400005 	ldr	w5, [x0]
    50003458:	6b05003f 	cmp	w1, w5
    5000345c:	540001e0 	b.eq	50003498 <find_event_map+0x64>  // b.none
    50003460:	11000463 	add	w3, w3, #0x1
    50003464:	91005000 	add	x0, x0, #0x14
    50003468:	17fffff9 	b	5000344c <find_event_map+0x18>
    5000346c:	a9410c40 	ldp	x0, x3, [x2, #16]
    50003470:	52800002 	mov	w2, #0x0                   	// #0
    50003474:	eb22407f 	cmp	x3, w2, uxtw
    50003478:	540000e9 	b.ls	50003494 <find_event_map+0x60>  // b.plast
    5000347c:	b9400004 	ldr	w4, [x0]
    50003480:	6b04003f 	cmp	w1, w4
    50003484:	540000a0 	b.eq	50003498 <find_event_map+0x64>  // b.none
