
/home/ssysarch/Desktop/nick/jetpack_5/Jetson_Linux_R35.4.1_aarch64/Linux_for_Tegra/sources/tegra/optee-src/nv-optee/optee/build/t234/ta/hash_perf/614789f2-39c0-4ebf-b235-92b32ac107ed.elf:     file format elf64-littleaarch64
/home/ssysarch/Desktop/nick/jetpack_5/Jetson_Linux_R35.4.1_aarch64/Linux_for_Tegra/sources/tegra/optee-src/nv-optee/optee/build/t234/ta/hash_perf/614789f2-39c0-4ebf-b235-92b32ac107ed.elf
architecture: aarch64, flags 0x00000150:
HAS_SYMS, DYNAMIC, D_PAGED
start address 0x00000000000004e8

Program Header:
    LOAD off    0x0000000000001000 vaddr 0x0000000000000000 paddr 0x0000000000000000 align 2**12
         filesz 0x0000000000018360 memsz 0x0000000000018360 flags r-x
    LOAD off    0x000000000001a000 vaddr 0x0000000000019000 paddr 0x0000000000019000 align 2**12
         filesz 0x000000000000061c memsz 0x000000000000bec8 flags rw-
 DYNAMIC off    0x000000000001a000 vaddr 0x0000000000019000 paddr 0x0000000000019000 align 2**3
         filesz 0x0000000000000110 memsz 0x0000000000000110 flags rw-
   STACK off    0x0000000000000000 vaddr 0x0000000000000000 paddr 0x0000000000000000 align 2**4
         filesz 0x0000000000000000 memsz 0x0000000000000000 flags rw-

Dynamic Section:
  HASH                 0x0000000000018048
  GNU_HASH             0x0000000000017f58
  STRTAB               0x0000000000018018
  SYMTAB               0x0000000000017f88
  STRSZ                0x000000000000002e
  SYMENT               0x0000000000000018
  DEBUG                0x0000000000000000
  RELA                 0x0000000000018078
  RELASZ               0x00000000000004f8
  RELAENT              0x0000000000000018
  FLAGS_1              0x0000000008000000
  RELACOUNT            0x000000000000001f
private flags = 0:

Sections:
Idx Name          Size      VMA               LMA               File off  Algn
  0 .ta_head      00000020  0000000000000000  0000000000000000  00001000  2**3
                  CONTENTS, ALLOC, LOAD, READONLY, DATA
  1 .text         00012eb0  0000000000000020  0000000000000020  00001020  2**4
                  CONTENTS, ALLOC, LOAD, READONLY, CODE
  2 .eh_frame     00003bfc  0000000000012ed0  0000000000012ed0  00013ed0  2**3
                  CONTENTS, ALLOC, LOAD, READONLY, DATA
  3 .rodata       00001486  0000000000016ad0  0000000000016ad0  00017ad0  2**3
                  CONTENTS, ALLOC, LOAD, READONLY, DATA
  4 .gnu.hash     00000030  0000000000017f58  0000000000017f58  00018f58  2**3
                  CONTENTS, ALLOC, LOAD, READONLY, DATA
  5 .dynsym       00000090  0000000000017f88  0000000000017f88  00018f88  2**3
                  CONTENTS, ALLOC, LOAD, READONLY, DATA
  6 .dynstr       0000002e  0000000000018018  0000000000018018  00019018  2**0
                  CONTENTS, ALLOC, LOAD, READONLY, DATA
  7 .hash         0000002c  0000000000018048  0000000000018048  00019048  2**3
                  CONTENTS, ALLOC, LOAD, READONLY, DATA
  8 .rela.dyn     000002e8  0000000000018078  0000000000018078  00019078  2**3
                  CONTENTS, ALLOC, LOAD, READONLY, DATA
  9 .dynamic      00000110  0000000000019000  0000000000019000  0001a000  2**3
                  CONTENTS, ALLOC, LOAD, DATA
 10 .got          000000d0  0000000000019110  0000000000019110  0001a110  2**3
                  CONTENTS, ALLOC, LOAD, DATA
 11 .rela.got     00000210  00000000000191e0  00000000000191e0  0001a1e0  2**3
                  CONTENTS, ALLOC, LOAD, READONLY, DATA
 12 .data         0000022c  00000000000193f0  00000000000193f0  0001a3f0  2**3
                  CONTENTS, ALLOC, LOAD, DATA
 13 .bss          0000b8a8  0000000000019620  0000000000019620  0001a61c  2**3
                  ALLOC
 14 .debug_info   00022d75  0000000000000000  0000000000000000  0001a61c  2**0
                  CONTENTS, READONLY, DEBUGGING
 15 .debug_abbrev 00004b2a  0000000000000000  0000000000000000  0003d391  2**0
                  CONTENTS, READONLY, DEBUGGING
 16 .debug_loc    00032733  0000000000000000  0000000000000000  00041ebb  2**0
                  CONTENTS, READONLY, DEBUGGING
 17 .debug_aranges 000009e0  0000000000000000  0000000000000000  000745f0  2**4
                  CONTENTS, READONLY, DEBUGGING
 18 .debug_ranges 00002010  0000000000000000  0000000000000000  00074fd0  2**4
                  CONTENTS, READONLY, DEBUGGING
 19 .debug_macro  000199f6  0000000000000000  0000000000000000  00076fe0  2**0
                  CONTENTS, READONLY, DEBUGGING
 20 .debug_line   00013eaf  0000000000000000  0000000000000000  000909d6  2**0
                  CONTENTS, READONLY, DEBUGGING
 21 .debug_str    0001bdac  0000000000000000  0000000000000000  000a4885  2**0
                  CONTENTS, READONLY, DEBUGGING
 22 .comment      0000001f  0000000000000000  0000000000000000  000c0631  2**0
                  CONTENTS, READONLY
SYMBOL TABLE:
0000000000000000 l    d  .ta_head	0000000000000000 .ta_head
0000000000000020 l    d  .text	0000000000000000 .text
0000000000012ed0 l    d  .eh_frame	0000000000000000 .eh_frame
0000000000016ad0 l    d  .rodata	0000000000000000 .rodata
0000000000017f58 l    d  .gnu.hash	0000000000000000 .gnu.hash
0000000000017f88 l    d  .dynsym	0000000000000000 .dynsym
0000000000018018 l    d  .dynstr	0000000000000000 .dynstr
0000000000018048 l    d  .hash	0000000000000000 .hash
0000000000018078 l    d  .rela.dyn	0000000000000000 .rela.dyn
0000000000019000 l    d  .dynamic	0000000000000000 .dynamic
0000000000019110 l    d  .got	0000000000000000 .got
00000000000191e0 l    d  .rela.got	0000000000000000 .rela.got
00000000000193f0 l    d  .data	0000000000000000 .data
0000000000019620 l    d  .bss	0000000000000000 .bss
0000000000000000 l    d  .debug_info	0000000000000000 .debug_info
0000000000000000 l    d  .debug_abbrev	0000000000000000 .debug_abbrev
0000000000000000 l    d  .debug_loc	0000000000000000 .debug_loc
0000000000000000 l    d  .debug_aranges	0000000000000000 .debug_aranges
0000000000000000 l    d  .debug_ranges	0000000000000000 .debug_ranges
0000000000000000 l    d  .debug_macro	0000000000000000 .debug_macro
0000000000000000 l    d  .debug_line	0000000000000000 .debug_line
0000000000000000 l    d  .debug_str	0000000000000000 .debug_str
0000000000000000 l    d  .comment	0000000000000000 .comment
0000000000000000 l    df *ABS*	0000000000000000 user_ta_header.c
0000000000016ad8 l     O .rodata	0000000000000001 __compound_literal.6
0000000000016adc l     O .rodata	0000000000000004 __compound_literal.5
0000000000016ae0 l     O .rodata	0000000000000004 __compound_literal.4
0000000000016ae4 l     O .rodata	0000000000000004 __compound_literal.3
0000000000016ae8 l     O .rodata	0000000000000001 __compound_literal.2
0000000000016ae9 l     O .rodata	0000000000000001 __compound_literal.1
0000000000016aea l     O .rodata	0000000000000001 __compound_literal.0
0000000000000000 l    df *ABS*	0000000000000000 memcpy.c
0000000000000000 l    df *ABS*	0000000000000000 ta_hash_perf.c
0000000000016b28 l     O .rodata	000000000000000c __func__.4548
0000000000016b34 l     O .rodata	0000000000000030 CSWTCH.17
0000000000016b64 l     O .rodata	0000000000000018 CSWTCH.18
0000000000016b7c l     O .rodata	0000000000000030 CSWTCH.19
0000000000016bac l     O .rodata	000000000000000f __func__.4582
00000000000195dc l     O .data	0000000000000040 mac_key.4566
0000000000019620 l     O .bss	0000000000000008 digest_op
0000000000000000 l    df *ABS*	0000000000000000 ta_entry.c
0000000000000000 l    df *ABS*	0000000000000000 stack_check.c
0000000000000000 l    df *ABS*	0000000000000000 trace.c
0000000000000534 l     F .text	000000000000010c append
00000000000171cd l     O .rodata	0000000000000005 lvl_strs.3595
00000000000171d2 l     O .rodata	000000000000000a __func__.3657
0000000000000000 l    df *ABS*	0000000000000000 snprintk.c
0000000000000ce4 l     F .text	0000000000000be0 kprintf.constprop.0
0000000000016c46 l     O .rodata	0000000000000011 HEXDIGITS
0000000000016c57 l     O .rodata	0000000000000011 hexdigits
0000000000000000 l    df *ABS*	0000000000000000 memchr.c
0000000000000000 l    df *ABS*	0000000000000000 strlen.c
0000000000000000 l    df *ABS*	0000000000000000 trace_ext.c
0000000000000000 l    df *ABS*	0000000000000000 tee_api_objects.c
0000000000000000 l    df *ABS*	0000000000000000 tee_api_operations.c
0000000000003570 l     F .text	0000000000000118 __tee_alg_get_main_alg
0000000000003688 l     F .text	0000000000000254 tee_buffer_update
00000000000038dc l     F .text	00000000000000a4 __tee_alg_get_class
0000000000003980 l     F .text	000000000000005c reset_operation_state
00000000000039dc l     F .text	00000000000001e4 set_operation_key2
0000000000003bc0 l     F .text	00000000000000dc ae_update_helper.part.0
0000000000016c72 l     O .rodata	0000000000000012 __func__.5437
0000000000000000 l    df *ABS*	0000000000000000 tee_api_panic.c
0000000000007a94 l     F .text	000000000000001c check_access
0000000000007ab8 l     F .text	0000000000000044 check_res
00000000000172b8 l     O .rodata	000000000000000a __func__.4862
0000000000000000 l    df *ABS*	0000000000000000 user_ta_entry.c
0000000000007d80 l     F .text	00000000000000b0 _get_fn_array
0000000000007e30 l     F .text	0000000000000090 _fini_iterate_phdr_cb
0000000000007ec0 l     F .text	0000000000000028 ta_header_get_session
0000000000007ee8 l     F .text	000000000000006c to_utee_params
0000000000007f54 l     F .text	000000000000005c from_utee_params
0000000000007fb0 l     F .text	0000000000000094 _init_iterate_phdr_cb
00000000000081ac l     F .text	0000000000000098 ta_header_remove_session
0000000000017311 l     O .rodata	0000000000000016 __func__.5387
0000000000019628 l     O .bss	0000000000000008 _num_mod_init
0000000000019630 l     O .bss	0000000000000001 init_done
00000000000194d0 l     O .data	0000000000000010 ta_sessions
00000000000194e0 l     O .data	0000000000000010 __phdr_info_head
0000000000000000 l    df *ABS*	0000000000000000 utee_syscalls_a64.o
0000000000000000 l    df *ABS*	0000000000000000 abort.c
0000000000000000 l    df *ABS*	0000000000000000 assert.c
0000000000000000 l    df *ABS*	0000000000000000 tee_api.c
00000000000087f0 l     F .text	000000000000006c copy_param
000000000000885c l     F .text	0000000000000070 copy_gp11_param
00000000000088cc l     F .text	0000000000000094 check_mem_access_rights_params
0000000000008960 l     F .text	0000000000000044 buf_overlaps_no_share_heap
00000000000089a4 l     F .text	00000000000000a8 check_invoke_param
0000000000008a4c l     F .text	00000000000000a8 update_out_param
0000000000008af4 l     F .text	00000000000000ac update_out_gp11_param
0000000000008d70 l     F .text	000000000000019c map_tmp_param
0000000000019698 l     O .bss	0000000000000008 tee_api_instance_data
0000000000016b10 l     O .rodata	000000000000000b __func__.5423
0000000000000000 l    df *ABS*	0000000000000000 tee_api_arith_mpi.c
00000000000098b0 l     F .text	0000000000000030 api_panic
00000000000098e0 l     F .text	0000000000000030 mpi_panic
0000000000009910 l     F .text	0000000000000098 get_mpi
00000000000099a8 l     F .text	0000000000000064 copy_mpi_to_bigint
0000000000009a0c l     F .text	000000000000014c bigint_binary
0000000000009b58 l     F .text	0000000000000020 mpi_is_odd
0000000000009b78 l     F .text	0000000000000028 rng_read
0000000000009ba0 l     F .text	0000000000000574 mpi_egcd
00000000000196a8 l     O .bss	0000000000003800 data.5215
000000000000a640 l     F .text	00000000000001d0 bigint_binary_mod
000000000001742f l     O .rodata	0000000000000008 __func__.5249
0000000000017437 l     O .rodata	000000000000000e __func__.5387
0000000000017445 l     O .rodata	0000000000000009 __func__.5551
000000000001744e l     O .rodata	0000000000000012 __func__.5216
0000000000017460 l     O .rodata	000000000000000f __func__.5255
000000000001746f l     O .rodata	000000000000001f __func__.5283
000000000001748e l     O .rodata	0000000000000019 __func__.5297
00000000000174a7 l     O .rodata	0000000000000012 __func__.5406
00000000000174b9 l     O .rodata	0000000000000015 __func__.5328
00000000000174ce l     O .rodata	000000000000000e __func__.5427
00000000000174dc l     O .rodata	000000000000000e __func__.5456
00000000000174ea l     O .rodata	000000000000000e __func__.5464
00000000000174f8 l     O .rodata	0000000000000011 __func__.5497
0000000000017509 l     O .rodata	0000000000000018 __func__.5510
0000000000017521 l     O .rodata	0000000000000011 __func__.5531
0000000000017532 l     O .rodata	000000000000001d __func__.5608
000000000001754f l     O .rodata	0000000000000019 __func__.5681
0000000000017568 l     O .rodata	0000000000000015 __func__.5696
0000000000000000 l    df *ABS*	0000000000000000 tee_api_property.c
000000000000b9dc l     F .text	000000000000006c propset_get
000000000000ba48 l     F .text	000000000000002c is_propset_pseudo_handle
000000000000ba74 l     F .text	0000000000000148 propget_get_ext_prop
000000000000bbbc l     F .text	00000000000001b0 propget_get_property
0000000000016c94 l     O .rodata	0000000000000004 __compound_literal.3
0000000000016c98 l     O .rodata	0000000000000004 __compound_literal.2
0000000000016c9c l     O .rodata	0000000000000004 __compound_literal.1
0000000000016ca0 l     O .rodata	0000000000000004 __compound_literal.0
0000000000000000 l    df *ABS*	0000000000000000 tee_system_pta.c
000000000000c954 l     F .text	0000000000000088 invoke_system_pta
0000000000016ca4 l     O .rodata	0000000000000010 uuid.4625
0000000000016cb4 l     O .rodata	000000000000000a __func__.4645
0000000000016cbe l     O .rodata	0000000000000017 __func__.4657
000000000001cea8 l     O .bss	0000000000000008 sess.4624
0000000000000000 l    df *ABS*	0000000000000000 tcb.c
00000000000176e2 l     O .rodata	0000000000000010 __func__.4097
00000000000176f2 l     O .rodata	0000000000000010 __func__.4124
000000000001ceb0 l     O .bss	0000000000000008 _tls_size
000000000001ceb8 l     O .bss	0000000000000008 _tcb
0000000000000000 l    df *ABS*	0000000000000000 base64.c
0000000000016cdc l     O .rodata	0000000000000041 base64_table
0000000000000000 l    df *ABS*	0000000000000000 bignum.c
000000000000d208 l     F .text	0000000000000064 mpi_get_digit
000000000000d26c l     F .text	000000000000040c mpi_mul_hlp
000000000000d678 l     F .text	0000000000000038 mpi_montg_init.isra.0
000000000000d6b0 l     F .text	00000000000000ac mpi_bigendian_to_host.part.0
000000000000d75c l     F .text	00000000000000c0 mpi_fill_random_internal
000000000000d81c l     F .text	0000000000000148 mpi_montmul.isra.0
000000000000d964 l     F .text	0000000000000078 mpi_montred
000000000000db68 l     F .text	000000000000006c mbedtls_mpi_resize_clear
000000000000f8a0 l     F .text	00000000000000c4 mpi_check_small_factors
0000000000010284 l     F .text	00000000000002a4 mpi_miller_rabin
0000000000016d20 l     O .rodata	00000000000002a0 small_prime
0000000000016fc0 l     O .rodata	0000000000000024 gcd_pairs
0000000000000000 l    df *ABS*	0000000000000000 constant_time.c
0000000000011398 l     F .text	0000000000000020 mbedtls_ct_uchar_mask_of_range
0000000000000000 l    df *ABS*	0000000000000000 platform_util.c
0000000000019550 l     O .data	0000000000000008 memset_func
0000000000000000 l    df *ABS*	0000000000000000 bget_malloc.c
0000000000011b78 l     F .text	0000000000000010 _assert_trap
0000000000011b88 l     F .text	0000000000000038 raw_malloc_return_hook.isra.0
0000000000011bc0 l     F .text	0000000000000028 bget_buf_size.part.0
0000000000017e49 l     O .rodata	000000000000000e __func__.3996
0000000000017e57 l     O .rodata	0000000000000005 __func__.3908
0000000000017e5c l     O .rodata	0000000000000006 __func__.3928
0000000000017e62 l     O .rodata	0000000000000005 __func__.3949
0000000000017e67 l     O .rodata	0000000000000006 __func__.3939
0000000000017e6d l     O .rodata	0000000000000006 __func__.3958
0000000000017e73 l     O .rodata	0000000000000007 __func__.3968
0000000000017e7a l     O .rodata	0000000000000014 __func__.4197
0000000000017e8e l     O .rodata	0000000000000013 __func__.4061
0000000000019558 l     O .data	0000000000000080 malloc_ctx
0000000000000000 l    df *ABS*	0000000000000000 snprintf.c
0000000000000000 l    df *ABS*	0000000000000000 memmove.c
0000000000000000 l    df *ABS*	0000000000000000 memset.c
0000000000000000 l    df *ABS*	0000000000000000 strcmp.c
0000000000000000 l    df *ABS*	0000000000000000 strlcpy.c
0000000000000000 l    df *ABS*	0000000000000000 mempool.c
0000000000017f2a l     O .rodata	0000000000000013 __func__.3711
0000000000017f3d l     O .rodata	000000000000000b __func__.3692
0000000000017f48 l     O .rodata	000000000000000e __func__.3717
0000000000000000 l    df *ABS*	0000000000000000 consttime_memcmp.c
0000000000000000 l    df *ABS*	0000000000000000 
0000000000019000 l     O *ABS*	0000000000000000 _DYNAMIC
0000000000019128 l     O *ABS*	0000000000000000 _GLOBAL_OFFSET_TABLE_
0000000000001ac8 g     F .text	0000000000000070 putchar
000000000000a294 g     F .text	0000000000000008 __GP11_TEE_BigIntConvertFromOctetString
0000000000002488 g     F .text	0000000000000110 TEE_PopulateTransientObject
0000000000005f3c g     F .text	0000000000000010 __GP11_TEE_AEInit
000000000000b7c0 g     F .text	0000000000000004 TEE_BigIntConvertToFMM
000000000000b034 g     F .text	000000000000000c TEE_BigIntSquareMod
000000000000a810 g     F .text	00000000000001a0 TEE_BigIntShiftRight
0000000000012740 g     F .text	000000000000011c raw_malloc_add_pool
000000000000cb54 g     F .text	0000000000000110 tee_invoke_supp_plugin
000000000000da80 g     F .text	00000000000000e8 mbedtls_mpi_grow
0000000000005058 g     F .text	0000000000000070 TEE_DigestUpdate
000000000000c6c4 g     F .text	0000000000000128 __GP11_TEE_GetPropertyName
00000000000097b8 g     F .text	00000000000000d8 TEE_Realloc
0000000000004e90 g     F .text	0000000000000020 TEE_SetOperationKey2
0000000000005cc8 g     F .text	00000000000000a0 __GP11_TEE_MACComputeFinal
0000000000007d54 g     F .text	000000000000002c __utee_check_inout_annotation
00000000000124f8 g     F .text	0000000000000010 raw_free
0000000000001988 g     F .text	0000000000000100 printf
000000000000abac g     F .text	000000000000002c TEE_BigIntAbs
00000000000056fc g     F .text	00000000000000a0 __GP11_TEE_CipherUpdate
00000000000026a8 g     F .text	000000000000004c TEE_InitRefAttribute
00000000000084e4 g     F .text	000000000000000c _utee_log
00000000000091a8 g     F .text	0000000000000184 TEE_InvokeTACommand
0000000000002790 g     F .text	000000000000004c __GP11_TEE_InitValueAttribute
0000000000007afc g     F .text	0000000000000064 __utee_check_outbuf_annotation
000000000000d9ec g     F .text	0000000000000028 mbedtls_mpi_init_mempool
0000000000008664 g     F .text	000000000000000c _utee_cryp_random_number_generate
000000000000e1e8 g     F .text	00000000000000c4 mbedtls_mpi_write_binary
000000000000627c g     F .text	0000000000000200 TEE_AEEncryptFinal
0000000000000bc0 g     F .text	0000000000000058 vsnprintk
000000000000ea64 g     F .text	0000000000000074 mbedtls_mpi_sub_int
0000000000006c74 g     F .text	0000000000000178 __GP11_TEE_AsymmetricDecrypt
0000000000012bdc g     F .text	000000000000005c memmove
0000000000012ab4 g     F .text	00000000000000d0 snprintf
000000000000a5c4 g     F .text	000000000000007c TEE_BigIntCmpS32
00000000000094c8 g     F .text	0000000000000008 __GP11_TEE_MemMove
00000000000194c8 g     O .data	0000000000000008 __stack_chk_guard
00000000000118dc g     F .text	000000000000027c mbedtls_ct_rsaes_pkcs1_v15_unpadding
0000000000002744 g     F .text	000000000000004c TEE_InitValueAttribute
000000000000dbd4 g     F .text	0000000000000120 mbedtls_mpi_shrink
00000000000094e0 g     F .text	0000000000000008 __GP11_TEE_MemFill
000000000000abd8 g     F .text	000000000000000c TEE_BigIntAdd
0000000000008604 g     F .text	000000000000000c _utee_cryp_obj_restrict_usage
00000000000026f4 g     F .text	0000000000000050 __GP11_TEE_InitRefAttribute
0000000000016af8 g     O .rodata	0000000000000008 ta_heap_size
00000000000023f8 g     F .text	0000000000000090 TEE_ResetTransientObject
00000000000086ac g     F .text	000000000000000c _utee_asymm_operate
000000000000cfb0 g     F .text	0000000000000018 _base64_enc_len
000000000000ed2c g     F .text	000000000000020c mbedtls_mpi_read_string
0000000000002a3c g     F .text	00000000000000d4 __GP11_TEE_GenerateKey
0000000000005480 g     F .text	00000000000000e0 TEE_CipherInit
000000000000abf0 g     F .text	00000000000000e4 TEE_BigIntNeg
0000000000008700 g     F .text	000000000000000c _utee_storage_free_enum
0000000000000020 g       .text	0000000000000000 __text_start
000000000000c874 g     F .text	00000000000000e0 TEE_GetNextProperty
0000000000002f74 g     F .text	0000000000000050 TEE_StartPersistentObjectEnumerator
000000000000e3bc g     F .text	00000000000000c0 mbedtls_mpi_shift_r
0000000000012aa0 g     F .text	0000000000000014 malloc_buffer_overlaps_heap
00000000000085b0 g     F .text	000000000000000c _utee_hash_init
000000000000b01c g     F .text	000000000000000c TEE_BigIntSubMod
0000000000010c24 g     F .text	000000000000034c mbedtls_mpi_gen_prime
000000000000c3f4 g     F .text	0000000000000098 TEE_GetPropertyAsBinaryBlock
000000000000deb0 g     F .text	000000000000002c mbedtls_mpi_get_bit
0000000000016af0 g     O .rodata	0000000000000008 __ta_no_share_heap_size
000000000000e0ac g     F .text	0000000000000084 mbedtls_mpi_read_binary
0000000000005e78 g     F .text	00000000000000c4 TEE_AEInit
0000000000000888 g     F .text	00000000000000e0 trace_printf
000000000000f96c g     F .text	0000000000000008 mbedtls_mpi_montmul
000000000000876c g     F .text	000000000000000c _utee_cache_operation
0000000000000020 g     F .text	00000000000000ec memcpy
000000000000b7c4 g     F .text	00000000000000d0 TEE_BigIntConvertFromFMM
0000000000007ab0 g     F .text	0000000000000008 TEE_Panic
0000000000004efc g     F .text	000000000000015c TEE_CopyOperation
0000000000001a88 g     F .text	0000000000000040 puts
000000000000b894 g     F .text	0000000000000148 TEE_BigIntComputeFMM
0000000000012a68 g     F .text	0000000000000010 malloc_get_stats
0000000000009604 g     F .text	0000000000000028 TEE_GetREETime
0000000000012a2c g     F .text	000000000000003c raw_malloc_get_stats
0000000000002e94 g     F .text	0000000000000090 TEE_AllocatePersistentObjectEnumerator
00000000000193f0 g     O .data	00000000000000d8 ta_props
0000000000009750 g     F .text	0000000000000008 __GP11_TEE_Malloc
00000000000067dc g     F .text	0000000000000190 TEE_AsymmetricEncrypt
0000000000009060 g     F .text	0000000000000148 __GP11_TEE_OpenTASession
0000000000007bc4 g     F .text	000000000000003c __utee_check_instring_annotation
000000000001266c g     F .text	0000000000000018 malloc
000000000000c6b0 g     F .text	0000000000000004 TEE_FreePropertyEnumerator
0000000000011410 g     F .text	0000000000000010 mbedtls_ct_mpi_uint_mask
0000000000005560 g     F .text	0000000000000008 __GP11_TEE_CipherInit
0000000000002968 g     F .text	00000000000000d4 TEE_GenerateKey
0000000000012b84 g     F .text	0000000000000058 vsnprintf
00000000000195d8 g     O .data	0000000000000004 trace_level
0000000000002bf4 g     F .text	0000000000000008 __GP11_TEE_OpenPersistentObject
000000000000a530 g     F .text	0000000000000094 TEE_BigIntCmp
0000000000016ad0 g     O .rodata	0000000000000008 ta_num_props
0000000000012218 g     F .text	00000000000000d0 bgetr
00000000000086c4 g     F .text	000000000000000c _utee_storage_obj_open
00000000000094d4 g     F .text	0000000000000008 __GP11_TEE_MemCompare
0000000000012e4c g     F .text	0000000000000014 mempool_free
0000000000005568 g     F .text	0000000000000194 TEE_CipherUpdate
00000000000085bc g     F .text	000000000000000c _utee_hash_update
000000000000a29c g     F .text	00000000000000c8 TEE_BigIntConvertToOctetString
0000000000004a94 g     F .text	00000000000001b0 TEE_GetOperationInfoMultiple
000000000000dfbc g     F .text	000000000000005c mbedtls_mpi_bitlen
000000000000a9b8 g     F .text	0000000000000080 TEE_BigIntGetBit
0000000000016b00 g     O .rodata	0000000000000003 trace_ext_prefix
0000000000008724 g     F .text	000000000000000c _utee_storage_next_enum
00000000000124e8 g     F .text	0000000000000010 raw_malloc
0000000000011ecc g     F .text	0000000000000088 bgetz
0000000000011420 g     F .text	0000000000000018 mbedtls_ct_size_bool_eq
00000000000094b8 g     F .text	000000000000000c TEE_GetInstanceData
0000000000009510 g     F .text	000000000000003c TEE_Wait
000000000000ead8 g     F .text	00000000000001ac mbedtls_mpi_mul_mpi
000000000000a9b0 g     F .text	0000000000000008 __GP11_TEE_BigIntShiftRight
00000000000098a0 g     F .text	0000000000000008 TEE_CacheFlush
000000000000066c g     F .text	000000000000021c trace_vprintf
00000000000004b0 g     F .text	0000000000000004 TA_DestroyEntryPoint
000000000000d9dc g     F .text	0000000000000010 mbedtls_mpi_init
00000000000086dc g     F .text	000000000000000c _utee_storage_obj_del
000000000000df68 g     F .text	0000000000000054 mbedtls_mpi_lsb
00000000000059b4 g     F .text	00000000000000b0 __GP11_TEE_CipherDoFinal
0000000000008798 g     F .text	0000000000000044 _assert_log
000000000000615c g     F .text	0000000000000120 __GP11_TEE_AEUpdate
0000000000008598 g     F .text	000000000000000c _utee_cryp_state_copy
000000000000b7a0 g     F .text	0000000000000008 TEE_BigIntFMMContextSizeInU32
000000000000ca8c g     F .text	00000000000000c8 tee_unmap
0000000000005d68 g     F .text	0000000000000104 TEE_MACCompareFinal
0000000000011454 g     F .text	0000000000000030 mbedtls_ct_uint_if
0000000000002e30 g     F .text	000000000000005c TEE_RenamePersistentObject
00000000000050d0 g     F .text	000000000000016c TEE_DigestDoFinal
0000000000002598 g     F .text	0000000000000110 __GP11_TEE_PopulateTransientObject
000000000000a114 g     F .text	0000000000000050 _TEE_MathAPI_Init
000000000000cc64 g     F .text	0000000000000240 __utee_tcb_init
000000000000e8dc g     F .text	0000000000000088 mbedtls_mpi_add_mpi
0000000000008778 g     F .text	0000000000000020 abort
0000000000010528 g     F .text	00000000000001b8 mbedtls_mpi_random
0000000000000504 g     F .text	0000000000000030 __stack_chk_fail
0000000000007cc8 g     F .text	000000000000002c __utee_check_out_annotation
000000000001cec8 g     O .bss	0000000000008000 ta_heap
000000000000b040 g     F .text	0000000000000150 TEE_BigIntInvMod
00000000000050c8 g     F .text	0000000000000008 __GP11_TEE_DigestUpdate
0000000000008044 g     F .text	0000000000000158 __utee_call_elf_init_fn
0000000000001c94 g     F .text	00000000000000c4 __GP11_TEE_GetObjectInfo
00000000000004bc g     F .text	0000000000000004 TA_CloseSessionEntryPoint
0000000000008520 g     F .text	000000000000000c _utee_close_ta_session
000000000000b768 g     F .text	0000000000000008 __GP11_TEE_BigIntInitFMMContext
0000000000006ae0 g     F .text	0000000000000194 TEE_AsymmetricDecrypt
0000000000001e08 g     F .text	00000000000000c0 __GP11_TEE_GetObjectInfo1
0000000000002b10 g     F .text	00000000000000e4 TEE_OpenPersistentObject
000000000000e964 g     F .text	000000000000008c mbedtls_mpi_sub_mpi
0000000000012e60 g     F .text	0000000000000070 consttime_memcmp
00000000000084d8 g     F .text	000000000000000c _utee_return
00000000000084f0 g     F .text	000000000000000c __utee_panic
00000000000113b8 g     F .text	0000000000000048 mbedtls_ct_memcmp
000000000000cea4 g     F .text	000000000000001c __tls_get_addr
00000000000004c0 g     F .text	0000000000000028 TA_InvokeCommandEntryPoint
000000000000819c g     F .text	0000000000000010 __utee_call_elf_fini_fn
00000000000126fc g     F .text	0000000000000010 free_wipe
0000000000012d98 g     F .text	0000000000000064 mempool_alloc
00000000000084cc g     F .text	000000000000000c _utee_panic
0000000000012714 g     F .text	000000000000002c raw_malloc_init_ctx
0000000000012dfc g     F .text	0000000000000050 mempool_calloc
0000000000008760 g     F .text	000000000000000c _utee_cryp_obj_generate_key
0000000000008748 g     F .text	000000000000000c _utee_storage_obj_trunc
00000000000028d4 g     F .text	0000000000000094 TEE_CopyObjectAttributes
00000000000194f0 g     O .data	0000000000000060 tee_props
0000000000008550 g     F .text	000000000000000c _utee_unmask_cancellation
000000000000c65c g     F .text	000000000000000c TEE_ResetPropertyEnumerator
0000000000012684 g     F .text	000000000000001c calloc
000000000000962c g     F .text	0000000000000124 TEE_Malloc
0000000000008ce8 g     F .text	0000000000000088 TEE_CheckMemoryAccessRights
000000000000c48c g     F .text	00000000000000e8 TEE_GetPropertyAsUUID
00000000000084fc g     F .text	000000000000000c _utee_get_property
000000000000523c g     F .text	00000000000000a0 __GP11_TEE_DigestDoFinal
000000000000aaac g     F .text	00000000000000b0 TEE_BigIntSetBit
000000000000de48 g     F .text	0000000000000068 mbedtls_mpi_lset
0000000000004eb0 g     F .text	000000000000004c __GP11_TEE_SetOperationKey2
000000000000320c g     F .text	00000000000000c8 TEE_ReadObjectData
0000000000001f9c g     F .text	0000000000000104 TEE_GetObjectBufferAttribute
00000000000004b4 g     F .text	0000000000000008 TA_OpenSessionEntryPoint
0000000000003c9c g     F .text	0000000000000040 TEE_FreeOperation
000000000000cec0 g     F .text	00000000000000f0 dl_iterate_phdr
0000000000024ec8 g       .bss	0000000000000000 __ftrace_buf_end
0000000000019638 g     O .bss	0000000000000004 ta_param_types
000000000000f46c g     F .text	0000000000000074 mbedtls_mpi_div_int
0000000000001b38 g     F .text	0000000000000050 __utee_from_attr
0000000000010b38 g     F .text	00000000000000dc mbedtls_mpi_is_prime_ext
000000000000b6d4 g     F .text	0000000000000084 TEE_BigIntIsProbablePrime
000000000000ec84 g     F .text	00000000000000a8 mbedtls_mpi_mul_int
0000000000002dbc g     F .text	0000000000000048 TEE_CloseAndDeletePersistentObject1
000000000000f978 g     F .text	00000000000006cc mbedtls_mpi_exp_mod
000000000001162c g     F .text	00000000000000bc mbedtls_mpi_safe_cond_assign
000000000000bd6c g     F .text	000000000000025c TEE_GetPropertyAsString
00000000000117e4 g     F .text	00000000000000f8 mbedtls_mpi_lt_mpi_ct
0000000000006550 g     F .text	00000000000001d4 TEE_AEDecryptFinal
000000000000a164 g     F .text	0000000000000060 TEE_BigIntInit
000000000000a364 g     F .text	0000000000000060 __GP11_TEE_BigIntConvertToOctetString
000000000000ab5c g     F .text	0000000000000050 TEE_BigIntAssign
0000000000007c00 g     F .text	0000000000000064 __utee_check_outstring_annotation
00000000000094c4 g     F .text	0000000000000004 TEE_MemMove
0000000000011b58 g     F .text	0000000000000020 mbedtls_platform_zeroize
000000000000a1cc g     F .text	00000000000000c8 TEE_BigIntConvertFromOctetString
00000000000086a0 g     F .text	000000000000000c _utee_authenc_dec_final
000000000000e47c g     F .text	000000000000009c mbedtls_mpi_cmp_abs
0000000000008730 g     F .text	000000000000000c _utee_storage_obj_read
0000000000005a64 g     F .text	00000000000000a4 TEE_MACInit
0000000000006dec g     F .text	000000000000016c TEE_AsymmetricSignDigest
0000000000001910 g     F .text	000000000000002c memchr
0000000000008c28 g     F .text	0000000000000060 TEE_UnmaskCancellation
0000000000001bd8 g     F .text	00000000000000bc TEE_GetObjectInfo
0000000000010f70 g     F .text	0000000000000428 mbedtls_mpi_self_test
0000000000007b60 g     F .text	0000000000000064 __utee_check_gp11_outbuf_annotation
0000000000008754 g     F .text	000000000000000c _utee_storage_obj_seek
000000000000607c g     F .text	00000000000000e0 TEE_AEUpdate
0000000000002368 g     F .text	0000000000000090 TEE_FreeTransientObject
0000000000008544 g     F .text	000000000000000c _utee_check_access_rights
000000000000932c g     F .text	0000000000000178 __GP11_TEE_InvokeTACommand
000000000000e5ec g     F .text	0000000000000074 mbedtls_mpi_cmp_int
000000000000d0e4 g     F .text	0000000000000124 _base64_dec
0000000000004a14 g     F .text	000000000000002c __GP11_TEE_FreeOperation
000000000000870c g     F .text	000000000000000c _utee_storage_reset_enum
0000000000011570 g     F .text	00000000000000bc mbedtls_ct_base64_dec_value
0000000000007694 g     F .text	0000000000000058 rand
0000000000007cf4 g     F .text	0000000000000030 __utee_check_attr_in_annotation
0000000000008688 g     F .text	000000000000000c _utee_authenc_update_payload
0000000000004a40 g     F .text	0000000000000054 TEE_GetOperationInfo
000000000000afa4 g     F .text	000000000000006c TEE_BigIntMod
000000000000f594 g     F .text	000000000000009c mbedtls_mpi_mod_int
0000000000006f58 g     F .text	000000000000016c __GP11_TEE_AsymmetricSignDigest
000000000000e034 g     F .text	0000000000000078 mbedtls_mpi_read_binary_le
000000000000adf0 g     F .text	00000000000001b4 TEE_BigIntDiv
000000000000861c g     F .text	000000000000000c _utee_cryp_obj_alloc
0000000000024ec8 g       .bss	0000000000000000 __ftrace_buf_start
0000000000012c78 g     F .text	0000000000000058 strlcpy
00000000000114c0 g     F .text	00000000000000b0 mbedtls_ct_base64_enc_char
000000000000dcf4 g     F .text	00000000000000cc mbedtls_mpi_copy
00000000000076ec g     F .text	00000000000003a8 TEE_IsAlgorithmSupported
000000000001244c g     F .text	0000000000000018 malloc_reset_stats
000000000000c574 g     F .text	00000000000000e8 TEE_GetPropertyAsIdentity
00000000000018c4 g     F .text	000000000000004c __vsprintf
000000000000c220 g     F .text	00000000000000e8 TEE_GetPropertyAsU64
0000000000008580 g     F .text	000000000000000c _utee_set_ta_time
000000000000852c g     F .text	000000000000000c _utee_invoke_ta_command
0000000000001ec8 g     F .text	0000000000000044 TEE_RestrictObjectUsage1
00000000000126a0 g     F .text	0000000000000018 realloc
000000000000ddc0 g     F .text	0000000000000088 mbedtls_mpi_swap
0000000000012cd0 g     F .text	00000000000000c8 mempool_alloc_pool
000000000000acd4 g     F .text	0000000000000114 TEE_BigIntMul
0000000000004ccc g     F .text	000000000000003c TEE_ResetOperation
000000000000027c g     F .text	0000000000000218 cmd_prepare_op
000000000001270c g     F .text	0000000000000008 raw_malloc_get_ctx_size
000000000000e2ac g     F .text	0000000000000110 mbedtls_mpi_shift_l
000000000000e518 g     F .text	00000000000000d4 mbedtls_mpi_cmp_mpi
00000000000094dc g     F .text	0000000000000004 TEE_MemFill
0000000000012a78 g     F .text	0000000000000014 malloc_add_pool
0000000000005b10 g     F .text	00000000000000a0 TEE_MACUpdate
000000000000065c g     F .text	0000000000000010 trace_get_level
000000000000e660 g     F .text	0000000000000120 mbedtls_mpi_add_abs
0000000000001f0c g     F .text	0000000000000090 TEE_RestrictObjectUsage
000000000000b778 g     F .text	0000000000000010 TEE_BigIntFMMSizeInU32
000000000000c060 g     F .text	00000000000000d8 TEE_GetPropertyAsBool
0000000000012578 g     F .text	00000000000000f4 raw_realloc
000000000000b758 g     F .text	0000000000000004 TEE_BigIntInitFMM
0000000000002270 g     F .text	0000000000000028 TEE_CloseObject
00000000000085d4 g     F .text	000000000000000c _utee_cipher_init
0000000000008244 g     F .text	0000000000000288 __utee_entry
000000000000c138 g     F .text	00000000000000e8 TEE_GetPropertyAsU32
0000000000012ed0 g       .text	0000000000000000 __text_end
000000000000b190 g     F .text	0000000000000108 TEE_BigIntRelativePrime
000000000000f4e0 g     F .text	00000000000000b4 mbedtls_mpi_mod_mpi
00000000000085f8 g     F .text	000000000000000c _utee_cryp_obj_get_info
00000000000122e8 g     F .text	00000000000000d0 bpool
000000000000c668 g     F .text	0000000000000048 TEE_AllocatePropertyEnumerator
000000000000858c g     F .text	000000000000000c _utee_cryp_state_alloc
0000000000008bc8 g     F .text	0000000000000060 TEE_GetCancellationFlag
0000000000002d40 g     F .text	000000000000007c __GP11_TEE_CreatePersistentObject
0000000000010044 g     F .text	00000000000001d8 mbedtls_mpi_gcd
00000000000095c0 g     F .text	0000000000000044 TEE_SetTAPersistentTime
000000000000e130 g     F .text	00000000000000b8 mbedtls_mpi_write_binary_le
0000000000012c38 g     F .text	000000000000001c memset
0000000000012464 g     F .text	0000000000000084 raw_memalign
000000000000954c g     F .text	0000000000000074 TEE_GetTAPersistentTime
0000000000004e54 g     F .text	000000000000003c __GP11_TEE_SetOperationKey
000000000000647c g     F .text	00000000000000d4 __GP11_TEE_AEEncryptFinal
0000000000000494 g     F .text	0000000000000014 cmd_clean_res
0000000000000968 g     F .text	0000000000000198 dhex_dump
0000000000002bfc g     F .text	0000000000000144 TEE_CreatePersistentObject
0000000000008c88 g     F .text	0000000000000060 TEE_MaskCancellation
0000000000005f4c g     F .text	000000000000009c TEE_AEUpdateAAD
00000000000033ec g     F .text	000000000000005c TEE_TruncateObjectData
0000000000008610 g     F .text	000000000000000c _utee_cryp_obj_get_attr
0000000000001d58 g     F .text	00000000000000b0 TEE_GetObjectInfo1
00000000000085ec g     F .text	000000000000000c _utee_cipher_final
0000000000000640 g     F .text	000000000000001c trace_set_level
0000000000002138 g     F .text	0000000000000138 TEE_GetObjectValueAttribute
0000000000004d08 g     F .text	000000000000014c TEE_SetOperationKey
0000000000011438 g     F .text	000000000000001c mbedtls_ct_mpi_uint_lt
00000000000020a0 g     F .text	0000000000000098 __GP11_TEE_GetObjectBufferAttribute
00000000000085a4 g     F .text	000000000000000c _utee_cryp_state_free
0000000000012c54 g     F .text	0000000000000024 strcmp
0000000000008514 g     F .text	000000000000000c _utee_open_ta_session
000000000000a474 g     F .text	00000000000000bc TEE_BigIntConvertToS32
000000000000abe4 g     F .text	000000000000000c TEE_BigIntSub
0000000000003568 g     F .text	0000000000000008 __GP11_TEE_SeekObjectData
00000000000004fc g     F .text	0000000000000008 tahead_get_trace_level
0000000000008718 g     F .text	000000000000000c _utee_storage_start_enum
0000000000003450 g     F .text	0000000000000118 TEE_SeekObjectData
000000000000c9dc g     F .text	00000000000000b0 tee_map_zi
0000000000003448 g     F .text	0000000000000008 __GP11_TEE_TruncateObjectData
000000000000f974 g     F .text	0000000000000004 mbedtls_mpi_montred
00000000000126b8 g     F .text	000000000000001c memalign
0000000000011400 g     F .text	0000000000000010 mbedtls_ct_uint_mask
000000000000579c g     F .text	0000000000000218 TEE_CipherDoFinal
000000000000a1c4 g     F .text	0000000000000008 __GP11_TEE_BigIntInit
000000000000a3c4 g     F .text	00000000000000b0 TEE_BigIntConvertFromS32
000000000000e9f0 g     F .text	0000000000000074 mbedtls_mpi_add_int
0000000000008694 g     F .text	000000000000000c _utee_authenc_enc_final
0000000000012a8c g     F .text	0000000000000014 malloc_buffer_is_within_alloced
0000000000008628 g     F .text	000000000000000c _utee_cryp_obj_close
000000000000768c g     F .text	0000000000000008 __GP11_TEE_GenerateRandom
000000000000b764 g     F .text	0000000000000004 TEE_BigIntInitFMMContext
000000000000855c g     F .text	000000000000000c _utee_mask_cancellation
000000000000010c g     F .text	0000000000000170 cmd_process
0000000000019640 g     O .bss	0000000000000008 __ta_no_share_malloc_ctx
00000000000086e8 g     F .text	000000000000000c _utee_storage_obj_rename
00000000000030e0 g     F .text	000000000000012c __GP11_TEE_GetNextPersistentObject
000000000000336c g     F .text	0000000000000078 TEE_WriteObjectData
0000000000002f4c g     F .text	0000000000000028 TEE_ResetPersistentObjectEnumerator
00000000000094a4 g     F .text	0000000000000008 __GP11_TEE_CheckMemoryAccessRights
000000000000ade8 g     F .text	0000000000000008 TEE_BigIntSquare
000000000000873c g     F .text	000000000000000c _utee_storage_obj_write
00000000000004a8 g     F .text	0000000000000008 TA_CreateEntryPoint
00000000000004e8 g     F .text	0000000000000014 __ta_entry
0000000000024ec8 g     O .bss	0000000000000000 __ta_no_share_heap
000000000000867c g     F .text	000000000000000c _utee_authenc_update_aad
000000000000f964 g     F .text	0000000000000008 mbedtls_mpi_montg_init
0000000000000c18 g     F .text	00000000000000cc snprintk
000000000000aa38 g     F .text	0000000000000074 TEE_BigIntGetBitCount
000000000000864c g     F .text	000000000000000c _utee_cryp_obj_copy
0000000000005fe8 g     F .text	0000000000000094 __GP11_TEE_AEUpdateAAD
000000000000b028 g     F .text	000000000000000c TEE_BigIntMulMod
00000000000106e0 g     F .text	0000000000000458 mbedtls_mpi_inv_mod
0000000000007d24 g     F .text	0000000000000030 __utee_check_gp11_attr_in_annotation
0000000000007374 g     F .text	000000000000017c TEE_DeriveKey
0000000000019648 g     O .bss	0000000000000040 ta_params
000000000000ef38 g     F .text	0000000000000534 mbedtls_mpi_div_mpi
0000000000007c64 g     F .text	0000000000000064 __utee_check_gp11_outstring_annotation
000000000000e018 g     F .text	000000000000001c mbedtls_mpi_size
0000000000011be8 g     F .text	00000000000002e4 bget
00000000000032d4 g     F .text	0000000000000098 __GP11_TEE_ReadObjectData
000000000000234c g     F .text	000000000000001c TEE_AllocateTransientObject
0000000000005bb0 g     F .text	0000000000000008 __GP11_TEE_MACUpdate
000000000000b7a8 g     F .text	0000000000000018 __GP11_TEE_BigIntFMMContextSizeInU32
000000000000c6b4 g     F .text	0000000000000010 TEE_StartPropertyEnumerator
0000000000008568 g     F .text	000000000000000c _utee_wait
000000000000dedc g     F .text	000000000000008c mbedtls_mpi_set_bit
0000000000009758 g     F .text	0000000000000060 TEE_Free
0000000000010c14 g     F .text	0000000000000010 mbedtls_mpi_is_prime
00000000000098a8 g     F .text	0000000000000008 TEE_CacheInvalidate
00000000000087dc g     F .text	0000000000000014 _assert_break
000000000000b010 g     F .text	000000000000000c TEE_BigIntAddMod
0000000000011484 g     F .text	000000000000003c mbedtls_ct_mpi_uint_cond_assign
000000000000b75c g     F .text	0000000000000008 __GP11_TEE_BigIntInitFMM
0000000000008574 g     F .text	000000000000000c _utee_get_time
000000000000c7ec g     F .text	0000000000000088 TEE_GetPropertyName
0000000000009890 g     F .text	0000000000000008 __GP11_TEE_Realloc
0000000000003cdc g     F .text	0000000000000d38 TEE_AllocateOperation
0000000000008640 g     F .text	000000000000000c _utee_cryp_obj_populate
0000000000004c44 g     F .text	0000000000000088 __GP11_TEE_GetOperationInfoMultiple
0000000000001b88 g     F .text	0000000000000050 __utee_from_gp11_attr
000000000000766c g     F .text	0000000000000020 TEE_GenerateRandom
00000000000052dc g     F .text	00000000000001a4 TEE_DigestExtract
00000000000094d0 g     F .text	0000000000000004 TEE_MemCompare
00000000000085e0 g     F .text	000000000000000c _utee_cipher_update
0000000000000b00 g     F .text	00000000000000c0 __vsnprintf
0000000000019688 g     O .bss	0000000000000010 __elf_phdr_info
0000000000002f24 g     F .text	0000000000000028 TEE_FreePersistentObjectEnumerator
0000000000008f0c g     F .text	0000000000000154 TEE_OpenTASession
00000000000074f0 g     F .text	000000000000017c __GP11_TEE_DeriveKey
0000000000006724 g     F .text	00000000000000b8 __GP11_TEE_AEDecryptFinal
0000000000001958 g     F .text	0000000000000028 trace_ext_puts
000000000000bfc8 g     F .text	0000000000000098 __GP11_TEE_GetPropertyAsString
00000000000128dc g     F .text	0000000000000150 raw_malloc_buffer_is_within_alloced
0000000000001980 g     F .text	0000000000000008 trace_ext_get_thread_id
000000000001285c g     F .text	0000000000000080 raw_malloc_buffer_overlaps_heap
0000000000002e04 g     F .text	000000000000002c TEE_CloseAndDeletePersistentObject
0000000000008658 g     F .text	000000000000000c _utee_cryp_derive_key
000000000000da14 g     F .text	000000000000006c mbedtls_mpi_free
0000000000005b08 g     F .text	0000000000000008 __GP11_TEE_MACInit
000000000000721c g     F .text	0000000000000158 __GP11_TEE_AsymmetricVerifyDigest
0000000000008634 g     F .text	000000000000000c _utee_cryp_obj_reset
0000000000009898 g     F .text	0000000000000008 TEE_CacheClean
0000000000008508 g     F .text	000000000000000c _utee_get_property_name_to_index
0000000000012508 g     F .text	0000000000000070 raw_calloc
000000000000cfc8 g     F .text	000000000000011c _base64_enc
00000000000116e8 g     F .text	00000000000000fc mbedtls_mpi_safe_cond_swap
0000000000008670 g     F .text	000000000000000c _utee_authenc_init
00000000000027dc g     F .text	00000000000000f8 TEE_CopyObjectAttributes1
0000000000002e8c g     F .text	0000000000000008 __GP11_TEE_RenamePersistentObject
000000000000193c g     F .text	000000000000001c strlen
000000000000b46c g     F .text	0000000000000268 TEE_BigIntComputeExtendedGcd
00000000000086f4 g     F .text	000000000000000c _utee_storage_alloc_enum
000000000000b298 g     F .text	00000000000001d4 TEE_BigIntExpMod
00000000000094e8 g     F .text	0000000000000028 TEE_GetSystemTime
00000000000086b8 g     F .text	000000000000000c _utee_asymm_verify
0000000000000000 g     O .ta_head	0000000000000020 ta_head
0000000000011f54 g     F .text	00000000000002c4 brel
000000000000c308 g     F .text	00000000000000ec __GP11_TEE_GetPropertyAsBinaryBlock
000000000000e780 g     F .text	000000000000015c mbedtls_mpi_sub_abs
000000000001021c g     F .text	0000000000000068 mbedtls_mpi_fill_random
0000000000002298 g     F .text	00000000000000b4 __GP11_TEE_AllocateTransientObject
00000000000094ac g     F .text	000000000000000c TEE_SetInstanceData
000000000000696c g     F .text	0000000000000174 __GP11_TEE_AsymmetricEncrypt
0000000000008538 g     F .text	000000000000000c _utee_get_cancellation_flag
000000000000f630 g     F .text	0000000000000270 mbedtls_mpi_write_string
00000000000126d4 g     F .text	0000000000000018 aligned_alloc
0000000000002fc4 g     F .text	000000000000011c TEE_GetNextPersistentObject
000000000000b770 g     F .text	0000000000000008 TEE_BigIntInitFMMContext1
0000000000005e6c g     F .text	000000000000000c __GP11_TEE_MACCompareFinal
00000000000033e4 g     F .text	0000000000000008 __GP11_TEE_WriteObjectData
0000000000008ba0 g     F .text	0000000000000028 TEE_CloseTASession
00000000000070c4 g     F .text	0000000000000158 TEE_AsymmetricVerifyDigest
00000000000086d0 g     F .text	000000000000000c _utee_storage_obj_create
000000000000b788 g     F .text	0000000000000018 __GP11_TEE_BigIntFMMSizeInU32
00000000000126ec g     F .text	0000000000000010 free
00000000000123b8 g     F .text	0000000000000094 bstats
0000000000005bb8 g     F .text	0000000000000110 TEE_MACComputeFinal
000000000001cec0 g     O .bss	0000000000000008 mbedtls_mpi_mempool
00000000000085c8 g     F .text	000000000000000c _utee_hash_final



Disassembly of section .text:

0000000000000020 <memcpy>:
memcpy():
/home/ssysarch/Desktop/nick/jetpack_5/Jetson_Linux_R35.4.1_aarch64/Linux_for_Tegra/sources/tegra/optee-src/nv-optee/optee/optee_os/lib/libutils/isoc/newlib/memcpy.c:106
      20:	f1007c5f 	cmp	x2, #0x1f
      24:	54000629 	b.ls	e8 <memcpy+0xc8>  // b.plast
/home/ssysarch/Desktop/nick/jetpack_5/Jetson_Linux_R35.4.1_aarch64/Linux_for_Tegra/sources/tegra/optee-src/nv-optee/optee/optee_os/lib/libutils/isoc/newlib/memcpy.c:106 (discriminator 1)
      28:	aa000025 	orr	x5, x1, x0
      2c:	f24008a5 	ands	x5, x5, #0x7
      30:	54000641 	b.ne	f8 <memcpy+0xd8>  // b.any
      34:	d1008048 	sub	x8, x2, #0x20
/home/ssysarch/Desktop/nick/jetpack_5/Jetson_Linux_R35.4.1_aarch64/Linux_for_Tegra/sources/tegra/optee-src/nv-optee/optee/optee_os/lib/libutils/isoc/newlib/memcpy.c:108
      38:	aa0103e4 	mov	x4, x1
      3c:	927be908 	and	x8, x8, #0xffffffffffffffe0
/home/ssysarch/Desktop/nick/jetpack_5/Jetson_Linux_R35.4.1_aarch64/Linux_for_Tegra/sources/tegra/optee-src/nv-optee/optee/optee_os/lib/libutils/isoc/newlib/memcpy.c:107
      40:	aa0003e3 	mov	x3, x0
      44:	91008108 	add	x8, x8, #0x20
      48:	8b080007 	add	x7, x0, x8
      4c:	d503201f 	nop
/home/ssysarch/Desktop/nick/jetpack_5/Jetson_Linux_R35.4.1_aarch64/Linux_for_Tegra/sources/tegra/optee-src/nv-optee/optee/optee_os/lib/libutils/isoc/newlib/memcpy.c:112
      50:	f9400086 	ldr	x6, [x4]
      54:	f9000066 	str	x6, [x3]
/home/ssysarch/Desktop/nick/jetpack_5/Jetson_Linux_R35.4.1_aarch64/Linux_for_Tegra/sources/tegra/optee-src/nv-optee/optee/optee_os/lib/libutils/isoc/newlib/memcpy.c:113
      58:	91008084 	add	x4, x4, #0x20
      5c:	91008063 	add	x3, x3, #0x20
      60:	f85e8086 	ldur	x6, [x4, #-24]
      64:	f81e8066 	stur	x6, [x3, #-24]
/home/ssysarch/Desktop/nick/jetpack_5/Jetson_Linux_R35.4.1_aarch64/Linux_for_Tegra/sources/tegra/optee-src/nv-optee/optee/optee_os/lib/libutils/isoc/newlib/memcpy.c:114
      68:	f85f0086 	ldur	x6, [x4, #-16]
      6c:	f81f0066 	stur	x6, [x3, #-16]
/home/ssysarch/Desktop/nick/jetpack_5/Jetson_Linux_R35.4.1_aarch64/Linux_for_Tegra/sources/tegra/optee-src/nv-optee/optee/optee_os/lib/libutils/isoc/newlib/memcpy.c:111
      70:	eb0300ff 	cmp	x7, x3
/home/ssysarch/Desktop/nick/jetpack_5/Jetson_Linux_R35.4.1_aarch64/Linux_for_Tegra/sources/tegra/optee-src/nv-optee/optee/optee_os/lib/libutils/isoc/newlib/memcpy.c:115
      74:	f85f8086 	ldur	x6, [x4, #-8]
      78:	f81f8066 	stur	x6, [x3, #-8]
/home/ssysarch/Desktop/nick/jetpack_5/Jetson_Linux_R35.4.1_aarch64/Linux_for_Tegra/sources/tegra/optee-src/nv-optee/optee/optee_os/lib/libutils/isoc/newlib/memcpy.c:111
      7c:	54fffea1 	b.ne	50 <memcpy+0x30>  // b.any
      80:	8b080021 	add	x1, x1, x8
/home/ssysarch/Desktop/nick/jetpack_5/Jetson_Linux_R35.4.1_aarch64/Linux_for_Tegra/sources/tegra/optee-src/nv-optee/optee/optee_os/lib/libutils/isoc/newlib/memcpy.c:120
      84:	f27d045f 	tst	x2, #0x18
      88:	92401044 	and	x4, x2, #0x1f
      8c:	540003c0 	b.eq	104 <memcpy+0xe4>  // b.none
/home/ssysarch/Desktop/nick/jetpack_5/Jetson_Linux_R35.4.1_aarch64/Linux_for_Tegra/sources/tegra/optee-src/nv-optee/optee/optee_os/lib/libutils/isoc/newlib/memcpy.c:121
      90:	f8656826 	ldr	x6, [x1, x5]
      94:	f8256866 	str	x6, [x3, x5]
/home/ssysarch/Desktop/nick/jetpack_5/Jetson_Linux_R35.4.1_aarch64/Linux_for_Tegra/sources/tegra/optee-src/nv-optee/optee/optee_os/lib/libutils/isoc/newlib/memcpy.c:120
      98:	910020a5 	add	x5, x5, #0x8
      9c:	cb050086 	sub	x6, x4, x5
      a0:	f1001cdf 	cmp	x6, #0x7
      a4:	54ffff68 	b.hi	90 <memcpy+0x70>  // b.pmore
      a8:	d1002084 	sub	x4, x4, #0x8
      ac:	92400842 	and	x2, x2, #0x7
      b0:	927df084 	and	x4, x4, #0xfffffffffffffff8
/home/ssysarch/Desktop/nick/jetpack_5/Jetson_Linux_R35.4.1_aarch64/Linux_for_Tegra/sources/tegra/optee-src/nv-optee/optee/optee_os/lib/libutils/isoc/newlib/memcpy.c:130
      b4:	d1000446 	sub	x6, x2, #0x1
      b8:	91002084 	add	x4, x4, #0x8
      bc:	8b040063 	add	x3, x3, x4
      c0:	8b040021 	add	x1, x1, x4
      c4:	b4000102 	cbz	x2, e4 <memcpy+0xc4>
/home/ssysarch/Desktop/nick/jetpack_5/Jetson_Linux_R35.4.1_aarch64/Linux_for_Tegra/sources/tegra/optee-src/nv-optee/optee/optee_os/lib/libutils/isoc/newlib/memcpy.c:99
      c8:	d2800002 	mov	x2, #0x0                   	// #0
      cc:	d503201f 	nop
/home/ssysarch/Desktop/nick/jetpack_5/Jetson_Linux_R35.4.1_aarch64/Linux_for_Tegra/sources/tegra/optee-src/nv-optee/optee/optee_os/lib/libutils/isoc/newlib/memcpy.c:131
      d0:	38626825 	ldrb	w5, [x1, x2]
/home/ssysarch/Desktop/nick/jetpack_5/Jetson_Linux_R35.4.1_aarch64/Linux_for_Tegra/sources/tegra/optee-src/nv-optee/optee/optee_os/lib/libutils/isoc/newlib/memcpy.c:130
      d4:	eb0200df 	cmp	x6, x2
/home/ssysarch/Desktop/nick/jetpack_5/Jetson_Linux_R35.4.1_aarch64/Linux_for_Tegra/sources/tegra/optee-src/nv-optee/optee/optee_os/lib/libutils/isoc/newlib/memcpy.c:131
      d8:	38226865 	strb	w5, [x3, x2]
/home/ssysarch/Desktop/nick/jetpack_5/Jetson_Linux_R35.4.1_aarch64/Linux_for_Tegra/sources/tegra/optee-src/nv-optee/optee/optee_os/lib/libutils/isoc/newlib/memcpy.c:130
      dc:	91000442 	add	x2, x2, #0x1
      e0:	54ffff81 	b.ne	d0 <memcpy+0xb0>  // b.any
/home/ssysarch/Desktop/nick/jetpack_5/Jetson_Linux_R35.4.1_aarch64/Linux_for_Tegra/sources/tegra/optee-src/nv-optee/optee/optee_os/lib/libutils/isoc/newlib/memcpy.c:135
      e4:	d65f03c0 	ret
/home/ssysarch/Desktop/nick/jetpack_5/Jetson_Linux_R35.4.1_aarch64/Linux_for_Tegra/sources/tegra/optee-src/nv-optee/optee/optee_os/lib/libutils/isoc/newlib/memcpy.c:99
      e8:	aa0003e3 	mov	x3, x0
/home/ssysarch/Desktop/nick/jetpack_5/Jetson_Linux_R35.4.1_aarch64/Linux_for_Tegra/sources/tegra/optee-src/nv-optee/optee/optee_os/lib/libutils/isoc/newlib/memcpy.c:130
      ec:	d1000446 	sub	x6, x2, #0x1
      f0:	b5fffec2 	cbnz	x2, c8 <memcpy+0xa8>
/home/ssysarch/Desktop/nick/jetpack_5/Jetson_Linux_R35.4.1_aarch64/Linux_for_Tegra/sources/tegra/optee-src/nv-optee/optee/optee_os/lib/libutils/isoc/newlib/memcpy.c:135
      f4:	d65f03c0 	ret
/home/ssysarch/Desktop/nick/jetpack_5/Jetson_Linux_R35.4.1_aarch64/Linux_for_Tegra/sources/tegra/optee-src/nv-optee/optee/optee_os/lib/libutils/isoc/newlib/memcpy.c:130
      f8:	d1000446 	sub	x6, x2, #0x1
/home/ssysarch/Desktop/nick/jetpack_5/Jetson_Linux_R35.4.1_aarch64/Linux_for_Tegra/sources/tegra/optee-src/nv-optee/optee/optee_os/lib/libutils/isoc/newlib/memcpy.c:99
      fc:	aa0003e3 	mov	x3, x0
     100:	17fffff2 	b	c8 <memcpy+0xa8>
/home/ssysarch/Desktop/nick/jetpack_5/Jetson_Linux_R35.4.1_aarch64/Linux_for_Tegra/sources/tegra/optee-src/nv-optee/optee/optee_os/lib/libutils/isoc/newlib/memcpy.c:120
     104:	aa0403e2 	mov	x2, x4
     108:	17fffff9 	b	ec <memcpy+0xcc>

000000000000010c <cmd_process>:
cmd_process():
/home/ssysarch/Desktop/nick/jetpack_5/Jetson_Linux_R35.4.1_aarch64/Linux_for_Tegra/sources/tegra/optee-src/nv-optee/optee/optee_test/ta/hash_perf/ta_hash_perf.c:40
     10c:	a9b87bfd 	stp	x29, x30, [sp, #-128]!
     110:	b00000c2 	adrp	x2, 19000 <_DYNAMIC>
/home/ssysarch/Desktop/nick/jetpack_5/Jetson_Linux_R35.4.1_aarch64/Linux_for_Tegra/sources/tegra/optee-src/nv-optee/optee/optee_test/ta/hash_perf/ta_hash_perf.c:54
     114:	7105941f 	cmp	w0, #0x165
/home/ssysarch/Desktop/nick/jetpack_5/Jetson_Linux_R35.4.1_aarch64/Linux_for_Tegra/sources/tegra/optee-src/nv-optee/optee/optee_test/ta/hash_perf/ta_hash_perf.c:40
     118:	910003fd 	mov	x29, sp
     11c:	f9409842 	ldr	x2, [x2, #304]
     120:	a90153f3 	stp	x19, x20, [sp, #16]
     124:	f9400043 	ldr	x3, [x2]
     128:	f9003fe3 	str	x3, [sp, #120]
     12c:	d2800003 	mov	x3, #0x0                   	// #0
     130:	a9025bf5 	stp	x21, x22, [sp, #32]
     134:	a90363f7 	stp	x23, x24, [sp, #48]
     138:	f90023f9 	str	x25, [sp, #64]
/home/ssysarch/Desktop/nick/jetpack_5/Jetson_Linux_R35.4.1_aarch64/Linux_for_Tegra/sources/tegra/optee-src/nv-optee/optee/optee_test/ta/hash_perf/ta_hash_perf.c:42
     13c:	a905ffff 	stp	xzr, xzr, [sp, #88]
     140:	a906ffff 	stp	xzr, xzr, [sp, #104]
/home/ssysarch/Desktop/nick/jetpack_5/Jetson_Linux_R35.4.1_aarch64/Linux_for_Tegra/sources/tegra/optee-src/nv-optee/optee/optee_test/ta/hash_perf/ta_hash_perf.c:54
     144:	540008a1 	b.ne	258 <cmd_process+0x14c>  // b.any
/home/ssysarch/Desktop/nick/jetpack_5/Jetson_Linux_R35.4.1_aarch64/Linux_for_Tegra/sources/tegra/optee-src/nv-optee/optee/optee_test/ta/hash_perf/ta_hash_perf.c:59
     148:	a9405c36 	ldp	x22, x23, [x1]
/home/ssysarch/Desktop/nick/jetpack_5/Jetson_Linux_R35.4.1_aarch64/Linux_for_Tegra/sources/tegra/optee-src/nv-optee/optee/optee_test/ta/hash_perf/ta_hash_perf.c:64
     14c:	b00000d5 	adrp	x21, 19000 <_DYNAMIC>
/home/ssysarch/Desktop/nick/jetpack_5/Jetson_Linux_R35.4.1_aarch64/Linux_for_Tegra/sources/tegra/optee-src/nv-optee/optee/optee_test/ta/hash_perf/ta_hash_perf.c:58
     150:	29440034 	ldp	w20, w0, [x1, #32]
/home/ssysarch/Desktop/nick/jetpack_5/Jetson_Linux_R35.4.1_aarch64/Linux_for_Tegra/sources/tegra/optee-src/nv-optee/optee/optee_test/ta/hash_perf/ta_hash_perf.c:74
     154:	910143f9 	add	x25, sp, #0x50
/home/ssysarch/Desktop/nick/jetpack_5/Jetson_Linux_R35.4.1_aarch64/Linux_for_Tegra/sources/tegra/optee-src/nv-optee/optee/optee_test/ta/hash_perf/ta_hash_perf.c:60
     158:	f9400838 	ldr	x24, [x1, #16]
/home/ssysarch/Desktop/nick/jetpack_5/Jetson_Linux_R35.4.1_aarch64/Linux_for_Tegra/sources/tegra/optee-src/nv-optee/optee/optee_test/ta/hash_perf/ta_hash_perf.c:58
     15c:	8b0002d6 	add	x22, x22, x0
/home/ssysarch/Desktop/nick/jetpack_5/Jetson_Linux_R35.4.1_aarch64/Linux_for_Tegra/sources/tegra/optee-src/nv-optee/optee/optee_test/ta/hash_perf/ta_hash_perf.c:59
     160:	cb0002f7 	sub	x23, x23, x0
/home/ssysarch/Desktop/nick/jetpack_5/Jetson_Linux_R35.4.1_aarch64/Linux_for_Tegra/sources/tegra/optee-src/nv-optee/optee/optee_test/ta/hash_perf/ta_hash_perf.c:61
     164:	f9400c20 	ldr	x0, [x1, #24]
     168:	f9002be0 	str	x0, [sp, #80]
/home/ssysarch/Desktop/nick/jetpack_5/Jetson_Linux_R35.4.1_aarch64/Linux_for_Tegra/sources/tegra/optee-src/nv-optee/optee/optee_test/ta/hash_perf/ta_hash_perf.c:64
     16c:	f94312a0 	ldr	x0, [x21, #1568]
     170:	910163e1 	add	x1, sp, #0x58
     174:	94001233 	bl	4a40 <TEE_GetOperationInfo>
is_mac():
/home/ssysarch/Desktop/nick/jetpack_5/Jetson_Linux_R35.4.1_aarch64/Linux_for_Tegra/sources/tegra/optee-src/nv-optee/optee/optee_test/ta/hash_perf/ta_hash_perf.c:26
     178:	b9405be0 	ldr	w0, [sp, #88]
     17c:	529fffc1 	mov	w1, #0xfffe                	// #65534
     180:	72b9ffe1 	movk	w1, #0xcfff, lsl #16
     184:	0b010000 	add	w0, w0, w1
     188:	7100141f 	cmp	w0, #0x5
     18c:	54000448 	b.hi	214 <cmd_process+0x108>  // b.pmore
cmd_process():
/home/ssysarch/Desktop/nick/jetpack_5/Jetson_Linux_R35.4.1_aarch64/Linux_for_Tegra/sources/tegra/optee-src/nv-optee/optee/optee_test/ta/hash_perf/ta_hash_perf.c:67 (discriminator 2)
     190:	35000154 	cbnz	w20, 1b8 <cmd_process+0xac>
/home/ssysarch/Desktop/nick/jetpack_5/Jetson_Linux_R35.4.1_aarch64/Linux_for_Tegra/sources/tegra/optee-src/nv-optee/optee/optee_test/ta/hash_perf/ta_hash_perf.c:79
     194:	52800013 	mov	w19, #0x0                   	// #0
/home/ssysarch/Desktop/nick/jetpack_5/Jetson_Linux_R35.4.1_aarch64/Linux_for_Tegra/sources/tegra/optee-src/nv-optee/optee/optee_test/ta/hash_perf/ta_hash_perf.c:80
     198:	b00000c2 	adrp	x2, 19000 <_DYNAMIC>
     19c:	f9409842 	ldr	x2, [x2, #304]
     1a0:	f9403fe0 	ldr	x0, [sp, #120]
     1a4:	f9400041 	ldr	x1, [x2]
     1a8:	eb010000 	subs	x0, x0, x1
     1ac:	d2800001 	mov	x1, #0x0                   	// #0
     1b0:	54000580 	b.eq	260 <cmd_process+0x154>  // b.none
     1b4:	940000d4 	bl	504 <__stack_chk_fail>
/home/ssysarch/Desktop/nick/jetpack_5/Jetson_Linux_R35.4.1_aarch64/Linux_for_Tegra/sources/tegra/optee-src/nv-optee/optee/optee_test/ta/hash_perf/ta_hash_perf.c:68
     1b8:	f94312a0 	ldr	x0, [x21, #1568]
     1bc:	d2800002 	mov	x2, #0x0                   	// #0
     1c0:	d2800001 	mov	x1, #0x0                   	// #0
     1c4:	51000694 	sub	w20, w20, #0x1
     1c8:	94001627 	bl	5a64 <TEE_MACInit>
/home/ssysarch/Desktop/nick/jetpack_5/Jetson_Linux_R35.4.1_aarch64/Linux_for_Tegra/sources/tegra/optee-src/nv-optee/optee/optee_test/ta/hash_perf/ta_hash_perf.c:69
     1cc:	f94312a0 	ldr	x0, [x21, #1568]
     1d0:	aa1903e4 	mov	x4, x25
     1d4:	aa1803e3 	mov	x3, x24
     1d8:	aa1703e2 	mov	x2, x23
     1dc:	aa1603e1 	mov	x1, x22
     1e0:	94001676 	bl	5bb8 <TEE_MACComputeFinal>
     1e4:	2a0003f3 	mov	w19, w0
/home/ssysarch/Desktop/nick/jetpack_5/Jetson_Linux_R35.4.1_aarch64/Linux_for_Tegra/sources/tegra/optee-src/nv-optee/optee/optee_test/ta/hash_perf/ta_hash_perf.c:70
     1e8:	34fffd40 	cbz	w0, 190 <cmd_process+0x84>
/home/ssysarch/Desktop/nick/jetpack_5/Jetson_Linux_R35.4.1_aarch64/Linux_for_Tegra/sources/tegra/optee-src/nv-optee/optee/optee_test/ta/hash_perf/ta_hash_perf.c:70 (discriminator 1)
     1ec:	d00000a4 	adrp	x4, 16000 <__text_end+0x3130>
     1f0:	913f9084 	add	x4, x4, #0xfe4
     1f4:	2a0003e5 	mov	w5, w0
     1f8:	52800023 	mov	w3, #0x1                   	// #1
     1fc:	52800062 	mov	w2, #0x3                   	// #3
     200:	528008c1 	mov	w1, #0x46                  	// #70
/home/ssysarch/Desktop/nick/jetpack_5/Jetson_Linux_R35.4.1_aarch64/Linux_for_Tegra/sources/tegra/optee-src/nv-optee/optee/optee_test/ta/hash_perf/ta_hash_perf.c:75 (discriminator 1)
     204:	d00000a0 	adrp	x0, 16000 <__text_end+0x3130>
     208:	912ca000 	add	x0, x0, #0xb28
     20c:	9400019f 	bl	888 <trace_printf>
     210:	17ffffe2 	b	198 <cmd_process+0x8c>
/home/ssysarch/Desktop/nick/jetpack_5/Jetson_Linux_R35.4.1_aarch64/Linux_for_Tegra/sources/tegra/optee-src/nv-optee/optee/optee_test/ta/hash_perf/ta_hash_perf.c:73 (discriminator 2)
     214:	34fffc14 	cbz	w20, 194 <cmd_process+0x88>
/home/ssysarch/Desktop/nick/jetpack_5/Jetson_Linux_R35.4.1_aarch64/Linux_for_Tegra/sources/tegra/optee-src/nv-optee/optee/optee_test/ta/hash_perf/ta_hash_perf.c:74
     218:	f94312a0 	ldr	x0, [x21, #1568]
     21c:	aa1903e4 	mov	x4, x25
     220:	aa1803e3 	mov	x3, x24
     224:	aa1703e2 	mov	x2, x23
     228:	aa1603e1 	mov	x1, x22
     22c:	51000694 	sub	w20, w20, #0x1
     230:	940013a8 	bl	50d0 <TEE_DigestDoFinal>
     234:	2a0003f3 	mov	w19, w0
/home/ssysarch/Desktop/nick/jetpack_5/Jetson_Linux_R35.4.1_aarch64/Linux_for_Tegra/sources/tegra/optee-src/nv-optee/optee/optee_test/ta/hash_perf/ta_hash_perf.c:75
     238:	34fffee0 	cbz	w0, 214 <cmd_process+0x108>
/home/ssysarch/Desktop/nick/jetpack_5/Jetson_Linux_R35.4.1_aarch64/Linux_for_Tegra/sources/tegra/optee-src/nv-optee/optee/optee_test/ta/hash_perf/ta_hash_perf.c:75 (discriminator 1)
     23c:	d00000a4 	adrp	x4, 16000 <__text_end+0x3130>
     240:	913ffc84 	add	x4, x4, #0xfff
     244:	2a0003e5 	mov	w5, w0
     248:	52800023 	mov	w3, #0x1                   	// #1
     24c:	52800062 	mov	w2, #0x3                   	// #3
     250:	52800961 	mov	w1, #0x4b                  	// #75
     254:	17ffffec 	b	204 <cmd_process+0xf8>
/home/ssysarch/Desktop/nick/jetpack_5/Jetson_Linux_R35.4.1_aarch64/Linux_for_Tegra/sources/tegra/optee-src/nv-optee/optee/optee_test/ta/hash_perf/ta_hash_perf.c:55
     258:	129fff33 	mov	w19, #0xffff0006            	// #-65530
     25c:	17ffffcf 	b	198 <cmd_process+0x8c>
/home/ssysarch/Desktop/nick/jetpack_5/Jetson_Linux_R35.4.1_aarch64/Linux_for_Tegra/sources/tegra/optee-src/nv-optee/optee/optee_test/ta/hash_perf/ta_hash_perf.c:80
     260:	2a1303e0 	mov	w0, w19
     264:	a94153f3 	ldp	x19, x20, [sp, #16]
     268:	a9425bf5 	ldp	x21, x22, [sp, #32]
     26c:	a94363f7 	ldp	x23, x24, [sp, #48]
     270:	f94023f9 	ldr	x25, [sp, #64]
     274:	a8c87bfd 	ldp	x29, x30, [sp], #128
     278:	d65f03c0 	ret

000000000000027c <cmd_prepare_op>:
cmd_prepare_op():
/home/ssysarch/Desktop/nick/jetpack_5/Jetson_Linux_R35.4.1_aarch64/Linux_for_Tegra/sources/tegra/optee-src/nv-optee/optee/optee_test/ta/hash_perf/ta_hash_perf.c:83
     27c:	a9b97bfd 	stp	x29, x30, [sp, #-112]!
     280:	b00000c2 	adrp	x2, 19000 <_DYNAMIC>
/home/ssysarch/Desktop/nick/jetpack_5/Jetson_Linux_R35.4.1_aarch64/Linux_for_Tegra/sources/tegra/optee-src/nv-optee/optee/optee_test/ta/hash_perf/ta_hash_perf.c:114
     284:	7100041f 	cmp	w0, #0x1
/home/ssysarch/Desktop/nick/jetpack_5/Jetson_Linux_R35.4.1_aarch64/Linux_for_Tegra/sources/tegra/optee-src/nv-optee/optee/optee_test/ta/hash_perf/ta_hash_perf.c:83
     288:	910003fd 	mov	x29, sp
     28c:	f9409842 	ldr	x2, [x2, #304]
     290:	a90153f3 	stp	x19, x20, [sp, #16]
     294:	f9400043 	ldr	x3, [x2]
     298:	f90037e3 	str	x3, [sp, #104]
     29c:	d2800003 	mov	x3, #0x0                   	// #0
     2a0:	a9025bf5 	stp	x21, x22, [sp, #32]
     2a4:	f9001bf7 	str	x23, [sp, #48]
/home/ssysarch/Desktop/nick/jetpack_5/Jetson_Linux_R35.4.1_aarch64/Linux_for_Tegra/sources/tegra/optee-src/nv-optee/optee/optee_test/ta/hash_perf/ta_hash_perf.c:84
     2a8:	f90027ff 	str	xzr, [sp, #72]
/home/ssysarch/Desktop/nick/jetpack_5/Jetson_Linux_R35.4.1_aarch64/Linux_for_Tegra/sources/tegra/optee-src/nv-optee/optee/optee_test/ta/hash_perf/ta_hash_perf.c:86
     2ac:	a9057fff 	stp	xzr, xzr, [sp, #80]
     2b0:	f90033ff 	str	xzr, [sp, #96]
/home/ssysarch/Desktop/nick/jetpack_5/Jetson_Linux_R35.4.1_aarch64/Linux_for_Tegra/sources/tegra/optee-src/nv-optee/optee/optee_test/ta/hash_perf/ta_hash_perf.c:114
     2b4:	54000e01 	b.ne	474 <cmd_prepare_op+0x1f8>  // b.any
/home/ssysarch/Desktop/nick/jetpack_5/Jetson_Linux_R35.4.1_aarch64/Linux_for_Tegra/sources/tegra/optee-src/nv-optee/optee/optee_test/ta/hash_perf/ta_hash_perf.c:117
     2b8:	b9400021 	ldr	w1, [x1]
     2bc:	71002c3f 	cmp	w1, #0xb
     2c0:	54000da8 	b.hi	474 <cmd_prepare_op+0x1f8>  // b.pmore
     2c4:	d00000b4 	adrp	x20, 16000 <__text_end+0x3130>
     2c8:	912ca282 	add	x2, x20, #0xb28
     2cc:	91003040 	add	x0, x2, #0xc
     2d0:	2a0103e1 	mov	w1, w1
     2d4:	b8617816 	ldr	w22, [x0, x1, lsl #2]
     2d8:	9100f040 	add	x0, x2, #0x3c
     2dc:	91015042 	add	x2, x2, #0x54
     2e0:	78617817 	ldrh	w23, [x0, x1, lsl #1]
/home/ssysarch/Desktop/nick/jetpack_5/Jetson_Linux_R35.4.1_aarch64/Linux_for_Tegra/sources/tegra/optee-src/nv-optee/optee/optee_test/ta/hash_perf/ta_hash_perf.c:170
     2e4:	b00000d5 	adrp	x21, 19000 <_DYNAMIC>
     2e8:	f94312a0 	ldr	x0, [x21, #1568]
     2ec:	b8617853 	ldr	w19, [x2, x1, lsl #2]
     2f0:	b4000040 	cbz	x0, 2f8 <cmd_prepare_op+0x7c>
/home/ssysarch/Desktop/nick/jetpack_5/Jetson_Linux_R35.4.1_aarch64/Linux_for_Tegra/sources/tegra/optee-src/nv-optee/optee/optee_test/ta/hash_perf/ta_hash_perf.c:171
     2f4:	94000e6a 	bl	3c9c <TEE_FreeOperation>
is_mac():
/home/ssysarch/Desktop/nick/jetpack_5/Jetson_Linux_R35.4.1_aarch64/Linux_for_Tegra/sources/tegra/optee-src/nv-optee/optee/optee_test/ta/hash_perf/ta_hash_perf.c:26
     2f8:	529fffc0 	mov	w0, #0xfffe                	// #65534
     2fc:	72b9ffe0 	movk	w0, #0xcfff, lsl #16
     300:	0b000260 	add	w0, w19, w0
     304:	7100141f 	cmp	w0, #0x5
     308:	54000248 	b.hi	350 <cmd_prepare_op+0xd4>  // b.pmore
cmd_prepare_op():
/home/ssysarch/Desktop/nick/jetpack_5/Jetson_Linux_R35.4.1_aarch64/Linux_for_Tegra/sources/tegra/optee-src/nv-optee/optee/optee_test/ta/hash_perf/ta_hash_perf.c:174
     30c:	2a1303e1 	mov	w1, w19
     310:	2a1703e3 	mov	w3, w23
     314:	911882a0 	add	x0, x21, #0x620
     318:	52800082 	mov	w2, #0x4                   	// #4
     31c:	94000e70 	bl	3cdc <TEE_AllocateOperation>
     320:	2a0003f3 	mov	w19, w0
/home/ssysarch/Desktop/nick/jetpack_5/Jetson_Linux_R35.4.1_aarch64/Linux_for_Tegra/sources/tegra/optee-src/nv-optee/optee/optee_test/ta/hash_perf/ta_hash_perf.c:175
     324:	34000340 	cbz	w0, 38c <cmd_prepare_op+0x110>
/home/ssysarch/Desktop/nick/jetpack_5/Jetson_Linux_R35.4.1_aarch64/Linux_for_Tegra/sources/tegra/optee-src/nv-optee/optee/optee_test/ta/hash_perf/ta_hash_perf.c:175 (discriminator 1)
     328:	f00000a4 	adrp	x4, 17000 <gcd_pairs+0x40>
     32c:	91006084 	add	x4, x4, #0x18
     330:	912ca280 	add	x0, x20, #0xb28
     334:	2a1303e5 	mov	w5, w19
     338:	52800023 	mov	w3, #0x1                   	// #1
     33c:	52800062 	mov	w2, #0x3                   	// #3
     340:	528015e1 	mov	w1, #0xaf                  	// #175
/home/ssysarch/Desktop/nick/jetpack_5/Jetson_Linux_R35.4.1_aarch64/Linux_for_Tegra/sources/tegra/optee-src/nv-optee/optee/optee_test/ta/hash_perf/ta_hash_perf.c:193 (discriminator 1)
     344:	91021000 	add	x0, x0, #0x84
     348:	94000150 	bl	888 <trace_printf>
     34c:	14000042 	b	454 <cmd_prepare_op+0x1d8>
/home/ssysarch/Desktop/nick/jetpack_5/Jetson_Linux_R35.4.1_aarch64/Linux_for_Tegra/sources/tegra/optee-src/nv-optee/optee/optee_test/ta/hash_perf/ta_hash_perf.c:192
     350:	2a1303e1 	mov	w1, w19
     354:	911882a0 	add	x0, x21, #0x620
     358:	52800003 	mov	w3, #0x0                   	// #0
     35c:	528000a2 	mov	w2, #0x5                   	// #5
     360:	94000e5f 	bl	3cdc <TEE_AllocateOperation>
     364:	2a0003f3 	mov	w19, w0
/home/ssysarch/Desktop/nick/jetpack_5/Jetson_Linux_R35.4.1_aarch64/Linux_for_Tegra/sources/tegra/optee-src/nv-optee/optee/optee_test/ta/hash_perf/ta_hash_perf.c:193
     368:	34000760 	cbz	w0, 454 <cmd_prepare_op+0x1d8>
/home/ssysarch/Desktop/nick/jetpack_5/Jetson_Linux_R35.4.1_aarch64/Linux_for_Tegra/sources/tegra/optee-src/nv-optee/optee/optee_test/ta/hash_perf/ta_hash_perf.c:193 (discriminator 1)
     36c:	f00000a4 	adrp	x4, 17000 <gcd_pairs+0x40>
     370:	91006084 	add	x4, x4, #0x18
     374:	912ca280 	add	x0, x20, #0xb28
     378:	2a1303e5 	mov	w5, w19
     37c:	52800023 	mov	w3, #0x1                   	// #1
     380:	52800062 	mov	w2, #0x3                   	// #3
     384:	52801821 	mov	w1, #0xc1                  	// #193
     388:	17ffffef 	b	344 <cmd_prepare_op+0xc8>
/home/ssysarch/Desktop/nick/jetpack_5/Jetson_Linux_R35.4.1_aarch64/Linux_for_Tegra/sources/tegra/optee-src/nv-optee/optee/optee_test/ta/hash_perf/ta_hash_perf.c:177 (discriminator 2)
     38c:	910123e2 	add	x2, sp, #0x48
     390:	2a1703e1 	mov	w1, w23
     394:	2a1603e0 	mov	w0, w22
     398:	940007ed 	bl	234c <TEE_AllocateTransientObject>
     39c:	2a0003f3 	mov	w19, w0
/home/ssysarch/Desktop/nick/jetpack_5/Jetson_Linux_R35.4.1_aarch64/Linux_for_Tegra/sources/tegra/optee-src/nv-optee/optee/optee_test/ta/hash_perf/ta_hash_perf.c:178 (discriminator 2)
     3a0:	34000120 	cbz	w0, 3c4 <cmd_prepare_op+0x148>
/home/ssysarch/Desktop/nick/jetpack_5/Jetson_Linux_R35.4.1_aarch64/Linux_for_Tegra/sources/tegra/optee-src/nv-optee/optee/optee_test/ta/hash_perf/ta_hash_perf.c:178 (discriminator 1)
     3a4:	f00000a4 	adrp	x4, 17000 <gcd_pairs+0x40>
     3a8:	9100d484 	add	x4, x4, #0x35
     3ac:	912ca280 	add	x0, x20, #0xb28
     3b0:	2a1303e5 	mov	w5, w19
     3b4:	52800023 	mov	w3, #0x1                   	// #1
     3b8:	52800062 	mov	w2, #0x3                   	// #3
     3bc:	52801641 	mov	w1, #0xb2                  	// #178
     3c0:	17ffffe1 	b	344 <cmd_prepare_op+0xc8>
/home/ssysarch/Desktop/nick/jetpack_5/Jetson_Linux_R35.4.1_aarch64/Linux_for_Tegra/sources/tegra/optee-src/nv-optee/optee/optee_test/ta/hash_perf/ta_hash_perf.c:180 (discriminator 2)
     3c4:	52b80000 	mov	w0, #0xc0000000            	// #-1073741824
     3c8:	b90053e0 	str	w0, [sp, #80]
/home/ssysarch/Desktop/nick/jetpack_5/Jetson_Linux_R35.4.1_aarch64/Linux_for_Tegra/sources/tegra/optee-src/nv-optee/optee/optee_test/ta/hash_perf/ta_hash_perf.c:181 (discriminator 2)
     3cc:	b00000c0 	adrp	x0, 19000 <_DYNAMIC>
     3d0:	91177000 	add	x0, x0, #0x5dc
     3d4:	f9002fe0 	str	x0, [sp, #88]
/home/ssysarch/Desktop/nick/jetpack_5/Jetson_Linux_R35.4.1_aarch64/Linux_for_Tegra/sources/tegra/optee-src/nv-optee/optee/optee_test/ta/hash_perf/ta_hash_perf.c:182 (discriminator 2)
     3d8:	d2800800 	mov	x0, #0x40                  	// #64
     3dc:	f90033e0 	str	x0, [sp, #96]
/home/ssysarch/Desktop/nick/jetpack_5/Jetson_Linux_R35.4.1_aarch64/Linux_for_Tegra/sources/tegra/optee-src/nv-optee/optee/optee_test/ta/hash_perf/ta_hash_perf.c:184 (discriminator 2)
     3e0:	910143e1 	add	x1, sp, #0x50
     3e4:	f94027e0 	ldr	x0, [sp, #72]
     3e8:	52800022 	mov	w2, #0x1                   	// #1
     3ec:	94000827 	bl	2488 <TEE_PopulateTransientObject>
     3f0:	2a0003f3 	mov	w19, w0
/home/ssysarch/Desktop/nick/jetpack_5/Jetson_Linux_R35.4.1_aarch64/Linux_for_Tegra/sources/tegra/optee-src/nv-optee/optee/optee_test/ta/hash_perf/ta_hash_perf.c:185 (discriminator 2)
     3f4:	34000120 	cbz	w0, 418 <cmd_prepare_op+0x19c>
/home/ssysarch/Desktop/nick/jetpack_5/Jetson_Linux_R35.4.1_aarch64/Linux_for_Tegra/sources/tegra/optee-src/nv-optee/optee/optee_test/ta/hash_perf/ta_hash_perf.c:185 (discriminator 1)
     3f8:	f00000a4 	adrp	x4, 17000 <gcd_pairs+0x40>
     3fc:	91016084 	add	x4, x4, #0x58
     400:	912ca280 	add	x0, x20, #0xb28
     404:	2a1303e5 	mov	w5, w19
     408:	52800023 	mov	w3, #0x1                   	// #1
     40c:	52800062 	mov	w2, #0x3                   	// #3
     410:	52801721 	mov	w1, #0xb9                  	// #185
     414:	17ffffcc 	b	344 <cmd_prepare_op+0xc8>
/home/ssysarch/Desktop/nick/jetpack_5/Jetson_Linux_R35.4.1_aarch64/Linux_for_Tegra/sources/tegra/optee-src/nv-optee/optee/optee_test/ta/hash_perf/ta_hash_perf.c:187 (discriminator 2)
     418:	f94312a0 	ldr	x0, [x21, #1568]
     41c:	f94027e1 	ldr	x1, [sp, #72]
     420:	9400123a 	bl	4d08 <TEE_SetOperationKey>
     424:	2a0003f3 	mov	w19, w0
/home/ssysarch/Desktop/nick/jetpack_5/Jetson_Linux_R35.4.1_aarch64/Linux_for_Tegra/sources/tegra/optee-src/nv-optee/optee/optee_test/ta/hash_perf/ta_hash_perf.c:188 (discriminator 2)
     428:	34000120 	cbz	w0, 44c <cmd_prepare_op+0x1d0>
/home/ssysarch/Desktop/nick/jetpack_5/Jetson_Linux_R35.4.1_aarch64/Linux_for_Tegra/sources/tegra/optee-src/nv-optee/optee/optee_test/ta/hash_perf/ta_hash_perf.c:188 (discriminator 1)
     42c:	f00000a4 	adrp	x4, 17000 <gcd_pairs+0x40>
     430:	9101ec84 	add	x4, x4, #0x7b
     434:	912ca280 	add	x0, x20, #0xb28
     438:	2a1303e5 	mov	w5, w19
     43c:	52800023 	mov	w3, #0x1                   	// #1
     440:	52800062 	mov	w2, #0x3                   	// #3
     444:	52801781 	mov	w1, #0xbc                  	// #188
     448:	17ffffbf 	b	344 <cmd_prepare_op+0xc8>
/home/ssysarch/Desktop/nick/jetpack_5/Jetson_Linux_R35.4.1_aarch64/Linux_for_Tegra/sources/tegra/optee-src/nv-optee/optee/optee_test/ta/hash_perf/ta_hash_perf.c:190 (discriminator 2)
     44c:	f94027e0 	ldr	x0, [sp, #72]
     450:	940007c6 	bl	2368 <TEE_FreeTransientObject>
/home/ssysarch/Desktop/nick/jetpack_5/Jetson_Linux_R35.4.1_aarch64/Linux_for_Tegra/sources/tegra/optee-src/nv-optee/optee/optee_test/ta/hash_perf/ta_hash_perf.c:196
     454:	b00000c2 	adrp	x2, 19000 <_DYNAMIC>
     458:	f9409842 	ldr	x2, [x2, #304]
     45c:	f94037e0 	ldr	x0, [sp, #104]
     460:	f9400041 	ldr	x1, [x2]
     464:	eb010000 	subs	x0, x0, x1
     468:	d2800001 	mov	x1, #0x0                   	// #0
     46c:	54000080 	b.eq	47c <cmd_prepare_op+0x200>  // b.none
     470:	94000025 	bl	504 <__stack_chk_fail>
/home/ssysarch/Desktop/nick/jetpack_5/Jetson_Linux_R35.4.1_aarch64/Linux_for_Tegra/sources/tegra/optee-src/nv-optee/optee/optee_test/ta/hash_perf/ta_hash_perf.c:115
     474:	129fff33 	mov	w19, #0xffff0006            	// #-65530
     478:	17fffff7 	b	454 <cmd_prepare_op+0x1d8>
/home/ssysarch/Desktop/nick/jetpack_5/Jetson_Linux_R35.4.1_aarch64/Linux_for_Tegra/sources/tegra/optee-src/nv-optee/optee/optee_test/ta/hash_perf/ta_hash_perf.c:196
     47c:	2a1303e0 	mov	w0, w19
     480:	a94153f3 	ldp	x19, x20, [sp, #16]
     484:	a9425bf5 	ldp	x21, x22, [sp, #32]
     488:	f9401bf7 	ldr	x23, [sp, #48]
     48c:	a8c77bfd 	ldp	x29, x30, [sp], #112
     490:	d65f03c0 	ret

0000000000000494 <cmd_clean_res>:
cmd_clean_res():
/home/ssysarch/Desktop/nick/jetpack_5/Jetson_Linux_R35.4.1_aarch64/Linux_for_Tegra/sources/tegra/optee-src/nv-optee/optee/optee_test/ta/hash_perf/ta_hash_perf.c:200
     494:	b00000c0 	adrp	x0, 19000 <_DYNAMIC>
     498:	f9431000 	ldr	x0, [x0, #1568]
     49c:	b4000040 	cbz	x0, 4a4 <cmd_clean_res+0x10>
/home/ssysarch/Desktop/nick/jetpack_5/Jetson_Linux_R35.4.1_aarch64/Linux_for_Tegra/sources/tegra/optee-src/nv-optee/optee/optee_test/ta/hash_perf/ta_hash_perf.c:201
     4a0:	14000dff 	b	3c9c <TEE_FreeOperation>
/home/ssysarch/Desktop/nick/jetpack_5/Jetson_Linux_R35.4.1_aarch64/Linux_for_Tegra/sources/tegra/optee-src/nv-optee/optee/optee_test/ta/hash_perf/ta_hash_perf.c:202
     4a4:	d65f03c0 	ret

00000000000004a8 <TA_CreateEntryPoint>:
TA_CreateEntryPoint():
/home/ssysarch/Desktop/nick/jetpack_5/Jetson_Linux_R35.4.1_aarch64/Linux_for_Tegra/sources/tegra/optee-src/nv-optee/optee/optee_test/ta/hash_perf/ta_entry.c:20
     4a8:	52800000 	mov	w0, #0x0                   	// #0
     4ac:	d65f03c0 	ret

00000000000004b0 <TA_DestroyEntryPoint>:
TA_DestroyEntryPoint():
/home/ssysarch/Desktop/nick/jetpack_5/Jetson_Linux_R35.4.1_aarch64/Linux_for_Tegra/sources/tegra/optee-src/nv-optee/optee/optee_test/ta/hash_perf/ta_entry.c:25
     4b0:	d65f03c0 	ret

00000000000004b4 <TA_OpenSessionEntryPoint>:
TA_OpenSessionEntryPoint():
/home/ssysarch/Desktop/nick/jetpack_5/Jetson_Linux_R35.4.1_aarch64/Linux_for_Tegra/sources/tegra/optee-src/nv-optee/optee/optee_test/ta/hash_perf/ta_entry.c:36
     4b4:	52800000 	mov	w0, #0x0                   	// #0
     4b8:	d65f03c0 	ret

00000000000004bc <TA_CloseSessionEntryPoint>:
TA_CloseSessionEntryPoint():
/home/ssysarch/Desktop/nick/jetpack_5/Jetson_Linux_R35.4.1_aarch64/Linux_for_Tegra/sources/tegra/optee-src/nv-optee/optee/optee_test/ta/hash_perf/ta_entry.c:43
     4bc:	17fffff6 	b	494 <cmd_clean_res>

00000000000004c0 <TA_InvokeCommandEntryPoint>:
TA_InvokeCommandEntryPoint():
/home/ssysarch/Desktop/nick/jetpack_5/Jetson_Linux_R35.4.1_aarch64/Linux_for_Tegra/sources/tegra/optee-src/nv-optee/optee/optee_test/ta/hash_perf/ta_entry.c:50
     4c0:	2a0103e4 	mov	w4, w1
     4c4:	2a0203e0 	mov	w0, w2
     4c8:	aa0303e1 	mov	x1, x3
/home/ssysarch/Desktop/nick/jetpack_5/Jetson_Linux_R35.4.1_aarch64/Linux_for_Tegra/sources/tegra/optee-src/nv-optee/optee/optee_test/ta/hash_perf/ta_entry.c:53
     4cc:	340000a4 	cbz	w4, 4e0 <TA_InvokeCommandEntryPoint+0x20>
     4d0:	7100049f 	cmp	w4, #0x1
     4d4:	54000080 	b.eq	4e4 <TA_InvokeCommandEntryPoint+0x24>  // b.none
/home/ssysarch/Desktop/nick/jetpack_5/Jetson_Linux_R35.4.1_aarch64/Linux_for_Tegra/sources/tegra/optee-src/nv-optee/optee/optee_test/ta/hash_perf/ta_entry.c:63
     4d8:	129fff20 	mov	w0, #0xffff0006            	// #-65530
     4dc:	d65f03c0 	ret
/home/ssysarch/Desktop/nick/jetpack_5/Jetson_Linux_R35.4.1_aarch64/Linux_for_Tegra/sources/tegra/optee-src/nv-optee/optee/optee_test/ta/hash_perf/ta_entry.c:55
     4e0:	17ffff67 	b	27c <cmd_prepare_op>
/home/ssysarch/Desktop/nick/jetpack_5/Jetson_Linux_R35.4.1_aarch64/Linux_for_Tegra/sources/tegra/optee-src/nv-optee/optee/optee_test/ta/hash_perf/ta_entry.c:58
     4e4:	17ffff0a 	b	10c <cmd_process>

00000000000004e8 <__ta_entry>:
__ta_entry():
/home/ssysarch/Desktop/nick/jetpack_5/Jetson_Linux_R35.4.1_aarch64/Linux_for_Tegra/sources/tegra/optee-src/nv-optee/optee/build/t234/export-ta_arm64/src/user_ta_header.c:51
     4e8:	a9bf7bfd 	stp	x29, x30, [sp, #-16]!
     4ec:	910003fd 	mov	x29, sp
/home/ssysarch/Desktop/nick/jetpack_5/Jetson_Linux_R35.4.1_aarch64/Linux_for_Tegra/sources/tegra/optee-src/nv-optee/optee/build/t234/export-ta_arm64/src/user_ta_header.c:70
     4f0:	94001f55 	bl	8244 <__utee_entry>
/home/ssysarch/Desktop/nick/jetpack_5/Jetson_Linux_R35.4.1_aarch64/Linux_for_Tegra/sources/tegra/optee-src/nv-optee/optee/build/t234/export-ta_arm64/src/user_ta_header.c:81
     4f4:	2a0003e0 	mov	w0, w0
     4f8:	94001ff8 	bl	84d8 <_utee_return>

00000000000004fc <tahead_get_trace_level>:
tahead_get_trace_level():
/home/ssysarch/Desktop/nick/jetpack_5/Jetson_Linux_R35.4.1_aarch64/Linux_for_Tegra/sources/tegra/optee-src/nv-optee/optee/build/t234/export-ta_arm64/src/user_ta_header.c:193
     4fc:	52800080 	mov	w0, #0x4                   	// #4
     500:	d65f03c0 	ret

0000000000000504 <__stack_chk_fail>:
__stack_chk_fail():
/home/ssysarch/Desktop/nick/jetpack_5/Jetson_Linux_R35.4.1_aarch64/Linux_for_Tegra/sources/tegra/optee-src/nv-optee/optee/optee_os/lib/libutils/isoc/stack_check.c:24
     504:	a9bf7bfd 	stp	x29, x30, [sp, #-16]!
/home/ssysarch/Desktop/nick/jetpack_5/Jetson_Linux_R35.4.1_aarch64/Linux_for_Tegra/sources/tegra/optee-src/nv-optee/optee/optee_os/lib/libutils/isoc/stack_check.c:25
     508:	f00000a4 	adrp	x4, 17000 <gcd_pairs+0x40>
     50c:	9105ec84 	add	x4, x4, #0x17b
/home/ssysarch/Desktop/nick/jetpack_5/Jetson_Linux_R35.4.1_aarch64/Linux_for_Tegra/sources/tegra/optee-src/nv-optee/optee/optee_os/lib/libutils/isoc/stack_check.c:24
     510:	910003fd 	mov	x29, sp
/home/ssysarch/Desktop/nick/jetpack_5/Jetson_Linux_R35.4.1_aarch64/Linux_for_Tegra/sources/tegra/optee-src/nv-optee/optee/optee_os/lib/libutils/isoc/stack_check.c:25
     514:	52800023 	mov	w3, #0x1                   	// #1
     518:	52800022 	mov	w2, #0x1                   	// #1
     51c:	52800001 	mov	w1, #0x0                   	// #0
     520:	d2800000 	mov	x0, #0x0                   	// #0
     524:	940000d9 	bl	888 <trace_printf>
/home/ssysarch/Desktop/nick/jetpack_5/Jetson_Linux_R35.4.1_aarch64/Linux_for_Tegra/sources/tegra/optee-src/nv-optee/optee/optee_os/lib/libutils/isoc/stack_check.c:27 (discriminator 1)
     528:	1299fe00 	mov	w0, #0xffff300f            	// #-53233
     52c:	94001fe8 	bl	84cc <_utee_panic>
/home/ssysarch/Desktop/nick/jetpack_5/Jetson_Linux_R35.4.1_aarch64/Linux_for_Tegra/sources/tegra/optee-src/nv-optee/optee/optee_os/lib/libutils/isoc/stack_check.c:26 (discriminator 1)
     530:	17fffffe 	b	528 <__stack_chk_fail+0x24>

0000000000000534 <append>:
append():
/home/ssysarch/Desktop/nick/jetpack_5/Jetson_Linux_R35.4.1_aarch64/Linux_for_Tegra/sources/tegra/optee-src/nv-optee/optee/optee_os/lib/libutils/ext/trace.c:211
     534:	a9ad7bfd 	stp	x29, x30, [sp, #-304]!
     538:	910003fd 	mov	x29, sp
     53c:	a9100fe2 	stp	x2, x3, [sp, #256]
     540:	b00000c2 	adrp	x2, 19000 <_DYNAMIC>
     544:	f9409842 	ldr	x2, [x2, #304]
     548:	a90153f3 	stp	x19, x20, [sp, #16]
     54c:	aa0003f3 	mov	x19, x0
     550:	3d8023e0 	str	q0, [sp, #128]
     554:	3d8027e1 	str	q1, [sp, #144]
     558:	3d802be2 	str	q2, [sp, #160]
     55c:	3d802fe3 	str	q3, [sp, #176]
     560:	3d8033e4 	str	q4, [sp, #192]
     564:	3d8037e5 	str	q5, [sp, #208]
     568:	3d803be6 	str	q6, [sp, #224]
     56c:	3d803fe7 	str	q7, [sp, #240]
     570:	a91117e4 	stp	x4, x5, [sp, #272]
     574:	a9121fe6 	stp	x6, x7, [sp, #288]
     578:	f9400040 	ldr	x0, [x2]
     57c:	f9003fe0 	str	x0, [sp, #120]
     580:	d2800000 	mov	x0, #0x0                   	// #0
     584:	f90013f5 	str	x21, [sp, #32]
/home/ssysarch/Desktop/nick/jetpack_5/Jetson_Linux_R35.4.1_aarch64/Linux_for_Tegra/sources/tegra/optee-src/nv-optee/optee/optee_os/lib/libutils/ext/trace.c:216
     588:	f9408260 	ldr	x0, [x19, #256]
/home/ssysarch/Desktop/nick/jetpack_5/Jetson_Linux_R35.4.1_aarch64/Linux_for_Tegra/sources/tegra/optee-src/nv-optee/optee/optee_os/lib/libutils/ext/trace.c:211
     58c:	aa0103f5 	mov	x21, x1
/home/ssysarch/Desktop/nick/jetpack_5/Jetson_Linux_R35.4.1_aarch64/Linux_for_Tegra/sources/tegra/optee-src/nv-optee/optee/optee_os/lib/libutils/ext/trace.c:216
     590:	b5000040 	cbnz	x0, 598 <append+0x64>
/home/ssysarch/Desktop/nick/jetpack_5/Jetson_Linux_R35.4.1_aarch64/Linux_for_Tegra/sources/tegra/optee-src/nv-optee/optee/optee_os/lib/libutils/ext/trace.c:217
     594:	f9008273 	str	x19, [x19, #256]
/home/ssysarch/Desktop/nick/jetpack_5/Jetson_Linux_R35.4.1_aarch64/Linux_for_Tegra/sources/tegra/optee-src/nv-optee/optee/optee_os/lib/libutils/ext/trace.c:219
     598:	9104c3e0 	add	x0, sp, #0x130
/home/ssysarch/Desktop/nick/jetpack_5/Jetson_Linux_R35.4.1_aarch64/Linux_for_Tegra/sources/tegra/optee-src/nv-optee/optee/optee_os/lib/libutils/ext/trace.c:220
     59c:	9100c3e3 	add	x3, sp, #0x30
/home/ssysarch/Desktop/nick/jetpack_5/Jetson_Linux_R35.4.1_aarch64/Linux_for_Tegra/sources/tegra/optee-src/nv-optee/optee/optee_os/lib/libutils/ext/trace.c:219
     5a0:	a90583e0 	stp	x0, x0, [sp, #88]
     5a4:	910403e0 	add	x0, sp, #0x100
/home/ssysarch/Desktop/nick/jetpack_5/Jetson_Linux_R35.4.1_aarch64/Linux_for_Tegra/sources/tegra/optee-src/nv-optee/optee/optee_os/lib/libutils/ext/trace.c:220
     5a8:	910163e1 	add	x1, sp, #0x58
/home/ssysarch/Desktop/nick/jetpack_5/Jetson_Linux_R35.4.1_aarch64/Linux_for_Tegra/sources/tegra/optee-src/nv-optee/optee/optee_os/lib/libutils/ext/trace.c:219
     5ac:	f90037e0 	str	x0, [sp, #104]
     5b0:	128005e0 	mov	w0, #0xffffffd0            	// #-48
     5b4:	b90073e0 	str	w0, [sp, #112]
     5b8:	12800fe0 	mov	w0, #0xffffff80            	// #-128
/home/ssysarch/Desktop/nick/jetpack_5/Jetson_Linux_R35.4.1_aarch64/Linux_for_Tegra/sources/tegra/optee-src/nv-optee/optee/optee_os/lib/libutils/ext/trace.c:218
     5bc:	f9408274 	ldr	x20, [x19, #256]
/home/ssysarch/Desktop/nick/jetpack_5/Jetson_Linux_R35.4.1_aarch64/Linux_for_Tegra/sources/tegra/optee-src/nv-optee/optee/optee_os/lib/libutils/ext/trace.c:220
     5c0:	d2800402 	mov	x2, #0x20                  	// #32
/home/ssysarch/Desktop/nick/jetpack_5/Jetson_Linux_R35.4.1_aarch64/Linux_for_Tegra/sources/tegra/optee-src/nv-optee/optee/optee_os/lib/libutils/ext/trace.c:219
     5c4:	b90077e0 	str	w0, [sp, #116]
/home/ssysarch/Desktop/nick/jetpack_5/Jetson_Linux_R35.4.1_aarch64/Linux_for_Tegra/sources/tegra/optee-src/nv-optee/optee/optee_os/lib/libutils/ext/trace.c:220
     5c8:	aa0303e0 	mov	x0, x3
     5cc:	97fffe95 	bl	20 <memcpy>
     5d0:	aa0003e3 	mov	x3, x0
     5d4:	f9408260 	ldr	x0, [x19, #256]
/home/ssysarch/Desktop/nick/jetpack_5/Jetson_Linux_R35.4.1_aarch64/Linux_for_Tegra/sources/tegra/optee-src/nv-optee/optee/optee_os/lib/libutils/ext/trace.c:218
     5d8:	4b140274 	sub	w20, w19, w20
     5dc:	11040294 	add	w20, w20, #0x100
/home/ssysarch/Desktop/nick/jetpack_5/Jetson_Linux_R35.4.1_aarch64/Linux_for_Tegra/sources/tegra/optee-src/nv-optee/optee/optee_os/lib/libutils/ext/trace.c:220
     5e0:	aa1503e2 	mov	x2, x21
     5e4:	93407e81 	sxtw	x1, w20
     5e8:	94000176 	bl	bc0 <vsnprintk>
/home/ssysarch/Desktop/nick/jetpack_5/Jetson_Linux_R35.4.1_aarch64/Linux_for_Tegra/sources/tegra/optee-src/nv-optee/optee/optee_os/lib/libutils/ext/trace.c:222
     5ec:	37f801e0 	tbnz	w0, #31, 628 <append+0xf4>
/home/ssysarch/Desktop/nick/jetpack_5/Jetson_Linux_R35.4.1_aarch64/Linux_for_Tegra/sources/tegra/optee-src/nv-optee/optee/optee_os/lib/libutils/ext/trace.c:226
     5f0:	6b00029f 	cmp	w20, w0
     5f4:	540001ad 	b.le	628 <append+0xf4>
/home/ssysarch/Desktop/nick/jetpack_5/Jetson_Linux_R35.4.1_aarch64/Linux_for_Tegra/sources/tegra/optee-src/nv-optee/optee/optee_os/lib/libutils/ext/trace.c:230
     5f8:	f9408261 	ldr	x1, [x19, #256]
     5fc:	8b20c020 	add	x0, x1, w0, sxtw
     600:	f9008260 	str	x0, [x19, #256]
/home/ssysarch/Desktop/nick/jetpack_5/Jetson_Linux_R35.4.1_aarch64/Linux_for_Tegra/sources/tegra/optee-src/nv-optee/optee/optee_os/lib/libutils/ext/trace.c:231
     604:	52800020 	mov	w0, #0x1                   	// #1
/home/ssysarch/Desktop/nick/jetpack_5/Jetson_Linux_R35.4.1_aarch64/Linux_for_Tegra/sources/tegra/optee-src/nv-optee/optee/optee_os/lib/libutils/ext/trace.c:232
     608:	b00000c2 	adrp	x2, 19000 <_DYNAMIC>
     60c:	f9409842 	ldr	x2, [x2, #304]
     610:	f9403fe1 	ldr	x1, [sp, #120]
     614:	f9400043 	ldr	x3, [x2]
     618:	eb030021 	subs	x1, x1, x3
     61c:	d2800003 	mov	x3, #0x0                   	// #0
     620:	54000080 	b.eq	630 <append+0xfc>  // b.none
     624:	97ffffb8 	bl	504 <__stack_chk_fail>
/home/ssysarch/Desktop/nick/jetpack_5/Jetson_Linux_R35.4.1_aarch64/Linux_for_Tegra/sources/tegra/optee-src/nv-optee/optee/optee_os/lib/libutils/ext/trace.c:224
     628:	52800000 	mov	w0, #0x0                   	// #0
     62c:	17fffff7 	b	608 <append+0xd4>
/home/ssysarch/Desktop/nick/jetpack_5/Jetson_Linux_R35.4.1_aarch64/Linux_for_Tegra/sources/tegra/optee-src/nv-optee/optee/optee_os/lib/libutils/ext/trace.c:232
     630:	a94153f3 	ldp	x19, x20, [sp, #16]
     634:	f94013f5 	ldr	x21, [sp, #32]
     638:	a8d37bfd 	ldp	x29, x30, [sp], #304
     63c:	d65f03c0 	ret

0000000000000640 <trace_set_level>:
trace_set_level():
/home/ssysarch/Desktop/nick/jetpack_5/Jetson_Linux_R35.4.1_aarch64/Linux_for_Tegra/sources/tegra/optee-src/nv-optee/optee/optee_os/lib/libutils/ext/trace.c:28
     640:	7100141f 	cmp	w0, #0x5
     644:	52800081 	mov	w1, #0x4                   	// #4
     648:	1a813000 	csel	w0, w0, w1, cc  // cc = lo, ul, last
     64c:	b00000c1 	adrp	x1, 19000 <_DYNAMIC>
     650:	f940a821 	ldr	x1, [x1, #336]
     654:	b9000020 	str	w0, [x1]
/home/ssysarch/Desktop/nick/jetpack_5/Jetson_Linux_R35.4.1_aarch64/Linux_for_Tegra/sources/tegra/optee-src/nv-optee/optee/optee_os/lib/libutils/ext/trace.c:29
     658:	d65f03c0 	ret

000000000000065c <trace_get_level>:
trace_get_level():
/home/ssysarch/Desktop/nick/jetpack_5/Jetson_Linux_R35.4.1_aarch64/Linux_for_Tegra/sources/tegra/optee-src/nv-optee/optee/optee_os/lib/libutils/ext/trace.c:33
     65c:	b00000c0 	adrp	x0, 19000 <_DYNAMIC>
/home/ssysarch/Desktop/nick/jetpack_5/Jetson_Linux_R35.4.1_aarch64/Linux_for_Tegra/sources/tegra/optee-src/nv-optee/optee/optee_os/lib/libutils/ext/trace.c:34
     660:	f940a800 	ldr	x0, [x0, #336]
     664:	b9400000 	ldr	w0, [x0]
     668:	d65f03c0 	ret

000000000000066c <trace_vprintf>:
trace_vprintf():
/home/ssysarch/Desktop/nick/jetpack_5/Jetson_Linux_R35.4.1_aarch64/Linux_for_Tegra/sources/tegra/optee-src/nv-optee/optee/optee_os/lib/libutils/ext/trace.c:113
     66c:	a9a77bfd 	stp	x29, x30, [sp, #-400]!
     670:	910003fd 	mov	x29, sp
     674:	a9046bf9 	stp	x25, x26, [sp, #64]
     678:	2a0103f9 	mov	w25, w1
     67c:	b00000c1 	adrp	x1, 19000 <_DYNAMIC>
     680:	a9025bf5 	stp	x21, x22, [sp, #32]
     684:	aa0003f6 	mov	x22, x0
     688:	aa0103f5 	mov	x21, x1
     68c:	f9409820 	ldr	x0, [x1, #304]
     690:	a90153f3 	stp	x19, x20, [sp, #16]
     694:	2a0203f3 	mov	w19, w2
     698:	f9400002 	ldr	x2, [x0]
     69c:	f900c7e2 	str	x2, [sp, #392]
     6a0:	d2800002 	mov	x2, #0x0                   	// #0
     6a4:	a90363f7 	stp	x23, x24, [sp, #48]
     6a8:	aa0403f7 	mov	x23, x4
     6ac:	a90573fb 	stp	x27, x28, [sp, #80]
     6b0:	aa0503f8 	mov	x24, x5
/home/ssysarch/Desktop/nick/jetpack_5/Jetson_Linux_R35.4.1_aarch64/Linux_for_Tegra/sources/tegra/optee-src/nv-optee/optee/optee_os/lib/libutils/ext/trace.c:118
     6b4:	72001c7b 	ands	w27, w3, #0xff
     6b8:	54000b20 	b.eq	81c <trace_vprintf+0x1b0>  // b.none
/home/ssysarch/Desktop/nick/jetpack_5/Jetson_Linux_R35.4.1_aarch64/Linux_for_Tegra/sources/tegra/optee-src/nv-optee/optee/optee_os/lib/libutils/ext/trace.c:118 (discriminator 1)
     6bc:	f940a820 	ldr	x0, [x1, #336]
     6c0:	b9400000 	ldr	w0, [x0]
     6c4:	6b13001f 	cmp	w0, w19
     6c8:	540009cb 	b.lt	800 <trace_vprintf+0x194>  // b.tstop
trace_level_to_string():
/home/ssysarch/Desktop/nick/jetpack_5/Jetson_Linux_R35.4.1_aarch64/Linux_for_Tegra/sources/tegra/optee-src/nv-optee/optee/optee_os/lib/libutils/ext/trace.c:51
     6cc:	7100127f 	cmp	w19, #0x4
/home/ssysarch/Desktop/nick/jetpack_5/Jetson_Linux_R35.4.1_aarch64/Linux_for_Tegra/sources/tegra/optee-src/nv-optee/optee/optee_os/lib/libutils/ext/trace.c:54
     6d0:	f00000a0 	adrp	x0, 17000 <gcd_pairs+0x40>
     6d4:	91073400 	add	x0, x0, #0x1cd
/home/ssysarch/Desktop/nick/jetpack_5/Jetson_Linux_R35.4.1_aarch64/Linux_for_Tegra/sources/tegra/optee-src/nv-optee/optee/optee_os/lib/libutils/ext/trace.c:51
     6d8:	1a9f9261 	csel	w1, w19, wzr, ls  // ls = plast
/home/ssysarch/Desktop/nick/jetpack_5/Jetson_Linux_R35.4.1_aarch64/Linux_for_Tegra/sources/tegra/optee-src/nv-optee/optee/optee_os/lib/libutils/ext/trace.c:54
     6dc:	3861c803 	ldrb	w3, [x0, w1, sxtw]
trace_vprintf():
/home/ssysarch/Desktop/nick/jetpack_5/Jetson_Linux_R35.4.1_aarch64/Linux_for_Tegra/sources/tegra/optee-src/nv-optee/optee/optee_os/lib/libutils/ext/trace.c:122
     6e0:	910223f4 	add	x20, sp, #0x88
     6e4:	f00000a2 	adrp	x2, 17000 <gcd_pairs+0x40>
     6e8:	91064c42 	add	x2, x2, #0x193
     6ec:	aa1403e0 	mov	x0, x20
     6f0:	d2802001 	mov	x1, #0x100                 	// #256
     6f4:	94000149 	bl	c18 <snprintk>
/home/ssysarch/Desktop/nick/jetpack_5/Jetson_Linux_R35.4.1_aarch64/Linux_for_Tegra/sources/tegra/optee-src/nv-optee/optee/optee_os/lib/libutils/ext/trace.c:124
     6f8:	37f80840 	tbnz	w0, #31, 800 <trace_vprintf+0x194>
/home/ssysarch/Desktop/nick/jetpack_5/Jetson_Linux_R35.4.1_aarch64/Linux_for_Tegra/sources/tegra/optee-src/nv-optee/optee/optee_os/lib/libutils/ext/trace.c:129
     6fc:	f940b2a3 	ldr	x3, [x21, #352]
     700:	d280201c 	mov	x28, #0x100                 	// #256
/home/ssysarch/Desktop/nick/jetpack_5/Jetson_Linux_R35.4.1_aarch64/Linux_for_Tegra/sources/tegra/optee-src/nv-optee/optee/optee_os/lib/libutils/ext/trace.c:126
     704:	93407c1a 	sxtw	x26, w0
/home/ssysarch/Desktop/nick/jetpack_5/Jetson_Linux_R35.4.1_aarch64/Linux_for_Tegra/sources/tegra/optee-src/nv-optee/optee/optee_os/lib/libutils/ext/trace.c:129
     708:	cb20c381 	sub	x1, x28, w0, sxtw
     70c:	f00000a2 	adrp	x2, 17000 <gcd_pairs+0x40>
     710:	91065c42 	add	x2, x2, #0x197
     714:	8b20c280 	add	x0, x20, w0, sxtw
     718:	94000140 	bl	c18 <snprintk>
/home/ssysarch/Desktop/nick/jetpack_5/Jetson_Linux_R35.4.1_aarch64/Linux_for_Tegra/sources/tegra/optee-src/nv-optee/optee/optee_os/lib/libutils/ext/trace.c:131
     71c:	37f80720 	tbnz	w0, #31, 800 <trace_vprintf+0x194>
/home/ssysarch/Desktop/nick/jetpack_5/Jetson_Linux_R35.4.1_aarch64/Linux_for_Tegra/sources/tegra/optee-src/nv-optee/optee/optee_os/lib/libutils/ext/trace.c:133
     720:	8b20c35a 	add	x26, x26, w0, sxtw
/home/ssysarch/Desktop/nick/jetpack_5/Jetson_Linux_R35.4.1_aarch64/Linux_for_Tegra/sources/tegra/optee-src/nv-optee/optee/optee_os/lib/libutils/ext/trace.c:135
     724:	3400093b 	cbz	w27, 848 <trace_vprintf+0x1dc>
/home/ssysarch/Desktop/nick/jetpack_5/Jetson_Linux_R35.4.1_aarch64/Linux_for_Tegra/sources/tegra/optee-src/nv-optee/optee/optee_os/lib/libutils/ext/trace.c:135 (discriminator 1)
     728:	52800342 	mov	w2, #0x1a                  	// #26
     72c:	1ad32453 	lsr	w19, w2, w19
     730:	360008d3 	tbz	w19, #0, 848 <trace_vprintf+0x1dc>
print_thread_id():
/home/ssysarch/Desktop/nick/jetpack_5/Jetson_Linux_R35.4.1_aarch64/Linux_for_Tegra/sources/tegra/optee-src/nv-optee/optee/optee_os/lib/libutils/ext/trace.c:66
     734:	94000493 	bl	1980 <trace_ext_get_thread_id>
trace_vprintf():
/home/ssysarch/Desktop/nick/jetpack_5/Jetson_Linux_R35.4.1_aarch64/Linux_for_Tegra/sources/tegra/optee-src/nv-optee/optee/optee_os/lib/libutils/ext/trace.c:137
     738:	8b1a029b 	add	x27, x20, x26
     73c:	cb1a039c 	sub	x28, x28, x26
print_thread_id():
/home/ssysarch/Desktop/nick/jetpack_5/Jetson_Linux_R35.4.1_aarch64/Linux_for_Tegra/sources/tegra/optee-src/nv-optee/optee/optee_os/lib/libutils/ext/trace.c:66
     740:	2a0003e4 	mov	w4, w0
/home/ssysarch/Desktop/nick/jetpack_5/Jetson_Linux_R35.4.1_aarch64/Linux_for_Tegra/sources/tegra/optee-src/nv-optee/optee/optee_os/lib/libutils/ext/trace.c:68
     744:	37f80700 	tbnz	w0, #31, 824 <trace_vprintf+0x1b8>
/home/ssysarch/Desktop/nick/jetpack_5/Jetson_Linux_R35.4.1_aarch64/Linux_for_Tegra/sources/tegra/optee-src/nv-optee/optee/optee_os/lib/libutils/ext/trace.c:69
     748:	f00000a2 	adrp	x2, 17000 <gcd_pairs+0x40>
     74c:	91066c42 	add	x2, x2, #0x19b
     750:	aa1c03e1 	mov	x1, x28
     754:	aa1b03e0 	mov	x0, x27
     758:	52800043 	mov	w3, #0x2                   	// #2
     75c:	9400012f 	bl	c18 <snprintk>
trace_vprintf():
/home/ssysarch/Desktop/nick/jetpack_5/Jetson_Linux_R35.4.1_aarch64/Linux_for_Tegra/sources/tegra/optee-src/nv-optee/optee/optee_os/lib/libutils/ext/trace.c:144
     760:	37f80500 	tbnz	w0, #31, 800 <trace_vprintf+0x194>
/home/ssysarch/Desktop/nick/jetpack_5/Jetson_Linux_R35.4.1_aarch64/Linux_for_Tegra/sources/tegra/optee-src/nv-optee/optee/optee_os/lib/libutils/ext/trace.c:146
     764:	8b20c353 	add	x19, x26, w0, sxtw
/home/ssysarch/Desktop/nick/jetpack_5/Jetson_Linux_R35.4.1_aarch64/Linux_for_Tegra/sources/tegra/optee-src/nv-optee/optee/optee_os/lib/libutils/ext/trace.c:148
     768:	b4000176 	cbz	x22, 794 <trace_vprintf+0x128>
/home/ssysarch/Desktop/nick/jetpack_5/Jetson_Linux_R35.4.1_aarch64/Linux_for_Tegra/sources/tegra/optee-src/nv-optee/optee/optee_os/lib/libutils/ext/trace.c:149
     76c:	f00000a2 	adrp	x2, 17000 <gcd_pairs+0x40>
     770:	91069842 	add	x2, x2, #0x1a6
     774:	d2802001 	mov	x1, #0x100                 	// #256
     778:	2a1903e4 	mov	w4, w25
     77c:	aa1603e3 	mov	x3, x22
     780:	cb130021 	sub	x1, x1, x19
     784:	8b130280 	add	x0, x20, x19
     788:	94000124 	bl	c18 <snprintk>
/home/ssysarch/Desktop/nick/jetpack_5/Jetson_Linux_R35.4.1_aarch64/Linux_for_Tegra/sources/tegra/optee-src/nv-optee/optee/optee_os/lib/libutils/ext/trace.c:151
     78c:	37f803a0 	tbnz	w0, #31, 800 <trace_vprintf+0x194>
/home/ssysarch/Desktop/nick/jetpack_5/Jetson_Linux_R35.4.1_aarch64/Linux_for_Tegra/sources/tegra/optee-src/nv-optee/optee/optee_os/lib/libutils/ext/trace.c:153
     790:	8b20c273 	add	x19, x19, w0, sxtw
/home/ssysarch/Desktop/nick/jetpack_5/Jetson_Linux_R35.4.1_aarch64/Linux_for_Tegra/sources/tegra/optee-src/nv-optee/optee/optee_os/lib/libutils/ext/trace.c:163
     794:	910183e3 	add	x3, sp, #0x60
     798:	aa1803e1 	mov	x1, x24
     79c:	aa0303e0 	mov	x0, x3
     7a0:	d2800402 	mov	x2, #0x20                  	// #32
     7a4:	97fffe1f 	bl	20 <memcpy>
     7a8:	aa0003e3 	mov	x3, x0
     7ac:	aa1703e2 	mov	x2, x23
     7b0:	8b130280 	add	x0, x20, x19
     7b4:	d2802001 	mov	x1, #0x100                 	// #256
     7b8:	cb130021 	sub	x1, x1, x19
     7bc:	94000101 	bl	bc0 <vsnprintk>
/home/ssysarch/Desktop/nick/jetpack_5/Jetson_Linux_R35.4.1_aarch64/Linux_for_Tegra/sources/tegra/optee-src/nv-optee/optee/optee_os/lib/libutils/ext/trace.c:164
     7c0:	7100001f 	cmp	w0, #0x0
     7c4:	5400004d 	b.le	7cc <trace_vprintf+0x160>
/home/ssysarch/Desktop/nick/jetpack_5/Jetson_Linux_R35.4.1_aarch64/Linux_for_Tegra/sources/tegra/optee-src/nv-optee/optee/optee_os/lib/libutils/ext/trace.c:165
     7c8:	8b20c273 	add	x19, x19, w0, sxtw
/home/ssysarch/Desktop/nick/jetpack_5/Jetson_Linux_R35.4.1_aarch64/Linux_for_Tegra/sources/tegra/optee-src/nv-optee/optee/optee_os/lib/libutils/ext/trace.c:167
     7cc:	f103fa7f 	cmp	x19, #0xfe
     7d0:	d2801fc0 	mov	x0, #0xfe                  	// #254
     7d4:	9a809273 	csel	x19, x19, x0, ls  // ls = plast
/home/ssysarch/Desktop/nick/jetpack_5/Jetson_Linux_R35.4.1_aarch64/Linux_for_Tegra/sources/tegra/optee-src/nv-optee/optee/optee_os/lib/libutils/ext/trace.c:170
     7d8:	52800140 	mov	w0, #0xa                   	// #10
     7dc:	38336a80 	strb	w0, [x20, x19]
/home/ssysarch/Desktop/nick/jetpack_5/Jetson_Linux_R35.4.1_aarch64/Linux_for_Tegra/sources/tegra/optee-src/nv-optee/optee/optee_os/lib/libutils/ext/trace.c:171
     7e0:	b4000093 	cbz	x19, 7f0 <trace_vprintf+0x184>
/home/ssysarch/Desktop/nick/jetpack_5/Jetson_Linux_R35.4.1_aarch64/Linux_for_Tegra/sources/tegra/optee-src/nv-optee/optee/optee_os/lib/libutils/ext/trace.c:171 (discriminator 1)
     7e4:	38736a80 	ldrb	w0, [x20, x19]
     7e8:	7100281f 	cmp	w0, #0xa
     7ec:	540003c0 	b.eq	864 <trace_vprintf+0x1f8>  // b.none
/home/ssysarch/Desktop/nick/jetpack_5/Jetson_Linux_R35.4.1_aarch64/Linux_for_Tegra/sources/tegra/optee-src/nv-optee/optee/optee_os/lib/libutils/ext/trace.c:174
     7f0:	91022be0 	add	x0, sp, #0x8a
     7f4:	3833681f 	strb	wzr, [x0, x19]
/home/ssysarch/Desktop/nick/jetpack_5/Jetson_Linux_R35.4.1_aarch64/Linux_for_Tegra/sources/tegra/optee-src/nv-optee/optee/optee_os/lib/libutils/ext/trace.c:176
     7f8:	aa1403e0 	mov	x0, x20
     7fc:	94000457 	bl	1958 <trace_ext_puts>
/home/ssysarch/Desktop/nick/jetpack_5/Jetson_Linux_R35.4.1_aarch64/Linux_for_Tegra/sources/tegra/optee-src/nv-optee/optee/optee_os/lib/libutils/ext/trace.c:177
     800:	f9409ab5 	ldr	x21, [x21, #304]
     804:	f940c7e0 	ldr	x0, [sp, #392]
     808:	f94002a1 	ldr	x1, [x21]
     80c:	eb010000 	subs	x0, x0, x1
     810:	d2800001 	mov	x1, #0x0                   	// #0
     814:	540002c0 	b.eq	86c <trace_vprintf+0x200>  // b.none
     818:	97ffff3b 	bl	504 <__stack_chk_fail>
trace_level_to_string():
/home/ssysarch/Desktop/nick/jetpack_5/Jetson_Linux_R35.4.1_aarch64/Linux_for_Tegra/sources/tegra/optee-src/nv-optee/optee/optee_os/lib/libutils/ext/trace.c:49
     81c:	528009a3 	mov	w3, #0x4d                  	// #77
     820:	17ffffb0 	b	6e0 <trace_vprintf+0x74>
print_thread_id():
/home/ssysarch/Desktop/nick/jetpack_5/Jetson_Linux_R35.4.1_aarch64/Linux_for_Tegra/sources/tegra/optee-src/nv-optee/optee/optee_os/lib/libutils/ext/trace.c:71
     824:	aa1c03e1 	mov	x1, x28
     828:	aa1b03e0 	mov	x0, x27
     82c:	f00000a4 	adrp	x4, 17000 <gcd_pairs+0x40>
     830:	912d5c84 	add	x4, x4, #0xb57
     834:	52800043 	mov	w3, #0x2                   	// #2
     838:	f00000a2 	adrp	x2, 17000 <gcd_pairs+0x40>
     83c:	91068442 	add	x2, x2, #0x1a1
     840:	940000f6 	bl	c18 <snprintk>
     844:	17ffffc7 	b	760 <trace_vprintf+0xf4>
trace_vprintf():
/home/ssysarch/Desktop/nick/jetpack_5/Jetson_Linux_R35.4.1_aarch64/Linux_for_Tegra/sources/tegra/optee-src/nv-optee/optee/optee_os/lib/libutils/ext/trace.c:157
     848:	f103fb5f 	cmp	x26, #0xfe
     84c:	54fffda8 	b.hi	800 <trace_vprintf+0x194>  // b.pmore
/home/ssysarch/Desktop/nick/jetpack_5/Jetson_Linux_R35.4.1_aarch64/Linux_for_Tegra/sources/tegra/optee-src/nv-optee/optee/optee_os/lib/libutils/ext/trace.c:159
     850:	91000753 	add	x19, x26, #0x1
     854:	52800400 	mov	w0, #0x20                  	// #32
     858:	383a6a80 	strb	w0, [x20, x26]
/home/ssysarch/Desktop/nick/jetpack_5/Jetson_Linux_R35.4.1_aarch64/Linux_for_Tegra/sources/tegra/optee-src/nv-optee/optee/optee_os/lib/libutils/ext/trace.c:160
     85c:	38336a9f 	strb	wzr, [x20, x19]
     860:	17ffffcd 	b	794 <trace_vprintf+0x128>
/home/ssysarch/Desktop/nick/jetpack_5/Jetson_Linux_R35.4.1_aarch64/Linux_for_Tegra/sources/tegra/optee-src/nv-optee/optee/optee_os/lib/libutils/ext/trace.c:172
     864:	d1000673 	sub	x19, x19, #0x1
     868:	17ffffde 	b	7e0 <trace_vprintf+0x174>
/home/ssysarch/Desktop/nick/jetpack_5/Jetson_Linux_R35.4.1_aarch64/Linux_for_Tegra/sources/tegra/optee-src/nv-optee/optee/optee_os/lib/libutils/ext/trace.c:177
     86c:	a94153f3 	ldp	x19, x20, [sp, #16]
     870:	a9425bf5 	ldp	x21, x22, [sp, #32]
     874:	a94363f7 	ldp	x23, x24, [sp, #48]
     878:	a9446bf9 	ldp	x25, x26, [sp, #64]
     87c:	a94573fb 	ldp	x27, x28, [sp, #80]
     880:	a8d97bfd 	ldp	x29, x30, [sp], #400
     884:	d65f03c0 	ret

0000000000000888 <trace_printf>:
trace_printf():
/home/ssysarch/Desktop/nick/jetpack_5/Jetson_Linux_R35.4.1_aarch64/Linux_for_Tegra/sources/tegra/optee-src/nv-optee/optee/optee_os/lib/libutils/ext/trace.c:104
     888:	a9ad7bfd 	stp	x29, x30, [sp, #-304]!
     88c:	910003fd 	mov	x29, sp
     890:	a90153f3 	stp	x19, x20, [sp, #16]
     894:	b00000d3 	adrp	x19, 19000 <_DYNAMIC>
     898:	aa0003f4 	mov	x20, x0
     89c:	f9409a73 	ldr	x19, [x19, #304]
     8a0:	3d8027e0 	str	q0, [sp, #144]
     8a4:	3d802be1 	str	q1, [sp, #160]
     8a8:	3d802fe2 	str	q2, [sp, #176]
     8ac:	3d8033e3 	str	q3, [sp, #192]
     8b0:	3d8037e4 	str	q4, [sp, #208]
     8b4:	3d803be5 	str	q5, [sp, #224]
     8b8:	3d803fe6 	str	q6, [sp, #240]
     8bc:	3d8043e7 	str	q7, [sp, #256]
     8c0:	a9119be5 	stp	x5, x6, [sp, #280]
/home/ssysarch/Desktop/nick/jetpack_5/Jetson_Linux_R35.4.1_aarch64/Linux_for_Tegra/sources/tegra/optee-src/nv-optee/optee/optee_os/lib/libutils/ext/trace.c:108
     8c4:	910103e5 	add	x5, sp, #0x40
/home/ssysarch/Desktop/nick/jetpack_5/Jetson_Linux_R35.4.1_aarch64/Linux_for_Tegra/sources/tegra/optee-src/nv-optee/optee/optee_os/lib/libutils/ext/trace.c:104
     8c8:	f90097e7 	str	x7, [sp, #296]
     8cc:	a9025bf5 	stp	x21, x22, [sp, #32]
     8d0:	2a0103f5 	mov	w21, w1
     8d4:	f9400260 	ldr	x0, [x19]
     8d8:	f90047e0 	str	x0, [sp, #136]
     8dc:	d2800000 	mov	x0, #0x0                   	// #0
/home/ssysarch/Desktop/nick/jetpack_5/Jetson_Linux_R35.4.1_aarch64/Linux_for_Tegra/sources/tegra/optee-src/nv-optee/optee/optee_os/lib/libutils/ext/trace.c:107
     8e0:	9104c3e0 	add	x0, sp, #0x130
     8e4:	a90683e0 	stp	x0, x0, [sp, #104]
     8e8:	910443e0 	add	x0, sp, #0x110
     8ec:	f9003fe0 	str	x0, [sp, #120]
     8f0:	128002e0 	mov	w0, #0xffffffe8            	// #-24
     8f4:	b90083e0 	str	w0, [sp, #128]
     8f8:	12800fe0 	mov	w0, #0xffffff80            	// #-128
/home/ssysarch/Desktop/nick/jetpack_5/Jetson_Linux_R35.4.1_aarch64/Linux_for_Tegra/sources/tegra/optee-src/nv-optee/optee/optee_os/lib/libutils/ext/trace.c:104
     8fc:	2a0203f6 	mov	w22, w2
/home/ssysarch/Desktop/nick/jetpack_5/Jetson_Linux_R35.4.1_aarch64/Linux_for_Tegra/sources/tegra/optee-src/nv-optee/optee/optee_os/lib/libutils/ext/trace.c:108
     900:	9101a3e1 	add	x1, sp, #0x68
     904:	d2800402 	mov	x2, #0x20                  	// #32
/home/ssysarch/Desktop/nick/jetpack_5/Jetson_Linux_R35.4.1_aarch64/Linux_for_Tegra/sources/tegra/optee-src/nv-optee/optee/optee_os/lib/libutils/ext/trace.c:104
     908:	a90363f7 	stp	x23, x24, [sp, #48]
     90c:	12001c78 	and	w24, w3, #0xff
     910:	aa0403f7 	mov	x23, x4
/home/ssysarch/Desktop/nick/jetpack_5/Jetson_Linux_R35.4.1_aarch64/Linux_for_Tegra/sources/tegra/optee-src/nv-optee/optee/optee_os/lib/libutils/ext/trace.c:107
     914:	b90087e0 	str	w0, [sp, #132]
/home/ssysarch/Desktop/nick/jetpack_5/Jetson_Linux_R35.4.1_aarch64/Linux_for_Tegra/sources/tegra/optee-src/nv-optee/optee/optee_os/lib/libutils/ext/trace.c:108
     918:	aa0503e0 	mov	x0, x5
     91c:	97fffdc1 	bl	20 <memcpy>
     920:	2a1503e1 	mov	w1, w21
     924:	aa0003e5 	mov	x5, x0
     928:	aa1703e4 	mov	x4, x23
     92c:	aa1403e0 	mov	x0, x20
     930:	2a1803e3 	mov	w3, w24
     934:	2a1603e2 	mov	w2, w22
     938:	97ffff4d 	bl	66c <trace_vprintf>
/home/ssysarch/Desktop/nick/jetpack_5/Jetson_Linux_R35.4.1_aarch64/Linux_for_Tegra/sources/tegra/optee-src/nv-optee/optee/optee_os/lib/libutils/ext/trace.c:110
     93c:	f94047e0 	ldr	x0, [sp, #136]
     940:	f9400261 	ldr	x1, [x19]
     944:	eb010000 	subs	x0, x0, x1
     948:	d2800001 	mov	x1, #0x0                   	// #0
     94c:	54000040 	b.eq	954 <trace_printf+0xcc>  // b.none
     950:	97fffeed 	bl	504 <__stack_chk_fail>
     954:	a94153f3 	ldp	x19, x20, [sp, #16]
     958:	a9425bf5 	ldp	x21, x22, [sp, #32]
     95c:	a94363f7 	ldp	x23, x24, [sp, #48]
     960:	a8d37bfd 	ldp	x29, x30, [sp], #304
     964:	d65f03c0 	ret

0000000000000968 <dhex_dump>:
dhex_dump():
/home/ssysarch/Desktop/nick/jetpack_5/Jetson_Linux_R35.4.1_aarch64/Linux_for_Tegra/sources/tegra/optee-src/nv-optee/optee/optee_os/lib/libutils/ext/trace.c:236
     968:	a9a97bfd 	stp	x29, x30, [sp, #-368]!
     96c:	b00000c5 	adrp	x5, 19000 <_DYNAMIC>
     970:	910003fd 	mov	x29, sp
     974:	a9025bf5 	stp	x21, x22, [sp, #32]
     978:	aa0003f5 	mov	x21, x0
     97c:	2a0103f6 	mov	w22, w1
     980:	f94098a0 	ldr	x0, [x5, #304]
     984:	a90153f3 	stp	x19, x20, [sp, #16]
/home/ssysarch/Desktop/nick/jetpack_5/Jetson_Linux_R35.4.1_aarch64/Linux_for_Tegra/sources/tegra/optee-src/nv-optee/optee/optee_os/lib/libutils/ext/trace.c:242
     988:	f940a8a5 	ldr	x5, [x5, #336]
/home/ssysarch/Desktop/nick/jetpack_5/Jetson_Linux_R35.4.1_aarch64/Linux_for_Tegra/sources/tegra/optee-src/nv-optee/optee/optee_os/lib/libutils/ext/trace.c:236
     98c:	f9400001 	ldr	x1, [x0]
     990:	f900b7e1 	str	x1, [sp, #360]
     994:	d2800001 	mov	x1, #0x0                   	// #0
     998:	a90363f7 	stp	x23, x24, [sp, #48]
/home/ssysarch/Desktop/nick/jetpack_5/Jetson_Linux_R35.4.1_aarch64/Linux_for_Tegra/sources/tegra/optee-src/nv-optee/optee/optee_os/lib/libutils/ext/trace.c:242
     99c:	b94000a0 	ldr	w0, [x5]
/home/ssysarch/Desktop/nick/jetpack_5/Jetson_Linux_R35.4.1_aarch64/Linux_for_Tegra/sources/tegra/optee-src/nv-optee/optee/optee_os/lib/libutils/ext/trace.c:236
     9a0:	a9046bf9 	stp	x25, x26, [sp, #64]
/home/ssysarch/Desktop/nick/jetpack_5/Jetson_Linux_R35.4.1_aarch64/Linux_for_Tegra/sources/tegra/optee-src/nv-optee/optee/optee_os/lib/libutils/ext/trace.c:242
     9a4:	6b02001f 	cmp	w0, w2
/home/ssysarch/Desktop/nick/jetpack_5/Jetson_Linux_R35.4.1_aarch64/Linux_for_Tegra/sources/tegra/optee-src/nv-optee/optee/optee_os/lib/libutils/ext/trace.c:236
     9a8:	a90573fb 	stp	x27, x28, [sp, #80]
/home/ssysarch/Desktop/nick/jetpack_5/Jetson_Linux_R35.4.1_aarch64/Linux_for_Tegra/sources/tegra/optee-src/nv-optee/optee/optee_os/lib/libutils/ext/trace.c:242
     9ac:	5400030b 	b.lt	a0c <dhex_dump+0xa4>  // b.tstop
/home/ssysarch/Desktop/nick/jetpack_5/Jetson_Linux_R35.4.1_aarch64/Linux_for_Tegra/sources/tegra/optee-src/nv-optee/optee/optee_os/lib/libutils/ext/trace.c:246
     9b0:	f00000ba 	adrp	x26, 17000 <gcd_pairs+0x40>
     9b4:	9106cf5a 	add	x26, x26, #0x1b3
/home/ssysarch/Desktop/nick/jetpack_5/Jetson_Linux_R35.4.1_aarch64/Linux_for_Tegra/sources/tegra/optee-src/nv-optee/optee/optee_os/lib/libutils/ext/trace.c:251
     9b8:	f00000bb 	adrp	x27, 17000 <gcd_pairs+0x40>
     9bc:	9106b77b 	add	x27, x27, #0x1ad
     9c0:	2a0203f4 	mov	w20, w2
     9c4:	aa0303f8 	mov	x24, x3
     9c8:	2a0403f9 	mov	w25, w4
/home/ssysarch/Desktop/nick/jetpack_5/Jetson_Linux_R35.4.1_aarch64/Linux_for_Tegra/sources/tegra/optee-src/nv-optee/optee/optee_os/lib/libutils/ext/trace.c:243
     9cc:	910183f7 	add	x23, sp, #0x60
/home/ssysarch/Desktop/nick/jetpack_5/Jetson_Linux_R35.4.1_aarch64/Linux_for_Tegra/sources/tegra/optee-src/nv-optee/optee/optee_os/lib/libutils/ext/trace.c:244
     9d0:	d2800013 	mov	x19, #0x0                   	// #0
/home/ssysarch/Desktop/nick/jetpack_5/Jetson_Linux_R35.4.1_aarch64/Linux_for_Tegra/sources/tegra/optee-src/nv-optee/optee/optee_os/lib/libutils/ext/trace.c:243
     9d4:	f900b3ff 	str	xzr, [sp, #352]
/home/ssysarch/Desktop/nick/jetpack_5/Jetson_Linux_R35.4.1_aarch64/Linux_for_Tegra/sources/tegra/optee-src/nv-optee/optee/optee_os/lib/libutils/ext/trace.c:244
     9d8:	2a1303fc 	mov	w28, w19
/home/ssysarch/Desktop/nick/jetpack_5/Jetson_Linux_R35.4.1_aarch64/Linux_for_Tegra/sources/tegra/optee-src/nv-optee/optee/optee_os/lib/libutils/ext/trace.c:244 (discriminator 1)
     9dc:	6b13033f 	cmp	w25, w19
     9e0:	5400026c 	b.gt	a2c <dhex_dump+0xc4>
/home/ssysarch/Desktop/nick/jetpack_5/Jetson_Linux_R35.4.1_aarch64/Linux_for_Tegra/sources/tegra/optee-src/nv-optee/optee/optee_os/lib/libutils/ext/trace.c:264
     9e4:	f940b3e0 	ldr	x0, [sp, #352]
     9e8:	b4000120 	cbz	x0, a0c <dhex_dump+0xa4>
/home/ssysarch/Desktop/nick/jetpack_5/Jetson_Linux_R35.4.1_aarch64/Linux_for_Tegra/sources/tegra/optee-src/nv-optee/optee/optee_os/lib/libutils/ext/trace.c:266
     9ec:	f00000a4 	adrp	x4, 17000 <gcd_pairs+0x40>
     9f0:	9106ec84 	add	x4, x4, #0x1bb
     9f4:	910183e5 	add	x5, sp, #0x60
     9f8:	2a1403e2 	mov	w2, w20
     9fc:	2a1603e1 	mov	w1, w22
     a00:	aa1503e0 	mov	x0, x21
     a04:	52800023 	mov	w3, #0x1                   	// #1
     a08:	97ffffa0 	bl	888 <trace_printf>
/home/ssysarch/Desktop/nick/jetpack_5/Jetson_Linux_R35.4.1_aarch64/Linux_for_Tegra/sources/tegra/optee-src/nv-optee/optee/optee_os/lib/libutils/ext/trace.c:274
     a0c:	b00000c5 	adrp	x5, 19000 <_DYNAMIC>
     a10:	f94098a5 	ldr	x5, [x5, #304]
     a14:	f940b7e0 	ldr	x0, [sp, #360]
     a18:	f94000a1 	ldr	x1, [x5]
     a1c:	eb010000 	subs	x0, x0, x1
     a20:	d2800001 	mov	x1, #0x0                   	// #0
     a24:	54000600 	b.eq	ae4 <dhex_dump+0x17c>  // b.none
     a28:	97fffeb7 	bl	504 <__stack_chk_fail>
/home/ssysarch/Desktop/nick/jetpack_5/Jetson_Linux_R35.4.1_aarch64/Linux_for_Tegra/sources/tegra/optee-src/nv-optee/optee/optee_os/lib/libutils/ext/trace.c:245
     a2c:	f2400e7f 	tst	x19, #0xf
     a30:	54000200 	b.eq	a70 <dhex_dump+0x108>  // b.none
/home/ssysarch/Desktop/nick/jetpack_5/Jetson_Linux_R35.4.1_aarch64/Linux_for_Tegra/sources/tegra/optee-src/nv-optee/optee/optee_os/lib/libutils/ext/trace.c:251
     a34:	38736b02 	ldrb	w2, [x24, x19]
     a38:	aa1b03e1 	mov	x1, x27
     a3c:	aa1703e0 	mov	x0, x23
     a40:	97fffebd 	bl	534 <append>
/home/ssysarch/Desktop/nick/jetpack_5/Jetson_Linux_R35.4.1_aarch64/Linux_for_Tegra/sources/tegra/optee-src/nv-optee/optee/optee_os/lib/libutils/ext/trace.c:252
     a44:	35000240 	cbnz	w0, a8c <dhex_dump+0x124>
/home/ssysarch/Desktop/nick/jetpack_5/Jetson_Linux_R35.4.1_aarch64/Linux_for_Tegra/sources/tegra/optee-src/nv-optee/optee/optee_os/lib/libutils/ext/trace.c:273
     a48:	f00000a0 	adrp	x0, 17000 <gcd_pairs+0x40>
     a4c:	91073400 	add	x0, x0, #0x1cd
     a50:	91001400 	add	x0, x0, #0x5
     a54:	f00000a4 	adrp	x4, 17000 <gcd_pairs+0x40>
     a58:	9106f884 	add	x4, x4, #0x1be
     a5c:	52800023 	mov	w3, #0x1                   	// #1
     a60:	52800062 	mov	w2, #0x3                   	// #3
     a64:	52802221 	mov	w1, #0x111                 	// #273
     a68:	97ffff88 	bl	888 <trace_printf>
     a6c:	17ffffe8 	b	a0c <dhex_dump+0xa4>
/home/ssysarch/Desktop/nick/jetpack_5/Jetson_Linux_R35.4.1_aarch64/Linux_for_Tegra/sources/tegra/optee-src/nv-optee/optee/optee_os/lib/libutils/ext/trace.c:246
     a70:	8b130303 	add	x3, x24, x19
     a74:	aa1a03e1 	mov	x1, x26
     a78:	aa1703e0 	mov	x0, x23
     a7c:	52800202 	mov	w2, #0x10                  	// #16
     a80:	97fffead 	bl	534 <append>
/home/ssysarch/Desktop/nick/jetpack_5/Jetson_Linux_R35.4.1_aarch64/Linux_for_Tegra/sources/tegra/optee-src/nv-optee/optee/optee_os/lib/libutils/ext/trace.c:248
     a84:	35fffd80 	cbnz	w0, a34 <dhex_dump+0xcc>
     a88:	17fffff0 	b	a48 <dhex_dump+0xe0>
/home/ssysarch/Desktop/nick/jetpack_5/Jetson_Linux_R35.4.1_aarch64/Linux_for_Tegra/sources/tegra/optee-src/nv-optee/optee/optee_os/lib/libutils/ext/trace.c:254
     a8c:	12000f80 	and	w0, w28, #0xf
     a90:	71001c1f 	cmp	w0, #0x7
     a94:	54000101 	b.ne	ab4 <dhex_dump+0x14c>  // b.any
/home/ssysarch/Desktop/nick/jetpack_5/Jetson_Linux_R35.4.1_aarch64/Linux_for_Tegra/sources/tegra/optee-src/nv-optee/optee/optee_os/lib/libutils/ext/trace.c:255
     a98:	f00000a1 	adrp	x1, 17000 <gcd_pairs+0x40>
     a9c:	9106e421 	add	x1, x1, #0x1b9
     aa0:	aa1703e0 	mov	x0, x23
     aa4:	97fffea4 	bl	534 <append>
/home/ssysarch/Desktop/nick/jetpack_5/Jetson_Linux_R35.4.1_aarch64/Linux_for_Tegra/sources/tegra/optee-src/nv-optee/optee/optee_os/lib/libutils/ext/trace.c:256
     aa8:	34fffd00 	cbz	w0, a48 <dhex_dump+0xe0>
/home/ssysarch/Desktop/nick/jetpack_5/Jetson_Linux_R35.4.1_aarch64/Linux_for_Tegra/sources/tegra/optee-src/nv-optee/optee/optee_os/lib/libutils/ext/trace.c:244 (discriminator 2)
     aac:	91000673 	add	x19, x19, #0x1
     ab0:	17ffffca 	b	9d8 <dhex_dump+0x70>
/home/ssysarch/Desktop/nick/jetpack_5/Jetson_Linux_R35.4.1_aarch64/Linux_for_Tegra/sources/tegra/optee-src/nv-optee/optee/optee_os/lib/libutils/ext/trace.c:258
     ab4:	71003c1f 	cmp	w0, #0xf
     ab8:	54ffffa1 	b.ne	aac <dhex_dump+0x144>  // b.any
/home/ssysarch/Desktop/nick/jetpack_5/Jetson_Linux_R35.4.1_aarch64/Linux_for_Tegra/sources/tegra/optee-src/nv-optee/optee/optee_os/lib/libutils/ext/trace.c:259
     abc:	aa1703e5 	mov	x5, x23
     ac0:	2a1403e2 	mov	w2, w20
     ac4:	2a1603e1 	mov	w1, w22
     ac8:	aa1503e0 	mov	x0, x21
     acc:	f00000a4 	adrp	x4, 17000 <gcd_pairs+0x40>
     ad0:	9106ec84 	add	x4, x4, #0x1bb
     ad4:	52800023 	mov	w3, #0x1                   	// #1
     ad8:	97ffff6c 	bl	888 <trace_printf>
/home/ssysarch/Desktop/nick/jetpack_5/Jetson_Linux_R35.4.1_aarch64/Linux_for_Tegra/sources/tegra/optee-src/nv-optee/optee/optee_os/lib/libutils/ext/trace.c:261
     adc:	f900b3ff 	str	xzr, [sp, #352]
     ae0:	17fffff3 	b	aac <dhex_dump+0x144>
/home/ssysarch/Desktop/nick/jetpack_5/Jetson_Linux_R35.4.1_aarch64/Linux_for_Tegra/sources/tegra/optee-src/nv-optee/optee/optee_os/lib/libutils/ext/trace.c:274
     ae4:	a94153f3 	ldp	x19, x20, [sp, #16]
     ae8:	a9425bf5 	ldp	x21, x22, [sp, #32]
     aec:	a94363f7 	ldp	x23, x24, [sp, #48]
     af0:	a9446bf9 	ldp	x25, x26, [sp, #64]
     af4:	a94573fb 	ldp	x27, x28, [sp, #80]
     af8:	a8d77bfd 	ldp	x29, x30, [sp], #368
     afc:	d65f03c0 	ret

0000000000000b00 <__vsnprintf>:
__vsnprintf():
/home/ssysarch/Desktop/nick/jetpack_5/Jetson_Linux_R35.4.1_aarch64/Linux_for_Tegra/sources/tegra/optee-src/nv-optee/optee/optee_os/lib/libutils/ext/snprintk.c:138
     b00:	a9b97bfd 	stp	x29, x30, [sp, #-112]!
     b04:	b00000c5 	adrp	x5, 19000 <_DYNAMIC>
     b08:	910003fd 	mov	x29, sp
     b0c:	f94098a5 	ldr	x5, [x5, #304]
     b10:	a90153f3 	stp	x19, x20, [sp, #16]
     b14:	aa0003f3 	mov	x19, x0
     b18:	aa0103f4 	mov	x20, x1
     b1c:	f94000a0 	ldr	x0, [x5]
     b20:	f90037e0 	str	x0, [sp, #104]
     b24:	d2800000 	mov	x0, #0x0                   	// #0
     b28:	aa0303e1 	mov	x1, x3
/home/ssysarch/Desktop/nick/jetpack_5/Jetson_Linux_R35.4.1_aarch64/Linux_for_Tegra/sources/tegra/optee-src/nv-optee/optee/optee_os/lib/libutils/ext/snprintk.c:143
     b2c:	910103e0 	add	x0, sp, #0x40
/home/ssysarch/Desktop/nick/jetpack_5/Jetson_Linux_R35.4.1_aarch64/Linux_for_Tegra/sources/tegra/optee-src/nv-optee/optee/optee_os/lib/libutils/ext/snprintk.c:138
     b30:	a9025bf5 	stp	x21, x22, [sp, #32]
     b34:	aa0203f5 	mov	x21, x2
/home/ssysarch/Desktop/nick/jetpack_5/Jetson_Linux_R35.4.1_aarch64/Linux_for_Tegra/sources/tegra/optee-src/nv-optee/optee/optee_os/lib/libutils/ext/snprintk.c:142
     b38:	8b140276 	add	x22, x19, x20
/home/ssysarch/Desktop/nick/jetpack_5/Jetson_Linux_R35.4.1_aarch64/Linux_for_Tegra/sources/tegra/optee-src/nv-optee/optee/optee_os/lib/libutils/ext/snprintk.c:143
     b3c:	d2800402 	mov	x2, #0x20                  	// #32
/home/ssysarch/Desktop/nick/jetpack_5/Jetson_Linux_R35.4.1_aarch64/Linux_for_Tegra/sources/tegra/optee-src/nv-optee/optee/optee_os/lib/libutils/ext/snprintk.c:138
     b40:	f9001bf7 	str	x23, [sp, #48]
     b44:	12001c97 	and	w23, w4, #0xff
/home/ssysarch/Desktop/nick/jetpack_5/Jetson_Linux_R35.4.1_aarch64/Linux_for_Tegra/sources/tegra/optee-src/nv-optee/optee/optee_os/lib/libutils/ext/snprintk.c:142
     b48:	f90033f6 	str	x22, [sp, #96]
/home/ssysarch/Desktop/nick/jetpack_5/Jetson_Linux_R35.4.1_aarch64/Linux_for_Tegra/sources/tegra/optee-src/nv-optee/optee/optee_os/lib/libutils/ext/snprintk.c:143
     b4c:	97fffd35 	bl	20 <memcpy>
     b50:	aa0003e3 	mov	x3, x0
     b54:	2a1703e4 	mov	w4, w23
     b58:	aa1303e2 	mov	x2, x19
     b5c:	910183e1 	add	x1, sp, #0x60
     b60:	aa1503e0 	mov	x0, x21
     b64:	94000060 	bl	ce4 <kprintf.constprop.0>
/home/ssysarch/Desktop/nick/jetpack_5/Jetson_Linux_R35.4.1_aarch64/Linux_for_Tegra/sources/tegra/optee-src/nv-optee/optee/optee_os/lib/libutils/ext/snprintk.c:144
     b68:	f100027f 	cmp	x19, #0x0
     b6c:	fa401a84 	ccmp	x20, #0x0, #0x4, ne  // ne = any
     b70:	540000a0 	b.eq	b84 <__vsnprintf+0x84>  // b.none
/home/ssysarch/Desktop/nick/jetpack_5/Jetson_Linux_R35.4.1_aarch64/Linux_for_Tegra/sources/tegra/optee-src/nv-optee/optee/optee_os/lib/libutils/ext/snprintk.c:146
     b74:	93407c01 	sxtw	x1, w0
     b78:	eb20c29f 	cmp	x20, w0, sxtw
     b7c:	54000148 	b.hi	ba4 <__vsnprintf+0xa4>  // b.pmore
/home/ssysarch/Desktop/nick/jetpack_5/Jetson_Linux_R35.4.1_aarch64/Linux_for_Tegra/sources/tegra/optee-src/nv-optee/optee/optee_os/lib/libutils/ext/snprintk.c:147
     b80:	381ff2df 	sturb	wzr, [x22, #-1]
/home/ssysarch/Desktop/nick/jetpack_5/Jetson_Linux_R35.4.1_aarch64/Linux_for_Tegra/sources/tegra/optee-src/nv-optee/optee/optee_os/lib/libutils/ext/snprintk.c:152
     b84:	b00000c5 	adrp	x5, 19000 <_DYNAMIC>
     b88:	f94098a5 	ldr	x5, [x5, #304]
     b8c:	f94037e1 	ldr	x1, [sp, #104]
     b90:	f94000a2 	ldr	x2, [x5]
     b94:	eb020021 	subs	x1, x1, x2
     b98:	d2800002 	mov	x2, #0x0                   	// #0
     b9c:	54000080 	b.eq	bac <__vsnprintf+0xac>  // b.none
     ba0:	97fffe59 	bl	504 <__stack_chk_fail>
/home/ssysarch/Desktop/nick/jetpack_5/Jetson_Linux_R35.4.1_aarch64/Linux_for_Tegra/sources/tegra/optee-src/nv-optee/optee/optee_os/lib/libutils/ext/snprintk.c:149
     ba4:	38216a7f 	strb	wzr, [x19, x1]
/home/ssysarch/Desktop/nick/jetpack_5/Jetson_Linux_R35.4.1_aarch64/Linux_for_Tegra/sources/tegra/optee-src/nv-optee/optee/optee_os/lib/libutils/ext/snprintk.c:151
     ba8:	17fffff7 	b	b84 <__vsnprintf+0x84>
/home/ssysarch/Desktop/nick/jetpack_5/Jetson_Linux_R35.4.1_aarch64/Linux_for_Tegra/sources/tegra/optee-src/nv-optee/optee/optee_os/lib/libutils/ext/snprintk.c:152
     bac:	a94153f3 	ldp	x19, x20, [sp, #16]
     bb0:	a9425bf5 	ldp	x21, x22, [sp, #32]
     bb4:	f9401bf7 	ldr	x23, [sp, #48]
     bb8:	a8c77bfd 	ldp	x29, x30, [sp], #112
     bbc:	d65f03c0 	ret

0000000000000bc0 <vsnprintk>:
vsnprintk():
/home/ssysarch/Desktop/nick/jetpack_5/Jetson_Linux_R35.4.1_aarch64/Linux_for_Tegra/sources/tegra/optee-src/nv-optee/optee/optee_os/lib/libutils/ext/snprintk.c:130
     bc0:	a9bb7bfd 	stp	x29, x30, [sp, #-80]!
/home/ssysarch/Desktop/nick/jetpack_5/Jetson_Linux_R35.4.1_aarch64/Linux_for_Tegra/sources/tegra/optee-src/nv-optee/optee/optee_os/lib/libutils/ext/snprintk.c:131
     bc4:	9100c3e4 	add	x4, sp, #0x30
/home/ssysarch/Desktop/nick/jetpack_5/Jetson_Linux_R35.4.1_aarch64/Linux_for_Tegra/sources/tegra/optee-src/nv-optee/optee/optee_os/lib/libutils/ext/snprintk.c:130
     bc8:	910003fd 	mov	x29, sp
     bcc:	a90153f3 	stp	x19, x20, [sp, #16]
     bd0:	aa0003f3 	mov	x19, x0
     bd4:	aa0103f4 	mov	x20, x1
/home/ssysarch/Desktop/nick/jetpack_5/Jetson_Linux_R35.4.1_aarch64/Linux_for_Tegra/sources/tegra/optee-src/nv-optee/optee/optee_os/lib/libutils/ext/snprintk.c:131
     bd8:	aa0403e0 	mov	x0, x4
/home/ssysarch/Desktop/nick/jetpack_5/Jetson_Linux_R35.4.1_aarch64/Linux_for_Tegra/sources/tegra/optee-src/nv-optee/optee/optee_os/lib/libutils/ext/snprintk.c:130
     bdc:	aa0303e1 	mov	x1, x3
     be0:	f90013f5 	str	x21, [sp, #32]
     be4:	aa0203f5 	mov	x21, x2
/home/ssysarch/Desktop/nick/jetpack_5/Jetson_Linux_R35.4.1_aarch64/Linux_for_Tegra/sources/tegra/optee-src/nv-optee/optee/optee_os/lib/libutils/ext/snprintk.c:131
     be8:	d2800402 	mov	x2, #0x20                  	// #32
     bec:	97fffd0d 	bl	20 <memcpy>
     bf0:	aa1503e2 	mov	x2, x21
     bf4:	aa0003e3 	mov	x3, x0
     bf8:	aa1403e1 	mov	x1, x20
     bfc:	aa1303e0 	mov	x0, x19
     c00:	52800024 	mov	w4, #0x1                   	// #1
     c04:	97ffffbf 	bl	b00 <__vsnprintf>
/home/ssysarch/Desktop/nick/jetpack_5/Jetson_Linux_R35.4.1_aarch64/Linux_for_Tegra/sources/tegra/optee-src/nv-optee/optee/optee_os/lib/libutils/ext/snprintk.c:132
     c08:	a94153f3 	ldp	x19, x20, [sp, #16]
     c0c:	f94013f5 	ldr	x21, [sp, #32]
     c10:	a8c57bfd 	ldp	x29, x30, [sp], #80
     c14:	d65f03c0 	ret

0000000000000c18 <snprintk>:
snprintk():
/home/ssysarch/Desktop/nick/jetpack_5/Jetson_Linux_R35.4.1_aarch64/Linux_for_Tegra/sources/tegra/optee-src/nv-optee/optee/optee_os/lib/libutils/ext/snprintk.c:113
     c18:	a9ad7bfd 	stp	x29, x30, [sp, #-304]!
     c1c:	910003fd 	mov	x29, sp
     c20:	a90153f3 	stp	x19, x20, [sp, #16]
     c24:	b00000d3 	adrp	x19, 19000 <_DYNAMIC>
     c28:	aa0003f4 	mov	x20, x0
     c2c:	f9409a73 	ldr	x19, [x19, #304]
     c30:	3d8023e0 	str	q0, [sp, #128]
     c34:	3d8027e1 	str	q1, [sp, #144]
     c38:	3d802be2 	str	q2, [sp, #160]
     c3c:	3d802fe3 	str	q3, [sp, #176]
     c40:	3d8033e4 	str	q4, [sp, #192]
     c44:	3d8037e5 	str	q5, [sp, #208]
     c48:	3d803be6 	str	q6, [sp, #224]
     c4c:	3d803fe7 	str	q7, [sp, #240]
     c50:	a91093e3 	stp	x3, x4, [sp, #264]
/home/ssysarch/Desktop/nick/jetpack_5/Jetson_Linux_R35.4.1_aarch64/Linux_for_Tegra/sources/tegra/optee-src/nv-optee/optee/optee_os/lib/libutils/ext/snprintk.c:118
     c54:	9100c3e3 	add	x3, sp, #0x30
/home/ssysarch/Desktop/nick/jetpack_5/Jetson_Linux_R35.4.1_aarch64/Linux_for_Tegra/sources/tegra/optee-src/nv-optee/optee/optee_os/lib/libutils/ext/snprintk.c:113
     c58:	a9119be5 	stp	x5, x6, [sp, #280]
     c5c:	f90097e7 	str	x7, [sp, #296]
     c60:	a9025bf5 	stp	x21, x22, [sp, #32]
     c64:	aa0103f5 	mov	x21, x1
     c68:	f9400260 	ldr	x0, [x19]
     c6c:	f9003fe0 	str	x0, [sp, #120]
     c70:	d2800000 	mov	x0, #0x0                   	// #0
/home/ssysarch/Desktop/nick/jetpack_5/Jetson_Linux_R35.4.1_aarch64/Linux_for_Tegra/sources/tegra/optee-src/nv-optee/optee/optee_os/lib/libutils/ext/snprintk.c:117
     c74:	9104c3e0 	add	x0, sp, #0x130
     c78:	a90583e0 	stp	x0, x0, [sp, #88]
     c7c:	910403e0 	add	x0, sp, #0x100
     c80:	f90037e0 	str	x0, [sp, #104]
     c84:	128004e0 	mov	w0, #0xffffffd8            	// #-40
     c88:	b90073e0 	str	w0, [sp, #112]
     c8c:	12800fe0 	mov	w0, #0xffffff80            	// #-128
/home/ssysarch/Desktop/nick/jetpack_5/Jetson_Linux_R35.4.1_aarch64/Linux_for_Tegra/sources/tegra/optee-src/nv-optee/optee/optee_os/lib/libutils/ext/snprintk.c:113
     c90:	aa0203f6 	mov	x22, x2
/home/ssysarch/Desktop/nick/jetpack_5/Jetson_Linux_R35.4.1_aarch64/Linux_for_Tegra/sources/tegra/optee-src/nv-optee/optee/optee_os/lib/libutils/ext/snprintk.c:118
     c94:	910163e1 	add	x1, sp, #0x58
     c98:	d2800402 	mov	x2, #0x20                  	// #32
/home/ssysarch/Desktop/nick/jetpack_5/Jetson_Linux_R35.4.1_aarch64/Linux_for_Tegra/sources/tegra/optee-src/nv-optee/optee/optee_os/lib/libutils/ext/snprintk.c:117
     c9c:	b90077e0 	str	w0, [sp, #116]
/home/ssysarch/Desktop/nick/jetpack_5/Jetson_Linux_R35.4.1_aarch64/Linux_for_Tegra/sources/tegra/optee-src/nv-optee/optee/optee_os/lib/libutils/ext/snprintk.c:118
     ca0:	aa0303e0 	mov	x0, x3
     ca4:	97fffcdf 	bl	20 <memcpy>
     ca8:	aa1603e2 	mov	x2, x22
     cac:	aa0003e3 	mov	x3, x0
     cb0:	aa1503e1 	mov	x1, x21
     cb4:	aa1403e0 	mov	x0, x20
     cb8:	97ffffc2 	bl	bc0 <vsnprintk>
/home/ssysarch/Desktop/nick/jetpack_5/Jetson_Linux_R35.4.1_aarch64/Linux_for_Tegra/sources/tegra/optee-src/nv-optee/optee/optee_os/lib/libutils/ext/snprintk.c:122
     cbc:	f9403fe1 	ldr	x1, [sp, #120]
     cc0:	f9400262 	ldr	x2, [x19]
     cc4:	eb020021 	subs	x1, x1, x2
     cc8:	d2800002 	mov	x2, #0x0                   	// #0
     ccc:	54000040 	b.eq	cd4 <snprintk+0xbc>  // b.none
     cd0:	97fffe0d 	bl	504 <__stack_chk_fail>
     cd4:	a94153f3 	ldp	x19, x20, [sp, #16]
     cd8:	a9425bf5 	ldp	x21, x22, [sp, #32]
     cdc:	a8d37bfd 	ldp	x29, x30, [sp], #304
     ce0:	d65f03c0 	ret

0000000000000ce4 <kprintf.constprop.0>:
kprintf():
/home/ssysarch/Desktop/nick/jetpack_5/Jetson_Linux_R35.4.1_aarch64/Linux_for_Tegra/sources/tegra/optee-src/nv-optee/optee/optee_os/lib/libutils/ext/snprintk.c:242
     ce4:	d103c3ff 	sub	sp, sp, #0xf0
     ce8:	aa0103e8 	mov	x8, x1
     cec:	a9037bfd 	stp	x29, x30, [sp, #48]
     cf0:	9100c3fd 	add	x29, sp, #0x30
     cf4:	a90873fb 	stp	x27, x28, [sp, #128]
     cf8:	aa0003fb 	mov	x27, x0
     cfc:	12001c80 	and	w0, w4, #0xff
     d00:	b900a3e0 	str	w0, [sp, #160]
     d04:	b00000c0 	adrp	x0, 19000 <_DYNAMIC>
     d08:	a90453f3 	stp	x19, x20, [sp, #64]
     d0c:	b9401874 	ldr	w20, [x3, #24]
     d10:	f9409800 	ldr	x0, [x0, #304]
     d14:	a9055bf5 	stp	x21, x22, [sp, #80]
     d18:	aa0203f6 	mov	x22, x2
     d1c:	f9400001 	ldr	x1, [x0]
     d20:	f90077e1 	str	x1, [sp, #232]
     d24:	d2800001 	mov	x1, #0x0                   	// #0
     d28:	a90663f7 	stp	x23, x24, [sp, #96]
     d2c:	a9076bf9 	stp	x25, x26, [sp, #112]
     d30:	a9406873 	ldp	x19, x26, [x3]
/home/ssysarch/Desktop/nick/jetpack_5/Jetson_Linux_R35.4.1_aarch64/Linux_for_Tegra/sources/tegra/optee-src/nv-optee/optee/optee_os/lib/libutils/ext/snprintk.c:264
     d34:	b40004c8 	cbz	x8, dcc <kprintf.constprop.0+0xe8>
/home/ssysarch/Desktop/nick/jetpack_5/Jetson_Linux_R35.4.1_aarch64/Linux_for_Tegra/sources/tegra/optee-src/nv-optee/optee/optee_os/lib/libutils/ext/snprintk.c:265
     d38:	f9400118 	ldr	x24, [x8]
/home/ssysarch/Desktop/nick/jetpack_5/Jetson_Linux_R35.4.1_aarch64/Linux_for_Tegra/sources/tegra/optee-src/nv-optee/optee/optee_os/lib/libutils/ext/snprintk.c:543
     d3c:	910303ec 	add	x12, sp, #0xc0
     d40:	d00000a0 	adrp	x0, 16000 <__text_end+0x3130>
     d44:	912ef000 	add	x0, x0, #0xbbc
/home/ssysarch/Desktop/nick/jetpack_5/Jetson_Linux_R35.4.1_aarch64/Linux_for_Tegra/sources/tegra/optee-src/nv-optee/optee/optee_os/lib/libutils/ext/snprintk.c:275
     d48:	d2800017 	mov	x23, #0x0                   	// #0
/home/ssysarch/Desktop/nick/jetpack_5/Jetson_Linux_R35.4.1_aarch64/Linux_for_Tegra/sources/tegra/optee-src/nv-optee/optee/optee_os/lib/libutils/ext/snprintk.c:273
     d4c:	52800019 	mov	w25, #0x0                   	// #0
     d50:	f9004be0 	str	x0, [sp, #144]
/home/ssysarch/Desktop/nick/jetpack_5/Jetson_Linux_R35.4.1_aarch64/Linux_for_Tegra/sources/tegra/optee-src/nv-optee/optee/optee_os/lib/libutils/ext/snprintk.c:281
     d54:	39400360 	ldrb	w0, [x27]
     d58:	7100941f 	cmp	w0, #0x25
     d5c:	7a401804 	ccmp	w0, #0x0, #0x4, ne  // ne = any
     d60:	540003a1 	b.ne	dd4 <kprintf.constprop.0+0xf0>  // b.any
/home/ssysarch/Desktop/nick/jetpack_5/Jetson_Linux_R35.4.1_aarch64/Linux_for_Tegra/sources/tegra/optee-src/nv-optee/optee/optee_os/lib/libutils/ext/snprintk.c:285
     d64:	34005260 	cbz	w0, 17b0 <kprintf.constprop.0+0xacc>
/home/ssysarch/Desktop/nick/jetpack_5/Jetson_Linux_R35.4.1_aarch64/Linux_for_Tegra/sources/tegra/optee-src/nv-optee/optee/optee_os/lib/libutils/ext/snprintk.c:293
     d68:	12800005 	mov	w5, #0xffffffff            	// #-1
     d6c:	d00000a6 	adrp	x6, 16000 <__text_end+0x3130>
     d70:	912f60c6 	add	x6, x6, #0xbd8
/home/ssysarch/Desktop/nick/jetpack_5/Jetson_Linux_R35.4.1_aarch64/Linux_for_Tegra/sources/tegra/optee-src/nv-optee/optee/optee_os/lib/libutils/ext/snprintk.c:288
     d74:	9100077b 	add	x27, x27, #0x1
     d78:	2a1403e4 	mov	w4, w20
     d7c:	aa1303e3 	mov	x3, x19
/home/ssysarch/Desktop/nick/jetpack_5/Jetson_Linux_R35.4.1_aarch64/Linux_for_Tegra/sources/tegra/optee-src/nv-optee/optee/optee_os/lib/libutils/ext/snprintk.c:330
     d80:	2a0503ee 	mov	w14, w5
/home/ssysarch/Desktop/nick/jetpack_5/Jetson_Linux_R35.4.1_aarch64/Linux_for_Tegra/sources/tegra/optee-src/nv-optee/optee/optee_os/lib/libutils/ext/snprintk.c:294
     d84:	52800001 	mov	w1, #0x0                   	// #0
/home/ssysarch/Desktop/nick/jetpack_5/Jetson_Linux_R35.4.1_aarch64/Linux_for_Tegra/sources/tegra/optee-src/nv-optee/optee/optee_os/lib/libutils/ext/snprintk.c:292
     d88:	5280000a 	mov	w10, #0x0                   	// #0
/home/ssysarch/Desktop/nick/jetpack_5/Jetson_Linux_R35.4.1_aarch64/Linux_for_Tegra/sources/tegra/optee-src/nv-optee/optee/optee_os/lib/libutils/ext/snprintk.c:290
     d8c:	52800015 	mov	w21, #0x0                   	// #0
/home/ssysarch/Desktop/nick/jetpack_5/Jetson_Linux_R35.4.1_aarch64/Linux_for_Tegra/sources/tegra/optee-src/nv-optee/optee/optee_os/lib/libutils/ext/snprintk.c:352
     d90:	5280014d 	mov	w13, #0xa                   	// #10
/home/ssysarch/Desktop/nick/jetpack_5/Jetson_Linux_R35.4.1_aarch64/Linux_for_Tegra/sources/tegra/optee-src/nv-optee/optee/optee_os/lib/libutils/ext/snprintk.c:305
     d94:	5280040f 	mov	w15, #0x20                  	// #32
/home/ssysarch/Desktop/nick/jetpack_5/Jetson_Linux_R35.4.1_aarch64/Linux_for_Tegra/sources/tegra/optee-src/nv-optee/optee/optee_os/lib/libutils/ext/snprintk.c:296
     d98:	3840177c 	ldrb	w28, [x27], #1
/home/ssysarch/Desktop/nick/jetpack_5/Jetson_Linux_R35.4.1_aarch64/Linux_for_Tegra/sources/tegra/optee-src/nv-optee/optee/optee_os/lib/libutils/ext/snprintk.c:297
     d9c:	7100e79f 	cmp	w28, #0x39
     da0:	5400054c 	b.gt	e48 <kprintf.constprop.0+0x164>
     da4:	71007f9f 	cmp	w28, #0x1f
     da8:	5400502d 	b.le	17ac <kprintf.constprop.0+0xac8>
     dac:	51008380 	sub	w0, w28, #0x20
     db0:	7100641f 	cmp	w0, #0x19
     db4:	54000508 	b.hi	e54 <kprintf.constprop.0+0x170>  // b.pmore
     db8:	f9404be2 	ldr	x2, [sp, #144]
     dbc:	38604840 	ldrb	w0, [x2, w0, uxtw]
     dc0:	10000062 	adr	x2, dcc <kprintf.constprop.0+0xe8>
     dc4:	8b208840 	add	x0, x2, w0, sxtb #2
     dc8:	d61f0000 	br	x0
/home/ssysarch/Desktop/nick/jetpack_5/Jetson_Linux_R35.4.1_aarch64/Linux_for_Tegra/sources/tegra/optee-src/nv-optee/optee/optee_os/lib/libutils/ext/snprintk.c:267
     dcc:	d2800018 	mov	x24, #0x0                   	// #0
     dd0:	17ffffdb 	b	d3c <kprintf.constprop.0+0x58>
/home/ssysarch/Desktop/nick/jetpack_5/Jetson_Linux_R35.4.1_aarch64/Linux_for_Tegra/sources/tegra/optee-src/nv-optee/optee/optee_os/lib/libutils/ext/snprintk.c:282
     dd4:	11000739 	add	w25, w25, #0x1
/home/ssysarch/Desktop/nick/jetpack_5/Jetson_Linux_R35.4.1_aarch64/Linux_for_Tegra/sources/tegra/optee-src/nv-optee/optee/optee_os/lib/libutils/ext/snprintk.c:283
     dd8:	b40000b6 	cbz	x22, dec <kprintf.constprop.0+0x108>
     ddc:	f100011f 	cmp	x8, #0x0
     de0:	fa5812c0 	ccmp	x22, x24, #0x0, ne  // ne = any
     de4:	54000042 	b.cs	dec <kprintf.constprop.0+0x108>  // b.hs, b.nlast
     de8:	380016c0 	strb	w0, [x22], #1
/home/ssysarch/Desktop/nick/jetpack_5/Jetson_Linux_R35.4.1_aarch64/Linux_for_Tegra/sources/tegra/optee-src/nv-optee/optee/optee_os/lib/libutils/ext/snprintk.c:281
     dec:	9100077b 	add	x27, x27, #0x1
     df0:	17ffffd9 	b	d54 <kprintf.constprop.0+0x70>
/home/ssysarch/Desktop/nick/jetpack_5/Jetson_Linux_R35.4.1_aarch64/Linux_for_Tegra/sources/tegra/optee-src/nv-optee/optee/optee_os/lib/libutils/ext/snprintk.c:325
     df4:	52800561 	mov	w1, #0x2b                  	// #43
     df8:	17ffffe8 	b	d98 <kprintf.constprop.0+0xb4>
     dfc:	786058c0 	ldrh	w0, [x6, w0, uxtw #1]
     e00:	10000062 	adr	x2, e0c <kprintf.constprop.0+0x128>
     e04:	8b20a840 	add	x0, x2, w0, sxth #2
     e08:	d61f0000 	br	x0
/home/ssysarch/Desktop/nick/jetpack_5/Jetson_Linux_R35.4.1_aarch64/Linux_for_Tegra/sources/tegra/optee-src/nv-optee/optee/optee_os/lib/libutils/ext/snprintk.c:480
     e0c:	d00000b7 	adrp	x23, 16000 <__text_end+0x3130>
     e10:	91311af7 	add	x23, x23, #0xc46
     e14:	910046f7 	add	x23, x23, #0x11
/home/ssysarch/Desktop/nick/jetpack_5/Jetson_Linux_R35.4.1_aarch64/Linux_for_Tegra/sources/tegra/optee-src/nv-optee/optee/optee_os/lib/libutils/ext/snprintk.c:481
     e18:	36384515 	tbz	w21, #7, 16b8 <kprintf.constprop.0+0x9d4>
     e1c:	37f84644 	tbnz	w4, #31, 16e4 <kprintf.constprop.0+0xa00>
     e20:	91003c73 	add	x19, x3, #0xf
     e24:	2a0403f4 	mov	w20, w4
     e28:	927df273 	and	x19, x19, #0xfffffffffffffff8
     e2c:	f9400062 	ldr	x2, [x3]
/home/ssysarch/Desktop/nick/jetpack_5/Jetson_Linux_R35.4.1_aarch64/Linux_for_Tegra/sources/tegra/optee-src/nv-optee/optee/optee_os/lib/libutils/ext/snprintk.c:484
     e30:	36003475 	tbz	w21, #0, 14bc <kprintf.constprop.0+0x7d8>
     e34:	b4003442 	cbz	x2, 14bc <kprintf.constprop.0+0x7d8>
/home/ssysarch/Desktop/nick/jetpack_5/Jetson_Linux_R35.4.1_aarch64/Linux_for_Tegra/sources/tegra/optee-src/nv-optee/optee/optee_os/lib/libutils/ext/snprintk.c:485
     e38:	321f02b5 	orr	w21, w21, #0x2
/home/ssysarch/Desktop/nick/jetpack_5/Jetson_Linux_R35.4.1_aarch64/Linux_for_Tegra/sources/tegra/optee-src/nv-optee/optee/optee_os/lib/libutils/ext/snprintk.c:482
     e3c:	52800040 	mov	w0, #0x2                   	// #2
/home/ssysarch/Desktop/nick/jetpack_5/Jetson_Linux_R35.4.1_aarch64/Linux_for_Tegra/sources/tegra/optee-src/nv-optee/optee/optee_os/lib/libutils/ext/snprintk.c:488
     e40:	52800001 	mov	w1, #0x0                   	// #0
     e44:	14000078 	b	1024 <kprintf.constprop.0+0x340>
/home/ssysarch/Desktop/nick/jetpack_5/Jetson_Linux_R35.4.1_aarch64/Linux_for_Tegra/sources/tegra/optee-src/nv-optee/optee/optee_os/lib/libutils/ext/snprintk.c:297
     e48:	51011380 	sub	w0, w28, #0x44
     e4c:	7100d81f 	cmp	w0, #0x36
     e50:	54fffd69 	b.ls	dfc <kprintf.constprop.0+0x118>  // b.plast
/home/ssysarch/Desktop/nick/jetpack_5/Jetson_Linux_R35.4.1_aarch64/Linux_for_Tegra/sources/tegra/optee-src/nv-optee/optee/optee_os/lib/libutils/ext/snprintk.c:554
     e54:	2a0403f4 	mov	w20, w4
     e58:	aa0303f3 	mov	x19, x3
/home/ssysarch/Desktop/nick/jetpack_5/Jetson_Linux_R35.4.1_aarch64/Linux_for_Tegra/sources/tegra/optee-src/nv-optee/optee/optee_os/lib/libutils/ext/snprintk.c:551
     e5c:	390303fc 	strb	w28, [sp, #192]
/home/ssysarch/Desktop/nick/jetpack_5/Jetson_Linux_R35.4.1_aarch64/Linux_for_Tegra/sources/tegra/optee-src/nv-optee/optee/optee_os/lib/libutils/ext/snprintk.c:554
     e60:	14000058 	b	fc0 <kprintf.constprop.0+0x2dc>
/home/ssysarch/Desktop/nick/jetpack_5/Jetson_Linux_R35.4.1_aarch64/Linux_for_Tegra/sources/tegra/optee-src/nv-optee/optee/optee_os/lib/libutils/ext/snprintk.c:305
     e64:	7100003f 	cmp	w1, #0x0
     e68:	1a8f1021 	csel	w1, w1, w15, ne  // ne = any
     e6c:	17ffffcb 	b	d98 <kprintf.constprop.0+0xb4>
/home/ssysarch/Desktop/nick/jetpack_5/Jetson_Linux_R35.4.1_aarch64/Linux_for_Tegra/sources/tegra/optee-src/nv-optee/optee/optee_os/lib/libutils/ext/snprintk.c:308
     e70:	320002b5 	orr	w21, w21, #0x1
/home/ssysarch/Desktop/nick/jetpack_5/Jetson_Linux_R35.4.1_aarch64/Linux_for_Tegra/sources/tegra/optee-src/nv-optee/optee/optee_os/lib/libutils/ext/snprintk.c:309
     e74:	17ffffc9 	b	d98 <kprintf.constprop.0+0xb4>
/home/ssysarch/Desktop/nick/jetpack_5/Jetson_Linux_R35.4.1_aarch64/Linux_for_Tegra/sources/tegra/optee-src/nv-optee/optee/optee_os/lib/libutils/ext/snprintk.c:317
     e78:	37f80124 	tbnz	w4, #31, e9c <kprintf.constprop.0+0x1b8>
     e7c:	91002c62 	add	x2, x3, #0xb
     e80:	aa0303e0 	mov	x0, x3
     e84:	927df043 	and	x3, x2, #0xfffffffffffffff8
     e88:	b940000a 	ldr	w10, [x0]
     e8c:	36fff86a 	tbz	w10, #31, d98 <kprintf.constprop.0+0xb4>
/home/ssysarch/Desktop/nick/jetpack_5/Jetson_Linux_R35.4.1_aarch64/Linux_for_Tegra/sources/tegra/optee-src/nv-optee/optee/optee_os/lib/libutils/ext/snprintk.c:319
     e90:	4b0a03ea 	neg	w10, w10
/home/ssysarch/Desktop/nick/jetpack_5/Jetson_Linux_R35.4.1_aarch64/Linux_for_Tegra/sources/tegra/optee-src/nv-optee/optee/optee_os/lib/libutils/ext/snprintk.c:322
     e94:	321e02b5 	orr	w21, w21, #0x4
/home/ssysarch/Desktop/nick/jetpack_5/Jetson_Linux_R35.4.1_aarch64/Linux_for_Tegra/sources/tegra/optee-src/nv-optee/optee/optee_os/lib/libutils/ext/snprintk.c:323
     e98:	17ffffc0 	b	d98 <kprintf.constprop.0+0xb4>
/home/ssysarch/Desktop/nick/jetpack_5/Jetson_Linux_R35.4.1_aarch64/Linux_for_Tegra/sources/tegra/optee-src/nv-optee/optee/optee_os/lib/libutils/ext/snprintk.c:317
     e9c:	11002082 	add	w2, w4, #0x8
     ea0:	7100005f 	cmp	w2, #0x0
     ea4:	540000cd 	b.le	ebc <kprintf.constprop.0+0x1d8>
     ea8:	91002c67 	add	x7, x3, #0xb
     eac:	aa0303e0 	mov	x0, x3
     eb0:	2a0203e4 	mov	w4, w2
     eb4:	927df0e3 	and	x3, x7, #0xfffffffffffffff8
     eb8:	17fffff4 	b	e88 <kprintf.constprop.0+0x1a4>
     ebc:	8b24c340 	add	x0, x26, w4, sxtw
     ec0:	2a0203e4 	mov	w4, w2
     ec4:	17fffff1 	b	e88 <kprintf.constprop.0+0x1a4>
/home/ssysarch/Desktop/nick/jetpack_5/Jetson_Linux_R35.4.1_aarch64/Linux_for_Tegra/sources/tegra/optee-src/nv-optee/optee/optee_os/lib/libutils/ext/snprintk.c:328
     ec8:	3840177c 	ldrb	w28, [x27], #1
     ecc:	7100ab9f 	cmp	w28, #0x2a
     ed0:	54000341 	b.ne	f38 <kprintf.constprop.0+0x254>  // b.any
/home/ssysarch/Desktop/nick/jetpack_5/Jetson_Linux_R35.4.1_aarch64/Linux_for_Tegra/sources/tegra/optee-src/nv-optee/optee/optee_os/lib/libutils/ext/snprintk.c:329
     ed4:	37f80144 	tbnz	w4, #31, efc <kprintf.constprop.0+0x218>
     ed8:	91002c62 	add	x2, x3, #0xb
     edc:	2a0403e7 	mov	w7, w4
     ee0:	927df042 	and	x2, x2, #0xfffffffffffffff8
/home/ssysarch/Desktop/nick/jetpack_5/Jetson_Linux_R35.4.1_aarch64/Linux_for_Tegra/sources/tegra/optee-src/nv-optee/optee/optee_os/lib/libutils/ext/snprintk.c:330
     ee4:	b9400065 	ldr	w5, [x3]
/home/ssysarch/Desktop/nick/jetpack_5/Jetson_Linux_R35.4.1_aarch64/Linux_for_Tegra/sources/tegra/optee-src/nv-optee/optee/optee_os/lib/libutils/ext/snprintk.c:331
     ee8:	2a0703e4 	mov	w4, w7
     eec:	aa0203e3 	mov	x3, x2
/home/ssysarch/Desktop/nick/jetpack_5/Jetson_Linux_R35.4.1_aarch64/Linux_for_Tegra/sources/tegra/optee-src/nv-optee/optee/optee_os/lib/libutils/ext/snprintk.c:330
     ef0:	710000bf 	cmp	w5, #0x0
     ef4:	1a8ea0a5 	csel	w5, w5, w14, ge  // ge = tcont
/home/ssysarch/Desktop/nick/jetpack_5/Jetson_Linux_R35.4.1_aarch64/Linux_for_Tegra/sources/tegra/optee-src/nv-optee/optee/optee_os/lib/libutils/ext/snprintk.c:331
     ef8:	17ffffa8 	b	d98 <kprintf.constprop.0+0xb4>
/home/ssysarch/Desktop/nick/jetpack_5/Jetson_Linux_R35.4.1_aarch64/Linux_for_Tegra/sources/tegra/optee-src/nv-optee/optee/optee_os/lib/libutils/ext/snprintk.c:329
     efc:	11002087 	add	w7, w4, #0x8
     f00:	710000ff 	cmp	w7, #0x0
     f04:	5400008d 	b.le	f14 <kprintf.constprop.0+0x230>
     f08:	91002c62 	add	x2, x3, #0xb
     f0c:	927df042 	and	x2, x2, #0xfffffffffffffff8
     f10:	17fffff5 	b	ee4 <kprintf.constprop.0+0x200>
     f14:	aa0303e2 	mov	x2, x3
     f18:	8b24c343 	add	x3, x26, w4, sxtw
     f1c:	17fffff2 	b	ee4 <kprintf.constprop.0+0x200>
/home/ssysarch/Desktop/nick/jetpack_5/Jetson_Linux_R35.4.1_aarch64/Linux_for_Tegra/sources/tegra/optee-src/nv-optee/optee/optee_os/lib/libutils/ext/snprintk.c:335
     f20:	1b0d00a5 	madd	w5, w5, w13, w0
/home/ssysarch/Desktop/nick/jetpack_5/Jetson_Linux_R35.4.1_aarch64/Linux_for_Tegra/sources/tegra/optee-src/nv-optee/optee/optee_os/lib/libutils/ext/snprintk.c:336
     f24:	3840177c 	ldrb	w28, [x27], #1
/home/ssysarch/Desktop/nick/jetpack_5/Jetson_Linux_R35.4.1_aarch64/Linux_for_Tegra/sources/tegra/optee-src/nv-optee/optee/optee_os/lib/libutils/ext/snprintk.c:334
     f28:	5100c380 	sub	w0, w28, #0x30
     f2c:	7100241f 	cmp	w0, #0x9
     f30:	54ffff89 	b.ls	f20 <kprintf.constprop.0+0x23c>  // b.plast
     f34:	17ffff9a 	b	d9c <kprintf.constprop.0+0xb8>
/home/ssysarch/Desktop/nick/jetpack_5/Jetson_Linux_R35.4.1_aarch64/Linux_for_Tegra/sources/tegra/optee-src/nv-optee/optee/optee_os/lib/libutils/ext/snprintk.c:333
     f38:	52800005 	mov	w5, #0x0                   	// #0
     f3c:	17fffffb 	b	f28 <kprintf.constprop.0+0x244>
/home/ssysarch/Desktop/nick/jetpack_5/Jetson_Linux_R35.4.1_aarch64/Linux_for_Tegra/sources/tegra/optee-src/nv-optee/optee/optee_os/lib/libutils/ext/snprintk.c:346
     f40:	321602b5 	orr	w21, w21, #0x400
/home/ssysarch/Desktop/nick/jetpack_5/Jetson_Linux_R35.4.1_aarch64/Linux_for_Tegra/sources/tegra/optee-src/nv-optee/optee/optee_os/lib/libutils/ext/snprintk.c:347
     f44:	17ffff95 	b	d98 <kprintf.constprop.0+0xb4>
/home/ssysarch/Desktop/nick/jetpack_5/Jetson_Linux_R35.4.1_aarch64/Linux_for_Tegra/sources/tegra/optee-src/nv-optee/optee/optee_os/lib/libutils/ext/snprintk.c:297
     f48:	5280000a 	mov	w10, #0x0                   	// #0
/home/ssysarch/Desktop/nick/jetpack_5/Jetson_Linux_R35.4.1_aarch64/Linux_for_Tegra/sources/tegra/optee-src/nv-optee/optee/optee_os/lib/libutils/ext/snprintk.c:352
     f4c:	5100c39c 	sub	w28, w28, #0x30
     f50:	1b0d714a 	madd	w10, w10, w13, w28
/home/ssysarch/Desktop/nick/jetpack_5/Jetson_Linux_R35.4.1_aarch64/Linux_for_Tegra/sources/tegra/optee-src/nv-optee/optee/optee_os/lib/libutils/ext/snprintk.c:353
     f54:	3840177c 	ldrb	w28, [x27], #1
/home/ssysarch/Desktop/nick/jetpack_5/Jetson_Linux_R35.4.1_aarch64/Linux_for_Tegra/sources/tegra/optee-src/nv-optee/optee/optee_os/lib/libutils/ext/snprintk.c:354
     f58:	5100c380 	sub	w0, w28, #0x30
     f5c:	7100241f 	cmp	w0, #0x9
     f60:	54ffff69 	b.ls	f4c <kprintf.constprop.0+0x268>  // b.plast
     f64:	17ffff8e 	b	d9c <kprintf.constprop.0+0xb8>
/home/ssysarch/Desktop/nick/jetpack_5/Jetson_Linux_R35.4.1_aarch64/Linux_for_Tegra/sources/tegra/optee-src/nv-optee/optee/optee_os/lib/libutils/ext/snprintk.c:358
     f68:	321a02b5 	orr	w21, w21, #0x40
/home/ssysarch/Desktop/nick/jetpack_5/Jetson_Linux_R35.4.1_aarch64/Linux_for_Tegra/sources/tegra/optee-src/nv-optee/optee/optee_os/lib/libutils/ext/snprintk.c:359
     f6c:	17ffff8b 	b	d98 <kprintf.constprop.0+0xb4>
/home/ssysarch/Desktop/nick/jetpack_5/Jetson_Linux_R35.4.1_aarch64/Linux_for_Tegra/sources/tegra/optee-src/nv-optee/optee/optee_os/lib/libutils/ext/snprintk.c:361
     f70:	321902b5 	orr	w21, w21, #0x80
/home/ssysarch/Desktop/nick/jetpack_5/Jetson_Linux_R35.4.1_aarch64/Linux_for_Tegra/sources/tegra/optee-src/nv-optee/optee/optee_os/lib/libutils/ext/snprintk.c:362
     f74:	17ffff89 	b	d98 <kprintf.constprop.0+0xb4>
/home/ssysarch/Desktop/nick/jetpack_5/Jetson_Linux_R35.4.1_aarch64/Linux_for_Tegra/sources/tegra/optee-src/nv-optee/optee/optee_os/lib/libutils/ext/snprintk.c:364
     f78:	39400360 	ldrb	w0, [x27]
     f7c:	7101b01f 	cmp	w0, #0x6c
     f80:	54000081 	b.ne	f90 <kprintf.constprop.0+0x2ac>  // b.any
     f84:	9100077b 	add	x27, x27, #0x1
/home/ssysarch/Desktop/nick/jetpack_5/Jetson_Linux_R35.4.1_aarch64/Linux_for_Tegra/sources/tegra/optee-src/nv-optee/optee/optee_os/lib/libutils/ext/snprintk.c:372
     f88:	321b02b5 	orr	w21, w21, #0x20
/home/ssysarch/Desktop/nick/jetpack_5/Jetson_Linux_R35.4.1_aarch64/Linux_for_Tegra/sources/tegra/optee-src/nv-optee/optee/optee_os/lib/libutils/ext/snprintk.c:373
     f8c:	17ffff83 	b	d98 <kprintf.constprop.0+0xb4>
/home/ssysarch/Desktop/nick/jetpack_5/Jetson_Linux_R35.4.1_aarch64/Linux_for_Tegra/sources/tegra/optee-src/nv-optee/optee/optee_os/lib/libutils/ext/snprintk.c:368
     f90:	321c02b5 	orr	w21, w21, #0x10
     f94:	17ffff81 	b	d98 <kprintf.constprop.0+0xb4>
/home/ssysarch/Desktop/nick/jetpack_5/Jetson_Linux_R35.4.1_aarch64/Linux_for_Tegra/sources/tegra/optee-src/nv-optee/optee/optee_os/lib/libutils/ext/snprintk.c:375
     f98:	321802b5 	orr	w21, w21, #0x100
/home/ssysarch/Desktop/nick/jetpack_5/Jetson_Linux_R35.4.1_aarch64/Linux_for_Tegra/sources/tegra/optee-src/nv-optee/optee/optee_os/lib/libutils/ext/snprintk.c:376
     f9c:	17ffff7f 	b	d98 <kprintf.constprop.0+0xb4>
/home/ssysarch/Desktop/nick/jetpack_5/Jetson_Linux_R35.4.1_aarch64/Linux_for_Tegra/sources/tegra/optee-src/nv-optee/optee/optee_os/lib/libutils/ext/snprintk.c:378
     fa0:	321702b5 	orr	w21, w21, #0x200
/home/ssysarch/Desktop/nick/jetpack_5/Jetson_Linux_R35.4.1_aarch64/Linux_for_Tegra/sources/tegra/optee-src/nv-optee/optee/optee_os/lib/libutils/ext/snprintk.c:379
     fa4:	17ffff7d 	b	d98 <kprintf.constprop.0+0xb4>
/home/ssysarch/Desktop/nick/jetpack_5/Jetson_Linux_R35.4.1_aarch64/Linux_for_Tegra/sources/tegra/optee-src/nv-optee/optee/optee_os/lib/libutils/ext/snprintk.c:381
     fa8:	37f80164 	tbnz	w4, #31, fd4 <kprintf.constprop.0+0x2f0>
     fac:	91002c73 	add	x19, x3, #0xb
     fb0:	2a0403f4 	mov	w20, w4
     fb4:	927df273 	and	x19, x19, #0xfffffffffffffff8
     fb8:	b9400060 	ldr	w0, [x3]
     fbc:	390303e0 	strb	w0, [sp, #192]
/home/ssysarch/Desktop/nick/jetpack_5/Jetson_Linux_R35.4.1_aarch64/Linux_for_Tegra/sources/tegra/optee-src/nv-optee/optee/optee_os/lib/libutils/ext/snprintk.c:550
     fc0:	910303e3 	add	x3, sp, #0xc0
/home/ssysarch/Desktop/nick/jetpack_5/Jetson_Linux_R35.4.1_aarch64/Linux_for_Tegra/sources/tegra/optee-src/nv-optee/optee/optee_os/lib/libutils/ext/snprintk.c:552
     fc4:	52800025 	mov	w5, #0x1                   	// #1
/home/ssysarch/Desktop/nick/jetpack_5/Jetson_Linux_R35.4.1_aarch64/Linux_for_Tegra/sources/tegra/optee-src/nv-optee/optee/optee_os/lib/libutils/ext/snprintk.c:291
     fc8:	52800006 	mov	w6, #0x0                   	// #0
/home/ssysarch/Desktop/nick/jetpack_5/Jetson_Linux_R35.4.1_aarch64/Linux_for_Tegra/sources/tegra/optee-src/nv-optee/optee/optee_os/lib/libutils/ext/snprintk.c:553
     fcc:	52800001 	mov	w1, #0x0                   	// #0
/home/ssysarch/Desktop/nick/jetpack_5/Jetson_Linux_R35.4.1_aarch64/Linux_for_Tegra/sources/tegra/optee-src/nv-optee/optee/optee_os/lib/libutils/ext/snprintk.c:554
     fd0:	140000fa 	b	13b8 <kprintf.constprop.0+0x6d4>
/home/ssysarch/Desktop/nick/jetpack_5/Jetson_Linux_R35.4.1_aarch64/Linux_for_Tegra/sources/tegra/optee-src/nv-optee/optee/optee_os/lib/libutils/ext/snprintk.c:381
     fd4:	11002094 	add	w20, w4, #0x8
     fd8:	7100029f 	cmp	w20, #0x0
     fdc:	5400008d 	b.le	fec <kprintf.constprop.0+0x308>
     fe0:	91002c73 	add	x19, x3, #0xb
     fe4:	927df273 	and	x19, x19, #0xfffffffffffffff8
     fe8:	17fffff4 	b	fb8 <kprintf.constprop.0+0x2d4>
     fec:	aa0303f3 	mov	x19, x3
     ff0:	8b24c343 	add	x3, x26, w4, sxtw
     ff4:	17fffff1 	b	fb8 <kprintf.constprop.0+0x2d4>
/home/ssysarch/Desktop/nick/jetpack_5/Jetson_Linux_R35.4.1_aarch64/Linux_for_Tegra/sources/tegra/optee-src/nv-optee/optee/optee_os/lib/libutils/ext/snprintk.c:386
     ff8:	321c02b5 	orr	w21, w21, #0x10
/home/ssysarch/Desktop/nick/jetpack_5/Jetson_Linux_R35.4.1_aarch64/Linux_for_Tegra/sources/tegra/optee-src/nv-optee/optee/optee_os/lib/libutils/ext/snprintk.c:390
     ffc:	363802f5 	tbz	w21, #7, 1058 <kprintf.constprop.0+0x374>
    1000:	37f80424 	tbnz	w4, #31, 1084 <kprintf.constprop.0+0x3a0>
    1004:	91003c73 	add	x19, x3, #0xf
    1008:	2a0403f4 	mov	w20, w4
    100c:	927df273 	and	x19, x19, #0xfffffffffffffff8
    1010:	f9400062 	ldr	x2, [x3]
/home/ssysarch/Desktop/nick/jetpack_5/Jetson_Linux_R35.4.1_aarch64/Linux_for_Tegra/sources/tegra/optee-src/nv-optee/optee/optee_os/lib/libutils/ext/snprintk.c:391
    1014:	b6f82e02 	tbz	x2, #63, 15d4 <kprintf.constprop.0+0x8f0>
/home/ssysarch/Desktop/nick/jetpack_5/Jetson_Linux_R35.4.1_aarch64/Linux_for_Tegra/sources/tegra/optee-src/nv-optee/optee/optee_os/lib/libutils/ext/snprintk.c:392
    1018:	cb0203e2 	neg	x2, x2
/home/ssysarch/Desktop/nick/jetpack_5/Jetson_Linux_R35.4.1_aarch64/Linux_for_Tegra/sources/tegra/optee-src/nv-optee/optee/optee_os/lib/libutils/ext/snprintk.c:395
    101c:	52800020 	mov	w0, #0x1                   	// #1
/home/ssysarch/Desktop/nick/jetpack_5/Jetson_Linux_R35.4.1_aarch64/Linux_for_Tegra/sources/tegra/optee-src/nv-optee/optee/optee_os/lib/libutils/ext/snprintk.c:393
    1020:	528005a1 	mov	w1, #0x2d                  	// #45
/home/ssysarch/Desktop/nick/jetpack_5/Jetson_Linux_R35.4.1_aarch64/Linux_for_Tegra/sources/tegra/optee-src/nv-optee/optee/optee_os/lib/libutils/ext/snprintk.c:494
    1024:	310004bf 	cmn	w5, #0x1
    1028:	54003a21 	b.ne	176c <kprintf.constprop.0+0xa88>  // b.any
/home/ssysarch/Desktop/nick/jetpack_5/Jetson_Linux_R35.4.1_aarch64/Linux_for_Tegra/sources/tegra/optee-src/nv-optee/optee/optee_os/lib/libutils/ext/snprintk.c:509
    102c:	7100041f 	cmp	w0, #0x1
    1030:	54002d60 	b.eq	15dc <kprintf.constprop.0+0x8f8>  // b.none
    1034:	7100081f 	cmp	w0, #0x2
    1038:	54000ea1 	b.ne	120c <kprintf.constprop.0+0x528>  // b.any
/home/ssysarch/Desktop/nick/jetpack_5/Jetson_Linux_R35.4.1_aarch64/Linux_for_Tegra/sources/tegra/optee-src/nv-optee/optee/optee_os/lib/libutils/ext/snprintk.c:502
    103c:	91009583 	add	x3, x12, #0x25
/home/ssysarch/Desktop/nick/jetpack_5/Jetson_Linux_R35.4.1_aarch64/Linux_for_Tegra/sources/tegra/optee-src/nv-optee/optee/optee_os/lib/libutils/ext/snprintk.c:531
    1040:	92400c40 	and	x0, x2, #0xf
/home/ssysarch/Desktop/nick/jetpack_5/Jetson_Linux_R35.4.1_aarch64/Linux_for_Tegra/sources/tegra/optee-src/nv-optee/optee/optee_os/lib/libutils/ext/snprintk.c:532
    1044:	d344fc42 	lsr	x2, x2, #4
/home/ssysarch/Desktop/nick/jetpack_5/Jetson_Linux_R35.4.1_aarch64/Linux_for_Tegra/sources/tegra/optee-src/nv-optee/optee/optee_os/lib/libutils/ext/snprintk.c:531
    1048:	38606ae0 	ldrb	w0, [x23, x0]
    104c:	381ffc60 	strb	w0, [x3, #-1]!
/home/ssysarch/Desktop/nick/jetpack_5/Jetson_Linux_R35.4.1_aarch64/Linux_for_Tegra/sources/tegra/optee-src/nv-optee/optee/optee_os/lib/libutils/ext/snprintk.c:533
    1050:	b5ffff82 	cbnz	x2, 1040 <kprintf.constprop.0+0x35c>
    1054:	1400007b 	b	1240 <kprintf.constprop.0+0x55c>
/home/ssysarch/Desktop/nick/jetpack_5/Jetson_Linux_R35.4.1_aarch64/Linux_for_Tegra/sources/tegra/optee-src/nv-optee/optee/optee_os/lib/libutils/ext/snprintk.c:390
    1058:	3747fd55 	tbnz	w21, #8, 1000 <kprintf.constprop.0+0x31c>
    105c:	374ffd35 	tbnz	w21, #9, 1000 <kprintf.constprop.0+0x31c>
    1060:	372ffd15 	tbnz	w21, #5, 1000 <kprintf.constprop.0+0x31c>
    1064:	3727fcf5 	tbnz	w21, #4, 1000 <kprintf.constprop.0+0x31c>
    1068:	36300335 	tbz	w21, #6, 10cc <kprintf.constprop.0+0x3e8>
    106c:	37f801e4 	tbnz	w4, #31, 10a8 <kprintf.constprop.0+0x3c4>
    1070:	91002c73 	add	x19, x3, #0xb
    1074:	2a0403f4 	mov	w20, w4
    1078:	927df273 	and	x19, x19, #0xfffffffffffffff8
    107c:	79800062 	ldrsh	x2, [x3]
    1080:	17ffffe5 	b	1014 <kprintf.constprop.0+0x330>
    1084:	11002094 	add	w20, w4, #0x8
    1088:	7100029f 	cmp	w20, #0x0
    108c:	5400008d 	b.le	109c <kprintf.constprop.0+0x3b8>
    1090:	91003c73 	add	x19, x3, #0xf
    1094:	927df273 	and	x19, x19, #0xfffffffffffffff8
    1098:	17ffffde 	b	1010 <kprintf.constprop.0+0x32c>
    109c:	aa0303f3 	mov	x19, x3
    10a0:	8b24c343 	add	x3, x26, w4, sxtw
    10a4:	17ffffdb 	b	1010 <kprintf.constprop.0+0x32c>
    10a8:	11002094 	add	w20, w4, #0x8
    10ac:	7100029f 	cmp	w20, #0x0
    10b0:	5400008d 	b.le	10c0 <kprintf.constprop.0+0x3dc>
    10b4:	91002c73 	add	x19, x3, #0xb
    10b8:	927df273 	and	x19, x19, #0xfffffffffffffff8
    10bc:	17fffff0 	b	107c <kprintf.constprop.0+0x398>
    10c0:	aa0303f3 	mov	x19, x3
    10c4:	8b24c343 	add	x3, x26, w4, sxtw
    10c8:	17ffffed 	b	107c <kprintf.constprop.0+0x398>
    10cc:	37f800c4 	tbnz	w4, #31, 10e4 <kprintf.constprop.0+0x400>
    10d0:	91002c73 	add	x19, x3, #0xb
    10d4:	2a0403f4 	mov	w20, w4
    10d8:	927df273 	and	x19, x19, #0xfffffffffffffff8
    10dc:	b9800062 	ldrsw	x2, [x3]
    10e0:	17ffffcd 	b	1014 <kprintf.constprop.0+0x330>
    10e4:	11002094 	add	w20, w4, #0x8
    10e8:	7100029f 	cmp	w20, #0x0
    10ec:	5400008d 	b.le	10fc <kprintf.constprop.0+0x418>
    10f0:	91002c73 	add	x19, x3, #0xb
    10f4:	927df273 	and	x19, x19, #0xfffffffffffffff8
    10f8:	17fffff9 	b	10dc <kprintf.constprop.0+0x3f8>
    10fc:	aa0303f3 	mov	x19, x3
    1100:	8b24c343 	add	x3, x26, w4, sxtw
    1104:	17fffff6 	b	10dc <kprintf.constprop.0+0x3f8>
/home/ssysarch/Desktop/nick/jetpack_5/Jetson_Linux_R35.4.1_aarch64/Linux_for_Tegra/sources/tegra/optee-src/nv-optee/optee/optee_os/lib/libutils/ext/snprintk.c:398
    1108:	36380135 	tbz	w21, #7, 112c <kprintf.constprop.0+0x448>
/home/ssysarch/Desktop/nick/jetpack_5/Jetson_Linux_R35.4.1_aarch64/Linux_for_Tegra/sources/tegra/optee-src/nv-optee/optee/optee_os/lib/libutils/ext/snprintk.c:407
    110c:	37f80284 	tbnz	w4, #31, 115c <kprintf.constprop.0+0x478>
    1110:	91003c73 	add	x19, x3, #0xf
    1114:	2a0403f4 	mov	w20, w4
    1118:	927df273 	and	x19, x19, #0xfffffffffffffff8
    111c:	f9400060 	ldr	x0, [x3]
    1120:	93407f21 	sxtw	x1, w25
    1124:	f9000001 	str	x1, [x0]
    1128:	17ffff0b 	b	d54 <kprintf.constprop.0+0x70>
/home/ssysarch/Desktop/nick/jetpack_5/Jetson_Linux_R35.4.1_aarch64/Linux_for_Tegra/sources/tegra/optee-src/nv-optee/optee/optee_os/lib/libutils/ext/snprintk.c:400
    112c:	3747ff15 	tbnz	w21, #8, 110c <kprintf.constprop.0+0x428>
/home/ssysarch/Desktop/nick/jetpack_5/Jetson_Linux_R35.4.1_aarch64/Linux_for_Tegra/sources/tegra/optee-src/nv-optee/optee/optee_os/lib/libutils/ext/snprintk.c:402
    1130:	374ffef5 	tbnz	w21, #9, 110c <kprintf.constprop.0+0x428>
/home/ssysarch/Desktop/nick/jetpack_5/Jetson_Linux_R35.4.1_aarch64/Linux_for_Tegra/sources/tegra/optee-src/nv-optee/optee/optee_os/lib/libutils/ext/snprintk.c:404
    1134:	372ffed5 	tbnz	w21, #5, 110c <kprintf.constprop.0+0x428>
/home/ssysarch/Desktop/nick/jetpack_5/Jetson_Linux_R35.4.1_aarch64/Linux_for_Tegra/sources/tegra/optee-src/nv-optee/optee/optee_os/lib/libutils/ext/snprintk.c:406
    1138:	3727feb5 	tbnz	w21, #4, 110c <kprintf.constprop.0+0x428>
/home/ssysarch/Desktop/nick/jetpack_5/Jetson_Linux_R35.4.1_aarch64/Linux_for_Tegra/sources/tegra/optee-src/nv-optee/optee/optee_os/lib/libutils/ext/snprintk.c:408
    113c:	36300355 	tbz	w21, #6, 11a4 <kprintf.constprop.0+0x4c0>
/home/ssysarch/Desktop/nick/jetpack_5/Jetson_Linux_R35.4.1_aarch64/Linux_for_Tegra/sources/tegra/optee-src/nv-optee/optee/optee_os/lib/libutils/ext/snprintk.c:409
    1140:	37f80204 	tbnz	w4, #31, 1180 <kprintf.constprop.0+0x49c>
    1144:	91003c73 	add	x19, x3, #0xf
    1148:	2a0403f4 	mov	w20, w4
    114c:	927df273 	and	x19, x19, #0xfffffffffffffff8
    1150:	f9400060 	ldr	x0, [x3]
    1154:	79000019 	strh	w25, [x0]
    1158:	17fffeff 	b	d54 <kprintf.constprop.0+0x70>
/home/ssysarch/Desktop/nick/jetpack_5/Jetson_Linux_R35.4.1_aarch64/Linux_for_Tegra/sources/tegra/optee-src/nv-optee/optee/optee_os/lib/libutils/ext/snprintk.c:407
    115c:	11002094 	add	w20, w4, #0x8
    1160:	7100029f 	cmp	w20, #0x0
    1164:	5400008d 	b.le	1174 <kprintf.constprop.0+0x490>
    1168:	91003c73 	add	x19, x3, #0xf
    116c:	927df273 	and	x19, x19, #0xfffffffffffffff8
    1170:	17ffffeb 	b	111c <kprintf.constprop.0+0x438>
    1174:	aa0303f3 	mov	x19, x3
    1178:	8b24c343 	add	x3, x26, w4, sxtw
    117c:	17ffffe8 	b	111c <kprintf.constprop.0+0x438>
/home/ssysarch/Desktop/nick/jetpack_5/Jetson_Linux_R35.4.1_aarch64/Linux_for_Tegra/sources/tegra/optee-src/nv-optee/optee/optee_os/lib/libutils/ext/snprintk.c:409
    1180:	11002094 	add	w20, w4, #0x8
    1184:	7100029f 	cmp	w20, #0x0
    1188:	5400008d 	b.le	1198 <kprintf.constprop.0+0x4b4>
    118c:	91003c73 	add	x19, x3, #0xf
    1190:	927df273 	and	x19, x19, #0xfffffffffffffff8
    1194:	17ffffef 	b	1150 <kprintf.constprop.0+0x46c>
    1198:	aa0303f3 	mov	x19, x3
    119c:	8b24c343 	add	x3, x26, w4, sxtw
    11a0:	17ffffec 	b	1150 <kprintf.constprop.0+0x46c>
/home/ssysarch/Desktop/nick/jetpack_5/Jetson_Linux_R35.4.1_aarch64/Linux_for_Tegra/sources/tegra/optee-src/nv-optee/optee/optee_os/lib/libutils/ext/snprintk.c:411
    11a4:	37f800e4 	tbnz	w4, #31, 11c0 <kprintf.constprop.0+0x4dc>
    11a8:	91003c73 	add	x19, x3, #0xf
    11ac:	2a0403f4 	mov	w20, w4
    11b0:	927df273 	and	x19, x19, #0xfffffffffffffff8
    11b4:	f9400060 	ldr	x0, [x3]
    11b8:	b9000019 	str	w25, [x0]
    11bc:	17fffee6 	b	d54 <kprintf.constprop.0+0x70>
    11c0:	11002094 	add	w20, w4, #0x8
    11c4:	7100029f 	cmp	w20, #0x0
    11c8:	5400008d 	b.le	11d8 <kprintf.constprop.0+0x4f4>
    11cc:	91003c73 	add	x19, x3, #0xf
    11d0:	927df273 	and	x19, x19, #0xfffffffffffffff8
    11d4:	17fffff8 	b	11b4 <kprintf.constprop.0+0x4d0>
    11d8:	aa0303f3 	mov	x19, x3
    11dc:	8b24c343 	add	x3, x26, w4, sxtw
    11e0:	17fffff5 	b	11b4 <kprintf.constprop.0+0x4d0>
/home/ssysarch/Desktop/nick/jetpack_5/Jetson_Linux_R35.4.1_aarch64/Linux_for_Tegra/sources/tegra/optee-src/nv-optee/optee/optee_os/lib/libutils/ext/snprintk.c:414
    11e4:	321c02b5 	orr	w21, w21, #0x10
/home/ssysarch/Desktop/nick/jetpack_5/Jetson_Linux_R35.4.1_aarch64/Linux_for_Tegra/sources/tegra/optee-src/nv-optee/optee/optee_os/lib/libutils/ext/snprintk.c:417
    11e8:	36380355 	tbz	w21, #7, 1250 <kprintf.constprop.0+0x56c>
    11ec:	37f80484 	tbnz	w4, #31, 127c <kprintf.constprop.0+0x598>
    11f0:	91003c73 	add	x19, x3, #0xf
    11f4:	2a0403f4 	mov	w20, w4
    11f8:	927df273 	and	x19, x19, #0xfffffffffffffff8
    11fc:	f9400062 	ldr	x2, [x3]
/home/ssysarch/Desktop/nick/jetpack_5/Jetson_Linux_R35.4.1_aarch64/Linux_for_Tegra/sources/tegra/optee-src/nv-optee/optee/optee_os/lib/libutils/ext/snprintk.c:494
    1200:	310004bf 	cmn	w5, #0x1
    1204:	52800001 	mov	w1, #0x0                   	// #0
    1208:	54002b01 	b.ne	1768 <kprintf.constprop.0+0xa84>  // b.any
/home/ssysarch/Desktop/nick/jetpack_5/Jetson_Linux_R35.4.1_aarch64/Linux_for_Tegra/sources/tegra/optee-src/nv-optee/optee/optee_os/lib/libutils/ext/snprintk.c:502
    120c:	91009583 	add	x3, x12, #0x25
/home/ssysarch/Desktop/nick/jetpack_5/Jetson_Linux_R35.4.1_aarch64/Linux_for_Tegra/sources/tegra/optee-src/nv-optee/optee/optee_os/lib/libutils/ext/snprintk.c:512
    1210:	12000840 	and	w0, w2, #0x7
    1214:	aa0303e4 	mov	x4, x3
    1218:	1100c000 	add	w0, w0, #0x30
    121c:	381ffc60 	strb	w0, [x3, #-1]!
/home/ssysarch/Desktop/nick/jetpack_5/Jetson_Linux_R35.4.1_aarch64/Linux_for_Tegra/sources/tegra/optee-src/nv-optee/optee/optee_os/lib/libutils/ext/snprintk.c:513
    1220:	d343fc42 	lsr	x2, x2, #3
/home/ssysarch/Desktop/nick/jetpack_5/Jetson_Linux_R35.4.1_aarch64/Linux_for_Tegra/sources/tegra/optee-src/nv-optee/optee/optee_os/lib/libutils/ext/snprintk.c:514
    1224:	b5ffff62 	cbnz	x2, 1210 <kprintf.constprop.0+0x52c>
/home/ssysarch/Desktop/nick/jetpack_5/Jetson_Linux_R35.4.1_aarch64/Linux_for_Tegra/sources/tegra/optee-src/nv-optee/optee/optee_os/lib/libutils/ext/snprintk.c:516
    1228:	360000d5 	tbz	w21, #0, 1240 <kprintf.constprop.0+0x55c>
    122c:	7100c01f 	cmp	w0, #0x30
    1230:	54000080 	b.eq	1240 <kprintf.constprop.0+0x55c>  // b.none
/home/ssysarch/Desktop/nick/jetpack_5/Jetson_Linux_R35.4.1_aarch64/Linux_for_Tegra/sources/tegra/optee-src/nv-optee/optee/optee_os/lib/libutils/ext/snprintk.c:517
    1234:	52800600 	mov	w0, #0x30                  	// #48
    1238:	381ff060 	sturb	w0, [x3, #-1]
    123c:	d1000883 	sub	x3, x4, #0x2
/home/ssysarch/Desktop/nick/jetpack_5/Jetson_Linux_R35.4.1_aarch64/Linux_for_Tegra/sources/tegra/optee-src/nv-optee/optee/optee_os/lib/libutils/ext/snprintk.c:543
    1240:	91009580 	add	x0, x12, #0x25
    1244:	2a0503e6 	mov	w6, w5
    1248:	4b030005 	sub	w5, w0, w3
    124c:	1400005b 	b	13b8 <kprintf.constprop.0+0x6d4>
/home/ssysarch/Desktop/nick/jetpack_5/Jetson_Linux_R35.4.1_aarch64/Linux_for_Tegra/sources/tegra/optee-src/nv-optee/optee/optee_os/lib/libutils/ext/snprintk.c:417
    1250:	3747fcf5 	tbnz	w21, #8, 11ec <kprintf.constprop.0+0x508>
    1254:	374ffcd5 	tbnz	w21, #9, 11ec <kprintf.constprop.0+0x508>
    1258:	372ffcb5 	tbnz	w21, #5, 11ec <kprintf.constprop.0+0x508>
    125c:	3727fc95 	tbnz	w21, #4, 11ec <kprintf.constprop.0+0x508>
    1260:	36300335 	tbz	w21, #6, 12c4 <kprintf.constprop.0+0x5e0>
    1264:	37f801e4 	tbnz	w4, #31, 12a0 <kprintf.constprop.0+0x5bc>
    1268:	91002c73 	add	x19, x3, #0xb
    126c:	2a0403f4 	mov	w20, w4
    1270:	927df273 	and	x19, x19, #0xfffffffffffffff8
    1274:	79400062 	ldrh	w2, [x3]
    1278:	17ffffe2 	b	1200 <kprintf.constprop.0+0x51c>
    127c:	11002094 	add	w20, w4, #0x8
    1280:	7100029f 	cmp	w20, #0x0
    1284:	5400008d 	b.le	1294 <kprintf.constprop.0+0x5b0>
    1288:	91003c73 	add	x19, x3, #0xf
    128c:	927df273 	and	x19, x19, #0xfffffffffffffff8
    1290:	17ffffdb 	b	11fc <kprintf.constprop.0+0x518>
    1294:	aa0303f3 	mov	x19, x3
    1298:	8b24c343 	add	x3, x26, w4, sxtw
    129c:	17ffffd8 	b	11fc <kprintf.constprop.0+0x518>
    12a0:	11002094 	add	w20, w4, #0x8
    12a4:	7100029f 	cmp	w20, #0x0
    12a8:	5400008d 	b.le	12b8 <kprintf.constprop.0+0x5d4>
    12ac:	91002c73 	add	x19, x3, #0xb
    12b0:	927df273 	and	x19, x19, #0xfffffffffffffff8
    12b4:	17fffff0 	b	1274 <kprintf.constprop.0+0x590>
    12b8:	aa0303f3 	mov	x19, x3
    12bc:	8b24c343 	add	x3, x26, w4, sxtw
    12c0:	17ffffed 	b	1274 <kprintf.constprop.0+0x590>
    12c4:	37f800c4 	tbnz	w4, #31, 12dc <kprintf.constprop.0+0x5f8>
    12c8:	91002c73 	add	x19, x3, #0xb
    12cc:	2a0403f4 	mov	w20, w4
    12d0:	927df273 	and	x19, x19, #0xfffffffffffffff8
    12d4:	b9400062 	ldr	w2, [x3]
    12d8:	17ffffca 	b	1200 <kprintf.constprop.0+0x51c>
    12dc:	11002094 	add	w20, w4, #0x8
    12e0:	7100029f 	cmp	w20, #0x0
    12e4:	5400008d 	b.le	12f4 <kprintf.constprop.0+0x610>
    12e8:	91002c73 	add	x19, x3, #0xb
    12ec:	927df273 	and	x19, x19, #0xfffffffffffffff8
    12f0:	17fffff9 	b	12d4 <kprintf.constprop.0+0x5f0>
    12f4:	aa0303f3 	mov	x19, x3
    12f8:	8b24c343 	add	x3, x26, w4, sxtw
    12fc:	17fffff6 	b	12d4 <kprintf.constprop.0+0x5f0>
/home/ssysarch/Desktop/nick/jetpack_5/Jetson_Linux_R35.4.1_aarch64/Linux_for_Tegra/sources/tegra/optee-src/nv-optee/optee/optee_os/lib/libutils/ext/snprintk.c:421
    1300:	b940a3e0 	ldr	w0, [sp, #160]
    1304:	34000c80 	cbz	w0, 1494 <kprintf.constprop.0+0x7b0>
    1308:	39400360 	ldrb	w0, [x27]
    130c:	7101541f 	cmp	w0, #0x55
    1310:	54000c21 	b.ne	1494 <kprintf.constprop.0+0x7b0>  // b.any
    1314:	39400760 	ldrb	w0, [x27, #1]
    1318:	7101b01f 	cmp	w0, #0x6c
    131c:	54000bc1 	b.ne	1494 <kprintf.constprop.0+0x7b0>  // b.any
/home/ssysarch/Desktop/nick/jetpack_5/Jetson_Linux_R35.4.1_aarch64/Linux_for_Tegra/sources/tegra/optee-src/nv-optee/optee/optee_os/lib/libutils/ext/snprintk.c:426
    1320:	91000b7b 	add	x27, x27, #0x2
/home/ssysarch/Desktop/nick/jetpack_5/Jetson_Linux_R35.4.1_aarch64/Linux_for_Tegra/sources/tegra/optee-src/nv-optee/optee/optee_os/lib/libutils/ext/snprintk.c:427
    1324:	37f80a64 	tbnz	w4, #31, 1470 <kprintf.constprop.0+0x78c>
    1328:	91003c73 	add	x19, x3, #0xf
    132c:	2a0403f4 	mov	w20, w4
    1330:	927df273 	and	x19, x19, #0xfffffffffffffff8
    1334:	f9400060 	ldr	x0, [x3]
uuid2str():
/home/ssysarch/Desktop/nick/jetpack_5/Jetson_Linux_R35.4.1_aarch64/Linux_for_Tegra/sources/tegra/optee-src/nv-optee/optee/optee_os/lib/libutils/ext/snprintk.c:229
    1338:	d00000a2 	adrp	x2, 17000 <gcd_pairs+0x40>
    133c:	91078c42 	add	x2, x2, #0x1e3
    1340:	f9004fec 	str	x12, [sp, #152]
    1344:	b900a7ea 	str	w10, [sp, #164]
    1348:	39403c01 	ldrb	w1, [x0, #15]
    134c:	39402006 	ldrb	w6, [x0, #8]
    1350:	79400c05 	ldrh	w5, [x0, #6]
    1354:	39402407 	ldrb	w7, [x0, #9]
    1358:	79400804 	ldrh	w4, [x0, #4]
    135c:	b9002be1 	str	w1, [sp, #40]
    1360:	f90057e8 	str	x8, [sp, #168]
    1364:	39403801 	ldrb	w1, [x0, #14]
    1368:	b90023e1 	str	w1, [sp, #32]
    136c:	39403401 	ldrb	w1, [x0, #13]
    1370:	b9001be1 	str	w1, [sp, #24]
    1374:	39403001 	ldrb	w1, [x0, #12]
    1378:	b90013e1 	str	w1, [sp, #16]
    137c:	39402c01 	ldrb	w1, [x0, #11]
    1380:	b9000be1 	str	w1, [sp, #8]
    1384:	39402801 	ldrb	w1, [x0, #10]
    1388:	b90003e1 	str	w1, [sp]
    138c:	d28004a1 	mov	x1, #0x25                  	// #37
    1390:	b9400003 	ldr	w3, [x0]
    1394:	aa0c03e0 	mov	x0, x12
    1398:	97fffe20 	bl	c18 <snprintk>
    139c:	2a0003e5 	mov	w5, w0
kprintf():
/home/ssysarch/Desktop/nick/jetpack_5/Jetson_Linux_R35.4.1_aarch64/Linux_for_Tegra/sources/tegra/optee-src/nv-optee/optee/optee_os/lib/libutils/ext/snprintk.c:429
    13a0:	f9404fec 	ldr	x12, [sp, #152]
/home/ssysarch/Desktop/nick/jetpack_5/Jetson_Linux_R35.4.1_aarch64/Linux_for_Tegra/sources/tegra/optee-src/nv-optee/optee/optee_os/lib/libutils/ext/snprintk.c:291
    13a4:	52800006 	mov	w6, #0x0                   	// #0
/home/ssysarch/Desktop/nick/jetpack_5/Jetson_Linux_R35.4.1_aarch64/Linux_for_Tegra/sources/tegra/optee-src/nv-optee/optee/optee_os/lib/libutils/ext/snprintk.c:431
    13a8:	b940a7ea 	ldr	w10, [sp, #164]
/home/ssysarch/Desktop/nick/jetpack_5/Jetson_Linux_R35.4.1_aarch64/Linux_for_Tegra/sources/tegra/optee-src/nv-optee/optee/optee_os/lib/libutils/ext/snprintk.c:430
    13ac:	52800001 	mov	w1, #0x0                   	// #0
/home/ssysarch/Desktop/nick/jetpack_5/Jetson_Linux_R35.4.1_aarch64/Linux_for_Tegra/sources/tegra/optee-src/nv-optee/optee/optee_os/lib/libutils/ext/snprintk.c:431
    13b0:	f94057e8 	ldr	x8, [sp, #168]
/home/ssysarch/Desktop/nick/jetpack_5/Jetson_Linux_R35.4.1_aarch64/Linux_for_Tegra/sources/tegra/optee-src/nv-optee/optee/optee_os/lib/libutils/ext/snprintk.c:429
    13b4:	aa0c03e3 	mov	x3, x12
/home/ssysarch/Desktop/nick/jetpack_5/Jetson_Linux_R35.4.1_aarch64/Linux_for_Tegra/sources/tegra/optee-src/nv-optee/optee/optee_os/lib/libutils/ext/snprintk.c:571
    13b8:	6b0500df 	cmp	w6, w5
    13bc:	1a85a0c4 	csel	w4, w6, w5, ge  // ge = tcont
/home/ssysarch/Desktop/nick/jetpack_5/Jetson_Linux_R35.4.1_aarch64/Linux_for_Tegra/sources/tegra/optee-src/nv-optee/optee/optee_os/lib/libutils/ext/snprintk.c:572
    13c0:	340020c1 	cbz	w1, 17d8 <kprintf.constprop.0+0xaf4>
/home/ssysarch/Desktop/nick/jetpack_5/Jetson_Linux_R35.4.1_aarch64/Linux_for_Tegra/sources/tegra/optee-src/nv-optee/optee/optee_os/lib/libutils/ext/snprintk.c:573
    13c4:	11000484 	add	w4, w4, #0x1
/home/ssysarch/Desktop/nick/jetpack_5/Jetson_Linux_R35.4.1_aarch64/Linux_for_Tegra/sources/tegra/optee-src/nv-optee/optee/optee_os/lib/libutils/ext/snprintk.c:578
    13c8:	6b0a009f 	cmp	w4, w10
    13cc:	1a8aa080 	csel	w0, w4, w10, ge  // ge = tcont
    13d0:	0b000339 	add	w25, w25, w0
/home/ssysarch/Desktop/nick/jetpack_5/Jetson_Linux_R35.4.1_aarch64/Linux_for_Tegra/sources/tegra/optee-src/nv-optee/optee/optee_os/lib/libutils/ext/snprintk.c:581
    13d4:	52808080 	mov	w0, #0x404                 	// #1028
    13d8:	6a0002a0 	ands	w0, w21, w0
    13dc:	540000a1 	b.ne	13f0 <kprintf.constprop.0+0x70c>  // b.any
/home/ssysarch/Desktop/nick/jetpack_5/Jetson_Linux_R35.4.1_aarch64/Linux_for_Tegra/sources/tegra/optee-src/nv-optee/optee/optee_os/lib/libutils/ext/snprintk.c:582
    13e0:	4b040147 	sub	w7, w10, w4
/home/ssysarch/Desktop/nick/jetpack_5/Jetson_Linux_R35.4.1_aarch64/Linux_for_Tegra/sources/tegra/optee-src/nv-optee/optee/optee_os/lib/libutils/ext/snprintk.c:584
    13e4:	52800402 	mov	w2, #0x20                  	// #32
/home/ssysarch/Desktop/nick/jetpack_5/Jetson_Linux_R35.4.1_aarch64/Linux_for_Tegra/sources/tegra/optee-src/nv-optee/optee/optee_os/lib/libutils/ext/snprintk.c:583
    13e8:	710000ff 	cmp	w7, #0x0
    13ec:	54001fcc 	b.gt	17e4 <kprintf.constprop.0+0xb00>
/home/ssysarch/Desktop/nick/jetpack_5/Jetson_Linux_R35.4.1_aarch64/Linux_for_Tegra/sources/tegra/optee-src/nv-optee/optee/optee_os/lib/libutils/ext/snprintk.c:588
    13f0:	34002081 	cbz	w1, 1800 <kprintf.constprop.0+0xb1c>
/home/ssysarch/Desktop/nick/jetpack_5/Jetson_Linux_R35.4.1_aarch64/Linux_for_Tegra/sources/tegra/optee-src/nv-optee/optee/optee_os/lib/libutils/ext/snprintk.c:589
    13f4:	b40000b6 	cbz	x22, 1408 <kprintf.constprop.0+0x724>
    13f8:	f100011f 	cmp	x8, #0x0
    13fc:	fa561302 	ccmp	x24, x22, #0x2, ne  // ne = any
    1400:	54000049 	b.ls	1408 <kprintf.constprop.0+0x724>  // b.plast
    1404:	380016c1 	strb	w1, [x22], #1
/home/ssysarch/Desktop/nick/jetpack_5/Jetson_Linux_R35.4.1_aarch64/Linux_for_Tegra/sources/tegra/optee-src/nv-optee/optee/optee_os/lib/libutils/ext/snprintk.c:596
    1408:	7110001f 	cmp	w0, #0x400
    140c:	540000a1 	b.ne	1420 <kprintf.constprop.0+0x73c>  // b.any
/home/ssysarch/Desktop/nick/jetpack_5/Jetson_Linux_R35.4.1_aarch64/Linux_for_Tegra/sources/tegra/optee-src/nv-optee/optee/optee_os/lib/libutils/ext/snprintk.c:597
    1410:	4b040140 	sub	w0, w10, w4
/home/ssysarch/Desktop/nick/jetpack_5/Jetson_Linux_R35.4.1_aarch64/Linux_for_Tegra/sources/tegra/optee-src/nv-optee/optee/optee_os/lib/libutils/ext/snprintk.c:599
    1414:	52800601 	mov	w1, #0x30                  	// #48
/home/ssysarch/Desktop/nick/jetpack_5/Jetson_Linux_R35.4.1_aarch64/Linux_for_Tegra/sources/tegra/optee-src/nv-optee/optee/optee_os/lib/libutils/ext/snprintk.c:598
    1418:	7100001f 	cmp	w0, #0x0
    141c:	5400216c 	b.gt	1848 <kprintf.constprop.0+0xb64>
/home/ssysarch/Desktop/nick/jetpack_5/Jetson_Linux_R35.4.1_aarch64/Linux_for_Tegra/sources/tegra/optee-src/nv-optee/optee/optee_os/lib/libutils/ext/snprintk.c:603
    1420:	4b0500c6 	sub	w6, w6, w5
/home/ssysarch/Desktop/nick/jetpack_5/Jetson_Linux_R35.4.1_aarch64/Linux_for_Tegra/sources/tegra/optee-src/nv-optee/optee/optee_os/lib/libutils/ext/snprintk.c:605
    1424:	52800600 	mov	w0, #0x30                  	// #48
/home/ssysarch/Desktop/nick/jetpack_5/Jetson_Linux_R35.4.1_aarch64/Linux_for_Tegra/sources/tegra/optee-src/nv-optee/optee/optee_os/lib/libutils/ext/snprintk.c:604
    1428:	710000df 	cmp	w6, #0x0
    142c:	540021cc 	b.gt	1864 <kprintf.constprop.0+0xb80>
    1430:	2a0503e5 	mov	w5, w5
    1434:	d2800001 	mov	x1, #0x0                   	// #0
/home/ssysarch/Desktop/nick/jetpack_5/Jetson_Linux_R35.4.1_aarch64/Linux_for_Tegra/sources/tegra/optee-src/nv-optee/optee/optee_os/lib/libutils/ext/snprintk.c:608
    1438:	eb05003f 	cmp	x1, x5
    143c:	54002221 	b.ne	1880 <kprintf.constprop.0+0xb9c>  // b.any
/home/ssysarch/Desktop/nick/jetpack_5/Jetson_Linux_R35.4.1_aarch64/Linux_for_Tegra/sources/tegra/optee-src/nv-optee/optee/optee_os/lib/libutils/ext/snprintk.c:611
    1440:	3617c8b5 	tbz	w21, #2, d54 <kprintf.constprop.0+0x70>
/home/ssysarch/Desktop/nick/jetpack_5/Jetson_Linux_R35.4.1_aarch64/Linux_for_Tegra/sources/tegra/optee-src/nv-optee/optee/optee_os/lib/libutils/ext/snprintk.c:612
    1444:	4b04014a 	sub	w10, w10, w4
/home/ssysarch/Desktop/nick/jetpack_5/Jetson_Linux_R35.4.1_aarch64/Linux_for_Tegra/sources/tegra/optee-src/nv-optee/optee/optee_os/lib/libutils/ext/snprintk.c:614
    1448:	52800400 	mov	w0, #0x20                  	// #32
/home/ssysarch/Desktop/nick/jetpack_5/Jetson_Linux_R35.4.1_aarch64/Linux_for_Tegra/sources/tegra/optee-src/nv-optee/optee/optee_os/lib/libutils/ext/snprintk.c:613
    144c:	7100015f 	cmp	w10, #0x0
    1450:	54ffc82d 	b.le	d54 <kprintf.constprop.0+0x70>
/home/ssysarch/Desktop/nick/jetpack_5/Jetson_Linux_R35.4.1_aarch64/Linux_for_Tegra/sources/tegra/optee-src/nv-optee/optee/optee_os/lib/libutils/ext/snprintk.c:614
    1454:	b40000b6 	cbz	x22, 1468 <kprintf.constprop.0+0x784>
    1458:	f100011f 	cmp	x8, #0x0
    145c:	fa561302 	ccmp	x24, x22, #0x2, ne  // ne = any
    1460:	54000049 	b.ls	1468 <kprintf.constprop.0+0x784>  // b.plast
    1464:	380016c0 	strb	w0, [x22], #1
    1468:	5100054a 	sub	w10, w10, #0x1
    146c:	17fffff8 	b	144c <kprintf.constprop.0+0x768>
/home/ssysarch/Desktop/nick/jetpack_5/Jetson_Linux_R35.4.1_aarch64/Linux_for_Tegra/sources/tegra/optee-src/nv-optee/optee/optee_os/lib/libutils/ext/snprintk.c:427
    1470:	11002094 	add	w20, w4, #0x8
    1474:	7100029f 	cmp	w20, #0x0
    1478:	5400008d 	b.le	1488 <kprintf.constprop.0+0x7a4>
    147c:	91003c73 	add	x19, x3, #0xf
    1480:	927df273 	and	x19, x19, #0xfffffffffffffff8
    1484:	17ffffac 	b	1334 <kprintf.constprop.0+0x650>
    1488:	aa0303f3 	mov	x19, x3
    148c:	8b24c343 	add	x3, x26, w4, sxtw
    1490:	17ffffa9 	b	1334 <kprintf.constprop.0+0x650>
/home/ssysarch/Desktop/nick/jetpack_5/Jetson_Linux_R35.4.1_aarch64/Linux_for_Tegra/sources/tegra/optee-src/nv-optee/optee/optee_os/lib/libutils/ext/snprintk.c:441
    1494:	37f801e4 	tbnz	w4, #31, 14d0 <kprintf.constprop.0+0x7ec>
    1498:	91003c73 	add	x19, x3, #0xf
    149c:	2a0403f4 	mov	w20, w4
    14a0:	927df273 	and	x19, x19, #0xfffffffffffffff8
/home/ssysarch/Desktop/nick/jetpack_5/Jetson_Linux_R35.4.1_aarch64/Linux_for_Tegra/sources/tegra/optee-src/nv-optee/optee/optee_os/lib/libutils/ext/snprintk.c:443
    14a4:	b00000b7 	adrp	x23, 16000 <__text_end+0x3130>
    14a8:	91311af7 	add	x23, x23, #0xc46
/home/ssysarch/Desktop/nick/jetpack_5/Jetson_Linux_R35.4.1_aarch64/Linux_for_Tegra/sources/tegra/optee-src/nv-optee/optee/optee_os/lib/libutils/ext/snprintk.c:441
    14ac:	f9400062 	ldr	x2, [x3]
/home/ssysarch/Desktop/nick/jetpack_5/Jetson_Linux_R35.4.1_aarch64/Linux_for_Tegra/sources/tegra/optee-src/nv-optee/optee/optee_os/lib/libutils/ext/snprintk.c:444
    14b0:	321f02b5 	orr	w21, w21, #0x2
/home/ssysarch/Desktop/nick/jetpack_5/Jetson_Linux_R35.4.1_aarch64/Linux_for_Tegra/sources/tegra/optee-src/nv-optee/optee/optee_os/lib/libutils/ext/snprintk.c:443
    14b4:	910046f7 	add	x23, x23, #0x11
/home/ssysarch/Desktop/nick/jetpack_5/Jetson_Linux_R35.4.1_aarch64/Linux_for_Tegra/sources/tegra/optee-src/nv-optee/optee/optee_os/lib/libutils/ext/snprintk.c:445
    14b8:	52800f1c 	mov	w28, #0x78                  	// #120
/home/ssysarch/Desktop/nick/jetpack_5/Jetson_Linux_R35.4.1_aarch64/Linux_for_Tegra/sources/tegra/optee-src/nv-optee/optee/optee_os/lib/libutils/ext/snprintk.c:494
    14bc:	310004bf 	cmn	w5, #0x1
    14c0:	52800001 	mov	w1, #0x0                   	// #0
    14c4:	54ffdbc0 	b.eq	103c <kprintf.constprop.0+0x358>  // b.none
    14c8:	52800040 	mov	w0, #0x2                   	// #2
    14cc:	140000a8 	b	176c <kprintf.constprop.0+0xa88>
/home/ssysarch/Desktop/nick/jetpack_5/Jetson_Linux_R35.4.1_aarch64/Linux_for_Tegra/sources/tegra/optee-src/nv-optee/optee/optee_os/lib/libutils/ext/snprintk.c:441
    14d0:	11002094 	add	w20, w4, #0x8
    14d4:	7100029f 	cmp	w20, #0x0
    14d8:	5400008d 	b.le	14e8 <kprintf.constprop.0+0x804>
    14dc:	91003c73 	add	x19, x3, #0xf
    14e0:	927df273 	and	x19, x19, #0xfffffffffffffff8
    14e4:	17fffff0 	b	14a4 <kprintf.constprop.0+0x7c0>
    14e8:	aa0303f3 	mov	x19, x3
    14ec:	8b24c343 	add	x3, x26, w4, sxtw
    14f0:	17ffffed 	b	14a4 <kprintf.constprop.0+0x7c0>
/home/ssysarch/Desktop/nick/jetpack_5/Jetson_Linux_R35.4.1_aarch64/Linux_for_Tegra/sources/tegra/optee-src/nv-optee/optee/optee_os/lib/libutils/ext/snprintk.c:448
    14f4:	37f80364 	tbnz	w4, #31, 1560 <kprintf.constprop.0+0x87c>
    14f8:	91003c73 	add	x19, x3, #0xf
    14fc:	2a0403f4 	mov	w20, w4
    1500:	927df273 	and	x19, x19, #0xfffffffffffffff8
    1504:	f9400063 	ldr	x3, [x3]
    1508:	b5000063 	cbnz	x3, 1514 <kprintf.constprop.0+0x830>
/home/ssysarch/Desktop/nick/jetpack_5/Jetson_Linux_R35.4.1_aarch64/Linux_for_Tegra/sources/tegra/optee-src/nv-optee/optee/optee_os/lib/libutils/ext/snprintk.c:450
    150c:	d00000a3 	adrp	x3, 17000 <gcd_pairs+0x40>
    1510:	91077063 	add	x3, x3, #0x1dc
/home/ssysarch/Desktop/nick/jetpack_5/Jetson_Linux_R35.4.1_aarch64/Linux_for_Tegra/sources/tegra/optee-src/nv-optee/optee/optee_os/lib/libutils/ext/snprintk.c:451
    1514:	310004bf 	cmn	w5, #0x1
    1518:	54000360 	b.eq	1584 <kprintf.constprop.0+0x8a0>  // b.none
/home/ssysarch/Desktop/nick/jetpack_5/Jetson_Linux_R35.4.1_aarch64/Linux_for_Tegra/sources/tegra/optee-src/nv-optee/optee/optee_os/lib/libutils/ext/snprintk.c:457
    151c:	93407ca2 	sxtw	x2, w5
    1520:	aa0303e0 	mov	x0, x3
    1524:	52800001 	mov	w1, #0x0                   	// #0
    1528:	f9004fe3 	str	x3, [sp, #152]
    152c:	2914abe5 	stp	w5, w10, [sp, #164]
    1530:	a90b33e8 	stp	x8, x12, [sp, #176]
    1534:	940000f7 	bl	1910 <memchr>
/home/ssysarch/Desktop/nick/jetpack_5/Jetson_Linux_R35.4.1_aarch64/Linux_for_Tegra/sources/tegra/optee-src/nv-optee/optee/optee_os/lib/libutils/ext/snprintk.c:459
    1538:	2954abe5 	ldp	w5, w10, [sp, #164]
    153c:	f9404fe3 	ldr	x3, [sp, #152]
    1540:	a94b33e8 	ldp	x8, x12, [sp, #176]
    1544:	b4000080 	cbz	x0, 1554 <kprintf.constprop.0+0x870>
/home/ssysarch/Desktop/nick/jetpack_5/Jetson_Linux_R35.4.1_aarch64/Linux_for_Tegra/sources/tegra/optee-src/nv-optee/optee/optee_os/lib/libutils/ext/snprintk.c:460
    1548:	cb030000 	sub	x0, x0, x3
    154c:	6b0000bf 	cmp	w5, w0
    1550:	1a80d0a5 	csel	w5, w5, w0, le
/home/ssysarch/Desktop/nick/jetpack_5/Jetson_Linux_R35.4.1_aarch64/Linux_for_Tegra/sources/tegra/optee-src/nv-optee/optee/optee_os/lib/libutils/ext/snprintk.c:291
    1554:	52800006 	mov	w6, #0x0                   	// #0
/home/ssysarch/Desktop/nick/jetpack_5/Jetson_Linux_R35.4.1_aarch64/Linux_for_Tegra/sources/tegra/optee-src/nv-optee/optee/optee_os/lib/libutils/ext/snprintk.c:467
    1558:	52800001 	mov	w1, #0x0                   	// #0
    155c:	17ffff97 	b	13b8 <kprintf.constprop.0+0x6d4>
/home/ssysarch/Desktop/nick/jetpack_5/Jetson_Linux_R35.4.1_aarch64/Linux_for_Tegra/sources/tegra/optee-src/nv-optee/optee/optee_os/lib/libutils/ext/snprintk.c:448
    1560:	11002094 	add	w20, w4, #0x8
    1564:	7100029f 	cmp	w20, #0x0
    1568:	5400008d 	b.le	1578 <kprintf.constprop.0+0x894>
    156c:	91003c73 	add	x19, x3, #0xf
    1570:	927df273 	and	x19, x19, #0xfffffffffffffff8
    1574:	17ffffe4 	b	1504 <kprintf.constprop.0+0x820>
    1578:	aa0303f3 	mov	x19, x3
    157c:	8b24c343 	add	x3, x26, w4, sxtw
    1580:	17ffffe1 	b	1504 <kprintf.constprop.0+0x820>
/home/ssysarch/Desktop/nick/jetpack_5/Jetson_Linux_R35.4.1_aarch64/Linux_for_Tegra/sources/tegra/optee-src/nv-optee/optee/optee_os/lib/libutils/ext/snprintk.c:466
    1584:	aa0303e0 	mov	x0, x3
    1588:	f9004fe3 	str	x3, [sp, #152]
    158c:	b900a7ea 	str	w10, [sp, #164]
    1590:	a90ab3e8 	stp	x8, x12, [sp, #168]
    1594:	940000ea 	bl	193c <strlen>
    1598:	b940a7ea 	ldr	w10, [sp, #164]
    159c:	2a0003e5 	mov	w5, w0
/home/ssysarch/Desktop/nick/jetpack_5/Jetson_Linux_R35.4.1_aarch64/Linux_for_Tegra/sources/tegra/optee-src/nv-optee/optee/optee_os/lib/libutils/ext/snprintk.c:291
    15a0:	52800006 	mov	w6, #0x0                   	// #0
/home/ssysarch/Desktop/nick/jetpack_5/Jetson_Linux_R35.4.1_aarch64/Linux_for_Tegra/sources/tegra/optee-src/nv-optee/optee/optee_os/lib/libutils/ext/snprintk.c:467
    15a4:	52800001 	mov	w1, #0x0                   	// #0
    15a8:	f9404fe3 	ldr	x3, [sp, #152]
    15ac:	a94ab3e8 	ldp	x8, x12, [sp, #168]
    15b0:	17ffff82 	b	13b8 <kprintf.constprop.0+0x6d4>
/home/ssysarch/Desktop/nick/jetpack_5/Jetson_Linux_R35.4.1_aarch64/Linux_for_Tegra/sources/tegra/optee-src/nv-optee/optee/optee_os/lib/libutils/ext/snprintk.c:470
    15b4:	321c02b5 	orr	w21, w21, #0x10
/home/ssysarch/Desktop/nick/jetpack_5/Jetson_Linux_R35.4.1_aarch64/Linux_for_Tegra/sources/tegra/optee-src/nv-optee/optee/optee_os/lib/libutils/ext/snprintk.c:473
    15b8:	36380235 	tbz	w21, #7, 15fc <kprintf.constprop.0+0x918>
    15bc:	37f80364 	tbnz	w4, #31, 1628 <kprintf.constprop.0+0x944>
    15c0:	91003c73 	add	x19, x3, #0xf
    15c4:	2a0403f4 	mov	w20, w4
    15c8:	927df273 	and	x19, x19, #0xfffffffffffffff8
    15cc:	f9400062 	ldr	x2, [x3]
/home/ssysarch/Desktop/nick/jetpack_5/Jetson_Linux_R35.4.1_aarch64/Linux_for_Tegra/sources/tegra/optee-src/nv-optee/optee/optee_os/lib/libutils/ext/snprintk.c:488
    15d0:	52800001 	mov	w1, #0x0                   	// #0
/home/ssysarch/Desktop/nick/jetpack_5/Jetson_Linux_R35.4.1_aarch64/Linux_for_Tegra/sources/tegra/optee-src/nv-optee/optee/optee_os/lib/libutils/ext/snprintk.c:494
    15d4:	310004bf 	cmn	w5, #0x1
    15d8:	54000d81 	b.ne	1788 <kprintf.constprop.0+0xaa4>  // b.any
/home/ssysarch/Desktop/nick/jetpack_5/Jetson_Linux_R35.4.1_aarch64/Linux_for_Tegra/sources/tegra/optee-src/nv-optee/optee/optee_os/lib/libutils/ext/snprintk.c:502
    15dc:	91009580 	add	x0, x12, #0x25
/home/ssysarch/Desktop/nick/jetpack_5/Jetson_Linux_R35.4.1_aarch64/Linux_for_Tegra/sources/tegra/optee-src/nv-optee/optee/optee_os/lib/libutils/ext/snprintk.c:523
    15e0:	d2800144 	mov	x4, #0xa                   	// #10
/home/ssysarch/Desktop/nick/jetpack_5/Jetson_Linux_R35.4.1_aarch64/Linux_for_Tegra/sources/tegra/optee-src/nv-optee/optee/optee_os/lib/libutils/ext/snprintk.c:522
    15e4:	d1000403 	sub	x3, x0, #0x1
    15e8:	f100245f 	cmp	x2, #0x9
    15ec:	54000d28 	b.hi	1790 <kprintf.constprop.0+0xaac>  // b.pmore
/home/ssysarch/Desktop/nick/jetpack_5/Jetson_Linux_R35.4.1_aarch64/Linux_for_Tegra/sources/tegra/optee-src/nv-optee/optee/optee_os/lib/libutils/ext/snprintk.c:526
    15f0:	1100c042 	add	w2, w2, #0x30
    15f4:	381ff002 	sturb	w2, [x0, #-1]
/home/ssysarch/Desktop/nick/jetpack_5/Jetson_Linux_R35.4.1_aarch64/Linux_for_Tegra/sources/tegra/optee-src/nv-optee/optee/optee_os/lib/libutils/ext/snprintk.c:527
    15f8:	17ffff12 	b	1240 <kprintf.constprop.0+0x55c>
/home/ssysarch/Desktop/nick/jetpack_5/Jetson_Linux_R35.4.1_aarch64/Linux_for_Tegra/sources/tegra/optee-src/nv-optee/optee/optee_os/lib/libutils/ext/snprintk.c:473
    15fc:	3747fe15 	tbnz	w21, #8, 15bc <kprintf.constprop.0+0x8d8>
    1600:	374ffdf5 	tbnz	w21, #9, 15bc <kprintf.constprop.0+0x8d8>
    1604:	372ffdd5 	tbnz	w21, #5, 15bc <kprintf.constprop.0+0x8d8>
    1608:	3727fdb5 	tbnz	w21, #4, 15bc <kprintf.constprop.0+0x8d8>
    160c:	36300335 	tbz	w21, #6, 1670 <kprintf.constprop.0+0x98c>
    1610:	37f801e4 	tbnz	w4, #31, 164c <kprintf.constprop.0+0x968>
    1614:	91002c73 	add	x19, x3, #0xb
    1618:	2a0403f4 	mov	w20, w4
    161c:	927df273 	and	x19, x19, #0xfffffffffffffff8
    1620:	79400062 	ldrh	w2, [x3]
    1624:	17ffffeb 	b	15d0 <kprintf.constprop.0+0x8ec>
    1628:	11002094 	add	w20, w4, #0x8
    162c:	7100029f 	cmp	w20, #0x0
    1630:	5400008d 	b.le	1640 <kprintf.constprop.0+0x95c>
    1634:	91003c73 	add	x19, x3, #0xf
    1638:	927df273 	and	x19, x19, #0xfffffffffffffff8
    163c:	17ffffe4 	b	15cc <kprintf.constprop.0+0x8e8>
    1640:	aa0303f3 	mov	x19, x3
    1644:	8b24c343 	add	x3, x26, w4, sxtw
    1648:	17ffffe1 	b	15cc <kprintf.constprop.0+0x8e8>
    164c:	11002094 	add	w20, w4, #0x8
    1650:	7100029f 	cmp	w20, #0x0
    1654:	5400008d 	b.le	1664 <kprintf.constprop.0+0x980>
    1658:	91002c73 	add	x19, x3, #0xb
    165c:	927df273 	and	x19, x19, #0xfffffffffffffff8
    1660:	17fffff0 	b	1620 <kprintf.constprop.0+0x93c>
    1664:	aa0303f3 	mov	x19, x3
    1668:	8b24c343 	add	x3, x26, w4, sxtw
    166c:	17ffffed 	b	1620 <kprintf.constprop.0+0x93c>
    1670:	37f800c4 	tbnz	w4, #31, 1688 <kprintf.constprop.0+0x9a4>
    1674:	91002c73 	add	x19, x3, #0xb
    1678:	2a0403f4 	mov	w20, w4
    167c:	927df273 	and	x19, x19, #0xfffffffffffffff8
    1680:	b9400062 	ldr	w2, [x3]
    1684:	17ffffd3 	b	15d0 <kprintf.constprop.0+0x8ec>
    1688:	11002094 	add	w20, w4, #0x8
    168c:	7100029f 	cmp	w20, #0x0
    1690:	5400008d 	b.le	16a0 <kprintf.constprop.0+0x9bc>
    1694:	91002c73 	add	x19, x3, #0xb
    1698:	927df273 	and	x19, x19, #0xfffffffffffffff8
    169c:	17fffff9 	b	1680 <kprintf.constprop.0+0x99c>
    16a0:	aa0303f3 	mov	x19, x3
    16a4:	8b24c343 	add	x3, x26, w4, sxtw
    16a8:	17fffff6 	b	1680 <kprintf.constprop.0+0x99c>
/home/ssysarch/Desktop/nick/jetpack_5/Jetson_Linux_R35.4.1_aarch64/Linux_for_Tegra/sources/tegra/optee-src/nv-optee/optee/optee_os/lib/libutils/ext/snprintk.c:477
    16ac:	b00000b7 	adrp	x23, 16000 <__text_end+0x3130>
    16b0:	91311af7 	add	x23, x23, #0xc46
    16b4:	17fffdd9 	b	e18 <kprintf.constprop.0+0x134>
/home/ssysarch/Desktop/nick/jetpack_5/Jetson_Linux_R35.4.1_aarch64/Linux_for_Tegra/sources/tegra/optee-src/nv-optee/optee/optee_os/lib/libutils/ext/snprintk.c:481
    16b8:	3747bb35 	tbnz	w21, #8, e1c <kprintf.constprop.0+0x138>
    16bc:	374fbb15 	tbnz	w21, #9, e1c <kprintf.constprop.0+0x138>
    16c0:	372fbaf5 	tbnz	w21, #5, e1c <kprintf.constprop.0+0x138>
    16c4:	3727bad5 	tbnz	w21, #4, e1c <kprintf.constprop.0+0x138>
    16c8:	36300335 	tbz	w21, #6, 172c <kprintf.constprop.0+0xa48>
    16cc:	37f801e4 	tbnz	w4, #31, 1708 <kprintf.constprop.0+0xa24>
    16d0:	91002c73 	add	x19, x3, #0xb
    16d4:	2a0403f4 	mov	w20, w4
    16d8:	927df273 	and	x19, x19, #0xfffffffffffffff8
    16dc:	79400062 	ldrh	w2, [x3]
    16e0:	17fffdd4 	b	e30 <kprintf.constprop.0+0x14c>
    16e4:	11002094 	add	w20, w4, #0x8
    16e8:	7100029f 	cmp	w20, #0x0
    16ec:	5400008d 	b.le	16fc <kprintf.constprop.0+0xa18>
    16f0:	91003c73 	add	x19, x3, #0xf
    16f4:	927df273 	and	x19, x19, #0xfffffffffffffff8
    16f8:	17fffdcd 	b	e2c <kprintf.constprop.0+0x148>
    16fc:	aa0303f3 	mov	x19, x3
    1700:	8b24c343 	add	x3, x26, w4, sxtw
    1704:	17fffdca 	b	e2c <kprintf.constprop.0+0x148>
    1708:	11002094 	add	w20, w4, #0x8
    170c:	7100029f 	cmp	w20, #0x0
    1710:	5400008d 	b.le	1720 <kprintf.constprop.0+0xa3c>
    1714:	91002c73 	add	x19, x3, #0xb
    1718:	927df273 	and	x19, x19, #0xfffffffffffffff8
    171c:	17fffff0 	b	16dc <kprintf.constprop.0+0x9f8>
    1720:	aa0303f3 	mov	x19, x3
    1724:	8b24c343 	add	x3, x26, w4, sxtw
    1728:	17ffffed 	b	16dc <kprintf.constprop.0+0x9f8>
    172c:	37f800c4 	tbnz	w4, #31, 1744 <kprintf.constprop.0+0xa60>
    1730:	91002c73 	add	x19, x3, #0xb
    1734:	2a0403f4 	mov	w20, w4
    1738:	927df273 	and	x19, x19, #0xfffffffffffffff8
    173c:	b9400062 	ldr	w2, [x3]
    1740:	17fffdbc 	b	e30 <kprintf.constprop.0+0x14c>
    1744:	11002094 	add	w20, w4, #0x8
    1748:	7100029f 	cmp	w20, #0x0
    174c:	5400008d 	b.le	175c <kprintf.constprop.0+0xa78>
    1750:	91002c73 	add	x19, x3, #0xb
    1754:	927df273 	and	x19, x19, #0xfffffffffffffff8
    1758:	17fffff9 	b	173c <kprintf.constprop.0+0xa58>
    175c:	aa0303f3 	mov	x19, x3
    1760:	8b24c343 	add	x3, x26, w4, sxtw
    1764:	17fffff6 	b	173c <kprintf.constprop.0+0xa58>
/home/ssysarch/Desktop/nick/jetpack_5/Jetson_Linux_R35.4.1_aarch64/Linux_for_Tegra/sources/tegra/optee-src/nv-optee/optee/optee_os/lib/libutils/ext/snprintk.c:494
    1768:	52800000 	mov	w0, #0x0                   	// #0
/home/ssysarch/Desktop/nick/jetpack_5/Jetson_Linux_R35.4.1_aarch64/Linux_for_Tegra/sources/tegra/optee-src/nv-optee/optee/optee_os/lib/libutils/ext/snprintk.c:503
    176c:	f100005f 	cmp	x2, #0x0
/home/ssysarch/Desktop/nick/jetpack_5/Jetson_Linux_R35.4.1_aarch64/Linux_for_Tegra/sources/tegra/optee-src/nv-optee/optee/optee_os/lib/libutils/ext/snprintk.c:495
    1770:	12157ab5 	and	w21, w21, #0xfffffbff
/home/ssysarch/Desktop/nick/jetpack_5/Jetson_Linux_R35.4.1_aarch64/Linux_for_Tegra/sources/tegra/optee-src/nv-optee/optee/optee_os/lib/libutils/ext/snprintk.c:503
    1774:	7a4008a0 	ccmp	w5, #0x0, #0x0, eq  // eq = none
    1778:	54ffc5a1 	b.ne	102c <kprintf.constprop.0+0x348>  // b.any
/home/ssysarch/Desktop/nick/jetpack_5/Jetson_Linux_R35.4.1_aarch64/Linux_for_Tegra/sources/tegra/optee-src/nv-optee/optee/optee_os/lib/libutils/ext/snprintk.c:502
    177c:	91009583 	add	x3, x12, #0x25
/home/ssysarch/Desktop/nick/jetpack_5/Jetson_Linux_R35.4.1_aarch64/Linux_for_Tegra/sources/tegra/optee-src/nv-optee/optee/optee_os/lib/libutils/ext/snprintk.c:542
    1780:	52800005 	mov	w5, #0x0                   	// #0
    1784:	17fffeaf 	b	1240 <kprintf.constprop.0+0x55c>
/home/ssysarch/Desktop/nick/jetpack_5/Jetson_Linux_R35.4.1_aarch64/Linux_for_Tegra/sources/tegra/optee-src/nv-optee/optee/optee_os/lib/libutils/ext/snprintk.c:494
    1788:	52800020 	mov	w0, #0x1                   	// #1
    178c:	17fffff8 	b	176c <kprintf.constprop.0+0xa88>
/home/ssysarch/Desktop/nick/jetpack_5/Jetson_Linux_R35.4.1_aarch64/Linux_for_Tegra/sources/tegra/optee-src/nv-optee/optee/optee_os/lib/libutils/ext/snprintk.c:523
    1790:	9ac40846 	udiv	x6, x2, x4
    1794:	9b0488c2 	msub	x2, x6, x4, x2
    1798:	1100c042 	add	w2, w2, #0x30
    179c:	381ff002 	sturb	w2, [x0, #-1]
/home/ssysarch/Desktop/nick/jetpack_5/Jetson_Linux_R35.4.1_aarch64/Linux_for_Tegra/sources/tegra/optee-src/nv-optee/optee/optee_os/lib/libutils/ext/snprintk.c:524
    17a0:	aa0603e2 	mov	x2, x6
    17a4:	aa0303e0 	mov	x0, x3
    17a8:	17ffff8f 	b	15e4 <kprintf.constprop.0+0x900>
/home/ssysarch/Desktop/nick/jetpack_5/Jetson_Linux_R35.4.1_aarch64/Linux_for_Tegra/sources/tegra/optee-src/nv-optee/optee/optee_os/lib/libutils/ext/snprintk.c:547
    17ac:	35ffb55c 	cbnz	w28, e54 <kprintf.constprop.0+0x170>
/home/ssysarch/Desktop/nick/jetpack_5/Jetson_Linux_R35.4.1_aarch64/Linux_for_Tegra/sources/tegra/optee-src/nv-optee/optee/optee_os/lib/libutils/ext/snprintk.c:619
    17b0:	b4000048 	cbz	x8, 17b8 <kprintf.constprop.0+0xad4>
/home/ssysarch/Desktop/nick/jetpack_5/Jetson_Linux_R35.4.1_aarch64/Linux_for_Tegra/sources/tegra/optee-src/nv-optee/optee/optee_os/lib/libutils/ext/snprintk.c:620
    17b4:	f9000116 	str	x22, [x8]
/home/ssysarch/Desktop/nick/jetpack_5/Jetson_Linux_R35.4.1_aarch64/Linux_for_Tegra/sources/tegra/optee-src/nv-optee/optee/optee_os/lib/libutils/ext/snprintk.c:622
    17b8:	900000c0 	adrp	x0, 19000 <_DYNAMIC>
    17bc:	f9409800 	ldr	x0, [x0, #304]
    17c0:	f94077e1 	ldr	x1, [sp, #232]
    17c4:	f9400002 	ldr	x2, [x0]
    17c8:	eb020021 	subs	x1, x1, x2
    17cc:	d2800002 	mov	x2, #0x0                   	// #0
    17d0:	54000680 	b.eq	18a0 <kprintf.constprop.0+0xbbc>  // b.none
    17d4:	97fffb4c 	bl	504 <__stack_chk_fail>
/home/ssysarch/Desktop/nick/jetpack_5/Jetson_Linux_R35.4.1_aarch64/Linux_for_Tegra/sources/tegra/optee-src/nv-optee/optee/optee_os/lib/libutils/ext/snprintk.c:574
    17d8:	360fdf95 	tbz	w21, #1, 13c8 <kprintf.constprop.0+0x6e4>
/home/ssysarch/Desktop/nick/jetpack_5/Jetson_Linux_R35.4.1_aarch64/Linux_for_Tegra/sources/tegra/optee-src/nv-optee/optee/optee_os/lib/libutils/ext/snprintk.c:575
    17dc:	11000884 	add	w4, w4, #0x2
    17e0:	17fffefa 	b	13c8 <kprintf.constprop.0+0x6e4>
/home/ssysarch/Desktop/nick/jetpack_5/Jetson_Linux_R35.4.1_aarch64/Linux_for_Tegra/sources/tegra/optee-src/nv-optee/optee/optee_os/lib/libutils/ext/snprintk.c:584
    17e4:	b40000b6 	cbz	x22, 17f8 <kprintf.constprop.0+0xb14>
    17e8:	f100011f 	cmp	x8, #0x0
    17ec:	fa561302 	ccmp	x24, x22, #0x2, ne  // ne = any
    17f0:	54000049 	b.ls	17f8 <kprintf.constprop.0+0xb14>  // b.plast
    17f4:	380016c2 	strb	w2, [x22], #1
    17f8:	510004e7 	sub	w7, w7, #0x1
    17fc:	17fffefb 	b	13e8 <kprintf.constprop.0+0x704>
/home/ssysarch/Desktop/nick/jetpack_5/Jetson_Linux_R35.4.1_aarch64/Linux_for_Tegra/sources/tegra/optee-src/nv-optee/optee/optee_os/lib/libutils/ext/snprintk.c:590
    1800:	360fe055 	tbz	w21, #1, 1408 <kprintf.constprop.0+0x724>
/home/ssysarch/Desktop/nick/jetpack_5/Jetson_Linux_R35.4.1_aarch64/Linux_for_Tegra/sources/tegra/optee-src/nv-optee/optee/optee_os/lib/libutils/ext/snprintk.c:591
    1804:	b4ffe036 	cbz	x22, 1408 <kprintf.constprop.0+0x724>
    1808:	f100011f 	cmp	x8, #0x0
    180c:	1a9f17e2 	cset	w2, eq  // eq = none
    1810:	7100005f 	cmp	w2, #0x0
    1814:	fa560302 	ccmp	x24, x22, #0x2, eq  // eq = none
    1818:	54ffdf89 	b.ls	1408 <kprintf.constprop.0+0x724>  // b.plast
    181c:	aa1603e1 	mov	x1, x22
    1820:	52800607 	mov	w7, #0x30                  	// #48
/home/ssysarch/Desktop/nick/jetpack_5/Jetson_Linux_R35.4.1_aarch64/Linux_for_Tegra/sources/tegra/optee-src/nv-optee/optee/optee_os/lib/libutils/ext/snprintk.c:592
    1824:	7100005f 	cmp	w2, #0x0
/home/ssysarch/Desktop/nick/jetpack_5/Jetson_Linux_R35.4.1_aarch64/Linux_for_Tegra/sources/tegra/optee-src/nv-optee/optee/optee_os/lib/libutils/ext/snprintk.c:591
    1828:	38001427 	strb	w7, [x1], #1
/home/ssysarch/Desktop/nick/jetpack_5/Jetson_Linux_R35.4.1_aarch64/Linux_for_Tegra/sources/tegra/optee-src/nv-optee/optee/optee_os/lib/libutils/ext/snprintk.c:592
    182c:	fa410302 	ccmp	x24, x1, #0x2, eq  // eq = none
    1830:	54000089 	b.ls	1840 <kprintf.constprop.0+0xb5c>  // b.plast
    1834:	91000ad6 	add	x22, x22, #0x2
    1838:	381ff2dc 	sturb	w28, [x22, #-1]
    183c:	17fffef3 	b	1408 <kprintf.constprop.0+0x724>
    1840:	aa0103f6 	mov	x22, x1
    1844:	17fffef1 	b	1408 <kprintf.constprop.0+0x724>
/home/ssysarch/Desktop/nick/jetpack_5/Jetson_Linux_R35.4.1_aarch64/Linux_for_Tegra/sources/tegra/optee-src/nv-optee/optee/optee_os/lib/libutils/ext/snprintk.c:599
    1848:	b40000b6 	cbz	x22, 185c <kprintf.constprop.0+0xb78>
    184c:	f100011f 	cmp	x8, #0x0
    1850:	fa561302 	ccmp	x24, x22, #0x2, ne  // ne = any
    1854:	54000049 	b.ls	185c <kprintf.constprop.0+0xb78>  // b.plast
    1858:	380016c1 	strb	w1, [x22], #1
    185c:	51000400 	sub	w0, w0, #0x1
    1860:	17fffeee 	b	1418 <kprintf.constprop.0+0x734>
/home/ssysarch/Desktop/nick/jetpack_5/Jetson_Linux_R35.4.1_aarch64/Linux_for_Tegra/sources/tegra/optee-src/nv-optee/optee/optee_os/lib/libutils/ext/snprintk.c:605
    1864:	b40000b6 	cbz	x22, 1878 <kprintf.constprop.0+0xb94>
    1868:	f100011f 	cmp	x8, #0x0
    186c:	fa561302 	ccmp	x24, x22, #0x2, ne  // ne = any
    1870:	54000049 	b.ls	1878 <kprintf.constprop.0+0xb94>  // b.plast
    1874:	380016c0 	strb	w0, [x22], #1
    1878:	510004c6 	sub	w6, w6, #0x1
    187c:	17fffeeb 	b	1428 <kprintf.constprop.0+0x744>
/home/ssysarch/Desktop/nick/jetpack_5/Jetson_Linux_R35.4.1_aarch64/Linux_for_Tegra/sources/tegra/optee-src/nv-optee/optee/optee_os/lib/libutils/ext/snprintk.c:609
    1880:	b40000d6 	cbz	x22, 1898 <kprintf.constprop.0+0xbb4>
    1884:	f100011f 	cmp	x8, #0x0
    1888:	fa561302 	ccmp	x24, x22, #0x2, ne  // ne = any
    188c:	54000069 	b.ls	1898 <kprintf.constprop.0+0xbb4>  // b.plast
    1890:	38616860 	ldrb	w0, [x3, x1]
    1894:	380016c0 	strb	w0, [x22], #1
/home/ssysarch/Desktop/nick/jetpack_5/Jetson_Linux_R35.4.1_aarch64/Linux_for_Tegra/sources/tegra/optee-src/nv-optee/optee/optee_os/lib/libutils/ext/snprintk.c:608
    1898:	91000421 	add	x1, x1, #0x1
    189c:	17fffee7 	b	1438 <kprintf.constprop.0+0x754>
/home/ssysarch/Desktop/nick/jetpack_5/Jetson_Linux_R35.4.1_aarch64/Linux_for_Tegra/sources/tegra/optee-src/nv-optee/optee/optee_os/lib/libutils/ext/snprintk.c:622
    18a0:	2a1903e0 	mov	w0, w25
    18a4:	a9437bfd 	ldp	x29, x30, [sp, #48]
    18a8:	a94453f3 	ldp	x19, x20, [sp, #64]
    18ac:	a9455bf5 	ldp	x21, x22, [sp, #80]
    18b0:	a94663f7 	ldp	x23, x24, [sp, #96]
    18b4:	a9476bf9 	ldp	x25, x26, [sp, #112]
    18b8:	a94873fb 	ldp	x27, x28, [sp, #128]
    18bc:	9103c3ff 	add	sp, sp, #0xf0
    18c0:	d65f03c0 	ret

00000000000018c4 <__vsprintf>:
__vsprintf():
/home/ssysarch/Desktop/nick/jetpack_5/Jetson_Linux_R35.4.1_aarch64/Linux_for_Tegra/sources/tegra/optee-src/nv-optee/optee/optee_os/lib/libutils/ext/snprintk.c:155
    18c4:	a9bc7bfd 	stp	x29, x30, [sp, #-64]!
/home/ssysarch/Desktop/nick/jetpack_5/Jetson_Linux_R35.4.1_aarch64/Linux_for_Tegra/sources/tegra/optee-src/nv-optee/optee/optee_os/lib/libutils/ext/snprintk.c:156
    18c8:	910083e3 	add	x3, sp, #0x20
/home/ssysarch/Desktop/nick/jetpack_5/Jetson_Linux_R35.4.1_aarch64/Linux_for_Tegra/sources/tegra/optee-src/nv-optee/optee/optee_os/lib/libutils/ext/snprintk.c:155
    18cc:	910003fd 	mov	x29, sp
    18d0:	a90153f3 	stp	x19, x20, [sp, #16]
    18d4:	aa0003f4 	mov	x20, x0
    18d8:	aa0103f3 	mov	x19, x1
/home/ssysarch/Desktop/nick/jetpack_5/Jetson_Linux_R35.4.1_aarch64/Linux_for_Tegra/sources/tegra/optee-src/nv-optee/optee/optee_os/lib/libutils/ext/snprintk.c:156
    18dc:	aa0303e0 	mov	x0, x3
/home/ssysarch/Desktop/nick/jetpack_5/Jetson_Linux_R35.4.1_aarch64/Linux_for_Tegra/sources/tegra/optee-src/nv-optee/optee/optee_os/lib/libutils/ext/snprintk.c:155
    18e0:	aa0203e1 	mov	x1, x2
/home/ssysarch/Desktop/nick/jetpack_5/Jetson_Linux_R35.4.1_aarch64/Linux_for_Tegra/sources/tegra/optee-src/nv-optee/optee/optee_os/lib/libutils/ext/snprintk.c:156
    18e4:	d2800402 	mov	x2, #0x20                  	// #32
    18e8:	97fff9ce 	bl	20 <memcpy>
    18ec:	aa1403e2 	mov	x2, x20
    18f0:	aa0003e3 	mov	x3, x0
    18f4:	52800004 	mov	w4, #0x0                   	// #0
    18f8:	aa1303e0 	mov	x0, x19
    18fc:	d2800001 	mov	x1, #0x0                   	// #0
    1900:	97fffcf9 	bl	ce4 <kprintf.constprop.0>
/home/ssysarch/Desktop/nick/jetpack_5/Jetson_Linux_R35.4.1_aarch64/Linux_for_Tegra/sources/tegra/optee-src/nv-optee/optee/optee_os/lib/libutils/ext/snprintk.c:157
    1904:	a94153f3 	ldp	x19, x20, [sp, #16]
    1908:	a8c47bfd 	ldp	x29, x30, [sp], #64
    190c:	d65f03c0 	ret

0000000000001910 <memchr>:
memchr():
/home/ssysarch/Desktop/nick/jetpack_5/Jetson_Linux_R35.4.1_aarch64/Linux_for_Tegra/sources/tegra/optee-src/nv-optee/optee/optee_os/lib/libutils/isoc/newlib/memchr.c:109
    1910:	12001c21 	and	w1, w1, #0xff
/home/ssysarch/Desktop/nick/jetpack_5/Jetson_Linux_R35.4.1_aarch64/Linux_for_Tegra/sources/tegra/optee-src/nv-optee/optee/optee_os/lib/libutils/isoc/newlib/memchr.c:153
    1914:	8b020002 	add	x2, x0, x2
    1918:	eb02001f 	cmp	x0, x2
    191c:	54000061 	b.ne	1928 <memchr+0x18>  // b.any
/home/ssysarch/Desktop/nick/jetpack_5/Jetson_Linux_R35.4.1_aarch64/Linux_for_Tegra/sources/tegra/optee-src/nv-optee/optee/optee_os/lib/libutils/isoc/newlib/memchr.c:159
    1920:	d2800000 	mov	x0, #0x0                   	// #0
/home/ssysarch/Desktop/nick/jetpack_5/Jetson_Linux_R35.4.1_aarch64/Linux_for_Tegra/sources/tegra/optee-src/nv-optee/optee/optee_os/lib/libutils/isoc/newlib/memchr.c:160
    1924:	d65f03c0 	ret
/home/ssysarch/Desktop/nick/jetpack_5/Jetson_Linux_R35.4.1_aarch64/Linux_for_Tegra/sources/tegra/optee-src/nv-optee/optee/optee_os/lib/libutils/isoc/newlib/memchr.c:154
    1928:	39400003 	ldrb	w3, [x0]
    192c:	6b01007f 	cmp	w3, w1
    1930:	54ffffa0 	b.eq	1924 <memchr+0x14>  // b.none
/home/ssysarch/Desktop/nick/jetpack_5/Jetson_Linux_R35.4.1_aarch64/Linux_for_Tegra/sources/tegra/optee-src/nv-optee/optee/optee_os/lib/libutils/isoc/newlib/memchr.c:156
    1934:	91000400 	add	x0, x0, #0x1
    1938:	17fffff8 	b	1918 <memchr+0x8>

000000000000193c <strlen>:
strlen():
/home/ssysarch/Desktop/nick/jetpack_5/Jetson_Linux_R35.4.1_aarch64/Linux_for_Tegra/sources/tegra/optee-src/nv-optee/optee/optee_os/lib/libutils/isoc/newlib/strlen.c:117
    193c:	aa0003e1 	mov	x1, x0
    1940:	39400022 	ldrb	w2, [x1]
    1944:	35000062 	cbnz	w2, 1950 <strlen+0x14>
/home/ssysarch/Desktop/nick/jetpack_5/Jetson_Linux_R35.4.1_aarch64/Linux_for_Tegra/sources/tegra/optee-src/nv-optee/optee/optee_os/lib/libutils/isoc/newlib/strlen.c:120
    1948:	cb000020 	sub	x0, x1, x0
    194c:	d65f03c0 	ret
/home/ssysarch/Desktop/nick/jetpack_5/Jetson_Linux_R35.4.1_aarch64/Linux_for_Tegra/sources/tegra/optee-src/nv-optee/optee/optee_os/lib/libutils/isoc/newlib/strlen.c:118
    1950:	91000421 	add	x1, x1, #0x1
    1954:	17fffffb 	b	1940 <strlen+0x4>

0000000000001958 <trace_ext_puts>:
trace_ext_puts():
/home/ssysarch/Desktop/nick/jetpack_5/Jetson_Linux_R35.4.1_aarch64/Linux_for_Tegra/sources/tegra/optee-src/nv-optee/optee/optee_os/lib/libutee/trace_ext.c:22
    1958:	a9be7bfd 	stp	x29, x30, [sp, #-32]!
    195c:	910003fd 	mov	x29, sp
    1960:	f9000bf3 	str	x19, [sp, #16]
    1964:	aa0003f3 	mov	x19, x0
/home/ssysarch/Desktop/nick/jetpack_5/Jetson_Linux_R35.4.1_aarch64/Linux_for_Tegra/sources/tegra/optee-src/nv-optee/optee/optee_os/lib/libutee/trace_ext.c:26
    1968:	97fffff5 	bl	193c <strlen>
    196c:	aa0003e1 	mov	x1, x0
    1970:	aa1303e0 	mov	x0, x19
/home/ssysarch/Desktop/nick/jetpack_5/Jetson_Linux_R35.4.1_aarch64/Linux_for_Tegra/sources/tegra/optee-src/nv-optee/optee/optee_os/lib/libutee/trace_ext.c:28
    1974:	f9400bf3 	ldr	x19, [sp, #16]
    1978:	a8c27bfd 	ldp	x29, x30, [sp], #32
/home/ssysarch/Desktop/nick/jetpack_5/Jetson_Linux_R35.4.1_aarch64/Linux_for_Tegra/sources/tegra/optee-src/nv-optee/optee/optee_os/lib/libutee/trace_ext.c:26
    197c:	14001ada 	b	84e4 <_utee_log>

0000000000001980 <trace_ext_get_thread_id>:
trace_ext_get_thread_id():
/home/ssysarch/Desktop/nick/jetpack_5/Jetson_Linux_R35.4.1_aarch64/Linux_for_Tegra/sources/tegra/optee-src/nv-optee/optee/optee_os/lib/libutee/trace_ext.c:33
    1980:	12800000 	mov	w0, #0xffffffff            	// #-1
    1984:	d65f03c0 	ret

0000000000001988 <printf>:
printf():
/home/ssysarch/Desktop/nick/jetpack_5/Jetson_Linux_R35.4.1_aarch64/Linux_for_Tegra/sources/tegra/optee-src/nv-optee/optee/optee_os/lib/libutee/trace_ext.c:41
    1988:	d108c3ff 	sub	sp, sp, #0x230
    198c:	a9007bfd 	stp	x29, x30, [sp]
    1990:	910003fd 	mov	x29, sp
    1994:	a90153f3 	stp	x19, x20, [sp, #16]
    1998:	aa0003f3 	mov	x19, x0
    199c:	910823e0 	add	x0, sp, #0x208
    19a0:	a91f8be1 	stp	x1, x2, [sp, #504]
    19a4:	900000c1 	adrp	x1, 19000 <_DYNAMIC>
    19a8:	3d805fe0 	str	q0, [sp, #368]
    19ac:	3d8063e1 	str	q1, [sp, #384]
    19b0:	3d8067e2 	str	q2, [sp, #400]
    19b4:	3d806be3 	str	q3, [sp, #416]
    19b8:	3d806fe4 	str	q4, [sp, #432]
    19bc:	3d8073e5 	str	q5, [sp, #448]
    19c0:	3d8077e6 	str	q6, [sp, #464]
    19c4:	3d807be7 	str	q7, [sp, #480]
    19c8:	f9409821 	ldr	x1, [x1, #304]
    19cc:	a9001003 	stp	x3, x4, [x0]
    19d0:	a9011805 	stp	x5, x6, [x0, #16]
    19d4:	f90117e7 	str	x7, [sp, #552]
    19d8:	f9400020 	ldr	x0, [x1]
    19dc:	f900b7e0 	str	x0, [sp, #360]
    19e0:	d2800000 	mov	x0, #0x0                   	// #0
/home/ssysarch/Desktop/nick/jetpack_5/Jetson_Linux_R35.4.1_aarch64/Linux_for_Tegra/sources/tegra/optee-src/nv-optee/optee/optee_os/lib/libutee/trace_ext.c:46
    19e4:	97fffb1e 	bl	65c <trace_get_level>
    19e8:	7100001f 	cmp	w0, #0x0
    19ec:	5400040d 	b.le	1a6c <printf+0xe4>
/home/ssysarch/Desktop/nick/jetpack_5/Jetson_Linux_R35.4.1_aarch64/Linux_for_Tegra/sources/tegra/optee-src/nv-optee/optee/optee_os/lib/libutee/trace_ext.c:49
    19f0:	9108c3e0 	add	x0, sp, #0x230
/home/ssysarch/Desktop/nick/jetpack_5/Jetson_Linux_R35.4.1_aarch64/Linux_for_Tegra/sources/tegra/optee-src/nv-optee/optee/optee_os/lib/libutee/trace_ext.c:50
    19f4:	910083e3 	add	x3, sp, #0x20
/home/ssysarch/Desktop/nick/jetpack_5/Jetson_Linux_R35.4.1_aarch64/Linux_for_Tegra/sources/tegra/optee-src/nv-optee/optee/optee_os/lib/libutee/trace_ext.c:49
    19f8:	a90483e0 	stp	x0, x0, [sp, #72]
    19fc:	9107c3e0 	add	x0, sp, #0x1f0
/home/ssysarch/Desktop/nick/jetpack_5/Jetson_Linux_R35.4.1_aarch64/Linux_for_Tegra/sources/tegra/optee-src/nv-optee/optee/optee_os/lib/libutee/trace_ext.c:50
    1a00:	910123e1 	add	x1, sp, #0x48
/home/ssysarch/Desktop/nick/jetpack_5/Jetson_Linux_R35.4.1_aarch64/Linux_for_Tegra/sources/tegra/optee-src/nv-optee/optee/optee_os/lib/libutee/trace_ext.c:49
    1a04:	f9002fe0 	str	x0, [sp, #88]
    1a08:	128006e0 	mov	w0, #0xffffffc8            	// #-56
    1a0c:	b90063e0 	str	w0, [sp, #96]
    1a10:	12800fe0 	mov	w0, #0xffffff80            	// #-128
/home/ssysarch/Desktop/nick/jetpack_5/Jetson_Linux_R35.4.1_aarch64/Linux_for_Tegra/sources/tegra/optee-src/nv-optee/optee/optee_os/lib/libutee/trace_ext.c:50
    1a14:	d2800402 	mov	x2, #0x20                  	// #32
    1a18:	9101a3f4 	add	x20, sp, #0x68
/home/ssysarch/Desktop/nick/jetpack_5/Jetson_Linux_R35.4.1_aarch64/Linux_for_Tegra/sources/tegra/optee-src/nv-optee/optee/optee_os/lib/libutee/trace_ext.c:49
    1a1c:	b90067e0 	str	w0, [sp, #100]
/home/ssysarch/Desktop/nick/jetpack_5/Jetson_Linux_R35.4.1_aarch64/Linux_for_Tegra/sources/tegra/optee-src/nv-optee/optee/optee_os/lib/libutee/trace_ext.c:50
    1a20:	aa0303e0 	mov	x0, x3
    1a24:	97fff97f 	bl	20 <memcpy>
    1a28:	aa0003e3 	mov	x3, x0
    1a2c:	aa1303e2 	mov	x2, x19
    1a30:	aa1403e0 	mov	x0, x20
    1a34:	d2802001 	mov	x1, #0x100                 	// #256
    1a38:	94004453 	bl	12b84 <vsnprintf>
    1a3c:	2a0003f3 	mov	w19, w0
/home/ssysarch/Desktop/nick/jetpack_5/Jetson_Linux_R35.4.1_aarch64/Linux_for_Tegra/sources/tegra/optee-src/nv-optee/optee/optee_os/lib/libutee/trace_ext.c:53
    1a40:	37f80060 	tbnz	w0, #31, 1a4c <printf+0xc4>
/home/ssysarch/Desktop/nick/jetpack_5/Jetson_Linux_R35.4.1_aarch64/Linux_for_Tegra/sources/tegra/optee-src/nv-optee/optee/optee_os/lib/libutee/trace_ext.c:56
    1a44:	aa1403e0 	mov	x0, x20
    1a48:	97ffffc4 	bl	1958 <trace_ext_puts>
/home/ssysarch/Desktop/nick/jetpack_5/Jetson_Linux_R35.4.1_aarch64/Linux_for_Tegra/sources/tegra/optee-src/nv-optee/optee/optee_os/lib/libutee/trace_ext.c:59
    1a4c:	900000c1 	adrp	x1, 19000 <_DYNAMIC>
    1a50:	f9409821 	ldr	x1, [x1, #304]
    1a54:	f940b7e0 	ldr	x0, [sp, #360]
    1a58:	f9400022 	ldr	x2, [x1]
    1a5c:	eb020000 	subs	x0, x0, x2
    1a60:	d2800002 	mov	x2, #0x0                   	// #0
    1a64:	54000080 	b.eq	1a74 <printf+0xec>  // b.none
    1a68:	97fffaa7 	bl	504 <__stack_chk_fail>
/home/ssysarch/Desktop/nick/jetpack_5/Jetson_Linux_R35.4.1_aarch64/Linux_for_Tegra/sources/tegra/optee-src/nv-optee/optee/optee_os/lib/libutee/trace_ext.c:47
    1a6c:	52800013 	mov	w19, #0x0                   	// #0
    1a70:	17fffff7 	b	1a4c <printf+0xc4>
/home/ssysarch/Desktop/nick/jetpack_5/Jetson_Linux_R35.4.1_aarch64/Linux_for_Tegra/sources/tegra/optee-src/nv-optee/optee/optee_os/lib/libutee/trace_ext.c:59
    1a74:	2a1303e0 	mov	w0, w19
    1a78:	a9407bfd 	ldp	x29, x30, [sp]
    1a7c:	a94153f3 	ldp	x19, x20, [sp, #16]
    1a80:	9108c3ff 	add	sp, sp, #0x230
    1a84:	d65f03c0 	ret

0000000000001a88 <puts>:
puts():
/home/ssysarch/Desktop/nick/jetpack_5/Jetson_Linux_R35.4.1_aarch64/Linux_for_Tegra/sources/tegra/optee-src/nv-optee/optee/optee_os/lib/libutee/trace_ext.c:62
    1a88:	a9be7bfd 	stp	x29, x30, [sp, #-32]!
    1a8c:	910003fd 	mov	x29, sp
    1a90:	f9000bf3 	str	x19, [sp, #16]
    1a94:	aa0003f3 	mov	x19, x0
/home/ssysarch/Desktop/nick/jetpack_5/Jetson_Linux_R35.4.1_aarch64/Linux_for_Tegra/sources/tegra/optee-src/nv-optee/optee/optee_os/lib/libutee/trace_ext.c:63
    1a98:	97fffaf1 	bl	65c <trace_get_level>
    1a9c:	7100001f 	cmp	w0, #0x0
    1aa0:	540000cd 	b.le	1ab8 <puts+0x30>
/home/ssysarch/Desktop/nick/jetpack_5/Jetson_Linux_R35.4.1_aarch64/Linux_for_Tegra/sources/tegra/optee-src/nv-optee/optee/optee_os/lib/libutee/trace_ext.c:64
    1aa4:	aa1303e0 	mov	x0, x19
    1aa8:	97ffffac 	bl	1958 <trace_ext_puts>
/home/ssysarch/Desktop/nick/jetpack_5/Jetson_Linux_R35.4.1_aarch64/Linux_for_Tegra/sources/tegra/optee-src/nv-optee/optee/optee_os/lib/libutee/trace_ext.c:65
    1aac:	d00000a0 	adrp	x0, 17000 <gcd_pairs+0x40>
    1ab0:	912d5800 	add	x0, x0, #0xb56
    1ab4:	97ffffa9 	bl	1958 <trace_ext_puts>
/home/ssysarch/Desktop/nick/jetpack_5/Jetson_Linux_R35.4.1_aarch64/Linux_for_Tegra/sources/tegra/optee-src/nv-optee/optee/optee_os/lib/libutee/trace_ext.c:68
    1ab8:	52800020 	mov	w0, #0x1                   	// #1
    1abc:	f9400bf3 	ldr	x19, [sp, #16]
    1ac0:	a8c27bfd 	ldp	x29, x30, [sp], #32
    1ac4:	d65f03c0 	ret

0000000000001ac8 <putchar>:
putchar():
/home/ssysarch/Desktop/nick/jetpack_5/Jetson_Linux_R35.4.1_aarch64/Linux_for_Tegra/sources/tegra/optee-src/nv-optee/optee/optee_os/lib/libutee/trace_ext.c:71
    1ac8:	a9bd7bfd 	stp	x29, x30, [sp, #-48]!
    1acc:	900000c1 	adrp	x1, 19000 <_DYNAMIC>
    1ad0:	910003fd 	mov	x29, sp
    1ad4:	f9409821 	ldr	x1, [x1, #304]
    1ad8:	f9000bf3 	str	x19, [sp, #16]
    1adc:	2a0003f3 	mov	w19, w0
/home/ssysarch/Desktop/nick/jetpack_5/Jetson_Linux_R35.4.1_aarch64/Linux_for_Tegra/sources/tegra/optee-src/nv-optee/optee/optee_os/lib/libutee/trace_ext.c:72
    1ae0:	390083f3 	strb	w19, [sp, #32]
/home/ssysarch/Desktop/nick/jetpack_5/Jetson_Linux_R35.4.1_aarch64/Linux_for_Tegra/sources/tegra/optee-src/nv-optee/optee/optee_os/lib/libutee/trace_ext.c:71
    1ae4:	f9400020 	ldr	x0, [x1]
    1ae8:	f90017e0 	str	x0, [sp, #40]
    1aec:	d2800000 	mov	x0, #0x0                   	// #0
/home/ssysarch/Desktop/nick/jetpack_5/Jetson_Linux_R35.4.1_aarch64/Linux_for_Tegra/sources/tegra/optee-src/nv-optee/optee/optee_os/lib/libutee/trace_ext.c:72
    1af0:	390087ff 	strb	wzr, [sp, #33]
/home/ssysarch/Desktop/nick/jetpack_5/Jetson_Linux_R35.4.1_aarch64/Linux_for_Tegra/sources/tegra/optee-src/nv-optee/optee/optee_os/lib/libutee/trace_ext.c:74
    1af4:	97fffada 	bl	65c <trace_get_level>
    1af8:	7100001f 	cmp	w0, #0x0
    1afc:	5400006d 	b.le	1b08 <putchar+0x40>
/home/ssysarch/Desktop/nick/jetpack_5/Jetson_Linux_R35.4.1_aarch64/Linux_for_Tegra/sources/tegra/optee-src/nv-optee/optee/optee_os/lib/libutee/trace_ext.c:75
    1b00:	910083e0 	add	x0, sp, #0x20
    1b04:	97ffff95 	bl	1958 <trace_ext_puts>
/home/ssysarch/Desktop/nick/jetpack_5/Jetson_Linux_R35.4.1_aarch64/Linux_for_Tegra/sources/tegra/optee-src/nv-optee/optee/optee_os/lib/libutee/trace_ext.c:82
    1b08:	900000c1 	adrp	x1, 19000 <_DYNAMIC>
/home/ssysarch/Desktop/nick/jetpack_5/Jetson_Linux_R35.4.1_aarch64/Linux_for_Tegra/sources/tegra/optee-src/nv-optee/optee/optee_os/lib/libutee/trace_ext.c:81
    1b0c:	12001e60 	and	w0, w19, #0xff
/home/ssysarch/Desktop/nick/jetpack_5/Jetson_Linux_R35.4.1_aarch64/Linux_for_Tegra/sources/tegra/optee-src/nv-optee/optee/optee_os/lib/libutee/trace_ext.c:82
    1b10:	f9409821 	ldr	x1, [x1, #304]
    1b14:	f94017e2 	ldr	x2, [sp, #40]
    1b18:	f9400023 	ldr	x3, [x1]
    1b1c:	eb030042 	subs	x2, x2, x3
    1b20:	d2800003 	mov	x3, #0x0                   	// #0
    1b24:	54000040 	b.eq	1b2c <putchar+0x64>  // b.none
    1b28:	97fffa77 	bl	504 <__stack_chk_fail>
    1b2c:	f9400bf3 	ldr	x19, [sp, #16]
    1b30:	a8c37bfd 	ldp	x29, x30, [sp], #48
    1b34:	d65f03c0 	ret

0000000000001b38 <__utee_from_attr>:
__utee_from_attr():
/home/ssysarch/Desktop/nick/jetpack_5/Jetson_Linux_R35.4.1_aarch64/Linux_for_Tegra/sources/tegra/optee-src/nv-optee/optee/optee_os/lib/libutee/tee_api_objects.c:19
    1b38:	2a0203e2 	mov	w2, w2
    1b3c:	d2800003 	mov	x3, #0x0                   	// #0
/home/ssysarch/Desktop/nick/jetpack_5/Jetson_Linux_R35.4.1_aarch64/Linux_for_Tegra/sources/tegra/optee-src/nv-optee/optee/optee_os/lib/libutee/tee_api_objects.c:19 (discriminator 1)
    1b40:	eb03005f 	cmp	x2, x3
    1b44:	54000048 	b.hi	1b4c <__utee_from_attr+0x14>  // b.pmore
/home/ssysarch/Desktop/nick/jetpack_5/Jetson_Linux_R35.4.1_aarch64/Linux_for_Tegra/sources/tegra/optee-src/nv-optee/optee/optee_os/lib/libutee/tee_api_objects.c:29
    1b48:	d65f03c0 	ret
/home/ssysarch/Desktop/nick/jetpack_5/Jetson_Linux_R35.4.1_aarch64/Linux_for_Tegra/sources/tegra/optee-src/nv-optee/optee/optee_os/lib/libutee/tee_api_objects.c:20
    1b4c:	b9400024 	ldr	w4, [x1]
    1b50:	b9001004 	str	w4, [x0, #16]
/home/ssysarch/Desktop/nick/jetpack_5/Jetson_Linux_R35.4.1_aarch64/Linux_for_Tegra/sources/tegra/optee-src/nv-optee/optee/optee_os/lib/libutee/tee_api_objects.c:21
    1b54:	36e80124 	tbz	w4, #29, 1b78 <__utee_from_attr+0x40>
/home/ssysarch/Desktop/nick/jetpack_5/Jetson_Linux_R35.4.1_aarch64/Linux_for_Tegra/sources/tegra/optee-src/nv-optee/optee/optee_os/lib/libutee/tee_api_objects.c:22
    1b58:	b9400824 	ldr	w4, [x1, #8]
    1b5c:	f9000004 	str	x4, [x0]
/home/ssysarch/Desktop/nick/jetpack_5/Jetson_Linux_R35.4.1_aarch64/Linux_for_Tegra/sources/tegra/optee-src/nv-optee/optee/optee_os/lib/libutee/tee_api_objects.c:23
    1b60:	b9400c24 	ldr	w4, [x1, #12]
/home/ssysarch/Desktop/nick/jetpack_5/Jetson_Linux_R35.4.1_aarch64/Linux_for_Tegra/sources/tegra/optee-src/nv-optee/optee/optee_os/lib/libutee/tee_api_objects.c:19
    1b64:	91000463 	add	x3, x3, #0x1
    1b68:	91006021 	add	x1, x1, #0x18
    1b6c:	91006000 	add	x0, x0, #0x18
/home/ssysarch/Desktop/nick/jetpack_5/Jetson_Linux_R35.4.1_aarch64/Linux_for_Tegra/sources/tegra/optee-src/nv-optee/optee/optee_os/lib/libutee/tee_api_objects.c:26
    1b70:	f81f0004 	stur	x4, [x0, #-16]
/home/ssysarch/Desktop/nick/jetpack_5/Jetson_Linux_R35.4.1_aarch64/Linux_for_Tegra/sources/tegra/optee-src/nv-optee/optee/optee_os/lib/libutee/tee_api_objects.c:19
    1b74:	17fffff3 	b	1b40 <__utee_from_attr+0x8>
/home/ssysarch/Desktop/nick/jetpack_5/Jetson_Linux_R35.4.1_aarch64/Linux_for_Tegra/sources/tegra/optee-src/nv-optee/optee/optee_os/lib/libutee/tee_api_objects.c:25
    1b78:	f9400424 	ldr	x4, [x1, #8]
    1b7c:	f9000004 	str	x4, [x0]
/home/ssysarch/Desktop/nick/jetpack_5/Jetson_Linux_R35.4.1_aarch64/Linux_for_Tegra/sources/tegra/optee-src/nv-optee/optee/optee_os/lib/libutee/tee_api_objects.c:26
    1b80:	f9400824 	ldr	x4, [x1, #16]
    1b84:	17fffff8 	b	1b64 <__utee_from_attr+0x2c>

0000000000001b88 <__utee_from_gp11_attr>:
__utee_from_gp11_attr():
/home/ssysarch/Desktop/nick/jetpack_5/Jetson_Linux_R35.4.1_aarch64/Linux_for_Tegra/sources/tegra/optee-src/nv-optee/optee/optee_os/lib/libutee/tee_api_objects.c:37
    1b88:	2a0203e2 	mov	w2, w2
    1b8c:	d2800003 	mov	x3, #0x0                   	// #0
/home/ssysarch/Desktop/nick/jetpack_5/Jetson_Linux_R35.4.1_aarch64/Linux_for_Tegra/sources/tegra/optee-src/nv-optee/optee/optee_os/lib/libutee/tee_api_objects.c:37 (discriminator 1)
    1b90:	eb03005f 	cmp	x2, x3
    1b94:	54000048 	b.hi	1b9c <__utee_from_gp11_attr+0x14>  // b.pmore
/home/ssysarch/Desktop/nick/jetpack_5/Jetson_Linux_R35.4.1_aarch64/Linux_for_Tegra/sources/tegra/optee-src/nv-optee/optee/optee_os/lib/libutee/tee_api_objects.c:47
    1b98:	d65f03c0 	ret
/home/ssysarch/Desktop/nick/jetpack_5/Jetson_Linux_R35.4.1_aarch64/Linux_for_Tegra/sources/tegra/optee-src/nv-optee/optee/optee_os/lib/libutee/tee_api_objects.c:38
    1b9c:	b9400024 	ldr	w4, [x1]
    1ba0:	b9001004 	str	w4, [x0, #16]
/home/ssysarch/Desktop/nick/jetpack_5/Jetson_Linux_R35.4.1_aarch64/Linux_for_Tegra/sources/tegra/optee-src/nv-optee/optee/optee_os/lib/libutee/tee_api_objects.c:39
    1ba4:	36e80124 	tbz	w4, #29, 1bc8 <__utee_from_gp11_attr+0x40>
/home/ssysarch/Desktop/nick/jetpack_5/Jetson_Linux_R35.4.1_aarch64/Linux_for_Tegra/sources/tegra/optee-src/nv-optee/optee/optee_os/lib/libutee/tee_api_objects.c:40
    1ba8:	b9400824 	ldr	w4, [x1, #8]
    1bac:	f9000004 	str	x4, [x0]
/home/ssysarch/Desktop/nick/jetpack_5/Jetson_Linux_R35.4.1_aarch64/Linux_for_Tegra/sources/tegra/optee-src/nv-optee/optee/optee_os/lib/libutee/tee_api_objects.c:41
    1bb0:	b9400c24 	ldr	w4, [x1, #12]
/home/ssysarch/Desktop/nick/jetpack_5/Jetson_Linux_R35.4.1_aarch64/Linux_for_Tegra/sources/tegra/optee-src/nv-optee/optee/optee_os/lib/libutee/tee_api_objects.c:37
    1bb4:	91000463 	add	x3, x3, #0x1
    1bb8:	91006021 	add	x1, x1, #0x18
    1bbc:	91006000 	add	x0, x0, #0x18
/home/ssysarch/Desktop/nick/jetpack_5/Jetson_Linux_R35.4.1_aarch64/Linux_for_Tegra/sources/tegra/optee-src/nv-optee/optee/optee_os/lib/libutee/tee_api_objects.c:44
    1bc0:	f81f0004 	stur	x4, [x0, #-16]
/home/ssysarch/Desktop/nick/jetpack_5/Jetson_Linux_R35.4.1_aarch64/Linux_for_Tegra/sources/tegra/optee-src/nv-optee/optee/optee_os/lib/libutee/tee_api_objects.c:37
    1bc4:	17fffff3 	b	1b90 <__utee_from_gp11_attr+0x8>
/home/ssysarch/Desktop/nick/jetpack_5/Jetson_Linux_R35.4.1_aarch64/Linux_for_Tegra/sources/tegra/optee-src/nv-optee/optee/optee_os/lib/libutee/tee_api_objects.c:43
    1bc8:	f9400424 	ldr	x4, [x1, #8]
    1bcc:	f9000004 	str	x4, [x0]
/home/ssysarch/Desktop/nick/jetpack_5/Jetson_Linux_R35.4.1_aarch64/Linux_for_Tegra/sources/tegra/optee-src/nv-optee/optee/optee_os/lib/libutee/tee_api_objects.c:44
    1bd0:	b9401024 	ldr	w4, [x1, #16]
    1bd4:	17fffff8 	b	1bb4 <__utee_from_gp11_attr+0x2c>

0000000000001bd8 <TEE_GetObjectInfo>:
TEE_GetObjectInfo():
/home/ssysarch/Desktop/nick/jetpack_5/Jetson_Linux_R35.4.1_aarch64/Linux_for_Tegra/sources/tegra/optee-src/nv-optee/optee/optee_os/lib/libutee/tee_api_objects.c:57
    1bd8:	a9bb7bfd 	stp	x29, x30, [sp, #-80]!
    1bdc:	910003fd 	mov	x29, sp
    1be0:	f9000bf3 	str	x19, [sp, #16]
    1be4:	aa0103f3 	mov	x19, x1
    1be8:	900000c1 	adrp	x1, 19000 <_DYNAMIC>
/home/ssysarch/Desktop/nick/jetpack_5/Jetson_Linux_R35.4.1_aarch64/Linux_for_Tegra/sources/tegra/optee-src/nv-optee/optee/optee_os/lib/libutee/tee_api_objects.c:58
    1bec:	a902ffff 	stp	xzr, xzr, [sp, #40]
/home/ssysarch/Desktop/nick/jetpack_5/Jetson_Linux_R35.4.1_aarch64/Linux_for_Tegra/sources/tegra/optee-src/nv-optee/optee/optee_os/lib/libutee/tee_api_objects.c:57
    1bf0:	f9409821 	ldr	x1, [x1, #304]
/home/ssysarch/Desktop/nick/jetpack_5/Jetson_Linux_R35.4.1_aarch64/Linux_for_Tegra/sources/tegra/optee-src/nv-optee/optee/optee_os/lib/libutee/tee_api_objects.c:58
    1bf4:	f9001fff 	str	xzr, [sp, #56]
    1bf8:	b90043ff 	str	wzr, [sp, #64]
/home/ssysarch/Desktop/nick/jetpack_5/Jetson_Linux_R35.4.1_aarch64/Linux_for_Tegra/sources/tegra/optee-src/nv-optee/optee/optee_os/lib/libutee/tee_api_objects.c:57
    1bfc:	f9400022 	ldr	x2, [x1]
    1c00:	f90027e2 	str	x2, [sp, #72]
    1c04:	d2800002 	mov	x2, #0x0                   	// #0
/home/ssysarch/Desktop/nick/jetpack_5/Jetson_Linux_R35.4.1_aarch64/Linux_for_Tegra/sources/tegra/optee-src/nv-optee/optee/optee_os/lib/libutee/tee_api_objects.c:61
    1c08:	9100a3e1 	add	x1, sp, #0x28
    1c0c:	94001a7b 	bl	85f8 <_utee_cryp_obj_get_info>
/home/ssysarch/Desktop/nick/jetpack_5/Jetson_Linux_R35.4.1_aarch64/Linux_for_Tegra/sources/tegra/optee-src/nv-optee/optee/optee_os/lib/libutee/tee_api_objects.c:63
    1c10:	34000040 	cbz	w0, 1c18 <TEE_GetObjectInfo+0x40>
/home/ssysarch/Desktop/nick/jetpack_5/Jetson_Linux_R35.4.1_aarch64/Linux_for_Tegra/sources/tegra/optee-src/nv-optee/optee/optee_os/lib/libutee/tee_api_objects.c:64
    1c14:	940017a7 	bl	7ab0 <TEE_Panic>
/home/ssysarch/Desktop/nick/jetpack_5/Jetson_Linux_R35.4.1_aarch64/Linux_for_Tegra/sources/tegra/optee-src/nv-optee/optee/optee_os/lib/libutee/tee_api_objects.c:66
    1c18:	b9402be1 	ldr	w1, [sp, #40]
    1c1c:	528017c0 	mov	w0, #0xbe                  	// #190
    1c20:	72b40000 	movk	w0, #0xa000, lsl #16
    1c24:	6b00003f 	cmp	w1, w0
    1c28:	540001a1 	b.ne	1c5c <TEE_GetObjectInfo+0x84>  // b.any
/home/ssysarch/Desktop/nick/jetpack_5/Jetson_Linux_R35.4.1_aarch64/Linux_for_Tegra/sources/tegra/optee-src/nv-optee/optee/optee_os/lib/libutee/tee_api_objects.c:67
    1c2c:	b900067f 	str	wzr, [x19, #4]
/home/ssysarch/Desktop/nick/jetpack_5/Jetson_Linux_R35.4.1_aarch64/Linux_for_Tegra/sources/tegra/optee-src/nv-optee/optee/optee_os/lib/libutee/tee_api_objects.c:70
    1c30:	a900fe7f 	stp	xzr, xzr, [x19, #8]
/home/ssysarch/Desktop/nick/jetpack_5/Jetson_Linux_R35.4.1_aarch64/Linux_for_Tegra/sources/tegra/optee-src/nv-optee/optee/optee_os/lib/libutee/tee_api_objects.c:71
    1c34:	f9000e7f 	str	xzr, [x19, #24]
/home/ssysarch/Desktop/nick/jetpack_5/Jetson_Linux_R35.4.1_aarch64/Linux_for_Tegra/sources/tegra/optee-src/nv-optee/optee/optee_os/lib/libutee/tee_api_objects.c:72
    1c38:	b900227f 	str	wzr, [x19, #32]
/home/ssysarch/Desktop/nick/jetpack_5/Jetson_Linux_R35.4.1_aarch64/Linux_for_Tegra/sources/tegra/optee-src/nv-optee/optee/optee_os/lib/libutee/tee_api_objects.c:82
    1c3c:	900000c1 	adrp	x1, 19000 <_DYNAMIC>
    1c40:	f9409821 	ldr	x1, [x1, #304]
    1c44:	f94027e0 	ldr	x0, [sp, #72]
    1c48:	f9400022 	ldr	x2, [x1]
    1c4c:	eb020000 	subs	x0, x0, x2
    1c50:	d2800002 	mov	x2, #0x0                   	// #0
    1c54:	540001a0 	b.eq	1c88 <TEE_GetObjectInfo+0xb0>  // b.none
    1c58:	97fffa2b 	bl	504 <__stack_chk_fail>
/home/ssysarch/Desktop/nick/jetpack_5/Jetson_Linux_R35.4.1_aarch64/Linux_for_Tegra/sources/tegra/optee-src/nv-optee/optee/optee_os/lib/libutee/tee_api_objects.c:74
    1c5c:	f94017e0 	ldr	x0, [sp, #40]
    1c60:	f9000260 	str	x0, [x19]
/home/ssysarch/Desktop/nick/jetpack_5/Jetson_Linux_R35.4.1_aarch64/Linux_for_Tegra/sources/tegra/optee-src/nv-optee/optee/optee_os/lib/libutee/tee_api_objects.c:76
    1c64:	f9401be0 	ldr	x0, [sp, #48]
    1c68:	f9000660 	str	x0, [x19, #8]
/home/ssysarch/Desktop/nick/jetpack_5/Jetson_Linux_R35.4.1_aarch64/Linux_for_Tegra/sources/tegra/optee-src/nv-optee/optee/optee_os/lib/libutee/tee_api_objects.c:78
    1c6c:	b9403be0 	ldr	w0, [sp, #56]
    1c70:	f9000a60 	str	x0, [x19, #16]
/home/ssysarch/Desktop/nick/jetpack_5/Jetson_Linux_R35.4.1_aarch64/Linux_for_Tegra/sources/tegra/optee-src/nv-optee/optee/optee_os/lib/libutee/tee_api_objects.c:79
    1c74:	b9403fe0 	ldr	w0, [sp, #60]
    1c78:	f9000e60 	str	x0, [x19, #24]
/home/ssysarch/Desktop/nick/jetpack_5/Jetson_Linux_R35.4.1_aarch64/Linux_for_Tegra/sources/tegra/optee-src/nv-optee/optee/optee_os/lib/libutee/tee_api_objects.c:80
    1c7c:	b94043e0 	ldr	w0, [sp, #64]
    1c80:	b9002260 	str	w0, [x19, #32]
/home/ssysarch/Desktop/nick/jetpack_5/Jetson_Linux_R35.4.1_aarch64/Linux_for_Tegra/sources/tegra/optee-src/nv-optee/optee/optee_os/lib/libutee/tee_api_objects.c:82
    1c84:	17ffffee 	b	1c3c <TEE_GetObjectInfo+0x64>
    1c88:	f9400bf3 	ldr	x19, [sp, #16]
    1c8c:	a8c57bfd 	ldp	x29, x30, [sp], #80
    1c90:	d65f03c0 	ret

0000000000001c94 <__GP11_TEE_GetObjectInfo>:
__GP11_TEE_GetObjectInfo():
/home/ssysarch/Desktop/nick/jetpack_5/Jetson_Linux_R35.4.1_aarch64/Linux_for_Tegra/sources/tegra/optee-src/nv-optee/optee/optee_os/lib/libutee/tee_api_objects.c:86
    1c94:	a9bb7bfd 	stp	x29, x30, [sp, #-80]!
    1c98:	910003fd 	mov	x29, sp
    1c9c:	f9000bf3 	str	x19, [sp, #16]
    1ca0:	aa0103f3 	mov	x19, x1
    1ca4:	900000c1 	adrp	x1, 19000 <_DYNAMIC>
/home/ssysarch/Desktop/nick/jetpack_5/Jetson_Linux_R35.4.1_aarch64/Linux_for_Tegra/sources/tegra/optee-src/nv-optee/optee/optee_os/lib/libutee/tee_api_objects.c:87
    1ca8:	a902ffff 	stp	xzr, xzr, [sp, #40]
/home/ssysarch/Desktop/nick/jetpack_5/Jetson_Linux_R35.4.1_aarch64/Linux_for_Tegra/sources/tegra/optee-src/nv-optee/optee/optee_os/lib/libutee/tee_api_objects.c:86
    1cac:	f9409821 	ldr	x1, [x1, #304]
/home/ssysarch/Desktop/nick/jetpack_5/Jetson_Linux_R35.4.1_aarch64/Linux_for_Tegra/sources/tegra/optee-src/nv-optee/optee/optee_os/lib/libutee/tee_api_objects.c:87
    1cb0:	f9001fff 	str	xzr, [sp, #56]
    1cb4:	b90043ff 	str	wzr, [sp, #64]
/home/ssysarch/Desktop/nick/jetpack_5/Jetson_Linux_R35.4.1_aarch64/Linux_for_Tegra/sources/tegra/optee-src/nv-optee/optee/optee_os/lib/libutee/tee_api_objects.c:86
    1cb8:	f9400022 	ldr	x2, [x1]
    1cbc:	f90027e2 	str	x2, [sp, #72]
    1cc0:	d2800002 	mov	x2, #0x0                   	// #0
/home/ssysarch/Desktop/nick/jetpack_5/Jetson_Linux_R35.4.1_aarch64/Linux_for_Tegra/sources/tegra/optee-src/nv-optee/optee/optee_os/lib/libutee/tee_api_objects.c:90
    1cc4:	9100a3e1 	add	x1, sp, #0x28
    1cc8:	94001a4c 	bl	85f8 <_utee_cryp_obj_get_info>
/home/ssysarch/Desktop/nick/jetpack_5/Jetson_Linux_R35.4.1_aarch64/Linux_for_Tegra/sources/tegra/optee-src/nv-optee/optee/optee_os/lib/libutee/tee_api_objects.c:92
    1ccc:	34000040 	cbz	w0, 1cd4 <__GP11_TEE_GetObjectInfo+0x40>
/home/ssysarch/Desktop/nick/jetpack_5/Jetson_Linux_R35.4.1_aarch64/Linux_for_Tegra/sources/tegra/optee-src/nv-optee/optee/optee_os/lib/libutee/tee_api_objects.c:93
    1cd0:	94001778 	bl	7ab0 <TEE_Panic>
/home/ssysarch/Desktop/nick/jetpack_5/Jetson_Linux_R35.4.1_aarch64/Linux_for_Tegra/sources/tegra/optee-src/nv-optee/optee/optee_os/lib/libutee/tee_api_objects.c:95
    1cd4:	b9402be0 	ldr	w0, [sp, #40]
    1cd8:	528017c1 	mov	w1, #0xbe                  	// #190
    1cdc:	72b40001 	movk	w1, #0xa000, lsl #16
    1ce0:	6b01001f 	cmp	w0, w1
    1ce4:	54000181 	b.ne	1d14 <__GP11_TEE_GetObjectInfo+0x80>  // b.any
/home/ssysarch/Desktop/nick/jetpack_5/Jetson_Linux_R35.4.1_aarch64/Linux_for_Tegra/sources/tegra/optee-src/nv-optee/optee/optee_os/lib/libutee/tee_api_objects.c:97
    1ce8:	2900fe7f 	stp	wzr, wzr, [x19, #4]
/home/ssysarch/Desktop/nick/jetpack_5/Jetson_Linux_R35.4.1_aarch64/Linux_for_Tegra/sources/tegra/optee-src/nv-optee/optee/optee_os/lib/libutee/tee_api_objects.c:99
    1cec:	2901fe7f 	stp	wzr, wzr, [x19, #12]
/home/ssysarch/Desktop/nick/jetpack_5/Jetson_Linux_R35.4.1_aarch64/Linux_for_Tegra/sources/tegra/optee-src/nv-optee/optee/optee_os/lib/libutee/tee_api_objects.c:101
    1cf0:	2902fe7f 	stp	wzr, wzr, [x19, #20]
/home/ssysarch/Desktop/nick/jetpack_5/Jetson_Linux_R35.4.1_aarch64/Linux_for_Tegra/sources/tegra/optee-src/nv-optee/optee/optee_os/lib/libutee/tee_api_objects.c:111
    1cf4:	900000c1 	adrp	x1, 19000 <_DYNAMIC>
    1cf8:	f9409821 	ldr	x1, [x1, #304]
    1cfc:	f94027e0 	ldr	x0, [sp, #72]
    1d00:	f9400022 	ldr	x2, [x1]
    1d04:	eb020000 	subs	x0, x0, x2
    1d08:	d2800002 	mov	x2, #0x0                   	// #0
    1d0c:	54000200 	b.eq	1d4c <__GP11_TEE_GetObjectInfo+0xb8>  // b.none
    1d10:	97fff9fd 	bl	504 <__stack_chk_fail>
/home/ssysarch/Desktop/nick/jetpack_5/Jetson_Linux_R35.4.1_aarch64/Linux_for_Tegra/sources/tegra/optee-src/nv-optee/optee/optee_os/lib/libutee/tee_api_objects.c:103
    1d14:	b9000260 	str	w0, [x19]
/home/ssysarch/Desktop/nick/jetpack_5/Jetson_Linux_R35.4.1_aarch64/Linux_for_Tegra/sources/tegra/optee-src/nv-optee/optee/optee_os/lib/libutee/tee_api_objects.c:104
    1d18:	b9402fe0 	ldr	w0, [sp, #44]
    1d1c:	b9000660 	str	w0, [x19, #4]
/home/ssysarch/Desktop/nick/jetpack_5/Jetson_Linux_R35.4.1_aarch64/Linux_for_Tegra/sources/tegra/optee-src/nv-optee/optee/optee_os/lib/libutee/tee_api_objects.c:105
    1d20:	b94033e0 	ldr	w0, [sp, #48]
    1d24:	b9000a60 	str	w0, [x19, #8]
/home/ssysarch/Desktop/nick/jetpack_5/Jetson_Linux_R35.4.1_aarch64/Linux_for_Tegra/sources/tegra/optee-src/nv-optee/optee/optee_os/lib/libutee/tee_api_objects.c:106
    1d28:	b94037e0 	ldr	w0, [sp, #52]
    1d2c:	b9000e60 	str	w0, [x19, #12]
/home/ssysarch/Desktop/nick/jetpack_5/Jetson_Linux_R35.4.1_aarch64/Linux_for_Tegra/sources/tegra/optee-src/nv-optee/optee/optee_os/lib/libutee/tee_api_objects.c:107
    1d30:	b9403be0 	ldr	w0, [sp, #56]
    1d34:	b9001260 	str	w0, [x19, #16]
/home/ssysarch/Desktop/nick/jetpack_5/Jetson_Linux_R35.4.1_aarch64/Linux_for_Tegra/sources/tegra/optee-src/nv-optee/optee/optee_os/lib/libutee/tee_api_objects.c:108
    1d38:	b9403fe0 	ldr	w0, [sp, #60]
    1d3c:	b9001660 	str	w0, [x19, #20]
/home/ssysarch/Desktop/nick/jetpack_5/Jetson_Linux_R35.4.1_aarch64/Linux_for_Tegra/sources/tegra/optee-src/nv-optee/optee/optee_os/lib/libutee/tee_api_objects.c:109
    1d40:	b94043e0 	ldr	w0, [sp, #64]
    1d44:	b9001a60 	str	w0, [x19, #24]
/home/ssysarch/Desktop/nick/jetpack_5/Jetson_Linux_R35.4.1_aarch64/Linux_for_Tegra/sources/tegra/optee-src/nv-optee/optee/optee_os/lib/libutee/tee_api_objects.c:111
    1d48:	17ffffeb 	b	1cf4 <__GP11_TEE_GetObjectInfo+0x60>
    1d4c:	f9400bf3 	ldr	x19, [sp, #16]
    1d50:	a8c57bfd 	ldp	x29, x30, [sp], #80
    1d54:	d65f03c0 	ret

0000000000001d58 <TEE_GetObjectInfo1>:
TEE_GetObjectInfo1():
/home/ssysarch/Desktop/nick/jetpack_5/Jetson_Linux_R35.4.1_aarch64/Linux_for_Tegra/sources/tegra/optee-src/nv-optee/optee/optee_os/lib/libutee/tee_api_objects.c:115
    1d58:	a9bb7bfd 	stp	x29, x30, [sp, #-80]!
    1d5c:	900000c2 	adrp	x2, 19000 <_DYNAMIC>
    1d60:	910003fd 	mov	x29, sp
    1d64:	f9409842 	ldr	x2, [x2, #304]
    1d68:	a90153f3 	stp	x19, x20, [sp, #16]
    1d6c:	aa0103f3 	mov	x19, x1
    1d70:	f9400041 	ldr	x1, [x2]
    1d74:	f90027e1 	str	x1, [sp, #72]
    1d78:	d2800001 	mov	x1, #0x0                   	// #0
/home/ssysarch/Desktop/nick/jetpack_5/Jetson_Linux_R35.4.1_aarch64/Linux_for_Tegra/sources/tegra/optee-src/nv-optee/optee/optee_os/lib/libutee/tee_api_objects.c:116
    1d7c:	a902ffff 	stp	xzr, xzr, [sp, #40]
/home/ssysarch/Desktop/nick/jetpack_5/Jetson_Linux_R35.4.1_aarch64/Linux_for_Tegra/sources/tegra/optee-src/nv-optee/optee/optee_os/lib/libutee/tee_api_objects.c:119
    1d80:	9100a3e1 	add	x1, sp, #0x28
/home/ssysarch/Desktop/nick/jetpack_5/Jetson_Linux_R35.4.1_aarch64/Linux_for_Tegra/sources/tegra/optee-src/nv-optee/optee/optee_os/lib/libutee/tee_api_objects.c:116
    1d84:	f9001fff 	str	xzr, [sp, #56]
    1d88:	b90043ff 	str	wzr, [sp, #64]
/home/ssysarch/Desktop/nick/jetpack_5/Jetson_Linux_R35.4.1_aarch64/Linux_for_Tegra/sources/tegra/optee-src/nv-optee/optee/optee_os/lib/libutee/tee_api_objects.c:119
    1d8c:	94001a1b 	bl	85f8 <_utee_cryp_obj_get_info>
/home/ssysarch/Desktop/nick/jetpack_5/Jetson_Linux_R35.4.1_aarch64/Linux_for_Tegra/sources/tegra/optee-src/nv-optee/optee/optee_os/lib/libutee/tee_api_objects.c:122
    1d90:	121e7802 	and	w2, w0, #0xfffffffd
/home/ssysarch/Desktop/nick/jetpack_5/Jetson_Linux_R35.4.1_aarch64/Linux_for_Tegra/sources/tegra/optee-src/nv-optee/optee/optee_os/lib/libutee/tee_api_objects.c:121
    1d94:	7100001f 	cmp	w0, #0x0
    1d98:	52800021 	mov	w1, #0x1                   	// #1
    1d9c:	72be0201 	movk	w1, #0xf010, lsl #16
/home/ssysarch/Desktop/nick/jetpack_5/Jetson_Linux_R35.4.1_aarch64/Linux_for_Tegra/sources/tegra/optee-src/nv-optee/optee/optee_os/lib/libutee/tee_api_objects.c:119
    1da0:	2a0003f4 	mov	w20, w0
/home/ssysarch/Desktop/nick/jetpack_5/Jetson_Linux_R35.4.1_aarch64/Linux_for_Tegra/sources/tegra/optee-src/nv-optee/optee/optee_os/lib/libutee/tee_api_objects.c:121
    1da4:	7a411044 	ccmp	w2, w1, #0x4, ne  // ne = any
    1da8:	54000040 	b.eq	1db0 <TEE_GetObjectInfo1+0x58>  // b.none
/home/ssysarch/Desktop/nick/jetpack_5/Jetson_Linux_R35.4.1_aarch64/Linux_for_Tegra/sources/tegra/optee-src/nv-optee/optee/optee_os/lib/libutee/tee_api_objects.c:124
    1dac:	94001741 	bl	7ab0 <TEE_Panic>
/home/ssysarch/Desktop/nick/jetpack_5/Jetson_Linux_R35.4.1_aarch64/Linux_for_Tegra/sources/tegra/optee-src/nv-optee/optee/optee_os/lib/libutee/tee_api_objects.c:126
    1db0:	f94017e0 	ldr	x0, [sp, #40]
    1db4:	f9000260 	str	x0, [x19]
/home/ssysarch/Desktop/nick/jetpack_5/Jetson_Linux_R35.4.1_aarch64/Linux_for_Tegra/sources/tegra/optee-src/nv-optee/optee/optee_os/lib/libutee/tee_api_objects.c:128
    1db8:	f9401be0 	ldr	x0, [sp, #48]
/home/ssysarch/Desktop/nick/jetpack_5/Jetson_Linux_R35.4.1_aarch64/Linux_for_Tegra/sources/tegra/optee-src/nv-optee/optee/optee_os/lib/libutee/tee_api_objects.c:135
    1dbc:	900000c2 	adrp	x2, 19000 <_DYNAMIC>
/home/ssysarch/Desktop/nick/jetpack_5/Jetson_Linux_R35.4.1_aarch64/Linux_for_Tegra/sources/tegra/optee-src/nv-optee/optee/optee_os/lib/libutee/tee_api_objects.c:128
    1dc0:	f9000660 	str	x0, [x19, #8]
/home/ssysarch/Desktop/nick/jetpack_5/Jetson_Linux_R35.4.1_aarch64/Linux_for_Tegra/sources/tegra/optee-src/nv-optee/optee/optee_os/lib/libutee/tee_api_objects.c:130
    1dc4:	b9403be0 	ldr	w0, [sp, #56]
    1dc8:	f9000a60 	str	x0, [x19, #16]
/home/ssysarch/Desktop/nick/jetpack_5/Jetson_Linux_R35.4.1_aarch64/Linux_for_Tegra/sources/tegra/optee-src/nv-optee/optee/optee_os/lib/libutee/tee_api_objects.c:131
    1dcc:	b9403fe0 	ldr	w0, [sp, #60]
/home/ssysarch/Desktop/nick/jetpack_5/Jetson_Linux_R35.4.1_aarch64/Linux_for_Tegra/sources/tegra/optee-src/nv-optee/optee/optee_os/lib/libutee/tee_api_objects.c:135
    1dd0:	f9409842 	ldr	x2, [x2, #304]
/home/ssysarch/Desktop/nick/jetpack_5/Jetson_Linux_R35.4.1_aarch64/Linux_for_Tegra/sources/tegra/optee-src/nv-optee/optee/optee_os/lib/libutee/tee_api_objects.c:131
    1dd4:	f9000e60 	str	x0, [x19, #24]
/home/ssysarch/Desktop/nick/jetpack_5/Jetson_Linux_R35.4.1_aarch64/Linux_for_Tegra/sources/tegra/optee-src/nv-optee/optee/optee_os/lib/libutee/tee_api_objects.c:132
    1dd8:	b94043e0 	ldr	w0, [sp, #64]
    1ddc:	b9002260 	str	w0, [x19, #32]
/home/ssysarch/Desktop/nick/jetpack_5/Jetson_Linux_R35.4.1_aarch64/Linux_for_Tegra/sources/tegra/optee-src/nv-optee/optee/optee_os/lib/libutee/tee_api_objects.c:135
    1de0:	f94027e0 	ldr	x0, [sp, #72]
    1de4:	f9400041 	ldr	x1, [x2]
    1de8:	eb010000 	subs	x0, x0, x1
    1dec:	d2800001 	mov	x1, #0x0                   	// #0
    1df0:	54000040 	b.eq	1df8 <TEE_GetObjectInfo1+0xa0>  // b.none
    1df4:	97fff9c4 	bl	504 <__stack_chk_fail>
    1df8:	2a1403e0 	mov	w0, w20
    1dfc:	a94153f3 	ldp	x19, x20, [sp, #16]
    1e00:	a8c57bfd 	ldp	x29, x30, [sp], #80
    1e04:	d65f03c0 	ret

0000000000001e08 <__GP11_TEE_GetObjectInfo1>:
__GP11_TEE_GetObjectInfo1():
/home/ssysarch/Desktop/nick/jetpack_5/Jetson_Linux_R35.4.1_aarch64/Linux_for_Tegra/sources/tegra/optee-src/nv-optee/optee/optee_os/lib/libutee/tee_api_objects.c:139
    1e08:	a9bb7bfd 	stp	x29, x30, [sp, #-80]!
    1e0c:	910003fd 	mov	x29, sp
    1e10:	a90153f3 	stp	x19, x20, [sp, #16]
    1e14:	aa0103f3 	mov	x19, x1
    1e18:	900000c1 	adrp	x1, 19000 <_DYNAMIC>
/home/ssysarch/Desktop/nick/jetpack_5/Jetson_Linux_R35.4.1_aarch64/Linux_for_Tegra/sources/tegra/optee-src/nv-optee/optee/optee_os/lib/libutee/tee_api_objects.c:140
    1e1c:	a902ffff 	stp	xzr, xzr, [sp, #40]
/home/ssysarch/Desktop/nick/jetpack_5/Jetson_Linux_R35.4.1_aarch64/Linux_for_Tegra/sources/tegra/optee-src/nv-optee/optee/optee_os/lib/libutee/tee_api_objects.c:139
    1e20:	f9409821 	ldr	x1, [x1, #304]
/home/ssysarch/Desktop/nick/jetpack_5/Jetson_Linux_R35.4.1_aarch64/Linux_for_Tegra/sources/tegra/optee-src/nv-optee/optee/optee_os/lib/libutee/tee_api_objects.c:140
    1e24:	f9001fff 	str	xzr, [sp, #56]
    1e28:	b90043ff 	str	wzr, [sp, #64]
/home/ssysarch/Desktop/nick/jetpack_5/Jetson_Linux_R35.4.1_aarch64/Linux_for_Tegra/sources/tegra/optee-src/nv-optee/optee/optee_os/lib/libutee/tee_api_objects.c:139
    1e2c:	f9400022 	ldr	x2, [x1]
    1e30:	f90027e2 	str	x2, [sp, #72]
    1e34:	d2800002 	mov	x2, #0x0                   	// #0
/home/ssysarch/Desktop/nick/jetpack_5/Jetson_Linux_R35.4.1_aarch64/Linux_for_Tegra/sources/tegra/optee-src/nv-optee/optee/optee_os/lib/libutee/tee_api_objects.c:143
    1e38:	9100a3e1 	add	x1, sp, #0x28
    1e3c:	940019ef 	bl	85f8 <_utee_cryp_obj_get_info>
/home/ssysarch/Desktop/nick/jetpack_5/Jetson_Linux_R35.4.1_aarch64/Linux_for_Tegra/sources/tegra/optee-src/nv-optee/optee/optee_os/lib/libutee/tee_api_objects.c:146
    1e40:	121e7802 	and	w2, w0, #0xfffffffd
/home/ssysarch/Desktop/nick/jetpack_5/Jetson_Linux_R35.4.1_aarch64/Linux_for_Tegra/sources/tegra/optee-src/nv-optee/optee/optee_os/lib/libutee/tee_api_objects.c:145
    1e44:	7100001f 	cmp	w0, #0x0
    1e48:	52800021 	mov	w1, #0x1                   	// #1
    1e4c:	72be0201 	movk	w1, #0xf010, lsl #16
/home/ssysarch/Desktop/nick/jetpack_5/Jetson_Linux_R35.4.1_aarch64/Linux_for_Tegra/sources/tegra/optee-src/nv-optee/optee/optee_os/lib/libutee/tee_api_objects.c:143
    1e50:	2a0003f4 	mov	w20, w0
/home/ssysarch/Desktop/nick/jetpack_5/Jetson_Linux_R35.4.1_aarch64/Linux_for_Tegra/sources/tegra/optee-src/nv-optee/optee/optee_os/lib/libutee/tee_api_objects.c:145
    1e54:	7a411044 	ccmp	w2, w1, #0x4, ne  // ne = any
    1e58:	54000040 	b.eq	1e60 <__GP11_TEE_GetObjectInfo1+0x58>  // b.none
/home/ssysarch/Desktop/nick/jetpack_5/Jetson_Linux_R35.4.1_aarch64/Linux_for_Tegra/sources/tegra/optee-src/nv-optee/optee/optee_os/lib/libutee/tee_api_objects.c:148
    1e5c:	94001715 	bl	7ab0 <TEE_Panic>
/home/ssysarch/Desktop/nick/jetpack_5/Jetson_Linux_R35.4.1_aarch64/Linux_for_Tegra/sources/tegra/optee-src/nv-optee/optee/optee_os/lib/libutee/tee_api_objects.c:150
    1e60:	b9402be0 	ldr	w0, [sp, #40]
/home/ssysarch/Desktop/nick/jetpack_5/Jetson_Linux_R35.4.1_aarch64/Linux_for_Tegra/sources/tegra/optee-src/nv-optee/optee/optee_os/lib/libutee/tee_api_objects.c:159
    1e64:	900000c1 	adrp	x1, 19000 <_DYNAMIC>
/home/ssysarch/Desktop/nick/jetpack_5/Jetson_Linux_R35.4.1_aarch64/Linux_for_Tegra/sources/tegra/optee-src/nv-optee/optee/optee_os/lib/libutee/tee_api_objects.c:150
    1e68:	b9000260 	str	w0, [x19]
/home/ssysarch/Desktop/nick/jetpack_5/Jetson_Linux_R35.4.1_aarch64/Linux_for_Tegra/sources/tegra/optee-src/nv-optee/optee/optee_os/lib/libutee/tee_api_objects.c:151
    1e6c:	b9402fe0 	ldr	w0, [sp, #44]
    1e70:	b9000660 	str	w0, [x19, #4]
/home/ssysarch/Desktop/nick/jetpack_5/Jetson_Linux_R35.4.1_aarch64/Linux_for_Tegra/sources/tegra/optee-src/nv-optee/optee/optee_os/lib/libutee/tee_api_objects.c:152
    1e74:	b94033e0 	ldr	w0, [sp, #48]
    1e78:	b9000a60 	str	w0, [x19, #8]
/home/ssysarch/Desktop/nick/jetpack_5/Jetson_Linux_R35.4.1_aarch64/Linux_for_Tegra/sources/tegra/optee-src/nv-optee/optee/optee_os/lib/libutee/tee_api_objects.c:153
    1e7c:	b94037e0 	ldr	w0, [sp, #52]
    1e80:	b9000e60 	str	w0, [x19, #12]
/home/ssysarch/Desktop/nick/jetpack_5/Jetson_Linux_R35.4.1_aarch64/Linux_for_Tegra/sources/tegra/optee-src/nv-optee/optee/optee_os/lib/libutee/tee_api_objects.c:154
    1e84:	b9403be0 	ldr	w0, [sp, #56]
    1e88:	b9001260 	str	w0, [x19, #16]
/home/ssysarch/Desktop/nick/jetpack_5/Jetson_Linux_R35.4.1_aarch64/Linux_for_Tegra/sources/tegra/optee-src/nv-optee/optee/optee_os/lib/libutee/tee_api_objects.c:155
    1e8c:	b9403fe0 	ldr	w0, [sp, #60]
/home/ssysarch/Desktop/nick/jetpack_5/Jetson_Linux_R35.4.1_aarch64/Linux_for_Tegra/sources/tegra/optee-src/nv-optee/optee/optee_os/lib/libutee/tee_api_objects.c:159
    1e90:	f9409821 	ldr	x1, [x1, #304]
/home/ssysarch/Desktop/nick/jetpack_5/Jetson_Linux_R35.4.1_aarch64/Linux_for_Tegra/sources/tegra/optee-src/nv-optee/optee/optee_os/lib/libutee/tee_api_objects.c:155
    1e94:	b9001660 	str	w0, [x19, #20]
/home/ssysarch/Desktop/nick/jetpack_5/Jetson_Linux_R35.4.1_aarch64/Linux_for_Tegra/sources/tegra/optee-src/nv-optee/optee/optee_os/lib/libutee/tee_api_objects.c:156
    1e98:	b94043e0 	ldr	w0, [sp, #64]
    1e9c:	b9001a60 	str	w0, [x19, #24]
/home/ssysarch/Desktop/nick/jetpack_5/Jetson_Linux_R35.4.1_aarch64/Linux_for_Tegra/sources/tegra/optee-src/nv-optee/optee/optee_os/lib/libutee/tee_api_objects.c:159
    1ea0:	f94027e0 	ldr	x0, [sp, #72]
    1ea4:	f9400022 	ldr	x2, [x1]
    1ea8:	eb020000 	subs	x0, x0, x2
    1eac:	d2800002 	mov	x2, #0x0                   	// #0
    1eb0:	54000040 	b.eq	1eb8 <__GP11_TEE_GetObjectInfo1+0xb0>  // b.none
    1eb4:	97fff994 	bl	504 <__stack_chk_fail>
    1eb8:	2a1403e0 	mov	w0, w20
    1ebc:	a94153f3 	ldp	x19, x20, [sp, #16]
    1ec0:	a8c57bfd 	ldp	x29, x30, [sp], #80
    1ec4:	d65f03c0 	ret

0000000000001ec8 <TEE_RestrictObjectUsage1>:
TEE_RestrictObjectUsage1():
/home/ssysarch/Desktop/nick/jetpack_5/Jetson_Linux_R35.4.1_aarch64/Linux_for_Tegra/sources/tegra/optee-src/nv-optee/optee/optee_os/lib/libutee/tee_api_objects.c:183
    1ec8:	a9be7bfd 	stp	x29, x30, [sp, #-32]!
/home/ssysarch/Desktop/nick/jetpack_5/Jetson_Linux_R35.4.1_aarch64/Linux_for_Tegra/sources/tegra/optee-src/nv-optee/optee/optee_os/lib/libutee/tee_api_objects.c:186
    1ecc:	2a0103e1 	mov	w1, w1
/home/ssysarch/Desktop/nick/jetpack_5/Jetson_Linux_R35.4.1_aarch64/Linux_for_Tegra/sources/tegra/optee-src/nv-optee/optee/optee_os/lib/libutee/tee_api_objects.c:183
    1ed0:	910003fd 	mov	x29, sp
    1ed4:	f9000bf3 	str	x19, [sp, #16]
/home/ssysarch/Desktop/nick/jetpack_5/Jetson_Linux_R35.4.1_aarch64/Linux_for_Tegra/sources/tegra/optee-src/nv-optee/optee/optee_os/lib/libutee/tee_api_objects.c:186
    1ed8:	940019cb 	bl	8604 <_utee_cryp_obj_restrict_usage>
/home/ssysarch/Desktop/nick/jetpack_5/Jetson_Linux_R35.4.1_aarch64/Linux_for_Tegra/sources/tegra/optee-src/nv-optee/optee/optee_os/lib/libutee/tee_api_objects.c:190
    1edc:	121e7802 	and	w2, w0, #0xfffffffd
/home/ssysarch/Desktop/nick/jetpack_5/Jetson_Linux_R35.4.1_aarch64/Linux_for_Tegra/sources/tegra/optee-src/nv-optee/optee/optee_os/lib/libutee/tee_api_objects.c:189
    1ee0:	7100001f 	cmp	w0, #0x0
    1ee4:	52800021 	mov	w1, #0x1                   	// #1
    1ee8:	72be0201 	movk	w1, #0xf010, lsl #16
/home/ssysarch/Desktop/nick/jetpack_5/Jetson_Linux_R35.4.1_aarch64/Linux_for_Tegra/sources/tegra/optee-src/nv-optee/optee/optee_os/lib/libutee/tee_api_objects.c:186
    1eec:	2a0003f3 	mov	w19, w0
/home/ssysarch/Desktop/nick/jetpack_5/Jetson_Linux_R35.4.1_aarch64/Linux_for_Tegra/sources/tegra/optee-src/nv-optee/optee/optee_os/lib/libutee/tee_api_objects.c:189
    1ef0:	7a411044 	ccmp	w2, w1, #0x4, ne  // ne = any
    1ef4:	54000040 	b.eq	1efc <TEE_RestrictObjectUsage1+0x34>  // b.none
/home/ssysarch/Desktop/nick/jetpack_5/Jetson_Linux_R35.4.1_aarch64/Linux_for_Tegra/sources/tegra/optee-src/nv-optee/optee/optee_os/lib/libutee/tee_api_objects.c:192
    1ef8:	940016ee 	bl	7ab0 <TEE_Panic>
/home/ssysarch/Desktop/nick/jetpack_5/Jetson_Linux_R35.4.1_aarch64/Linux_for_Tegra/sources/tegra/optee-src/nv-optee/optee/optee_os/lib/libutee/tee_api_objects.c:195
    1efc:	2a1303e0 	mov	w0, w19
    1f00:	f9400bf3 	ldr	x19, [sp, #16]
    1f04:	a8c27bfd 	ldp	x29, x30, [sp], #32
    1f08:	d65f03c0 	ret

0000000000001f0c <TEE_RestrictObjectUsage>:
TEE_RestrictObjectUsage():
/home/ssysarch/Desktop/nick/jetpack_5/Jetson_Linux_R35.4.1_aarch64/Linux_for_Tegra/sources/tegra/optee-src/nv-optee/optee/optee_os/lib/libutee/tee_api_objects.c:168
    1f0c:	a9bb7bfd 	stp	x29, x30, [sp, #-80]!
    1f10:	900000c2 	adrp	x2, 19000 <_DYNAMIC>
    1f14:	910003fd 	mov	x29, sp
    1f18:	f9409842 	ldr	x2, [x2, #304]
    1f1c:	a90153f3 	stp	x19, x20, [sp, #16]
    1f20:	2a0103f4 	mov	w20, w1
    1f24:	f9400041 	ldr	x1, [x2]
    1f28:	f90027e1 	str	x1, [sp, #72]
    1f2c:	d2800001 	mov	x1, #0x0                   	// #0
    1f30:	aa0003f3 	mov	x19, x0
/home/ssysarch/Desktop/nick/jetpack_5/Jetson_Linux_R35.4.1_aarch64/Linux_for_Tegra/sources/tegra/optee-src/nv-optee/optee/optee_os/lib/libutee/tee_api_objects.c:172
    1f34:	9100a3e1 	add	x1, sp, #0x28
/home/ssysarch/Desktop/nick/jetpack_5/Jetson_Linux_R35.4.1_aarch64/Linux_for_Tegra/sources/tegra/optee-src/nv-optee/optee/optee_os/lib/libutee/tee_api_objects.c:169
    1f38:	a902ffff 	stp	xzr, xzr, [sp, #40]
    1f3c:	f9001fff 	str	xzr, [sp, #56]
    1f40:	b90043ff 	str	wzr, [sp, #64]
/home/ssysarch/Desktop/nick/jetpack_5/Jetson_Linux_R35.4.1_aarch64/Linux_for_Tegra/sources/tegra/optee-src/nv-optee/optee/optee_os/lib/libutee/tee_api_objects.c:172
    1f44:	940019ad 	bl	85f8 <_utee_cryp_obj_get_info>
/home/ssysarch/Desktop/nick/jetpack_5/Jetson_Linux_R35.4.1_aarch64/Linux_for_Tegra/sources/tegra/optee-src/nv-optee/optee/optee_os/lib/libutee/tee_api_objects.c:173
    1f48:	b9402be1 	ldr	w1, [sp, #40]
    1f4c:	528017c0 	mov	w0, #0xbe                  	// #190
    1f50:	72b40000 	movk	w0, #0xa000, lsl #16
    1f54:	6b00003f 	cmp	w1, w0
    1f58:	540000c0 	b.eq	1f70 <TEE_RestrictObjectUsage+0x64>  // b.none
/home/ssysarch/Desktop/nick/jetpack_5/Jetson_Linux_R35.4.1_aarch64/Linux_for_Tegra/sources/tegra/optee-src/nv-optee/optee/optee_os/lib/libutee/tee_api_objects.c:176
    1f5c:	2a1403e1 	mov	w1, w20
    1f60:	aa1303e0 	mov	x0, x19
    1f64:	97ffffd9 	bl	1ec8 <TEE_RestrictObjectUsage1>
/home/ssysarch/Desktop/nick/jetpack_5/Jetson_Linux_R35.4.1_aarch64/Linux_for_Tegra/sources/tegra/optee-src/nv-optee/optee/optee_os/lib/libutee/tee_api_objects.c:178
    1f68:	34000040 	cbz	w0, 1f70 <TEE_RestrictObjectUsage+0x64>
/home/ssysarch/Desktop/nick/jetpack_5/Jetson_Linux_R35.4.1_aarch64/Linux_for_Tegra/sources/tegra/optee-src/nv-optee/optee/optee_os/lib/libutee/tee_api_objects.c:179
    1f6c:	940016d1 	bl	7ab0 <TEE_Panic>
/home/ssysarch/Desktop/nick/jetpack_5/Jetson_Linux_R35.4.1_aarch64/Linux_for_Tegra/sources/tegra/optee-src/nv-optee/optee/optee_os/lib/libutee/tee_api_objects.c:180
    1f70:	900000c2 	adrp	x2, 19000 <_DYNAMIC>
    1f74:	f9409842 	ldr	x2, [x2, #304]
    1f78:	f94027e0 	ldr	x0, [sp, #72]
    1f7c:	f9400041 	ldr	x1, [x2]
    1f80:	eb010000 	subs	x0, x0, x1
    1f84:	d2800001 	mov	x1, #0x0                   	// #0
    1f88:	54000040 	b.eq	1f90 <TEE_RestrictObjectUsage+0x84>  // b.none
    1f8c:	97fff95e 	bl	504 <__stack_chk_fail>
    1f90:	a94153f3 	ldp	x19, x20, [sp, #16]
    1f94:	a8c57bfd 	ldp	x29, x30, [sp], #80
    1f98:	d65f03c0 	ret

0000000000001f9c <TEE_GetObjectBufferAttribute>:
TEE_GetObjectBufferAttribute():
/home/ssysarch/Desktop/nick/jetpack_5/Jetson_Linux_R35.4.1_aarch64/Linux_for_Tegra/sources/tegra/optee-src/nv-optee/optee/optee_os/lib/libutee/tee_api_objects.c:200
    1f9c:	a9b97bfd 	stp	x29, x30, [sp, #-112]!
    1fa0:	900000c4 	adrp	x4, 19000 <_DYNAMIC>
    1fa4:	910003fd 	mov	x29, sp
    1fa8:	f9409884 	ldr	x4, [x4, #304]
    1fac:	a9025bf5 	stp	x21, x22, [sp, #32]
    1fb0:	aa0003f5 	mov	x21, x0
    1fb4:	f9400080 	ldr	x0, [x4]
    1fb8:	f90037e0 	str	x0, [sp, #104]
    1fbc:	d2800000 	mov	x0, #0x0                   	// #0
    1fc0:	2a0103f6 	mov	w22, w1
/home/ssysarch/Desktop/nick/jetpack_5/Jetson_Linux_R35.4.1_aarch64/Linux_for_Tegra/sources/tegra/optee-src/nv-optee/optee/optee_os/lib/libutee/tee_api_objects.c:205
    1fc4:	aa0303e0 	mov	x0, x3
    1fc8:	d2800101 	mov	x1, #0x8                   	// #8
/home/ssysarch/Desktop/nick/jetpack_5/Jetson_Linux_R35.4.1_aarch64/Linux_for_Tegra/sources/tegra/optee-src/nv-optee/optee/optee_os/lib/libutee/tee_api_objects.c:200
    1fcc:	a90153f3 	stp	x19, x20, [sp, #16]
    1fd0:	aa0303f4 	mov	x20, x3
    1fd4:	f9001bf7 	str	x23, [sp, #48]
    1fd8:	aa0203f7 	mov	x23, x2
/home/ssysarch/Desktop/nick/jetpack_5/Jetson_Linux_R35.4.1_aarch64/Linux_for_Tegra/sources/tegra/optee-src/nv-optee/optee/optee_os/lib/libutee/tee_api_objects.c:201
    1fdc:	a9047fff 	stp	xzr, xzr, [sp, #64]
    1fe0:	a9057fff 	stp	xzr, xzr, [sp, #80]
    1fe4:	b90063ff 	str	wzr, [sp, #96]
/home/ssysarch/Desktop/nick/jetpack_5/Jetson_Linux_R35.4.1_aarch64/Linux_for_Tegra/sources/tegra/optee-src/nv-optee/optee/optee_os/lib/libutee/tee_api_objects.c:205
    1fe8:	9400175b 	bl	7d54 <__utee_check_inout_annotation>
/home/ssysarch/Desktop/nick/jetpack_5/Jetson_Linux_R35.4.1_aarch64/Linux_for_Tegra/sources/tegra/optee-src/nv-optee/optee/optee_os/lib/libutee/tee_api_objects.c:207
    1fec:	910123e1 	add	x1, sp, #0x48
    1ff0:	aa1503e0 	mov	x0, x21
    1ff4:	94001981 	bl	85f8 <_utee_cryp_obj_get_info>
    1ff8:	2a0003f3 	mov	w19, w0
/home/ssysarch/Desktop/nick/jetpack_5/Jetson_Linux_R35.4.1_aarch64/Linux_for_Tegra/sources/tegra/optee-src/nv-optee/optee/optee_os/lib/libutee/tee_api_objects.c:208
    1ffc:	35000180 	cbnz	w0, 202c <TEE_GetObjectBufferAttribute+0x90>
/home/ssysarch/Desktop/nick/jetpack_5/Jetson_Linux_R35.4.1_aarch64/Linux_for_Tegra/sources/tegra/optee-src/nv-optee/optee/optee_os/lib/libutee/tee_api_objects.c:212
    2000:	37e80416 	tbnz	w22, #29, 2080 <TEE_GetObjectBufferAttribute+0xe4>
/home/ssysarch/Desktop/nick/jetpack_5/Jetson_Linux_R35.4.1_aarch64/Linux_for_Tegra/sources/tegra/optee-src/nv-optee/optee/optee_os/lib/libutee/tee_api_objects.c:217
    2004:	f9400280 	ldr	x0, [x20]
/home/ssysarch/Desktop/nick/jetpack_5/Jetson_Linux_R35.4.1_aarch64/Linux_for_Tegra/sources/tegra/optee-src/nv-optee/optee/optee_os/lib/libutee/tee_api_objects.c:218
    2008:	910103e3 	add	x3, sp, #0x40
    200c:	aa1703e2 	mov	x2, x23
    2010:	2a1603e1 	mov	w1, w22
/home/ssysarch/Desktop/nick/jetpack_5/Jetson_Linux_R35.4.1_aarch64/Linux_for_Tegra/sources/tegra/optee-src/nv-optee/optee/optee_os/lib/libutee/tee_api_objects.c:217
    2014:	f90023e0 	str	x0, [sp, #64]
/home/ssysarch/Desktop/nick/jetpack_5/Jetson_Linux_R35.4.1_aarch64/Linux_for_Tegra/sources/tegra/optee-src/nv-optee/optee/optee_os/lib/libutee/tee_api_objects.c:218
    2018:	aa1503e0 	mov	x0, x21
    201c:	9400197d 	bl	8610 <_utee_cryp_obj_get_attr>
    2020:	2a0003f3 	mov	w19, w0
/home/ssysarch/Desktop/nick/jetpack_5/Jetson_Linux_R35.4.1_aarch64/Linux_for_Tegra/sources/tegra/optee-src/nv-optee/optee/optee_os/lib/libutee/tee_api_objects.c:220
    2024:	f94023e0 	ldr	x0, [sp, #64]
    2028:	f9000280 	str	x0, [x20]
/home/ssysarch/Desktop/nick/jetpack_5/Jetson_Linux_R35.4.1_aarch64/Linux_for_Tegra/sources/tegra/optee-src/nv-optee/optee/optee_os/lib/libutee/tee_api_objects.c:223
    202c:	7100027f 	cmp	w19, #0x0
    2030:	129ffee0 	mov	w0, #0xffff0008            	// #-65528
    2034:	7a401264 	ccmp	w19, w0, #0x4, ne  // ne = any
    2038:	54000140 	b.eq	2060 <TEE_GetObjectBufferAttribute+0xc4>  // b.none
/home/ssysarch/Desktop/nick/jetpack_5/Jetson_Linux_R35.4.1_aarch64/Linux_for_Tegra/sources/tegra/optee-src/nv-optee/optee/optee_os/lib/libutee/tee_api_objects.c:226
    203c:	121e7a61 	and	w1, w19, #0xfffffffd
/home/ssysarch/Desktop/nick/jetpack_5/Jetson_Linux_R35.4.1_aarch64/Linux_for_Tegra/sources/tegra/optee-src/nv-optee/optee/optee_os/lib/libutee/tee_api_objects.c:225
    2040:	52800020 	mov	w0, #0x1                   	// #1
    2044:	72be0200 	movk	w0, #0xf010, lsl #16
    2048:	6b00003f 	cmp	w1, w0
    204c:	129ffde0 	mov	w0, #0xffff0010            	// #-65520
    2050:	7a401264 	ccmp	w19, w0, #0x4, ne  // ne = any
    2054:	54000060 	b.eq	2060 <TEE_GetObjectBufferAttribute+0xc4>  // b.none
/home/ssysarch/Desktop/nick/jetpack_5/Jetson_Linux_R35.4.1_aarch64/Linux_for_Tegra/sources/tegra/optee-src/nv-optee/optee/optee_os/lib/libutee/tee_api_objects.c:228
    2058:	2a1303e0 	mov	w0, w19
    205c:	94001695 	bl	7ab0 <TEE_Panic>
/home/ssysarch/Desktop/nick/jetpack_5/Jetson_Linux_R35.4.1_aarch64/Linux_for_Tegra/sources/tegra/optee-src/nv-optee/optee/optee_os/lib/libutee/tee_api_objects.c:231
    2060:	f00000a4 	adrp	x4, 19000 <_DYNAMIC>
    2064:	f9409884 	ldr	x4, [x4, #304]
    2068:	f94037e0 	ldr	x0, [sp, #104]
    206c:	f9400081 	ldr	x1, [x4]
    2070:	eb010000 	subs	x0, x0, x1
    2074:	d2800001 	mov	x1, #0x0                   	// #0
    2078:	54000080 	b.eq	2088 <TEE_GetObjectBufferAttribute+0xec>  // b.none
    207c:	97fff922 	bl	504 <__stack_chk_fail>
/home/ssysarch/Desktop/nick/jetpack_5/Jetson_Linux_R35.4.1_aarch64/Linux_for_Tegra/sources/tegra/optee-src/nv-optee/optee/optee_os/lib/libutee/tee_api_objects.c:213
    2080:	129fff33 	mov	w19, #0xffff0006            	// #-65530
    2084:	17ffffea 	b	202c <TEE_GetObjectBufferAttribute+0x90>
/home/ssysarch/Desktop/nick/jetpack_5/Jetson_Linux_R35.4.1_aarch64/Linux_for_Tegra/sources/tegra/optee-src/nv-optee/optee/optee_os/lib/libutee/tee_api_objects.c:231
    2088:	2a1303e0 	mov	w0, w19
    208c:	a94153f3 	ldp	x19, x20, [sp, #16]
    2090:	a9425bf5 	ldp	x21, x22, [sp, #32]
    2094:	f9401bf7 	ldr	x23, [sp, #48]
    2098:	a8c77bfd 	ldp	x29, x30, [sp], #112
    209c:	d65f03c0 	ret

00000000000020a0 <__GP11_TEE_GetObjectBufferAttribute>:
__GP11_TEE_GetObjectBufferAttribute():
/home/ssysarch/Desktop/nick/jetpack_5/Jetson_Linux_R35.4.1_aarch64/Linux_for_Tegra/sources/tegra/optee-src/nv-optee/optee/optee_os/lib/libutee/tee_api_objects.c:236
    20a0:	a9bb7bfd 	stp	x29, x30, [sp, #-80]!
    20a4:	910003fd 	mov	x29, sp
    20a8:	a90153f3 	stp	x19, x20, [sp, #16]
    20ac:	f00000b4 	adrp	x20, 19000 <_DYNAMIC>
    20b0:	aa0303f3 	mov	x19, x3
    20b4:	f9409a94 	ldr	x20, [x20, #304]
    20b8:	a9025bf5 	stp	x21, x22, [sp, #32]
    20bc:	aa0003f5 	mov	x21, x0
    20c0:	f9400280 	ldr	x0, [x20]
    20c4:	f90027e0 	str	x0, [sp, #72]
    20c8:	d2800000 	mov	x0, #0x0                   	// #0
    20cc:	2a0103f6 	mov	w22, w1
/home/ssysarch/Desktop/nick/jetpack_5/Jetson_Linux_R35.4.1_aarch64/Linux_for_Tegra/sources/tegra/optee-src/nv-optee/optee/optee_os/lib/libutee/tee_api_objects.c:240
    20d0:	aa0303e0 	mov	x0, x3
    20d4:	d2800081 	mov	x1, #0x4                   	// #4
/home/ssysarch/Desktop/nick/jetpack_5/Jetson_Linux_R35.4.1_aarch64/Linux_for_Tegra/sources/tegra/optee-src/nv-optee/optee/optee_os/lib/libutee/tee_api_objects.c:236
    20d8:	f9001bf7 	str	x23, [sp, #48]
    20dc:	aa0203f7 	mov	x23, x2
/home/ssysarch/Desktop/nick/jetpack_5/Jetson_Linux_R35.4.1_aarch64/Linux_for_Tegra/sources/tegra/optee-src/nv-optee/optee/optee_os/lib/libutee/tee_api_objects.c:238
    20e0:	f90023ff 	str	xzr, [sp, #64]
/home/ssysarch/Desktop/nick/jetpack_5/Jetson_Linux_R35.4.1_aarch64/Linux_for_Tegra/sources/tegra/optee-src/nv-optee/optee/optee_os/lib/libutee/tee_api_objects.c:240
    20e4:	9400171c 	bl	7d54 <__utee_check_inout_annotation>
/home/ssysarch/Desktop/nick/jetpack_5/Jetson_Linux_R35.4.1_aarch64/Linux_for_Tegra/sources/tegra/optee-src/nv-optee/optee/optee_os/lib/libutee/tee_api_objects.c:241
    20e8:	b9400260 	ldr	w0, [x19]
/home/ssysarch/Desktop/nick/jetpack_5/Jetson_Linux_R35.4.1_aarch64/Linux_for_Tegra/sources/tegra/optee-src/nv-optee/optee/optee_os/lib/libutee/tee_api_objects.c:242
    20ec:	aa1703e2 	mov	x2, x23
    20f0:	2a1603e1 	mov	w1, w22
    20f4:	910103e3 	add	x3, sp, #0x40
/home/ssysarch/Desktop/nick/jetpack_5/Jetson_Linux_R35.4.1_aarch64/Linux_for_Tegra/sources/tegra/optee-src/nv-optee/optee/optee_os/lib/libutee/tee_api_objects.c:241
    20f8:	f90023e0 	str	x0, [sp, #64]
/home/ssysarch/Desktop/nick/jetpack_5/Jetson_Linux_R35.4.1_aarch64/Linux_for_Tegra/sources/tegra/optee-src/nv-optee/optee/optee_os/lib/libutee/tee_api_objects.c:242
    20fc:	aa1503e0 	mov	x0, x21
    2100:	97ffffa7 	bl	1f9c <TEE_GetObjectBufferAttribute>
