
/home/ssysarch/Desktop/nick/jetpack_5/Jetson_Linux_R35.4.1_aarch64/Linux_for_Tegra/sources/tegra/optee-src/nv-optee/optee/build/t234/ta/storage/b689f2a7-8adf-477a-9f99-32e90c0ad0a2.elf:     file format elf64-littleaarch64
/home/ssysarch/Desktop/nick/jetpack_5/Jetson_Linux_R35.4.1_aarch64/Linux_for_Tegra/sources/tegra/optee-src/nv-optee/optee/build/t234/ta/storage/b689f2a7-8adf-477a-9f99-32e90c0ad0a2.elf
architecture: aarch64, flags 0x00000150:
HAS_SYMS, DYNAMIC, D_PAGED
start address 0x00000000000010f8

Program Header:
    LOAD off    0x0000000000001000 vaddr 0x0000000000000000 paddr 0x0000000000000000 align 2**12
         filesz 0x00000000000192a8 memsz 0x00000000000192a8 flags r-x
    LOAD off    0x000000000001b000 vaddr 0x000000000001a000 paddr 0x000000000001a000 align 2**12
         filesz 0x00000000000005dc memsz 0x0000000000013e80 flags rw-
 DYNAMIC off    0x000000000001b000 vaddr 0x000000000001a000 paddr 0x000000000001a000 align 2**3
         filesz 0x0000000000000110 memsz 0x0000000000000110 flags rw-
   STACK off    0x0000000000000000 vaddr 0x0000000000000000 paddr 0x0000000000000000 align 2**4
         filesz 0x0000000000000000 memsz 0x0000000000000000 flags rw-

Dynamic Section:
  HASH                 0x0000000000018f90
  GNU_HASH             0x0000000000018ea0
  STRTAB               0x0000000000018f60
  SYMTAB               0x0000000000018ed0
  STRSZ                0x000000000000002e
  SYMENT               0x0000000000000018
  DEBUG                0x0000000000000000
  RELA                 0x0000000000018fc0
  RELASZ               0x00000000000004f8
  RELAENT              0x0000000000000018
  FLAGS_1              0x0000000008000000
  RELACOUNT            0x000000000000001f
private flags = 0:

Sections:
Idx Name          Size      VMA               LMA               File off  Algn
  0 .ta_head      00000020  0000000000000000  0000000000000000  00001000  2**3
                  CONTENTS, ALLOC, LOAD, READONLY, DATA
  1 .text         00013ac0  0000000000000020  0000000000000020  00001020  2**4
                  CONTENTS, ALLOC, LOAD, READONLY, CODE
  2 .eh_frame     00003ecc  0000000000013ae0  0000000000013ae0  00014ae0  2**3
                  CONTENTS, ALLOC, LOAD, READONLY, DATA
  3 .rodata       000014ee  00000000000179b0  00000000000179b0  000189b0  2**3
                  CONTENTS, ALLOC, LOAD, READONLY, DATA
  4 .gnu.hash     00000030  0000000000018ea0  0000000000018ea0  00019ea0  2**3
                  CONTENTS, ALLOC, LOAD, READONLY, DATA
  5 .dynsym       00000090  0000000000018ed0  0000000000018ed0  00019ed0  2**3
                  CONTENTS, ALLOC, LOAD, READONLY, DATA
  6 .dynstr       0000002e  0000000000018f60  0000000000018f60  00019f60  2**0
                  CONTENTS, ALLOC, LOAD, READONLY, DATA
  7 .hash         0000002c  0000000000018f90  0000000000018f90  00019f90  2**3
                  CONTENTS, ALLOC, LOAD, READONLY, DATA
  8 .rela.dyn     000002e8  0000000000018fc0  0000000000018fc0  00019fc0  2**3
                  CONTENTS, ALLOC, LOAD, READONLY, DATA
  9 .dynamic      00000110  000000000001a000  000000000001a000  0001b000  2**3
                  CONTENTS, ALLOC, LOAD, DATA
 10 .got          000000d0  000000000001a110  000000000001a110  0001b110  2**3
                  CONTENTS, ALLOC, LOAD, DATA
 11 .rela.got     00000210  000000000001a1e0  000000000001a1e0  0001b1e0  2**3
                  CONTENTS, ALLOC, LOAD, READONLY, DATA
 12 .data         000001ec  000000000001a3f0  000000000001a3f0  0001b3f0  2**3
                  CONTENTS, ALLOC, LOAD, DATA
 13 .bss          000138a0  000000000001a5e0  000000000001a5e0  0001b5dc  2**3
                  ALLOC
 14 .debug_info   000241df  0000000000000000  0000000000000000  0001b5dc  2**0
                  CONTENTS, READONLY, DEBUGGING
 15 .debug_abbrev 00004bf5  0000000000000000  0000000000000000  0003f7bb  2**0
                  CONTENTS, READONLY, DEBUGGING
 16 .debug_loc    00035618  0000000000000000  0000000000000000  000443b0  2**0
                  CONTENTS, READONLY, DEBUGGING
 17 .debug_aranges 000009e0  0000000000000000  0000000000000000  000799d0  2**4
                  CONTENTS, READONLY, DEBUGGING
 18 .debug_ranges 00002040  0000000000000000  0000000000000000  0007a3b0  2**4
                  CONTENTS, READONLY, DEBUGGING
 19 .debug_macro  00019a29  0000000000000000  0000000000000000  0007c3f0  2**0
                  CONTENTS, READONLY, DEBUGGING
 20 .debug_line   00014684  0000000000000000  0000000000000000  00095e19  2**0
                  CONTENTS, READONLY, DEBUGGING
 21 .debug_str    0001c284  0000000000000000  0000000000000000  000aa49d  2**0
                  CONTENTS, READONLY, DEBUGGING
 22 .comment      0000001f  0000000000000000  0000000000000000  000c6721  2**0
                  CONTENTS, READONLY
SYMBOL TABLE:
0000000000000000 l    d  .ta_head	0000000000000000 .ta_head
0000000000000020 l    d  .text	0000000000000000 .text
0000000000013ae0 l    d  .eh_frame	0000000000000000 .eh_frame
00000000000179b0 l    d  .rodata	0000000000000000 .rodata
0000000000018ea0 l    d  .gnu.hash	0000000000000000 .gnu.hash
0000000000018ed0 l    d  .dynsym	0000000000000000 .dynsym
0000000000018f60 l    d  .dynstr	0000000000000000 .dynstr
0000000000018f90 l    d  .hash	0000000000000000 .hash
0000000000018fc0 l    d  .rela.dyn	0000000000000000 .rela.dyn
000000000001a000 l    d  .dynamic	0000000000000000 .dynamic
000000000001a110 l    d  .got	0000000000000000 .got
000000000001a1e0 l    d  .rela.got	0000000000000000 .rela.got
000000000001a3f0 l    d  .data	0000000000000000 .data
000000000001a5e0 l    d  .bss	0000000000000000 .bss
0000000000000000 l    d  .debug_info	0000000000000000 .debug_info
0000000000000000 l    d  .debug_abbrev	0000000000000000 .debug_abbrev
0000000000000000 l    d  .debug_loc	0000000000000000 .debug_loc
0000000000000000 l    d  .debug_aranges	0000000000000000 .debug_aranges
0000000000000000 l    d  .debug_ranges	0000000000000000 .debug_ranges
0000000000000000 l    d  .debug_macro	0000000000000000 .debug_macro
0000000000000000 l    d  .debug_line	0000000000000000 .debug_line
0000000000000000 l    d  .debug_str	0000000000000000 .debug_str
0000000000000000 l    d  .comment	0000000000000000 .comment
0000000000000000 l    df *ABS*	0000000000000000 user_ta_header.c
00000000000179b8 l     O .rodata	0000000000000001 __compound_literal.6
00000000000179bc l     O .rodata	0000000000000004 __compound_literal.5
00000000000179c0 l     O .rodata	0000000000000004 __compound_literal.4
00000000000179c4 l     O .rodata	0000000000000004 __compound_literal.3
00000000000179c8 l     O .rodata	0000000000000001 __compound_literal.2
00000000000179c9 l     O .rodata	0000000000000001 __compound_literal.1
00000000000179ca l     O .rodata	0000000000000001 __compound_literal.0
0000000000000000 l    df *ABS*	0000000000000000 memcpy.c
0000000000000000 l    df *ABS*	0000000000000000 storage.c
0000000000017fa9 l     O .rodata	0000000000000021 __func__.4675
0000000000017fca l     O .rodata	0000000000000014 __func__.4689
0000000000000000 l    df *ABS*	0000000000000000 ta_entry.c
0000000000000000 l    df *ABS*	0000000000000000 stack_check.c
0000000000000000 l    df *ABS*	0000000000000000 trace.c
0000000000001144 l     F .text	000000000000010c append
0000000000018115 l     O .rodata	0000000000000005 lvl_strs.3595
000000000001811a l     O .rodata	000000000000000a __func__.3657
0000000000000000 l    df *ABS*	0000000000000000 snprintk.c
00000000000018f4 l     F .text	0000000000000be0 kprintf.constprop.0
0000000000017aae l     O .rodata	0000000000000011 HEXDIGITS
0000000000017abf l     O .rodata	0000000000000011 hexdigits
0000000000000000 l    df *ABS*	0000000000000000 memchr.c
0000000000000000 l    df *ABS*	0000000000000000 strlen.c
0000000000000000 l    df *ABS*	0000000000000000 trace_ext.c
0000000000000000 l    df *ABS*	0000000000000000 tee_api.c
0000000000002748 l     F .text	000000000000006c copy_param
00000000000027b4 l     F .text	0000000000000070 copy_gp11_param
0000000000002824 l     F .text	0000000000000094 check_mem_access_rights_params
00000000000028b8 l     F .text	0000000000000044 buf_overlaps_no_share_heap
00000000000028fc l     F .text	00000000000000a8 check_invoke_param
00000000000029a4 l     F .text	00000000000000a8 update_out_param
0000000000002a4c l     F .text	00000000000000ac update_out_gp11_param
0000000000002cc8 l     F .text	000000000000019c map_tmp_param
000000000001a5e0 l     O .bss	0000000000000008 tee_api_instance_data
00000000000179f0 l     O .rodata	000000000000000b __func__.5423
0000000000000000 l    df *ABS*	0000000000000000 tee_api_objects.c
0000000000000000 l    df *ABS*	0000000000000000 tee_api_operations.c
0000000000005240 l     F .text	0000000000000118 __tee_alg_get_main_alg
0000000000005358 l     F .text	0000000000000254 tee_buffer_update
00000000000055ac l     F .text	00000000000000a4 __tee_alg_get_class
0000000000005650 l     F .text	000000000000005c reset_operation_state
00000000000056ac l     F .text	00000000000001e4 set_operation_key2
0000000000005890 l     F .text	00000000000000dc ae_update_helper.part.0
0000000000017ada l     O .rodata	0000000000000012 __func__.5437
0000000000000000 l    df *ABS*	0000000000000000 tee_api_panic.c
0000000000009764 l     F .text	000000000000001c check_access
0000000000009788 l     F .text	0000000000000044 check_res
0000000000018211 l     O .rodata	000000000000000a __func__.4862
0000000000000000 l    df *ABS*	0000000000000000 tee_system_pta.c
0000000000009a50 l     F .text	0000000000000088 invoke_system_pta
0000000000017aec l     O .rodata	0000000000000010 uuid.4625
0000000000017afc l     O .rodata	000000000000000a __func__.4645
0000000000017b06 l     O .rodata	0000000000000017 __func__.4657
000000000001a5f0 l     O .bss	0000000000000008 sess.4624
0000000000000000 l    df *ABS*	0000000000000000 user_ta_entry.c
0000000000009d60 l     F .text	00000000000000b0 _get_fn_array
0000000000009e10 l     F .text	0000000000000090 _fini_iterate_phdr_cb
0000000000009ea0 l     F .text	0000000000000028 ta_header_get_session
0000000000009ec8 l     F .text	000000000000006c to_utee_params
0000000000009f34 l     F .text	000000000000005c from_utee_params
0000000000009f90 l     F .text	0000000000000094 _init_iterate_phdr_cb
000000000000a18c l     F .text	0000000000000098 ta_header_remove_session
00000000000182bf l     O .rodata	0000000000000016 __func__.5387
000000000001a5f8 l     O .bss	0000000000000008 _num_mod_init
000000000001a600 l     O .bss	0000000000000001 init_done
000000000001a4d0 l     O .data	0000000000000010 ta_sessions
000000000001a4e0 l     O .data	0000000000000010 __phdr_info_head
0000000000000000 l    df *ABS*	0000000000000000 utee_syscalls_a64.o
0000000000000000 l    df *ABS*	0000000000000000 abort.c
0000000000000000 l    df *ABS*	0000000000000000 assert.c
0000000000000000 l    df *ABS*	0000000000000000 tee_api_arith_mpi.c
000000000000a7d0 l     F .text	0000000000000030 api_panic
000000000000a800 l     F .text	0000000000000030 mpi_panic
000000000000a830 l     F .text	0000000000000098 get_mpi
000000000000a8c8 l     F .text	0000000000000064 copy_mpi_to_bigint
000000000000a92c l     F .text	000000000000014c bigint_binary
000000000000aa78 l     F .text	0000000000000020 mpi_is_odd
000000000000aa98 l     F .text	0000000000000028 rng_read
000000000000aac0 l     F .text	0000000000000574 mpi_egcd
000000000001a668 l     O .bss	0000000000003800 data.5215
000000000000b560 l     F .text	00000000000001d0 bigint_binary_mod
00000000000183cc l     O .rodata	0000000000000008 __func__.5249
00000000000183d4 l     O .rodata	000000000000000e __func__.5387
00000000000183e2 l     O .rodata	0000000000000009 __func__.5551
00000000000183eb l     O .rodata	0000000000000012 __func__.5216
00000000000183fd l     O .rodata	000000000000000f __func__.5255
000000000001840c l     O .rodata	000000000000001f __func__.5283
000000000001842b l     O .rodata	0000000000000019 __func__.5297
0000000000018444 l     O .rodata	0000000000000012 __func__.5406
0000000000018456 l     O .rodata	0000000000000015 __func__.5328
000000000001846b l     O .rodata	000000000000000e __func__.5427
0000000000018479 l     O .rodata	000000000000000e __func__.5456
0000000000018487 l     O .rodata	000000000000000e __func__.5464
0000000000018495 l     O .rodata	0000000000000011 __func__.5497
00000000000184a6 l     O .rodata	0000000000000018 __func__.5510
00000000000184be l     O .rodata	0000000000000011 __func__.5531
00000000000184cf l     O .rodata	000000000000001d __func__.5608
00000000000184ec l     O .rodata	0000000000000019 __func__.5681
0000000000018505 l     O .rodata	0000000000000015 __func__.5696
0000000000000000 l    df *ABS*	0000000000000000 tee_api_property.c
000000000000c8fc l     F .text	000000000000006c propset_get
000000000000c968 l     F .text	000000000000002c is_propset_pseudo_handle
000000000000c994 l     F .text	0000000000000148 propget_get_ext_prop
000000000000cadc l     F .text	00000000000001b0 propget_get_property
0000000000017b30 l     O .rodata	0000000000000004 __compound_literal.3
0000000000017b34 l     O .rodata	0000000000000004 __compound_literal.2
0000000000017b38 l     O .rodata	0000000000000004 __compound_literal.1
0000000000017b3c l     O .rodata	0000000000000004 __compound_literal.0
0000000000000000 l    df *ABS*	0000000000000000 tcb.c
000000000001862a l     O .rodata	0000000000000010 __func__.4097
000000000001863a l     O .rodata	0000000000000010 __func__.4124
000000000001de68 l     O .bss	0000000000000008 _tls_size
000000000001de70 l     O .bss	0000000000000008 _tcb
0000000000000000 l    df *ABS*	0000000000000000 base64.c
0000000000017b44 l     O .rodata	0000000000000041 base64_table
0000000000000000 l    df *ABS*	0000000000000000 bignum.c
000000000000de18 l     F .text	0000000000000064 mpi_get_digit
000000000000de7c l     F .text	000000000000040c mpi_mul_hlp
000000000000e288 l     F .text	0000000000000038 mpi_montg_init.isra.0
000000000000e2c0 l     F .text	00000000000000ac mpi_bigendian_to_host.part.0
000000000000e36c l     F .text	00000000000000c0 mpi_fill_random_internal
000000000000e42c l     F .text	0000000000000148 mpi_montmul.isra.0
000000000000e574 l     F .text	0000000000000078 mpi_montred
000000000000e778 l     F .text	000000000000006c mbedtls_mpi_resize_clear
00000000000104b0 l     F .text	00000000000000c4 mpi_check_small_factors
0000000000010e94 l     F .text	00000000000002a4 mpi_miller_rabin
0000000000017b88 l     O .rodata	00000000000002a0 small_prime
0000000000017e28 l     O .rodata	0000000000000024 gcd_pairs
0000000000000000 l    df *ABS*	0000000000000000 constant_time.c
0000000000011fa8 l     F .text	0000000000000020 mbedtls_ct_uchar_mask_of_range
0000000000000000 l    df *ABS*	0000000000000000 platform_util.c
000000000001a550 l     O .data	0000000000000008 memset_func
0000000000000000 l    df *ABS*	0000000000000000 bget_malloc.c
0000000000012788 l     F .text	0000000000000010 _assert_trap
0000000000012798 l     F .text	0000000000000038 raw_malloc_return_hook.isra.0
00000000000127d0 l     F .text	0000000000000028 bget_buf_size.part.0
0000000000018d91 l     O .rodata	000000000000000e __func__.3996
0000000000018d9f l     O .rodata	0000000000000005 __func__.3908
0000000000018da4 l     O .rodata	0000000000000006 __func__.3928
0000000000018daa l     O .rodata	0000000000000005 __func__.3949
0000000000018daf l     O .rodata	0000000000000006 __func__.3939
0000000000018db5 l     O .rodata	0000000000000006 __func__.3958
0000000000018dbb l     O .rodata	0000000000000007 __func__.3968
0000000000018dc2 l     O .rodata	0000000000000014 __func__.4197
0000000000018dd6 l     O .rodata	0000000000000013 __func__.4061
000000000001a558 l     O .data	0000000000000080 malloc_ctx
0000000000000000 l    df *ABS*	0000000000000000 snprintf.c
0000000000000000 l    df *ABS*	0000000000000000 memmove.c
0000000000000000 l    df *ABS*	0000000000000000 memset.c
0000000000000000 l    df *ABS*	0000000000000000 strcmp.c
0000000000000000 l    df *ABS*	0000000000000000 strlcpy.c
0000000000000000 l    df *ABS*	0000000000000000 mempool.c
0000000000018e72 l     O .rodata	0000000000000013 __func__.3711
0000000000018e85 l     O .rodata	000000000000000b __func__.3692
0000000000018e90 l     O .rodata	000000000000000e __func__.3717
0000000000000000 l    df *ABS*	0000000000000000 consttime_memcmp.c
0000000000000000 l    df *ABS*	0000000000000000 
000000000001a000 l     O *ABS*	0000000000000000 _DYNAMIC
000000000001a128 l     O *ABS*	0000000000000000 _GLOBAL_OFFSET_TABLE_
00000000000026d8 g     F .text	0000000000000070 putchar
000000000000b1b4 g     F .text	0000000000000008 __GP11_TEE_BigIntConvertFromOctetString
0000000000004158 g     F .text	0000000000000110 TEE_PopulateTransientObject
0000000000007c0c g     F .text	0000000000000010 __GP11_TEE_AEInit
000000000000c6e0 g     F .text	0000000000000004 TEE_BigIntConvertToFMM
000000000000bf54 g     F .text	000000000000000c TEE_BigIntSquareMod
000000000000b730 g     F .text	00000000000001a0 TEE_BigIntShiftRight
0000000000013350 g     F .text	000000000000011c raw_malloc_add_pool
0000000000009c50 g     F .text	0000000000000110 tee_invoke_supp_plugin
000000000000e690 g     F .text	00000000000000e8 mbedtls_mpi_grow
0000000000006d28 g     F .text	0000000000000070 TEE_DigestUpdate
000000000000d5e4 g     F .text	0000000000000128 __GP11_TEE_GetPropertyName
0000000000003710 g     F .text	00000000000000d8 TEE_Realloc
0000000000006b60 g     F .text	0000000000000020 TEE_SetOperationKey2
0000000000007998 g     F .text	00000000000000a0 __GP11_TEE_MACComputeFinal
0000000000009a24 g     F .text	000000000000002c __utee_check_inout_annotation
0000000000013108 g     F .text	0000000000000010 raw_free
0000000000002598 g     F .text	0000000000000100 printf
000000000000bacc g     F .text	000000000000002c TEE_BigIntAbs
00000000000073cc g     F .text	00000000000000a0 __GP11_TEE_CipherUpdate
0000000000004378 g     F .text	000000000000004c TEE_InitRefAttribute
000000000000a4c4 g     F .text	000000000000000c _utee_log
0000000000003100 g     F .text	0000000000000184 TEE_InvokeTACommand
0000000000004460 g     F .text	000000000000004c __GP11_TEE_InitValueAttribute
00000000000097cc g     F .text	0000000000000064 __utee_check_outbuf_annotation
000000000000e5fc g     F .text	0000000000000028 mbedtls_mpi_init_mempool
000000000000a644 g     F .text	000000000000000c _utee_cryp_random_number_generate
000000000000edf8 g     F .text	00000000000000c4 mbedtls_mpi_write_binary
0000000000000f10 g     F .text	000000000000002c ta_storage_cmd_reset_obj
0000000000007f4c g     F .text	0000000000000200 TEE_AEEncryptFinal
00000000000017d0 g     F .text	0000000000000058 vsnprintk
000000000000f674 g     F .text	0000000000000074 mbedtls_mpi_sub_int
0000000000008944 g     F .text	0000000000000178 __GP11_TEE_AsymmetricDecrypt
00000000000137ec g     F .text	000000000000005c memmove
00000000000136c4 g     F .text	00000000000000d0 snprintf
000000000000b4e4 g     F .text	000000000000007c TEE_BigIntCmpS32
0000000000003420 g     F .text	0000000000000008 __GP11_TEE_MemMove
000000000001a4c8 g     O .data	0000000000000008 __stack_chk_guard
00000000000124ec g     F .text	000000000000027c mbedtls_ct_rsaes_pkcs1_v15_unpadding
0000000000004414 g     F .text	000000000000004c TEE_InitValueAttribute
000000000000e7e4 g     F .text	0000000000000120 mbedtls_mpi_shrink
0000000000003438 g     F .text	0000000000000008 __GP11_TEE_MemFill
000000000000baf8 g     F .text	000000000000000c TEE_BigIntAdd
000000000000a5e4 g     F .text	000000000000000c _utee_cryp_obj_restrict_usage
00000000000043c4 g     F .text	0000000000000050 __GP11_TEE_InitRefAttribute
00000000000179d8 g     O .rodata	0000000000000008 ta_heap_size
00000000000040c8 g     F .text	0000000000000090 TEE_ResetTransientObject
000000000000a68c g     F .text	000000000000000c _utee_asymm_operate
000000000000dbc0 g     F .text	0000000000000018 _base64_enc_len
000000000000f93c g     F .text	000000000000020c mbedtls_mpi_read_string
000000000000470c g     F .text	00000000000000d4 __GP11_TEE_GenerateKey
0000000000007150 g     F .text	00000000000000e0 TEE_CipherInit
000000000000bb10 g     F .text	00000000000000e4 TEE_BigIntNeg
000000000000010c g     F .text	00000000000000f0 ta_storage_cmd_open
000000000000a6e0 g     F .text	000000000000000c _utee_storage_free_enum
0000000000000020 g       .text	0000000000000000 __text_start
000000000000d794 g     F .text	00000000000000e0 TEE_GetNextProperty
0000000000004c44 g     F .text	0000000000000050 TEE_StartPersistentObjectEnumerator
000000000000efcc g     F .text	00000000000000c0 mbedtls_mpi_shift_r
00000000000136b0 g     F .text	0000000000000014 malloc_buffer_overlaps_heap
000000000000a590 g     F .text	000000000000000c _utee_hash_init
000000000000bf3c g     F .text	000000000000000c TEE_BigIntSubMod
0000000000011834 g     F .text	000000000000034c mbedtls_mpi_gen_prime
000000000000d314 g     F .text	0000000000000098 TEE_GetPropertyAsBinaryBlock
000000000000eac0 g     F .text	000000000000002c mbedtls_mpi_get_bit
00000000000179d0 g     O .rodata	0000000000000008 __ta_no_share_heap_size
000000000000ecbc g     F .text	0000000000000084 mbedtls_mpi_read_binary
0000000000007b48 g     F .text	00000000000000c4 TEE_AEInit
0000000000001498 g     F .text	00000000000000e0 trace_printf
000000000001057c g     F .text	0000000000000008 mbedtls_mpi_montmul
0000000000000e40 g     F .text	000000000000002c ta_storage_cmd_restrict_usage
000000000000a74c g     F .text	000000000000000c _utee_cache_operation
0000000000000020 g     F .text	00000000000000ec memcpy
00000000000006d8 g     F .text	0000000000000018 ta_storage_cmd_trunc
0000000000000cf8 g     F .text	0000000000000148 ta_storage_cmd_loop
000000000000c6e4 g     F .text	00000000000000d0 TEE_BigIntConvertFromFMM
0000000000009780 g     F .text	0000000000000008 TEE_Panic
0000000000006bcc g     F .text	000000000000015c TEE_CopyOperation
0000000000002698 g     F .text	0000000000000040 puts
000000000000c7b4 g     F .text	0000000000000148 TEE_BigIntComputeFMM
0000000000013678 g     F .text	0000000000000010 malloc_get_stats
000000000000355c g     F .text	0000000000000028 TEE_GetREETime
000000000001363c g     F .text	000000000000003c raw_malloc_get_stats
0000000000004b64 g     F .text	0000000000000090 TEE_AllocatePersistentObjectEnumerator
000000000001a3f0 g     O .data	00000000000000d8 ta_props
00000000000084ac g     F .text	0000000000000190 TEE_AsymmetricEncrypt
00000000000036a8 g     F .text	0000000000000008 __GP11_TEE_Malloc
0000000000002fb8 g     F .text	0000000000000148 __GP11_TEE_OpenTASession
0000000000009894 g     F .text	000000000000003c __utee_check_instring_annotation
000000000001327c g     F .text	0000000000000018 malloc
000000000000d5d0 g     F .text	0000000000000004 TEE_FreePropertyEnumerator
0000000000012020 g     F .text	0000000000000010 mbedtls_ct_mpi_uint_mask
0000000000007230 g     F .text	0000000000000008 __GP11_TEE_CipherInit
0000000000013794 g     F .text	0000000000000058 vsnprintf
0000000000004638 g     F .text	00000000000000d4 TEE_GenerateKey
000000000001a5d8 g     O .data	0000000000000004 trace_level
00000000000048c4 g     F .text	0000000000000008 __GP11_TEE_OpenPersistentObject
000000000000b450 g     F .text	0000000000000094 TEE_BigIntCmp
00000000000179b0 g     O .rodata	0000000000000008 ta_num_props
0000000000012e28 g     F .text	00000000000000d0 bgetr
000000000000a6a4 g     F .text	000000000000000c _utee_storage_obj_open
000000000000342c g     F .text	0000000000000008 __GP11_TEE_MemCompare
0000000000013a5c g     F .text	0000000000000014 mempool_free
0000000000007238 g     F .text	0000000000000194 TEE_CipherUpdate
000000000000a59c g     F .text	000000000000000c _utee_hash_update
000000000000b1bc g     F .text	00000000000000c8 TEE_BigIntConvertToOctetString
0000000000006764 g     F .text	00000000000001b0 TEE_GetOperationInfoMultiple
000000000000ebcc g     F .text	000000000000005c mbedtls_mpi_bitlen
000000000000b8d8 g     F .text	0000000000000080 TEE_BigIntGetBit
00000000000179e0 g     O .rodata	0000000000000003 trace_ext_prefix
000000000000a704 g     F .text	000000000000000c _utee_storage_next_enum
00000000000130f8 g     F .text	0000000000000010 raw_malloc
0000000000012adc g     F .text	0000000000000088 bgetz
0000000000012030 g     F .text	0000000000000018 mbedtls_ct_size_bool_eq
0000000000003410 g     F .text	000000000000000c TEE_GetInstanceData
0000000000003468 g     F .text	000000000000003c TEE_Wait
000000000000f6e8 g     F .text	00000000000001ac mbedtls_mpi_mul_mpi
000000000000b8d0 g     F .text	0000000000000008 __GP11_TEE_BigIntShiftRight
00000000000037f8 g     F .text	0000000000000008 TEE_CacheFlush
000000000000127c g     F .text	000000000000021c trace_vprintf
000000000000102c g     F .text	0000000000000004 TA_DestroyEntryPoint
000000000000e5ec g     F .text	0000000000000010 mbedtls_mpi_init
000000000000a6bc g     F .text	000000000000000c _utee_storage_obj_del
000000000000eb78 g     F .text	0000000000000054 mbedtls_mpi_lsb
0000000000007684 g     F .text	00000000000000b0 __GP11_TEE_CipherDoFinal
000000000000a778 g     F .text	0000000000000044 _assert_log
0000000000007e2c g     F .text	0000000000000120 __GP11_TEE_AEUpdate
000000000000a578 g     F .text	000000000000000c _utee_cryp_state_copy
000000000000c6c0 g     F .text	0000000000000008 TEE_BigIntFMMContextSizeInU32
0000000000009b88 g     F .text	00000000000000c8 tee_unmap
0000000000007a38 g     F .text	0000000000000104 TEE_MACCompareFinal
0000000000012064 g     F .text	0000000000000030 mbedtls_ct_uint_if
0000000000004b00 g     F .text	000000000000005c TEE_RenamePersistentObject
0000000000000620 g     F .text	00000000000000b8 ta_storage_cmd_rename
0000000000006da0 g     F .text	000000000000016c TEE_DigestDoFinal
0000000000004268 g     F .text	0000000000000110 __GP11_TEE_PopulateTransientObject
000000000000b034 g     F .text	0000000000000050 _TEE_MathAPI_Init
000000000000d874 g     F .text	0000000000000240 __utee_tcb_init
000000000000f4ec g     F .text	0000000000000088 mbedtls_mpi_add_mpi
000000000000a758 g     F .text	0000000000000020 abort
0000000000011138 g     F .text	00000000000001b8 mbedtls_mpi_random
0000000000001114 g     F .text	0000000000000030 __stack_chk_fail
0000000000009998 g     F .text	000000000000002c __utee_check_out_annotation
000000000001de80 g     O .bss	0000000000010000 ta_heap
000000000000bf60 g     F .text	0000000000000150 TEE_BigIntInvMod
0000000000000764 g     F .text	000000000000002c ta_storage_cmd_free_enum
0000000000006d98 g     F .text	0000000000000008 __GP11_TEE_DigestUpdate
000000000000a024 g     F .text	0000000000000158 __utee_call_elf_init_fn
0000000000003964 g     F .text	00000000000000c4 __GP11_TEE_GetObjectInfo
0000000000001038 g     F .text	0000000000000004 TA_CloseSessionEntryPoint
000000000000a500 g     F .text	000000000000000c _utee_close_ta_session
000000000000c688 g     F .text	0000000000000008 __GP11_TEE_BigIntInitFMMContext
00000000000087b0 g     F .text	0000000000000194 TEE_AsymmetricDecrypt
0000000000003ad8 g     F .text	00000000000000c0 __GP11_TEE_GetObjectInfo1
00000000000047e0 g     F .text	00000000000000e4 TEE_OpenPersistentObject
000000000000f574 g     F .text	000000000000008c mbedtls_mpi_sub_mpi
0000000000013a70 g     F .text	0000000000000070 consttime_memcmp
000000000000a4b8 g     F .text	000000000000000c _utee_return
000000000000a4d0 g     F .text	000000000000000c __utee_panic
0000000000011fc8 g     F .text	0000000000000048 mbedtls_ct_memcmp
000000000000dab4 g     F .text	000000000000001c __tls_get_addr
00000000000005f4 g     F .text	000000000000002c ta_storage_cmd_unlink
000000000000103c g     F .text	00000000000000bc TA_InvokeCommandEntryPoint
000000000000a17c g     F .text	0000000000000010 __utee_call_elf_fini_fn
0000000000000e6c g     F .text	0000000000000078 ta_storage_cmd_alloc_obj
00000000000003f0 g     F .text	000000000000002c ta_storage_cmd_close
000000000001330c g     F .text	0000000000000010 free_wipe
00000000000139a8 g     F .text	0000000000000064 mempool_alloc
000000000000a4ac g     F .text	000000000000000c _utee_panic
0000000000013324 g     F .text	000000000000002c raw_malloc_init_ctx
0000000000013a0c g     F .text	0000000000000050 mempool_calloc
000000000000a740 g     F .text	000000000000000c _utee_cryp_obj_generate_key
000000000000a728 g     F .text	000000000000000c _utee_storage_obj_trunc
00000000000045a4 g     F .text	0000000000000094 TEE_CopyObjectAttributes
000000000001a4f0 g     O .data	0000000000000060 tee_props
000000000000a530 g     F .text	000000000000000c _utee_unmask_cancellation
000000000000d57c g     F .text	000000000000000c TEE_ResetPropertyEnumerator
0000000000013294 g     F .text	000000000000001c calloc
0000000000003584 g     F .text	0000000000000124 TEE_Malloc
0000000000002c40 g     F .text	0000000000000088 TEE_CheckMemoryAccessRights
000000000000d3ac g     F .text	00000000000000e8 TEE_GetPropertyAsUUID
000000000000a4dc g     F .text	000000000000000c _utee_get_property
0000000000006f0c g     F .text	00000000000000a0 __GP11_TEE_DigestDoFinal
000000000000b9cc g     F .text	00000000000000b0 TEE_BigIntSetBit
000000000000ea58 g     F .text	0000000000000068 mbedtls_mpi_lset
0000000000006b80 g     F .text	000000000000004c __GP11_TEE_SetOperationKey2
0000000000004edc g     F .text	00000000000000c8 TEE_ReadObjectData
0000000000003c6c g     F .text	0000000000000104 TEE_GetObjectBufferAttribute
0000000000001030 g     F .text	0000000000000008 TA_OpenSessionEntryPoint
000000000000596c g     F .text	0000000000000040 TEE_FreeOperation
000000000000dad0 g     F .text	00000000000000f0 dl_iterate_phdr
000000000002de80 g       .bss	0000000000000000 __ftrace_buf_end
000000000001a608 g     O .bss	0000000000000004 ta_param_types
000000000001007c g     F .text	0000000000000074 mbedtls_mpi_div_int
0000000000003808 g     F .text	0000000000000050 __utee_from_attr
0000000000011748 g     F .text	00000000000000dc mbedtls_mpi_is_prime_ext
000000000000c5f4 g     F .text	0000000000000084 TEE_BigIntIsProbablePrime
000000000000f894 g     F .text	00000000000000a8 mbedtls_mpi_mul_int
0000000000004a8c g     F .text	0000000000000048 TEE_CloseAndDeletePersistentObject1
0000000000010588 g     F .text	00000000000006cc mbedtls_mpi_exp_mod
000000000001223c g     F .text	00000000000000bc mbedtls_mpi_safe_cond_assign
000000000000cc8c g     F .text	000000000000025c TEE_GetPropertyAsString
00000000000123f4 g     F .text	00000000000000f8 mbedtls_mpi_lt_mpi_ct
0000000000008220 g     F .text	00000000000001d4 TEE_AEDecryptFinal
000000000000b084 g     F .text	0000000000000060 TEE_BigIntInit
000000000000b284 g     F .text	0000000000000060 __GP11_TEE_BigIntConvertToOctetString
000000000000ba7c g     F .text	0000000000000050 TEE_BigIntAssign
00000000000098d0 g     F .text	0000000000000064 __utee_check_outstring_annotation
000000000000341c g     F .text	0000000000000004 TEE_MemMove
0000000000012768 g     F .text	0000000000000020 mbedtls_platform_zeroize
000000000000b0ec g     F .text	00000000000000c8 TEE_BigIntConvertFromOctetString
000000000000a680 g     F .text	000000000000000c _utee_authenc_dec_final
000000000000f08c g     F .text	000000000000009c mbedtls_mpi_cmp_abs
000000000000a710 g     F .text	000000000000000c _utee_storage_obj_read
0000000000007734 g     F .text	00000000000000a4 TEE_MACInit
0000000000008abc g     F .text	000000000000016c TEE_AsymmetricSignDigest
0000000000002520 g     F .text	000000000000002c memchr
0000000000002b80 g     F .text	0000000000000060 TEE_UnmaskCancellation
00000000000038a8 g     F .text	00000000000000bc TEE_GetObjectInfo
0000000000011b80 g     F .text	0000000000000428 mbedtls_mpi_self_test
00000000000008f8 g     F .text	0000000000000400 ta_storage_cmd_key_in_persistent
0000000000009830 g     F .text	0000000000000064 __utee_check_gp11_outbuf_annotation
000000000000a734 g     F .text	000000000000000c _utee_storage_obj_seek
0000000000007d4c g     F .text	00000000000000e0 TEE_AEUpdate
0000000000004038 g     F .text	0000000000000090 TEE_FreeTransientObject
000000000000a524 g     F .text	000000000000000c _utee_check_access_rights
0000000000003284 g     F .text	0000000000000178 __GP11_TEE_InvokeTACommand
000000000000f1fc g     F .text	0000000000000074 mbedtls_mpi_cmp_int
000000000000dcf4 g     F .text	0000000000000124 _base64_dec
00000000000066e4 g     F .text	000000000000002c __GP11_TEE_FreeOperation
000000000000a6ec g     F .text	000000000000000c _utee_storage_reset_enum
0000000000012180 g     F .text	00000000000000bc mbedtls_ct_base64_dec_value
0000000000009364 g     F .text	0000000000000058 rand
00000000000099c4 g     F .text	0000000000000030 __utee_check_attr_in_annotation
000000000000a668 g     F .text	000000000000000c _utee_authenc_update_payload
0000000000006710 g     F .text	0000000000000054 TEE_GetOperationInfo
000000000000bec4 g     F .text	000000000000006c TEE_BigIntMod
00000000000101a4 g     F .text	000000000000009c mbedtls_mpi_mod_int
0000000000008c28 g     F .text	000000000000016c __GP11_TEE_AsymmetricSignDigest
000000000000ec44 g     F .text	0000000000000078 mbedtls_mpi_read_binary_le
000000000000bd10 g     F .text	00000000000001b4 TEE_BigIntDiv
000000000000a5fc g     F .text	000000000000000c _utee_cryp_obj_alloc
000000000002de80 g       .bss	0000000000000000 __ftrace_buf_start
0000000000013888 g     F .text	0000000000000058 strlcpy
00000000000120d0 g     F .text	00000000000000b0 mbedtls_ct_base64_enc_char
000000000000e904 g     F .text	00000000000000cc mbedtls_mpi_copy
00000000000093bc g     F .text	00000000000003a8 TEE_IsAlgorithmSupported
000000000001305c g     F .text	0000000000000018 malloc_reset_stats
000000000000d494 g     F .text	00000000000000e8 TEE_GetPropertyAsIdentity
00000000000024d4 g     F .text	000000000000004c __vsprintf
000000000000d140 g     F .text	00000000000000e8 TEE_GetPropertyAsU64
000000000000a560 g     F .text	000000000000000c _utee_set_ta_time
000000000000a50c g     F .text	000000000000000c _utee_invoke_ta_command
0000000000003b98 g     F .text	0000000000000044 TEE_RestrictObjectUsage1
00000000000132b0 g     F .text	0000000000000018 realloc
000000000000e9d0 g     F .text	0000000000000088 mbedtls_mpi_swap
00000000000138e0 g     F .text	00000000000000c8 mempool_alloc_pool
000000000000bbf4 g     F .text	0000000000000114 TEE_BigIntMul
000000000000699c g     F .text	000000000000003c TEE_ResetOperation
000000000001331c g     F .text	0000000000000008 raw_malloc_get_ctx_size
000000000000eebc g     F .text	0000000000000110 mbedtls_mpi_shift_l
000000000000f128 g     F .text	00000000000000d4 mbedtls_mpi_cmp_mpi
0000000000003434 g     F .text	0000000000000004 TEE_MemFill
0000000000000568 g     F .text	000000000000008c ta_storage_cmd_seek
0000000000013688 g     F .text	0000000000000014 malloc_add_pool
00000000000077e0 g     F .text	00000000000000a0 TEE_MACUpdate
000000000000126c g     F .text	0000000000000010 trace_get_level
000000000000f270 g     F .text	0000000000000120 mbedtls_mpi_add_abs
0000000000003bdc g     F .text	0000000000000090 TEE_RestrictObjectUsage
000000000000c698 g     F .text	0000000000000010 TEE_BigIntFMMSizeInU32
000000000000cf80 g     F .text	00000000000000d8 TEE_GetPropertyAsBool
0000000000013188 g     F .text	00000000000000f4 raw_realloc
000000000000c678 g     F .text	0000000000000004 TEE_BigIntInitFMM
00000000000007bc g     F .text	0000000000000018 ta_storage_cmd_start_enum
0000000000003f40 g     F .text	0000000000000028 TEE_CloseObject
000000000000a5b4 g     F .text	000000000000000c _utee_cipher_init
000000000000a224 g     F .text	0000000000000288 __utee_entry
000000000000d058 g     F .text	00000000000000e8 TEE_GetPropertyAsU32
0000000000013ae0 g       .text	0000000000000000 __text_end
000000000000c0b0 g     F .text	0000000000000108 TEE_BigIntRelativePrime
00000000000100f0 g     F .text	00000000000000b4 mbedtls_mpi_mod_mpi
000000000000a5d8 g     F .text	000000000000000c _utee_cryp_obj_get_info
00000000000006f0 g     F .text	0000000000000074 ta_storage_cmd_alloc_enum
0000000000012ef8 g     F .text	00000000000000d0 bpool
000000000000d588 g     F .text	0000000000000048 TEE_AllocatePropertyEnumerator
000000000000a56c g     F .text	000000000000000c _utee_cryp_state_alloc
0000000000002b20 g     F .text	0000000000000060 TEE_GetCancellationFlag
0000000000004a10 g     F .text	000000000000007c __GP11_TEE_CreatePersistentObject
0000000000010c54 g     F .text	00000000000001d8 mbedtls_mpi_gcd
0000000000003518 g     F .text	0000000000000044 TEE_SetTAPersistentTime
000000000000ed40 g     F .text	00000000000000b8 mbedtls_mpi_write_binary_le
0000000000013848 g     F .text	000000000000001c memset
0000000000013074 g     F .text	0000000000000084 raw_memalign
00000000000034a4 g     F .text	0000000000000074 TEE_GetTAPersistentTime
0000000000006b24 g     F .text	000000000000003c __GP11_TEE_SetOperationKey
000000000000814c g     F .text	00000000000000d4 __GP11_TEE_AEEncryptFinal
0000000000001578 g     F .text	0000000000000198 dhex_dump
00000000000048cc g     F .text	0000000000000144 TEE_CreatePersistentObject
0000000000002be0 g     F .text	0000000000000060 TEE_MaskCancellation
0000000000007c1c g     F .text	000000000000009c TEE_AEUpdateAAD
0000000000000ee4 g     F .text	000000000000002c ta_storage_cmd_free_obj
00000000000050bc g     F .text	000000000000005c TEE_TruncateObjectData
000000000000a5f0 g     F .text	000000000000000c _utee_cryp_obj_get_attr
00000000000007d4 g     F .text	0000000000000124 ta_storage_cmd_next_enum
0000000000003a28 g     F .text	00000000000000b0 TEE_GetObjectInfo1
000000000000a5cc g     F .text	000000000000000c _utee_cipher_final
0000000000001250 g     F .text	000000000000001c trace_set_level
0000000000003e08 g     F .text	0000000000000138 TEE_GetObjectValueAttribute
00000000000069d8 g     F .text	000000000000014c TEE_SetOperationKey
0000000000012048 g     F .text	000000000000001c mbedtls_ct_mpi_uint_lt
0000000000003d70 g     F .text	0000000000000098 __GP11_TEE_GetObjectBufferAttribute
000000000000a584 g     F .text	000000000000000c _utee_cryp_state_free
0000000000013864 g     F .text	0000000000000024 strcmp
000000000000a4f4 g     F .text	000000000000000c _utee_open_ta_session
000000000000b394 g     F .text	00000000000000bc TEE_BigIntConvertToS32
000000000000bb04 g     F .text	000000000000000c TEE_BigIntSub
0000000000005238 g     F .text	0000000000000008 __GP11_TEE_SeekObjectData
000000000000110c g     F .text	0000000000000008 tahead_get_trace_level
000000000000a6f8 g     F .text	000000000000000c _utee_storage_start_enum
0000000000005120 g     F .text	0000000000000118 TEE_SeekObjectData
0000000000009ad8 g     F .text	00000000000000b0 tee_map_zi
0000000000005118 g     F .text	0000000000000008 __GP11_TEE_TruncateObjectData
0000000000010584 g     F .text	0000000000000004 mbedtls_mpi_montred
00000000000132c8 g     F .text	000000000000001c memalign
0000000000012010 g     F .text	0000000000000010 mbedtls_ct_uint_mask
000000000000746c g     F .text	0000000000000218 TEE_CipherDoFinal
000000000000041c g     F .text	00000000000000d0 ta_storage_cmd_read
000000000000b0e4 g     F .text	0000000000000008 __GP11_TEE_BigIntInit
000000000000b2e4 g     F .text	00000000000000b0 TEE_BigIntConvertFromS32
000000000000f600 g     F .text	0000000000000074 mbedtls_mpi_add_int
000000000000a674 g     F .text	000000000000000c _utee_authenc_enc_final
000000000001369c g     F .text	0000000000000014 malloc_buffer_is_within_alloced
000000000000a608 g     F .text	000000000000000c _utee_cryp_obj_close
000000000000935c g     F .text	0000000000000008 __GP11_TEE_GenerateRandom
000000000000c684 g     F .text	0000000000000004 TEE_BigIntInitFMMContext
0000000000000f3c g     F .text	00000000000000e8 ta_storage_cmd_get_obj_info
00000000000001fc g     F .text	00000000000000fc ta_storage_cmd_create
000000000000a53c g     F .text	000000000000000c _utee_mask_cancellation
000000000001a610 g     O .bss	0000000000000008 __ta_no_share_malloc_ctx
000000000000a6c8 g     F .text	000000000000000c _utee_storage_obj_rename
0000000000004db0 g     F .text	000000000000012c __GP11_TEE_GetNextPersistentObject
0000000000004c1c g     F .text	0000000000000028 TEE_ResetPersistentObjectEnumerator
000000000000503c g     F .text	0000000000000078 TEE_WriteObjectData
00000000000033fc g     F .text	0000000000000008 __GP11_TEE_CheckMemoryAccessRights
000000000000bd08 g     F .text	0000000000000008 TEE_BigIntSquare
000000000000a71c g     F .text	000000000000000c _utee_storage_obj_write
0000000000001024 g     F .text	0000000000000008 TA_CreateEntryPoint
00000000000010f8 g     F .text	0000000000000014 __ta_entry
000000000002de80 g     O .bss	0000000000000000 __ta_no_share_heap
000000000000a65c g     F .text	000000000000000c _utee_authenc_update_aad
0000000000010574 g     F .text	0000000000000008 mbedtls_mpi_montg_init
0000000000001828 g     F .text	00000000000000cc snprintk
000000000000b958 g     F .text	0000000000000074 TEE_BigIntGetBitCount
000000000000a62c g     F .text	000000000000000c _utee_cryp_obj_copy
0000000000007cb8 g     F .text	0000000000000094 __GP11_TEE_AEUpdateAAD
000000000000bf48 g     F .text	000000000000000c TEE_BigIntMulMod
00000000000112f0 g     F .text	0000000000000458 mbedtls_mpi_inv_mod
00000000000099f4 g     F .text	0000000000000030 __utee_check_gp11_attr_in_annotation
0000000000009044 g     F .text	000000000000017c TEE_DeriveKey
000000000001a618 g     O .bss	0000000000000040 ta_params
000000000000fb48 g     F .text	0000000000000534 mbedtls_mpi_div_mpi
0000000000009934 g     F .text	0000000000000064 __utee_check_gp11_outstring_annotation
000000000000ec28 g     F .text	000000000000001c mbedtls_mpi_size
00000000000127f8 g     F .text	00000000000002e4 bget
0000000000004fa4 g     F .text	0000000000000098 __GP11_TEE_ReadObjectData
000000000000401c g     F .text	000000000000001c TEE_AllocateTransientObject
0000000000007880 g     F .text	0000000000000008 __GP11_TEE_MACUpdate
000000000000c6c8 g     F .text	0000000000000018 __GP11_TEE_BigIntFMMContextSizeInU32
000000000000d5d4 g     F .text	0000000000000010 TEE_StartPropertyEnumerator
000000000000a548 g     F .text	000000000000000c _utee_wait
000000000000eaec g     F .text	000000000000008c mbedtls_mpi_set_bit
00000000000036b0 g     F .text	0000000000000060 TEE_Free
0000000000011824 g     F .text	0000000000000010 mbedtls_mpi_is_prime
0000000000000790 g     F .text	000000000000002c ta_storage_cmd_reset_enum
0000000000003800 g     F .text	0000000000000008 TEE_CacheInvalidate
000000000000a7bc g     F .text	0000000000000014 _assert_break
000000000000bf30 g     F .text	000000000000000c TEE_BigIntAddMod
0000000000012094 g     F .text	000000000000003c mbedtls_ct_mpi_uint_cond_assign
000000000000c67c g     F .text	0000000000000008 __GP11_TEE_BigIntInitFMM
000000000000a554 g     F .text	000000000000000c _utee_get_time
000000000000d70c g     F .text	0000000000000088 TEE_GetPropertyName
00000000000037e8 g     F .text	0000000000000008 __GP11_TEE_Realloc
00000000000059ac g     F .text	0000000000000d38 TEE_AllocateOperation
000000000000a620 g     F .text	000000000000000c _utee_cryp_obj_populate
0000000000006914 g     F .text	0000000000000088 __GP11_TEE_GetOperationInfoMultiple
0000000000003858 g     F .text	0000000000000050 __utee_from_gp11_attr
000000000000933c g     F .text	0000000000000020 TEE_GenerateRandom
0000000000006fac g     F .text	00000000000001a4 TEE_DigestExtract
0000000000003428 g     F .text	0000000000000004 TEE_MemCompare
000000000000a5c0 g     F .text	000000000000000c _utee_cipher_update
0000000000001710 g     F .text	00000000000000c0 __vsnprintf
000000000001a658 g     O .bss	0000000000000010 __elf_phdr_info
0000000000004bf4 g     F .text	0000000000000028 TEE_FreePersistentObjectEnumerator
0000000000002e64 g     F .text	0000000000000154 TEE_OpenTASession
00000000000091c0 g     F .text	000000000000017c __GP11_TEE_DeriveKey
00000000000083f4 g     F .text	00000000000000b8 __GP11_TEE_AEDecryptFinal
0000000000002568 g     F .text	0000000000000028 trace_ext_puts
000000000000cee8 g     F .text	0000000000000098 __GP11_TEE_GetPropertyAsString
00000000000134ec g     F .text	0000000000000150 raw_malloc_buffer_is_within_alloced
0000000000002590 g     F .text	0000000000000008 trace_ext_get_thread_id
000000000001346c g     F .text	0000000000000080 raw_malloc_buffer_overlaps_heap
0000000000004ad4 g     F .text	000000000000002c TEE_CloseAndDeletePersistentObject
000000000000a638 g     F .text	000000000000000c _utee_cryp_derive_key
000000000000e624 g     F .text	000000000000006c mbedtls_mpi_free
00000000000077d8 g     F .text	0000000000000008 __GP11_TEE_MACInit
0000000000008eec g     F .text	0000000000000158 __GP11_TEE_AsymmetricVerifyDigest
000000000000a614 g     F .text	000000000000000c _utee_cryp_obj_reset
00000000000037f0 g     F .text	0000000000000008 TEE_CacheClean
000000000000a4e8 g     F .text	000000000000000c _utee_get_property_name_to_index
0000000000013118 g     F .text	0000000000000070 raw_calloc
000000000000dbd8 g     F .text	000000000000011c _base64_enc
00000000000122f8 g     F .text	00000000000000fc mbedtls_mpi_safe_cond_swap
000000000000a650 g     F .text	000000000000000c _utee_authenc_init
00000000000044ac g     F .text	00000000000000f8 TEE_CopyObjectAttributes1
0000000000004b5c g     F .text	0000000000000008 __GP11_TEE_RenamePersistentObject
000000000000254c g     F .text	000000000000001c strlen
000000000000c38c g     F .text	0000000000000268 TEE_BigIntComputeExtendedGcd
000000000000a6d4 g     F .text	000000000000000c _utee_storage_alloc_enum
000000000000c1b8 g     F .text	00000000000001d4 TEE_BigIntExpMod
0000000000003440 g     F .text	0000000000000028 TEE_GetSystemTime
000000000000a698 g     F .text	000000000000000c _utee_asymm_verify
0000000000000000 g     O .ta_head	0000000000000020 ta_head
0000000000012b64 g     F .text	00000000000002c4 brel
000000000000d228 g     F .text	00000000000000ec __GP11_TEE_GetPropertyAsBinaryBlock
00000000000002f8 g     F .text	00000000000000f8 ta_storage_cmd_create_overwrite
000000000000f390 g     F .text	000000000000015c mbedtls_mpi_sub_abs
0000000000010e2c g     F .text	0000000000000068 mbedtls_mpi_fill_random
0000000000003f68 g     F .text	00000000000000b4 __GP11_TEE_AllocateTransientObject
0000000000003404 g     F .text	000000000000000c TEE_SetInstanceData
000000000000863c g     F .text	0000000000000174 __GP11_TEE_AsymmetricEncrypt
000000000000a518 g     F .text	000000000000000c _utee_get_cancellation_flag
0000000000010240 g     F .text	0000000000000270 mbedtls_mpi_write_string
00000000000132e4 g     F .text	0000000000000018 aligned_alloc
00000000000004ec g     F .text	000000000000007c ta_storage_cmd_write
0000000000004c94 g     F .text	000000000000011c TEE_GetNextPersistentObject
000000000000c690 g     F .text	0000000000000008 TEE_BigIntInitFMMContext1
0000000000007b3c g     F .text	000000000000000c __GP11_TEE_MACCompareFinal
00000000000050b4 g     F .text	0000000000000008 __GP11_TEE_WriteObjectData
0000000000002af8 g     F .text	0000000000000028 TEE_CloseTASession
0000000000008d94 g     F .text	0000000000000158 TEE_AsymmetricVerifyDigest
000000000000a6b0 g     F .text	000000000000000c _utee_storage_obj_create
000000000000c6a8 g     F .text	0000000000000018 __GP11_TEE_BigIntFMMSizeInU32
00000000000132fc g     F .text	0000000000000010 free
0000000000012fc8 g     F .text	0000000000000094 bstats
0000000000007888 g     F .text	0000000000000110 TEE_MACComputeFinal
000000000001de78 g     O .bss	0000000000000008 mbedtls_mpi_mempool
000000000000a5a8 g     F .text	000000000000000c _utee_hash_final



Disassembly of section .text:

0000000000000020 <memcpy>:
memcpy():
/home/ssysarch/Desktop/nick/jetpack_5/Jetson_Linux_R35.4.1_aarch64/Linux_for_Tegra/sources/tegra/optee-src/nv-optee/optee/optee_os/lib/libutils/isoc/newlib/memcpy.c:106
      20:	f1007c5f 	cmp	x2, #0x1f
      24:	54000629 	b.ls	e8 <memcpy+0xc8>  // b.plast
/home/ssysarch/Desktop/nick/jetpack_5/Jetson_Linux_R35.4.1_aarch64/Linux_for_Tegra/sources/tegra/optee-src/nv-optee/optee/optee_os/lib/libutils/isoc/newlib/memcpy.c:106 (discriminator 1)
      28:	aa000025 	orr	x5, x1, x0
      2c:	f24008a5 	ands	x5, x5, #0x7
      30:	54000641 	b.ne	f8 <memcpy+0xd8>  // b.any
      34:	d1008048 	sub	x8, x2, #0x20
/home/ssysarch/Desktop/nick/jetpack_5/Jetson_Linux_R35.4.1_aarch64/Linux_for_Tegra/sources/tegra/optee-src/nv-optee/optee/optee_os/lib/libutils/isoc/newlib/memcpy.c:108
      38:	aa0103e4 	mov	x4, x1
      3c:	927be908 	and	x8, x8, #0xffffffffffffffe0
/home/ssysarch/Desktop/nick/jetpack_5/Jetson_Linux_R35.4.1_aarch64/Linux_for_Tegra/sources/tegra/optee-src/nv-optee/optee/optee_os/lib/libutils/isoc/newlib/memcpy.c:107
      40:	aa0003e3 	mov	x3, x0
      44:	91008108 	add	x8, x8, #0x20
      48:	8b080007 	add	x7, x0, x8
      4c:	d503201f 	nop
/home/ssysarch/Desktop/nick/jetpack_5/Jetson_Linux_R35.4.1_aarch64/Linux_for_Tegra/sources/tegra/optee-src/nv-optee/optee/optee_os/lib/libutils/isoc/newlib/memcpy.c:112
      50:	f9400086 	ldr	x6, [x4]
      54:	f9000066 	str	x6, [x3]
/home/ssysarch/Desktop/nick/jetpack_5/Jetson_Linux_R35.4.1_aarch64/Linux_for_Tegra/sources/tegra/optee-src/nv-optee/optee/optee_os/lib/libutils/isoc/newlib/memcpy.c:113
      58:	91008084 	add	x4, x4, #0x20
      5c:	91008063 	add	x3, x3, #0x20
      60:	f85e8086 	ldur	x6, [x4, #-24]
      64:	f81e8066 	stur	x6, [x3, #-24]
/home/ssysarch/Desktop/nick/jetpack_5/Jetson_Linux_R35.4.1_aarch64/Linux_for_Tegra/sources/tegra/optee-src/nv-optee/optee/optee_os/lib/libutils/isoc/newlib/memcpy.c:114
      68:	f85f0086 	ldur	x6, [x4, #-16]
      6c:	f81f0066 	stur	x6, [x3, #-16]
/home/ssysarch/Desktop/nick/jetpack_5/Jetson_Linux_R35.4.1_aarch64/Linux_for_Tegra/sources/tegra/optee-src/nv-optee/optee/optee_os/lib/libutils/isoc/newlib/memcpy.c:111
      70:	eb0300ff 	cmp	x7, x3
/home/ssysarch/Desktop/nick/jetpack_5/Jetson_Linux_R35.4.1_aarch64/Linux_for_Tegra/sources/tegra/optee-src/nv-optee/optee/optee_os/lib/libutils/isoc/newlib/memcpy.c:115
      74:	f85f8086 	ldur	x6, [x4, #-8]
      78:	f81f8066 	stur	x6, [x3, #-8]
/home/ssysarch/Desktop/nick/jetpack_5/Jetson_Linux_R35.4.1_aarch64/Linux_for_Tegra/sources/tegra/optee-src/nv-optee/optee/optee_os/lib/libutils/isoc/newlib/memcpy.c:111
      7c:	54fffea1 	b.ne	50 <memcpy+0x30>  // b.any
      80:	8b080021 	add	x1, x1, x8
/home/ssysarch/Desktop/nick/jetpack_5/Jetson_Linux_R35.4.1_aarch64/Linux_for_Tegra/sources/tegra/optee-src/nv-optee/optee/optee_os/lib/libutils/isoc/newlib/memcpy.c:120
      84:	f27d045f 	tst	x2, #0x18
      88:	92401044 	and	x4, x2, #0x1f
      8c:	540003c0 	b.eq	104 <memcpy+0xe4>  // b.none
/home/ssysarch/Desktop/nick/jetpack_5/Jetson_Linux_R35.4.1_aarch64/Linux_for_Tegra/sources/tegra/optee-src/nv-optee/optee/optee_os/lib/libutils/isoc/newlib/memcpy.c:121
      90:	f8656826 	ldr	x6, [x1, x5]
      94:	f8256866 	str	x6, [x3, x5]
/home/ssysarch/Desktop/nick/jetpack_5/Jetson_Linux_R35.4.1_aarch64/Linux_for_Tegra/sources/tegra/optee-src/nv-optee/optee/optee_os/lib/libutils/isoc/newlib/memcpy.c:120
      98:	910020a5 	add	x5, x5, #0x8
      9c:	cb050086 	sub	x6, x4, x5
      a0:	f1001cdf 	cmp	x6, #0x7
      a4:	54ffff68 	b.hi	90 <memcpy+0x70>  // b.pmore
      a8:	d1002084 	sub	x4, x4, #0x8
      ac:	92400842 	and	x2, x2, #0x7
      b0:	927df084 	and	x4, x4, #0xfffffffffffffff8
/home/ssysarch/Desktop/nick/jetpack_5/Jetson_Linux_R35.4.1_aarch64/Linux_for_Tegra/sources/tegra/optee-src/nv-optee/optee/optee_os/lib/libutils/isoc/newlib/memcpy.c:130
      b4:	d1000446 	sub	x6, x2, #0x1
      b8:	91002084 	add	x4, x4, #0x8
      bc:	8b040063 	add	x3, x3, x4
      c0:	8b040021 	add	x1, x1, x4
      c4:	b4000102 	cbz	x2, e4 <memcpy+0xc4>
/home/ssysarch/Desktop/nick/jetpack_5/Jetson_Linux_R35.4.1_aarch64/Linux_for_Tegra/sources/tegra/optee-src/nv-optee/optee/optee_os/lib/libutils/isoc/newlib/memcpy.c:99
      c8:	d2800002 	mov	x2, #0x0                   	// #0
      cc:	d503201f 	nop
/home/ssysarch/Desktop/nick/jetpack_5/Jetson_Linux_R35.4.1_aarch64/Linux_for_Tegra/sources/tegra/optee-src/nv-optee/optee/optee_os/lib/libutils/isoc/newlib/memcpy.c:131
      d0:	38626825 	ldrb	w5, [x1, x2]
/home/ssysarch/Desktop/nick/jetpack_5/Jetson_Linux_R35.4.1_aarch64/Linux_for_Tegra/sources/tegra/optee-src/nv-optee/optee/optee_os/lib/libutils/isoc/newlib/memcpy.c:130
      d4:	eb0200df 	cmp	x6, x2
/home/ssysarch/Desktop/nick/jetpack_5/Jetson_Linux_R35.4.1_aarch64/Linux_for_Tegra/sources/tegra/optee-src/nv-optee/optee/optee_os/lib/libutils/isoc/newlib/memcpy.c:131
      d8:	38226865 	strb	w5, [x3, x2]
/home/ssysarch/Desktop/nick/jetpack_5/Jetson_Linux_R35.4.1_aarch64/Linux_for_Tegra/sources/tegra/optee-src/nv-optee/optee/optee_os/lib/libutils/isoc/newlib/memcpy.c:130
      dc:	91000442 	add	x2, x2, #0x1
      e0:	54ffff81 	b.ne	d0 <memcpy+0xb0>  // b.any
/home/ssysarch/Desktop/nick/jetpack_5/Jetson_Linux_R35.4.1_aarch64/Linux_for_Tegra/sources/tegra/optee-src/nv-optee/optee/optee_os/lib/libutils/isoc/newlib/memcpy.c:135
      e4:	d65f03c0 	ret
/home/ssysarch/Desktop/nick/jetpack_5/Jetson_Linux_R35.4.1_aarch64/Linux_for_Tegra/sources/tegra/optee-src/nv-optee/optee/optee_os/lib/libutils/isoc/newlib/memcpy.c:99
      e8:	aa0003e3 	mov	x3, x0
/home/ssysarch/Desktop/nick/jetpack_5/Jetson_Linux_R35.4.1_aarch64/Linux_for_Tegra/sources/tegra/optee-src/nv-optee/optee/optee_os/lib/libutils/isoc/newlib/memcpy.c:130
      ec:	d1000446 	sub	x6, x2, #0x1
      f0:	b5fffec2 	cbnz	x2, c8 <memcpy+0xa8>
/home/ssysarch/Desktop/nick/jetpack_5/Jetson_Linux_R35.4.1_aarch64/Linux_for_Tegra/sources/tegra/optee-src/nv-optee/optee/optee_os/lib/libutils/isoc/newlib/memcpy.c:135
      f4:	d65f03c0 	ret
/home/ssysarch/Desktop/nick/jetpack_5/Jetson_Linux_R35.4.1_aarch64/Linux_for_Tegra/sources/tegra/optee-src/nv-optee/optee/optee_os/lib/libutils/isoc/newlib/memcpy.c:130
      f8:	d1000446 	sub	x6, x2, #0x1
/home/ssysarch/Desktop/nick/jetpack_5/Jetson_Linux_R35.4.1_aarch64/Linux_for_Tegra/sources/tegra/optee-src/nv-optee/optee/optee_os/lib/libutils/isoc/newlib/memcpy.c:99
      fc:	aa0003e3 	mov	x3, x0
     100:	17fffff2 	b	c8 <memcpy+0xa8>
/home/ssysarch/Desktop/nick/jetpack_5/Jetson_Linux_R35.4.1_aarch64/Linux_for_Tegra/sources/tegra/optee-src/nv-optee/optee/optee_os/lib/libutils/isoc/newlib/memcpy.c:120
     104:	aa0403e2 	mov	x2, x4
     108:	17fffff9 	b	ec <memcpy+0xcc>

000000000000010c <ta_storage_cmd_open>:
ta_storage_cmd_open():
/home/ssysarch/Desktop/nick/jetpack_5/Jetson_Linux_R35.4.1_aarch64/Linux_for_Tegra/sources/tegra/optee-src/nv-optee/optee/optee_test/ta/storage/storage.c:23
     10c:	a9bc7bfd 	stp	x29, x30, [sp, #-64]!
/home/ssysarch/Desktop/nick/jetpack_5/Jetson_Linux_R35.4.1_aarch64/Linux_for_Tegra/sources/tegra/optee-src/nv-optee/optee/optee_test/ta/storage/storage.c:28
     110:	7104d43f 	cmp	w1, #0x135
/home/ssysarch/Desktop/nick/jetpack_5/Jetson_Linux_R35.4.1_aarch64/Linux_for_Tegra/sources/tegra/optee-src/nv-optee/optee/optee_test/ta/storage/storage.c:23
     114:	910003fd 	mov	x29, sp
     118:	a90153f3 	stp	x19, x20, [sp, #16]
     11c:	aa0203f3 	mov	x19, x2
     120:	d00000c2 	adrp	x2, 1a000 <_DYNAMIC>
     124:	a9025bf5 	stp	x21, x22, [sp, #32]
     128:	2a0003f5 	mov	w21, w0
     12c:	f9409842 	ldr	x2, [x2, #304]
/home/ssysarch/Desktop/nick/jetpack_5/Jetson_Linux_R35.4.1_aarch64/Linux_for_Tegra/sources/tegra/optee-src/nv-optee/optee/optee_test/ta/storage/storage.c:25
     130:	f9001bff 	str	xzr, [sp, #48]
/home/ssysarch/Desktop/nick/jetpack_5/Jetson_Linux_R35.4.1_aarch64/Linux_for_Tegra/sources/tegra/optee-src/nv-optee/optee/optee_test/ta/storage/storage.c:23
     134:	f9400040 	ldr	x0, [x2]
     138:	f9001fe0 	str	x0, [sp, #56]
     13c:	d2800000 	mov	x0, #0x0                   	// #0
/home/ssysarch/Desktop/nick/jetpack_5/Jetson_Linux_R35.4.1_aarch64/Linux_for_Tegra/sources/tegra/optee-src/nv-optee/optee/optee_test/ta/storage/storage.c:28
     140:	540004c1 	b.ne	1d8 <ta_storage_cmd_open+0xcc>  // b.any
/home/ssysarch/Desktop/nick/jetpack_5/Jetson_Linux_R35.4.1_aarch64/Linux_for_Tegra/sources/tegra/optee-src/nv-optee/optee/optee_test/ta/storage/storage.c:34
     144:	34000195 	cbz	w21, 174 <ta_storage_cmd_open+0x68>
     148:	71005abf 	cmp	w21, #0x16
     14c:	54000420 	b.eq	1d0 <ta_storage_cmd_open+0xc4>  // b.none
     150:	129ffeb3 	mov	w19, #0xffff000a            	// #-65526
/home/ssysarch/Desktop/nick/jetpack_5/Jetson_Linux_R35.4.1_aarch64/Linux_for_Tegra/sources/tegra/optee-src/nv-optee/optee/optee_test/ta/storage/storage.c:62
     154:	d00000c2 	adrp	x2, 1a000 <_DYNAMIC>
     158:	f9409842 	ldr	x2, [x2, #304]
     15c:	f9401fe0 	ldr	x0, [sp, #56]
     160:	f9400041 	ldr	x1, [x2]
     164:	eb010000 	subs	x0, x0, x1
     168:	d2800001 	mov	x1, #0x0                   	// #0
     16c:	540003e0 	b.eq	1e8 <ta_storage_cmd_open+0xdc>  // b.none
     170:	940003e9 	bl	1114 <__stack_chk_fail>
/home/ssysarch/Desktop/nick/jetpack_5/Jetson_Linux_R35.4.1_aarch64/Linux_for_Tegra/sources/tegra/optee-src/nv-optee/optee/optee_test/ta/storage/storage.c:36
     174:	f9400274 	ldr	x20, [x19]
     178:	b4000114 	cbz	x20, 198 <ta_storage_cmd_open+0x8c>
/home/ssysarch/Desktop/nick/jetpack_5/Jetson_Linux_R35.4.1_aarch64/Linux_for_Tegra/sources/tegra/optee-src/nv-optee/optee/optee_test/ta/storage/storage.c:37
     17c:	f9400660 	ldr	x0, [x19, #8]
     180:	52800001 	mov	w1, #0x0                   	// #0
     184:	94000d00 	bl	3584 <TEE_Malloc>
     188:	aa0003f4 	mov	x20, x0
/home/ssysarch/Desktop/nick/jetpack_5/Jetson_Linux_R35.4.1_aarch64/Linux_for_Tegra/sources/tegra/optee-src/nv-optee/optee/optee_test/ta/storage/storage.c:38
     18c:	b40002a0 	cbz	x0, 1e0 <ta_storage_cmd_open+0xd4>
/home/ssysarch/Desktop/nick/jetpack_5/Jetson_Linux_R35.4.1_aarch64/Linux_for_Tegra/sources/tegra/optee-src/nv-optee/optee/optee_test/ta/storage/storage.c:41
     190:	a9400a61 	ldp	x1, x2, [x19]
     194:	94000ca2 	bl	341c <TEE_MemMove>
/home/ssysarch/Desktop/nick/jetpack_5/Jetson_Linux_R35.4.1_aarch64/Linux_for_Tegra/sources/tegra/optee-src/nv-optee/optee/optee_test/ta/storage/storage.c:52
     198:	b9401263 	ldr	w3, [x19, #16]
     19c:	91004276 	add	x22, x19, #0x10
     1a0:	b9402260 	ldr	w0, [x19, #32]
     1a4:	9100c3e4 	add	x4, sp, #0x30
     1a8:	f9400662 	ldr	x2, [x19, #8]
     1ac:	aa1403e1 	mov	x1, x20
     1b0:	9400118c 	bl	47e0 <TEE_OpenPersistentObject>
     1b4:	2a0003f3 	mov	w19, w0
/home/ssysarch/Desktop/nick/jetpack_5/Jetson_Linux_R35.4.1_aarch64/Linux_for_Tegra/sources/tegra/optee-src/nv-optee/optee/optee_test/ta/storage/storage.c:56
     1b8:	f9401be0 	ldr	x0, [sp, #48]
     1bc:	b90006c0 	str	w0, [x22, #4]
/home/ssysarch/Desktop/nick/jetpack_5/Jetson_Linux_R35.4.1_aarch64/Linux_for_Tegra/sources/tegra/optee-src/nv-optee/optee/optee_test/ta/storage/storage.c:58
     1c0:	35fffcb5 	cbnz	w21, 154 <ta_storage_cmd_open+0x48>
/home/ssysarch/Desktop/nick/jetpack_5/Jetson_Linux_R35.4.1_aarch64/Linux_for_Tegra/sources/tegra/optee-src/nv-optee/optee/optee_test/ta/storage/storage.c:59
     1c4:	aa1403e0 	mov	x0, x20
     1c8:	94000d3a 	bl	36b0 <TEE_Free>
     1cc:	17ffffe2 	b	154 <ta_storage_cmd_open+0x48>
/home/ssysarch/Desktop/nick/jetpack_5/Jetson_Linux_R35.4.1_aarch64/Linux_for_Tegra/sources/tegra/optee-src/nv-optee/optee/optee_test/ta/storage/storage.c:46
     1d0:	f9400274 	ldr	x20, [x19]
/home/ssysarch/Desktop/nick/jetpack_5/Jetson_Linux_R35.4.1_aarch64/Linux_for_Tegra/sources/tegra/optee-src/nv-optee/optee/optee_test/ta/storage/storage.c:47
     1d4:	17fffff1 	b	198 <ta_storage_cmd_open+0x8c>
/home/ssysarch/Desktop/nick/jetpack_5/Jetson_Linux_R35.4.1_aarch64/Linux_for_Tegra/sources/tegra/optee-src/nv-optee/optee/optee_test/ta/storage/storage.c:28
     1d8:	129fff33 	mov	w19, #0xffff0006            	// #-65530
     1dc:	17ffffde 	b	154 <ta_storage_cmd_open+0x48>
/home/ssysarch/Desktop/nick/jetpack_5/Jetson_Linux_R35.4.1_aarch64/Linux_for_Tegra/sources/tegra/optee-src/nv-optee/optee/optee_test/ta/storage/storage.c:39
     1e0:	129ffe73 	mov	w19, #0xffff000c            	// #-65524
     1e4:	17ffffdc 	b	154 <ta_storage_cmd_open+0x48>
/home/ssysarch/Desktop/nick/jetpack_5/Jetson_Linux_R35.4.1_aarch64/Linux_for_Tegra/sources/tegra/optee-src/nv-optee/optee/optee_test/ta/storage/storage.c:62
     1e8:	2a1303e0 	mov	w0, w19
     1ec:	a94153f3 	ldp	x19, x20, [sp, #16]
     1f0:	a9425bf5 	ldp	x21, x22, [sp, #32]
     1f4:	a8c47bfd 	ldp	x29, x30, [sp], #64
     1f8:	d65f03c0 	ret

00000000000001fc <ta_storage_cmd_create>:
ta_storage_cmd_create():
/home/ssysarch/Desktop/nick/jetpack_5/Jetson_Linux_R35.4.1_aarch64/Linux_for_Tegra/sources/tegra/optee-src/nv-optee/optee/optee_test/ta/storage/storage.c:66
     1fc:	a9bc7bfd 	stp	x29, x30, [sp, #-64]!
     200:	910003fd 	mov	x29, sp
     204:	a90153f3 	stp	x19, x20, [sp, #16]
     208:	aa0203f3 	mov	x19, x2
     20c:	d00000c2 	adrp	x2, 1a000 <_DYNAMIC>
     210:	a9025bf5 	stp	x21, x22, [sp, #32]
     214:	2a0003f6 	mov	w22, w0
     218:	f9409842 	ldr	x2, [x2, #304]
/home/ssysarch/Desktop/nick/jetpack_5/Jetson_Linux_R35.4.1_aarch64/Linux_for_Tegra/sources/tegra/optee-src/nv-optee/optee/optee_test/ta/storage/storage.c:68
     21c:	f9001bff 	str	xzr, [sp, #48]
/home/ssysarch/Desktop/nick/jetpack_5/Jetson_Linux_R35.4.1_aarch64/Linux_for_Tegra/sources/tegra/optee-src/nv-optee/optee/optee_test/ta/storage/storage.c:66
     220:	f9400040 	ldr	x0, [x2]
     224:	f9001fe0 	str	x0, [sp, #56]
     228:	d2800000 	mov	x0, #0x0                   	// #0
/home/ssysarch/Desktop/nick/jetpack_5/Jetson_Linux_R35.4.1_aarch64/Linux_for_Tegra/sources/tegra/optee-src/nv-optee/optee/optee_test/ta/storage/storage.c:72
     22c:	528a26a0 	mov	w0, #0x5135                	// #20789
     230:	6b00003f 	cmp	w1, w0
     234:	54000501 	b.ne	2d4 <ta_storage_cmd_create+0xd8>  // b.any
/home/ssysarch/Desktop/nick/jetpack_5/Jetson_Linux_R35.4.1_aarch64/Linux_for_Tegra/sources/tegra/optee-src/nv-optee/optee/optee_test/ta/storage/storage.c:78
     238:	710012df 	cmp	w22, #0x4
     23c:	54000180 	b.eq	26c <ta_storage_cmd_create+0x70>  // b.none
     240:	71005edf 	cmp	w22, #0x17
     244:	54000440 	b.eq	2cc <ta_storage_cmd_create+0xd0>  // b.none
     248:	129ffeb5 	mov	w21, #0xffff000a            	// #-65526
/home/ssysarch/Desktop/nick/jetpack_5/Jetson_Linux_R35.4.1_aarch64/Linux_for_Tegra/sources/tegra/optee-src/nv-optee/optee/optee_test/ta/storage/storage.c:110
     24c:	d00000c2 	adrp	x2, 1a000 <_DYNAMIC>
     250:	f9409842 	ldr	x2, [x2, #304]
     254:	f9401fe0 	ldr	x0, [sp, #56]
     258:	f9400041 	ldr	x1, [x2]
     25c:	eb010000 	subs	x0, x0, x1
     260:	d2800001 	mov	x1, #0x0                   	// #0
     264:	54000400 	b.eq	2e4 <ta_storage_cmd_create+0xe8>  // b.none
     268:	940003ab 	bl	1114 <__stack_chk_fail>
/home/ssysarch/Desktop/nick/jetpack_5/Jetson_Linux_R35.4.1_aarch64/Linux_for_Tegra/sources/tegra/optee-src/nv-optee/optee/optee_test/ta/storage/storage.c:80
     26c:	f9400274 	ldr	x20, [x19]
     270:	b4000114 	cbz	x20, 290 <ta_storage_cmd_create+0x94>
/home/ssysarch/Desktop/nick/jetpack_5/Jetson_Linux_R35.4.1_aarch64/Linux_for_Tegra/sources/tegra/optee-src/nv-optee/optee/optee_test/ta/storage/storage.c:81
     274:	f9400660 	ldr	x0, [x19, #8]
     278:	52800001 	mov	w1, #0x0                   	// #0
     27c:	94000cc2 	bl	3584 <TEE_Malloc>
     280:	aa0003f4 	mov	x20, x0
/home/ssysarch/Desktop/nick/jetpack_5/Jetson_Linux_R35.4.1_aarch64/Linux_for_Tegra/sources/tegra/optee-src/nv-optee/optee/optee_test/ta/storage/storage.c:82
     284:	b40002c0 	cbz	x0, 2dc <ta_storage_cmd_create+0xe0>
/home/ssysarch/Desktop/nick/jetpack_5/Jetson_Linux_R35.4.1_aarch64/Linux_for_Tegra/sources/tegra/optee-src/nv-optee/optee/optee_test/ta/storage/storage.c:85
     288:	a9400a61 	ldp	x1, x2, [x19]
     28c:	94000c64 	bl	341c <TEE_MemMove>
/home/ssysarch/Desktop/nick/jetpack_5/Jetson_Linux_R35.4.1_aarch64/Linux_for_Tegra/sources/tegra/optee-src/nv-optee/optee/optee_test/ta/storage/storage.c:98
     290:	a9431a65 	ldp	x5, x6, [x19, #48]
     294:	9100c3e7 	add	x7, sp, #0x30
     298:	b9401263 	ldr	w3, [x19, #16]
     29c:	aa1403e1 	mov	x1, x20
     2a0:	29440264 	ldp	w4, w0, [x19, #32]
     2a4:	f9400662 	ldr	x2, [x19, #8]
     2a8:	94001189 	bl	48cc <TEE_CreatePersistentObject>
     2ac:	2a0003f5 	mov	w21, w0
/home/ssysarch/Desktop/nick/jetpack_5/Jetson_Linux_R35.4.1_aarch64/Linux_for_Tegra/sources/tegra/optee-src/nv-optee/optee/optee_test/ta/storage/storage.c:104
     2b0:	710012df 	cmp	w22, #0x4
     2b4:	54000061 	b.ne	2c0 <ta_storage_cmd_create+0xc4>  // b.any
/home/ssysarch/Desktop/nick/jetpack_5/Jetson_Linux_R35.4.1_aarch64/Linux_for_Tegra/sources/tegra/optee-src/nv-optee/optee/optee_test/ta/storage/storage.c:105
     2b8:	aa1403e0 	mov	x0, x20
     2bc:	94000cfd 	bl	36b0 <TEE_Free>
/home/ssysarch/Desktop/nick/jetpack_5/Jetson_Linux_R35.4.1_aarch64/Linux_for_Tegra/sources/tegra/optee-src/nv-optee/optee/optee_test/ta/storage/storage.c:107
     2c0:	f9401be0 	ldr	x0, [sp, #48]
     2c4:	b9001660 	str	w0, [x19, #20]
/home/ssysarch/Desktop/nick/jetpack_5/Jetson_Linux_R35.4.1_aarch64/Linux_for_Tegra/sources/tegra/optee-src/nv-optee/optee/optee_test/ta/storage/storage.c:109
     2c8:	17ffffe1 	b	24c <ta_storage_cmd_create+0x50>
/home/ssysarch/Desktop/nick/jetpack_5/Jetson_Linux_R35.4.1_aarch64/Linux_for_Tegra/sources/tegra/optee-src/nv-optee/optee/optee_test/ta/storage/storage.c:90
     2cc:	f9400274 	ldr	x20, [x19]
/home/ssysarch/Desktop/nick/jetpack_5/Jetson_Linux_R35.4.1_aarch64/Linux_for_Tegra/sources/tegra/optee-src/nv-optee/optee/optee_test/ta/storage/storage.c:91
     2d0:	17fffff0 	b	290 <ta_storage_cmd_create+0x94>
/home/ssysarch/Desktop/nick/jetpack_5/Jetson_Linux_R35.4.1_aarch64/Linux_for_Tegra/sources/tegra/optee-src/nv-optee/optee/optee_test/ta/storage/storage.c:72
     2d4:	129fff35 	mov	w21, #0xffff0006            	// #-65530
     2d8:	17ffffdd 	b	24c <ta_storage_cmd_create+0x50>
/home/ssysarch/Desktop/nick/jetpack_5/Jetson_Linux_R35.4.1_aarch64/Linux_for_Tegra/sources/tegra/optee-src/nv-optee/optee/optee_test/ta/storage/storage.c:83
     2dc:	129ffe75 	mov	w21, #0xffff000c            	// #-65524
     2e0:	17ffffdb 	b	24c <ta_storage_cmd_create+0x50>
/home/ssysarch/Desktop/nick/jetpack_5/Jetson_Linux_R35.4.1_aarch64/Linux_for_Tegra/sources/tegra/optee-src/nv-optee/optee/optee_test/ta/storage/storage.c:110
     2e4:	2a1503e0 	mov	w0, w21
     2e8:	a94153f3 	ldp	x19, x20, [sp, #16]
     2ec:	a9425bf5 	ldp	x21, x22, [sp, #32]
     2f0:	a8c47bfd 	ldp	x29, x30, [sp], #64
     2f4:	d65f03c0 	ret

00000000000002f8 <ta_storage_cmd_create_overwrite>:
ta_storage_cmd_create_overwrite():
/home/ssysarch/Desktop/nick/jetpack_5/Jetson_Linux_R35.4.1_aarch64/Linux_for_Tegra/sources/tegra/optee-src/nv-optee/optee/optee_test/ta/storage/storage.c:115
     2f8:	a9bc7bfd 	stp	x29, x30, [sp, #-64]!
/home/ssysarch/Desktop/nick/jetpack_5/Jetson_Linux_R35.4.1_aarch64/Linux_for_Tegra/sources/tegra/optee-src/nv-optee/optee/optee_test/ta/storage/storage.c:120
     2fc:	7100543f 	cmp	w1, #0x15
/home/ssysarch/Desktop/nick/jetpack_5/Jetson_Linux_R35.4.1_aarch64/Linux_for_Tegra/sources/tegra/optee-src/nv-optee/optee/optee_test/ta/storage/storage.c:115
     300:	910003fd 	mov	x29, sp
     304:	a90153f3 	stp	x19, x20, [sp, #16]
     308:	aa0203f3 	mov	x19, x2
     30c:	d00000c2 	adrp	x2, 1a000 <_DYNAMIC>
     310:	f90013f5 	str	x21, [sp, #32]
     314:	2a0003f5 	mov	w21, w0
     318:	f9409842 	ldr	x2, [x2, #304]
/home/ssysarch/Desktop/nick/jetpack_5/Jetson_Linux_R35.4.1_aarch64/Linux_for_Tegra/sources/tegra/optee-src/nv-optee/optee/optee_test/ta/storage/storage.c:117
     31c:	f9001bff 	str	xzr, [sp, #48]
/home/ssysarch/Desktop/nick/jetpack_5/Jetson_Linux_R35.4.1_aarch64/Linux_for_Tegra/sources/tegra/optee-src/nv-optee/optee/optee_test/ta/storage/storage.c:115
     320:	f9400040 	ldr	x0, [x2]
     324:	f9001fe0 	str	x0, [sp, #56]
     328:	d2800000 	mov	x0, #0x0                   	// #0
/home/ssysarch/Desktop/nick/jetpack_5/Jetson_Linux_R35.4.1_aarch64/Linux_for_Tegra/sources/tegra/optee-src/nv-optee/optee/optee_test/ta/storage/storage.c:120
     32c:	54000501 	b.ne	3cc <ta_storage_cmd_create_overwrite+0xd4>  // b.any
/home/ssysarch/Desktop/nick/jetpack_5/Jetson_Linux_R35.4.1_aarch64/Linux_for_Tegra/sources/tegra/optee-src/nv-optee/optee/optee_test/ta/storage/storage.c:126
     330:	71003abf 	cmp	w21, #0xe
     334:	54000180 	b.eq	364 <ta_storage_cmd_create_overwrite+0x6c>  // b.none
     338:	710062bf 	cmp	w21, #0x18
     33c:	54000440 	b.eq	3c4 <ta_storage_cmd_create_overwrite+0xcc>  // b.none
     340:	129ffeb3 	mov	w19, #0xffff000a            	// #-65526
/home/ssysarch/Desktop/nick/jetpack_5/Jetson_Linux_R35.4.1_aarch64/Linux_for_Tegra/sources/tegra/optee-src/nv-optee/optee/optee_test/ta/storage/storage.c:152
     344:	d00000c2 	adrp	x2, 1a000 <_DYNAMIC>
     348:	f9409842 	ldr	x2, [x2, #304]
     34c:	f9401fe0 	ldr	x0, [sp, #56]
     350:	f9400041 	ldr	x1, [x2]
     354:	eb010000 	subs	x0, x0, x1
     358:	d2800001 	mov	x1, #0x0                   	// #0
     35c:	54000400 	b.eq	3dc <ta_storage_cmd_create_overwrite+0xe4>  // b.none
     360:	9400036d 	bl	1114 <__stack_chk_fail>
/home/ssysarch/Desktop/nick/jetpack_5/Jetson_Linux_R35.4.1_aarch64/Linux_for_Tegra/sources/tegra/optee-src/nv-optee/optee/optee_test/ta/storage/storage.c:128
     364:	f9400660 	ldr	x0, [x19, #8]
     368:	52800001 	mov	w1, #0x0                   	// #0
     36c:	94000c86 	bl	3584 <TEE_Malloc>
     370:	aa0003f4 	mov	x20, x0
/home/ssysarch/Desktop/nick/jetpack_5/Jetson_Linux_R35.4.1_aarch64/Linux_for_Tegra/sources/tegra/optee-src/nv-optee/optee/optee_test/ta/storage/storage.c:129
     374:	b4000300 	cbz	x0, 3d4 <ta_storage_cmd_create_overwrite+0xdc>
/home/ssysarch/Desktop/nick/jetpack_5/Jetson_Linux_R35.4.1_aarch64/Linux_for_Tegra/sources/tegra/optee-src/nv-optee/optee/optee_test/ta/storage/storage.c:132
     378:	a9400a61 	ldp	x1, x2, [x19]
     37c:	94000c28 	bl	341c <TEE_MemMove>
/home/ssysarch/Desktop/nick/jetpack_5/Jetson_Linux_R35.4.1_aarch64/Linux_for_Tegra/sources/tegra/optee-src/nv-optee/optee/optee_test/ta/storage/storage.c:142
     380:	b9401260 	ldr	w0, [x19, #16]
     384:	9100c3e7 	add	x7, sp, #0x30
     388:	f9400662 	ldr	x2, [x19, #8]
     38c:	aa1403e1 	mov	x1, x20
     390:	d2800006 	mov	x6, #0x0                   	// #0
     394:	d2800005 	mov	x5, #0x0                   	// #0
     398:	d2800004 	mov	x4, #0x0                   	// #0
     39c:	52808003 	mov	w3, #0x400                 	// #1024
     3a0:	9400114b 	bl	48cc <TEE_CreatePersistentObject>
     3a4:	2a0003f3 	mov	w19, w0
/home/ssysarch/Desktop/nick/jetpack_5/Jetson_Linux_R35.4.1_aarch64/Linux_for_Tegra/sources/tegra/optee-src/nv-optee/optee/optee_test/ta/storage/storage.c:146
     3a8:	f9401be0 	ldr	x0, [sp, #48]
     3ac:	94000ee5 	bl	3f40 <TEE_CloseObject>
/home/ssysarch/Desktop/nick/jetpack_5/Jetson_Linux_R35.4.1_aarch64/Linux_for_Tegra/sources/tegra/optee-src/nv-optee/optee/optee_test/ta/storage/storage.c:148
     3b0:	71003abf 	cmp	w21, #0xe
     3b4:	54fffc81 	b.ne	344 <ta_storage_cmd_create_overwrite+0x4c>  // b.any
/home/ssysarch/Desktop/nick/jetpack_5/Jetson_Linux_R35.4.1_aarch64/Linux_for_Tegra/sources/tegra/optee-src/nv-optee/optee/optee_test/ta/storage/storage.c:149
     3b8:	aa1403e0 	mov	x0, x20
     3bc:	94000cbd 	bl	36b0 <TEE_Free>
     3c0:	17ffffe1 	b	344 <ta_storage_cmd_create_overwrite+0x4c>
/home/ssysarch/Desktop/nick/jetpack_5/Jetson_Linux_R35.4.1_aarch64/Linux_for_Tegra/sources/tegra/optee-src/nv-optee/optee/optee_test/ta/storage/storage.c:136
     3c4:	f9400274 	ldr	x20, [x19]
/home/ssysarch/Desktop/nick/jetpack_5/Jetson_Linux_R35.4.1_aarch64/Linux_for_Tegra/sources/tegra/optee-src/nv-optee/optee/optee_test/ta/storage/storage.c:137
     3c8:	17ffffee 	b	380 <ta_storage_cmd_create_overwrite+0x88>
/home/ssysarch/Desktop/nick/jetpack_5/Jetson_Linux_R35.4.1_aarch64/Linux_for_Tegra/sources/tegra/optee-src/nv-optee/optee/optee_test/ta/storage/storage.c:120
     3cc:	129fff33 	mov	w19, #0xffff0006            	// #-65530
     3d0:	17ffffdd 	b	344 <ta_storage_cmd_create_overwrite+0x4c>
/home/ssysarch/Desktop/nick/jetpack_5/Jetson_Linux_R35.4.1_aarch64/Linux_for_Tegra/sources/tegra/optee-src/nv-optee/optee/optee_test/ta/storage/storage.c:130
     3d4:	129ffe73 	mov	w19, #0xffff000c            	// #-65524
     3d8:	17ffffdb 	b	344 <ta_storage_cmd_create_overwrite+0x4c>
/home/ssysarch/Desktop/nick/jetpack_5/Jetson_Linux_R35.4.1_aarch64/Linux_for_Tegra/sources/tegra/optee-src/nv-optee/optee/optee_test/ta/storage/storage.c:152
     3dc:	2a1303e0 	mov	w0, w19
     3e0:	a94153f3 	ldp	x19, x20, [sp, #16]
     3e4:	f94013f5 	ldr	x21, [sp, #32]
     3e8:	a8c47bfd 	ldp	x29, x30, [sp], #64
     3ec:	d65f03c0 	ret

00000000000003f0 <ta_storage_cmd_close>:
ta_storage_cmd_close():
/home/ssysarch/Desktop/nick/jetpack_5/Jetson_Linux_R35.4.1_aarch64/Linux_for_Tegra/sources/tegra/optee-src/nv-optee/optee/optee_test/ta/storage/storage.c:156
     3f0:	7100041f 	cmp	w0, #0x1
     3f4:	54000101 	b.ne	414 <ta_storage_cmd_close+0x24>  // b.any
/home/ssysarch/Desktop/nick/jetpack_5/Jetson_Linux_R35.4.1_aarch64/Linux_for_Tegra/sources/tegra/optee-src/nv-optee/optee/optee_test/ta/storage/storage.c:155 (discriminator 2)
     3f8:	a9bf7bfd 	stp	x29, x30, [sp, #-16]!
     3fc:	910003fd 	mov	x29, sp
/home/ssysarch/Desktop/nick/jetpack_5/Jetson_Linux_R35.4.1_aarch64/Linux_for_Tegra/sources/tegra/optee-src/nv-optee/optee/optee_test/ta/storage/storage.c:160 (discriminator 2)
     400:	b9400020 	ldr	w0, [x1]
     404:	94000ecf 	bl	3f40 <TEE_CloseObject>
/home/ssysarch/Desktop/nick/jetpack_5/Jetson_Linux_R35.4.1_aarch64/Linux_for_Tegra/sources/tegra/optee-src/nv-optee/optee/optee_test/ta/storage/storage.c:162 (discriminator 2)
     408:	52800000 	mov	w0, #0x0                   	// #0
/home/ssysarch/Desktop/nick/jetpack_5/Jetson_Linux_R35.4.1_aarch64/Linux_for_Tegra/sources/tegra/optee-src/nv-optee/optee/optee_test/ta/storage/storage.c:163 (discriminator 2)
     40c:	a8c17bfd 	ldp	x29, x30, [sp], #16
     410:	d65f03c0 	ret
/home/ssysarch/Desktop/nick/jetpack_5/Jetson_Linux_R35.4.1_aarch64/Linux_for_Tegra/sources/tegra/optee-src/nv-optee/optee/optee_test/ta/storage/storage.c:156
     414:	129fff20 	mov	w0, #0xffff0006            	// #-65530
/home/ssysarch/Desktop/nick/jetpack_5/Jetson_Linux_R35.4.1_aarch64/Linux_for_Tegra/sources/tegra/optee-src/nv-optee/optee/optee_test/ta/storage/storage.c:163
     418:	d65f03c0 	ret

000000000000041c <ta_storage_cmd_read>:
ta_storage_cmd_read():
/home/ssysarch/Desktop/nick/jetpack_5/Jetson_Linux_R35.4.1_aarch64/Linux_for_Tegra/sources/tegra/optee-src/nv-optee/optee/optee_test/ta/storage/storage.c:166
     41c:	a9bc7bfd 	stp	x29, x30, [sp, #-64]!
/home/ssysarch/Desktop/nick/jetpack_5/Jetson_Linux_R35.4.1_aarch64/Linux_for_Tegra/sources/tegra/optee-src/nv-optee/optee/optee_test/ta/storage/storage.c:172
     420:	7100d81f 	cmp	w0, #0x36
/home/ssysarch/Desktop/nick/jetpack_5/Jetson_Linux_R35.4.1_aarch64/Linux_for_Tegra/sources/tegra/optee-src/nv-optee/optee/optee_test/ta/storage/storage.c:166
     424:	910003fd 	mov	x29, sp
     428:	a90153f3 	stp	x19, x20, [sp, #16]
     42c:	aa0103f3 	mov	x19, x1
     430:	d00000c1 	adrp	x1, 1a000 <_DYNAMIC>
     434:	a9025bf5 	stp	x21, x22, [sp, #32]
/home/ssysarch/Desktop/nick/jetpack_5/Jetson_Linux_R35.4.1_aarch64/Linux_for_Tegra/sources/tegra/optee-src/nv-optee/optee/optee_test/ta/storage/storage.c:167
     438:	b9401274 	ldr	w20, [x19, #16]
/home/ssysarch/Desktop/nick/jetpack_5/Jetson_Linux_R35.4.1_aarch64/Linux_for_Tegra/sources/tegra/optee-src/nv-optee/optee/optee_test/ta/storage/storage.c:166
     43c:	f9409821 	ldr	x1, [x1, #304]
/home/ssysarch/Desktop/nick/jetpack_5/Jetson_Linux_R35.4.1_aarch64/Linux_for_Tegra/sources/tegra/optee-src/nv-optee/optee/optee_test/ta/storage/storage.c:169
     440:	f9001bff 	str	xzr, [sp, #48]
/home/ssysarch/Desktop/nick/jetpack_5/Jetson_Linux_R35.4.1_aarch64/Linux_for_Tegra/sources/tegra/optee-src/nv-optee/optee/optee_test/ta/storage/storage.c:166
     444:	f9400022 	ldr	x2, [x1]
     448:	f9001fe2 	str	x2, [sp, #56]
     44c:	d2800002 	mov	x2, #0x0                   	// #0
/home/ssysarch/Desktop/nick/jetpack_5/Jetson_Linux_R35.4.1_aarch64/Linux_for_Tegra/sources/tegra/optee-src/nv-optee/optee/optee_test/ta/storage/storage.c:172
     450:	540003c1 	b.ne	4c8 <ta_storage_cmd_read+0xac>  // b.any
/home/ssysarch/Desktop/nick/jetpack_5/Jetson_Linux_R35.4.1_aarch64/Linux_for_Tegra/sources/tegra/optee-src/nv-optee/optee/optee_test/ta/storage/storage.c:177 (discriminator 2)
     454:	f9400660 	ldr	x0, [x19, #8]
     458:	52800001 	mov	w1, #0x0                   	// #0
     45c:	94000c4a 	bl	3584 <TEE_Malloc>
     460:	aa0003f5 	mov	x21, x0
/home/ssysarch/Desktop/nick/jetpack_5/Jetson_Linux_R35.4.1_aarch64/Linux_for_Tegra/sources/tegra/optee-src/nv-optee/optee/optee_test/ta/storage/storage.c:178 (discriminator 2)
     464:	b4000360 	cbz	x0, 4d0 <ta_storage_cmd_read+0xb4>
/home/ssysarch/Desktop/nick/jetpack_5/Jetson_Linux_R35.4.1_aarch64/Linux_for_Tegra/sources/tegra/optee-src/nv-optee/optee/optee_test/ta/storage/storage.c:182
     468:	f9400662 	ldr	x2, [x19, #8]
     46c:	aa0003e1 	mov	x1, x0
/home/ssysarch/Desktop/nick/jetpack_5/Jetson_Linux_R35.4.1_aarch64/Linux_for_Tegra/sources/tegra/optee-src/nv-optee/optee/optee_test/ta/storage/storage.c:181
     470:	b9401660 	ldr	w0, [x19, #20]
/home/ssysarch/Desktop/nick/jetpack_5/Jetson_Linux_R35.4.1_aarch64/Linux_for_Tegra/sources/tegra/optee-src/nv-optee/optee/optee_test/ta/storage/storage.c:182
     474:	9100c3e3 	add	x3, sp, #0x30
/home/ssysarch/Desktop/nick/jetpack_5/Jetson_Linux_R35.4.1_aarch64/Linux_for_Tegra/sources/tegra/optee-src/nv-optee/optee/optee_test/ta/storage/storage.c:181
     478:	f9001be0 	str	x0, [sp, #48]
/home/ssysarch/Desktop/nick/jetpack_5/Jetson_Linux_R35.4.1_aarch64/Linux_for_Tegra/sources/tegra/optee-src/nv-optee/optee/optee_test/ta/storage/storage.c:182
     47c:	2a1403e0 	mov	w0, w20
     480:	94001297 	bl	4edc <TEE_ReadObjectData>
     484:	2a0003f4 	mov	w20, w0
/home/ssysarch/Desktop/nick/jetpack_5/Jetson_Linux_R35.4.1_aarch64/Linux_for_Tegra/sources/tegra/optee-src/nv-optee/optee/optee_test/ta/storage/storage.c:183
     488:	f9401be0 	ldr	x0, [sp, #48]
     48c:	b9001660 	str	w0, [x19, #20]
/home/ssysarch/Desktop/nick/jetpack_5/Jetson_Linux_R35.4.1_aarch64/Linux_for_Tegra/sources/tegra/optee-src/nv-optee/optee/optee_test/ta/storage/storage.c:184
     490:	35000094 	cbnz	w20, 4a0 <ta_storage_cmd_read+0x84>
/home/ssysarch/Desktop/nick/jetpack_5/Jetson_Linux_R35.4.1_aarch64/Linux_for_Tegra/sources/tegra/optee-src/nv-optee/optee/optee_test/ta/storage/storage.c:185
     494:	a9400a60 	ldp	x0, x2, [x19]
     498:	aa1503e1 	mov	x1, x21
     49c:	94000be0 	bl	341c <TEE_MemMove>
/home/ssysarch/Desktop/nick/jetpack_5/Jetson_Linux_R35.4.1_aarch64/Linux_for_Tegra/sources/tegra/optee-src/nv-optee/optee/optee_test/ta/storage/storage.c:186
     4a0:	aa1503e0 	mov	x0, x21
     4a4:	94000c83 	bl	36b0 <TEE_Free>
/home/ssysarch/Desktop/nick/jetpack_5/Jetson_Linux_R35.4.1_aarch64/Linux_for_Tegra/sources/tegra/optee-src/nv-optee/optee/optee_test/ta/storage/storage.c:189
     4a8:	d00000c1 	adrp	x1, 1a000 <_DYNAMIC>
     4ac:	f9409821 	ldr	x1, [x1, #304]
     4b0:	f9401fe0 	ldr	x0, [sp, #56]
     4b4:	f9400022 	ldr	x2, [x1]
     4b8:	eb020000 	subs	x0, x0, x2
     4bc:	d2800002 	mov	x2, #0x0                   	// #0
     4c0:	540000c0 	b.eq	4d8 <ta_storage_cmd_read+0xbc>  // b.none
     4c4:	94000314 	bl	1114 <__stack_chk_fail>
/home/ssysarch/Desktop/nick/jetpack_5/Jetson_Linux_R35.4.1_aarch64/Linux_for_Tegra/sources/tegra/optee-src/nv-optee/optee/optee_test/ta/storage/storage.c:172
     4c8:	129fff34 	mov	w20, #0xffff0006            	// #-65530
     4cc:	17fffff7 	b	4a8 <ta_storage_cmd_read+0x8c>
/home/ssysarch/Desktop/nick/jetpack_5/Jetson_Linux_R35.4.1_aarch64/Linux_for_Tegra/sources/tegra/optee-src/nv-optee/optee/optee_test/ta/storage/storage.c:179
     4d0:	129ffe74 	mov	w20, #0xffff000c            	// #-65524
     4d4:	17fffff5 	b	4a8 <ta_storage_cmd_read+0x8c>
/home/ssysarch/Desktop/nick/jetpack_5/Jetson_Linux_R35.4.1_aarch64/Linux_for_Tegra/sources/tegra/optee-src/nv-optee/optee/optee_test/ta/storage/storage.c:189
     4d8:	2a1403e0 	mov	w0, w20
     4dc:	a94153f3 	ldp	x19, x20, [sp, #16]
     4e0:	a9425bf5 	ldp	x21, x22, [sp, #32]
     4e4:	a8c47bfd 	ldp	x29, x30, [sp], #64
     4e8:	d65f03c0 	ret

00000000000004ec <ta_storage_cmd_write>:
ta_storage_cmd_write():
/home/ssysarch/Desktop/nick/jetpack_5/Jetson_Linux_R35.4.1_aarch64/Linux_for_Tegra/sources/tegra/optee-src/nv-optee/optee/optee_test/ta/storage/storage.c:192
     4ec:	a9bd7bfd 	stp	x29, x30, [sp, #-48]!
/home/ssysarch/Desktop/nick/jetpack_5/Jetson_Linux_R35.4.1_aarch64/Linux_for_Tegra/sources/tegra/optee-src/nv-optee/optee/optee_test/ta/storage/storage.c:197
     4f0:	7100541f 	cmp	w0, #0x15
/home/ssysarch/Desktop/nick/jetpack_5/Jetson_Linux_R35.4.1_aarch64/Linux_for_Tegra/sources/tegra/optee-src/nv-optee/optee/optee_test/ta/storage/storage.c:192
     4f4:	910003fd 	mov	x29, sp
     4f8:	a90153f3 	stp	x19, x20, [sp, #16]
     4fc:	f90013f5 	str	x21, [sp, #32]
/home/ssysarch/Desktop/nick/jetpack_5/Jetson_Linux_R35.4.1_aarch64/Linux_for_Tegra/sources/tegra/optee-src/nv-optee/optee/optee_test/ta/storage/storage.c:197
     500:	540002c1 	b.ne	558 <ta_storage_cmd_write+0x6c>  // b.any
     504:	aa0103f3 	mov	x19, x1
/home/ssysarch/Desktop/nick/jetpack_5/Jetson_Linux_R35.4.1_aarch64/Linux_for_Tegra/sources/tegra/optee-src/nv-optee/optee/optee_test/ta/storage/storage.c:202 (discriminator 2)
     508:	52800001 	mov	w1, #0x0                   	// #0
     50c:	f9400660 	ldr	x0, [x19, #8]
/home/ssysarch/Desktop/nick/jetpack_5/Jetson_Linux_R35.4.1_aarch64/Linux_for_Tegra/sources/tegra/optee-src/nv-optee/optee/optee_test/ta/storage/storage.c:193 (discriminator 2)
     510:	b9401275 	ldr	w21, [x19, #16]
/home/ssysarch/Desktop/nick/jetpack_5/Jetson_Linux_R35.4.1_aarch64/Linux_for_Tegra/sources/tegra/optee-src/nv-optee/optee/optee_test/ta/storage/storage.c:202 (discriminator 2)
     514:	94000c1c 	bl	3584 <TEE_Malloc>
     518:	aa0003f4 	mov	x20, x0
/home/ssysarch/Desktop/nick/jetpack_5/Jetson_Linux_R35.4.1_aarch64/Linux_for_Tegra/sources/tegra/optee-src/nv-optee/optee/optee_test/ta/storage/storage.c:203 (discriminator 2)
     51c:	b4000220 	cbz	x0, 560 <ta_storage_cmd_write+0x74>
/home/ssysarch/Desktop/nick/jetpack_5/Jetson_Linux_R35.4.1_aarch64/Linux_for_Tegra/sources/tegra/optee-src/nv-optee/optee/optee_test/ta/storage/storage.c:205
     520:	a9400a61 	ldp	x1, x2, [x19]
     524:	94000bbe 	bl	341c <TEE_MemMove>
/home/ssysarch/Desktop/nick/jetpack_5/Jetson_Linux_R35.4.1_aarch64/Linux_for_Tegra/sources/tegra/optee-src/nv-optee/optee/optee_test/ta/storage/storage.c:207
     528:	f9400662 	ldr	x2, [x19, #8]
     52c:	aa1403e1 	mov	x1, x20
     530:	2a1503e0 	mov	w0, w21
     534:	940012c2 	bl	503c <TEE_WriteObjectData>
     538:	2a0003f3 	mov	w19, w0
/home/ssysarch/Desktop/nick/jetpack_5/Jetson_Linux_R35.4.1_aarch64/Linux_for_Tegra/sources/tegra/optee-src/nv-optee/optee/optee_test/ta/storage/storage.c:208
     53c:	aa1403e0 	mov	x0, x20
     540:	94000c5c 	bl	36b0 <TEE_Free>
/home/ssysarch/Desktop/nick/jetpack_5/Jetson_Linux_R35.4.1_aarch64/Linux_for_Tegra/sources/tegra/optee-src/nv-optee/optee/optee_test/ta/storage/storage.c:211
     544:	2a1303e0 	mov	w0, w19
     548:	a94153f3 	ldp	x19, x20, [sp, #16]
     54c:	f94013f5 	ldr	x21, [sp, #32]
     550:	a8c37bfd 	ldp	x29, x30, [sp], #48
     554:	d65f03c0 	ret
/home/ssysarch/Desktop/nick/jetpack_5/Jetson_Linux_R35.4.1_aarch64/Linux_for_Tegra/sources/tegra/optee-src/nv-optee/optee/optee_test/ta/storage/storage.c:197
     558:	129fff33 	mov	w19, #0xffff0006            	// #-65530
     55c:	17fffffa 	b	544 <ta_storage_cmd_write+0x58>
/home/ssysarch/Desktop/nick/jetpack_5/Jetson_Linux_R35.4.1_aarch64/Linux_for_Tegra/sources/tegra/optee-src/nv-optee/optee/optee_test/ta/storage/storage.c:204
     560:	129ffe73 	mov	w19, #0xffff000c            	// #-65524
     564:	17fffff8 	b	544 <ta_storage_cmd_write+0x58>

0000000000000568 <ta_storage_cmd_seek>:
ta_storage_cmd_seek():
/home/ssysarch/Desktop/nick/jetpack_5/Jetson_Linux_R35.4.1_aarch64/Linux_for_Tegra/sources/tegra/optee-src/nv-optee/optee/optee_test/ta/storage/storage.c:214
     568:	a9bb7bfd 	stp	x29, x30, [sp, #-80]!
     56c:	d00000c2 	adrp	x2, 1a000 <_DYNAMIC>
/home/ssysarch/Desktop/nick/jetpack_5/Jetson_Linux_R35.4.1_aarch64/Linux_for_Tegra/sources/tegra/optee-src/nv-optee/optee/optee_test/ta/storage/storage.c:220
     570:	7100c41f 	cmp	w0, #0x31
/home/ssysarch/Desktop/nick/jetpack_5/Jetson_Linux_R35.4.1_aarch64/Linux_for_Tegra/sources/tegra/optee-src/nv-optee/optee/optee_test/ta/storage/storage.c:214
     574:	910003fd 	mov	x29, sp
     578:	f9409842 	ldr	x2, [x2, #304]
     57c:	a90153f3 	stp	x19, x20, [sp, #16]
     580:	f9400043 	ldr	x3, [x2]
     584:	f90027e3 	str	x3, [sp, #72]
     588:	d2800003 	mov	x3, #0x0                   	// #0
/home/ssysarch/Desktop/nick/jetpack_5/Jetson_Linux_R35.4.1_aarch64/Linux_for_Tegra/sources/tegra/optee-src/nv-optee/optee/optee_test/ta/storage/storage.c:220
     58c:	540002a1 	b.ne	5e0 <ta_storage_cmd_seek+0x78>  // b.any
/home/ssysarch/Desktop/nick/jetpack_5/Jetson_Linux_R35.4.1_aarch64/Linux_for_Tegra/sources/tegra/optee-src/nv-optee/optee/optee_test/ta/storage/storage.c:217 (discriminator 2)
     590:	aa0103f3 	mov	x19, x1
/home/ssysarch/Desktop/nick/jetpack_5/Jetson_Linux_R35.4.1_aarch64/Linux_for_Tegra/sources/tegra/optee-src/nv-optee/optee/optee_test/ta/storage/storage.c:226 (discriminator 2)
     594:	b9401022 	ldr	w2, [x1, #16]
     598:	b9800421 	ldrsw	x1, [x1, #4]
/home/ssysarch/Desktop/nick/jetpack_5/Jetson_Linux_R35.4.1_aarch64/Linux_for_Tegra/sources/tegra/optee-src/nv-optee/optee/optee_test/ta/storage/storage.c:217 (discriminator 2)
     59c:	b8410674 	ldr	w20, [x19], #16
/home/ssysarch/Desktop/nick/jetpack_5/Jetson_Linux_R35.4.1_aarch64/Linux_for_Tegra/sources/tegra/optee-src/nv-optee/optee/optee_test/ta/storage/storage.c:226 (discriminator 2)
     5a0:	aa1403e0 	mov	x0, x20
     5a4:	940012df 	bl	5120 <TEE_SeekObjectData>
/home/ssysarch/Desktop/nick/jetpack_5/Jetson_Linux_R35.4.1_aarch64/Linux_for_Tegra/sources/tegra/optee-src/nv-optee/optee/optee_test/ta/storage/storage.c:227 (discriminator 2)
     5a8:	350000c0 	cbnz	w0, 5c0 <ta_storage_cmd_seek+0x58>
/home/ssysarch/Desktop/nick/jetpack_5/Jetson_Linux_R35.4.1_aarch64/Linux_for_Tegra/sources/tegra/optee-src/nv-optee/optee/optee_test/ta/storage/storage.c:229
     5ac:	910083e1 	add	x1, sp, #0x20
     5b0:	aa1403e0 	mov	x0, x20
     5b4:	94000d1d 	bl	3a28 <TEE_GetObjectInfo1>
/home/ssysarch/Desktop/nick/jetpack_5/Jetson_Linux_R35.4.1_aarch64/Linux_for_Tegra/sources/tegra/optee-src/nv-optee/optee/optee_test/ta/storage/storage.c:231
     5b8:	f9401fe1 	ldr	x1, [sp, #56]
     5bc:	b9000661 	str	w1, [x19, #4]
/home/ssysarch/Desktop/nick/jetpack_5/Jetson_Linux_R35.4.1_aarch64/Linux_for_Tegra/sources/tegra/optee-src/nv-optee/optee/optee_test/ta/storage/storage.c:234
     5c0:	d00000c2 	adrp	x2, 1a000 <_DYNAMIC>
     5c4:	f9409842 	ldr	x2, [x2, #304]
     5c8:	f94027e1 	ldr	x1, [sp, #72]
     5cc:	f9400043 	ldr	x3, [x2]
     5d0:	eb030021 	subs	x1, x1, x3
     5d4:	d2800003 	mov	x3, #0x0                   	// #0
     5d8:	54000080 	b.eq	5e8 <ta_storage_cmd_seek+0x80>  // b.none
     5dc:	940002ce 	bl	1114 <__stack_chk_fail>
/home/ssysarch/Desktop/nick/jetpack_5/Jetson_Linux_R35.4.1_aarch64/Linux_for_Tegra/sources/tegra/optee-src/nv-optee/optee/optee_test/ta/storage/storage.c:220
     5e0:	129fff20 	mov	w0, #0xffff0006            	// #-65530
     5e4:	17fffff7 	b	5c0 <ta_storage_cmd_seek+0x58>
/home/ssysarch/Desktop/nick/jetpack_5/Jetson_Linux_R35.4.1_aarch64/Linux_for_Tegra/sources/tegra/optee-src/nv-optee/optee/optee_test/ta/storage/storage.c:234
     5e8:	a94153f3 	ldp	x19, x20, [sp, #16]
     5ec:	a8c57bfd 	ldp	x29, x30, [sp], #80
     5f0:	d65f03c0 	ret

00000000000005f4 <ta_storage_cmd_unlink>:
ta_storage_cmd_unlink():
/home/ssysarch/Desktop/nick/jetpack_5/Jetson_Linux_R35.4.1_aarch64/Linux_for_Tegra/sources/tegra/optee-src/nv-optee/optee/optee_test/ta/storage/storage.c:240
     5f4:	7100041f 	cmp	w0, #0x1
     5f8:	54000101 	b.ne	618 <ta_storage_cmd_unlink+0x24>  // b.any
/home/ssysarch/Desktop/nick/jetpack_5/Jetson_Linux_R35.4.1_aarch64/Linux_for_Tegra/sources/tegra/optee-src/nv-optee/optee/optee_test/ta/storage/storage.c:237 (discriminator 2)
     5fc:	a9bf7bfd 	stp	x29, x30, [sp, #-16]!
     600:	910003fd 	mov	x29, sp
/home/ssysarch/Desktop/nick/jetpack_5/Jetson_Linux_R35.4.1_aarch64/Linux_for_Tegra/sources/tegra/optee-src/nv-optee/optee/optee_test/ta/storage/storage.c:244 (discriminator 2)
     604:	b9400020 	ldr	w0, [x1]
     608:	94001121 	bl	4a8c <TEE_CloseAndDeletePersistentObject1>
/home/ssysarch/Desktop/nick/jetpack_5/Jetson_Linux_R35.4.1_aarch64/Linux_for_Tegra/sources/tegra/optee-src/nv-optee/optee/optee_test/ta/storage/storage.c:246 (discriminator 2)
     60c:	52800000 	mov	w0, #0x0                   	// #0
/home/ssysarch/Desktop/nick/jetpack_5/Jetson_Linux_R35.4.1_aarch64/Linux_for_Tegra/sources/tegra/optee-src/nv-optee/optee/optee_test/ta/storage/storage.c:247 (discriminator 2)
     610:	a8c17bfd 	ldp	x29, x30, [sp], #16
     614:	d65f03c0 	ret
/home/ssysarch/Desktop/nick/jetpack_5/Jetson_Linux_R35.4.1_aarch64/Linux_for_Tegra/sources/tegra/optee-src/nv-optee/optee/optee_test/ta/storage/storage.c:240
     618:	129fff20 	mov	w0, #0xffff0006            	// #-65530
/home/ssysarch/Desktop/nick/jetpack_5/Jetson_Linux_R35.4.1_aarch64/Linux_for_Tegra/sources/tegra/optee-src/nv-optee/optee/optee_test/ta/storage/storage.c:247
     61c:	d65f03c0 	ret

0000000000000620 <ta_storage_cmd_rename>:
ta_storage_cmd_rename():
/home/ssysarch/Desktop/nick/jetpack_5/Jetson_Linux_R35.4.1_aarch64/Linux_for_Tegra/sources/tegra/optee-src/nv-optee/optee/optee_test/ta/storage/storage.c:251
     620:	a9bc7bfd 	stp	x29, x30, [sp, #-64]!
/home/ssysarch/Desktop/nick/jetpack_5/Jetson_Linux_R35.4.1_aarch64/Linux_for_Tegra/sources/tegra/optee-src/nv-optee/optee/optee_test/ta/storage/storage.c:256
     624:	7101443f 	cmp	w1, #0x51
/home/ssysarch/Desktop/nick/jetpack_5/Jetson_Linux_R35.4.1_aarch64/Linux_for_Tegra/sources/tegra/optee-src/nv-optee/optee/optee_test/ta/storage/storage.c:251
     628:	910003fd 	mov	x29, sp
     62c:	a90153f3 	stp	x19, x20, [sp, #16]
     630:	a9025bf5 	stp	x21, x22, [sp, #32]
     634:	f9001bf7 	str	x23, [sp, #48]
/home/ssysarch/Desktop/nick/jetpack_5/Jetson_Linux_R35.4.1_aarch64/Linux_for_Tegra/sources/tegra/optee-src/nv-optee/optee/optee_test/ta/storage/storage.c:256
     638:	54000481 	b.ne	6c8 <ta_storage_cmd_rename+0xa8>  // b.any
/home/ssysarch/Desktop/nick/jetpack_5/Jetson_Linux_R35.4.1_aarch64/Linux_for_Tegra/sources/tegra/optee-src/nv-optee/optee/optee_test/ta/storage/storage.c:252 (discriminator 2)
     63c:	b9400057 	ldr	w23, [x2]
/home/ssysarch/Desktop/nick/jetpack_5/Jetson_Linux_R35.4.1_aarch64/Linux_for_Tegra/sources/tegra/optee-src/nv-optee/optee/optee_test/ta/storage/storage.c:261 (discriminator 2)
     640:	2a0003f5 	mov	w21, w0
     644:	aa0203f4 	mov	x20, x2
     648:	71001c1f 	cmp	w0, #0x7
     64c:	54000140 	b.eq	674 <ta_storage_cmd_rename+0x54>  // b.none
/home/ssysarch/Desktop/nick/jetpack_5/Jetson_Linux_R35.4.1_aarch64/Linux_for_Tegra/sources/tegra/optee-src/nv-optee/optee/optee_test/ta/storage/storage.c:261
     650:	7100641f 	cmp	w0, #0x19
     654:	54000360 	b.eq	6c0 <ta_storage_cmd_rename+0xa0>  // b.none
     658:	129ffeb4 	mov	w20, #0xffff000a            	// #-65526
/home/ssysarch/Desktop/nick/jetpack_5/Jetson_Linux_R35.4.1_aarch64/Linux_for_Tegra/sources/tegra/optee-src/nv-optee/optee/optee_test/ta/storage/storage.c:285
     65c:	2a1403e0 	mov	w0, w20
     660:	a94153f3 	ldp	x19, x20, [sp, #16]
     664:	a9425bf5 	ldp	x21, x22, [sp, #32]
     668:	f9401bf7 	ldr	x23, [sp, #48]
     66c:	a8c47bfd 	ldp	x29, x30, [sp], #64
     670:	d65f03c0 	ret
/home/ssysarch/Desktop/nick/jetpack_5/Jetson_Linux_R35.4.1_aarch64/Linux_for_Tegra/sources/tegra/optee-src/nv-optee/optee/optee_test/ta/storage/storage.c:263
     674:	f9400053 	ldr	x19, [x2]
     678:	b4000113 	cbz	x19, 698 <ta_storage_cmd_rename+0x78>
/home/ssysarch/Desktop/nick/jetpack_5/Jetson_Linux_R35.4.1_aarch64/Linux_for_Tegra/sources/tegra/optee-src/nv-optee/optee/optee_test/ta/storage/storage.c:264
     67c:	f9400c40 	ldr	x0, [x2, #24]
     680:	52800001 	mov	w1, #0x0                   	// #0
     684:	94000bc0 	bl	3584 <TEE_Malloc>
     688:	aa0003f3 	mov	x19, x0
/home/ssysarch/Desktop/nick/jetpack_5/Jetson_Linux_R35.4.1_aarch64/Linux_for_Tegra/sources/tegra/optee-src/nv-optee/optee/optee_test/ta/storage/storage.c:265
     68c:	b4000220 	cbz	x0, 6d0 <ta_storage_cmd_rename+0xb0>
/home/ssysarch/Desktop/nick/jetpack_5/Jetson_Linux_R35.4.1_aarch64/Linux_for_Tegra/sources/tegra/optee-src/nv-optee/optee/optee_test/ta/storage/storage.c:268
     690:	a9410a81 	ldp	x1, x2, [x20, #16]
     694:	94000b62 	bl	341c <TEE_MemMove>
/home/ssysarch/Desktop/nick/jetpack_5/Jetson_Linux_R35.4.1_aarch64/Linux_for_Tegra/sources/tegra/optee-src/nv-optee/optee/optee_test/ta/storage/storage.c:279
     698:	f9400e82 	ldr	x2, [x20, #24]
     69c:	aa1303e1 	mov	x1, x19
     6a0:	2a1703e0 	mov	w0, w23
     6a4:	94001117 	bl	4b00 <TEE_RenamePersistentObject>
     6a8:	2a0003f4 	mov	w20, w0
/home/ssysarch/Desktop/nick/jetpack_5/Jetson_Linux_R35.4.1_aarch64/Linux_for_Tegra/sources/tegra/optee-src/nv-optee/optee/optee_test/ta/storage/storage.c:281
     6ac:	71001ebf 	cmp	w21, #0x7
     6b0:	54fffd61 	b.ne	65c <ta_storage_cmd_rename+0x3c>  // b.any
/home/ssysarch/Desktop/nick/jetpack_5/Jetson_Linux_R35.4.1_aarch64/Linux_for_Tegra/sources/tegra/optee-src/nv-optee/optee/optee_test/ta/storage/storage.c:282
     6b4:	aa1303e0 	mov	x0, x19
     6b8:	94000bfe 	bl	36b0 <TEE_Free>
     6bc:	17ffffe8 	b	65c <ta_storage_cmd_rename+0x3c>
/home/ssysarch/Desktop/nick/jetpack_5/Jetson_Linux_R35.4.1_aarch64/Linux_for_Tegra/sources/tegra/optee-src/nv-optee/optee/optee_test/ta/storage/storage.c:273
     6c0:	f9400853 	ldr	x19, [x2, #16]
/home/ssysarch/Desktop/nick/jetpack_5/Jetson_Linux_R35.4.1_aarch64/Linux_for_Tegra/sources/tegra/optee-src/nv-optee/optee/optee_test/ta/storage/storage.c:274
     6c4:	17fffff5 	b	698 <ta_storage_cmd_rename+0x78>
/home/ssysarch/Desktop/nick/jetpack_5/Jetson_Linux_R35.4.1_aarch64/Linux_for_Tegra/sources/tegra/optee-src/nv-optee/optee/optee_test/ta/storage/storage.c:256
     6c8:	129fff34 	mov	w20, #0xffff0006            	// #-65530
     6cc:	17ffffe4 	b	65c <ta_storage_cmd_rename+0x3c>
/home/ssysarch/Desktop/nick/jetpack_5/Jetson_Linux_R35.4.1_aarch64/Linux_for_Tegra/sources/tegra/optee-src/nv-optee/optee/optee_test/ta/storage/storage.c:266
     6d0:	129ffe74 	mov	w20, #0xffff000c            	// #-65524
     6d4:	17ffffe2 	b	65c <ta_storage_cmd_rename+0x3c>

00000000000006d8 <ta_storage_cmd_trunc>:
ta_storage_cmd_trunc():
/home/ssysarch/Desktop/nick/jetpack_5/Jetson_Linux_R35.4.1_aarch64/Linux_for_Tegra/sources/tegra/optee-src/nv-optee/optee/optee_test/ta/storage/storage.c:291
     6d8:	7100041f 	cmp	w0, #0x1
     6dc:	54000061 	b.ne	6e8 <ta_storage_cmd_trunc+0x10>  // b.any
/home/ssysarch/Desktop/nick/jetpack_5/Jetson_Linux_R35.4.1_aarch64/Linux_for_Tegra/sources/tegra/optee-src/nv-optee/optee/optee_test/ta/storage/storage.c:295 (discriminator 2)
     6e0:	29400420 	ldp	w0, w1, [x1]
     6e4:	14001276 	b	50bc <TEE_TruncateObjectData>
/home/ssysarch/Desktop/nick/jetpack_5/Jetson_Linux_R35.4.1_aarch64/Linux_for_Tegra/sources/tegra/optee-src/nv-optee/optee/optee_test/ta/storage/storage.c:296
     6e8:	129fff20 	mov	w0, #0xffff0006            	// #-65530
     6ec:	d65f03c0 	ret

00000000000006f0 <ta_storage_cmd_alloc_enum>:
ta_storage_cmd_alloc_enum():
/home/ssysarch/Desktop/nick/jetpack_5/Jetson_Linux_R35.4.1_aarch64/Linux_for_Tegra/sources/tegra/optee-src/nv-optee/optee/optee_test/ta/storage/storage.c:299
     6f0:	a9bd7bfd 	stp	x29, x30, [sp, #-48]!
     6f4:	d00000c2 	adrp	x2, 1a000 <_DYNAMIC>
/home/ssysarch/Desktop/nick/jetpack_5/Jetson_Linux_R35.4.1_aarch64/Linux_for_Tegra/sources/tegra/optee-src/nv-optee/optee/optee_test/ta/storage/storage.c:303
     6f8:	7100081f 	cmp	w0, #0x2
/home/ssysarch/Desktop/nick/jetpack_5/Jetson_Linux_R35.4.1_aarch64/Linux_for_Tegra/sources/tegra/optee-src/nv-optee/optee/optee_test/ta/storage/storage.c:299
     6fc:	910003fd 	mov	x29, sp
     700:	f9409842 	ldr	x2, [x2, #304]
     704:	f9000bf3 	str	x19, [sp, #16]
     708:	aa0103f3 	mov	x19, x1
/home/ssysarch/Desktop/nick/jetpack_5/Jetson_Linux_R35.4.1_aarch64/Linux_for_Tegra/sources/tegra/optee-src/nv-optee/optee/optee_test/ta/storage/storage.c:301
     70c:	f90013ff 	str	xzr, [sp, #32]
/home/ssysarch/Desktop/nick/jetpack_5/Jetson_Linux_R35.4.1_aarch64/Linux_for_Tegra/sources/tegra/optee-src/nv-optee/optee/optee_test/ta/storage/storage.c:299
     710:	f9400041 	ldr	x1, [x2]
     714:	f90017e1 	str	x1, [sp, #40]
     718:	d2800001 	mov	x1, #0x0                   	// #0
/home/ssysarch/Desktop/nick/jetpack_5/Jetson_Linux_R35.4.1_aarch64/Linux_for_Tegra/sources/tegra/optee-src/nv-optee/optee/optee_test/ta/storage/storage.c:303
     71c:	540001a1 	b.ne	750 <ta_storage_cmd_alloc_enum+0x60>  // b.any
/home/ssysarch/Desktop/nick/jetpack_5/Jetson_Linux_R35.4.1_aarch64/Linux_for_Tegra/sources/tegra/optee-src/nv-optee/optee/optee_test/ta/storage/storage.c:307 (discriminator 2)
     720:	910083e0 	add	x0, sp, #0x20
     724:	94001110 	bl	4b64 <TEE_AllocatePersistentObjectEnumerator>
/home/ssysarch/Desktop/nick/jetpack_5/Jetson_Linux_R35.4.1_aarch64/Linux_for_Tegra/sources/tegra/optee-src/nv-optee/optee/optee_test/ta/storage/storage.c:308 (discriminator 2)
     728:	f94013e1 	ldr	x1, [sp, #32]
     72c:	b9000261 	str	w1, [x19]
/home/ssysarch/Desktop/nick/jetpack_5/Jetson_Linux_R35.4.1_aarch64/Linux_for_Tegra/sources/tegra/optee-src/nv-optee/optee/optee_test/ta/storage/storage.c:310
     730:	d00000c2 	adrp	x2, 1a000 <_DYNAMIC>
     734:	f9409842 	ldr	x2, [x2, #304]
     738:	f94017e1 	ldr	x1, [sp, #40]
     73c:	f9400043 	ldr	x3, [x2]
     740:	eb030021 	subs	x1, x1, x3
     744:	d2800003 	mov	x3, #0x0                   	// #0
     748:	54000080 	b.eq	758 <ta_storage_cmd_alloc_enum+0x68>  // b.none
     74c:	94000272 	bl	1114 <__stack_chk_fail>
/home/ssysarch/Desktop/nick/jetpack_5/Jetson_Linux_R35.4.1_aarch64/Linux_for_Tegra/sources/tegra/optee-src/nv-optee/optee/optee_test/ta/storage/storage.c:303
     750:	129fff20 	mov	w0, #0xffff0006            	// #-65530
     754:	17fffff7 	b	730 <ta_storage_cmd_alloc_enum+0x40>
/home/ssysarch/Desktop/nick/jetpack_5/Jetson_Linux_R35.4.1_aarch64/Linux_for_Tegra/sources/tegra/optee-src/nv-optee/optee/optee_test/ta/storage/storage.c:310
     758:	f9400bf3 	ldr	x19, [sp, #16]
     75c:	a8c37bfd 	ldp	x29, x30, [sp], #48
     760:	d65f03c0 	ret

0000000000000764 <ta_storage_cmd_free_enum>:
ta_storage_cmd_free_enum():
/home/ssysarch/Desktop/nick/jetpack_5/Jetson_Linux_R35.4.1_aarch64/Linux_for_Tegra/sources/tegra/optee-src/nv-optee/optee/optee_test/ta/storage/storage.c:316
     764:	7100041f 	cmp	w0, #0x1
     768:	54000101 	b.ne	788 <ta_storage_cmd_free_enum+0x24>  // b.any
/home/ssysarch/Desktop/nick/jetpack_5/Jetson_Linux_R35.4.1_aarch64/Linux_for_Tegra/sources/tegra/optee-src/nv-optee/optee/optee_test/ta/storage/storage.c:313 (discriminator 2)
     76c:	a9bf7bfd 	stp	x29, x30, [sp, #-16]!
     770:	910003fd 	mov	x29, sp
/home/ssysarch/Desktop/nick/jetpack_5/Jetson_Linux_R35.4.1_aarch64/Linux_for_Tegra/sources/tegra/optee-src/nv-optee/optee/optee_test/ta/storage/storage.c:320 (discriminator 2)
     774:	b9400020 	ldr	w0, [x1]
     778:	9400111f 	bl	4bf4 <TEE_FreePersistentObjectEnumerator>
/home/ssysarch/Desktop/nick/jetpack_5/Jetson_Linux_R35.4.1_aarch64/Linux_for_Tegra/sources/tegra/optee-src/nv-optee/optee/optee_test/ta/storage/storage.c:321 (discriminator 2)
     77c:	52800000 	mov	w0, #0x0                   	// #0
/home/ssysarch/Desktop/nick/jetpack_5/Jetson_Linux_R35.4.1_aarch64/Linux_for_Tegra/sources/tegra/optee-src/nv-optee/optee/optee_test/ta/storage/storage.c:322 (discriminator 2)
     780:	a8c17bfd 	ldp	x29, x30, [sp], #16
     784:	d65f03c0 	ret
/home/ssysarch/Desktop/nick/jetpack_5/Jetson_Linux_R35.4.1_aarch64/Linux_for_Tegra/sources/tegra/optee-src/nv-optee/optee/optee_test/ta/storage/storage.c:316
     788:	129fff20 	mov	w0, #0xffff0006            	// #-65530
/home/ssysarch/Desktop/nick/jetpack_5/Jetson_Linux_R35.4.1_aarch64/Linux_for_Tegra/sources/tegra/optee-src/nv-optee/optee/optee_test/ta/storage/storage.c:322
     78c:	d65f03c0 	ret

0000000000000790 <ta_storage_cmd_reset_enum>:
ta_storage_cmd_reset_enum():
/home/ssysarch/Desktop/nick/jetpack_5/Jetson_Linux_R35.4.1_aarch64/Linux_for_Tegra/sources/tegra/optee-src/nv-optee/optee/optee_test/ta/storage/storage.c:328
     790:	7100041f 	cmp	w0, #0x1
     794:	54000101 	b.ne	7b4 <ta_storage_cmd_reset_enum+0x24>  // b.any
/home/ssysarch/Desktop/nick/jetpack_5/Jetson_Linux_R35.4.1_aarch64/Linux_for_Tegra/sources/tegra/optee-src/nv-optee/optee/optee_test/ta/storage/storage.c:325 (discriminator 2)
     798:	a9bf7bfd 	stp	x29, x30, [sp, #-16]!
     79c:	910003fd 	mov	x29, sp
/home/ssysarch/Desktop/nick/jetpack_5/Jetson_Linux_R35.4.1_aarch64/Linux_for_Tegra/sources/tegra/optee-src/nv-optee/optee/optee_test/ta/storage/storage.c:332 (discriminator 2)
     7a0:	b9400020 	ldr	w0, [x1]
     7a4:	9400111e 	bl	4c1c <TEE_ResetPersistentObjectEnumerator>
/home/ssysarch/Desktop/nick/jetpack_5/Jetson_Linux_R35.4.1_aarch64/Linux_for_Tegra/sources/tegra/optee-src/nv-optee/optee/optee_test/ta/storage/storage.c:333 (discriminator 2)
     7a8:	52800000 	mov	w0, #0x0                   	// #0
/home/ssysarch/Desktop/nick/jetpack_5/Jetson_Linux_R35.4.1_aarch64/Linux_for_Tegra/sources/tegra/optee-src/nv-optee/optee/optee_test/ta/storage/storage.c:334 (discriminator 2)
     7ac:	a8c17bfd 	ldp	x29, x30, [sp], #16
     7b0:	d65f03c0 	ret
/home/ssysarch/Desktop/nick/jetpack_5/Jetson_Linux_R35.4.1_aarch64/Linux_for_Tegra/sources/tegra/optee-src/nv-optee/optee/optee_test/ta/storage/storage.c:328
     7b4:	129fff20 	mov	w0, #0xffff0006            	// #-65530
/home/ssysarch/Desktop/nick/jetpack_5/Jetson_Linux_R35.4.1_aarch64/Linux_for_Tegra/sources/tegra/optee-src/nv-optee/optee/optee_test/ta/storage/storage.c:334
     7b8:	d65f03c0 	ret

00000000000007bc <ta_storage_cmd_start_enum>:
ta_storage_cmd_start_enum():
/home/ssysarch/Desktop/nick/jetpack_5/Jetson_Linux_R35.4.1_aarch64/Linux_for_Tegra/sources/tegra/optee-src/nv-optee/optee/optee_test/ta/storage/storage.c:340
     7bc:	7100041f 	cmp	w0, #0x1
     7c0:	54000061 	b.ne	7cc <ta_storage_cmd_start_enum+0x10>  // b.any
/home/ssysarch/Desktop/nick/jetpack_5/Jetson_Linux_R35.4.1_aarch64/Linux_for_Tegra/sources/tegra/optee-src/nv-optee/optee/optee_test/ta/storage/storage.c:344 (discriminator 2)
     7c4:	29400420 	ldp	w0, w1, [x1]
     7c8:	1400111f 	b	4c44 <TEE_StartPersistentObjectEnumerator>
/home/ssysarch/Desktop/nick/jetpack_5/Jetson_Linux_R35.4.1_aarch64/Linux_for_Tegra/sources/tegra/optee-src/nv-optee/optee/optee_test/ta/storage/storage.c:345
     7cc:	129fff20 	mov	w0, #0xffff0006            	// #-65530
     7d0:	d65f03c0 	ret

00000000000007d4 <ta_storage_cmd_next_enum>:
ta_storage_cmd_next_enum():
/home/ssysarch/Desktop/nick/jetpack_5/Jetson_Linux_R35.4.1_aarch64/Linux_for_Tegra/sources/tegra/optee-src/nv-optee/optee/optee_test/ta/storage/storage.c:348
     7d4:	a9bc7bfd 	stp	x29, x30, [sp, #-64]!
     7d8:	910003fd 	mov	x29, sp
     7dc:	a90153f3 	stp	x19, x20, [sp, #16]
     7e0:	a9025bf5 	stp	x21, x22, [sp, #32]
     7e4:	aa0103f5 	mov	x21, x1
/home/ssysarch/Desktop/nick/jetpack_5/Jetson_Linux_R35.4.1_aarch64/Linux_for_Tegra/sources/tegra/optee-src/nv-optee/optee/optee_test/ta/storage/storage.c:354
     7e8:	12000c01 	and	w1, w0, #0xf
/home/ssysarch/Desktop/nick/jetpack_5/Jetson_Linux_R35.4.1_aarch64/Linux_for_Tegra/sources/tegra/optee-src/nv-optee/optee/optee_test/ta/storage/storage.c:348
     7ec:	f9001bf7 	str	x23, [sp, #48]
/home/ssysarch/Desktop/nick/jetpack_5/Jetson_Linux_R35.4.1_aarch64/Linux_for_Tegra/sources/tegra/optee-src/nv-optee/optee/optee_test/ta/storage/storage.c:354
     7f0:	7100043f 	cmp	w1, #0x1
     7f4:	540007e1 	b.ne	8f0 <ta_storage_cmd_next_enum+0x11c>  // b.any
/home/ssysarch/Desktop/nick/jetpack_5/Jetson_Linux_R35.4.1_aarch64/Linux_for_Tegra/sources/tegra/optee-src/nv-optee/optee/optee_test/ta/storage/storage.c:356
     7f8:	d3482c01 	ubfx	x1, x0, #8, #4
     7fc:	7100183f 	cmp	w1, #0x6
     800:	54000781 	b.ne	8f0 <ta_storage_cmd_next_enum+0x11c>  // b.any
/home/ssysarch/Desktop/nick/jetpack_5/Jetson_Linux_R35.4.1_aarch64/Linux_for_Tegra/sources/tegra/optee-src/nv-optee/optee/optee_test/ta/storage/storage.c:358
     804:	f2740c1f 	tst	x0, #0xf000
     808:	54000741 	b.ne	8f0 <ta_storage_cmd_next_enum+0x11c>  // b.any
/home/ssysarch/Desktop/nick/jetpack_5/Jetson_Linux_R35.4.1_aarch64/Linux_for_Tegra/sources/tegra/optee-src/nv-optee/optee/optee_test/ta/storage/storage.c:361
     80c:	f94016a1 	ldr	x1, [x21, #40]
     810:	910082b7 	add	x23, x21, #0x20
     814:	f100fc3f 	cmp	x1, #0x3f
     818:	54000189 	b.ls	848 <ta_storage_cmd_next_enum+0x74>  // b.plast
/home/ssysarch/Desktop/nick/jetpack_5/Jetson_Linux_R35.4.1_aarch64/Linux_for_Tegra/sources/tegra/optee-src/nv-optee/optee/optee_test/ta/storage/storage.c:349
     81c:	b94002b3 	ldr	w19, [x21]
/home/ssysarch/Desktop/nick/jetpack_5/Jetson_Linux_R35.4.1_aarch64/Linux_for_Tegra/sources/tegra/optee-src/nv-optee/optee/optee_test/ta/storage/storage.c:364
     820:	d3441c00 	ubfx	x0, x0, #4, #4
     824:	34000220 	cbz	w0, 868 <ta_storage_cmd_next_enum+0x94>
/home/ssysarch/Desktop/nick/jetpack_5/Jetson_Linux_R35.4.1_aarch64/Linux_for_Tegra/sources/tegra/optee-src/nv-optee/optee/optee_test/ta/storage/storage.c:366
     828:	7100181f 	cmp	w0, #0x6
     82c:	54000621 	b.ne	8f0 <ta_storage_cmd_next_enum+0x11c>  // b.any
/home/ssysarch/Desktop/nick/jetpack_5/Jetson_Linux_R35.4.1_aarch64/Linux_for_Tegra/sources/tegra/optee-src/nv-optee/optee/optee_test/ta/storage/storage.c:368
     830:	f9400ea0 	ldr	x0, [x21, #24]
     834:	910042a1 	add	x1, x21, #0x10
     838:	f1009c1f 	cmp	x0, #0x27
     83c:	d2800500 	mov	x0, #0x28                  	// #40
/home/ssysarch/Desktop/nick/jetpack_5/Jetson_Linux_R35.4.1_aarch64/Linux_for_Tegra/sources/tegra/optee-src/nv-optee/optee/optee_test/ta/storage/storage.c:369
     840:	f9000420 	str	x0, [x1, #8]
/home/ssysarch/Desktop/nick/jetpack_5/Jetson_Linux_R35.4.1_aarch64/Linux_for_Tegra/sources/tegra/optee-src/nv-optee/optee/optee_test/ta/storage/storage.c:368
     844:	54000068 	b.hi	850 <ta_storage_cmd_next_enum+0x7c>  // b.pmore
/home/ssysarch/Desktop/nick/jetpack_5/Jetson_Linux_R35.4.1_aarch64/Linux_for_Tegra/sources/tegra/optee-src/nv-optee/optee/optee_test/ta/storage/storage.c:362
     848:	129ffdf3 	mov	w19, #0xffff0010            	// #-65520
     84c:	14000021 	b	8d0 <ta_storage_cmd_next_enum+0xfc>
/home/ssysarch/Desktop/nick/jetpack_5/Jetson_Linux_R35.4.1_aarch64/Linux_for_Tegra/sources/tegra/optee-src/nv-optee/optee/optee_test/ta/storage/storage.c:373
     850:	52800001 	mov	w1, #0x0                   	// #0
     854:	94000b4c 	bl	3584 <TEE_Malloc>
     858:	aa0003f4 	mov	x20, x0
/home/ssysarch/Desktop/nick/jetpack_5/Jetson_Linux_R35.4.1_aarch64/Linux_for_Tegra/sources/tegra/optee-src/nv-optee/optee/optee_test/ta/storage/storage.c:374
     85c:	b5000080 	cbnz	x0, 86c <ta_storage_cmd_next_enum+0x98>
/home/ssysarch/Desktop/nick/jetpack_5/Jetson_Linux_R35.4.1_aarch64/Linux_for_Tegra/sources/tegra/optee-src/nv-optee/optee/optee_test/ta/storage/storage.c:375
     860:	129ffe73 	mov	w19, #0xffff000c            	// #-65524
     864:	1400001b 	b	8d0 <ta_storage_cmd_next_enum+0xfc>
/home/ssysarch/Desktop/nick/jetpack_5/Jetson_Linux_R35.4.1_aarch64/Linux_for_Tegra/sources/tegra/optee-src/nv-optee/optee/optee_test/ta/storage/storage.c:365
     868:	d2800014 	mov	x20, #0x0                   	// #0
/home/ssysarch/Desktop/nick/jetpack_5/Jetson_Linux_R35.4.1_aarch64/Linux_for_Tegra/sources/tegra/optee-src/nv-optee/optee/optee_test/ta/storage/storage.c:379
     86c:	f94006e0 	ldr	x0, [x23, #8]
     870:	52800001 	mov	w1, #0x0                   	// #0
     874:	94000b44 	bl	3584 <TEE_Malloc>
     878:	aa0003f6 	mov	x22, x0
/home/ssysarch/Desktop/nick/jetpack_5/Jetson_Linux_R35.4.1_aarch64/Linux_for_Tegra/sources/tegra/optee-src/nv-optee/optee/optee_test/ta/storage/storage.c:380
     87c:	b4000360 	cbz	x0, 8e8 <ta_storage_cmd_next_enum+0x114>
/home/ssysarch/Desktop/nick/jetpack_5/Jetson_Linux_R35.4.1_aarch64/Linux_for_Tegra/sources/tegra/optee-src/nv-optee/optee/optee_test/ta/storage/storage.c:385
     880:	aa0003e2 	mov	x2, x0
     884:	9100a2a3 	add	x3, x21, #0x28
     888:	2a1303e0 	mov	w0, w19
     88c:	aa1403e1 	mov	x1, x20
     890:	94001101 	bl	4c94 <TEE_GetNextPersistentObject>
     894:	2a0003f3 	mov	w19, w0
/home/ssysarch/Desktop/nick/jetpack_5/Jetson_Linux_R35.4.1_aarch64/Linux_for_Tegra/sources/tegra/optee-src/nv-optee/optee/optee_test/ta/storage/storage.c:386
     898:	35000140 	cbnz	w0, 8c0 <ta_storage_cmd_next_enum+0xec>
/home/ssysarch/Desktop/nick/jetpack_5/Jetson_Linux_R35.4.1_aarch64/Linux_for_Tegra/sources/tegra/optee-src/nv-optee/optee/optee_test/ta/storage/storage.c:389
     89c:	f94006e2 	ldr	x2, [x23, #8]
     8a0:	aa1603e1 	mov	x1, x22
     8a4:	f94012a0 	ldr	x0, [x21, #32]
     8a8:	94000add 	bl	341c <TEE_MemMove>
/home/ssysarch/Desktop/nick/jetpack_5/Jetson_Linux_R35.4.1_aarch64/Linux_for_Tegra/sources/tegra/optee-src/nv-optee/optee/optee_test/ta/storage/storage.c:390
     8ac:	b40000b4 	cbz	x20, 8c0 <ta_storage_cmd_next_enum+0xec>
/home/ssysarch/Desktop/nick/jetpack_5/Jetson_Linux_R35.4.1_aarch64/Linux_for_Tegra/sources/tegra/optee-src/nv-optee/optee/optee_test/ta/storage/storage.c:391
     8b0:	f9400aa0 	ldr	x0, [x21, #16]
     8b4:	aa1403e1 	mov	x1, x20
     8b8:	d2800502 	mov	x2, #0x28                  	// #40
     8bc:	94000ad8 	bl	341c <TEE_MemMove>
/home/ssysarch/Desktop/nick/jetpack_5/Jetson_Linux_R35.4.1_aarch64/Linux_for_Tegra/sources/tegra/optee-src/nv-optee/optee/optee_test/ta/storage/storage.c:393
     8c0:	aa1603e0 	mov	x0, x22
     8c4:	94000b7b 	bl	36b0 <TEE_Free>
/home/ssysarch/Desktop/nick/jetpack_5/Jetson_Linux_R35.4.1_aarch64/Linux_for_Tegra/sources/tegra/optee-src/nv-optee/optee/optee_test/ta/storage/storage.c:394
     8c8:	aa1403e0 	mov	x0, x20
     8cc:	94000b79 	bl	36b0 <TEE_Free>
/home/ssysarch/Desktop/nick/jetpack_5/Jetson_Linux_R35.4.1_aarch64/Linux_for_Tegra/sources/tegra/optee-src/nv-optee/optee/optee_test/ta/storage/storage.c:397
     8d0:	2a1303e0 	mov	w0, w19
     8d4:	a94153f3 	ldp	x19, x20, [sp, #16]
     8d8:	a9425bf5 	ldp	x21, x22, [sp, #32]
     8dc:	f9401bf7 	ldr	x23, [sp, #48]
     8e0:	a8c47bfd 	ldp	x29, x30, [sp], #64
     8e4:	d65f03c0 	ret
/home/ssysarch/Desktop/nick/jetpack_5/Jetson_Linux_R35.4.1_aarch64/Linux_for_Tegra/sources/tegra/optee-src/nv-optee/optee/optee_test/ta/storage/storage.c:381
     8e8:	129ffe73 	mov	w19, #0xffff000c            	// #-65524
     8ec:	17fffff5 	b	8c0 <ta_storage_cmd_next_enum+0xec>
/home/ssysarch/Desktop/nick/jetpack_5/Jetson_Linux_R35.4.1_aarch64/Linux_for_Tegra/sources/tegra/optee-src/nv-optee/optee/optee_test/ta/storage/storage.c:355
     8f0:	129fff33 	mov	w19, #0xffff0006            	// #-65530
     8f4:	17fffff7 	b	8d0 <ta_storage_cmd_next_enum+0xfc>

00000000000008f8 <ta_storage_cmd_key_in_persistent>:
ta_storage_cmd_key_in_persistent():
/home/ssysarch/Desktop/nick/jetpack_5/Jetson_Linux_R35.4.1_aarch64/Linux_for_Tegra/sources/tegra/optee-src/nv-optee/optee/optee_test/ta/storage/storage.c:411
     8f8:	a9b17bfd 	stp	x29, x30, [sp, #-240]!
/home/ssysarch/Desktop/nick/jetpack_5/Jetson_Linux_R35.4.1_aarch64/Linux_for_Tegra/sources/tegra/optee-src/nv-optee/optee/optee_test/ta/storage/storage.c:431
     8fc:	d2800502 	mov	x2, #0x28                  	// #40
/home/ssysarch/Desktop/nick/jetpack_5/Jetson_Linux_R35.4.1_aarch64/Linux_for_Tegra/sources/tegra/optee-src/nv-optee/optee/optee_test/ta/storage/storage.c:411
     900:	910003fd 	mov	x29, sp
     904:	a90153f3 	stp	x19, x20, [sp, #16]
     908:	2a0003f4 	mov	w20, w0
     90c:	d00000c0 	adrp	x0, 1a000 <_DYNAMIC>
     910:	a9025bf5 	stp	x21, x22, [sp, #32]
     914:	aa0103f6 	mov	x22, x1
/home/ssysarch/Desktop/nick/jetpack_5/Jetson_Linux_R35.4.1_aarch64/Linux_for_Tegra/sources/tegra/optee-src/nv-optee/optee/optee_test/ta/storage/storage.c:431
     918:	9101c3f5 	add	x21, sp, #0x70
/home/ssysarch/Desktop/nick/jetpack_5/Jetson_Linux_R35.4.1_aarch64/Linux_for_Tegra/sources/tegra/optee-src/nv-optee/optee/optee_test/ta/storage/storage.c:411
     91c:	f9409800 	ldr	x0, [x0, #304]
     920:	a90363f7 	stp	x23, x24, [sp, #48]
/home/ssysarch/Desktop/nick/jetpack_5/Jetson_Linux_R35.4.1_aarch64/Linux_for_Tegra/sources/tegra/optee-src/nv-optee/optee/optee_test/ta/storage/storage.c:432
     924:	910263f8 	add	x24, sp, #0x98
/home/ssysarch/Desktop/nick/jetpack_5/Jetson_Linux_R35.4.1_aarch64/Linux_for_Tegra/sources/tegra/optee-src/nv-optee/optee/optee_test/ta/storage/storage.c:411
     928:	f9400001 	ldr	x1, [x0]
     92c:	f90077e1 	str	x1, [sp, #232]
     930:	d2800001 	mov	x1, #0x0                   	// #0
/home/ssysarch/Desktop/nick/jetpack_5/Jetson_Linux_R35.4.1_aarch64/Linux_for_Tegra/sources/tegra/optee-src/nv-optee/optee/optee_test/ta/storage/storage.c:424
     934:	52800020 	mov	w0, #0x1                   	// #1
     938:	b9004fe0 	str	w0, [sp, #76]
/home/ssysarch/Desktop/nick/jetpack_5/Jetson_Linux_R35.4.1_aarch64/Linux_for_Tegra/sources/tegra/optee-src/nv-optee/optee/optee_test/ta/storage/storage.c:431
     93c:	aa1503e0 	mov	x0, x21
/home/ssysarch/Desktop/nick/jetpack_5/Jetson_Linux_R35.4.1_aarch64/Linux_for_Tegra/sources/tegra/optee-src/nv-optee/optee/optee_test/ta/storage/storage.c:414
     940:	a9057fff 	stp	xzr, xzr, [sp, #80]
/home/ssysarch/Desktop/nick/jetpack_5/Jetson_Linux_R35.4.1_aarch64/Linux_for_Tegra/sources/tegra/optee-src/nv-optee/optee/optee_test/ta/storage/storage.c:433
     944:	910303f7 	add	x23, sp, #0xc0
/home/ssysarch/Desktop/nick/jetpack_5/Jetson_Linux_R35.4.1_aarch64/Linux_for_Tegra/sources/tegra/optee-src/nv-optee/optee/optee_test/ta/storage/storage.c:416
     948:	a9067fff 	stp	xzr, xzr, [sp, #96]
/home/ssysarch/Desktop/nick/jetpack_5/Jetson_Linux_R35.4.1_aarch64/Linux_for_Tegra/sources/tegra/optee-src/nv-optee/optee/optee_test/ta/storage/storage.c:431
     94c:	94000aba 	bl	3434 <TEE_MemFill>
/home/ssysarch/Desktop/nick/jetpack_5/Jetson_Linux_R35.4.1_aarch64/Linux_for_Tegra/sources/tegra/optee-src/nv-optee/optee/optee_test/ta/storage/storage.c:432
     950:	aa1803e0 	mov	x0, x24
     954:	d2800502 	mov	x2, #0x28                  	// #40
     958:	52800001 	mov	w1, #0x0                   	// #0
     95c:	94000ab6 	bl	3434 <TEE_MemFill>
/home/ssysarch/Desktop/nick/jetpack_5/Jetson_Linux_R35.4.1_aarch64/Linux_for_Tegra/sources/tegra/optee-src/nv-optee/optee/optee_test/ta/storage/storage.c:433
     960:	aa1703e0 	mov	x0, x23
     964:	d2800502 	mov	x2, #0x28                  	// #40
     968:	52800001 	mov	w1, #0x0                   	// #0
     96c:	94000ab2 	bl	3434 <TEE_MemFill>
/home/ssysarch/Desktop/nick/jetpack_5/Jetson_Linux_R35.4.1_aarch64/Linux_for_Tegra/sources/tegra/optee-src/nv-optee/optee/optee_test/ta/storage/storage.c:435
     970:	7100069f 	cmp	w20, #0x1
     974:	54001b21 	b.ne	cd8 <ta_storage_cmd_key_in_persistent+0x3e0>  // b.any
/home/ssysarch/Desktop/nick/jetpack_5/Jetson_Linux_R35.4.1_aarch64/Linux_for_Tegra/sources/tegra/optee-src/nv-optee/optee/optee_test/ta/storage/storage.c:439 (discriminator 2)
     978:	910143e2 	add	x2, sp, #0x50
     97c:	52802001 	mov	w1, #0x100                 	// #256
     980:	52800200 	mov	w0, #0x10                  	// #16
     984:	72b40000 	movk	w0, #0xa000, lsl #16
     988:	94000da5 	bl	401c <TEE_AllocateTransientObject>
     98c:	2a0003f3 	mov	w19, w0
/home/ssysarch/Desktop/nick/jetpack_5/Jetson_Linux_R35.4.1_aarch64/Linux_for_Tegra/sources/tegra/optee-src/nv-optee/optee/optee_test/ta/storage/storage.c:441 (discriminator 2)
     990:	34000240 	cbz	w0, 9d8 <ta_storage_cmd_key_in_persistent+0xe0>
/home/ssysarch/Desktop/nick/jetpack_5/Jetson_Linux_R35.4.1_aarch64/Linux_for_Tegra/sources/tegra/optee-src/nv-optee/optee/optee_test/ta/storage/storage.c:442
     994:	2a0003e5 	mov	w5, w0
     998:	f00000a4 	adrp	x4, 17000 <__text_end+0x3520>
     99c:	91393084 	add	x4, x4, #0xe4c
     9a0:	f00000a0 	adrp	x0, 17000 <__text_end+0x3520>
     9a4:	913ea400 	add	x0, x0, #0xfa9
     9a8:	2a1403e3 	mov	w3, w20
     9ac:	2a1403e2 	mov	w2, w20
     9b0:	52803741 	mov	w1, #0x1ba                 	// #442
     9b4:	940002b9 	bl	1498 <trace_printf>
/home/ssysarch/Desktop/nick/jetpack_5/Jetson_Linux_R35.4.1_aarch64/Linux_for_Tegra/sources/tegra/optee-src/nv-optee/optee/optee_test/ta/storage/storage.c:539
     9b8:	d00000c0 	adrp	x0, 1a000 <_DYNAMIC>
     9bc:	f9409800 	ldr	x0, [x0, #304]
     9c0:	f94077e1 	ldr	x1, [sp, #232]
     9c4:	f9400002 	ldr	x2, [x0]
     9c8:	eb020021 	subs	x1, x1, x2
     9cc:	d2800002 	mov	x2, #0x0                   	// #0
     9d0:	54001880 	b.eq	ce0 <ta_storage_cmd_key_in_persistent+0x3e8>  // b.none
     9d4:	940001d0 	bl	1114 <__stack_chk_fail>
/home/ssysarch/Desktop/nick/jetpack_5/Jetson_Linux_R35.4.1_aarch64/Linux_for_Tegra/sources/tegra/optee-src/nv-optee/optee/optee_test/ta/storage/storage.c:447
     9d8:	f9402be0 	ldr	x0, [sp, #80]
     9dc:	52800003 	mov	w3, #0x0                   	// #0
     9e0:	d2800002 	mov	x2, #0x0                   	// #0
     9e4:	52802001 	mov	w1, #0x100                 	// #256
     9e8:	94000f14 	bl	4638 <TEE_GenerateKey>
     9ec:	2a0003f3 	mov	w19, w0
/home/ssysarch/Desktop/nick/jetpack_5/Jetson_Linux_R35.4.1_aarch64/Linux_for_Tegra/sources/tegra/optee-src/nv-optee/optee/optee_test/ta/storage/storage.c:448
     9f0:	340001a0 	cbz	w0, a24 <ta_storage_cmd_key_in_persistent+0x12c>
/home/ssysarch/Desktop/nick/jetpack_5/Jetson_Linux_R35.4.1_aarch64/Linux_for_Tegra/sources/tegra/optee-src/nv-optee/optee/optee_test/ta/storage/storage.c:449
     9f4:	f00000a4 	adrp	x4, 17000 <__text_end+0x3520>
     9f8:	9139f884 	add	x4, x4, #0xe7e
     9fc:	2a0003e5 	mov	w5, w0
     a00:	2a1403e3 	mov	w3, w20
     a04:	2a1403e2 	mov	w2, w20
     a08:	52803821 	mov	w1, #0x1c1                 	// #449
/home/ssysarch/Desktop/nick/jetpack_5/Jetson_Linux_R35.4.1_aarch64/Linux_for_Tegra/sources/tegra/optee-src/nv-optee/optee/optee_test/ta/storage/storage.c:459
     a0c:	f00000a0 	adrp	x0, 17000 <__text_end+0x3520>
     a10:	913ea400 	add	x0, x0, #0xfa9
     a14:	940002a1 	bl	1498 <trace_printf>
/home/ssysarch/Desktop/nick/jetpack_5/Jetson_Linux_R35.4.1_aarch64/Linux_for_Tegra/sources/tegra/optee-src/nv-optee/optee/optee_test/ta/storage/storage.c:536
     a18:	f9402be0 	ldr	x0, [sp, #80]
     a1c:	94000d87 	bl	4038 <TEE_FreeTransientObject>
     a20:	17ffffe6 	b	9b8 <ta_storage_cmd_key_in_persistent+0xc0>
/home/ssysarch/Desktop/nick/jetpack_5/Jetson_Linux_R35.4.1_aarch64/Linux_for_Tegra/sources/tegra/optee-src/nv-optee/optee/optee_test/ta/storage/storage.c:453
     a24:	f9402be0 	ldr	x0, [sp, #80]
     a28:	aa1503e1 	mov	x1, x21
/home/ssysarch/Desktop/nick/jetpack_5/Jetson_Linux_R35.4.1_aarch64/Linux_for_Tegra/sources/tegra/optee-src/nv-optee/optee/optee_test/ta/storage/storage.c:454
     a2c:	910133f5 	add	x21, sp, #0x4c
/home/ssysarch/Desktop/nick/jetpack_5/Jetson_Linux_R35.4.1_aarch64/Linux_for_Tegra/sources/tegra/optee-src/nv-optee/optee/optee_test/ta/storage/storage.c:453
     a30:	94000bfe 	bl	3a28 <TEE_GetObjectInfo1>
/home/ssysarch/Desktop/nick/jetpack_5/Jetson_Linux_R35.4.1_aarch64/Linux_for_Tegra/sources/tegra/optee-src/nv-optee/optee/optee_test/ta/storage/storage.c:454
     a34:	b94002c0 	ldr	w0, [x22]
     a38:	910163e7 	add	x7, sp, #0x58
     a3c:	f9402be4 	ldr	x4, [sp, #80]
     a40:	aa1503e1 	mov	x1, x21
     a44:	d2800006 	mov	x6, #0x0                   	// #0
     a48:	d2800005 	mov	x5, #0x0                   	// #0
     a4c:	528006e3 	mov	w3, #0x37                  	// #55
     a50:	d2800082 	mov	x2, #0x4                   	// #4
     a54:	94000f9e 	bl	48cc <TEE_CreatePersistentObject>
     a58:	2a0003f3 	mov	w19, w0
/home/ssysarch/Desktop/nick/jetpack_5/Jetson_Linux_R35.4.1_aarch64/Linux_for_Tegra/sources/tegra/optee-src/nv-optee/optee/optee_test/ta/storage/storage.c:458
     a5c:	34000100 	cbz	w0, a7c <ta_storage_cmd_key_in_persistent+0x184>
/home/ssysarch/Desktop/nick/jetpack_5/Jetson_Linux_R35.4.1_aarch64/Linux_for_Tegra/sources/tegra/optee-src/nv-optee/optee/optee_test/ta/storage/storage.c:459
     a60:	f00000a4 	adrp	x4, 17000 <__text_end+0x3520>
     a64:	913a9c84 	add	x4, x4, #0xea7
     a68:	2a0003e5 	mov	w5, w0
     a6c:	2a1403e3 	mov	w3, w20
     a70:	2a1403e2 	mov	w2, w20
     a74:	52803961 	mov	w1, #0x1cb                 	// #459
     a78:	17ffffe5 	b	a0c <ta_storage_cmd_key_in_persistent+0x114>
/home/ssysarch/Desktop/nick/jetpack_5/Jetson_Linux_R35.4.1_aarch64/Linux_for_Tegra/sources/tegra/optee-src/nv-optee/optee/optee_test/ta/storage/storage.c:463
     a7c:	f9402fe0 	ldr	x0, [sp, #88]
     a80:	aa1803e1 	mov	x1, x24
     a84:	94000be9 	bl	3a28 <TEE_GetObjectInfo1>
check_obj():
/home/ssysarch/Desktop/nick/jetpack_5/Jetson_Linux_R35.4.1_aarch64/Linux_for_Tegra/sources/tegra/optee-src/nv-optee/optee/optee_test/ta/storage/storage.c:401
     a88:	f9403be1 	ldr	x1, [sp, #112]
     a8c:	f9404fe0 	ldr	x0, [sp, #152]
     a90:	eb00003f 	cmp	x1, x0
     a94:	54000321 	b.ne	af8 <ta_storage_cmd_key_in_persistent+0x200>  // b.any
/home/ssysarch/Desktop/nick/jetpack_5/Jetson_Linux_R35.4.1_aarch64/Linux_for_Tegra/sources/tegra/optee-src/nv-optee/optee/optee_test/ta/storage/storage.c:403
     a98:	f9403fe1 	ldr	x1, [sp, #120]
     a9c:	f94053e0 	ldr	x0, [sp, #160]
     aa0:	eb00003f 	cmp	x1, x0
     aa4:	540002a1 	b.ne	af8 <ta_storage_cmd_key_in_persistent+0x200>  // b.any
ta_storage_cmd_key_in_persistent():
/home/ssysarch/Desktop/nick/jetpack_5/Jetson_Linux_R35.4.1_aarch64/Linux_for_Tegra/sources/tegra/optee-src/nv-optee/optee/optee_test/ta/storage/storage.c:470
     aa8:	f9402fe0 	ldr	x0, [sp, #88]
     aac:	94000ff8 	bl	4a8c <TEE_CloseAndDeletePersistentObject1>
/home/ssysarch/Desktop/nick/jetpack_5/Jetson_Linux_R35.4.1_aarch64/Linux_for_Tegra/sources/tegra/optee-src/nv-optee/optee/optee_test/ta/storage/storage.c:473
     ab0:	b94002c0 	ldr	w0, [x22]
     ab4:	aa1503e1 	mov	x1, x21
     ab8:	f9402be4 	ldr	x4, [sp, #80]
     abc:	d2800007 	mov	x7, #0x0                   	// #0
     ac0:	d2800006 	mov	x6, #0x0                   	// #0
     ac4:	d2800005 	mov	x5, #0x0                   	// #0
     ac8:	528006e3 	mov	w3, #0x37                  	// #55
     acc:	d2800082 	mov	x2, #0x4                   	// #4
     ad0:	94000f7f 	bl	48cc <TEE_CreatePersistentObject>
     ad4:	2a0003f3 	mov	w19, w0
/home/ssysarch/Desktop/nick/jetpack_5/Jetson_Linux_R35.4.1_aarch64/Linux_for_Tegra/sources/tegra/optee-src/nv-optee/optee/optee_test/ta/storage/storage.c:477
     ad8:	34000240 	cbz	w0, b20 <ta_storage_cmd_key_in_persistent+0x228>
/home/ssysarch/Desktop/nick/jetpack_5/Jetson_Linux_R35.4.1_aarch64/Linux_for_Tegra/sources/tegra/optee-src/nv-optee/optee/optee_test/ta/storage/storage.c:478
     adc:	f00000a4 	adrp	x4, 17000 <__text_end+0x3520>
     ae0:	913a9c84 	add	x4, x4, #0xea7
     ae4:	2a0003e5 	mov	w5, w0
     ae8:	2a1403e3 	mov	w3, w20
     aec:	2a1403e2 	mov	w2, w20
     af0:	52803bc1 	mov	w1, #0x1de                 	// #478
     af4:	17ffffc6 	b	a0c <ta_storage_cmd_key_in_persistent+0x114>
/home/ssysarch/Desktop/nick/jetpack_5/Jetson_Linux_R35.4.1_aarch64/Linux_for_Tegra/sources/tegra/optee-src/nv-optee/optee/optee_test/ta/storage/storage.c:466
     af8:	f00000a4 	adrp	x4, 17000 <__text_end+0x3520>
     afc:	913b3c84 	add	x4, x4, #0xecf
     b00:	52800023 	mov	w3, #0x1                   	// #1
     b04:	52800022 	mov	w2, #0x1                   	// #1
     b08:	52803a41 	mov	w1, #0x1d2                 	// #466
/home/ssysarch/Desktop/nick/jetpack_5/Jetson_Linux_R35.4.1_aarch64/Linux_for_Tegra/sources/tegra/optee-src/nv-optee/optee/optee_test/ta/storage/storage.c:504
     b0c:	f00000a0 	adrp	x0, 17000 <__text_end+0x3520>
     b10:	913ea400 	add	x0, x0, #0xfa9
check_obj():
/home/ssysarch/Desktop/nick/jetpack_5/Jetson_Linux_R35.4.1_aarch64/Linux_for_Tegra/sources/tegra/optee-src/nv-optee/optee/optee_test/ta/storage/storage.c:405
     b14:	52bffff3 	mov	w19, #0xffff0000            	// #-65536
ta_storage_cmd_key_in_persistent():
/home/ssysarch/Desktop/nick/jetpack_5/Jetson_Linux_R35.4.1_aarch64/Linux_for_Tegra/sources/tegra/optee-src/nv-optee/optee/optee_test/ta/storage/storage.c:504
     b18:	94000260 	bl	1498 <trace_printf>
/home/ssysarch/Desktop/nick/jetpack_5/Jetson_Linux_R35.4.1_aarch64/Linux_for_Tegra/sources/tegra/optee-src/nv-optee/optee/optee_test/ta/storage/storage.c:505
     b1c:	17ffffbf 	b	a18 <ta_storage_cmd_key_in_persistent+0x120>
/home/ssysarch/Desktop/nick/jetpack_5/Jetson_Linux_R35.4.1_aarch64/Linux_for_Tegra/sources/tegra/optee-src/nv-optee/optee/optee_test/ta/storage/storage.c:481
     b20:	f9402be0 	ldr	x0, [sp, #80]
/home/ssysarch/Desktop/nick/jetpack_5/Jetson_Linux_R35.4.1_aarch64/Linux_for_Tegra/sources/tegra/optee-src/nv-optee/optee/optee_test/ta/storage/storage.c:484
     b24:	aa1803e1 	mov	x1, x24
/home/ssysarch/Desktop/nick/jetpack_5/Jetson_Linux_R35.4.1_aarch64/Linux_for_Tegra/sources/tegra/optee-src/nv-optee/optee/optee_test/ta/storage/storage.c:481
     b28:	a90503ff 	stp	xzr, x0, [sp, #80]
/home/ssysarch/Desktop/nick/jetpack_5/Jetson_Linux_R35.4.1_aarch64/Linux_for_Tegra/sources/tegra/optee-src/nv-optee/optee/optee_test/ta/storage/storage.c:484
     b2c:	94000bbf 	bl	3a28 <TEE_GetObjectInfo1>
check_obj():
/home/ssysarch/Desktop/nick/jetpack_5/Jetson_Linux_R35.4.1_aarch64/Linux_for_Tegra/sources/tegra/optee-src/nv-optee/optee/optee_test/ta/storage/storage.c:401
     b30:	f9403be1 	ldr	x1, [sp, #112]
     b34:	f9404fe0 	ldr	x0, [sp, #152]
     b38:	eb00003f 	cmp	x1, x0
     b3c:	540000a1 	b.ne	b50 <ta_storage_cmd_key_in_persistent+0x258>  // b.any
/home/ssysarch/Desktop/nick/jetpack_5/Jetson_Linux_R35.4.1_aarch64/Linux_for_Tegra/sources/tegra/optee-src/nv-optee/optee/optee_test/ta/storage/storage.c:403
     b40:	f9403fe1 	ldr	x1, [sp, #120]
     b44:	f94053e0 	ldr	x0, [sp, #160]
     b48:	eb00003f 	cmp	x1, x0
     b4c:	540000e0 	b.eq	b68 <ta_storage_cmd_key_in_persistent+0x270>  // b.none
ta_storage_cmd_key_in_persistent():
/home/ssysarch/Desktop/nick/jetpack_5/Jetson_Linux_R35.4.1_aarch64/Linux_for_Tegra/sources/tegra/optee-src/nv-optee/optee/optee_test/ta/storage/storage.c:487
     b50:	f00000a4 	adrp	x4, 17000 <__text_end+0x3520>
     b54:	913b3c84 	add	x4, x4, #0xecf
     b58:	52800023 	mov	w3, #0x1                   	// #1
     b5c:	52800022 	mov	w2, #0x1                   	// #1
     b60:	52803ce1 	mov	w1, #0x1e7                 	// #487
     b64:	17ffffea 	b	b0c <ta_storage_cmd_key_in_persistent+0x214>
/home/ssysarch/Desktop/nick/jetpack_5/Jetson_Linux_R35.4.1_aarch64/Linux_for_Tegra/sources/tegra/optee-src/nv-optee/optee/optee_test/ta/storage/storage.c:491
     b68:	f9402fe0 	ldr	x0, [sp, #88]
     b6c:	94000cf5 	bl	3f40 <TEE_CloseObject>
/home/ssysarch/Desktop/nick/jetpack_5/Jetson_Linux_R35.4.1_aarch64/Linux_for_Tegra/sources/tegra/optee-src/nv-optee/optee/optee_test/ta/storage/storage.c:493
     b70:	b94002c0 	ldr	w0, [x22]
     b74:	910183e4 	add	x4, sp, #0x60
     b78:	aa1503e1 	mov	x1, x21
     b7c:	528006e3 	mov	w3, #0x37                  	// #55
     b80:	d2800082 	mov	x2, #0x4                   	// #4
     b84:	94000f17 	bl	47e0 <TEE_OpenPersistentObject>
     b88:	2a0003f3 	mov	w19, w0
/home/ssysarch/Desktop/nick/jetpack_5/Jetson_Linux_R35.4.1_aarch64/Linux_for_Tegra/sources/tegra/optee-src/nv-optee/optee/optee_test/ta/storage/storage.c:496
     b8c:	34000100 	cbz	w0, bac <ta_storage_cmd_key_in_persistent+0x2b4>
/home/ssysarch/Desktop/nick/jetpack_5/Jetson_Linux_R35.4.1_aarch64/Linux_for_Tegra/sources/tegra/optee-src/nv-optee/optee/optee_test/ta/storage/storage.c:497
     b90:	f00000a4 	adrp	x4, 17000 <__text_end+0x3520>
     b94:	913bc884 	add	x4, x4, #0xef2
     b98:	2a0003e5 	mov	w5, w0
     b9c:	52800023 	mov	w3, #0x1                   	// #1
     ba0:	52800022 	mov	w2, #0x1                   	// #1
     ba4:	52803e21 	mov	w1, #0x1f1                 	// #497
     ba8:	17ffff99 	b	a0c <ta_storage_cmd_key_in_persistent+0x114>
/home/ssysarch/Desktop/nick/jetpack_5/Jetson_Linux_R35.4.1_aarch64/Linux_for_Tegra/sources/tegra/optee-src/nv-optee/optee/optee_test/ta/storage/storage.c:501
     bac:	f94033e0 	ldr	x0, [sp, #96]
     bb0:	aa1703e1 	mov	x1, x23
     bb4:	94000b3d 	bl	38a8 <TEE_GetObjectInfo>
check_obj():
/home/ssysarch/Desktop/nick/jetpack_5/Jetson_Linux_R35.4.1_aarch64/Linux_for_Tegra/sources/tegra/optee-src/nv-optee/optee/optee_test/ta/storage/storage.c:401
     bb8:	f9404fe0 	ldr	x0, [sp, #152]
     bbc:	f94063e1 	ldr	x1, [sp, #192]
     bc0:	eb00003f 	cmp	x1, x0
     bc4:	540000a1 	b.ne	bd8 <ta_storage_cmd_key_in_persistent+0x2e0>  // b.any
/home/ssysarch/Desktop/nick/jetpack_5/Jetson_Linux_R35.4.1_aarch64/Linux_for_Tegra/sources/tegra/optee-src/nv-optee/optee/optee_test/ta/storage/storage.c:403
     bc8:	f94053e0 	ldr	x0, [sp, #160]
     bcc:	f94067e1 	ldr	x1, [sp, #200]
     bd0:	eb00003f 	cmp	x1, x0
     bd4:	540000e0 	b.eq	bf0 <ta_storage_cmd_key_in_persistent+0x2f8>  // b.none
ta_storage_cmd_key_in_persistent():
/home/ssysarch/Desktop/nick/jetpack_5/Jetson_Linux_R35.4.1_aarch64/Linux_for_Tegra/sources/tegra/optee-src/nv-optee/optee/optee_test/ta/storage/storage.c:504
     bd8:	f00000a4 	adrp	x4, 17000 <__text_end+0x3520>
     bdc:	913c5884 	add	x4, x4, #0xf16
     be0:	52800023 	mov	w3, #0x1                   	// #1
     be4:	52800022 	mov	w2, #0x1                   	// #1
     be8:	52803f01 	mov	w1, #0x1f8                 	// #504
     bec:	17ffffc8 	b	b0c <ta_storage_cmd_key_in_persistent+0x214>
/home/ssysarch/Desktop/nick/jetpack_5/Jetson_Linux_R35.4.1_aarch64/Linux_for_Tegra/sources/tegra/optee-src/nv-optee/optee/optee_test/ta/storage/storage.c:508
     bf0:	b940cbe3 	ldr	w3, [sp, #200]
     bf4:	9101a3e0 	add	x0, sp, #0x68
     bf8:	52800002 	mov	w2, #0x0                   	// #0
     bfc:	52802201 	mov	w1, #0x110                 	// #272
     c00:	72a20001 	movk	w1, #0x1000, lsl #16
     c04:	9400136a 	bl	59ac <TEE_AllocateOperation>
     c08:	2a0003f3 	mov	w19, w0
/home/ssysarch/Desktop/nick/jetpack_5/Jetson_Linux_R35.4.1_aarch64/Linux_for_Tegra/sources/tegra/optee-src/nv-optee/optee/optee_test/ta/storage/storage.c:510
     c0c:	340001a0 	cbz	w0, c40 <ta_storage_cmd_key_in_persistent+0x348>
/home/ssysarch/Desktop/nick/jetpack_5/Jetson_Linux_R35.4.1_aarch64/Linux_for_Tegra/sources/tegra/optee-src/nv-optee/optee/optee_test/ta/storage/storage.c:511
     c10:	2a0003e5 	mov	w5, w0
     c14:	f00000a4 	adrp	x4, 17000 <__text_end+0x3520>
     c18:	913ce884 	add	x4, x4, #0xf3a
     c1c:	f00000a0 	adrp	x0, 17000 <__text_end+0x3520>
     c20:	913ea400 	add	x0, x0, #0xfa9
     c24:	52800023 	mov	w3, #0x1                   	// #1
     c28:	52800022 	mov	w2, #0x1                   	// #1
     c2c:	52803fe1 	mov	w1, #0x1ff                 	// #511
     c30:	9400021a 	bl	1498 <trace_printf>
/home/ssysarch/Desktop/nick/jetpack_5/Jetson_Linux_R35.4.1_aarch64/Linux_for_Tegra/sources/tegra/optee-src/nv-optee/optee/optee_test/ta/storage/storage.c:534
     c34:	f94033e0 	ldr	x0, [sp, #96]
     c38:	94000f95 	bl	4a8c <TEE_CloseAndDeletePersistentObject1>
     c3c:	17ffff77 	b	a18 <ta_storage_cmd_key_in_persistent+0x120>
/home/ssysarch/Desktop/nick/jetpack_5/Jetson_Linux_R35.4.1_aarch64/Linux_for_Tegra/sources/tegra/optee-src/nv-optee/optee/optee_test/ta/storage/storage.c:515
     c40:	a94603e1 	ldp	x1, x0, [sp, #96]
     c44:	94001765 	bl	69d8 <TEE_SetOperationKey>
     c48:	2a0003f3 	mov	w19, w0
/home/ssysarch/Desktop/nick/jetpack_5/Jetson_Linux_R35.4.1_aarch64/Linux_for_Tegra/sources/tegra/optee-src/nv-optee/optee/optee_test/ta/storage/storage.c:516
     c4c:	340001a0 	cbz	w0, c80 <ta_storage_cmd_key_in_persistent+0x388>
/home/ssysarch/Desktop/nick/jetpack_5/Jetson_Linux_R35.4.1_aarch64/Linux_for_Tegra/sources/tegra/optee-src/nv-optee/optee/optee_test/ta/storage/storage.c:517
     c50:	2a0003e5 	mov	w5, w0
     c54:	f00000a4 	adrp	x4, 17000 <__text_end+0x3520>
     c58:	913d8084 	add	x4, x4, #0xf60
     c5c:	f00000a0 	adrp	x0, 17000 <__text_end+0x3520>
     c60:	913ea400 	add	x0, x0, #0xfa9
     c64:	52800023 	mov	w3, #0x1                   	// #1
     c68:	52800022 	mov	w2, #0x1                   	// #1
     c6c:	528040a1 	mov	w1, #0x205                 	// #517
     c70:	9400020a 	bl	1498 <trace_printf>
/home/ssysarch/Desktop/nick/jetpack_5/Jetson_Linux_R35.4.1_aarch64/Linux_for_Tegra/sources/tegra/optee-src/nv-optee/optee/optee_test/ta/storage/storage.c:532
     c74:	f94037e0 	ldr	x0, [sp, #104]
     c78:	9400133d 	bl	596c <TEE_FreeOperation>
     c7c:	17ffffee 	b	c34 <ta_storage_cmd_key_in_persistent+0x33c>
/home/ssysarch/Desktop/nick/jetpack_5/Jetson_Linux_R35.4.1_aarch64/Linux_for_Tegra/sources/tegra/optee-src/nv-optee/optee/optee_test/ta/storage/storage.c:521
     c80:	52800001 	mov	w1, #0x0                   	// #0
     c84:	d2800200 	mov	x0, #0x10                  	// #16
     c88:	94000a3f 	bl	3584 <TEE_Malloc>
     c8c:	aa0003f4 	mov	x20, x0
/home/ssysarch/Desktop/nick/jetpack_5/Jetson_Linux_R35.4.1_aarch64/Linux_for_Tegra/sources/tegra/optee-src/nv-optee/optee/optee_test/ta/storage/storage.c:522
     c90:	b5000160 	cbnz	x0, cbc <ta_storage_cmd_key_in_persistent+0x3c4>
/home/ssysarch/Desktop/nick/jetpack_5/Jetson_Linux_R35.4.1_aarch64/Linux_for_Tegra/sources/tegra/optee-src/nv-optee/optee/optee_test/ta/storage/storage.c:523
     c94:	f00000a4 	adrp	x4, 17000 <__text_end+0x3520>
     c98:	913e0884 	add	x4, x4, #0xf82
     c9c:	52800023 	mov	w3, #0x1                   	// #1
     ca0:	52800022 	mov	w2, #0x1                   	// #1
     ca4:	52804161 	mov	w1, #0x20b                 	// #523
     ca8:	f00000a0 	adrp	x0, 17000 <__text_end+0x3520>
     cac:	913ea400 	add	x0, x0, #0xfa9
/home/ssysarch/Desktop/nick/jetpack_5/Jetson_Linux_R35.4.1_aarch64/Linux_for_Tegra/sources/tegra/optee-src/nv-optee/optee/optee_test/ta/storage/storage.c:524
     cb0:	129ffe73 	mov	w19, #0xffff000c            	// #-65524
/home/ssysarch/Desktop/nick/jetpack_5/Jetson_Linux_R35.4.1_aarch64/Linux_for_Tegra/sources/tegra/optee-src/nv-optee/optee/optee_test/ta/storage/storage.c:523
     cb4:	940001f9 	bl	1498 <trace_printf>
/home/ssysarch/Desktop/nick/jetpack_5/Jetson_Linux_R35.4.1_aarch64/Linux_for_Tegra/sources/tegra/optee-src/nv-optee/optee/optee_test/ta/storage/storage.c:525
     cb8:	17ffffef 	b	c74 <ta_storage_cmd_key_in_persistent+0x37c>
/home/ssysarch/Desktop/nick/jetpack_5/Jetson_Linux_R35.4.1_aarch64/Linux_for_Tegra/sources/tegra/optee-src/nv-optee/optee/optee_test/ta/storage/storage.c:528
     cbc:	aa0003e1 	mov	x1, x0
     cc0:	d2800202 	mov	x2, #0x10                  	// #16
     cc4:	f94037e0 	ldr	x0, [sp, #104]
     cc8:	94001922 	bl	7150 <TEE_CipherInit>
/home/ssysarch/Desktop/nick/jetpack_5/Jetson_Linux_R35.4.1_aarch64/Linux_for_Tegra/sources/tegra/optee-src/nv-optee/optee/optee_test/ta/storage/storage.c:529
     ccc:	aa1403e0 	mov	x0, x20
     cd0:	94000a78 	bl	36b0 <TEE_Free>
     cd4:	17ffffe8 	b	c74 <ta_storage_cmd_key_in_persistent+0x37c>
/home/ssysarch/Desktop/nick/jetpack_5/Jetson_Linux_R35.4.1_aarch64/Linux_for_Tegra/sources/tegra/optee-src/nv-optee/optee/optee_test/ta/storage/storage.c:435
     cd8:	129fff33 	mov	w19, #0xffff0006            	// #-65530
     cdc:	17ffff37 	b	9b8 <ta_storage_cmd_key_in_persistent+0xc0>
/home/ssysarch/Desktop/nick/jetpack_5/Jetson_Linux_R35.4.1_aarch64/Linux_for_Tegra/sources/tegra/optee-src/nv-optee/optee/optee_test/ta/storage/storage.c:539
     ce0:	2a1303e0 	mov	w0, w19
     ce4:	a94153f3 	ldp	x19, x20, [sp, #16]
     ce8:	a9425bf5 	ldp	x21, x22, [sp, #32]
     cec:	a94363f7 	ldp	x23, x24, [sp, #48]
     cf0:	a8cf7bfd 	ldp	x29, x30, [sp], #240
     cf4:	d65f03c0 	ret

0000000000000cf8 <ta_storage_cmd_loop>:
ta_storage_cmd_loop():
/home/ssysarch/Desktop/nick/jetpack_5/Jetson_Linux_R35.4.1_aarch64/Linux_for_Tegra/sources/tegra/optee-src/nv-optee/optee/optee_test/ta/storage/storage.c:542
     cf8:	a9b97bfd 	stp	x29, x30, [sp, #-112]!
     cfc:	d00000c2 	adrp	x2, 1a000 <_DYNAMIC>
/home/ssysarch/Desktop/nick/jetpack_5/Jetson_Linux_R35.4.1_aarch64/Linux_for_Tegra/sources/tegra/optee-src/nv-optee/optee/optee_test/ta/storage/storage.c:551
     d00:	7100041f 	cmp	w0, #0x1
/home/ssysarch/Desktop/nick/jetpack_5/Jetson_Linux_R35.4.1_aarch64/Linux_for_Tegra/sources/tegra/optee-src/nv-optee/optee/optee_test/ta/storage/storage.c:542
     d04:	910003fd 	mov	x29, sp
     d08:	f9409842 	ldr	x2, [x2, #304]
     d0c:	a9025bf5 	stp	x21, x22, [sp, #32]
     d10:	aa0103f6 	mov	x22, x1
     d14:	f9400041 	ldr	x1, [x2]
     d18:	f90037e1 	str	x1, [sp, #104]
     d1c:	d2800001 	mov	x1, #0x0                   	// #0
     d20:	a90153f3 	stp	x19, x20, [sp, #16]
     d24:	a90363f7 	stp	x23, x24, [sp, #48]
     d28:	f90023f9 	str	x25, [sp, #64]
/home/ssysarch/Desktop/nick/jetpack_5/Jetson_Linux_R35.4.1_aarch64/Linux_for_Tegra/sources/tegra/optee-src/nv-optee/optee/optee_test/ta/storage/storage.c:545
     d2c:	b9005fff 	str	wzr, [sp, #92]
/home/ssysarch/Desktop/nick/jetpack_5/Jetson_Linux_R35.4.1_aarch64/Linux_for_Tegra/sources/tegra/optee-src/nv-optee/optee/optee_test/ta/storage/storage.c:543
     d30:	f90033ff 	str	xzr, [sp, #96]
/home/ssysarch/Desktop/nick/jetpack_5/Jetson_Linux_R35.4.1_aarch64/Linux_for_Tegra/sources/tegra/optee-src/nv-optee/optee/optee_test/ta/storage/storage.c:551
     d34:	54000741 	b.ne	e1c <ta_storage_cmd_loop+0x124>  // b.any
/home/ssysarch/Desktop/nick/jetpack_5/Jetson_Linux_R35.4.1_aarch64/Linux_for_Tegra/sources/tegra/optee-src/nv-optee/optee/optee_test/ta/storage/storage.c:556
     d38:	f00000b4 	adrp	x20, 17000 <__text_end+0x3520>
     d3c:	913ea694 	add	x20, x20, #0xfa9
     d40:	f00000b7 	adrp	x23, 17000 <__text_end+0x3520>
     d44:	913e62f7 	add	x23, x23, #0xf98
     d48:	91008694 	add	x20, x20, #0x21
/home/ssysarch/Desktop/nick/jetpack_5/Jetson_Linux_R35.4.1_aarch64/Linux_for_Tegra/sources/tegra/optee-src/nv-optee/optee/optee_test/ta/storage/storage.c:559
     d4c:	910183f8 	add	x24, sp, #0x60
     d50:	910173f9 	add	x25, sp, #0x5c
/home/ssysarch/Desktop/nick/jetpack_5/Jetson_Linux_R35.4.1_aarch64/Linux_for_Tegra/sources/tegra/optee-src/nv-optee/optee/optee_test/ta/storage/storage.c:555
     d54:	52800015 	mov	w21, #0x0                   	// #0
/home/ssysarch/Desktop/nick/jetpack_5/Jetson_Linux_R35.4.1_aarch64/Linux_for_Tegra/sources/tegra/optee-src/nv-optee/optee/optee_test/ta/storage/storage.c:556
     d58:	2a1503e5 	mov	w5, w21
     d5c:	aa1703e4 	mov	x4, x23
     d60:	aa1403e0 	mov	x0, x20
     d64:	52800023 	mov	w3, #0x1                   	// #1
     d68:	52800062 	mov	w2, #0x3                   	// #3
     d6c:	52804581 	mov	w1, #0x22c                 	// #556
     d70:	940001ca 	bl	1498 <trace_printf>
/home/ssysarch/Desktop/nick/jetpack_5/Jetson_Linux_R35.4.1_aarch64/Linux_for_Tegra/sources/tegra/optee-src/nv-optee/optee/optee_test/ta/storage/storage.c:558
     d74:	b9005ff5 	str	w21, [sp, #92]
/home/ssysarch/Desktop/nick/jetpack_5/Jetson_Linux_R35.4.1_aarch64/Linux_for_Tegra/sources/tegra/optee-src/nv-optee/optee/optee_test/ta/storage/storage.c:559
     d78:	b94002c0 	ldr	w0, [x22]
     d7c:	aa1803e7 	mov	x7, x24
     d80:	aa1903e1 	mov	x1, x25
     d84:	d2800006 	mov	x6, #0x0                   	// #0
     d88:	d2800005 	mov	x5, #0x0                   	// #0
     d8c:	d2800004 	mov	x4, #0x0                   	// #0
     d90:	52808083 	mov	w3, #0x404                 	// #1028
     d94:	d2800082 	mov	x2, #0x4                   	// #4
/home/ssysarch/Desktop/nick/jetpack_5/Jetson_Linux_R35.4.1_aarch64/Linux_for_Tegra/sources/tegra/optee-src/nv-optee/optee/optee_test/ta/storage/storage.c:557
     d98:	f90033ff 	str	xzr, [sp, #96]
/home/ssysarch/Desktop/nick/jetpack_5/Jetson_Linux_R35.4.1_aarch64/Linux_for_Tegra/sources/tegra/optee-src/nv-optee/optee/optee_test/ta/storage/storage.c:559
     d9c:	94000ecc 	bl	48cc <TEE_CreatePersistentObject>
     da0:	2a0003f3 	mov	w19, w0
/home/ssysarch/Desktop/nick/jetpack_5/Jetson_Linux_R35.4.1_aarch64/Linux_for_Tegra/sources/tegra/optee-src/nv-optee/optee/optee_test/ta/storage/storage.c:564
     da4:	34000200 	cbz	w0, de4 <ta_storage_cmd_loop+0xec>
/home/ssysarch/Desktop/nick/jetpack_5/Jetson_Linux_R35.4.1_aarch64/Linux_for_Tegra/sources/tegra/optee-src/nv-optee/optee/optee_test/ta/storage/storage.c:565
     da8:	f00000a4 	adrp	x4, 17000 <__text_end+0x3520>
     dac:	913e9084 	add	x4, x4, #0xfa4
     db0:	52800023 	mov	w3, #0x1                   	// #1
     db4:	52800022 	mov	w2, #0x1                   	// #1
     db8:	528046a1 	mov	w1, #0x235                 	// #565
/home/ssysarch/Desktop/nick/jetpack_5/Jetson_Linux_R35.4.1_aarch64/Linux_for_Tegra/sources/tegra/optee-src/nv-optee/optee/optee_test/ta/storage/storage.c:571
     dbc:	aa1403e0 	mov	x0, x20
     dc0:	940001b6 	bl	1498 <trace_printf>
/home/ssysarch/Desktop/nick/jetpack_5/Jetson_Linux_R35.4.1_aarch64/Linux_for_Tegra/sources/tegra/optee-src/nv-optee/optee/optee_test/ta/storage/storage.c:577
     dc4:	d00000c2 	adrp	x2, 1a000 <_DYNAMIC>
     dc8:	f9409842 	ldr	x2, [x2, #304]
     dcc:	f94037e0 	ldr	x0, [sp, #104]
     dd0:	f9400041 	ldr	x1, [x2]
     dd4:	eb010000 	subs	x0, x0, x1
     dd8:	d2800001 	mov	x1, #0x0                   	// #0
     ddc:	54000240 	b.eq	e24 <ta_storage_cmd_loop+0x12c>  // b.none
     de0:	940000cd 	bl	1114 <__stack_chk_fail>
/home/ssysarch/Desktop/nick/jetpack_5/Jetson_Linux_R35.4.1_aarch64/Linux_for_Tegra/sources/tegra/optee-src/nv-optee/optee/optee_test/ta/storage/storage.c:569
     de4:	f94033e0 	ldr	x0, [sp, #96]
     de8:	94000f29 	bl	4a8c <TEE_CloseAndDeletePersistentObject1>
     dec:	2a0003f3 	mov	w19, w0
/home/ssysarch/Desktop/nick/jetpack_5/Jetson_Linux_R35.4.1_aarch64/Linux_for_Tegra/sources/tegra/optee-src/nv-optee/optee/optee_test/ta/storage/storage.c:570
     df0:	340000e0 	cbz	w0, e0c <ta_storage_cmd_loop+0x114>
/home/ssysarch/Desktop/nick/jetpack_5/Jetson_Linux_R35.4.1_aarch64/Linux_for_Tegra/sources/tegra/optee-src/nv-optee/optee/optee_test/ta/storage/storage.c:571
     df4:	f00000a4 	adrp	x4, 17000 <__text_end+0x3520>
     df8:	913e9084 	add	x4, x4, #0xfa4
     dfc:	52800023 	mov	w3, #0x1                   	// #1
     e00:	52800022 	mov	w2, #0x1                   	// #1
     e04:	52804761 	mov	w1, #0x23b                 	// #571
     e08:	17ffffed 	b	dbc <ta_storage_cmd_loop+0xc4>
/home/ssysarch/Desktop/nick/jetpack_5/Jetson_Linux_R35.4.1_aarch64/Linux_for_Tegra/sources/tegra/optee-src/nv-optee/optee/optee_test/ta/storage/storage.c:555 (discriminator 2)
     e0c:	110006b5 	add	w21, w21, #0x1
     e10:	710052bf 	cmp	w21, #0x14
     e14:	54fffa21 	b.ne	d58 <ta_storage_cmd_loop+0x60>  // b.any
     e18:	17ffffeb 	b	dc4 <ta_storage_cmd_loop+0xcc>
/home/ssysarch/Desktop/nick/jetpack_5/Jetson_Linux_R35.4.1_aarch64/Linux_for_Tegra/sources/tegra/optee-src/nv-optee/optee/optee_test/ta/storage/storage.c:551
     e1c:	129fff33 	mov	w19, #0xffff0006            	// #-65530
     e20:	17ffffe9 	b	dc4 <ta_storage_cmd_loop+0xcc>
/home/ssysarch/Desktop/nick/jetpack_5/Jetson_Linux_R35.4.1_aarch64/Linux_for_Tegra/sources/tegra/optee-src/nv-optee/optee/optee_test/ta/storage/storage.c:577
     e24:	2a1303e0 	mov	w0, w19
     e28:	a94153f3 	ldp	x19, x20, [sp, #16]
     e2c:	a9425bf5 	ldp	x21, x22, [sp, #32]
     e30:	a94363f7 	ldp	x23, x24, [sp, #48]
     e34:	f94023f9 	ldr	x25, [sp, #64]
     e38:	a8c77bfd 	ldp	x29, x30, [sp], #112
     e3c:	d65f03c0 	ret

0000000000000e40 <ta_storage_cmd_restrict_usage>:
ta_storage_cmd_restrict_usage():
/home/ssysarch/Desktop/nick/jetpack_5/Jetson_Linux_R35.4.1_aarch64/Linux_for_Tegra/sources/tegra/optee-src/nv-optee/optee/optee_test/ta/storage/storage.c:584
     e40:	7100041f 	cmp	w0, #0x1
     e44:	54000101 	b.ne	e64 <ta_storage_cmd_restrict_usage+0x24>  // b.any
/home/ssysarch/Desktop/nick/jetpack_5/Jetson_Linux_R35.4.1_aarch64/Linux_for_Tegra/sources/tegra/optee-src/nv-optee/optee/optee_test/ta/storage/storage.c:581 (discriminator 2)
     e48:	a9bf7bfd 	stp	x29, x30, [sp, #-16]!
     e4c:	910003fd 	mov	x29, sp
/home/ssysarch/Desktop/nick/jetpack_5/Jetson_Linux_R35.4.1_aarch64/Linux_for_Tegra/sources/tegra/optee-src/nv-optee/optee/optee_test/ta/storage/storage.c:589 (discriminator 2)
     e50:	29400420 	ldp	w0, w1, [x1]
     e54:	94000b51 	bl	3b98 <TEE_RestrictObjectUsage1>
/home/ssysarch/Desktop/nick/jetpack_5/Jetson_Linux_R35.4.1_aarch64/Linux_for_Tegra/sources/tegra/optee-src/nv-optee/optee/optee_test/ta/storage/storage.c:590 (discriminator 2)
     e58:	52800000 	mov	w0, #0x0                   	// #0
/home/ssysarch/Desktop/nick/jetpack_5/Jetson_Linux_R35.4.1_aarch64/Linux_for_Tegra/sources/tegra/optee-src/nv-optee/optee/optee_test/ta/storage/storage.c:591 (discriminator 2)
     e5c:	a8c17bfd 	ldp	x29, x30, [sp], #16
     e60:	d65f03c0 	ret
/home/ssysarch/Desktop/nick/jetpack_5/Jetson_Linux_R35.4.1_aarch64/Linux_for_Tegra/sources/tegra/optee-src/nv-optee/optee/optee_test/ta/storage/storage.c:584
     e64:	129fff20 	mov	w0, #0xffff0006            	// #-65530
/home/ssysarch/Desktop/nick/jetpack_5/Jetson_Linux_R35.4.1_aarch64/Linux_for_Tegra/sources/tegra/optee-src/nv-optee/optee/optee_test/ta/storage/storage.c:591
     e68:	d65f03c0 	ret

0000000000000e6c <ta_storage_cmd_alloc_obj>:
ta_storage_cmd_alloc_obj():
/home/ssysarch/Desktop/nick/jetpack_5/Jetson_Linux_R35.4.1_aarch64/Linux_for_Tegra/sources/tegra/optee-src/nv-optee/optee/optee_test/ta/storage/storage.c:594
     e6c:	a9bd7bfd 	stp	x29, x30, [sp, #-48]!
     e70:	d00000c2 	adrp	x2, 1a000 <_DYNAMIC>
/home/ssysarch/Desktop/nick/jetpack_5/Jetson_Linux_R35.4.1_aarch64/Linux_for_Tegra/sources/tegra/optee-src/nv-optee/optee/optee_test/ta/storage/storage.c:598
     e74:	7100841f 	cmp	w0, #0x21
/home/ssysarch/Desktop/nick/jetpack_5/Jetson_Linux_R35.4.1_aarch64/Linux_for_Tegra/sources/tegra/optee-src/nv-optee/optee/optee_test/ta/storage/storage.c:594
     e78:	910003fd 	mov	x29, sp
     e7c:	f9409842 	ldr	x2, [x2, #304]
     e80:	f9000bf3 	str	x19, [sp, #16]
     e84:	aa0103f3 	mov	x19, x1
/home/ssysarch/Desktop/nick/jetpack_5/Jetson_Linux_R35.4.1_aarch64/Linux_for_Tegra/sources/tegra/optee-src/nv-optee/optee/optee_test/ta/storage/storage.c:596
     e88:	f90013ff 	str	xzr, [sp, #32]
/home/ssysarch/Desktop/nick/jetpack_5/Jetson_Linux_R35.4.1_aarch64/Linux_for_Tegra/sources/tegra/optee-src/nv-optee/optee/optee_test/ta/storage/storage.c:594
     e8c:	f9400041 	ldr	x1, [x2]
     e90:	f90017e1 	str	x1, [sp, #40]
     e94:	d2800001 	mov	x1, #0x0                   	// #0
/home/ssysarch/Desktop/nick/jetpack_5/Jetson_Linux_R35.4.1_aarch64/Linux_for_Tegra/sources/tegra/optee-src/nv-optee/optee/optee_test/ta/storage/storage.c:598
     e98:	540001c1 	b.ne	ed0 <ta_storage_cmd_alloc_obj+0x64>  // b.any
/home/ssysarch/Desktop/nick/jetpack_5/Jetson_Linux_R35.4.1_aarch64/Linux_for_Tegra/sources/tegra/optee-src/nv-optee/optee/optee_test/ta/storage/storage.c:603 (discriminator 2)
     e9c:	29400660 	ldp	w0, w1, [x19]
     ea0:	910083e2 	add	x2, sp, #0x20
     ea4:	94000c5e 	bl	401c <TEE_AllocateTransientObject>
/home/ssysarch/Desktop/nick/jetpack_5/Jetson_Linux_R35.4.1_aarch64/Linux_for_Tegra/sources/tegra/optee-src/nv-optee/optee/optee_test/ta/storage/storage.c:605 (discriminator 2)
     ea8:	f94013e1 	ldr	x1, [sp, #32]
     eac:	b9001261 	str	w1, [x19, #16]
/home/ssysarch/Desktop/nick/jetpack_5/Jetson_Linux_R35.4.1_aarch64/Linux_for_Tegra/sources/tegra/optee-src/nv-optee/optee/optee_test/ta/storage/storage.c:607
     eb0:	d00000c2 	adrp	x2, 1a000 <_DYNAMIC>
     eb4:	f9409842 	ldr	x2, [x2, #304]
     eb8:	f94017e1 	ldr	x1, [sp, #40]
     ebc:	f9400043 	ldr	x3, [x2]
     ec0:	eb030021 	subs	x1, x1, x3
     ec4:	d2800003 	mov	x3, #0x0                   	// #0
     ec8:	54000080 	b.eq	ed8 <ta_storage_cmd_alloc_obj+0x6c>  // b.none
     ecc:	94000092 	bl	1114 <__stack_chk_fail>
/home/ssysarch/Desktop/nick/jetpack_5/Jetson_Linux_R35.4.1_aarch64/Linux_for_Tegra/sources/tegra/optee-src/nv-optee/optee/optee_test/ta/storage/storage.c:598
     ed0:	129fff20 	mov	w0, #0xffff0006            	// #-65530
     ed4:	17fffff7 	b	eb0 <ta_storage_cmd_alloc_obj+0x44>
/home/ssysarch/Desktop/nick/jetpack_5/Jetson_Linux_R35.4.1_aarch64/Linux_for_Tegra/sources/tegra/optee-src/nv-optee/optee/optee_test/ta/storage/storage.c:607
     ed8:	f9400bf3 	ldr	x19, [sp, #16]
     edc:	a8c37bfd 	ldp	x29, x30, [sp], #48
     ee0:	d65f03c0 	ret

0000000000000ee4 <ta_storage_cmd_free_obj>:
ta_storage_cmd_free_obj():
/home/ssysarch/Desktop/nick/jetpack_5/Jetson_Linux_R35.4.1_aarch64/Linux_for_Tegra/sources/tegra/optee-src/nv-optee/optee/optee_test/ta/storage/storage.c:613
     ee4:	7100041f 	cmp	w0, #0x1
     ee8:	54000101 	b.ne	f08 <ta_storage_cmd_free_obj+0x24>  // b.any
/home/ssysarch/Desktop/nick/jetpack_5/Jetson_Linux_R35.4.1_aarch64/Linux_for_Tegra/sources/tegra/optee-src/nv-optee/optee/optee_test/ta/storage/storage.c:610 (discriminator 2)
     eec:	a9bf7bfd 	stp	x29, x30, [sp, #-16]!
     ef0:	910003fd 	mov	x29, sp
/home/ssysarch/Desktop/nick/jetpack_5/Jetson_Linux_R35.4.1_aarch64/Linux_for_Tegra/sources/tegra/optee-src/nv-optee/optee/optee_test/ta/storage/storage.c:618 (discriminator 2)
     ef4:	b9400020 	ldr	w0, [x1]
     ef8:	94000c50 	bl	4038 <TEE_FreeTransientObject>
/home/ssysarch/Desktop/nick/jetpack_5/Jetson_Linux_R35.4.1_aarch64/Linux_for_Tegra/sources/tegra/optee-src/nv-optee/optee/optee_test/ta/storage/storage.c:619 (discriminator 2)
     efc:	52800000 	mov	w0, #0x0                   	// #0
/home/ssysarch/Desktop/nick/jetpack_5/Jetson_Linux_R35.4.1_aarch64/Linux_for_Tegra/sources/tegra/optee-src/nv-optee/optee/optee_test/ta/storage/storage.c:620 (discriminator 2)
     f00:	a8c17bfd 	ldp	x29, x30, [sp], #16
     f04:	d65f03c0 	ret
/home/ssysarch/Desktop/nick/jetpack_5/Jetson_Linux_R35.4.1_aarch64/Linux_for_Tegra/sources/tegra/optee-src/nv-optee/optee/optee_test/ta/storage/storage.c:613
     f08:	129fff20 	mov	w0, #0xffff0006            	// #-65530
/home/ssysarch/Desktop/nick/jetpack_5/Jetson_Linux_R35.4.1_aarch64/Linux_for_Tegra/sources/tegra/optee-src/nv-optee/optee/optee_test/ta/storage/storage.c:620
     f0c:	d65f03c0 	ret

0000000000000f10 <ta_storage_cmd_reset_obj>:
ta_storage_cmd_reset_obj():
/home/ssysarch/Desktop/nick/jetpack_5/Jetson_Linux_R35.4.1_aarch64/Linux_for_Tegra/sources/tegra/optee-src/nv-optee/optee/optee_test/ta/storage/storage.c:626
     f10:	7100041f 	cmp	w0, #0x1
     f14:	54000101 	b.ne	f34 <ta_storage_cmd_reset_obj+0x24>  // b.any
/home/ssysarch/Desktop/nick/jetpack_5/Jetson_Linux_R35.4.1_aarch64/Linux_for_Tegra/sources/tegra/optee-src/nv-optee/optee/optee_test/ta/storage/storage.c:623 (discriminator 2)
     f18:	a9bf7bfd 	stp	x29, x30, [sp, #-16]!
     f1c:	910003fd 	mov	x29, sp
/home/ssysarch/Desktop/nick/jetpack_5/Jetson_Linux_R35.4.1_aarch64/Linux_for_Tegra/sources/tegra/optee-src/nv-optee/optee/optee_test/ta/storage/storage.c:631 (discriminator 2)
     f20:	b9400020 	ldr	w0, [x1]
     f24:	94000c69 	bl	40c8 <TEE_ResetTransientObject>
/home/ssysarch/Desktop/nick/jetpack_5/Jetson_Linux_R35.4.1_aarch64/Linux_for_Tegra/sources/tegra/optee-src/nv-optee/optee/optee_test/ta/storage/storage.c:632 (discriminator 2)
     f28:	52800000 	mov	w0, #0x0                   	// #0
/home/ssysarch/Desktop/nick/jetpack_5/Jetson_Linux_R35.4.1_aarch64/Linux_for_Tegra/sources/tegra/optee-src/nv-optee/optee/optee_test/ta/storage/storage.c:633 (discriminator 2)
     f2c:	a8c17bfd 	ldp	x29, x30, [sp], #16
     f30:	d65f03c0 	ret
/home/ssysarch/Desktop/nick/jetpack_5/Jetson_Linux_R35.4.1_aarch64/Linux_for_Tegra/sources/tegra/optee-src/nv-optee/optee/optee_test/ta/storage/storage.c:626
     f34:	129fff20 	mov	w0, #0xffff0006            	// #-65530
/home/ssysarch/Desktop/nick/jetpack_5/Jetson_Linux_R35.4.1_aarch64/Linux_for_Tegra/sources/tegra/optee-src/nv-optee/optee/optee_test/ta/storage/storage.c:633
     f38:	d65f03c0 	ret

0000000000000f3c <ta_storage_cmd_get_obj_info>:
ta_storage_cmd_get_obj_info():
/home/ssysarch/Desktop/nick/jetpack_5/Jetson_Linux_R35.4.1_aarch64/Linux_for_Tegra/sources/tegra/optee-src/nv-optee/optee/optee_test/ta/storage/storage.c:637
     f3c:	a9b87bfd 	stp	x29, x30, [sp, #-128]!
     f40:	d00000c2 	adrp	x2, 1a000 <_DYNAMIC>
/home/ssysarch/Desktop/nick/jetpack_5/Jetson_Linux_R35.4.1_aarch64/Linux_for_Tegra/sources/tegra/optee-src/nv-optee/optee/optee_test/ta/storage/storage.c:643
     f44:	7101841f 	cmp	w0, #0x61
/home/ssysarch/Desktop/nick/jetpack_5/Jetson_Linux_R35.4.1_aarch64/Linux_for_Tegra/sources/tegra/optee-src/nv-optee/optee/optee_test/ta/storage/storage.c:637
     f48:	910003fd 	mov	x29, sp
     f4c:	f9409842 	ldr	x2, [x2, #304]
     f50:	a90153f3 	stp	x19, x20, [sp, #16]
     f54:	aa0103f4 	mov	x20, x1
     f58:	f9400041 	ldr	x1, [x2]
     f5c:	f9003fe1 	str	x1, [sp, #120]
     f60:	d2800001 	mov	x1, #0x0                   	// #0
     f64:	f90013f5 	str	x21, [sp, #32]
/home/ssysarch/Desktop/nick/jetpack_5/Jetson_Linux_R35.4.1_aarch64/Linux_for_Tegra/sources/tegra/optee-src/nv-optee/optee/optee_test/ta/storage/storage.c:639
     f68:	a9037fff 	stp	xzr, xzr, [sp, #48]
     f6c:	f90023ff 	str	xzr, [sp, #64]
     f70:	b9004bff 	str	wzr, [sp, #72]
/home/ssysarch/Desktop/nick/jetpack_5/Jetson_Linux_R35.4.1_aarch64/Linux_for_Tegra/sources/tegra/optee-src/nv-optee/optee/optee_test/ta/storage/storage.c:640
     f74:	a9057fff 	stp	xzr, xzr, [sp, #80]
     f78:	a9067fff 	stp	xzr, xzr, [sp, #96]
     f7c:	f9003bff 	str	xzr, [sp, #112]
/home/ssysarch/Desktop/nick/jetpack_5/Jetson_Linux_R35.4.1_aarch64/Linux_for_Tegra/sources/tegra/optee-src/nv-optee/optee/optee_test/ta/storage/storage.c:643
     f80:	54000401 	b.ne	1000 <ta_storage_cmd_get_obj_info+0xc4>  // b.any
/home/ssysarch/Desktop/nick/jetpack_5/Jetson_Linux_R35.4.1_aarch64/Linux_for_Tegra/sources/tegra/optee-src/nv-optee/optee/optee_test/ta/storage/storage.c:648 (discriminator 2)
     f84:	f9400e80 	ldr	x0, [x20, #24]
     f88:	f1006c1f 	cmp	x0, #0x1b
     f8c:	540003e9 	b.ls	1008 <ta_storage_cmd_get_obj_info+0xcc>  // b.plast
/home/ssysarch/Desktop/nick/jetpack_5/Jetson_Linux_R35.4.1_aarch64/Linux_for_Tegra/sources/tegra/optee-src/nv-optee/optee/optee_test/ta/storage/storage.c:650
     f90:	b9400280 	ldr	w0, [x20]
     f94:	910143e1 	add	x1, sp, #0x50
     f98:	94000aa4 	bl	3a28 <TEE_GetObjectInfo1>
     f9c:	2a0003f3 	mov	w19, w0
/home/ssysarch/Desktop/nick/jetpack_5/Jetson_Linux_R35.4.1_aarch64/Linux_for_Tegra/sources/tegra/optee-src/nv-optee/optee/optee_test/ta/storage/storage.c:651
     fa0:	35000200 	cbnz	w0, fe0 <ta_storage_cmd_get_obj_info+0xa4>
/home/ssysarch/Desktop/nick/jetpack_5/Jetson_Linux_R35.4.1_aarch64/Linux_for_Tegra/sources/tegra/optee-src/nv-optee/optee/optee_test/ta/storage/storage.c:653
     fa4:	f9402be0 	ldr	x0, [sp, #80]
     fa8:	f9001be0 	str	x0, [sp, #48]
/home/ssysarch/Desktop/nick/jetpack_5/Jetson_Linux_R35.4.1_aarch64/Linux_for_Tegra/sources/tegra/optee-src/nv-optee/optee/optee_test/ta/storage/storage.c:655
     fac:	f9402fe0 	ldr	x0, [sp, #88]
     fb0:	f9001fe0 	str	x0, [sp, #56]
/home/ssysarch/Desktop/nick/jetpack_5/Jetson_Linux_R35.4.1_aarch64/Linux_for_Tegra/sources/tegra/optee-src/nv-optee/optee/optee_test/ta/storage/storage.c:657
     fb4:	f94033e0 	ldr	x0, [sp, #96]
     fb8:	b90043e0 	str	w0, [sp, #64]
/home/ssysarch/Desktop/nick/jetpack_5/Jetson_Linux_R35.4.1_aarch64/Linux_for_Tegra/sources/tegra/optee-src/nv-optee/optee/optee_test/ta/storage/storage.c:658
     fbc:	f94037e0 	ldr	x0, [sp, #104]
     fc0:	b90047e0 	str	w0, [sp, #68]
/home/ssysarch/Desktop/nick/jetpack_5/Jetson_Linux_R35.4.1_aarch64/Linux_for_Tegra/sources/tegra/optee-src/nv-optee/optee/optee_test/ta/storage/storage.c:659
     fc4:	b94073e0 	ldr	w0, [sp, #112]
/home/ssysarch/Desktop/nick/jetpack_5/Jetson_Linux_R35.4.1_aarch64/Linux_for_Tegra/sources/tegra/optee-src/nv-optee/optee/optee_test/ta/storage/storage.c:652
     fc8:	d2800382 	mov	x2, #0x1c                  	// #28
/home/ssysarch/Desktop/nick/jetpack_5/Jetson_Linux_R35.4.1_aarch64/Linux_for_Tegra/sources/tegra/optee-src/nv-optee/optee/optee_test/ta/storage/storage.c:659
     fcc:	b9004be0 	str	w0, [sp, #72]
/home/ssysarch/Desktop/nick/jetpack_5/Jetson_Linux_R35.4.1_aarch64/Linux_for_Tegra/sources/tegra/optee-src/nv-optee/optee/optee_test/ta/storage/storage.c:660
     fd0:	9100c3e1 	add	x1, sp, #0x30
     fd4:	f9400a80 	ldr	x0, [x20, #16]
/home/ssysarch/Desktop/nick/jetpack_5/Jetson_Linux_R35.4.1_aarch64/Linux_for_Tegra/sources/tegra/optee-src/nv-optee/optee/optee_test/ta/storage/storage.c:652
     fd8:	f9000e82 	str	x2, [x20, #24]
/home/ssysarch/Desktop/nick/jetpack_5/Jetson_Linux_R35.4.1_aarch64/Linux_for_Tegra/sources/tegra/optee-src/nv-optee/optee/optee_test/ta/storage/storage.c:660
     fdc:	94000910 	bl	341c <TEE_MemMove>
/home/ssysarch/Desktop/nick/jetpack_5/Jetson_Linux_R35.4.1_aarch64/Linux_for_Tegra/sources/tegra/optee-src/nv-optee/optee/optee_test/ta/storage/storage.c:664
     fe0:	d00000c2 	adrp	x2, 1a000 <_DYNAMIC>
     fe4:	f9409842 	ldr	x2, [x2, #304]
     fe8:	f9403fe0 	ldr	x0, [sp, #120]
     fec:	f9400041 	ldr	x1, [x2]
     ff0:	eb010000 	subs	x0, x0, x1
     ff4:	d2800001 	mov	x1, #0x0                   	// #0
     ff8:	540000c0 	b.eq	1010 <ta_storage_cmd_get_obj_info+0xd4>  // b.none
     ffc:	94000046 	bl	1114 <__stack_chk_fail>
/home/ssysarch/Desktop/nick/jetpack_5/Jetson_Linux_R35.4.1_aarch64/Linux_for_Tegra/sources/tegra/optee-src/nv-optee/optee/optee_test/ta/storage/storage.c:643
    1000:	129fff33 	mov	w19, #0xffff0006            	// #-65530
    1004:	17fffff7 	b	fe0 <ta_storage_cmd_get_obj_info+0xa4>
/home/ssysarch/Desktop/nick/jetpack_5/Jetson_Linux_R35.4.1_aarch64/Linux_for_Tegra/sources/tegra/optee-src/nv-optee/optee/optee_test/ta/storage/storage.c:649
    1008:	129ffdf3 	mov	w19, #0xffff0010            	// #-65520
    100c:	17fffff5 	b	fe0 <ta_storage_cmd_get_obj_info+0xa4>
/home/ssysarch/Desktop/nick/jetpack_5/Jetson_Linux_R35.4.1_aarch64/Linux_for_Tegra/sources/tegra/optee-src/nv-optee/optee/optee_test/ta/storage/storage.c:664
    1010:	2a1303e0 	mov	w0, w19
    1014:	a94153f3 	ldp	x19, x20, [sp, #16]
    1018:	f94013f5 	ldr	x21, [sp, #32]
    101c:	a8c87bfd 	ldp	x29, x30, [sp], #128
    1020:	d65f03c0 	ret

0000000000001024 <TA_CreateEntryPoint>:
TA_CreateEntryPoint():
/home/ssysarch/Desktop/nick/jetpack_5/Jetson_Linux_R35.4.1_aarch64/Linux_for_Tegra/sources/tegra/optee-src/nv-optee/optee/optee_test/ta/storage/ta_entry.c:20
    1024:	52800000 	mov	w0, #0x0                   	// #0
    1028:	d65f03c0 	ret

000000000000102c <TA_DestroyEntryPoint>:
TA_DestroyEntryPoint():
/home/ssysarch/Desktop/nick/jetpack_5/Jetson_Linux_R35.4.1_aarch64/Linux_for_Tegra/sources/tegra/optee-src/nv-optee/optee/optee_test/ta/storage/ta_entry.c:25
    102c:	d65f03c0 	ret

0000000000001030 <TA_OpenSessionEntryPoint>:
TA_OpenSessionEntryPoint():
/home/ssysarch/Desktop/nick/jetpack_5/Jetson_Linux_R35.4.1_aarch64/Linux_for_Tegra/sources/tegra/optee-src/nv-optee/optee/optee_test/ta/storage/ta_entry.c:36
    1030:	52800000 	mov	w0, #0x0                   	// #0
    1034:	d65f03c0 	ret

0000000000001038 <TA_CloseSessionEntryPoint>:
TA_CloseSessionEntryPoint():
/home/ssysarch/Desktop/nick/jetpack_5/Jetson_Linux_R35.4.1_aarch64/Linux_for_Tegra/sources/tegra/optee-src/nv-optee/optee/optee_test/ta/storage/ta_entry.c:42
    1038:	d65f03c0 	ret

000000000000103c <TA_InvokeCommandEntryPoint>:
TA_InvokeCommandEntryPoint():
/home/ssysarch/Desktop/nick/jetpack_5/Jetson_Linux_R35.4.1_aarch64/Linux_for_Tegra/sources/tegra/optee-src/nv-optee/optee/optee_test/ta/storage/ta_entry.c:48
    103c:	2a0103e4 	mov	w4, w1
    1040:	2a0203e0 	mov	w0, w2
    1044:	aa0303e1 	mov	x1, x3
    1048:	7100649f 	cmp	w4, #0x19
    104c:	54000528 	b.hi	10f0 <TA_InvokeCommandEntryPoint+0xb4>  // b.pmore
    1050:	d00000a2 	adrp	x2, 17000 <__text_end+0x3520>
    1054:	91282042 	add	x2, x2, #0xa08
    1058:	38644842 	ldrb	w2, [x2, w4, uxtw]
    105c:	10000063 	adr	x3, 1068 <TA_InvokeCommandEntryPoint+0x2c>
    1060:	8b228862 	add	x2, x3, w2, sxtb #2
    1064:	d61f0040 	br	x2
/home/ssysarch/Desktop/nick/jetpack_5/Jetson_Linux_R35.4.1_aarch64/Linux_for_Tegra/sources/tegra/optee-src/nv-optee/optee/optee_test/ta/storage/ta_entry.c:54
    1068:	aa0103e2 	mov	x2, x1
    106c:	2a0003e1 	mov	w1, w0
    1070:	2a0403e0 	mov	w0, w4
    1074:	17fffc26 	b	10c <ta_storage_cmd_open>
/home/ssysarch/Desktop/nick/jetpack_5/Jetson_Linux_R35.4.1_aarch64/Linux_for_Tegra/sources/tegra/optee-src/nv-optee/optee/optee_test/ta/storage/ta_entry.c:57
    1078:	17fffcde 	b	3f0 <ta_storage_cmd_close>
/home/ssysarch/Desktop/nick/jetpack_5/Jetson_Linux_R35.4.1_aarch64/Linux_for_Tegra/sources/tegra/optee-src/nv-optee/optee/optee_test/ta/storage/ta_entry.c:60
    107c:	17fffce8 	b	41c <ta_storage_cmd_read>
/home/ssysarch/Desktop/nick/jetpack_5/Jetson_Linux_R35.4.1_aarch64/Linux_for_Tegra/sources/tegra/optee-src/nv-optee/optee/optee_test/ta/storage/ta_entry.c:63
    1080:	17fffd1b 	b	4ec <ta_storage_cmd_write>
/home/ssysarch/Desktop/nick/jetpack_5/Jetson_Linux_R35.4.1_aarch64/Linux_for_Tegra/sources/tegra/optee-src/nv-optee/optee/optee_test/ta/storage/ta_entry.c:67
    1084:	aa0103e2 	mov	x2, x1
    1088:	2a0003e1 	mov	w1, w0
    108c:	2a0403e0 	mov	w0, w4
    1090:	17fffc5b 	b	1fc <ta_storage_cmd_create>
/home/ssysarch/Desktop/nick/jetpack_5/Jetson_Linux_R35.4.1_aarch64/Linux_for_Tegra/sources/tegra/optee-src/nv-optee/optee/optee_test/ta/storage/ta_entry.c:71
    1094:	aa0103e2 	mov	x2, x1
    1098:	2a0003e1 	mov	w1, w0
    109c:	2a0403e0 	mov	w0, w4
    10a0:	17fffc96 	b	2f8 <ta_storage_cmd_create_overwrite>
/home/ssysarch/Desktop/nick/jetpack_5/Jetson_Linux_R35.4.1_aarch64/Linux_for_Tegra/sources/tegra/optee-src/nv-optee/optee/optee_test/ta/storage/ta_entry.c:74
    10a4:	17fffd31 	b	568 <ta_storage_cmd_seek>
/home/ssysarch/Desktop/nick/jetpack_5/Jetson_Linux_R35.4.1_aarch64/Linux_for_Tegra/sources/tegra/optee-src/nv-optee/optee/optee_test/ta/storage/ta_entry.c:77
    10a8:	17fffd53 	b	5f4 <ta_storage_cmd_unlink>
/home/ssysarch/Desktop/nick/jetpack_5/Jetson_Linux_R35.4.1_aarch64/Linux_for_Tegra/sources/tegra/optee-src/nv-optee/optee/optee_test/ta/storage/ta_entry.c:81
    10ac:	aa0103e2 	mov	x2, x1
    10b0:	2a0003e1 	mov	w1, w0
    10b4:	2a0403e0 	mov	w0, w4
    10b8:	17fffd5a 	b	620 <ta_storage_cmd_rename>
/home/ssysarch/Desktop/nick/jetpack_5/Jetson_Linux_R35.4.1_aarch64/Linux_for_Tegra/sources/tegra/optee-src/nv-optee/optee/optee_test/ta/storage/ta_entry.c:84
    10bc:	17fffd87 	b	6d8 <ta_storage_cmd_trunc>
/home/ssysarch/Desktop/nick/jetpack_5/Jetson_Linux_R35.4.1_aarch64/Linux_for_Tegra/sources/tegra/optee-src/nv-optee/optee/optee_test/ta/storage/ta_entry.c:87
    10c0:	17fffd8c 	b	6f0 <ta_storage_cmd_alloc_enum>
/home/ssysarch/Desktop/nick/jetpack_5/Jetson_Linux_R35.4.1_aarch64/Linux_for_Tegra/sources/tegra/optee-src/nv-optee/optee/optee_test/ta/storage/ta_entry.c:90
    10c4:	17fffda8 	b	764 <ta_storage_cmd_free_enum>
/home/ssysarch/Desktop/nick/jetpack_5/Jetson_Linux_R35.4.1_aarch64/Linux_for_Tegra/sources/tegra/optee-src/nv-optee/optee/optee_test/ta/storage/ta_entry.c:93
    10c8:	17fffdb2 	b	790 <ta_storage_cmd_reset_enum>
/home/ssysarch/Desktop/nick/jetpack_5/Jetson_Linux_R35.4.1_aarch64/Linux_for_Tegra/sources/tegra/optee-src/nv-optee/optee/optee_test/ta/storage/ta_entry.c:96
    10cc:	17fffdbc 	b	7bc <ta_storage_cmd_start_enum>
/home/ssysarch/Desktop/nick/jetpack_5/Jetson_Linux_R35.4.1_aarch64/Linux_for_Tegra/sources/tegra/optee-src/nv-optee/optee/optee_test/ta/storage/ta_entry.c:99
    10d0:	17fffdc1 	b	7d4 <ta_storage_cmd_next_enum>
/home/ssysarch/Desktop/nick/jetpack_5/Jetson_Linux_R35.4.1_aarch64/Linux_for_Tegra/sources/tegra/optee-src/nv-optee/optee/optee_test/ta/storage/ta_entry.c:102
    10d4:	17fffe09 	b	8f8 <ta_storage_cmd_key_in_persistent>
/home/ssysarch/Desktop/nick/jetpack_5/Jetson_Linux_R35.4.1_aarch64/Linux_for_Tegra/sources/tegra/optee-src/nv-optee/optee/optee_test/ta/storage/ta_entry.c:105
    10d8:	17ffff08 	b	cf8 <ta_storage_cmd_loop>
/home/ssysarch/Desktop/nick/jetpack_5/Jetson_Linux_R35.4.1_aarch64/Linux_for_Tegra/sources/tegra/optee-src/nv-optee/optee/optee_test/ta/storage/ta_entry.c:108
    10dc:	17ffff59 	b	e40 <ta_storage_cmd_restrict_usage>
/home/ssysarch/Desktop/nick/jetpack_5/Jetson_Linux_R35.4.1_aarch64/Linux_for_Tegra/sources/tegra/optee-src/nv-optee/optee/optee_test/ta/storage/ta_entry.c:111
    10e0:	17ffff63 	b	e6c <ta_storage_cmd_alloc_obj>
/home/ssysarch/Desktop/nick/jetpack_5/Jetson_Linux_R35.4.1_aarch64/Linux_for_Tegra/sources/tegra/optee-src/nv-optee/optee/optee_test/ta/storage/ta_entry.c:114
    10e4:	17ffff80 	b	ee4 <ta_storage_cmd_free_obj>
/home/ssysarch/Desktop/nick/jetpack_5/Jetson_Linux_R35.4.1_aarch64/Linux_for_Tegra/sources/tegra/optee-src/nv-optee/optee/optee_test/ta/storage/ta_entry.c:117
    10e8:	17ffff8a 	b	f10 <ta_storage_cmd_reset_obj>
/home/ssysarch/Desktop/nick/jetpack_5/Jetson_Linux_R35.4.1_aarch64/Linux_for_Tegra/sources/tegra/optee-src/nv-optee/optee/optee_test/ta/storage/ta_entry.c:120
    10ec:	17ffff94 	b	f3c <ta_storage_cmd_get_obj_info>
/home/ssysarch/Desktop/nick/jetpack_5/Jetson_Linux_R35.4.1_aarch64/Linux_for_Tegra/sources/tegra/optee-src/nv-optee/optee/optee_test/ta/storage/ta_entry.c:125
    10f0:	129fff20 	mov	w0, #0xffff0006            	// #-65530
    10f4:	d65f03c0 	ret

00000000000010f8 <__ta_entry>:
__ta_entry():
/home/ssysarch/Desktop/nick/jetpack_5/Jetson_Linux_R35.4.1_aarch64/Linux_for_Tegra/sources/tegra/optee-src/nv-optee/optee/build/t234/export-ta_arm64/src/user_ta_header.c:51
    10f8:	a9bf7bfd 	stp	x29, x30, [sp, #-16]!
    10fc:	910003fd 	mov	x29, sp
/home/ssysarch/Desktop/nick/jetpack_5/Jetson_Linux_R35.4.1_aarch64/Linux_for_Tegra/sources/tegra/optee-src/nv-optee/optee/build/t234/export-ta_arm64/src/user_ta_header.c:70
    1100:	94002449 	bl	a224 <__utee_entry>
/home/ssysarch/Desktop/nick/jetpack_5/Jetson_Linux_R35.4.1_aarch64/Linux_for_Tegra/sources/tegra/optee-src/nv-optee/optee/build/t234/export-ta_arm64/src/user_ta_header.c:81
    1104:	2a0003e0 	mov	w0, w0
    1108:	940024ec 	bl	a4b8 <_utee_return>

000000000000110c <tahead_get_trace_level>:
tahead_get_trace_level():
/home/ssysarch/Desktop/nick/jetpack_5/Jetson_Linux_R35.4.1_aarch64/Linux_for_Tegra/sources/tegra/optee-src/nv-optee/optee/build/t234/export-ta_arm64/src/user_ta_header.c:193
    110c:	52800080 	mov	w0, #0x4                   	// #4
    1110:	d65f03c0 	ret

0000000000001114 <__stack_chk_fail>:
__stack_chk_fail():
/home/ssysarch/Desktop/nick/jetpack_5/Jetson_Linux_R35.4.1_aarch64/Linux_for_Tegra/sources/tegra/optee-src/nv-optee/optee/optee_os/lib/libutils/isoc/stack_check.c:24
    1114:	a9bf7bfd 	stp	x29, x30, [sp, #-16]!
/home/ssysarch/Desktop/nick/jetpack_5/Jetson_Linux_R35.4.1_aarch64/Linux_for_Tegra/sources/tegra/optee-src/nv-optee/optee/optee_os/lib/libutils/isoc/stack_check.c:25
    1118:	f00000a4 	adrp	x4, 18000 <__func__.4689+0x36>
    111c:	91030c84 	add	x4, x4, #0xc3
/home/ssysarch/Desktop/nick/jetpack_5/Jetson_Linux_R35.4.1_aarch64/Linux_for_Tegra/sources/tegra/optee-src/nv-optee/optee/optee_os/lib/libutils/isoc/stack_check.c:24
    1120:	910003fd 	mov	x29, sp
/home/ssysarch/Desktop/nick/jetpack_5/Jetson_Linux_R35.4.1_aarch64/Linux_for_Tegra/sources/tegra/optee-src/nv-optee/optee/optee_os/lib/libutils/isoc/stack_check.c:25
    1124:	52800023 	mov	w3, #0x1                   	// #1
    1128:	52800022 	mov	w2, #0x1                   	// #1
    112c:	52800001 	mov	w1, #0x0                   	// #0
    1130:	d2800000 	mov	x0, #0x0                   	// #0
    1134:	940000d9 	bl	1498 <trace_printf>
/home/ssysarch/Desktop/nick/jetpack_5/Jetson_Linux_R35.4.1_aarch64/Linux_for_Tegra/sources/tegra/optee-src/nv-optee/optee/optee_os/lib/libutils/isoc/stack_check.c:27 (discriminator 1)
    1138:	1299fe00 	mov	w0, #0xffff300f            	// #-53233
    113c:	940024dc 	bl	a4ac <_utee_panic>
/home/ssysarch/Desktop/nick/jetpack_5/Jetson_Linux_R35.4.1_aarch64/Linux_for_Tegra/sources/tegra/optee-src/nv-optee/optee/optee_os/lib/libutils/isoc/stack_check.c:26 (discriminator 1)
    1140:	17fffffe 	b	1138 <__stack_chk_fail+0x24>

0000000000001144 <append>:
append():
/home/ssysarch/Desktop/nick/jetpack_5/Jetson_Linux_R35.4.1_aarch64/Linux_for_Tegra/sources/tegra/optee-src/nv-optee/optee/optee_os/lib/libutils/ext/trace.c:211
    1144:	a9ad7bfd 	stp	x29, x30, [sp, #-304]!
    1148:	910003fd 	mov	x29, sp
    114c:	a9100fe2 	stp	x2, x3, [sp, #256]
    1150:	b00000c2 	adrp	x2, 1a000 <_DYNAMIC>
    1154:	f9409842 	ldr	x2, [x2, #304]
    1158:	a90153f3 	stp	x19, x20, [sp, #16]
    115c:	aa0003f3 	mov	x19, x0
    1160:	3d8023e0 	str	q0, [sp, #128]
    1164:	3d8027e1 	str	q1, [sp, #144]
    1168:	3d802be2 	str	q2, [sp, #160]
    116c:	3d802fe3 	str	q3, [sp, #176]
    1170:	3d8033e4 	str	q4, [sp, #192]
    1174:	3d8037e5 	str	q5, [sp, #208]
    1178:	3d803be6 	str	q6, [sp, #224]
    117c:	3d803fe7 	str	q7, [sp, #240]
    1180:	a91117e4 	stp	x4, x5, [sp, #272]
    1184:	a9121fe6 	stp	x6, x7, [sp, #288]
    1188:	f9400040 	ldr	x0, [x2]
    118c:	f9003fe0 	str	x0, [sp, #120]
    1190:	d2800000 	mov	x0, #0x0                   	// #0
    1194:	f90013f5 	str	x21, [sp, #32]
/home/ssysarch/Desktop/nick/jetpack_5/Jetson_Linux_R35.4.1_aarch64/Linux_for_Tegra/sources/tegra/optee-src/nv-optee/optee/optee_os/lib/libutils/ext/trace.c:216
    1198:	f9408260 	ldr	x0, [x19, #256]
/home/ssysarch/Desktop/nick/jetpack_5/Jetson_Linux_R35.4.1_aarch64/Linux_for_Tegra/sources/tegra/optee-src/nv-optee/optee/optee_os/lib/libutils/ext/trace.c:211
    119c:	aa0103f5 	mov	x21, x1
/home/ssysarch/Desktop/nick/jetpack_5/Jetson_Linux_R35.4.1_aarch64/Linux_for_Tegra/sources/tegra/optee-src/nv-optee/optee/optee_os/lib/libutils/ext/trace.c:216
    11a0:	b5000040 	cbnz	x0, 11a8 <append+0x64>
/home/ssysarch/Desktop/nick/jetpack_5/Jetson_Linux_R35.4.1_aarch64/Linux_for_Tegra/sources/tegra/optee-src/nv-optee/optee/optee_os/lib/libutils/ext/trace.c:217
    11a4:	f9008273 	str	x19, [x19, #256]
/home/ssysarch/Desktop/nick/jetpack_5/Jetson_Linux_R35.4.1_aarch64/Linux_for_Tegra/sources/tegra/optee-src/nv-optee/optee/optee_os/lib/libutils/ext/trace.c:219
    11a8:	9104c3e0 	add	x0, sp, #0x130
/home/ssysarch/Desktop/nick/jetpack_5/Jetson_Linux_R35.4.1_aarch64/Linux_for_Tegra/sources/tegra/optee-src/nv-optee/optee/optee_os/lib/libutils/ext/trace.c:220
    11ac:	9100c3e3 	add	x3, sp, #0x30
/home/ssysarch/Desktop/nick/jetpack_5/Jetson_Linux_R35.4.1_aarch64/Linux_for_Tegra/sources/tegra/optee-src/nv-optee/optee/optee_os/lib/libutils/ext/trace.c:219
    11b0:	a90583e0 	stp	x0, x0, [sp, #88]
    11b4:	910403e0 	add	x0, sp, #0x100
/home/ssysarch/Desktop/nick/jetpack_5/Jetson_Linux_R35.4.1_aarch64/Linux_for_Tegra/sources/tegra/optee-src/nv-optee/optee/optee_os/lib/libutils/ext/trace.c:220
    11b8:	910163e1 	add	x1, sp, #0x58
/home/ssysarch/Desktop/nick/jetpack_5/Jetson_Linux_R35.4.1_aarch64/Linux_for_Tegra/sources/tegra/optee-src/nv-optee/optee/optee_os/lib/libutils/ext/trace.c:219
    11bc:	f90037e0 	str	x0, [sp, #104]
    11c0:	128005e0 	mov	w0, #0xffffffd0            	// #-48
    11c4:	b90073e0 	str	w0, [sp, #112]
    11c8:	12800fe0 	mov	w0, #0xffffff80            	// #-128
/home/ssysarch/Desktop/nick/jetpack_5/Jetson_Linux_R35.4.1_aarch64/Linux_for_Tegra/sources/tegra/optee-src/nv-optee/optee/optee_os/lib/libutils/ext/trace.c:218
    11cc:	f9408274 	ldr	x20, [x19, #256]
/home/ssysarch/Desktop/nick/jetpack_5/Jetson_Linux_R35.4.1_aarch64/Linux_for_Tegra/sources/tegra/optee-src/nv-optee/optee/optee_os/lib/libutils/ext/trace.c:220
    11d0:	d2800402 	mov	x2, #0x20                  	// #32
/home/ssysarch/Desktop/nick/jetpack_5/Jetson_Linux_R35.4.1_aarch64/Linux_for_Tegra/sources/tegra/optee-src/nv-optee/optee/optee_os/lib/libutils/ext/trace.c:219
    11d4:	b90077e0 	str	w0, [sp, #116]
/home/ssysarch/Desktop/nick/jetpack_5/Jetson_Linux_R35.4.1_aarch64/Linux_for_Tegra/sources/tegra/optee-src/nv-optee/optee/optee_os/lib/libutils/ext/trace.c:220
    11d8:	aa0303e0 	mov	x0, x3
    11dc:	97fffb91 	bl	20 <memcpy>
    11e0:	aa0003e3 	mov	x3, x0
    11e4:	f9408260 	ldr	x0, [x19, #256]
/home/ssysarch/Desktop/nick/jetpack_5/Jetson_Linux_R35.4.1_aarch64/Linux_for_Tegra/sources/tegra/optee-src/nv-optee/optee/optee_os/lib/libutils/ext/trace.c:218
    11e8:	4b140274 	sub	w20, w19, w20
    11ec:	11040294 	add	w20, w20, #0x100
/home/ssysarch/Desktop/nick/jetpack_5/Jetson_Linux_R35.4.1_aarch64/Linux_for_Tegra/sources/tegra/optee-src/nv-optee/optee/optee_os/lib/libutils/ext/trace.c:220
    11f0:	aa1503e2 	mov	x2, x21
    11f4:	93407e81 	sxtw	x1, w20
    11f8:	94000176 	bl	17d0 <vsnprintk>
/home/ssysarch/Desktop/nick/jetpack_5/Jetson_Linux_R35.4.1_aarch64/Linux_for_Tegra/sources/tegra/optee-src/nv-optee/optee/optee_os/lib/libutils/ext/trace.c:222
    11fc:	37f801e0 	tbnz	w0, #31, 1238 <append+0xf4>
/home/ssysarch/Desktop/nick/jetpack_5/Jetson_Linux_R35.4.1_aarch64/Linux_for_Tegra/sources/tegra/optee-src/nv-optee/optee/optee_os/lib/libutils/ext/trace.c:226
    1200:	6b00029f 	cmp	w20, w0
    1204:	540001ad 	b.le	1238 <append+0xf4>
/home/ssysarch/Desktop/nick/jetpack_5/Jetson_Linux_R35.4.1_aarch64/Linux_for_Tegra/sources/tegra/optee-src/nv-optee/optee/optee_os/lib/libutils/ext/trace.c:230
    1208:	f9408261 	ldr	x1, [x19, #256]
    120c:	8b20c020 	add	x0, x1, w0, sxtw
    1210:	f9008260 	str	x0, [x19, #256]
/home/ssysarch/Desktop/nick/jetpack_5/Jetson_Linux_R35.4.1_aarch64/Linux_for_Tegra/sources/tegra/optee-src/nv-optee/optee/optee_os/lib/libutils/ext/trace.c:231
    1214:	52800020 	mov	w0, #0x1                   	// #1
/home/ssysarch/Desktop/nick/jetpack_5/Jetson_Linux_R35.4.1_aarch64/Linux_for_Tegra/sources/tegra/optee-src/nv-optee/optee/optee_os/lib/libutils/ext/trace.c:232
    1218:	b00000c2 	adrp	x2, 1a000 <_DYNAMIC>
    121c:	f9409842 	ldr	x2, [x2, #304]
    1220:	f9403fe1 	ldr	x1, [sp, #120]
    1224:	f9400043 	ldr	x3, [x2]
    1228:	eb030021 	subs	x1, x1, x3
    122c:	d2800003 	mov	x3, #0x0                   	// #0
    1230:	54000080 	b.eq	1240 <append+0xfc>  // b.none
    1234:	97ffffb8 	bl	1114 <__stack_chk_fail>
/home/ssysarch/Desktop/nick/jetpack_5/Jetson_Linux_R35.4.1_aarch64/Linux_for_Tegra/sources/tegra/optee-src/nv-optee/optee/optee_os/lib/libutils/ext/trace.c:224
    1238:	52800000 	mov	w0, #0x0                   	// #0
    123c:	17fffff7 	b	1218 <append+0xd4>
/home/ssysarch/Desktop/nick/jetpack_5/Jetson_Linux_R35.4.1_aarch64/Linux_for_Tegra/sources/tegra/optee-src/nv-optee/optee/optee_os/lib/libutils/ext/trace.c:232
    1240:	a94153f3 	ldp	x19, x20, [sp, #16]
    1244:	f94013f5 	ldr	x21, [sp, #32]
    1248:	a8d37bfd 	ldp	x29, x30, [sp], #304
    124c:	d65f03c0 	ret

0000000000001250 <trace_set_level>:
trace_set_level():
/home/ssysarch/Desktop/nick/jetpack_5/Jetson_Linux_R35.4.1_aarch64/Linux_for_Tegra/sources/tegra/optee-src/nv-optee/optee/optee_os/lib/libutils/ext/trace.c:28
    1250:	7100141f 	cmp	w0, #0x5
    1254:	52800081 	mov	w1, #0x4                   	// #4
    1258:	1a813000 	csel	w0, w0, w1, cc  // cc = lo, ul, last
    125c:	b00000c1 	adrp	x1, 1a000 <_DYNAMIC>
    1260:	f940a821 	ldr	x1, [x1, #336]
    1264:	b9000020 	str	w0, [x1]
/home/ssysarch/Desktop/nick/jetpack_5/Jetson_Linux_R35.4.1_aarch64/Linux_for_Tegra/sources/tegra/optee-src/nv-optee/optee/optee_os/lib/libutils/ext/trace.c:29
    1268:	d65f03c0 	ret

000000000000126c <trace_get_level>:
trace_get_level():
/home/ssysarch/Desktop/nick/jetpack_5/Jetson_Linux_R35.4.1_aarch64/Linux_for_Tegra/sources/tegra/optee-src/nv-optee/optee/optee_os/lib/libutils/ext/trace.c:33
    126c:	b00000c0 	adrp	x0, 1a000 <_DYNAMIC>
/home/ssysarch/Desktop/nick/jetpack_5/Jetson_Linux_R35.4.1_aarch64/Linux_for_Tegra/sources/tegra/optee-src/nv-optee/optee/optee_os/lib/libutils/ext/trace.c:34
    1270:	f940a800 	ldr	x0, [x0, #336]
    1274:	b9400000 	ldr	w0, [x0]
    1278:	d65f03c0 	ret

000000000000127c <trace_vprintf>:
trace_vprintf():
/home/ssysarch/Desktop/nick/jetpack_5/Jetson_Linux_R35.4.1_aarch64/Linux_for_Tegra/sources/tegra/optee-src/nv-optee/optee/optee_os/lib/libutils/ext/trace.c:113
    127c:	a9a77bfd 	stp	x29, x30, [sp, #-400]!
    1280:	910003fd 	mov	x29, sp
    1284:	a9046bf9 	stp	x25, x26, [sp, #64]
    1288:	2a0103f9 	mov	w25, w1
    128c:	b00000c1 	adrp	x1, 1a000 <_DYNAMIC>
    1290:	a9025bf5 	stp	x21, x22, [sp, #32]
    1294:	aa0003f6 	mov	x22, x0
    1298:	aa0103f5 	mov	x21, x1
    129c:	f9409820 	ldr	x0, [x1, #304]
    12a0:	a90153f3 	stp	x19, x20, [sp, #16]
    12a4:	2a0203f3 	mov	w19, w2
    12a8:	f9400002 	ldr	x2, [x0]
    12ac:	f900c7e2 	str	x2, [sp, #392]
    12b0:	d2800002 	mov	x2, #0x0                   	// #0
    12b4:	a90363f7 	stp	x23, x24, [sp, #48]
    12b8:	aa0403f7 	mov	x23, x4
    12bc:	a90573fb 	stp	x27, x28, [sp, #80]
    12c0:	aa0503f8 	mov	x24, x5
/home/ssysarch/Desktop/nick/jetpack_5/Jetson_Linux_R35.4.1_aarch64/Linux_for_Tegra/sources/tegra/optee-src/nv-optee/optee/optee_os/lib/libutils/ext/trace.c:118
    12c4:	72001c7b 	ands	w27, w3, #0xff
    12c8:	54000b20 	b.eq	142c <trace_vprintf+0x1b0>  // b.none
/home/ssysarch/Desktop/nick/jetpack_5/Jetson_Linux_R35.4.1_aarch64/Linux_for_Tegra/sources/tegra/optee-src/nv-optee/optee/optee_os/lib/libutils/ext/trace.c:118 (discriminator 1)
    12cc:	f940a820 	ldr	x0, [x1, #336]
    12d0:	b9400000 	ldr	w0, [x0]
    12d4:	6b13001f 	cmp	w0, w19
    12d8:	540009cb 	b.lt	1410 <trace_vprintf+0x194>  // b.tstop
trace_level_to_string():
/home/ssysarch/Desktop/nick/jetpack_5/Jetson_Linux_R35.4.1_aarch64/Linux_for_Tegra/sources/tegra/optee-src/nv-optee/optee/optee_os/lib/libutils/ext/trace.c:51
    12dc:	7100127f 	cmp	w19, #0x4
/home/ssysarch/Desktop/nick/jetpack_5/Jetson_Linux_R35.4.1_aarch64/Linux_for_Tegra/sources/tegra/optee-src/nv-optee/optee/optee_os/lib/libutils/ext/trace.c:54
    12e0:	f00000a0 	adrp	x0, 18000 <__func__.4689+0x36>
    12e4:	91045400 	add	x0, x0, #0x115
/home/ssysarch/Desktop/nick/jetpack_5/Jetson_Linux_R35.4.1_aarch64/Linux_for_Tegra/sources/tegra/optee-src/nv-optee/optee/optee_os/lib/libutils/ext/trace.c:51
    12e8:	1a9f9261 	csel	w1, w19, wzr, ls  // ls = plast
/home/ssysarch/Desktop/nick/jetpack_5/Jetson_Linux_R35.4.1_aarch64/Linux_for_Tegra/sources/tegra/optee-src/nv-optee/optee/optee_os/lib/libutils/ext/trace.c:54
    12ec:	3861c803 	ldrb	w3, [x0, w1, sxtw]
trace_vprintf():
/home/ssysarch/Desktop/nick/jetpack_5/Jetson_Linux_R35.4.1_aarch64/Linux_for_Tegra/sources/tegra/optee-src/nv-optee/optee/optee_os/lib/libutils/ext/trace.c:122
    12f0:	910223f4 	add	x20, sp, #0x88
    12f4:	f00000a2 	adrp	x2, 18000 <__func__.4689+0x36>
    12f8:	91036c42 	add	x2, x2, #0xdb
    12fc:	aa1403e0 	mov	x0, x20
    1300:	d2802001 	mov	x1, #0x100                 	// #256
    1304:	94000149 	bl	1828 <snprintk>
/home/ssysarch/Desktop/nick/jetpack_5/Jetson_Linux_R35.4.1_aarch64/Linux_for_Tegra/sources/tegra/optee-src/nv-optee/optee/optee_os/lib/libutils/ext/trace.c:124
    1308:	37f80840 	tbnz	w0, #31, 1410 <trace_vprintf+0x194>
/home/ssysarch/Desktop/nick/jetpack_5/Jetson_Linux_R35.4.1_aarch64/Linux_for_Tegra/sources/tegra/optee-src/nv-optee/optee/optee_os/lib/libutils/ext/trace.c:129
    130c:	f940b2a3 	ldr	x3, [x21, #352]
    1310:	d280201c 	mov	x28, #0x100                 	// #256
/home/ssysarch/Desktop/nick/jetpack_5/Jetson_Linux_R35.4.1_aarch64/Linux_for_Tegra/sources/tegra/optee-src/nv-optee/optee/optee_os/lib/libutils/ext/trace.c:126
    1314:	93407c1a 	sxtw	x26, w0
/home/ssysarch/Desktop/nick/jetpack_5/Jetson_Linux_R35.4.1_aarch64/Linux_for_Tegra/sources/tegra/optee-src/nv-optee/optee/optee_os/lib/libutils/ext/trace.c:129
    1318:	cb20c381 	sub	x1, x28, w0, sxtw
    131c:	f00000a2 	adrp	x2, 18000 <__func__.4689+0x36>
    1320:	91037c42 	add	x2, x2, #0xdf
    1324:	8b20c280 	add	x0, x20, w0, sxtw
    1328:	94000140 	bl	1828 <snprintk>
/home/ssysarch/Desktop/nick/jetpack_5/Jetson_Linux_R35.4.1_aarch64/Linux_for_Tegra/sources/tegra/optee-src/nv-optee/optee/optee_os/lib/libutils/ext/trace.c:131
    132c:	37f80720 	tbnz	w0, #31, 1410 <trace_vprintf+0x194>
/home/ssysarch/Desktop/nick/jetpack_5/Jetson_Linux_R35.4.1_aarch64/Linux_for_Tegra/sources/tegra/optee-src/nv-optee/optee/optee_os/lib/libutils/ext/trace.c:133
    1330:	8b20c35a 	add	x26, x26, w0, sxtw
/home/ssysarch/Desktop/nick/jetpack_5/Jetson_Linux_R35.4.1_aarch64/Linux_for_Tegra/sources/tegra/optee-src/nv-optee/optee/optee_os/lib/libutils/ext/trace.c:135
    1334:	3400093b 	cbz	w27, 1458 <trace_vprintf+0x1dc>
/home/ssysarch/Desktop/nick/jetpack_5/Jetson_Linux_R35.4.1_aarch64/Linux_for_Tegra/sources/tegra/optee-src/nv-optee/optee/optee_os/lib/libutils/ext/trace.c:135 (discriminator 1)
    1338:	52800342 	mov	w2, #0x1a                  	// #26
    133c:	1ad32453 	lsr	w19, w2, w19
    1340:	360008d3 	tbz	w19, #0, 1458 <trace_vprintf+0x1dc>
print_thread_id():
/home/ssysarch/Desktop/nick/jetpack_5/Jetson_Linux_R35.4.1_aarch64/Linux_for_Tegra/sources/tegra/optee-src/nv-optee/optee/optee_os/lib/libutils/ext/trace.c:66
    1344:	94000493 	bl	2590 <trace_ext_get_thread_id>
trace_vprintf():
/home/ssysarch/Desktop/nick/jetpack_5/Jetson_Linux_R35.4.1_aarch64/Linux_for_Tegra/sources/tegra/optee-src/nv-optee/optee/optee_os/lib/libutils/ext/trace.c:137
    1348:	8b1a029b 	add	x27, x20, x26
    134c:	cb1a039c 	sub	x28, x28, x26
print_thread_id():
/home/ssysarch/Desktop/nick/jetpack_5/Jetson_Linux_R35.4.1_aarch64/Linux_for_Tegra/sources/tegra/optee-src/nv-optee/optee/optee_os/lib/libutils/ext/trace.c:66
    1350:	2a0003e4 	mov	w4, w0
/home/ssysarch/Desktop/nick/jetpack_5/Jetson_Linux_R35.4.1_aarch64/Linux_for_Tegra/sources/tegra/optee-src/nv-optee/optee/optee_os/lib/libutils/ext/trace.c:68
    1354:	37f80700 	tbnz	w0, #31, 1434 <trace_vprintf+0x1b8>
/home/ssysarch/Desktop/nick/jetpack_5/Jetson_Linux_R35.4.1_aarch64/Linux_for_Tegra/sources/tegra/optee-src/nv-optee/optee/optee_os/lib/libutils/ext/trace.c:69
    1358:	f00000a2 	adrp	x2, 18000 <__func__.4689+0x36>
    135c:	91038c42 	add	x2, x2, #0xe3
    1360:	aa1c03e1 	mov	x1, x28
    1364:	aa1b03e0 	mov	x0, x27
    1368:	52800043 	mov	w3, #0x2                   	// #2
    136c:	9400012f 	bl	1828 <snprintk>
trace_vprintf():
/home/ssysarch/Desktop/nick/jetpack_5/Jetson_Linux_R35.4.1_aarch64/Linux_for_Tegra/sources/tegra/optee-src/nv-optee/optee/optee_os/lib/libutils/ext/trace.c:144
    1370:	37f80500 	tbnz	w0, #31, 1410 <trace_vprintf+0x194>
/home/ssysarch/Desktop/nick/jetpack_5/Jetson_Linux_R35.4.1_aarch64/Linux_for_Tegra/sources/tegra/optee-src/nv-optee/optee/optee_os/lib/libutils/ext/trace.c:146
    1374:	8b20c353 	add	x19, x26, w0, sxtw
/home/ssysarch/Desktop/nick/jetpack_5/Jetson_Linux_R35.4.1_aarch64/Linux_for_Tegra/sources/tegra/optee-src/nv-optee/optee/optee_os/lib/libutils/ext/trace.c:148
    1378:	b4000176 	cbz	x22, 13a4 <trace_vprintf+0x128>
/home/ssysarch/Desktop/nick/jetpack_5/Jetson_Linux_R35.4.1_aarch64/Linux_for_Tegra/sources/tegra/optee-src/nv-optee/optee/optee_os/lib/libutils/ext/trace.c:149
    137c:	f00000a2 	adrp	x2, 18000 <__func__.4689+0x36>
    1380:	9103b842 	add	x2, x2, #0xee
    1384:	d2802001 	mov	x1, #0x100                 	// #256
    1388:	2a1903e4 	mov	w4, w25
    138c:	aa1603e3 	mov	x3, x22
    1390:	cb130021 	sub	x1, x1, x19
    1394:	8b130280 	add	x0, x20, x19
    1398:	94000124 	bl	1828 <snprintk>
/home/ssysarch/Desktop/nick/jetpack_5/Jetson_Linux_R35.4.1_aarch64/Linux_for_Tegra/sources/tegra/optee-src/nv-optee/optee/optee_os/lib/libutils/ext/trace.c:151
    139c:	37f803a0 	tbnz	w0, #31, 1410 <trace_vprintf+0x194>
/home/ssysarch/Desktop/nick/jetpack_5/Jetson_Linux_R35.4.1_aarch64/Linux_for_Tegra/sources/tegra/optee-src/nv-optee/optee/optee_os/lib/libutils/ext/trace.c:153
    13a0:	8b20c273 	add	x19, x19, w0, sxtw
/home/ssysarch/Desktop/nick/jetpack_5/Jetson_Linux_R35.4.1_aarch64/Linux_for_Tegra/sources/tegra/optee-src/nv-optee/optee/optee_os/lib/libutils/ext/trace.c:163
    13a4:	910183e3 	add	x3, sp, #0x60
    13a8:	aa1803e1 	mov	x1, x24
    13ac:	aa0303e0 	mov	x0, x3
    13b0:	d2800402 	mov	x2, #0x20                  	// #32
    13b4:	97fffb1b 	bl	20 <memcpy>
    13b8:	aa0003e3 	mov	x3, x0
    13bc:	aa1703e2 	mov	x2, x23
    13c0:	8b130280 	add	x0, x20, x19
    13c4:	d2802001 	mov	x1, #0x100                 	// #256
    13c8:	cb130021 	sub	x1, x1, x19
    13cc:	94000101 	bl	17d0 <vsnprintk>
/home/ssysarch/Desktop/nick/jetpack_5/Jetson_Linux_R35.4.1_aarch64/Linux_for_Tegra/sources/tegra/optee-src/nv-optee/optee/optee_os/lib/libutils/ext/trace.c:164
    13d0:	7100001f 	cmp	w0, #0x0
    13d4:	5400004d 	b.le	13dc <trace_vprintf+0x160>
/home/ssysarch/Desktop/nick/jetpack_5/Jetson_Linux_R35.4.1_aarch64/Linux_for_Tegra/sources/tegra/optee-src/nv-optee/optee/optee_os/lib/libutils/ext/trace.c:165
    13d8:	8b20c273 	add	x19, x19, w0, sxtw
/home/ssysarch/Desktop/nick/jetpack_5/Jetson_Linux_R35.4.1_aarch64/Linux_for_Tegra/sources/tegra/optee-src/nv-optee/optee/optee_os/lib/libutils/ext/trace.c:167
    13dc:	f103fa7f 	cmp	x19, #0xfe
    13e0:	d2801fc0 	mov	x0, #0xfe                  	// #254
    13e4:	9a809273 	csel	x19, x19, x0, ls  // ls = plast
/home/ssysarch/Desktop/nick/jetpack_5/Jetson_Linux_R35.4.1_aarch64/Linux_for_Tegra/sources/tegra/optee-src/nv-optee/optee/optee_os/lib/libutils/ext/trace.c:170
    13e8:	52800140 	mov	w0, #0xa                   	// #10
    13ec:	38336a80 	strb	w0, [x20, x19]
/home/ssysarch/Desktop/nick/jetpack_5/Jetson_Linux_R35.4.1_aarch64/Linux_for_Tegra/sources/tegra/optee-src/nv-optee/optee/optee_os/lib/libutils/ext/trace.c:171
    13f0:	b4000093 	cbz	x19, 1400 <trace_vprintf+0x184>
/home/ssysarch/Desktop/nick/jetpack_5/Jetson_Linux_R35.4.1_aarch64/Linux_for_Tegra/sources/tegra/optee-src/nv-optee/optee/optee_os/lib/libutils/ext/trace.c:171 (discriminator 1)
    13f4:	38736a80 	ldrb	w0, [x20, x19]
    13f8:	7100281f 	cmp	w0, #0xa
    13fc:	540003c0 	b.eq	1474 <trace_vprintf+0x1f8>  // b.none
/home/ssysarch/Desktop/nick/jetpack_5/Jetson_Linux_R35.4.1_aarch64/Linux_for_Tegra/sources/tegra/optee-src/nv-optee/optee/optee_os/lib/libutils/ext/trace.c:174
    1400:	91022be0 	add	x0, sp, #0x8a
    1404:	3833681f 	strb	wzr, [x0, x19]
/home/ssysarch/Desktop/nick/jetpack_5/Jetson_Linux_R35.4.1_aarch64/Linux_for_Tegra/sources/tegra/optee-src/nv-optee/optee/optee_os/lib/libutils/ext/trace.c:176
    1408:	aa1403e0 	mov	x0, x20
    140c:	94000457 	bl	2568 <trace_ext_puts>
/home/ssysarch/Desktop/nick/jetpack_5/Jetson_Linux_R35.4.1_aarch64/Linux_for_Tegra/sources/tegra/optee-src/nv-optee/optee/optee_os/lib/libutils/ext/trace.c:177
    1410:	f9409ab5 	ldr	x21, [x21, #304]
    1414:	f940c7e0 	ldr	x0, [sp, #392]
    1418:	f94002a1 	ldr	x1, [x21]
    141c:	eb010000 	subs	x0, x0, x1
    1420:	d2800001 	mov	x1, #0x0                   	// #0
    1424:	540002c0 	b.eq	147c <trace_vprintf+0x200>  // b.none
    1428:	97ffff3b 	bl	1114 <__stack_chk_fail>
trace_level_to_string():
/home/ssysarch/Desktop/nick/jetpack_5/Jetson_Linux_R35.4.1_aarch64/Linux_for_Tegra/sources/tegra/optee-src/nv-optee/optee/optee_os/lib/libutils/ext/trace.c:49
    142c:	528009a3 	mov	w3, #0x4d                  	// #77
    1430:	17ffffb0 	b	12f0 <trace_vprintf+0x74>
print_thread_id():
/home/ssysarch/Desktop/nick/jetpack_5/Jetson_Linux_R35.4.1_aarch64/Linux_for_Tegra/sources/tegra/optee-src/nv-optee/optee/optee_os/lib/libutils/ext/trace.c:71
    1434:	aa1c03e1 	mov	x1, x28
    1438:	aa1b03e0 	mov	x0, x27
    143c:	f00000a4 	adrp	x4, 18000 <__func__.4689+0x36>
    1440:	912a7c84 	add	x4, x4, #0xa9f
    1444:	52800043 	mov	w3, #0x2                   	// #2
    1448:	f00000a2 	adrp	x2, 18000 <__func__.4689+0x36>
    144c:	9103a442 	add	x2, x2, #0xe9
    1450:	940000f6 	bl	1828 <snprintk>
    1454:	17ffffc7 	b	1370 <trace_vprintf+0xf4>
trace_vprintf():
/home/ssysarch/Desktop/nick/jetpack_5/Jetson_Linux_R35.4.1_aarch64/Linux_for_Tegra/sources/tegra/optee-src/nv-optee/optee/optee_os/lib/libutils/ext/trace.c:157
    1458:	f103fb5f 	cmp	x26, #0xfe
    145c:	54fffda8 	b.hi	1410 <trace_vprintf+0x194>  // b.pmore
/home/ssysarch/Desktop/nick/jetpack_5/Jetson_Linux_R35.4.1_aarch64/Linux_for_Tegra/sources/tegra/optee-src/nv-optee/optee/optee_os/lib/libutils/ext/trace.c:159
    1460:	91000753 	add	x19, x26, #0x1
    1464:	52800400 	mov	w0, #0x20                  	// #32
    1468:	383a6a80 	strb	w0, [x20, x26]
/home/ssysarch/Desktop/nick/jetpack_5/Jetson_Linux_R35.4.1_aarch64/Linux_for_Tegra/sources/tegra/optee-src/nv-optee/optee/optee_os/lib/libutils/ext/trace.c:160
    146c:	38336a9f 	strb	wzr, [x20, x19]
    1470:	17ffffcd 	b	13a4 <trace_vprintf+0x128>
/home/ssysarch/Desktop/nick/jetpack_5/Jetson_Linux_R35.4.1_aarch64/Linux_for_Tegra/sources/tegra/optee-src/nv-optee/optee/optee_os/lib/libutils/ext/trace.c:172
    1474:	d1000673 	sub	x19, x19, #0x1
    1478:	17ffffde 	b	13f0 <trace_vprintf+0x174>
/home/ssysarch/Desktop/nick/jetpack_5/Jetson_Linux_R35.4.1_aarch64/Linux_for_Tegra/sources/tegra/optee-src/nv-optee/optee/optee_os/lib/libutils/ext/trace.c:177
    147c:	a94153f3 	ldp	x19, x20, [sp, #16]
    1480:	a9425bf5 	ldp	x21, x22, [sp, #32]
    1484:	a94363f7 	ldp	x23, x24, [sp, #48]
    1488:	a9446bf9 	ldp	x25, x26, [sp, #64]
    148c:	a94573fb 	ldp	x27, x28, [sp, #80]
    1490:	a8d97bfd 	ldp	x29, x30, [sp], #400
    1494:	d65f03c0 	ret

0000000000001498 <trace_printf>:
trace_printf():
/home/ssysarch/Desktop/nick/jetpack_5/Jetson_Linux_R35.4.1_aarch64/Linux_for_Tegra/sources/tegra/optee-src/nv-optee/optee/optee_os/lib/libutils/ext/trace.c:104
    1498:	a9ad7bfd 	stp	x29, x30, [sp, #-304]!
    149c:	910003fd 	mov	x29, sp
    14a0:	a90153f3 	stp	x19, x20, [sp, #16]
    14a4:	b00000d3 	adrp	x19, 1a000 <_DYNAMIC>
    14a8:	aa0003f4 	mov	x20, x0
    14ac:	f9409a73 	ldr	x19, [x19, #304]
    14b0:	3d8027e0 	str	q0, [sp, #144]
    14b4:	3d802be1 	str	q1, [sp, #160]
    14b8:	3d802fe2 	str	q2, [sp, #176]
    14bc:	3d8033e3 	str	q3, [sp, #192]
    14c0:	3d8037e4 	str	q4, [sp, #208]
    14c4:	3d803be5 	str	q5, [sp, #224]
    14c8:	3d803fe6 	str	q6, [sp, #240]
    14cc:	3d8043e7 	str	q7, [sp, #256]
    14d0:	a9119be5 	stp	x5, x6, [sp, #280]
/home/ssysarch/Desktop/nick/jetpack_5/Jetson_Linux_R35.4.1_aarch64/Linux_for_Tegra/sources/tegra/optee-src/nv-optee/optee/optee_os/lib/libutils/ext/trace.c:108
    14d4:	910103e5 	add	x5, sp, #0x40
/home/ssysarch/Desktop/nick/jetpack_5/Jetson_Linux_R35.4.1_aarch64/Linux_for_Tegra/sources/tegra/optee-src/nv-optee/optee/optee_os/lib/libutils/ext/trace.c:104
    14d8:	f90097e7 	str	x7, [sp, #296]
    14dc:	a9025bf5 	stp	x21, x22, [sp, #32]
    14e0:	2a0103f5 	mov	w21, w1
    14e4:	f9400260 	ldr	x0, [x19]
    14e8:	f90047e0 	str	x0, [sp, #136]
    14ec:	d2800000 	mov	x0, #0x0                   	// #0
/home/ssysarch/Desktop/nick/jetpack_5/Jetson_Linux_R35.4.1_aarch64/Linux_for_Tegra/sources/tegra/optee-src/nv-optee/optee/optee_os/lib/libutils/ext/trace.c:107
    14f0:	9104c3e0 	add	x0, sp, #0x130
    14f4:	a90683e0 	stp	x0, x0, [sp, #104]
    14f8:	910443e0 	add	x0, sp, #0x110
    14fc:	f9003fe0 	str	x0, [sp, #120]
    1500:	128002e0 	mov	w0, #0xffffffe8            	// #-24
    1504:	b90083e0 	str	w0, [sp, #128]
    1508:	12800fe0 	mov	w0, #0xffffff80            	// #-128
/home/ssysarch/Desktop/nick/jetpack_5/Jetson_Linux_R35.4.1_aarch64/Linux_for_Tegra/sources/tegra/optee-src/nv-optee/optee/optee_os/lib/libutils/ext/trace.c:104
    150c:	2a0203f6 	mov	w22, w2
/home/ssysarch/Desktop/nick/jetpack_5/Jetson_Linux_R35.4.1_aarch64/Linux_for_Tegra/sources/tegra/optee-src/nv-optee/optee/optee_os/lib/libutils/ext/trace.c:108
    1510:	9101a3e1 	add	x1, sp, #0x68
    1514:	d2800402 	mov	x2, #0x20                  	// #32
/home/ssysarch/Desktop/nick/jetpack_5/Jetson_Linux_R35.4.1_aarch64/Linux_for_Tegra/sources/tegra/optee-src/nv-optee/optee/optee_os/lib/libutils/ext/trace.c:104
    1518:	a90363f7 	stp	x23, x24, [sp, #48]
    151c:	12001c78 	and	w24, w3, #0xff
    1520:	aa0403f7 	mov	x23, x4
/home/ssysarch/Desktop/nick/jetpack_5/Jetson_Linux_R35.4.1_aarch64/Linux_for_Tegra/sources/tegra/optee-src/nv-optee/optee/optee_os/lib/libutils/ext/trace.c:107
    1524:	b90087e0 	str	w0, [sp, #132]
/home/ssysarch/Desktop/nick/jetpack_5/Jetson_Linux_R35.4.1_aarch64/Linux_for_Tegra/sources/tegra/optee-src/nv-optee/optee/optee_os/lib/libutils/ext/trace.c:108
    1528:	aa0503e0 	mov	x0, x5
    152c:	97fffabd 	bl	20 <memcpy>
    1530:	2a1503e1 	mov	w1, w21
    1534:	aa0003e5 	mov	x5, x0
    1538:	aa1703e4 	mov	x4, x23
    153c:	aa1403e0 	mov	x0, x20
    1540:	2a1803e3 	mov	w3, w24
    1544:	2a1603e2 	mov	w2, w22
    1548:	97ffff4d 	bl	127c <trace_vprintf>
/home/ssysarch/Desktop/nick/jetpack_5/Jetson_Linux_R35.4.1_aarch64/Linux_for_Tegra/sources/tegra/optee-src/nv-optee/optee/optee_os/lib/libutils/ext/trace.c:110
    154c:	f94047e0 	ldr	x0, [sp, #136]
    1550:	f9400261 	ldr	x1, [x19]
    1554:	eb010000 	subs	x0, x0, x1
    1558:	d2800001 	mov	x1, #0x0                   	// #0
    155c:	54000040 	b.eq	1564 <trace_printf+0xcc>  // b.none
    1560:	97fffeed 	bl	1114 <__stack_chk_fail>
    1564:	a94153f3 	ldp	x19, x20, [sp, #16]
    1568:	a9425bf5 	ldp	x21, x22, [sp, #32]
    156c:	a94363f7 	ldp	x23, x24, [sp, #48]
    1570:	a8d37bfd 	ldp	x29, x30, [sp], #304
    1574:	d65f03c0 	ret

0000000000001578 <dhex_dump>:
dhex_dump():
/home/ssysarch/Desktop/nick/jetpack_5/Jetson_Linux_R35.4.1_aarch64/Linux_for_Tegra/sources/tegra/optee-src/nv-optee/optee/optee_os/lib/libutils/ext/trace.c:236
    1578:	a9a97bfd 	stp	x29, x30, [sp, #-368]!
    157c:	b00000c5 	adrp	x5, 1a000 <_DYNAMIC>
    1580:	910003fd 	mov	x29, sp
    1584:	a9025bf5 	stp	x21, x22, [sp, #32]
    1588:	aa0003f5 	mov	x21, x0
    158c:	2a0103f6 	mov	w22, w1
    1590:	f94098a0 	ldr	x0, [x5, #304]
    1594:	a90153f3 	stp	x19, x20, [sp, #16]
/home/ssysarch/Desktop/nick/jetpack_5/Jetson_Linux_R35.4.1_aarch64/Linux_for_Tegra/sources/tegra/optee-src/nv-optee/optee/optee_os/lib/libutils/ext/trace.c:242
    1598:	f940a8a5 	ldr	x5, [x5, #336]
/home/ssysarch/Desktop/nick/jetpack_5/Jetson_Linux_R35.4.1_aarch64/Linux_for_Tegra/sources/tegra/optee-src/nv-optee/optee/optee_os/lib/libutils/ext/trace.c:236
    159c:	f9400001 	ldr	x1, [x0]
    15a0:	f900b7e1 	str	x1, [sp, #360]
    15a4:	d2800001 	mov	x1, #0x0                   	// #0
    15a8:	a90363f7 	stp	x23, x24, [sp, #48]
/home/ssysarch/Desktop/nick/jetpack_5/Jetson_Linux_R35.4.1_aarch64/Linux_for_Tegra/sources/tegra/optee-src/nv-optee/optee/optee_os/lib/libutils/ext/trace.c:242
    15ac:	b94000a0 	ldr	w0, [x5]
/home/ssysarch/Desktop/nick/jetpack_5/Jetson_Linux_R35.4.1_aarch64/Linux_for_Tegra/sources/tegra/optee-src/nv-optee/optee/optee_os/lib/libutils/ext/trace.c:236
    15b0:	a9046bf9 	stp	x25, x26, [sp, #64]
/home/ssysarch/Desktop/nick/jetpack_5/Jetson_Linux_R35.4.1_aarch64/Linux_for_Tegra/sources/tegra/optee-src/nv-optee/optee/optee_os/lib/libutils/ext/trace.c:242
    15b4:	6b02001f 	cmp	w0, w2
/home/ssysarch/Desktop/nick/jetpack_5/Jetson_Linux_R35.4.1_aarch64/Linux_for_Tegra/sources/tegra/optee-src/nv-optee/optee/optee_os/lib/libutils/ext/trace.c:236
    15b8:	a90573fb 	stp	x27, x28, [sp, #80]
/home/ssysarch/Desktop/nick/jetpack_5/Jetson_Linux_R35.4.1_aarch64/Linux_for_Tegra/sources/tegra/optee-src/nv-optee/optee/optee_os/lib/libutils/ext/trace.c:242
    15bc:	5400030b 	b.lt	161c <dhex_dump+0xa4>  // b.tstop
/home/ssysarch/Desktop/nick/jetpack_5/Jetson_Linux_R35.4.1_aarch64/Linux_for_Tegra/sources/tegra/optee-src/nv-optee/optee/optee_os/lib/libutils/ext/trace.c:246
    15c0:	f00000ba 	adrp	x26, 18000 <__func__.4689+0x36>
    15c4:	9103ef5a 	add	x26, x26, #0xfb
/home/ssysarch/Desktop/nick/jetpack_5/Jetson_Linux_R35.4.1_aarch64/Linux_for_Tegra/sources/tegra/optee-src/nv-optee/optee/optee_os/lib/libutils/ext/trace.c:251
    15c8:	f00000bb 	adrp	x27, 18000 <__func__.4689+0x36>
    15cc:	9103d77b 	add	x27, x27, #0xf5
    15d0:	2a0203f4 	mov	w20, w2
    15d4:	aa0303f8 	mov	x24, x3
    15d8:	2a0403f9 	mov	w25, w4
/home/ssysarch/Desktop/nick/jetpack_5/Jetson_Linux_R35.4.1_aarch64/Linux_for_Tegra/sources/tegra/optee-src/nv-optee/optee/optee_os/lib/libutils/ext/trace.c:243
    15dc:	910183f7 	add	x23, sp, #0x60
/home/ssysarch/Desktop/nick/jetpack_5/Jetson_Linux_R35.4.1_aarch64/Linux_for_Tegra/sources/tegra/optee-src/nv-optee/optee/optee_os/lib/libutils/ext/trace.c:244
    15e0:	d2800013 	mov	x19, #0x0                   	// #0
/home/ssysarch/Desktop/nick/jetpack_5/Jetson_Linux_R35.4.1_aarch64/Linux_for_Tegra/sources/tegra/optee-src/nv-optee/optee/optee_os/lib/libutils/ext/trace.c:243
    15e4:	f900b3ff 	str	xzr, [sp, #352]
/home/ssysarch/Desktop/nick/jetpack_5/Jetson_Linux_R35.4.1_aarch64/Linux_for_Tegra/sources/tegra/optee-src/nv-optee/optee/optee_os/lib/libutils/ext/trace.c:244
    15e8:	2a1303fc 	mov	w28, w19
/home/ssysarch/Desktop/nick/jetpack_5/Jetson_Linux_R35.4.1_aarch64/Linux_for_Tegra/sources/tegra/optee-src/nv-optee/optee/optee_os/lib/libutils/ext/trace.c:244 (discriminator 1)
    15ec:	6b13033f 	cmp	w25, w19
    15f0:	5400026c 	b.gt	163c <dhex_dump+0xc4>
/home/ssysarch/Desktop/nick/jetpack_5/Jetson_Linux_R35.4.1_aarch64/Linux_for_Tegra/sources/tegra/optee-src/nv-optee/optee/optee_os/lib/libutils/ext/trace.c:264
    15f4:	f940b3e0 	ldr	x0, [sp, #352]
    15f8:	b4000120 	cbz	x0, 161c <dhex_dump+0xa4>
/home/ssysarch/Desktop/nick/jetpack_5/Jetson_Linux_R35.4.1_aarch64/Linux_for_Tegra/sources/tegra/optee-src/nv-optee/optee/optee_os/lib/libutils/ext/trace.c:266
    15fc:	f00000a4 	adrp	x4, 18000 <__func__.4689+0x36>
    1600:	91040c84 	add	x4, x4, #0x103
    1604:	910183e5 	add	x5, sp, #0x60
    1608:	2a1403e2 	mov	w2, w20
    160c:	2a1603e1 	mov	w1, w22
    1610:	aa1503e0 	mov	x0, x21
    1614:	52800023 	mov	w3, #0x1                   	// #1
    1618:	97ffffa0 	bl	1498 <trace_printf>
/home/ssysarch/Desktop/nick/jetpack_5/Jetson_Linux_R35.4.1_aarch64/Linux_for_Tegra/sources/tegra/optee-src/nv-optee/optee/optee_os/lib/libutils/ext/trace.c:274
    161c:	b00000c5 	adrp	x5, 1a000 <_DYNAMIC>
    1620:	f94098a5 	ldr	x5, [x5, #304]
    1624:	f940b7e0 	ldr	x0, [sp, #360]
    1628:	f94000a1 	ldr	x1, [x5]
    162c:	eb010000 	subs	x0, x0, x1
    1630:	d2800001 	mov	x1, #0x0                   	// #0
    1634:	54000600 	b.eq	16f4 <dhex_dump+0x17c>  // b.none
    1638:	97fffeb7 	bl	1114 <__stack_chk_fail>
/home/ssysarch/Desktop/nick/jetpack_5/Jetson_Linux_R35.4.1_aarch64/Linux_for_Tegra/sources/tegra/optee-src/nv-optee/optee/optee_os/lib/libutils/ext/trace.c:245
    163c:	f2400e7f 	tst	x19, #0xf
    1640:	54000200 	b.eq	1680 <dhex_dump+0x108>  // b.none
/home/ssysarch/Desktop/nick/jetpack_5/Jetson_Linux_R35.4.1_aarch64/Linux_for_Tegra/sources/tegra/optee-src/nv-optee/optee/optee_os/lib/libutils/ext/trace.c:251
    1644:	38736b02 	ldrb	w2, [x24, x19]
    1648:	aa1b03e1 	mov	x1, x27
    164c:	aa1703e0 	mov	x0, x23
    1650:	97fffebd 	bl	1144 <append>
/home/ssysarch/Desktop/nick/jetpack_5/Jetson_Linux_R35.4.1_aarch64/Linux_for_Tegra/sources/tegra/optee-src/nv-optee/optee/optee_os/lib/libutils/ext/trace.c:252
    1654:	35000240 	cbnz	w0, 169c <dhex_dump+0x124>
/home/ssysarch/Desktop/nick/jetpack_5/Jetson_Linux_R35.4.1_aarch64/Linux_for_Tegra/sources/tegra/optee-src/nv-optee/optee/optee_os/lib/libutils/ext/trace.c:273
    1658:	f00000a0 	adrp	x0, 18000 <__func__.4689+0x36>
    165c:	91045400 	add	x0, x0, #0x115
    1660:	91001400 	add	x0, x0, #0x5
    1664:	f00000a4 	adrp	x4, 18000 <__func__.4689+0x36>
    1668:	91041884 	add	x4, x4, #0x106
    166c:	52800023 	mov	w3, #0x1                   	// #1
    1670:	52800062 	mov	w2, #0x3                   	// #3
    1674:	52802221 	mov	w1, #0x111                 	// #273
    1678:	97ffff88 	bl	1498 <trace_printf>
    167c:	17ffffe8 	b	161c <dhex_dump+0xa4>
/home/ssysarch/Desktop/nick/jetpack_5/Jetson_Linux_R35.4.1_aarch64/Linux_for_Tegra/sources/tegra/optee-src/nv-optee/optee/optee_os/lib/libutils/ext/trace.c:246
    1680:	8b130303 	add	x3, x24, x19
    1684:	aa1a03e1 	mov	x1, x26
    1688:	aa1703e0 	mov	x0, x23
    168c:	52800202 	mov	w2, #0x10                  	// #16
    1690:	97fffead 	bl	1144 <append>
/home/ssysarch/Desktop/nick/jetpack_5/Jetson_Linux_R35.4.1_aarch64/Linux_for_Tegra/sources/tegra/optee-src/nv-optee/optee/optee_os/lib/libutils/ext/trace.c:248
    1694:	35fffd80 	cbnz	w0, 1644 <dhex_dump+0xcc>
    1698:	17fffff0 	b	1658 <dhex_dump+0xe0>
/home/ssysarch/Desktop/nick/jetpack_5/Jetson_Linux_R35.4.1_aarch64/Linux_for_Tegra/sources/tegra/optee-src/nv-optee/optee/optee_os/lib/libutils/ext/trace.c:254
    169c:	12000f80 	and	w0, w28, #0xf
    16a0:	71001c1f 	cmp	w0, #0x7
    16a4:	54000101 	b.ne	16c4 <dhex_dump+0x14c>  // b.any
/home/ssysarch/Desktop/nick/jetpack_5/Jetson_Linux_R35.4.1_aarch64/Linux_for_Tegra/sources/tegra/optee-src/nv-optee/optee/optee_os/lib/libutils/ext/trace.c:255
    16a8:	f00000a1 	adrp	x1, 18000 <__func__.4689+0x36>
    16ac:	91040421 	add	x1, x1, #0x101
    16b0:	aa1703e0 	mov	x0, x23
    16b4:	97fffea4 	bl	1144 <append>
/home/ssysarch/Desktop/nick/jetpack_5/Jetson_Linux_R35.4.1_aarch64/Linux_for_Tegra/sources/tegra/optee-src/nv-optee/optee/optee_os/lib/libutils/ext/trace.c:256
    16b8:	34fffd00 	cbz	w0, 1658 <dhex_dump+0xe0>
/home/ssysarch/Desktop/nick/jetpack_5/Jetson_Linux_R35.4.1_aarch64/Linux_for_Tegra/sources/tegra/optee-src/nv-optee/optee/optee_os/lib/libutils/ext/trace.c:244 (discriminator 2)
    16bc:	91000673 	add	x19, x19, #0x1
    16c0:	17ffffca 	b	15e8 <dhex_dump+0x70>
/home/ssysarch/Desktop/nick/jetpack_5/Jetson_Linux_R35.4.1_aarch64/Linux_for_Tegra/sources/tegra/optee-src/nv-optee/optee/optee_os/lib/libutils/ext/trace.c:258
    16c4:	71003c1f 	cmp	w0, #0xf
    16c8:	54ffffa1 	b.ne	16bc <dhex_dump+0x144>  // b.any
/home/ssysarch/Desktop/nick/jetpack_5/Jetson_Linux_R35.4.1_aarch64/Linux_for_Tegra/sources/tegra/optee-src/nv-optee/optee/optee_os/lib/libutils/ext/trace.c:259
    16cc:	aa1703e5 	mov	x5, x23
    16d0:	2a1403e2 	mov	w2, w20
    16d4:	2a1603e1 	mov	w1, w22
    16d8:	aa1503e0 	mov	x0, x21
    16dc:	f00000a4 	adrp	x4, 18000 <__func__.4689+0x36>
    16e0:	91040c84 	add	x4, x4, #0x103
    16e4:	52800023 	mov	w3, #0x1                   	// #1
    16e8:	97ffff6c 	bl	1498 <trace_printf>
/home/ssysarch/Desktop/nick/jetpack_5/Jetson_Linux_R35.4.1_aarch64/Linux_for_Tegra/sources/tegra/optee-src/nv-optee/optee/optee_os/lib/libutils/ext/trace.c:261
    16ec:	f900b3ff 	str	xzr, [sp, #352]
    16f0:	17fffff3 	b	16bc <dhex_dump+0x144>
/home/ssysarch/Desktop/nick/jetpack_5/Jetson_Linux_R35.4.1_aarch64/Linux_for_Tegra/sources/tegra/optee-src/nv-optee/optee/optee_os/lib/libutils/ext/trace.c:274
    16f4:	a94153f3 	ldp	x19, x20, [sp, #16]
    16f8:	a9425bf5 	ldp	x21, x22, [sp, #32]
    16fc:	a94363f7 	ldp	x23, x24, [sp, #48]
    1700:	a9446bf9 	ldp	x25, x26, [sp, #64]
    1704:	a94573fb 	ldp	x27, x28, [sp, #80]
    1708:	a8d77bfd 	ldp	x29, x30, [sp], #368
    170c:	d65f03c0 	ret

0000000000001710 <__vsnprintf>:
__vsnprintf():
/home/ssysarch/Desktop/nick/jetpack_5/Jetson_Linux_R35.4.1_aarch64/Linux_for_Tegra/sources/tegra/optee-src/nv-optee/optee/optee_os/lib/libutils/ext/snprintk.c:138
    1710:	a9b97bfd 	stp	x29, x30, [sp, #-112]!
    1714:	b00000c5 	adrp	x5, 1a000 <_DYNAMIC>
    1718:	910003fd 	mov	x29, sp
    171c:	f94098a5 	ldr	x5, [x5, #304]
    1720:	a90153f3 	stp	x19, x20, [sp, #16]
    1724:	aa0003f3 	mov	x19, x0
    1728:	aa0103f4 	mov	x20, x1
    172c:	f94000a0 	ldr	x0, [x5]
    1730:	f90037e0 	str	x0, [sp, #104]
    1734:	d2800000 	mov	x0, #0x0                   	// #0
    1738:	aa0303e1 	mov	x1, x3
/home/ssysarch/Desktop/nick/jetpack_5/Jetson_Linux_R35.4.1_aarch64/Linux_for_Tegra/sources/tegra/optee-src/nv-optee/optee/optee_os/lib/libutils/ext/snprintk.c:143
    173c:	910103e0 	add	x0, sp, #0x40
/home/ssysarch/Desktop/nick/jetpack_5/Jetson_Linux_R35.4.1_aarch64/Linux_for_Tegra/sources/tegra/optee-src/nv-optee/optee/optee_os/lib/libutils/ext/snprintk.c:138
    1740:	a9025bf5 	stp	x21, x22, [sp, #32]
    1744:	aa0203f5 	mov	x21, x2
/home/ssysarch/Desktop/nick/jetpack_5/Jetson_Linux_R35.4.1_aarch64/Linux_for_Tegra/sources/tegra/optee-src/nv-optee/optee/optee_os/lib/libutils/ext/snprintk.c:142
    1748:	8b140276 	add	x22, x19, x20
/home/ssysarch/Desktop/nick/jetpack_5/Jetson_Linux_R35.4.1_aarch64/Linux_for_Tegra/sources/tegra/optee-src/nv-optee/optee/optee_os/lib/libutils/ext/snprintk.c:143
    174c:	d2800402 	mov	x2, #0x20                  	// #32
/home/ssysarch/Desktop/nick/jetpack_5/Jetson_Linux_R35.4.1_aarch64/Linux_for_Tegra/sources/tegra/optee-src/nv-optee/optee/optee_os/lib/libutils/ext/snprintk.c:138
    1750:	f9001bf7 	str	x23, [sp, #48]
    1754:	12001c97 	and	w23, w4, #0xff
/home/ssysarch/Desktop/nick/jetpack_5/Jetson_Linux_R35.4.1_aarch64/Linux_for_Tegra/sources/tegra/optee-src/nv-optee/optee/optee_os/lib/libutils/ext/snprintk.c:142
    1758:	f90033f6 	str	x22, [sp, #96]
/home/ssysarch/Desktop/nick/jetpack_5/Jetson_Linux_R35.4.1_aarch64/Linux_for_Tegra/sources/tegra/optee-src/nv-optee/optee/optee_os/lib/libutils/ext/snprintk.c:143
    175c:	97fffa31 	bl	20 <memcpy>
    1760:	aa0003e3 	mov	x3, x0
    1764:	2a1703e4 	mov	w4, w23
    1768:	aa1303e2 	mov	x2, x19
    176c:	910183e1 	add	x1, sp, #0x60
    1770:	aa1503e0 	mov	x0, x21
    1774:	94000060 	bl	18f4 <kprintf.constprop.0>
/home/ssysarch/Desktop/nick/jetpack_5/Jetson_Linux_R35.4.1_aarch64/Linux_for_Tegra/sources/tegra/optee-src/nv-optee/optee/optee_os/lib/libutils/ext/snprintk.c:144
    1778:	f100027f 	cmp	x19, #0x0
    177c:	fa401a84 	ccmp	x20, #0x0, #0x4, ne  // ne = any
    1780:	540000a0 	b.eq	1794 <__vsnprintf+0x84>  // b.none
/home/ssysarch/Desktop/nick/jetpack_5/Jetson_Linux_R35.4.1_aarch64/Linux_for_Tegra/sources/tegra/optee-src/nv-optee/optee/optee_os/lib/libutils/ext/snprintk.c:146
    1784:	93407c01 	sxtw	x1, w0
    1788:	eb20c29f 	cmp	x20, w0, sxtw
    178c:	54000148 	b.hi	17b4 <__vsnprintf+0xa4>  // b.pmore
/home/ssysarch/Desktop/nick/jetpack_5/Jetson_Linux_R35.4.1_aarch64/Linux_for_Tegra/sources/tegra/optee-src/nv-optee/optee/optee_os/lib/libutils/ext/snprintk.c:147
    1790:	381ff2df 	sturb	wzr, [x22, #-1]
/home/ssysarch/Desktop/nick/jetpack_5/Jetson_Linux_R35.4.1_aarch64/Linux_for_Tegra/sources/tegra/optee-src/nv-optee/optee/optee_os/lib/libutils/ext/snprintk.c:152
    1794:	b00000c5 	adrp	x5, 1a000 <_DYNAMIC>
    1798:	f94098a5 	ldr	x5, [x5, #304]
    179c:	f94037e1 	ldr	x1, [sp, #104]
    17a0:	f94000a2 	ldr	x2, [x5]
    17a4:	eb020021 	subs	x1, x1, x2
    17a8:	d2800002 	mov	x2, #0x0                   	// #0
    17ac:	54000080 	b.eq	17bc <__vsnprintf+0xac>  // b.none
    17b0:	97fffe59 	bl	1114 <__stack_chk_fail>
/home/ssysarch/Desktop/nick/jetpack_5/Jetson_Linux_R35.4.1_aarch64/Linux_for_Tegra/sources/tegra/optee-src/nv-optee/optee/optee_os/lib/libutils/ext/snprintk.c:149
    17b4:	38216a7f 	strb	wzr, [x19, x1]
/home/ssysarch/Desktop/nick/jetpack_5/Jetson_Linux_R35.4.1_aarch64/Linux_for_Tegra/sources/tegra/optee-src/nv-optee/optee/optee_os/lib/libutils/ext/snprintk.c:151
    17b8:	17fffff7 	b	1794 <__vsnprintf+0x84>
/home/ssysarch/Desktop/nick/jetpack_5/Jetson_Linux_R35.4.1_aarch64/Linux_for_Tegra/sources/tegra/optee-src/nv-optee/optee/optee_os/lib/libutils/ext/snprintk.c:152
    17bc:	a94153f3 	ldp	x19, x20, [sp, #16]
    17c0:	a9425bf5 	ldp	x21, x22, [sp, #32]
    17c4:	f9401bf7 	ldr	x23, [sp, #48]
    17c8:	a8c77bfd 	ldp	x29, x30, [sp], #112
    17cc:	d65f03c0 	ret

00000000000017d0 <vsnprintk>:
vsnprintk():
/home/ssysarch/Desktop/nick/jetpack_5/Jetson_Linux_R35.4.1_aarch64/Linux_for_Tegra/sources/tegra/optee-src/nv-optee/optee/optee_os/lib/libutils/ext/snprintk.c:130
    17d0:	a9bb7bfd 	stp	x29, x30, [sp, #-80]!
/home/ssysarch/Desktop/nick/jetpack_5/Jetson_Linux_R35.4.1_aarch64/Linux_for_Tegra/sources/tegra/optee-src/nv-optee/optee/optee_os/lib/libutils/ext/snprintk.c:131
    17d4:	9100c3e4 	add	x4, sp, #0x30
/home/ssysarch/Desktop/nick/jetpack_5/Jetson_Linux_R35.4.1_aarch64/Linux_for_Tegra/sources/tegra/optee-src/nv-optee/optee/optee_os/lib/libutils/ext/snprintk.c:130
    17d8:	910003fd 	mov	x29, sp
    17dc:	a90153f3 	stp	x19, x20, [sp, #16]
    17e0:	aa0003f3 	mov	x19, x0
    17e4:	aa0103f4 	mov	x20, x1
/home/ssysarch/Desktop/nick/jetpack_5/Jetson_Linux_R35.4.1_aarch64/Linux_for_Tegra/sources/tegra/optee-src/nv-optee/optee/optee_os/lib/libutils/ext/snprintk.c:131
    17e8:	aa0403e0 	mov	x0, x4
/home/ssysarch/Desktop/nick/jetpack_5/Jetson_Linux_R35.4.1_aarch64/Linux_for_Tegra/sources/tegra/optee-src/nv-optee/optee/optee_os/lib/libutils/ext/snprintk.c:130
    17ec:	aa0303e1 	mov	x1, x3
    17f0:	f90013f5 	str	x21, [sp, #32]
    17f4:	aa0203f5 	mov	x21, x2
/home/ssysarch/Desktop/nick/jetpack_5/Jetson_Linux_R35.4.1_aarch64/Linux_for_Tegra/sources/tegra/optee-src/nv-optee/optee/optee_os/lib/libutils/ext/snprintk.c:131
    17f8:	d2800402 	mov	x2, #0x20                  	// #32
    17fc:	97fffa09 	bl	20 <memcpy>
    1800:	aa1503e2 	mov	x2, x21
    1804:	aa0003e3 	mov	x3, x0
    1808:	aa1403e1 	mov	x1, x20
    180c:	aa1303e0 	mov	x0, x19
    1810:	52800024 	mov	w4, #0x1                   	// #1
    1814:	97ffffbf 	bl	1710 <__vsnprintf>
/home/ssysarch/Desktop/nick/jetpack_5/Jetson_Linux_R35.4.1_aarch64/Linux_for_Tegra/sources/tegra/optee-src/nv-optee/optee/optee_os/lib/libutils/ext/snprintk.c:132
    1818:	a94153f3 	ldp	x19, x20, [sp, #16]
    181c:	f94013f5 	ldr	x21, [sp, #32]
    1820:	a8c57bfd 	ldp	x29, x30, [sp], #80
    1824:	d65f03c0 	ret

0000000000001828 <snprintk>:
snprintk():
/home/ssysarch/Desktop/nick/jetpack_5/Jetson_Linux_R35.4.1_aarch64/Linux_for_Tegra/sources/tegra/optee-src/nv-optee/optee/optee_os/lib/libutils/ext/snprintk.c:113
    1828:	a9ad7bfd 	stp	x29, x30, [sp, #-304]!
    182c:	910003fd 	mov	x29, sp
    1830:	a90153f3 	stp	x19, x20, [sp, #16]
    1834:	b00000d3 	adrp	x19, 1a000 <_DYNAMIC>
    1838:	aa0003f4 	mov	x20, x0
    183c:	f9409a73 	ldr	x19, [x19, #304]
    1840:	3d8023e0 	str	q0, [sp, #128]
    1844:	3d8027e1 	str	q1, [sp, #144]
    1848:	3d802be2 	str	q2, [sp, #160]
    184c:	3d802fe3 	str	q3, [sp, #176]
    1850:	3d8033e4 	str	q4, [sp, #192]
    1854:	3d8037e5 	str	q5, [sp, #208]
    1858:	3d803be6 	str	q6, [sp, #224]
    185c:	3d803fe7 	str	q7, [sp, #240]
    1860:	a91093e3 	stp	x3, x4, [sp, #264]
/home/ssysarch/Desktop/nick/jetpack_5/Jetson_Linux_R35.4.1_aarch64/Linux_for_Tegra/sources/tegra/optee-src/nv-optee/optee/optee_os/lib/libutils/ext/snprintk.c:118
    1864:	9100c3e3 	add	x3, sp, #0x30
/home/ssysarch/Desktop/nick/jetpack_5/Jetson_Linux_R35.4.1_aarch64/Linux_for_Tegra/sources/tegra/optee-src/nv-optee/optee/optee_os/lib/libutils/ext/snprintk.c:113
    1868:	a9119be5 	stp	x5, x6, [sp, #280]
    186c:	f90097e7 	str	x7, [sp, #296]
    1870:	a9025bf5 	stp	x21, x22, [sp, #32]
    1874:	aa0103f5 	mov	x21, x1
    1878:	f9400260 	ldr	x0, [x19]
    187c:	f9003fe0 	str	x0, [sp, #120]
    1880:	d2800000 	mov	x0, #0x0                   	// #0
/home/ssysarch/Desktop/nick/jetpack_5/Jetson_Linux_R35.4.1_aarch64/Linux_for_Tegra/sources/tegra/optee-src/nv-optee/optee/optee_os/lib/libutils/ext/snprintk.c:117
    1884:	9104c3e0 	add	x0, sp, #0x130
    1888:	a90583e0 	stp	x0, x0, [sp, #88]
    188c:	910403e0 	add	x0, sp, #0x100
    1890:	f90037e0 	str	x0, [sp, #104]
    1894:	128004e0 	mov	w0, #0xffffffd8            	// #-40
    1898:	b90073e0 	str	w0, [sp, #112]
    189c:	12800fe0 	mov	w0, #0xffffff80            	// #-128
/home/ssysarch/Desktop/nick/jetpack_5/Jetson_Linux_R35.4.1_aarch64/Linux_for_Tegra/sources/tegra/optee-src/nv-optee/optee/optee_os/lib/libutils/ext/snprintk.c:113
    18a0:	aa0203f6 	mov	x22, x2
/home/ssysarch/Desktop/nick/jetpack_5/Jetson_Linux_R35.4.1_aarch64/Linux_for_Tegra/sources/tegra/optee-src/nv-optee/optee/optee_os/lib/libutils/ext/snprintk.c:118
    18a4:	910163e1 	add	x1, sp, #0x58
    18a8:	d2800402 	mov	x2, #0x20                  	// #32
/home/ssysarch/Desktop/nick/jetpack_5/Jetson_Linux_R35.4.1_aarch64/Linux_for_Tegra/sources/tegra/optee-src/nv-optee/optee/optee_os/lib/libutils/ext/snprintk.c:117
    18ac:	b90077e0 	str	w0, [sp, #116]
/home/ssysarch/Desktop/nick/jetpack_5/Jetson_Linux_R35.4.1_aarch64/Linux_for_Tegra/sources/tegra/optee-src/nv-optee/optee/optee_os/lib/libutils/ext/snprintk.c:118
    18b0:	aa0303e0 	mov	x0, x3
    18b4:	97fff9db 	bl	20 <memcpy>
    18b8:	aa1603e2 	mov	x2, x22
    18bc:	aa0003e3 	mov	x3, x0
    18c0:	aa1503e1 	mov	x1, x21
    18c4:	aa1403e0 	mov	x0, x20
    18c8:	97ffffc2 	bl	17d0 <vsnprintk>
/home/ssysarch/Desktop/nick/jetpack_5/Jetson_Linux_R35.4.1_aarch64/Linux_for_Tegra/sources/tegra/optee-src/nv-optee/optee/optee_os/lib/libutils/ext/snprintk.c:122
    18cc:	f9403fe1 	ldr	x1, [sp, #120]
    18d0:	f9400262 	ldr	x2, [x19]
    18d4:	eb020021 	subs	x1, x1, x2
    18d8:	d2800002 	mov	x2, #0x0                   	// #0
    18dc:	54000040 	b.eq	18e4 <snprintk+0xbc>  // b.none
    18e0:	97fffe0d 	bl	1114 <__stack_chk_fail>
    18e4:	a94153f3 	ldp	x19, x20, [sp, #16]
    18e8:	a9425bf5 	ldp	x21, x22, [sp, #32]
    18ec:	a8d37bfd 	ldp	x29, x30, [sp], #304
    18f0:	d65f03c0 	ret

00000000000018f4 <kprintf.constprop.0>:
kprintf():
/home/ssysarch/Desktop/nick/jetpack_5/Jetson_Linux_R35.4.1_aarch64/Linux_for_Tegra/sources/tegra/optee-src/nv-optee/optee/optee_os/lib/libutils/ext/snprintk.c:242
    18f4:	d103c3ff 	sub	sp, sp, #0xf0
    18f8:	aa0103e8 	mov	x8, x1
    18fc:	a9037bfd 	stp	x29, x30, [sp, #48]
    1900:	9100c3fd 	add	x29, sp, #0x30
    1904:	a90873fb 	stp	x27, x28, [sp, #128]
    1908:	aa0003fb 	mov	x27, x0
    190c:	12001c80 	and	w0, w4, #0xff
    1910:	b900a3e0 	str	w0, [sp, #160]
    1914:	b00000c0 	adrp	x0, 1a000 <_DYNAMIC>
    1918:	a90453f3 	stp	x19, x20, [sp, #64]
    191c:	b9401874 	ldr	w20, [x3, #24]
    1920:	f9409800 	ldr	x0, [x0, #304]
    1924:	a9055bf5 	stp	x21, x22, [sp, #80]
    1928:	aa0203f6 	mov	x22, x2
    192c:	f9400001 	ldr	x1, [x0]
    1930:	f90077e1 	str	x1, [sp, #232]
    1934:	d2800001 	mov	x1, #0x0                   	// #0
    1938:	a90663f7 	stp	x23, x24, [sp, #96]
    193c:	a9076bf9 	stp	x25, x26, [sp, #112]
    1940:	a9406873 	ldp	x19, x26, [x3]
/home/ssysarch/Desktop/nick/jetpack_5/Jetson_Linux_R35.4.1_aarch64/Linux_for_Tegra/sources/tegra/optee-src/nv-optee/optee/optee_os/lib/libutils/ext/snprintk.c:264
    1944:	b40004c8 	cbz	x8, 19dc <kprintf.constprop.0+0xe8>
/home/ssysarch/Desktop/nick/jetpack_5/Jetson_Linux_R35.4.1_aarch64/Linux_for_Tegra/sources/tegra/optee-src/nv-optee/optee/optee_os/lib/libutils/ext/snprintk.c:265
    1948:	f9400118 	ldr	x24, [x8]
/home/ssysarch/Desktop/nick/jetpack_5/Jetson_Linux_R35.4.1_aarch64/Linux_for_Tegra/sources/tegra/optee-src/nv-optee/optee/optee_os/lib/libutils/ext/snprintk.c:543
    194c:	910303ec 	add	x12, sp, #0xc0
    1950:	d00000a0 	adrp	x0, 17000 <__text_end+0x3520>
    1954:	91289000 	add	x0, x0, #0xa24
/home/ssysarch/Desktop/nick/jetpack_5/Jetson_Linux_R35.4.1_aarch64/Linux_for_Tegra/sources/tegra/optee-src/nv-optee/optee/optee_os/lib/libutils/ext/snprintk.c:275
    1958:	d2800017 	mov	x23, #0x0                   	// #0
/home/ssysarch/Desktop/nick/jetpack_5/Jetson_Linux_R35.4.1_aarch64/Linux_for_Tegra/sources/tegra/optee-src/nv-optee/optee/optee_os/lib/libutils/ext/snprintk.c:273
    195c:	52800019 	mov	w25, #0x0                   	// #0
    1960:	f9004be0 	str	x0, [sp, #144]
/home/ssysarch/Desktop/nick/jetpack_5/Jetson_Linux_R35.4.1_aarch64/Linux_for_Tegra/sources/tegra/optee-src/nv-optee/optee/optee_os/lib/libutils/ext/snprintk.c:281
    1964:	39400360 	ldrb	w0, [x27]
    1968:	7100941f 	cmp	w0, #0x25
    196c:	7a401804 	ccmp	w0, #0x0, #0x4, ne  // ne = any
    1970:	540003a1 	b.ne	19e4 <kprintf.constprop.0+0xf0>  // b.any
/home/ssysarch/Desktop/nick/jetpack_5/Jetson_Linux_R35.4.1_aarch64/Linux_for_Tegra/sources/tegra/optee-src/nv-optee/optee/optee_os/lib/libutils/ext/snprintk.c:285
    1974:	34005260 	cbz	w0, 23c0 <kprintf.constprop.0+0xacc>
/home/ssysarch/Desktop/nick/jetpack_5/Jetson_Linux_R35.4.1_aarch64/Linux_for_Tegra/sources/tegra/optee-src/nv-optee/optee/optee_os/lib/libutils/ext/snprintk.c:293
    1978:	12800005 	mov	w5, #0xffffffff            	// #-1
    197c:	d00000a6 	adrp	x6, 17000 <__text_end+0x3520>
    1980:	912900c6 	add	x6, x6, #0xa40
/home/ssysarch/Desktop/nick/jetpack_5/Jetson_Linux_R35.4.1_aarch64/Linux_for_Tegra/sources/tegra/optee-src/nv-optee/optee/optee_os/lib/libutils/ext/snprintk.c:288
    1984:	9100077b 	add	x27, x27, #0x1
    1988:	2a1403e4 	mov	w4, w20
    198c:	aa1303e3 	mov	x3, x19
/home/ssysarch/Desktop/nick/jetpack_5/Jetson_Linux_R35.4.1_aarch64/Linux_for_Tegra/sources/tegra/optee-src/nv-optee/optee/optee_os/lib/libutils/ext/snprintk.c:330
    1990:	2a0503ee 	mov	w14, w5
/home/ssysarch/Desktop/nick/jetpack_5/Jetson_Linux_R35.4.1_aarch64/Linux_for_Tegra/sources/tegra/optee-src/nv-optee/optee/optee_os/lib/libutils/ext/snprintk.c:294
    1994:	52800001 	mov	w1, #0x0                   	// #0
/home/ssysarch/Desktop/nick/jetpack_5/Jetson_Linux_R35.4.1_aarch64/Linux_for_Tegra/sources/tegra/optee-src/nv-optee/optee/optee_os/lib/libutils/ext/snprintk.c:292
    1998:	5280000a 	mov	w10, #0x0                   	// #0
/home/ssysarch/Desktop/nick/jetpack_5/Jetson_Linux_R35.4.1_aarch64/Linux_for_Tegra/sources/tegra/optee-src/nv-optee/optee/optee_os/lib/libutils/ext/snprintk.c:290
    199c:	52800015 	mov	w21, #0x0                   	// #0
/home/ssysarch/Desktop/nick/jetpack_5/Jetson_Linux_R35.4.1_aarch64/Linux_for_Tegra/sources/tegra/optee-src/nv-optee/optee/optee_os/lib/libutils/ext/snprintk.c:352
    19a0:	5280014d 	mov	w13, #0xa                   	// #10
/home/ssysarch/Desktop/nick/jetpack_5/Jetson_Linux_R35.4.1_aarch64/Linux_for_Tegra/sources/tegra/optee-src/nv-optee/optee/optee_os/lib/libutils/ext/snprintk.c:305
    19a4:	5280040f 	mov	w15, #0x20                  	// #32
/home/ssysarch/Desktop/nick/jetpack_5/Jetson_Linux_R35.4.1_aarch64/Linux_for_Tegra/sources/tegra/optee-src/nv-optee/optee/optee_os/lib/libutils/ext/snprintk.c:296
    19a8:	3840177c 	ldrb	w28, [x27], #1
/home/ssysarch/Desktop/nick/jetpack_5/Jetson_Linux_R35.4.1_aarch64/Linux_for_Tegra/sources/tegra/optee-src/nv-optee/optee/optee_os/lib/libutils/ext/snprintk.c:297
    19ac:	7100e79f 	cmp	w28, #0x39
    19b0:	5400054c 	b.gt	1a58 <kprintf.constprop.0+0x164>
    19b4:	71007f9f 	cmp	w28, #0x1f
    19b8:	5400502d 	b.le	23bc <kprintf.constprop.0+0xac8>
    19bc:	51008380 	sub	w0, w28, #0x20
    19c0:	7100641f 	cmp	w0, #0x19
    19c4:	54000508 	b.hi	1a64 <kprintf.constprop.0+0x170>  // b.pmore
    19c8:	f9404be2 	ldr	x2, [sp, #144]
    19cc:	38604840 	ldrb	w0, [x2, w0, uxtw]
    19d0:	10000062 	adr	x2, 19dc <kprintf.constprop.0+0xe8>
    19d4:	8b208840 	add	x0, x2, w0, sxtb #2
    19d8:	d61f0000 	br	x0
/home/ssysarch/Desktop/nick/jetpack_5/Jetson_Linux_R35.4.1_aarch64/Linux_for_Tegra/sources/tegra/optee-src/nv-optee/optee/optee_os/lib/libutils/ext/snprintk.c:267
    19dc:	d2800018 	mov	x24, #0x0                   	// #0
    19e0:	17ffffdb 	b	194c <kprintf.constprop.0+0x58>
/home/ssysarch/Desktop/nick/jetpack_5/Jetson_Linux_R35.4.1_aarch64/Linux_for_Tegra/sources/tegra/optee-src/nv-optee/optee/optee_os/lib/libutils/ext/snprintk.c:282
    19e4:	11000739 	add	w25, w25, #0x1
/home/ssysarch/Desktop/nick/jetpack_5/Jetson_Linux_R35.4.1_aarch64/Linux_for_Tegra/sources/tegra/optee-src/nv-optee/optee/optee_os/lib/libutils/ext/snprintk.c:283
    19e8:	b40000b6 	cbz	x22, 19fc <kprintf.constprop.0+0x108>
    19ec:	f100011f 	cmp	x8, #0x0
    19f0:	fa5812c0 	ccmp	x22, x24, #0x0, ne  // ne = any
    19f4:	54000042 	b.cs	19fc <kprintf.constprop.0+0x108>  // b.hs, b.nlast
    19f8:	380016c0 	strb	w0, [x22], #1
/home/ssysarch/Desktop/nick/jetpack_5/Jetson_Linux_R35.4.1_aarch64/Linux_for_Tegra/sources/tegra/optee-src/nv-optee/optee/optee_os/lib/libutils/ext/snprintk.c:281
    19fc:	9100077b 	add	x27, x27, #0x1
    1a00:	17ffffd9 	b	1964 <kprintf.constprop.0+0x70>
/home/ssysarch/Desktop/nick/jetpack_5/Jetson_Linux_R35.4.1_aarch64/Linux_for_Tegra/sources/tegra/optee-src/nv-optee/optee/optee_os/lib/libutils/ext/snprintk.c:325
    1a04:	52800561 	mov	w1, #0x2b                  	// #43
    1a08:	17ffffe8 	b	19a8 <kprintf.constprop.0+0xb4>
    1a0c:	786058c0 	ldrh	w0, [x6, w0, uxtw #1]
    1a10:	10000062 	adr	x2, 1a1c <kprintf.constprop.0+0x128>
    1a14:	8b20a840 	add	x0, x2, w0, sxth #2
    1a18:	d61f0000 	br	x0
/home/ssysarch/Desktop/nick/jetpack_5/Jetson_Linux_R35.4.1_aarch64/Linux_for_Tegra/sources/tegra/optee-src/nv-optee/optee/optee_os/lib/libutils/ext/snprintk.c:480
    1a1c:	d00000b7 	adrp	x23, 17000 <__text_end+0x3520>
    1a20:	912abaf7 	add	x23, x23, #0xaae
    1a24:	910046f7 	add	x23, x23, #0x11
/home/ssysarch/Desktop/nick/jetpack_5/Jetson_Linux_R35.4.1_aarch64/Linux_for_Tegra/sources/tegra/optee-src/nv-optee/optee/optee_os/lib/libutils/ext/snprintk.c:481
    1a28:	36384515 	tbz	w21, #7, 22c8 <kprintf.constprop.0+0x9d4>
    1a2c:	37f84644 	tbnz	w4, #31, 22f4 <kprintf.constprop.0+0xa00>
    1a30:	91003c73 	add	x19, x3, #0xf
    1a34:	2a0403f4 	mov	w20, w4
    1a38:	927df273 	and	x19, x19, #0xfffffffffffffff8
    1a3c:	f9400062 	ldr	x2, [x3]
/home/ssysarch/Desktop/nick/jetpack_5/Jetson_Linux_R35.4.1_aarch64/Linux_for_Tegra/sources/tegra/optee-src/nv-optee/optee/optee_os/lib/libutils/ext/snprintk.c:484
    1a40:	36003475 	tbz	w21, #0, 20cc <kprintf.constprop.0+0x7d8>
    1a44:	b4003442 	cbz	x2, 20cc <kprintf.constprop.0+0x7d8>
/home/ssysarch/Desktop/nick/jetpack_5/Jetson_Linux_R35.4.1_aarch64/Linux_for_Tegra/sources/tegra/optee-src/nv-optee/optee/optee_os/lib/libutils/ext/snprintk.c:485
    1a48:	321f02b5 	orr	w21, w21, #0x2
/home/ssysarch/Desktop/nick/jetpack_5/Jetson_Linux_R35.4.1_aarch64/Linux_for_Tegra/sources/tegra/optee-src/nv-optee/optee/optee_os/lib/libutils/ext/snprintk.c:482
    1a4c:	52800040 	mov	w0, #0x2                   	// #2
/home/ssysarch/Desktop/nick/jetpack_5/Jetson_Linux_R35.4.1_aarch64/Linux_for_Tegra/sources/tegra/optee-src/nv-optee/optee/optee_os/lib/libutils/ext/snprintk.c:488
    1a50:	52800001 	mov	w1, #0x0                   	// #0
    1a54:	14000078 	b	1c34 <kprintf.constprop.0+0x340>
/home/ssysarch/Desktop/nick/jetpack_5/Jetson_Linux_R35.4.1_aarch64/Linux_for_Tegra/sources/tegra/optee-src/nv-optee/optee/optee_os/lib/libutils/ext/snprintk.c:297
    1a58:	51011380 	sub	w0, w28, #0x44
    1a5c:	7100d81f 	cmp	w0, #0x36
    1a60:	54fffd69 	b.ls	1a0c <kprintf.constprop.0+0x118>  // b.plast
/home/ssysarch/Desktop/nick/jetpack_5/Jetson_Linux_R35.4.1_aarch64/Linux_for_Tegra/sources/tegra/optee-src/nv-optee/optee/optee_os/lib/libutils/ext/snprintk.c:554
    1a64:	2a0403f4 	mov	w20, w4
    1a68:	aa0303f3 	mov	x19, x3
/home/ssysarch/Desktop/nick/jetpack_5/Jetson_Linux_R35.4.1_aarch64/Linux_for_Tegra/sources/tegra/optee-src/nv-optee/optee/optee_os/lib/libutils/ext/snprintk.c:551
    1a6c:	390303fc 	strb	w28, [sp, #192]
/home/ssysarch/Desktop/nick/jetpack_5/Jetson_Linux_R35.4.1_aarch64/Linux_for_Tegra/sources/tegra/optee-src/nv-optee/optee/optee_os/lib/libutils/ext/snprintk.c:554
    1a70:	14000058 	b	1bd0 <kprintf.constprop.0+0x2dc>
/home/ssysarch/Desktop/nick/jetpack_5/Jetson_Linux_R35.4.1_aarch64/Linux_for_Tegra/sources/tegra/optee-src/nv-optee/optee/optee_os/lib/libutils/ext/snprintk.c:305
    1a74:	7100003f 	cmp	w1, #0x0
    1a78:	1a8f1021 	csel	w1, w1, w15, ne  // ne = any
    1a7c:	17ffffcb 	b	19a8 <kprintf.constprop.0+0xb4>
/home/ssysarch/Desktop/nick/jetpack_5/Jetson_Linux_R35.4.1_aarch64/Linux_for_Tegra/sources/tegra/optee-src/nv-optee/optee/optee_os/lib/libutils/ext/snprintk.c:308
    1a80:	320002b5 	orr	w21, w21, #0x1
/home/ssysarch/Desktop/nick/jetpack_5/Jetson_Linux_R35.4.1_aarch64/Linux_for_Tegra/sources/tegra/optee-src/nv-optee/optee/optee_os/lib/libutils/ext/snprintk.c:309
    1a84:	17ffffc9 	b	19a8 <kprintf.constprop.0+0xb4>
/home/ssysarch/Desktop/nick/jetpack_5/Jetson_Linux_R35.4.1_aarch64/Linux_for_Tegra/sources/tegra/optee-src/nv-optee/optee/optee_os/lib/libutils/ext/snprintk.c:317
    1a88:	37f80124 	tbnz	w4, #31, 1aac <kprintf.constprop.0+0x1b8>
    1a8c:	91002c62 	add	x2, x3, #0xb
    1a90:	aa0303e0 	mov	x0, x3
    1a94:	927df043 	and	x3, x2, #0xfffffffffffffff8
    1a98:	b940000a 	ldr	w10, [x0]
    1a9c:	36fff86a 	tbz	w10, #31, 19a8 <kprintf.constprop.0+0xb4>
/home/ssysarch/Desktop/nick/jetpack_5/Jetson_Linux_R35.4.1_aarch64/Linux_for_Tegra/sources/tegra/optee-src/nv-optee/optee/optee_os/lib/libutils/ext/snprintk.c:319
    1aa0:	4b0a03ea 	neg	w10, w10
/home/ssysarch/Desktop/nick/jetpack_5/Jetson_Linux_R35.4.1_aarch64/Linux_for_Tegra/sources/tegra/optee-src/nv-optee/optee/optee_os/lib/libutils/ext/snprintk.c:322
    1aa4:	321e02b5 	orr	w21, w21, #0x4
/home/ssysarch/Desktop/nick/jetpack_5/Jetson_Linux_R35.4.1_aarch64/Linux_for_Tegra/sources/tegra/optee-src/nv-optee/optee/optee_os/lib/libutils/ext/snprintk.c:323
    1aa8:	17ffffc0 	b	19a8 <kprintf.constprop.0+0xb4>
/home/ssysarch/Desktop/nick/jetpack_5/Jetson_Linux_R35.4.1_aarch64/Linux_for_Tegra/sources/tegra/optee-src/nv-optee/optee/optee_os/lib/libutils/ext/snprintk.c:317
    1aac:	11002082 	add	w2, w4, #0x8
    1ab0:	7100005f 	cmp	w2, #0x0
    1ab4:	540000cd 	b.le	1acc <kprintf.constprop.0+0x1d8>
    1ab8:	91002c67 	add	x7, x3, #0xb
    1abc:	aa0303e0 	mov	x0, x3
    1ac0:	2a0203e4 	mov	w4, w2
    1ac4:	927df0e3 	and	x3, x7, #0xfffffffffffffff8
    1ac8:	17fffff4 	b	1a98 <kprintf.constprop.0+0x1a4>
    1acc:	8b24c340 	add	x0, x26, w4, sxtw
    1ad0:	2a0203e4 	mov	w4, w2
    1ad4:	17fffff1 	b	1a98 <kprintf.constprop.0+0x1a4>
/home/ssysarch/Desktop/nick/jetpack_5/Jetson_Linux_R35.4.1_aarch64/Linux_for_Tegra/sources/tegra/optee-src/nv-optee/optee/optee_os/lib/libutils/ext/snprintk.c:328
    1ad8:	3840177c 	ldrb	w28, [x27], #1
    1adc:	7100ab9f 	cmp	w28, #0x2a
    1ae0:	54000341 	b.ne	1b48 <kprintf.constprop.0+0x254>  // b.any
/home/ssysarch/Desktop/nick/jetpack_5/Jetson_Linux_R35.4.1_aarch64/Linux_for_Tegra/sources/tegra/optee-src/nv-optee/optee/optee_os/lib/libutils/ext/snprintk.c:329
    1ae4:	37f80144 	tbnz	w4, #31, 1b0c <kprintf.constprop.0+0x218>
    1ae8:	91002c62 	add	x2, x3, #0xb
    1aec:	2a0403e7 	mov	w7, w4
    1af0:	927df042 	and	x2, x2, #0xfffffffffffffff8
/home/ssysarch/Desktop/nick/jetpack_5/Jetson_Linux_R35.4.1_aarch64/Linux_for_Tegra/sources/tegra/optee-src/nv-optee/optee/optee_os/lib/libutils/ext/snprintk.c:330
    1af4:	b9400065 	ldr	w5, [x3]
/home/ssysarch/Desktop/nick/jetpack_5/Jetson_Linux_R35.4.1_aarch64/Linux_for_Tegra/sources/tegra/optee-src/nv-optee/optee/optee_os/lib/libutils/ext/snprintk.c:331
    1af8:	2a0703e4 	mov	w4, w7
    1afc:	aa0203e3 	mov	x3, x2
/home/ssysarch/Desktop/nick/jetpack_5/Jetson_Linux_R35.4.1_aarch64/Linux_for_Tegra/sources/tegra/optee-src/nv-optee/optee/optee_os/lib/libutils/ext/snprintk.c:330
    1b00:	710000bf 	cmp	w5, #0x0
    1b04:	1a8ea0a5 	csel	w5, w5, w14, ge  // ge = tcont
/home/ssysarch/Desktop/nick/jetpack_5/Jetson_Linux_R35.4.1_aarch64/Linux_for_Tegra/sources/tegra/optee-src/nv-optee/optee/optee_os/lib/libutils/ext/snprintk.c:331
    1b08:	17ffffa8 	b	19a8 <kprintf.constprop.0+0xb4>
/home/ssysarch/Desktop/nick/jetpack_5/Jetson_Linux_R35.4.1_aarch64/Linux_for_Tegra/sources/tegra/optee-src/nv-optee/optee/optee_os/lib/libutils/ext/snprintk.c:329
    1b0c:	11002087 	add	w7, w4, #0x8
    1b10:	710000ff 	cmp	w7, #0x0
    1b14:	5400008d 	b.le	1b24 <kprintf.constprop.0+0x230>
    1b18:	91002c62 	add	x2, x3, #0xb
    1b1c:	927df042 	and	x2, x2, #0xfffffffffffffff8
    1b20:	17fffff5 	b	1af4 <kprintf.constprop.0+0x200>
    1b24:	aa0303e2 	mov	x2, x3
    1b28:	8b24c343 	add	x3, x26, w4, sxtw
    1b2c:	17fffff2 	b	1af4 <kprintf.constprop.0+0x200>
/home/ssysarch/Desktop/nick/jetpack_5/Jetson_Linux_R35.4.1_aarch64/Linux_for_Tegra/sources/tegra/optee-src/nv-optee/optee/optee_os/lib/libutils/ext/snprintk.c:335
    1b30:	1b0d00a5 	madd	w5, w5, w13, w0
/home/ssysarch/Desktop/nick/jetpack_5/Jetson_Linux_R35.4.1_aarch64/Linux_for_Tegra/sources/tegra/optee-src/nv-optee/optee/optee_os/lib/libutils/ext/snprintk.c:336
    1b34:	3840177c 	ldrb	w28, [x27], #1
/home/ssysarch/Desktop/nick/jetpack_5/Jetson_Linux_R35.4.1_aarch64/Linux_for_Tegra/sources/tegra/optee-src/nv-optee/optee/optee_os/lib/libutils/ext/snprintk.c:334
    1b38:	5100c380 	sub	w0, w28, #0x30
    1b3c:	7100241f 	cmp	w0, #0x9
    1b40:	54ffff89 	b.ls	1b30 <kprintf.constprop.0+0x23c>  // b.plast
    1b44:	17ffff9a 	b	19ac <kprintf.constprop.0+0xb8>
/home/ssysarch/Desktop/nick/jetpack_5/Jetson_Linux_R35.4.1_aarch64/Linux_for_Tegra/sources/tegra/optee-src/nv-optee/optee/optee_os/lib/libutils/ext/snprintk.c:333
    1b48:	52800005 	mov	w5, #0x0                   	// #0
    1b4c:	17fffffb 	b	1b38 <kprintf.constprop.0+0x244>
/home/ssysarch/Desktop/nick/jetpack_5/Jetson_Linux_R35.4.1_aarch64/Linux_for_Tegra/sources/tegra/optee-src/nv-optee/optee/optee_os/lib/libutils/ext/snprintk.c:346
    1b50:	321602b5 	orr	w21, w21, #0x400
/home/ssysarch/Desktop/nick/jetpack_5/Jetson_Linux_R35.4.1_aarch64/Linux_for_Tegra/sources/tegra/optee-src/nv-optee/optee/optee_os/lib/libutils/ext/snprintk.c:347
    1b54:	17ffff95 	b	19a8 <kprintf.constprop.0+0xb4>
/home/ssysarch/Desktop/nick/jetpack_5/Jetson_Linux_R35.4.1_aarch64/Linux_for_Tegra/sources/tegra/optee-src/nv-optee/optee/optee_os/lib/libutils/ext/snprintk.c:297
    1b58:	5280000a 	mov	w10, #0x0                   	// #0
/home/ssysarch/Desktop/nick/jetpack_5/Jetson_Linux_R35.4.1_aarch64/Linux_for_Tegra/sources/tegra/optee-src/nv-optee/optee/optee_os/lib/libutils/ext/snprintk.c:352
    1b5c:	5100c39c 	sub	w28, w28, #0x30
    1b60:	1b0d714a 	madd	w10, w10, w13, w28
/home/ssysarch/Desktop/nick/jetpack_5/Jetson_Linux_R35.4.1_aarch64/Linux_for_Tegra/sources/tegra/optee-src/nv-optee/optee/optee_os/lib/libutils/ext/snprintk.c:353
    1b64:	3840177c 	ldrb	w28, [x27], #1
/home/ssysarch/Desktop/nick/jetpack_5/Jetson_Linux_R35.4.1_aarch64/Linux_for_Tegra/sources/tegra/optee-src/nv-optee/optee/optee_os/lib/libutils/ext/snprintk.c:354
    1b68:	5100c380 	sub	w0, w28, #0x30
    1b6c:	7100241f 	cmp	w0, #0x9
    1b70:	54ffff69 	b.ls	1b5c <kprintf.constprop.0+0x268>  // b.plast
    1b74:	17ffff8e 	b	19ac <kprintf.constprop.0+0xb8>
/home/ssysarch/Desktop/nick/jetpack_5/Jetson_Linux_R35.4.1_aarch64/Linux_for_Tegra/sources/tegra/optee-src/nv-optee/optee/optee_os/lib/libutils/ext/snprintk.c:358
    1b78:	321a02b5 	orr	w21, w21, #0x40
/home/ssysarch/Desktop/nick/jetpack_5/Jetson_Linux_R35.4.1_aarch64/Linux_for_Tegra/sources/tegra/optee-src/nv-optee/optee/optee_os/lib/libutils/ext/snprintk.c:359
    1b7c:	17ffff8b 	b	19a8 <kprintf.constprop.0+0xb4>
/home/ssysarch/Desktop/nick/jetpack_5/Jetson_Linux_R35.4.1_aarch64/Linux_for_Tegra/sources/tegra/optee-src/nv-optee/optee/optee_os/lib/libutils/ext/snprintk.c:361
    1b80:	321902b5 	orr	w21, w21, #0x80
/home/ssysarch/Desktop/nick/jetpack_5/Jetson_Linux_R35.4.1_aarch64/Linux_for_Tegra/sources/tegra/optee-src/nv-optee/optee/optee_os/lib/libutils/ext/snprintk.c:362
    1b84:	17ffff89 	b	19a8 <kprintf.constprop.0+0xb4>
/home/ssysarch/Desktop/nick/jetpack_5/Jetson_Linux_R35.4.1_aarch64/Linux_for_Tegra/sources/tegra/optee-src/nv-optee/optee/optee_os/lib/libutils/ext/snprintk.c:364
    1b88:	39400360 	ldrb	w0, [x27]
    1b8c:	7101b01f 	cmp	w0, #0x6c
    1b90:	54000081 	b.ne	1ba0 <kprintf.constprop.0+0x2ac>  // b.any
    1b94:	9100077b 	add	x27, x27, #0x1
/home/ssysarch/Desktop/nick/jetpack_5/Jetson_Linux_R35.4.1_aarch64/Linux_for_Tegra/sources/tegra/optee-src/nv-optee/optee/optee_os/lib/libutils/ext/snprintk.c:372
    1b98:	321b02b5 	orr	w21, w21, #0x20
/home/ssysarch/Desktop/nick/jetpack_5/Jetson_Linux_R35.4.1_aarch64/Linux_for_Tegra/sources/tegra/optee-src/nv-optee/optee/optee_os/lib/libutils/ext/snprintk.c:373
    1b9c:	17ffff83 	b	19a8 <kprintf.constprop.0+0xb4>
/home/ssysarch/Desktop/nick/jetpack_5/Jetson_Linux_R35.4.1_aarch64/Linux_for_Tegra/sources/tegra/optee-src/nv-optee/optee/optee_os/lib/libutils/ext/snprintk.c:368
    1ba0:	321c02b5 	orr	w21, w21, #0x10
    1ba4:	17ffff81 	b	19a8 <kprintf.constprop.0+0xb4>
/home/ssysarch/Desktop/nick/jetpack_5/Jetson_Linux_R35.4.1_aarch64/Linux_for_Tegra/sources/tegra/optee-src/nv-optee/optee/optee_os/lib/libutils/ext/snprintk.c:375
    1ba8:	321802b5 	orr	w21, w21, #0x100
/home/ssysarch/Desktop/nick/jetpack_5/Jetson_Linux_R35.4.1_aarch64/Linux_for_Tegra/sources/tegra/optee-src/nv-optee/optee/optee_os/lib/libutils/ext/snprintk.c:376
    1bac:	17ffff7f 	b	19a8 <kprintf.constprop.0+0xb4>
/home/ssysarch/Desktop/nick/jetpack_5/Jetson_Linux_R35.4.1_aarch64/Linux_for_Tegra/sources/tegra/optee-src/nv-optee/optee/optee_os/lib/libutils/ext/snprintk.c:378
    1bb0:	321702b5 	orr	w21, w21, #0x200
/home/ssysarch/Desktop/nick/jetpack_5/Jetson_Linux_R35.4.1_aarch64/Linux_for_Tegra/sources/tegra/optee-src/nv-optee/optee/optee_os/lib/libutils/ext/snprintk.c:379
    1bb4:	17ffff7d 	b	19a8 <kprintf.constprop.0+0xb4>
/home/ssysarch/Desktop/nick/jetpack_5/Jetson_Linux_R35.4.1_aarch64/Linux_for_Tegra/sources/tegra/optee-src/nv-optee/optee/optee_os/lib/libutils/ext/snprintk.c:381
    1bb8:	37f80164 	tbnz	w4, #31, 1be4 <kprintf.constprop.0+0x2f0>
    1bbc:	91002c73 	add	x19, x3, #0xb
    1bc0:	2a0403f4 	mov	w20, w4
    1bc4:	927df273 	and	x19, x19, #0xfffffffffffffff8
    1bc8:	b9400060 	ldr	w0, [x3]
    1bcc:	390303e0 	strb	w0, [sp, #192]
/home/ssysarch/Desktop/nick/jetpack_5/Jetson_Linux_R35.4.1_aarch64/Linux_for_Tegra/sources/tegra/optee-src/nv-optee/optee/optee_os/lib/libutils/ext/snprintk.c:550
    1bd0:	910303e3 	add	x3, sp, #0xc0
/home/ssysarch/Desktop/nick/jetpack_5/Jetson_Linux_R35.4.1_aarch64/Linux_for_Tegra/sources/tegra/optee-src/nv-optee/optee/optee_os/lib/libutils/ext/snprintk.c:552
    1bd4:	52800025 	mov	w5, #0x1                   	// #1
/home/ssysarch/Desktop/nick/jetpack_5/Jetson_Linux_R35.4.1_aarch64/Linux_for_Tegra/sources/tegra/optee-src/nv-optee/optee/optee_os/lib/libutils/ext/snprintk.c:291
    1bd8:	52800006 	mov	w6, #0x0                   	// #0
/home/ssysarch/Desktop/nick/jetpack_5/Jetson_Linux_R35.4.1_aarch64/Linux_for_Tegra/sources/tegra/optee-src/nv-optee/optee/optee_os/lib/libutils/ext/snprintk.c:553
    1bdc:	52800001 	mov	w1, #0x0                   	// #0
/home/ssysarch/Desktop/nick/jetpack_5/Jetson_Linux_R35.4.1_aarch64/Linux_for_Tegra/sources/tegra/optee-src/nv-optee/optee/optee_os/lib/libutils/ext/snprintk.c:554
    1be0:	140000fa 	b	1fc8 <kprintf.constprop.0+0x6d4>
/home/ssysarch/Desktop/nick/jetpack_5/Jetson_Linux_R35.4.1_aarch64/Linux_for_Tegra/sources/tegra/optee-src/nv-optee/optee/optee_os/lib/libutils/ext/snprintk.c:381
    1be4:	11002094 	add	w20, w4, #0x8
    1be8:	7100029f 	cmp	w20, #0x0
    1bec:	5400008d 	b.le	1bfc <kprintf.constprop.0+0x308>
    1bf0:	91002c73 	add	x19, x3, #0xb
    1bf4:	927df273 	and	x19, x19, #0xfffffffffffffff8
    1bf8:	17fffff4 	b	1bc8 <kprintf.constprop.0+0x2d4>
    1bfc:	aa0303f3 	mov	x19, x3
    1c00:	8b24c343 	add	x3, x26, w4, sxtw
    1c04:	17fffff1 	b	1bc8 <kprintf.constprop.0+0x2d4>
/home/ssysarch/Desktop/nick/jetpack_5/Jetson_Linux_R35.4.1_aarch64/Linux_for_Tegra/sources/tegra/optee-src/nv-optee/optee/optee_os/lib/libutils/ext/snprintk.c:386
    1c08:	321c02b5 	orr	w21, w21, #0x10
/home/ssysarch/Desktop/nick/jetpack_5/Jetson_Linux_R35.4.1_aarch64/Linux_for_Tegra/sources/tegra/optee-src/nv-optee/optee/optee_os/lib/libutils/ext/snprintk.c:390
    1c0c:	363802f5 	tbz	w21, #7, 1c68 <kprintf.constprop.0+0x374>
    1c10:	37f80424 	tbnz	w4, #31, 1c94 <kprintf.constprop.0+0x3a0>
    1c14:	91003c73 	add	x19, x3, #0xf
    1c18:	2a0403f4 	mov	w20, w4
    1c1c:	927df273 	and	x19, x19, #0xfffffffffffffff8
    1c20:	f9400062 	ldr	x2, [x3]
/home/ssysarch/Desktop/nick/jetpack_5/Jetson_Linux_R35.4.1_aarch64/Linux_for_Tegra/sources/tegra/optee-src/nv-optee/optee/optee_os/lib/libutils/ext/snprintk.c:391
    1c24:	b6f82e02 	tbz	x2, #63, 21e4 <kprintf.constprop.0+0x8f0>
/home/ssysarch/Desktop/nick/jetpack_5/Jetson_Linux_R35.4.1_aarch64/Linux_for_Tegra/sources/tegra/optee-src/nv-optee/optee/optee_os/lib/libutils/ext/snprintk.c:392
    1c28:	cb0203e2 	neg	x2, x2
/home/ssysarch/Desktop/nick/jetpack_5/Jetson_Linux_R35.4.1_aarch64/Linux_for_Tegra/sources/tegra/optee-src/nv-optee/optee/optee_os/lib/libutils/ext/snprintk.c:395
    1c2c:	52800020 	mov	w0, #0x1                   	// #1
/home/ssysarch/Desktop/nick/jetpack_5/Jetson_Linux_R35.4.1_aarch64/Linux_for_Tegra/sources/tegra/optee-src/nv-optee/optee/optee_os/lib/libutils/ext/snprintk.c:393
    1c30:	528005a1 	mov	w1, #0x2d                  	// #45
/home/ssysarch/Desktop/nick/jetpack_5/Jetson_Linux_R35.4.1_aarch64/Linux_for_Tegra/sources/tegra/optee-src/nv-optee/optee/optee_os/lib/libutils/ext/snprintk.c:494
    1c34:	310004bf 	cmn	w5, #0x1
    1c38:	54003a21 	b.ne	237c <kprintf.constprop.0+0xa88>  // b.any
/home/ssysarch/Desktop/nick/jetpack_5/Jetson_Linux_R35.4.1_aarch64/Linux_for_Tegra/sources/tegra/optee-src/nv-optee/optee/optee_os/lib/libutils/ext/snprintk.c:509
    1c3c:	7100041f 	cmp	w0, #0x1
    1c40:	54002d60 	b.eq	21ec <kprintf.constprop.0+0x8f8>  // b.none
    1c44:	7100081f 	cmp	w0, #0x2
    1c48:	54000ea1 	b.ne	1e1c <kprintf.constprop.0+0x528>  // b.any
/home/ssysarch/Desktop/nick/jetpack_5/Jetson_Linux_R35.4.1_aarch64/Linux_for_Tegra/sources/tegra/optee-src/nv-optee/optee/optee_os/lib/libutils/ext/snprintk.c:502
    1c4c:	91009583 	add	x3, x12, #0x25
/home/ssysarch/Desktop/nick/jetpack_5/Jetson_Linux_R35.4.1_aarch64/Linux_for_Tegra/sources/tegra/optee-src/nv-optee/optee/optee_os/lib/libutils/ext/snprintk.c:531
    1c50:	92400c40 	and	x0, x2, #0xf
/home/ssysarch/Desktop/nick/jetpack_5/Jetson_Linux_R35.4.1_aarch64/Linux_for_Tegra/sources/tegra/optee-src/nv-optee/optee/optee_os/lib/libutils/ext/snprintk.c:532
    1c54:	d344fc42 	lsr	x2, x2, #4
/home/ssysarch/Desktop/nick/jetpack_5/Jetson_Linux_R35.4.1_aarch64/Linux_for_Tegra/sources/tegra/optee-src/nv-optee/optee/optee_os/lib/libutils/ext/snprintk.c:531
    1c58:	38606ae0 	ldrb	w0, [x23, x0]
    1c5c:	381ffc60 	strb	w0, [x3, #-1]!
/home/ssysarch/Desktop/nick/jetpack_5/Jetson_Linux_R35.4.1_aarch64/Linux_for_Tegra/sources/tegra/optee-src/nv-optee/optee/optee_os/lib/libutils/ext/snprintk.c:533
    1c60:	b5ffff82 	cbnz	x2, 1c50 <kprintf.constprop.0+0x35c>
    1c64:	1400007b 	b	1e50 <kprintf.constprop.0+0x55c>
/home/ssysarch/Desktop/nick/jetpack_5/Jetson_Linux_R35.4.1_aarch64/Linux_for_Tegra/sources/tegra/optee-src/nv-optee/optee/optee_os/lib/libutils/ext/snprintk.c:390
    1c68:	3747fd55 	tbnz	w21, #8, 1c10 <kprintf.constprop.0+0x31c>
    1c6c:	374ffd35 	tbnz	w21, #9, 1c10 <kprintf.constprop.0+0x31c>
    1c70:	372ffd15 	tbnz	w21, #5, 1c10 <kprintf.constprop.0+0x31c>
    1c74:	3727fcf5 	tbnz	w21, #4, 1c10 <kprintf.constprop.0+0x31c>
    1c78:	36300335 	tbz	w21, #6, 1cdc <kprintf.constprop.0+0x3e8>
    1c7c:	37f801e4 	tbnz	w4, #31, 1cb8 <kprintf.constprop.0+0x3c4>
    1c80:	91002c73 	add	x19, x3, #0xb
    1c84:	2a0403f4 	mov	w20, w4
    1c88:	927df273 	and	x19, x19, #0xfffffffffffffff8
    1c8c:	79800062 	ldrsh	x2, [x3]
    1c90:	17ffffe5 	b	1c24 <kprintf.constprop.0+0x330>
    1c94:	11002094 	add	w20, w4, #0x8
    1c98:	7100029f 	cmp	w20, #0x0
    1c9c:	5400008d 	b.le	1cac <kprintf.constprop.0+0x3b8>
    1ca0:	91003c73 	add	x19, x3, #0xf
    1ca4:	927df273 	and	x19, x19, #0xfffffffffffffff8
    1ca8:	17ffffde 	b	1c20 <kprintf.constprop.0+0x32c>
    1cac:	aa0303f3 	mov	x19, x3
    1cb0:	8b24c343 	add	x3, x26, w4, sxtw
    1cb4:	17ffffdb 	b	1c20 <kprintf.constprop.0+0x32c>
    1cb8:	11002094 	add	w20, w4, #0x8
    1cbc:	7100029f 	cmp	w20, #0x0
    1cc0:	5400008d 	b.le	1cd0 <kprintf.constprop.0+0x3dc>
    1cc4:	91002c73 	add	x19, x3, #0xb
    1cc8:	927df273 	and	x19, x19, #0xfffffffffffffff8
    1ccc:	17fffff0 	b	1c8c <kprintf.constprop.0+0x398>
    1cd0:	aa0303f3 	mov	x19, x3
    1cd4:	8b24c343 	add	x3, x26, w4, sxtw
    1cd8:	17ffffed 	b	1c8c <kprintf.constprop.0+0x398>
    1cdc:	37f800c4 	tbnz	w4, #31, 1cf4 <kprintf.constprop.0+0x400>
    1ce0:	91002c73 	add	x19, x3, #0xb
    1ce4:	2a0403f4 	mov	w20, w4
    1ce8:	927df273 	and	x19, x19, #0xfffffffffffffff8
    1cec:	b9800062 	ldrsw	x2, [x3]
    1cf0:	17ffffcd 	b	1c24 <kprintf.constprop.0+0x330>
    1cf4:	11002094 	add	w20, w4, #0x8
    1cf8:	7100029f 	cmp	w20, #0x0
    1cfc:	5400008d 	b.le	1d0c <kprintf.constprop.0+0x418>
    1d00:	91002c73 	add	x19, x3, #0xb
    1d04:	927df273 	and	x19, x19, #0xfffffffffffffff8
    1d08:	17fffff9 	b	1cec <kprintf.constprop.0+0x3f8>
    1d0c:	aa0303f3 	mov	x19, x3
    1d10:	8b24c343 	add	x3, x26, w4, sxtw
    1d14:	17fffff6 	b	1cec <kprintf.constprop.0+0x3f8>
/home/ssysarch/Desktop/nick/jetpack_5/Jetson_Linux_R35.4.1_aarch64/Linux_for_Tegra/sources/tegra/optee-src/nv-optee/optee/optee_os/lib/libutils/ext/snprintk.c:398
    1d18:	36380135 	tbz	w21, #7, 1d3c <kprintf.constprop.0+0x448>
/home/ssysarch/Desktop/nick/jetpack_5/Jetson_Linux_R35.4.1_aarch64/Linux_for_Tegra/sources/tegra/optee-src/nv-optee/optee/optee_os/lib/libutils/ext/snprintk.c:407
    1d1c:	37f80284 	tbnz	w4, #31, 1d6c <kprintf.constprop.0+0x478>
    1d20:	91003c73 	add	x19, x3, #0xf
    1d24:	2a0403f4 	mov	w20, w4
    1d28:	927df273 	and	x19, x19, #0xfffffffffffffff8
    1d2c:	f9400060 	ldr	x0, [x3]
    1d30:	93407f21 	sxtw	x1, w25
    1d34:	f9000001 	str	x1, [x0]
    1d38:	17ffff0b 	b	1964 <kprintf.constprop.0+0x70>
/home/ssysarch/Desktop/nick/jetpack_5/Jetson_Linux_R35.4.1_aarch64/Linux_for_Tegra/sources/tegra/optee-src/nv-optee/optee/optee_os/lib/libutils/ext/snprintk.c:400
    1d3c:	3747ff15 	tbnz	w21, #8, 1d1c <kprintf.constprop.0+0x428>
/home/ssysarch/Desktop/nick/jetpack_5/Jetson_Linux_R35.4.1_aarch64/Linux_for_Tegra/sources/tegra/optee-src/nv-optee/optee/optee_os/lib/libutils/ext/snprintk.c:402
    1d40:	374ffef5 	tbnz	w21, #9, 1d1c <kprintf.constprop.0+0x428>
/home/ssysarch/Desktop/nick/jetpack_5/Jetson_Linux_R35.4.1_aarch64/Linux_for_Tegra/sources/tegra/optee-src/nv-optee/optee/optee_os/lib/libutils/ext/snprintk.c:404
    1d44:	372ffed5 	tbnz	w21, #5, 1d1c <kprintf.constprop.0+0x428>
/home/ssysarch/Desktop/nick/jetpack_5/Jetson_Linux_R35.4.1_aarch64/Linux_for_Tegra/sources/tegra/optee-src/nv-optee/optee/optee_os/lib/libutils/ext/snprintk.c:406
    1d48:	3727feb5 	tbnz	w21, #4, 1d1c <kprintf.constprop.0+0x428>
/home/ssysarch/Desktop/nick/jetpack_5/Jetson_Linux_R35.4.1_aarch64/Linux_for_Tegra/sources/tegra/optee-src/nv-optee/optee/optee_os/lib/libutils/ext/snprintk.c:408
    1d4c:	36300355 	tbz	w21, #6, 1db4 <kprintf.constprop.0+0x4c0>
/home/ssysarch/Desktop/nick/jetpack_5/Jetson_Linux_R35.4.1_aarch64/Linux_for_Tegra/sources/tegra/optee-src/nv-optee/optee/optee_os/lib/libutils/ext/snprintk.c:409
    1d50:	37f80204 	tbnz	w4, #31, 1d90 <kprintf.constprop.0+0x49c>
    1d54:	91003c73 	add	x19, x3, #0xf
    1d58:	2a0403f4 	mov	w20, w4
    1d5c:	927df273 	and	x19, x19, #0xfffffffffffffff8
    1d60:	f9400060 	ldr	x0, [x3]
    1d64:	79000019 	strh	w25, [x0]
    1d68:	17fffeff 	b	1964 <kprintf.constprop.0+0x70>
/home/ssysarch/Desktop/nick/jetpack_5/Jetson_Linux_R35.4.1_aarch64/Linux_for_Tegra/sources/tegra/optee-src/nv-optee/optee/optee_os/lib/libutils/ext/snprintk.c:407
    1d6c:	11002094 	add	w20, w4, #0x8
    1d70:	7100029f 	cmp	w20, #0x0
    1d74:	5400008d 	b.le	1d84 <kprintf.constprop.0+0x490>
    1d78:	91003c73 	add	x19, x3, #0xf
    1d7c:	927df273 	and	x19, x19, #0xfffffffffffffff8
    1d80:	17ffffeb 	b	1d2c <kprintf.constprop.0+0x438>
    1d84:	aa0303f3 	mov	x19, x3
    1d88:	8b24c343 	add	x3, x26, w4, sxtw
    1d8c:	17ffffe8 	b	1d2c <kprintf.constprop.0+0x438>
/home/ssysarch/Desktop/nick/jetpack_5/Jetson_Linux_R35.4.1_aarch64/Linux_for_Tegra/sources/tegra/optee-src/nv-optee/optee/optee_os/lib/libutils/ext/snprintk.c:409
    1d90:	11002094 	add	w20, w4, #0x8
    1d94:	7100029f 	cmp	w20, #0x0
    1d98:	5400008d 	b.le	1da8 <kprintf.constprop.0+0x4b4>
    1d9c:	91003c73 	add	x19, x3, #0xf
    1da0:	927df273 	and	x19, x19, #0xfffffffffffffff8
    1da4:	17ffffef 	b	1d60 <kprintf.constprop.0+0x46c>
    1da8:	aa0303f3 	mov	x19, x3
    1dac:	8b24c343 	add	x3, x26, w4, sxtw
    1db0:	17ffffec 	b	1d60 <kprintf.constprop.0+0x46c>
/home/ssysarch/Desktop/nick/jetpack_5/Jetson_Linux_R35.4.1_aarch64/Linux_for_Tegra/sources/tegra/optee-src/nv-optee/optee/optee_os/lib/libutils/ext/snprintk.c:411
    1db4:	37f800e4 	tbnz	w4, #31, 1dd0 <kprintf.constprop.0+0x4dc>
    1db8:	91003c73 	add	x19, x3, #0xf
    1dbc:	2a0403f4 	mov	w20, w4
    1dc0:	927df273 	and	x19, x19, #0xfffffffffffffff8
    1dc4:	f9400060 	ldr	x0, [x3]
    1dc8:	b9000019 	str	w25, [x0]
    1dcc:	17fffee6 	b	1964 <kprintf.constprop.0+0x70>
    1dd0:	11002094 	add	w20, w4, #0x8
    1dd4:	7100029f 	cmp	w20, #0x0
    1dd8:	5400008d 	b.le	1de8 <kprintf.constprop.0+0x4f4>
    1ddc:	91003c73 	add	x19, x3, #0xf
    1de0:	927df273 	and	x19, x19, #0xfffffffffffffff8
    1de4:	17fffff8 	b	1dc4 <kprintf.constprop.0+0x4d0>
    1de8:	aa0303f3 	mov	x19, x3
    1dec:	8b24c343 	add	x3, x26, w4, sxtw
    1df0:	17fffff5 	b	1dc4 <kprintf.constprop.0+0x4d0>
/home/ssysarch/Desktop/nick/jetpack_5/Jetson_Linux_R35.4.1_aarch64/Linux_for_Tegra/sources/tegra/optee-src/nv-optee/optee/optee_os/lib/libutils/ext/snprintk.c:414
    1df4:	321c02b5 	orr	w21, w21, #0x10
/home/ssysarch/Desktop/nick/jetpack_5/Jetson_Linux_R35.4.1_aarch64/Linux_for_Tegra/sources/tegra/optee-src/nv-optee/optee/optee_os/lib/libutils/ext/snprintk.c:417
    1df8:	36380355 	tbz	w21, #7, 1e60 <kprintf.constprop.0+0x56c>
    1dfc:	37f80484 	tbnz	w4, #31, 1e8c <kprintf.constprop.0+0x598>
    1e00:	91003c73 	add	x19, x3, #0xf
    1e04:	2a0403f4 	mov	w20, w4
    1e08:	927df273 	and	x19, x19, #0xfffffffffffffff8
    1e0c:	f9400062 	ldr	x2, [x3]
/home/ssysarch/Desktop/nick/jetpack_5/Jetson_Linux_R35.4.1_aarch64/Linux_for_Tegra/sources/tegra/optee-src/nv-optee/optee/optee_os/lib/libutils/ext/snprintk.c:494
    1e10:	310004bf 	cmn	w5, #0x1
    1e14:	52800001 	mov	w1, #0x0                   	// #0
    1e18:	54002b01 	b.ne	2378 <kprintf.constprop.0+0xa84>  // b.any
/home/ssysarch/Desktop/nick/jetpack_5/Jetson_Linux_R35.4.1_aarch64/Linux_for_Tegra/sources/tegra/optee-src/nv-optee/optee/optee_os/lib/libutils/ext/snprintk.c:502
    1e1c:	91009583 	add	x3, x12, #0x25
/home/ssysarch/Desktop/nick/jetpack_5/Jetson_Linux_R35.4.1_aarch64/Linux_for_Tegra/sources/tegra/optee-src/nv-optee/optee/optee_os/lib/libutils/ext/snprintk.c:512
    1e20:	12000840 	and	w0, w2, #0x7
    1e24:	aa0303e4 	mov	x4, x3
    1e28:	1100c000 	add	w0, w0, #0x30
    1e2c:	381ffc60 	strb	w0, [x3, #-1]!
/home/ssysarch/Desktop/nick/jetpack_5/Jetson_Linux_R35.4.1_aarch64/Linux_for_Tegra/sources/tegra/optee-src/nv-optee/optee/optee_os/lib/libutils/ext/snprintk.c:513
    1e30:	d343fc42 	lsr	x2, x2, #3
/home/ssysarch/Desktop/nick/jetpack_5/Jetson_Linux_R35.4.1_aarch64/Linux_for_Tegra/sources/tegra/optee-src/nv-optee/optee/optee_os/lib/libutils/ext/snprintk.c:514
    1e34:	b5ffff62 	cbnz	x2, 1e20 <kprintf.constprop.0+0x52c>
/home/ssysarch/Desktop/nick/jetpack_5/Jetson_Linux_R35.4.1_aarch64/Linux_for_Tegra/sources/tegra/optee-src/nv-optee/optee/optee_os/lib/libutils/ext/snprintk.c:516
    1e38:	360000d5 	tbz	w21, #0, 1e50 <kprintf.constprop.0+0x55c>
    1e3c:	7100c01f 	cmp	w0, #0x30
    1e40:	54000080 	b.eq	1e50 <kprintf.constprop.0+0x55c>  // b.none
/home/ssysarch/Desktop/nick/jetpack_5/Jetson_Linux_R35.4.1_aarch64/Linux_for_Tegra/sources/tegra/optee-src/nv-optee/optee/optee_os/lib/libutils/ext/snprintk.c:517
    1e44:	52800600 	mov	w0, #0x30                  	// #48
    1e48:	381ff060 	sturb	w0, [x3, #-1]
    1e4c:	d1000883 	sub	x3, x4, #0x2
/home/ssysarch/Desktop/nick/jetpack_5/Jetson_Linux_R35.4.1_aarch64/Linux_for_Tegra/sources/tegra/optee-src/nv-optee/optee/optee_os/lib/libutils/ext/snprintk.c:543
    1e50:	91009580 	add	x0, x12, #0x25
    1e54:	2a0503e6 	mov	w6, w5
    1e58:	4b030005 	sub	w5, w0, w3
    1e5c:	1400005b 	b	1fc8 <kprintf.constprop.0+0x6d4>
/home/ssysarch/Desktop/nick/jetpack_5/Jetson_Linux_R35.4.1_aarch64/Linux_for_Tegra/sources/tegra/optee-src/nv-optee/optee/optee_os/lib/libutils/ext/snprintk.c:417
    1e60:	3747fcf5 	tbnz	w21, #8, 1dfc <kprintf.constprop.0+0x508>
    1e64:	374ffcd5 	tbnz	w21, #9, 1dfc <kprintf.constprop.0+0x508>
    1e68:	372ffcb5 	tbnz	w21, #5, 1dfc <kprintf.constprop.0+0x508>
    1e6c:	3727fc95 	tbnz	w21, #4, 1dfc <kprintf.constprop.0+0x508>
    1e70:	36300335 	tbz	w21, #6, 1ed4 <kprintf.constprop.0+0x5e0>
    1e74:	37f801e4 	tbnz	w4, #31, 1eb0 <kprintf.constprop.0+0x5bc>
    1e78:	91002c73 	add	x19, x3, #0xb
    1e7c:	2a0403f4 	mov	w20, w4
    1e80:	927df273 	and	x19, x19, #0xfffffffffffffff8
    1e84:	79400062 	ldrh	w2, [x3]
    1e88:	17ffffe2 	b	1e10 <kprintf.constprop.0+0x51c>
    1e8c:	11002094 	add	w20, w4, #0x8
    1e90:	7100029f 	cmp	w20, #0x0
    1e94:	5400008d 	b.le	1ea4 <kprintf.constprop.0+0x5b0>
    1e98:	91003c73 	add	x19, x3, #0xf
    1e9c:	927df273 	and	x19, x19, #0xfffffffffffffff8
    1ea0:	17ffffdb 	b	1e0c <kprintf.constprop.0+0x518>
    1ea4:	aa0303f3 	mov	x19, x3
    1ea8:	8b24c343 	add	x3, x26, w4, sxtw
    1eac:	17ffffd8 	b	1e0c <kprintf.constprop.0+0x518>
    1eb0:	11002094 	add	w20, w4, #0x8
    1eb4:	7100029f 	cmp	w20, #0x0
    1eb8:	5400008d 	b.le	1ec8 <kprintf.constprop.0+0x5d4>
    1ebc:	91002c73 	add	x19, x3, #0xb
    1ec0:	927df273 	and	x19, x19, #0xfffffffffffffff8
    1ec4:	17fffff0 	b	1e84 <kprintf.constprop.0+0x590>
    1ec8:	aa0303f3 	mov	x19, x3
    1ecc:	8b24c343 	add	x3, x26, w4, sxtw
    1ed0:	17ffffed 	b	1e84 <kprintf.constprop.0+0x590>
    1ed4:	37f800c4 	tbnz	w4, #31, 1eec <kprintf.constprop.0+0x5f8>
    1ed8:	91002c73 	add	x19, x3, #0xb
    1edc:	2a0403f4 	mov	w20, w4
    1ee0:	927df273 	and	x19, x19, #0xfffffffffffffff8
    1ee4:	b9400062 	ldr	w2, [x3]
    1ee8:	17ffffca 	b	1e10 <kprintf.constprop.0+0x51c>
    1eec:	11002094 	add	w20, w4, #0x8
    1ef0:	7100029f 	cmp	w20, #0x0
    1ef4:	5400008d 	b.le	1f04 <kprintf.constprop.0+0x610>
    1ef8:	91002c73 	add	x19, x3, #0xb
    1efc:	927df273 	and	x19, x19, #0xfffffffffffffff8
    1f00:	17fffff9 	b	1ee4 <kprintf.constprop.0+0x5f0>
    1f04:	aa0303f3 	mov	x19, x3
    1f08:	8b24c343 	add	x3, x26, w4, sxtw
    1f0c:	17fffff6 	b	1ee4 <kprintf.constprop.0+0x5f0>
/home/ssysarch/Desktop/nick/jetpack_5/Jetson_Linux_R35.4.1_aarch64/Linux_for_Tegra/sources/tegra/optee-src/nv-optee/optee/optee_os/lib/libutils/ext/snprintk.c:421
    1f10:	b940a3e0 	ldr	w0, [sp, #160]
    1f14:	34000c80 	cbz	w0, 20a4 <kprintf.constprop.0+0x7b0>
    1f18:	39400360 	ldrb	w0, [x27]
    1f1c:	7101541f 	cmp	w0, #0x55
    1f20:	54000c21 	b.ne	20a4 <kprintf.constprop.0+0x7b0>  // b.any
    1f24:	39400760 	ldrb	w0, [x27, #1]
    1f28:	7101b01f 	cmp	w0, #0x6c
    1f2c:	54000bc1 	b.ne	20a4 <kprintf.constprop.0+0x7b0>  // b.any
/home/ssysarch/Desktop/nick/jetpack_5/Jetson_Linux_R35.4.1_aarch64/Linux_for_Tegra/sources/tegra/optee-src/nv-optee/optee/optee_os/lib/libutils/ext/snprintk.c:426
    1f30:	91000b7b 	add	x27, x27, #0x2
/home/ssysarch/Desktop/nick/jetpack_5/Jetson_Linux_R35.4.1_aarch64/Linux_for_Tegra/sources/tegra/optee-src/nv-optee/optee/optee_os/lib/libutils/ext/snprintk.c:427
    1f34:	37f80a64 	tbnz	w4, #31, 2080 <kprintf.constprop.0+0x78c>
    1f38:	91003c73 	add	x19, x3, #0xf
    1f3c:	2a0403f4 	mov	w20, w4
