
/home/ssysarch/Desktop/nick/jetpack_5/Jetson_Linux_R35.4.1_aarch64/Linux_for_Tegra/sources/tegra/optee-src/nv-optee/optee/build/t234/ta/large/25497083-a58a-4fc5-8a72-1ad7b69b8562.elf:     file format elf64-littleaarch64
/home/ssysarch/Desktop/nick/jetpack_5/Jetson_Linux_R35.4.1_aarch64/Linux_for_Tegra/sources/tegra/optee-src/nv-optee/optee/build/t234/ta/large/25497083-a58a-4fc5-8a72-1ad7b69b8562.elf
architecture: aarch64, flags 0x00000150:
HAS_SYMS, DYNAMIC, D_PAGED
start address 0x0000000000000138

Program Header:
    LOAD off    0x0000000000001000 vaddr 0x0000000000000000 paddr 0x0000000000000000 align 2**12
         filesz 0x0000000000110c08 memsz 0x0000000000110c08 flags r-x
    LOAD off    0x0000000000112000 vaddr 0x0000000000111000 paddr 0x0000000000111000 align 2**12
         filesz 0x000000000000059c memsz 0x0000000000004640 flags rw-
 DYNAMIC off    0x0000000000112000 vaddr 0x0000000000111000 paddr 0x0000000000111000 align 2**3
         filesz 0x0000000000000110 memsz 0x0000000000000110 flags rw-
   STACK off    0x0000000000000000 vaddr 0x0000000000000000 paddr 0x0000000000000000 align 2**4
         filesz 0x0000000000000000 memsz 0x0000000000000000 flags rw-

Dynamic Section:
  HASH                 0x00000000001108f0
  GNU_HASH             0x0000000000110800
  STRTAB               0x00000000001108c0
  SYMTAB               0x0000000000110830
  STRSZ                0x000000000000002e
  SYMENT               0x0000000000000018
  DEBUG                0x0000000000000000
  RELA                 0x0000000000110920
  RELASZ               0x00000000000004c8
  RELAENT              0x0000000000000018
  FLAGS_1              0x0000000008000000
  RELACOUNT            0x000000000000001f
private flags = 0:

Sections:
Idx Name          Size      VMA               LMA               File off  Algn
  0 .ta_head      00000020  0000000000000000  0000000000000000  00001000  2**3
                  CONTENTS, ALLOC, LOAD, READONLY, DATA
  1 .text         0000cba4  0000000000000020  0000000000000020  00001020  2**4
                  CONTENTS, ALLOC, LOAD, READONLY, CODE
  2 .eh_frame     00002944  000000000000cbc8  000000000000cbc8  0000dbc8  2**3
                  CONTENTS, ALLOC, LOAD, READONLY, DATA
  3 .rodata       001012eb  000000000000f510  000000000000f510  00010510  2**3
                  CONTENTS, ALLOC, LOAD, READONLY, DATA
  4 .gnu.hash     00000030  0000000000110800  0000000000110800  00111800  2**3
                  CONTENTS, ALLOC, LOAD, READONLY, DATA
  5 .dynsym       00000090  0000000000110830  0000000000110830  00111830  2**3
                  CONTENTS, ALLOC, LOAD, READONLY, DATA
  6 .dynstr       0000002e  00000000001108c0  00000000001108c0  001118c0  2**0
                  CONTENTS, ALLOC, LOAD, READONLY, DATA
  7 .hash         0000002c  00000000001108f0  00000000001108f0  001118f0  2**3
                  CONTENTS, ALLOC, LOAD, READONLY, DATA
  8 .rela.dyn     000002e8  0000000000110920  0000000000110920  00111920  2**3
                  CONTENTS, ALLOC, LOAD, READONLY, DATA
  9 .dynamic      00000110  0000000000111000  0000000000111000  00112000  2**3
                  CONTENTS, ALLOC, LOAD, DATA
 10 .got          000000c0  0000000000111110  0000000000111110  00112110  2**3
                  CONTENTS, ALLOC, LOAD, DATA
 11 .rela.got     000001e0  00000000001111d0  00000000001111d0  001121d0  2**3
                  CONTENTS, ALLOC, LOAD, READONLY, DATA
 12 .data         000001ec  00000000001113b0  00000000001113b0  001123b0  2**3
                  CONTENTS, ALLOC, LOAD, DATA
 13 .bss          000040a0  00000000001115a0  00000000001115a0  0011259c  2**3
                  ALLOC
 14 .debug_info   0001a03a  0000000000000000  0000000000000000  0011259c  2**0
                  CONTENTS, READONLY, DEBUGGING
 15 .debug_abbrev 00004042  0000000000000000  0000000000000000  0012c5d6  2**0
                  CONTENTS, READONLY, DEBUGGING
 16 .debug_loc    00024978  0000000000000000  0000000000000000  00130618  2**0
                  CONTENTS, READONLY, DEBUGGING
 17 .debug_aranges 00000950  0000000000000000  0000000000000000  00154f90  2**4
                  CONTENTS, READONLY, DEBUGGING
 18 .debug_macro  0001772d  0000000000000000  0000000000000000  001558e0  2**0
                  CONTENTS, READONLY, DEBUGGING
 19 .debug_line   0000fbcc  0000000000000000  0000000000000000  0016d00d  2**0
                  CONTENTS, READONLY, DEBUGGING
 20 .debug_str    0001a9f7  0000000000000000  0000000000000000  0017cbd9  2**0
                  CONTENTS, READONLY, DEBUGGING
 21 .comment      0000001f  0000000000000000  0000000000000000  001975d0  2**0
                  CONTENTS, READONLY
 22 .debug_ranges 00001da0  0000000000000000  0000000000000000  001975f0  2**4
                  CONTENTS, READONLY, DEBUGGING
SYMBOL TABLE:
0000000000000000 l    d  .ta_head	0000000000000000 .ta_head
0000000000000020 l    d  .text	0000000000000000 .text
000000000000cbc8 l    d  .eh_frame	0000000000000000 .eh_frame
000000000000f510 l    d  .rodata	0000000000000000 .rodata
0000000000110800 l    d  .gnu.hash	0000000000000000 .gnu.hash
0000000000110830 l    d  .dynsym	0000000000000000 .dynsym
00000000001108c0 l    d  .dynstr	0000000000000000 .dynstr
00000000001108f0 l    d  .hash	0000000000000000 .hash
0000000000110920 l    d  .rela.dyn	0000000000000000 .rela.dyn
0000000000111000 l    d  .dynamic	0000000000000000 .dynamic
0000000000111110 l    d  .got	0000000000000000 .got
00000000001111d0 l    d  .rela.got	0000000000000000 .rela.got
00000000001113b0 l    d  .data	0000000000000000 .data
00000000001115a0 l    d  .bss	0000000000000000 .bss
0000000000000000 l    d  .debug_info	0000000000000000 .debug_info
0000000000000000 l    d  .debug_abbrev	0000000000000000 .debug_abbrev
0000000000000000 l    d  .debug_loc	0000000000000000 .debug_loc
0000000000000000 l    d  .debug_aranges	0000000000000000 .debug_aranges
0000000000000000 l    d  .debug_macro	0000000000000000 .debug_macro
0000000000000000 l    d  .debug_line	0000000000000000 .debug_line
0000000000000000 l    d  .debug_str	0000000000000000 .debug_str
0000000000000000 l    d  .comment	0000000000000000 .comment
0000000000000000 l    d  .debug_ranges	0000000000000000 .debug_ranges
0000000000000000 l    df *ABS*	0000000000000000 user_ta_header.c
000000000000f518 l     O .rodata	0000000000000001 __compound_literal.6
000000000000f51c l     O .rodata	0000000000000004 __compound_literal.5
000000000000f520 l     O .rodata	0000000000000004 __compound_literal.4
000000000000f524 l     O .rodata	0000000000000004 __compound_literal.3
000000000000f528 l     O .rodata	0000000000000001 __compound_literal.2
000000000000f529 l     O .rodata	0000000000000001 __compound_literal.1
000000000000f52a l     O .rodata	0000000000000001 __compound_literal.0
0000000000000000 l    df *ABS*	0000000000000000 memcpy.c
0000000000000000 l    df *ABS*	0000000000000000 ta_entry.c
000000000000f974 l     O .rodata	0000000000100000 large_buffer
0000000000000000 l    df *ABS*	0000000000000000 user_ta_entry.c
0000000000000154 l     F .text	00000000000000b0 _get_fn_array
0000000000000204 l     F .text	0000000000000090 _fini_iterate_phdr_cb
0000000000000294 l     F .text	0000000000000028 ta_header_get_session
00000000000002bc l     F .text	000000000000006c to_utee_params
0000000000000328 l     F .text	000000000000005c from_utee_params
0000000000000384 l     F .text	0000000000000094 _init_iterate_phdr_cb
0000000000000580 l     F .text	0000000000000098 ta_header_remove_session
000000000010faa8 l     O .rodata	0000000000000016 __func__.5387
00000000001115a0 l     O .bss	0000000000000008 _num_mod_init
00000000001115a8 l     O .bss	0000000000000001 init_done
0000000000111488 l     O .data	0000000000000010 ta_sessions
0000000000111498 l     O .data	0000000000000010 __phdr_info_head
0000000000000000 l    df *ABS*	0000000000000000 utee_syscalls_a64.o
0000000000000000 l    df *ABS*	0000000000000000 abort.c
0000000000000000 l    df *ABS*	0000000000000000 trace_ext.c
0000000000000000 l    df *ABS*	0000000000000000 tee_api.c
0000000000000d4c l     F .text	000000000000006c copy_param
0000000000000db8 l     F .text	0000000000000070 copy_gp11_param
0000000000000e28 l     F .text	0000000000000094 check_mem_access_rights_params
0000000000000ebc l     F .text	0000000000000044 buf_overlaps_no_share_heap
0000000000000f00 l     F .text	00000000000000a8 check_invoke_param
0000000000000fa8 l     F .text	00000000000000a8 update_out_param
0000000000001050 l     F .text	00000000000000ac update_out_gp11_param
00000000000012cc l     F .text	000000000000019c map_tmp_param
0000000000111610 l     O .bss	0000000000000008 tee_api_instance_data
000000000000f550 l     O .rodata	000000000000000b __func__.5423
0000000000000000 l    df *ABS*	0000000000000000 tee_api_arith_mpi.c
0000000000001e0c l     F .text	0000000000000030 api_panic
0000000000001e3c l     F .text	0000000000000030 mpi_panic
0000000000001e6c l     F .text	0000000000000098 get_mpi
0000000000001f04 l     F .text	0000000000000064 copy_mpi_to_bigint
0000000000001f68 l     F .text	000000000000014c bigint_binary
00000000000020b4 l     F .text	0000000000000020 mpi_is_odd
00000000000020d4 l     F .text	0000000000000028 rng_read
00000000000020fc l     F .text	0000000000000574 mpi_egcd
0000000000111620 l     O .bss	0000000000003800 data.5215
0000000000002b9c l     F .text	00000000000001d0 bigint_binary_mod
000000000010fb9f l     O .rodata	0000000000000008 __func__.5249
000000000010fba7 l     O .rodata	000000000000000e __func__.5387
000000000010fbb5 l     O .rodata	0000000000000009 __func__.5551
000000000010fbbe l     O .rodata	0000000000000012 __func__.5216
000000000010fbd0 l     O .rodata	000000000000000f __func__.5255
000000000010fbdf l     O .rodata	000000000000001f __func__.5283
000000000010fbfe l     O .rodata	0000000000000019 __func__.5297
000000000010fc17 l     O .rodata	0000000000000012 __func__.5406
000000000010fc29 l     O .rodata	0000000000000015 __func__.5328
000000000010fc3e l     O .rodata	000000000000000e __func__.5427
000000000010fc4c l     O .rodata	000000000000000e __func__.5456
000000000010fc5a l     O .rodata	000000000000000e __func__.5464
000000000010fc68 l     O .rodata	0000000000000011 __func__.5497
000000000010fc79 l     O .rodata	0000000000000018 __func__.5510
000000000010fc91 l     O .rodata	0000000000000011 __func__.5531
000000000010fca2 l     O .rodata	000000000000001d __func__.5608
000000000010fcbf l     O .rodata	0000000000000019 __func__.5681
000000000010fcd8 l     O .rodata	0000000000000015 __func__.5696
0000000000000000 l    df *ABS*	0000000000000000 tee_api_panic.c
0000000000003f38 l     F .text	000000000000001c check_access
0000000000003f5c l     F .text	0000000000000044 check_res
000000000010fd58 l     O .rodata	000000000000000a __func__.4862
0000000000000000 l    df *ABS*	0000000000000000 tee_api_property.c
0000000000004224 l     F .text	000000000000006c propset_get
0000000000004290 l     F .text	000000000000002c is_propset_pseudo_handle
00000000000042bc l     F .text	0000000000000148 propget_get_ext_prop
0000000000004404 l     F .text	00000000000001b0 propget_get_property
000000000000f578 l     O .rodata	0000000000000004 __compound_literal.3
000000000000f57c l     O .rodata	0000000000000004 __compound_literal.2
000000000000f580 l     O .rodata	0000000000000004 __compound_literal.1
000000000000f584 l     O .rodata	0000000000000004 __compound_literal.0
0000000000000000 l    df *ABS*	0000000000000000 tee_system_pta.c
000000000000519c l     F .text	0000000000000088 invoke_system_pta
000000000000f588 l     O .rodata	0000000000000010 uuid.4625
000000000000f598 l     O .rodata	000000000000000a __func__.4645
000000000000f5a2 l     O .rodata	0000000000000017 __func__.4657
0000000000114e20 l     O .bss	0000000000000008 sess.4624
0000000000000000 l    df *ABS*	0000000000000000 tcb.c
000000000010fec7 l     O .rodata	0000000000000010 __func__.4097
000000000010fed7 l     O .rodata	0000000000000010 __func__.4124
0000000000114e28 l     O .bss	0000000000000008 _tls_size
0000000000114e30 l     O .bss	0000000000000008 _tcb
0000000000000000 l    df *ABS*	0000000000000000 assert.c
0000000000000000 l    df *ABS*	0000000000000000 base64.c
000000000000f5c0 l     O .rodata	0000000000000041 base64_table
0000000000000000 l    df *ABS*	0000000000000000 bignum.c
0000000000005aa8 l     F .text	0000000000000064 mpi_get_digit
0000000000005b0c l     F .text	000000000000040c mpi_mul_hlp
0000000000005f18 l     F .text	0000000000000038 mpi_montg_init.isra.0
0000000000005f50 l     F .text	00000000000000ac mpi_bigendian_to_host.part.0
0000000000005ffc l     F .text	00000000000000c0 mpi_fill_random_internal
00000000000060bc l     F .text	0000000000000148 mpi_montmul.isra.0
0000000000006204 l     F .text	0000000000000078 mpi_montred
0000000000006408 l     F .text	000000000000006c mbedtls_mpi_resize_clear
0000000000008140 l     F .text	00000000000000c4 mpi_check_small_factors
0000000000008b24 l     F .text	00000000000002a4 mpi_miller_rabin
000000000000f604 l     O .rodata	00000000000002a0 small_prime
000000000000f8a4 l     O .rodata	0000000000000024 gcd_pairs
0000000000000000 l    df *ABS*	0000000000000000 constant_time.c
0000000000009c38 l     F .text	0000000000000020 mbedtls_ct_uchar_mask_of_range
0000000000000000 l    df *ABS*	0000000000000000 platform_util.c
0000000000111508 l     O .data	0000000000000008 memset_func
0000000000000000 l    df *ABS*	0000000000000000 bget_malloc.c
000000000000a418 l     F .text	0000000000000010 _assert_trap
000000000000a428 l     F .text	0000000000000038 raw_malloc_return_hook.isra.0
000000000000a460 l     F .text	0000000000000028 bget_buf_size.part.0
0000000000110655 l     O .rodata	000000000000000e __func__.3996
0000000000110663 l     O .rodata	0000000000000005 __func__.3908
0000000000110668 l     O .rodata	0000000000000006 __func__.3928
000000000011066e l     O .rodata	0000000000000005 __func__.3949
0000000000110673 l     O .rodata	0000000000000006 __func__.3939
0000000000110679 l     O .rodata	0000000000000006 __func__.3958
000000000011067f l     O .rodata	0000000000000007 __func__.3968
0000000000110686 l     O .rodata	0000000000000014 __func__.4197
000000000011069a l     O .rodata	0000000000000013 __func__.4061
0000000000111510 l     O .data	0000000000000080 malloc_ctx
0000000000000000 l    df *ABS*	0000000000000000 snprintf.c
0000000000000000 l    df *ABS*	0000000000000000 stack_check.c
0000000000000000 l    df *ABS*	0000000000000000 memmove.c
0000000000000000 l    df *ABS*	0000000000000000 memset.c
0000000000000000 l    df *ABS*	0000000000000000 strcmp.c
0000000000000000 l    df *ABS*	0000000000000000 strlen.c
0000000000000000 l    df *ABS*	0000000000000000 snprintk.c
000000000000b748 l     F .text	0000000000000be0 kprintf.constprop.0
000000000000f952 l     O .rodata	0000000000000011 HEXDIGITS
000000000000f963 l     O .rodata	0000000000000011 hexdigits
0000000000000000 l    df *ABS*	0000000000000000 strlcpy.c
0000000000000000 l    df *ABS*	0000000000000000 trace.c
000000000000c3cc l     F .text	000000000000010c append
0000000000110737 l     O .rodata	0000000000000005 lvl_strs.3595
000000000011073c l     O .rodata	000000000000000a __func__.3657
0000000000000000 l    df *ABS*	0000000000000000 mempool.c
00000000001107cf l     O .rodata	0000000000000013 __func__.3711
00000000001107e2 l     O .rodata	000000000000000b __func__.3692
00000000001107ed l     O .rodata	000000000000000e __func__.3717
0000000000000000 l    df *ABS*	0000000000000000 consttime_memcmp.c
0000000000000000 l    df *ABS*	0000000000000000 memchr.c
0000000000000000 l    df *ABS*	0000000000000000 
0000000000111000 l     O *ABS*	0000000000000000 _DYNAMIC
0000000000111128 l     O *ABS*	0000000000000000 _GLOBAL_OFFSET_TABLE_
0000000000000cdc g     F .text	0000000000000070 putchar
00000000000027f0 g     F .text	0000000000000008 __GP11_TEE_BigIntConvertFromOctetString
0000000000003d1c g     F .text	0000000000000004 TEE_BigIntConvertToFMM
0000000000003590 g     F .text	000000000000000c TEE_BigIntSquareMod
0000000000002d6c g     F .text	00000000000001a0 TEE_BigIntShiftRight
000000000000afe0 g     F .text	000000000000011c raw_malloc_add_pool
000000000000539c g     F .text	0000000000000110 tee_invoke_supp_plugin
0000000000006320 g     F .text	00000000000000e8 mbedtls_mpi_grow
0000000000004f0c g     F .text	0000000000000128 __GP11_TEE_GetPropertyName
0000000000001d14 g     F .text	00000000000000d8 TEE_Realloc
00000000000041f8 g     F .text	000000000000002c __utee_check_inout_annotation
000000000000ad98 g     F .text	0000000000000010 raw_free
0000000000000b9c g     F .text	0000000000000100 printf
0000000000003108 g     F .text	000000000000002c TEE_BigIntAbs
00000000000008b8 g     F .text	000000000000000c _utee_log
0000000000001704 g     F .text	0000000000000184 TEE_InvokeTACommand
0000000000003fa0 g     F .text	0000000000000064 __utee_check_outbuf_annotation
000000000000628c g     F .text	0000000000000028 mbedtls_mpi_init_mempool
0000000000000a38 g     F .text	000000000000000c _utee_cryp_random_number_generate
0000000000006a88 g     F .text	00000000000000c4 mbedtls_mpi_write_binary
000000000000b624 g     F .text	0000000000000058 vsnprintk
0000000000007304 g     F .text	0000000000000074 mbedtls_mpi_sub_int
000000000000b4ac g     F .text	000000000000005c memmove
000000000000b354 g     F .text	00000000000000d0 snprintf
0000000000002b20 g     F .text	000000000000007c TEE_BigIntCmpS32
0000000000001a24 g     F .text	0000000000000008 __GP11_TEE_MemMove
0000000000111590 g     O .data	0000000000000008 __stack_chk_guard
000000000000a17c g     F .text	000000000000027c mbedtls_ct_rsaes_pkcs1_v15_unpadding
0000000000006474 g     F .text	0000000000000120 mbedtls_mpi_shrink
0000000000001a3c g     F .text	0000000000000008 __GP11_TEE_MemFill
0000000000003134 g     F .text	000000000000000c TEE_BigIntAdd
00000000000009d8 g     F .text	000000000000000c _utee_cryp_obj_restrict_usage
000000000000f538 g     O .rodata	0000000000000008 ta_heap_size
0000000000000a80 g     F .text	000000000000000c _utee_asymm_operate
0000000000005850 g     F .text	0000000000000018 _base64_enc_len
00000000000075cc g     F .text	000000000000020c mbedtls_mpi_read_string
000000000000314c g     F .text	00000000000000e4 TEE_BigIntNeg
0000000000000ad4 g     F .text	000000000000000c _utee_storage_free_enum
0000000000000020 g       .text	0000000000000000 __text_start
00000000000050bc g     F .text	00000000000000e0 TEE_GetNextProperty
0000000000006c5c g     F .text	00000000000000c0 mbedtls_mpi_shift_r
000000000000b340 g     F .text	0000000000000014 malloc_buffer_overlaps_heap
0000000000000984 g     F .text	000000000000000c _utee_hash_init
0000000000003578 g     F .text	000000000000000c TEE_BigIntSubMod
00000000000094c4 g     F .text	000000000000034c mbedtls_mpi_gen_prime
0000000000004c3c g     F .text	0000000000000098 TEE_GetPropertyAsBinaryBlock
0000000000006750 g     F .text	000000000000002c mbedtls_mpi_get_bit
000000000000f530 g     O .rodata	0000000000000008 __ta_no_share_heap_size
000000000000694c g     F .text	0000000000000084 mbedtls_mpi_read_binary
000000000000c720 g     F .text	00000000000000e0 trace_printf
000000000000820c g     F .text	0000000000000008 mbedtls_mpi_montmul
0000000000000b40 g     F .text	000000000000000c _utee_cache_operation
0000000000000020 g     F .text	00000000000000ec memcpy
0000000000003d20 g     F .text	00000000000000d0 TEE_BigIntConvertFromFMM
0000000000003f54 g     F .text	0000000000000008 TEE_Panic
0000000000000c9c g     F .text	0000000000000040 puts
0000000000003df0 g     F .text	0000000000000148 TEE_BigIntComputeFMM
000000000000b308 g     F .text	0000000000000010 malloc_get_stats
0000000000001b60 g     F .text	0000000000000028 TEE_GetREETime
000000000000b2cc g     F .text	000000000000003c raw_malloc_get_stats
00000000001113b0 g     O .data	00000000000000d8 ta_props
0000000000001cac g     F .text	0000000000000008 __GP11_TEE_Malloc
00000000000015bc g     F .text	0000000000000148 __GP11_TEE_OpenTASession
0000000000004068 g     F .text	000000000000003c __utee_check_instring_annotation
000000000000af0c g     F .text	0000000000000018 malloc
0000000000004ef8 g     F .text	0000000000000004 TEE_FreePropertyEnumerator
0000000000009cb0 g     F .text	0000000000000010 mbedtls_ct_mpi_uint_mask
000000000000b424 g     F .text	0000000000000058 vsnprintf
0000000000111598 g     O .data	0000000000000004 trace_level
0000000000002a8c g     F .text	0000000000000094 TEE_BigIntCmp
000000000000f510 g     O .rodata	0000000000000008 ta_num_props
000000000000aab8 g     F .text	00000000000000d0 bgetr
0000000000000a98 g     F .text	000000000000000c _utee_storage_obj_open
0000000000001a30 g     F .text	0000000000000008 __GP11_TEE_MemCompare
000000000000cb14 g     F .text	0000000000000014 mempool_free
0000000000000990 g     F .text	000000000000000c _utee_hash_update
00000000000027f8 g     F .text	00000000000000c8 TEE_BigIntConvertToOctetString
000000000000685c g     F .text	000000000000005c mbedtls_mpi_bitlen
0000000000002f14 g     F .text	0000000000000080 TEE_BigIntGetBit
000000000000f540 g     O .rodata	0000000000000003 trace_ext_prefix
0000000000000af8 g     F .text	000000000000000c _utee_storage_next_enum
000000000000ad88 g     F .text	0000000000000010 raw_malloc
000000000000a76c g     F .text	0000000000000088 bgetz
0000000000009cc0 g     F .text	0000000000000018 mbedtls_ct_size_bool_eq
0000000000001a14 g     F .text	000000000000000c TEE_GetInstanceData
0000000000001a6c g     F .text	000000000000003c TEE_Wait
0000000000007378 g     F .text	00000000000001ac mbedtls_mpi_mul_mpi
0000000000002f0c g     F .text	0000000000000008 __GP11_TEE_BigIntShiftRight
0000000000001dfc g     F .text	0000000000000008 TEE_CacheFlush
000000000000c504 g     F .text	000000000000021c trace_vprintf
0000000000000114 g     F .text	0000000000000004 TA_DestroyEntryPoint
000000000000627c g     F .text	0000000000000010 mbedtls_mpi_init
0000000000000ab0 g     F .text	000000000000000c _utee_storage_obj_del
0000000000006808 g     F .text	0000000000000054 mbedtls_mpi_lsb
00000000000057f8 g     F .text	0000000000000044 _assert_log
000000000000096c g     F .text	000000000000000c _utee_cryp_state_copy
0000000000003cfc g     F .text	0000000000000008 TEE_BigIntFMMContextSizeInU32
00000000000052d4 g     F .text	00000000000000c8 tee_unmap
0000000000009cf4 g     F .text	0000000000000030 mbedtls_ct_uint_if
0000000000002670 g     F .text	0000000000000050 _TEE_MathAPI_Init
00000000000054ac g     F .text	0000000000000240 __utee_tcb_init
000000000000717c g     F .text	0000000000000088 mbedtls_mpi_add_mpi
0000000000000b4c g     F .text	0000000000000020 abort
0000000000008dc8 g     F .text	00000000000001b8 mbedtls_mpi_random
000000000000b47c g     F .text	0000000000000030 __stack_chk_fail
000000000000416c g     F .text	000000000000002c __utee_check_out_annotation
0000000000114e40 g     O .bss	0000000000000800 ta_heap
000000000000359c g     F .text	0000000000000150 TEE_BigIntInvMod
0000000000000418 g     F .text	0000000000000158 __utee_call_elf_init_fn
000000000000012c g     F .text	0000000000000004 TA_CloseSessionEntryPoint
00000000000008f4 g     F .text	000000000000000c _utee_close_ta_session
0000000000003cc4 g     F .text	0000000000000008 __GP11_TEE_BigIntInitFMMContext
0000000000007204 g     F .text	000000000000008c mbedtls_mpi_sub_mpi
000000000000cb28 g     F .text	0000000000000070 consttime_memcmp
00000000000008ac g     F .text	000000000000000c _utee_return
00000000000008c4 g     F .text	000000000000000c __utee_panic
0000000000009c58 g     F .text	0000000000000048 mbedtls_ct_memcmp
00000000000056ec g     F .text	000000000000001c __tls_get_addr
0000000000000130 g     F .text	0000000000000008 TA_InvokeCommandEntryPoint
0000000000000570 g     F .text	0000000000000010 __utee_call_elf_fini_fn
000000000000af9c g     F .text	0000000000000010 free_wipe
000000000000ca60 g     F .text	0000000000000064 mempool_alloc
00000000000008a0 g     F .text	000000000000000c _utee_panic
000000000000afb4 g     F .text	000000000000002c raw_malloc_init_ctx
000000000000cac4 g     F .text	0000000000000050 mempool_calloc
0000000000000b34 g     F .text	000000000000000c _utee_cryp_obj_generate_key
0000000000000b1c g     F .text	000000000000000c _utee_storage_obj_trunc
00000000001114a8 g     O .data	0000000000000060 tee_props
0000000000000924 g     F .text	000000000000000c _utee_unmask_cancellation
0000000000004ea4 g     F .text	000000000000000c TEE_ResetPropertyEnumerator
000000000000af24 g     F .text	000000000000001c calloc
0000000000001b88 g     F .text	0000000000000124 TEE_Malloc
0000000000001244 g     F .text	0000000000000088 TEE_CheckMemoryAccessRights
0000000000004cd4 g     F .text	00000000000000e8 TEE_GetPropertyAsUUID
00000000000008d0 g     F .text	000000000000000c _utee_get_property
0000000000003008 g     F .text	00000000000000b0 TEE_BigIntSetBit
00000000000066e8 g     F .text	0000000000000068 mbedtls_mpi_lset
0000000000000118 g     F .text	0000000000000014 TA_OpenSessionEntryPoint
0000000000005708 g     F .text	00000000000000f0 dl_iterate_phdr
0000000000115640 g       .bss	0000000000000000 __ftrace_buf_end
00000000001115b0 g     O .bss	0000000000000004 ta_param_types
0000000000007d0c g     F .text	0000000000000074 mbedtls_mpi_div_int
00000000000093d8 g     F .text	00000000000000dc mbedtls_mpi_is_prime_ext
0000000000003c30 g     F .text	0000000000000084 TEE_BigIntIsProbablePrime
0000000000007524 g     F .text	00000000000000a8 mbedtls_mpi_mul_int
0000000000008218 g     F .text	00000000000006cc mbedtls_mpi_exp_mod
0000000000009ecc g     F .text	00000000000000bc mbedtls_mpi_safe_cond_assign
00000000000045b4 g     F .text	000000000000025c TEE_GetPropertyAsString
000000000000a084 g     F .text	00000000000000f8 mbedtls_mpi_lt_mpi_ct
00000000000026c0 g     F .text	0000000000000060 TEE_BigIntInit
00000000000028c0 g     F .text	0000000000000060 __GP11_TEE_BigIntConvertToOctetString
00000000000030b8 g     F .text	0000000000000050 TEE_BigIntAssign
00000000000040a4 g     F .text	0000000000000064 __utee_check_outstring_annotation
0000000000001a20 g     F .text	0000000000000004 TEE_MemMove
000000000000a3f8 g     F .text	0000000000000020 mbedtls_platform_zeroize
0000000000002728 g     F .text	00000000000000c8 TEE_BigIntConvertFromOctetString
0000000000000a74 g     F .text	000000000000000c _utee_authenc_dec_final
0000000000006d1c g     F .text	000000000000009c mbedtls_mpi_cmp_abs
0000000000000b04 g     F .text	000000000000000c _utee_storage_obj_read
000000000000cb98 g     F .text	000000000000002c memchr
0000000000001184 g     F .text	0000000000000060 TEE_UnmaskCancellation
0000000000009810 g     F .text	0000000000000428 mbedtls_mpi_self_test
0000000000004004 g     F .text	0000000000000064 __utee_check_gp11_outbuf_annotation
0000000000000b28 g     F .text	000000000000000c _utee_storage_obj_seek
0000000000000918 g     F .text	000000000000000c _utee_check_access_rights
0000000000001888 g     F .text	0000000000000178 __GP11_TEE_InvokeTACommand
0000000000006e8c g     F .text	0000000000000074 mbedtls_mpi_cmp_int
0000000000005984 g     F .text	0000000000000124 _base64_dec
0000000000000ae0 g     F .text	000000000000000c _utee_storage_reset_enum
0000000000009e10 g     F .text	00000000000000bc mbedtls_ct_base64_dec_value
0000000000004198 g     F .text	0000000000000030 __utee_check_attr_in_annotation
0000000000000a5c g     F .text	000000000000000c _utee_authenc_update_payload
0000000000003500 g     F .text	000000000000006c TEE_BigIntMod
0000000000007e34 g     F .text	000000000000009c mbedtls_mpi_mod_int
00000000000068d4 g     F .text	0000000000000078 mbedtls_mpi_read_binary_le
000000000000334c g     F .text	00000000000001b4 TEE_BigIntDiv
00000000000009f0 g     F .text	000000000000000c _utee_cryp_obj_alloc
0000000000115640 g       .bss	0000000000000000 __ftrace_buf_start
000000000000c374 g     F .text	0000000000000058 strlcpy
0000000000009d60 g     F .text	00000000000000b0 mbedtls_ct_base64_enc_char
0000000000006594 g     F .text	00000000000000cc mbedtls_mpi_copy
000000000000acec g     F .text	0000000000000018 malloc_reset_stats
0000000000004dbc g     F .text	00000000000000e8 TEE_GetPropertyAsIdentity
000000000000c328 g     F .text	000000000000004c __vsprintf
0000000000004a68 g     F .text	00000000000000e8 TEE_GetPropertyAsU64
0000000000000954 g     F .text	000000000000000c _utee_set_ta_time
0000000000000900 g     F .text	000000000000000c _utee_invoke_ta_command
000000000000af40 g     F .text	0000000000000018 realloc
0000000000006660 g     F .text	0000000000000088 mbedtls_mpi_swap
000000000000c998 g     F .text	00000000000000c8 mempool_alloc_pool
0000000000003230 g     F .text	0000000000000114 TEE_BigIntMul
000000000000afac g     F .text	0000000000000008 raw_malloc_get_ctx_size
0000000000006b4c g     F .text	0000000000000110 mbedtls_mpi_shift_l
0000000000006db8 g     F .text	00000000000000d4 mbedtls_mpi_cmp_mpi
0000000000001a38 g     F .text	0000000000000004 TEE_MemFill
000000000000b318 g     F .text	0000000000000014 malloc_add_pool
000000000000c4f4 g     F .text	0000000000000010 trace_get_level
0000000000006f00 g     F .text	0000000000000120 mbedtls_mpi_add_abs
0000000000003cd4 g     F .text	0000000000000010 TEE_BigIntFMMSizeInU32
00000000000048a8 g     F .text	00000000000000d8 TEE_GetPropertyAsBool
000000000000ae18 g     F .text	00000000000000f4 raw_realloc
0000000000003cb4 g     F .text	0000000000000004 TEE_BigIntInitFMM
00000000000009a8 g     F .text	000000000000000c _utee_cipher_init
0000000000000618 g     F .text	0000000000000288 __utee_entry
0000000000004980 g     F .text	00000000000000e8 TEE_GetPropertyAsU32
000000000000cbc4 g       .text	0000000000000000 __text_end
00000000000036ec g     F .text	0000000000000108 TEE_BigIntRelativePrime
0000000000007d80 g     F .text	00000000000000b4 mbedtls_mpi_mod_mpi
00000000000009cc g     F .text	000000000000000c _utee_cryp_obj_get_info
000000000000ab88 g     F .text	00000000000000d0 bpool
0000000000004eb0 g     F .text	0000000000000048 TEE_AllocatePropertyEnumerator
0000000000000960 g     F .text	000000000000000c _utee_cryp_state_alloc
0000000000001124 g     F .text	0000000000000060 TEE_GetCancellationFlag
00000000000088e4 g     F .text	00000000000001d8 mbedtls_mpi_gcd
0000000000001b1c g     F .text	0000000000000044 TEE_SetTAPersistentTime
00000000000069d0 g     F .text	00000000000000b8 mbedtls_mpi_write_binary_le
000000000000b508 g     F .text	000000000000001c memset
000000000000ad04 g     F .text	0000000000000084 raw_memalign
0000000000001aa8 g     F .text	0000000000000074 TEE_GetTAPersistentTime
000000000000c800 g     F .text	0000000000000198 dhex_dump
00000000000011e4 g     F .text	0000000000000060 TEE_MaskCancellation
00000000000009e4 g     F .text	000000000000000c _utee_cryp_obj_get_attr
00000000000009c0 g     F .text	000000000000000c _utee_cipher_final
000000000000c4d8 g     F .text	000000000000001c trace_set_level
0000000000009cd8 g     F .text	000000000000001c mbedtls_ct_mpi_uint_lt
0000000000000978 g     F .text	000000000000000c _utee_cryp_state_free
000000000000b524 g     F .text	0000000000000024 strcmp
00000000000008e8 g     F .text	000000000000000c _utee_open_ta_session
00000000000029d0 g     F .text	00000000000000bc TEE_BigIntConvertToS32
0000000000003140 g     F .text	000000000000000c TEE_BigIntSub
000000000000014c g     F .text	0000000000000008 tahead_get_trace_level
0000000000000aec g     F .text	000000000000000c _utee_storage_start_enum
0000000000005224 g     F .text	00000000000000b0 tee_map_zi
0000000000008214 g     F .text	0000000000000004 mbedtls_mpi_montred
000000000000af58 g     F .text	000000000000001c memalign
0000000000009ca0 g     F .text	0000000000000010 mbedtls_ct_uint_mask
0000000000002720 g     F .text	0000000000000008 __GP11_TEE_BigIntInit
0000000000002920 g     F .text	00000000000000b0 TEE_BigIntConvertFromS32
0000000000007290 g     F .text	0000000000000074 mbedtls_mpi_add_int
0000000000000a68 g     F .text	000000000000000c _utee_authenc_enc_final
000000000000b32c g     F .text	0000000000000014 malloc_buffer_is_within_alloced
00000000000009fc g     F .text	000000000000000c _utee_cryp_obj_close
0000000000003cc0 g     F .text	0000000000000004 TEE_BigIntInitFMMContext
0000000000000930 g     F .text	000000000000000c _utee_mask_cancellation
00000000001115b8 g     O .bss	0000000000000008 __ta_no_share_malloc_ctx
0000000000000abc g     F .text	000000000000000c _utee_storage_obj_rename
0000000000001a00 g     F .text	0000000000000008 __GP11_TEE_CheckMemoryAccessRights
0000000000003344 g     F .text	0000000000000008 TEE_BigIntSquare
0000000000000b10 g     F .text	000000000000000c _utee_storage_obj_write
000000000000010c g     F .text	0000000000000008 TA_CreateEntryPoint
0000000000000138 g     F .text	0000000000000014 __ta_entry
0000000000115640 g     O .bss	0000000000000000 __ta_no_share_heap
0000000000000a50 g     F .text	000000000000000c _utee_authenc_update_aad
0000000000008204 g     F .text	0000000000000008 mbedtls_mpi_montg_init
000000000000b67c g     F .text	00000000000000cc snprintk
0000000000002f94 g     F .text	0000000000000074 TEE_BigIntGetBitCount
0000000000000a20 g     F .text	000000000000000c _utee_cryp_obj_copy
0000000000003584 g     F .text	000000000000000c TEE_BigIntMulMod
0000000000008f80 g     F .text	0000000000000458 mbedtls_mpi_inv_mod
00000000000041c8 g     F .text	0000000000000030 __utee_check_gp11_attr_in_annotation
00000000001115c0 g     O .bss	0000000000000040 ta_params
00000000000077d8 g     F .text	0000000000000534 mbedtls_mpi_div_mpi
0000000000004108 g     F .text	0000000000000064 __utee_check_gp11_outstring_annotation
00000000000068b8 g     F .text	000000000000001c mbedtls_mpi_size
000000000000a488 g     F .text	00000000000002e4 bget
0000000000003d04 g     F .text	0000000000000018 __GP11_TEE_BigIntFMMContextSizeInU32
0000000000004efc g     F .text	0000000000000010 TEE_StartPropertyEnumerator
000000000000093c g     F .text	000000000000000c _utee_wait
000000000000677c g     F .text	000000000000008c mbedtls_mpi_set_bit
0000000000001cb4 g     F .text	0000000000000060 TEE_Free
00000000000094b4 g     F .text	0000000000000010 mbedtls_mpi_is_prime
0000000000001e04 g     F .text	0000000000000008 TEE_CacheInvalidate
000000000000583c g     F .text	0000000000000014 _assert_break
000000000000356c g     F .text	000000000000000c TEE_BigIntAddMod
0000000000009d24 g     F .text	000000000000003c mbedtls_ct_mpi_uint_cond_assign
0000000000003cb8 g     F .text	0000000000000008 __GP11_TEE_BigIntInitFMM
0000000000000948 g     F .text	000000000000000c _utee_get_time
0000000000005034 g     F .text	0000000000000088 TEE_GetPropertyName
0000000000001dec g     F .text	0000000000000008 __GP11_TEE_Realloc
0000000000000a14 g     F .text	000000000000000c _utee_cryp_obj_populate
0000000000001a2c g     F .text	0000000000000004 TEE_MemCompare
00000000000009b4 g     F .text	000000000000000c _utee_cipher_update
000000000000b564 g     F .text	00000000000000c0 __vsnprintf
0000000000111600 g     O .bss	0000000000000010 __elf_phdr_info
0000000000001468 g     F .text	0000000000000154 TEE_OpenTASession
0000000000000b6c g     F .text	0000000000000028 trace_ext_puts
0000000000004810 g     F .text	0000000000000098 __GP11_TEE_GetPropertyAsString
000000000000b17c g     F .text	0000000000000150 raw_malloc_buffer_is_within_alloced
0000000000000b94 g     F .text	0000000000000008 trace_ext_get_thread_id
000000000000b0fc g     F .text	0000000000000080 raw_malloc_buffer_overlaps_heap
0000000000000a2c g     F .text	000000000000000c _utee_cryp_derive_key
00000000000062b4 g     F .text	000000000000006c mbedtls_mpi_free
0000000000000a08 g     F .text	000000000000000c _utee_cryp_obj_reset
0000000000001df4 g     F .text	0000000000000008 TEE_CacheClean
00000000000008dc g     F .text	000000000000000c _utee_get_property_name_to_index
000000000000ada8 g     F .text	0000000000000070 raw_calloc
0000000000005868 g     F .text	000000000000011c _base64_enc
0000000000009f88 g     F .text	00000000000000fc mbedtls_mpi_safe_cond_swap
0000000000000a44 g     F .text	000000000000000c _utee_authenc_init
000000000000b548 g     F .text	000000000000001c strlen
00000000000039c8 g     F .text	0000000000000268 TEE_BigIntComputeExtendedGcd
0000000000000ac8 g     F .text	000000000000000c _utee_storage_alloc_enum
00000000000037f4 g     F .text	00000000000001d4 TEE_BigIntExpMod
0000000000001a44 g     F .text	0000000000000028 TEE_GetSystemTime
0000000000000a8c g     F .text	000000000000000c _utee_asymm_verify
0000000000000000 g     O .ta_head	0000000000000020 ta_head
000000000000a7f4 g     F .text	00000000000002c4 brel
0000000000004b50 g     F .text	00000000000000ec __GP11_TEE_GetPropertyAsBinaryBlock
0000000000007020 g     F .text	000000000000015c mbedtls_mpi_sub_abs
0000000000008abc g     F .text	0000000000000068 mbedtls_mpi_fill_random
0000000000001a08 g     F .text	000000000000000c TEE_SetInstanceData
000000000000090c g     F .text	000000000000000c _utee_get_cancellation_flag
0000000000007ed0 g     F .text	0000000000000270 mbedtls_mpi_write_string
000000000000af74 g     F .text	0000000000000018 aligned_alloc
0000000000003ccc g     F .text	0000000000000008 TEE_BigIntInitFMMContext1
00000000000010fc g     F .text	0000000000000028 TEE_CloseTASession
0000000000000aa4 g     F .text	000000000000000c _utee_storage_obj_create
0000000000003ce4 g     F .text	0000000000000018 __GP11_TEE_BigIntFMMSizeInU32
000000000000af8c g     F .text	0000000000000010 free
000000000000ac58 g     F .text	0000000000000094 bstats
0000000000114e38 g     O .bss	0000000000000008 mbedtls_mpi_mempool
000000000000099c g     F .text	000000000000000c _utee_hash_final



Disassembly of section .text:

0000000000000020 <memcpy>:
memcpy():
/home/ssysarch/Desktop/nick/jetpack_5/Jetson_Linux_R35.4.1_aarch64/Linux_for_Tegra/sources/tegra/optee-src/nv-optee/optee/optee_os/lib/libutils/isoc/newlib/memcpy.c:106
      20:	f1007c5f 	cmp	x2, #0x1f
      24:	54000629 	b.ls	e8 <memcpy+0xc8>  // b.plast
/home/ssysarch/Desktop/nick/jetpack_5/Jetson_Linux_R35.4.1_aarch64/Linux_for_Tegra/sources/tegra/optee-src/nv-optee/optee/optee_os/lib/libutils/isoc/newlib/memcpy.c:106 (discriminator 1)
      28:	aa000025 	orr	x5, x1, x0
      2c:	f24008a5 	ands	x5, x5, #0x7
      30:	54000641 	b.ne	f8 <memcpy+0xd8>  // b.any
      34:	d1008048 	sub	x8, x2, #0x20
/home/ssysarch/Desktop/nick/jetpack_5/Jetson_Linux_R35.4.1_aarch64/Linux_for_Tegra/sources/tegra/optee-src/nv-optee/optee/optee_os/lib/libutils/isoc/newlib/memcpy.c:108
      38:	aa0103e4 	mov	x4, x1
      3c:	927be908 	and	x8, x8, #0xffffffffffffffe0
/home/ssysarch/Desktop/nick/jetpack_5/Jetson_Linux_R35.4.1_aarch64/Linux_for_Tegra/sources/tegra/optee-src/nv-optee/optee/optee_os/lib/libutils/isoc/newlib/memcpy.c:107
      40:	aa0003e3 	mov	x3, x0
      44:	91008108 	add	x8, x8, #0x20
      48:	8b080007 	add	x7, x0, x8
      4c:	d503201f 	nop
/home/ssysarch/Desktop/nick/jetpack_5/Jetson_Linux_R35.4.1_aarch64/Linux_for_Tegra/sources/tegra/optee-src/nv-optee/optee/optee_os/lib/libutils/isoc/newlib/memcpy.c:112
      50:	f9400086 	ldr	x6, [x4]
      54:	f9000066 	str	x6, [x3]
/home/ssysarch/Desktop/nick/jetpack_5/Jetson_Linux_R35.4.1_aarch64/Linux_for_Tegra/sources/tegra/optee-src/nv-optee/optee/optee_os/lib/libutils/isoc/newlib/memcpy.c:113
      58:	91008084 	add	x4, x4, #0x20
      5c:	91008063 	add	x3, x3, #0x20
      60:	f85e8086 	ldur	x6, [x4, #-24]
      64:	f81e8066 	stur	x6, [x3, #-24]
/home/ssysarch/Desktop/nick/jetpack_5/Jetson_Linux_R35.4.1_aarch64/Linux_for_Tegra/sources/tegra/optee-src/nv-optee/optee/optee_os/lib/libutils/isoc/newlib/memcpy.c:114
      68:	f85f0086 	ldur	x6, [x4, #-16]
      6c:	f81f0066 	stur	x6, [x3, #-16]
/home/ssysarch/Desktop/nick/jetpack_5/Jetson_Linux_R35.4.1_aarch64/Linux_for_Tegra/sources/tegra/optee-src/nv-optee/optee/optee_os/lib/libutils/isoc/newlib/memcpy.c:111
      70:	eb0300ff 	cmp	x7, x3
/home/ssysarch/Desktop/nick/jetpack_5/Jetson_Linux_R35.4.1_aarch64/Linux_for_Tegra/sources/tegra/optee-src/nv-optee/optee/optee_os/lib/libutils/isoc/newlib/memcpy.c:115
      74:	f85f8086 	ldur	x6, [x4, #-8]
      78:	f81f8066 	stur	x6, [x3, #-8]
/home/ssysarch/Desktop/nick/jetpack_5/Jetson_Linux_R35.4.1_aarch64/Linux_for_Tegra/sources/tegra/optee-src/nv-optee/optee/optee_os/lib/libutils/isoc/newlib/memcpy.c:111
      7c:	54fffea1 	b.ne	50 <memcpy+0x30>  // b.any
      80:	8b080021 	add	x1, x1, x8
/home/ssysarch/Desktop/nick/jetpack_5/Jetson_Linux_R35.4.1_aarch64/Linux_for_Tegra/sources/tegra/optee-src/nv-optee/optee/optee_os/lib/libutils/isoc/newlib/memcpy.c:120
      84:	f27d045f 	tst	x2, #0x18
      88:	92401044 	and	x4, x2, #0x1f
      8c:	540003c0 	b.eq	104 <memcpy+0xe4>  // b.none
/home/ssysarch/Desktop/nick/jetpack_5/Jetson_Linux_R35.4.1_aarch64/Linux_for_Tegra/sources/tegra/optee-src/nv-optee/optee/optee_os/lib/libutils/isoc/newlib/memcpy.c:121
      90:	f8656826 	ldr	x6, [x1, x5]
      94:	f8256866 	str	x6, [x3, x5]
/home/ssysarch/Desktop/nick/jetpack_5/Jetson_Linux_R35.4.1_aarch64/Linux_for_Tegra/sources/tegra/optee-src/nv-optee/optee/optee_os/lib/libutils/isoc/newlib/memcpy.c:120
      98:	910020a5 	add	x5, x5, #0x8
      9c:	cb050086 	sub	x6, x4, x5
      a0:	f1001cdf 	cmp	x6, #0x7
      a4:	54ffff68 	b.hi	90 <memcpy+0x70>  // b.pmore
      a8:	d1002084 	sub	x4, x4, #0x8
      ac:	92400842 	and	x2, x2, #0x7
      b0:	927df084 	and	x4, x4, #0xfffffffffffffff8
/home/ssysarch/Desktop/nick/jetpack_5/Jetson_Linux_R35.4.1_aarch64/Linux_for_Tegra/sources/tegra/optee-src/nv-optee/optee/optee_os/lib/libutils/isoc/newlib/memcpy.c:130
      b4:	d1000446 	sub	x6, x2, #0x1
      b8:	91002084 	add	x4, x4, #0x8
      bc:	8b040063 	add	x3, x3, x4
      c0:	8b040021 	add	x1, x1, x4
      c4:	b4000102 	cbz	x2, e4 <memcpy+0xc4>
/home/ssysarch/Desktop/nick/jetpack_5/Jetson_Linux_R35.4.1_aarch64/Linux_for_Tegra/sources/tegra/optee-src/nv-optee/optee/optee_os/lib/libutils/isoc/newlib/memcpy.c:99
      c8:	d2800002 	mov	x2, #0x0                   	// #0
      cc:	d503201f 	nop
/home/ssysarch/Desktop/nick/jetpack_5/Jetson_Linux_R35.4.1_aarch64/Linux_for_Tegra/sources/tegra/optee-src/nv-optee/optee/optee_os/lib/libutils/isoc/newlib/memcpy.c:131
      d0:	38626825 	ldrb	w5, [x1, x2]
/home/ssysarch/Desktop/nick/jetpack_5/Jetson_Linux_R35.4.1_aarch64/Linux_for_Tegra/sources/tegra/optee-src/nv-optee/optee/optee_os/lib/libutils/isoc/newlib/memcpy.c:130
      d4:	eb0200df 	cmp	x6, x2
/home/ssysarch/Desktop/nick/jetpack_5/Jetson_Linux_R35.4.1_aarch64/Linux_for_Tegra/sources/tegra/optee-src/nv-optee/optee/optee_os/lib/libutils/isoc/newlib/memcpy.c:131
      d8:	38226865 	strb	w5, [x3, x2]
/home/ssysarch/Desktop/nick/jetpack_5/Jetson_Linux_R35.4.1_aarch64/Linux_for_Tegra/sources/tegra/optee-src/nv-optee/optee/optee_os/lib/libutils/isoc/newlib/memcpy.c:130
      dc:	91000442 	add	x2, x2, #0x1
      e0:	54ffff81 	b.ne	d0 <memcpy+0xb0>  // b.any
/home/ssysarch/Desktop/nick/jetpack_5/Jetson_Linux_R35.4.1_aarch64/Linux_for_Tegra/sources/tegra/optee-src/nv-optee/optee/optee_os/lib/libutils/isoc/newlib/memcpy.c:135
      e4:	d65f03c0 	ret
/home/ssysarch/Desktop/nick/jetpack_5/Jetson_Linux_R35.4.1_aarch64/Linux_for_Tegra/sources/tegra/optee-src/nv-optee/optee/optee_os/lib/libutils/isoc/newlib/memcpy.c:99
      e8:	aa0003e3 	mov	x3, x0
/home/ssysarch/Desktop/nick/jetpack_5/Jetson_Linux_R35.4.1_aarch64/Linux_for_Tegra/sources/tegra/optee-src/nv-optee/optee/optee_os/lib/libutils/isoc/newlib/memcpy.c:130
      ec:	d1000446 	sub	x6, x2, #0x1
      f0:	b5fffec2 	cbnz	x2, c8 <memcpy+0xa8>
/home/ssysarch/Desktop/nick/jetpack_5/Jetson_Linux_R35.4.1_aarch64/Linux_for_Tegra/sources/tegra/optee-src/nv-optee/optee/optee_os/lib/libutils/isoc/newlib/memcpy.c:135
      f4:	d65f03c0 	ret
/home/ssysarch/Desktop/nick/jetpack_5/Jetson_Linux_R35.4.1_aarch64/Linux_for_Tegra/sources/tegra/optee-src/nv-optee/optee/optee_os/lib/libutils/isoc/newlib/memcpy.c:130
      f8:	d1000446 	sub	x6, x2, #0x1
/home/ssysarch/Desktop/nick/jetpack_5/Jetson_Linux_R35.4.1_aarch64/Linux_for_Tegra/sources/tegra/optee-src/nv-optee/optee/optee_os/lib/libutils/isoc/newlib/memcpy.c:99
      fc:	aa0003e3 	mov	x3, x0
     100:	17fffff2 	b	c8 <memcpy+0xa8>
/home/ssysarch/Desktop/nick/jetpack_5/Jetson_Linux_R35.4.1_aarch64/Linux_for_Tegra/sources/tegra/optee-src/nv-optee/optee/optee_os/lib/libutils/isoc/newlib/memcpy.c:120
     104:	aa0403e2 	mov	x2, x4
     108:	17fffff9 	b	ec <memcpy+0xcc>

000000000000010c <TA_CreateEntryPoint>:
TA_CreateEntryPoint():
/home/ssysarch/Desktop/nick/jetpack_5/Jetson_Linux_R35.4.1_aarch64/Linux_for_Tegra/sources/tegra/optee-src/nv-optee/optee/optee_test/ta/large/ta_entry.c:27
     10c:	52800000 	mov	w0, #0x0                   	// #0
     110:	d65f03c0 	ret

0000000000000114 <TA_DestroyEntryPoint>:
TA_DestroyEntryPoint():
/home/ssysarch/Desktop/nick/jetpack_5/Jetson_Linux_R35.4.1_aarch64/Linux_for_Tegra/sources/tegra/optee-src/nv-optee/optee/optee_test/ta/large/ta_entry.c:31
     114:	d65f03c0 	ret

0000000000000118 <TA_OpenSessionEntryPoint>:
TA_OpenSessionEntryPoint():
/home/ssysarch/Desktop/nick/jetpack_5/Jetson_Linux_R35.4.1_aarch64/Linux_for_Tegra/sources/tegra/optee-src/nv-optee/optee/optee_test/ta/large/ta_entry.c:41
     118:	f0000060 	adrp	x0, f000 <__text_end+0x243c>
     11c:	9125d000 	add	x0, x0, #0x974
     120:	f9000040 	str	x0, [x2]
/home/ssysarch/Desktop/nick/jetpack_5/Jetson_Linux_R35.4.1_aarch64/Linux_for_Tegra/sources/tegra/optee-src/nv-optee/optee/optee_test/ta/large/ta_entry.c:44
     124:	52800000 	mov	w0, #0x0                   	// #0
     128:	d65f03c0 	ret

000000000000012c <TA_CloseSessionEntryPoint>:
TA_CloseSessionEntryPoint():
/home/ssysarch/Desktop/nick/jetpack_5/Jetson_Linux_R35.4.1_aarch64/Linux_for_Tegra/sources/tegra/optee-src/nv-optee/optee/optee_test/ta/large/ta_entry.c:49
     12c:	d65f03c0 	ret

0000000000000130 <TA_InvokeCommandEntryPoint>:
TA_InvokeCommandEntryPoint():
/home/ssysarch/Desktop/nick/jetpack_5/Jetson_Linux_R35.4.1_aarch64/Linux_for_Tegra/sources/tegra/optee-src/nv-optee/optee/optee_test/ta/large/ta_entry.c:61
     130:	52bfffe0 	mov	w0, #0xffff0000            	// #-65536
     134:	d65f03c0 	ret

0000000000000138 <__ta_entry>:
__ta_entry():
/home/ssysarch/Desktop/nick/jetpack_5/Jetson_Linux_R35.4.1_aarch64/Linux_for_Tegra/sources/tegra/optee-src/nv-optee/optee/build/t234/export-ta_arm64/src/user_ta_header.c:51
     138:	a9bf7bfd 	stp	x29, x30, [sp, #-16]!
     13c:	910003fd 	mov	x29, sp
/home/ssysarch/Desktop/nick/jetpack_5/Jetson_Linux_R35.4.1_aarch64/Linux_for_Tegra/sources/tegra/optee-src/nv-optee/optee/build/t234/export-ta_arm64/src/user_ta_header.c:70
     140:	94000136 	bl	618 <__utee_entry>
/home/ssysarch/Desktop/nick/jetpack_5/Jetson_Linux_R35.4.1_aarch64/Linux_for_Tegra/sources/tegra/optee-src/nv-optee/optee/build/t234/export-ta_arm64/src/user_ta_header.c:81
     144:	2a0003e0 	mov	w0, w0
     148:	940001d9 	bl	8ac <_utee_return>

000000000000014c <tahead_get_trace_level>:
tahead_get_trace_level():
/home/ssysarch/Desktop/nick/jetpack_5/Jetson_Linux_R35.4.1_aarch64/Linux_for_Tegra/sources/tegra/optee-src/nv-optee/optee/build/t234/export-ta_arm64/src/user_ta_header.c:193
     14c:	52800080 	mov	w0, #0x4                   	// #4
     150:	d65f03c0 	ret

0000000000000154 <_get_fn_array>:
_get_fn_array():
/home/ssysarch/Desktop/nick/jetpack_5/Jetson_Linux_R35.4.1_aarch64/Linux_for_Tegra/sources/tegra/optee-src/nv-optee/optee/optee_os/lib/libutee/user_ta_entry.c:84
     154:	79403009 	ldrh	w9, [x0, #24]
/home/ssysarch/Desktop/nick/jetpack_5/Jetson_Linux_R35.4.1_aarch64/Linux_for_Tegra/sources/tegra/optee-src/nv-optee/optee/optee_os/lib/libutee/user_ta_entry.c:95
     158:	93407c21 	sxtw	x1, w1
/home/ssysarch/Desktop/nick/jetpack_5/Jetson_Linux_R35.4.1_aarch64/Linux_for_Tegra/sources/tegra/optee-src/nv-optee/optee/optee_os/lib/libutee/user_ta_entry.c:98
     15c:	93407c42 	sxtw	x2, w2
/home/ssysarch/Desktop/nick/jetpack_5/Jetson_Linux_R35.4.1_aarch64/Linux_for_Tegra/sources/tegra/optee-src/nv-optee/optee/optee_os/lib/libutee/user_ta_entry.c:84
     160:	d2800007 	mov	x7, #0x0                   	// #0
/home/ssysarch/Desktop/nick/jetpack_5/Jetson_Linux_R35.4.1_aarch64/Linux_for_Tegra/sources/tegra/optee-src/nv-optee/optee/optee_os/lib/libutee/user_ta_entry.c:85
     164:	d280070a 	mov	x10, #0x38                  	// #56
/home/ssysarch/Desktop/nick/jetpack_5/Jetson_Linux_R35.4.1_aarch64/Linux_for_Tegra/sources/tegra/optee-src/nv-optee/optee/optee_os/lib/libutee/user_ta_entry.c:84 (discriminator 1)
     168:	eb07013f 	cmp	x9, x7
     16c:	54000048 	b.hi	174 <_get_fn_array+0x20>  // b.pmore
/home/ssysarch/Desktop/nick/jetpack_5/Jetson_Linux_R35.4.1_aarch64/Linux_for_Tegra/sources/tegra/optee-src/nv-optee/optee/optee_os/lib/libutee/user_ta_entry.c:104
     170:	d65f03c0 	ret
/home/ssysarch/Desktop/nick/jetpack_5/Jetson_Linux_R35.4.1_aarch64/Linux_for_Tegra/sources/tegra/optee-src/nv-optee/optee/optee_os/lib/libutee/user_ta_entry.c:85
     174:	9b0a7ce5 	mul	x5, x7, x10
     178:	f9400808 	ldr	x8, [x0, #16]
     17c:	8b050106 	add	x6, x8, x5
/home/ssysarch/Desktop/nick/jetpack_5/Jetson_Linux_R35.4.1_aarch64/Linux_for_Tegra/sources/tegra/optee-src/nv-optee/optee/optee_os/lib/libutee/user_ta_entry.c:86
     180:	b8656905 	ldr	w5, [x8, x5]
     184:	710008bf 	cmp	w5, #0x2
     188:	54000060 	b.eq	194 <_get_fn_array+0x40>  // b.none
/home/ssysarch/Desktop/nick/jetpack_5/Jetson_Linux_R35.4.1_aarch64/Linux_for_Tegra/sources/tegra/optee-src/nv-optee/optee/optee_os/lib/libutee/user_ta_entry.c:84
     18c:	910004e7 	add	x7, x7, #0x1
     190:	17fffff6 	b	168 <_get_fn_array+0x14>
/home/ssysarch/Desktop/nick/jetpack_5/Jetson_Linux_R35.4.1_aarch64/Linux_for_Tegra/sources/tegra/optee-src/nv-optee/optee/optee_os/lib/libutee/user_ta_entry.c:89
     194:	f9400008 	ldr	x8, [x0]
     198:	f94008c5 	ldr	x5, [x6, #16]
/home/ssysarch/Desktop/nick/jetpack_5/Jetson_Linux_R35.4.1_aarch64/Linux_for_Tegra/sources/tegra/optee-src/nv-optee/optee/optee_os/lib/libutee/user_ta_entry.c:88
     19c:	f94014c6 	ldr	x6, [x6, #40]
/home/ssysarch/Desktop/nick/jetpack_5/Jetson_Linux_R35.4.1_aarch64/Linux_for_Tegra/sources/tegra/optee-src/nv-optee/optee/optee_os/lib/libutee/user_ta_entry.c:89
     1a0:	8b0800a5 	add	x5, x5, x8
/home/ssysarch/Desktop/nick/jetpack_5/Jetson_Linux_R35.4.1_aarch64/Linux_for_Tegra/sources/tegra/optee-src/nv-optee/optee/optee_os/lib/libutee/user_ta_entry.c:90
     1a4:	927cecc6 	and	x6, x6, #0xfffffffffffffff0
     1a8:	8b0500c6 	add	x6, x6, x5
/home/ssysarch/Desktop/nick/jetpack_5/Jetson_Linux_R35.4.1_aarch64/Linux_for_Tegra/sources/tegra/optee-src/nv-optee/optee/optee_os/lib/libutee/user_ta_entry.c:90 (discriminator 1)
     1ac:	eb0600bf 	cmp	x5, x6
     1b0:	54fffee0 	b.eq	18c <_get_fn_array+0x38>  // b.none
/home/ssysarch/Desktop/nick/jetpack_5/Jetson_Linux_R35.4.1_aarch64/Linux_for_Tegra/sources/tegra/optee-src/nv-optee/optee/optee_os/lib/libutee/user_ta_entry.c:91
     1b4:	f9400068 	ldr	x8, [x3]
     1b8:	b4000068 	cbz	x8, 1c4 <_get_fn_array+0x70>
/home/ssysarch/Desktop/nick/jetpack_5/Jetson_Linux_R35.4.1_aarch64/Linux_for_Tegra/sources/tegra/optee-src/nv-optee/optee/optee_os/lib/libutee/user_ta_entry.c:91 (discriminator 1)
     1bc:	f9400088 	ldr	x8, [x4]
     1c0:	b5fffe68 	cbnz	x8, 18c <_get_fn_array+0x38>
/home/ssysarch/Desktop/nick/jetpack_5/Jetson_Linux_R35.4.1_aarch64/Linux_for_Tegra/sources/tegra/optee-src/nv-optee/optee/optee_os/lib/libutee/user_ta_entry.c:93
     1c4:	f94000a8 	ldr	x8, [x5]
     1c8:	b4fffe28 	cbz	x8, 18c <_get_fn_array+0x38>
/home/ssysarch/Desktop/nick/jetpack_5/Jetson_Linux_R35.4.1_aarch64/Linux_for_Tegra/sources/tegra/optee-src/nv-optee/optee/optee_os/lib/libutee/user_ta_entry.c:95
     1cc:	eb01011f 	cmp	x8, x1
     1d0:	540000e1 	b.ne	1ec <_get_fn_array+0x98>  // b.any
/home/ssysarch/Desktop/nick/jetpack_5/Jetson_Linux_R35.4.1_aarch64/Linux_for_Tegra/sources/tegra/optee-src/nv-optee/optee/optee_os/lib/libutee/user_ta_entry.c:96
     1d4:	f940000b 	ldr	x11, [x0]
     1d8:	f94004a8 	ldr	x8, [x5, #8]
     1dc:	8b0b0108 	add	x8, x8, x11
     1e0:	f9000068 	str	x8, [x3]
/home/ssysarch/Desktop/nick/jetpack_5/Jetson_Linux_R35.4.1_aarch64/Linux_for_Tegra/sources/tegra/optee-src/nv-optee/optee/optee_os/lib/libutee/user_ta_entry.c:101 (discriminator 2)
     1e4:	910040a5 	add	x5, x5, #0x10
/home/ssysarch/Desktop/nick/jetpack_5/Jetson_Linux_R35.4.1_aarch64/Linux_for_Tegra/sources/tegra/optee-src/nv-optee/optee/optee_os/lib/libutee/user_ta_entry.c:90 (discriminator 2)
     1e8:	17fffff1 	b	1ac <_get_fn_array+0x58>
/home/ssysarch/Desktop/nick/jetpack_5/Jetson_Linux_R35.4.1_aarch64/Linux_for_Tegra/sources/tegra/optee-src/nv-optee/optee/optee_os/lib/libutee/user_ta_entry.c:98
     1ec:	eb02011f 	cmp	x8, x2
     1f0:	54ffffa1 	b.ne	1e4 <_get_fn_array+0x90>  // b.any
/home/ssysarch/Desktop/nick/jetpack_5/Jetson_Linux_R35.4.1_aarch64/Linux_for_Tegra/sources/tegra/optee-src/nv-optee/optee/optee_os/lib/libutee/user_ta_entry.c:99
     1f4:	f94004a8 	ldr	x8, [x5, #8]
     1f8:	d343fd08 	lsr	x8, x8, #3
     1fc:	f9000088 	str	x8, [x4]
     200:	17fffff9 	b	1e4 <_get_fn_array+0x90>

0000000000000204 <_fini_iterate_phdr_cb>:
_fini_iterate_phdr_cb():
/home/ssysarch/Desktop/nick/jetpack_5/Jetson_Linux_R35.4.1_aarch64/Linux_for_Tegra/sources/tegra/optee-src/nv-optee/optee/optee_os/lib/libutee/user_ta_entry.c:140
     204:	a9bc7bfd 	stp	x29, x30, [sp, #-64]!
     208:	b0000881 	adrp	x1, 111000 <_DYNAMIC>
     20c:	910003fd 	mov	x29, sp
     210:	f9409821 	ldr	x1, [x1, #304]
/home/ssysarch/Desktop/nick/jetpack_5/Jetson_Linux_R35.4.1_aarch64/Linux_for_Tegra/sources/tegra/optee-src/nv-optee/optee/optee_os/lib/libutee/user_ta_entry.c:145
     214:	9100c3e4 	add	x4, sp, #0x30
     218:	9100a3e3 	add	x3, sp, #0x28
/home/ssysarch/Desktop/nick/jetpack_5/Jetson_Linux_R35.4.1_aarch64/Linux_for_Tegra/sources/tegra/optee-src/nv-optee/optee/optee_os/lib/libutee/user_ta_entry.c:142
     21c:	a902ffff 	stp	xzr, xzr, [sp, #40]
/home/ssysarch/Desktop/nick/jetpack_5/Jetson_Linux_R35.4.1_aarch64/Linux_for_Tegra/sources/tegra/optee-src/nv-optee/optee/optee_os/lib/libutee/user_ta_entry.c:140
     220:	f9400022 	ldr	x2, [x1]
     224:	f9001fe2 	str	x2, [sp, #56]
     228:	d2800002 	mov	x2, #0x0                   	// #0
     22c:	f9000bf3 	str	x19, [sp, #16]
/home/ssysarch/Desktop/nick/jetpack_5/Jetson_Linux_R35.4.1_aarch64/Linux_for_Tegra/sources/tegra/optee-src/nv-optee/optee/optee_os/lib/libutee/user_ta_entry.c:147
     230:	d2800033 	mov	x19, #0x1                   	// #1
/home/ssysarch/Desktop/nick/jetpack_5/Jetson_Linux_R35.4.1_aarch64/Linux_for_Tegra/sources/tegra/optee-src/nv-optee/optee/optee_os/lib/libutee/user_ta_entry.c:145
     234:	52800382 	mov	w2, #0x1c                  	// #28
     238:	52800341 	mov	w1, #0x1a                  	// #26
     23c:	97ffffc6 	bl	154 <_get_fn_array>
/home/ssysarch/Desktop/nick/jetpack_5/Jetson_Linux_R35.4.1_aarch64/Linux_for_Tegra/sources/tegra/optee-src/nv-optee/optee/optee_os/lib/libutee/user_ta_entry.c:147 (discriminator 1)
     240:	f9401be0 	ldr	x0, [sp, #48]
     244:	eb13001f 	cmp	x0, x19
     248:	54000122 	b.cs	26c <_fini_iterate_phdr_cb+0x68>  // b.hs, b.nlast
/home/ssysarch/Desktop/nick/jetpack_5/Jetson_Linux_R35.4.1_aarch64/Linux_for_Tegra/sources/tegra/optee-src/nv-optee/optee/optee_os/lib/libutee/user_ta_entry.c:151
     24c:	b0000881 	adrp	x1, 111000 <_DYNAMIC>
     250:	f9409821 	ldr	x1, [x1, #304]
     254:	f9401fe0 	ldr	x0, [sp, #56]
     258:	f9400022 	ldr	x2, [x1]
     25c:	eb020000 	subs	x0, x0, x2
     260:	d2800002 	mov	x2, #0x0                   	// #0
     264:	54000100 	b.eq	284 <_fini_iterate_phdr_cb+0x80>  // b.none
     268:	94002c85 	bl	b47c <__stack_chk_fail>
/home/ssysarch/Desktop/nick/jetpack_5/Jetson_Linux_R35.4.1_aarch64/Linux_for_Tegra/sources/tegra/optee-src/nv-optee/optee/optee_os/lib/libutee/user_ta_entry.c:148 (discriminator 3)
     26c:	f94017e1 	ldr	x1, [sp, #40]
     270:	cb130000 	sub	x0, x0, x19
/home/ssysarch/Desktop/nick/jetpack_5/Jetson_Linux_R35.4.1_aarch64/Linux_for_Tegra/sources/tegra/optee-src/nv-optee/optee/optee_os/lib/libutee/user_ta_entry.c:147 (discriminator 3)
     274:	91000673 	add	x19, x19, #0x1
/home/ssysarch/Desktop/nick/jetpack_5/Jetson_Linux_R35.4.1_aarch64/Linux_for_Tegra/sources/tegra/optee-src/nv-optee/optee/optee_os/lib/libutee/user_ta_entry.c:148 (discriminator 3)
     278:	f8607820 	ldr	x0, [x1, x0, lsl #3]
     27c:	d63f0000 	blr	x0
/home/ssysarch/Desktop/nick/jetpack_5/Jetson_Linux_R35.4.1_aarch64/Linux_for_Tegra/sources/tegra/optee-src/nv-optee/optee/optee_os/lib/libutee/user_ta_entry.c:147 (discriminator 3)
     280:	17fffff0 	b	240 <_fini_iterate_phdr_cb+0x3c>
/home/ssysarch/Desktop/nick/jetpack_5/Jetson_Linux_R35.4.1_aarch64/Linux_for_Tegra/sources/tegra/optee-src/nv-optee/optee/optee_os/lib/libutee/user_ta_entry.c:151
     284:	52800000 	mov	w0, #0x0                   	// #0
     288:	f9400bf3 	ldr	x19, [sp, #16]
     28c:	a8c47bfd 	ldp	x29, x30, [sp], #64
     290:	d65f03c0 	ret

0000000000000294 <ta_header_get_session>:
ta_header_get_session():
/home/ssysarch/Desktop/nick/jetpack_5/Jetson_Linux_R35.4.1_aarch64/Linux_for_Tegra/sources/tegra/optee-src/nv-optee/optee/optee_os/lib/libutee/user_ta_entry.c:208
     294:	2a0003e1 	mov	w1, w0
/home/ssysarch/Desktop/nick/jetpack_5/Jetson_Linux_R35.4.1_aarch64/Linux_for_Tegra/sources/tegra/optee-src/nv-optee/optee/optee_os/lib/libutee/user_ta_entry.c:211
     298:	b0000880 	adrp	x0, 111000 <_DYNAMIC>
     29c:	f9424400 	ldr	x0, [x0, #1160]
/home/ssysarch/Desktop/nick/jetpack_5/Jetson_Linux_R35.4.1_aarch64/Linux_for_Tegra/sources/tegra/optee-src/nv-optee/optee/optee_os/lib/libutee/user_ta_entry.c:211 (discriminator 1)
     2a0:	b5000040 	cbnz	x0, 2a8 <ta_header_get_session+0x14>
/home/ssysarch/Desktop/nick/jetpack_5/Jetson_Linux_R35.4.1_aarch64/Linux_for_Tegra/sources/tegra/optee-src/nv-optee/optee/optee_os/lib/libutee/user_ta_entry.c:216
     2a4:	d65f03c0 	ret
/home/ssysarch/Desktop/nick/jetpack_5/Jetson_Linux_R35.4.1_aarch64/Linux_for_Tegra/sources/tegra/optee-src/nv-optee/optee/optee_os/lib/libutee/user_ta_entry.c:212
     2a8:	b9400002 	ldr	w2, [x0]
     2ac:	6b01005f 	cmp	w2, w1
     2b0:	54ffffa0 	b.eq	2a4 <ta_header_get_session+0x10>  // b.none
/home/ssysarch/Desktop/nick/jetpack_5/Jetson_Linux_R35.4.1_aarch64/Linux_for_Tegra/sources/tegra/optee-src/nv-optee/optee/optee_os/lib/libutee/user_ta_entry.c:211 (discriminator 2)
     2b4:	f9400800 	ldr	x0, [x0, #16]
     2b8:	17fffffa 	b	2a0 <ta_header_get_session+0xc>

00000000000002bc <to_utee_params>:
to_utee_params():
/home/ssysarch/Desktop/nick/jetpack_5/Jetson_Linux_R35.4.1_aarch64/Linux_for_Tegra/sources/tegra/optee-src/nv-optee/optee/optee_os/lib/libutee/user_ta_entry.c:270
     2bc:	2a0103e3 	mov	w3, w1
     2c0:	f8008403 	str	x3, [x0], #8
     2c4:	52800003 	mov	w3, #0x0                   	// #0
/home/ssysarch/Desktop/nick/jetpack_5/Jetson_Linux_R35.4.1_aarch64/Linux_for_Tegra/sources/tegra/optee-src/nv-optee/optee/optee_os/lib/libutee/user_ta_entry.c:272
     2c8:	1ac32425 	lsr	w5, w1, w3
     2cc:	12000ca4 	and	w4, w5, #0xf
     2d0:	721e04bf 	tst	w5, #0xc
     2d4:	54000181 	b.ne	304 <to_utee_params+0x48>  // b.any
     2d8:	340001c4 	cbz	w4, 310 <to_utee_params+0x54>
/home/ssysarch/Desktop/nick/jetpack_5/Jetson_Linux_R35.4.1_aarch64/Linux_for_Tegra/sources/tegra/optee-src/nv-optee/optee/optee_os/lib/libutee/user_ta_entry.c:276
     2dc:	b9400044 	ldr	w4, [x2]
     2e0:	f9000004 	str	x4, [x0]
/home/ssysarch/Desktop/nick/jetpack_5/Jetson_Linux_R35.4.1_aarch64/Linux_for_Tegra/sources/tegra/optee-src/nv-optee/optee/optee_os/lib/libutee/user_ta_entry.c:277
     2e4:	b9400444 	ldr	w4, [x2, #4]
/home/ssysarch/Desktop/nick/jetpack_5/Jetson_Linux_R35.4.1_aarch64/Linux_for_Tegra/sources/tegra/optee-src/nv-optee/optee/optee_os/lib/libutee/user_ta_entry.c:283
     2e8:	f9000404 	str	x4, [x0, #8]
/home/ssysarch/Desktop/nick/jetpack_5/Jetson_Linux_R35.4.1_aarch64/Linux_for_Tegra/sources/tegra/optee-src/nv-optee/optee/optee_os/lib/libutee/user_ta_entry.c:271 (discriminator 2)
     2ec:	11001063 	add	w3, w3, #0x4
     2f0:	91004042 	add	x2, x2, #0x10
     2f4:	91004000 	add	x0, x0, #0x10
     2f8:	7100407f 	cmp	w3, #0x10
     2fc:	54fffe61 	b.ne	2c8 <to_utee_params+0xc>  // b.any
/home/ssysarch/Desktop/nick/jetpack_5/Jetson_Linux_R35.4.1_aarch64/Linux_for_Tegra/sources/tegra/optee-src/nv-optee/optee/optee_os/lib/libutee/user_ta_entry.c:291
     300:	d65f03c0 	ret
/home/ssysarch/Desktop/nick/jetpack_5/Jetson_Linux_R35.4.1_aarch64/Linux_for_Tegra/sources/tegra/optee-src/nv-optee/optee/optee_os/lib/libutee/user_ta_entry.c:272
     304:	51001484 	sub	w4, w4, #0x5
     308:	7100089f 	cmp	w4, #0x2
     30c:	54000069 	b.ls	318 <to_utee_params+0x5c>  // b.plast
/home/ssysarch/Desktop/nick/jetpack_5/Jetson_Linux_R35.4.1_aarch64/Linux_for_Tegra/sources/tegra/optee-src/nv-optee/optee/optee_os/lib/libutee/user_ta_entry.c:287
     310:	a9007c1f 	stp	xzr, xzr, [x0]
/home/ssysarch/Desktop/nick/jetpack_5/Jetson_Linux_R35.4.1_aarch64/Linux_for_Tegra/sources/tegra/optee-src/nv-optee/optee/optee_os/lib/libutee/user_ta_entry.c:288
     314:	17fffff6 	b	2ec <to_utee_params+0x30>
/home/ssysarch/Desktop/nick/jetpack_5/Jetson_Linux_R35.4.1_aarch64/Linux_for_Tegra/sources/tegra/optee-src/nv-optee/optee/optee_os/lib/libutee/user_ta_entry.c:282
     318:	f9400044 	ldr	x4, [x2]
     31c:	f9000004 	str	x4, [x0]
/home/ssysarch/Desktop/nick/jetpack_5/Jetson_Linux_R35.4.1_aarch64/Linux_for_Tegra/sources/tegra/optee-src/nv-optee/optee/optee_os/lib/libutee/user_ta_entry.c:283
     320:	f9400444 	ldr	x4, [x2, #8]
     324:	17fffff1 	b	2e8 <to_utee_params+0x2c>

0000000000000328 <from_utee_params>:
from_utee_params():
/home/ssysarch/Desktop/nick/jetpack_5/Jetson_Linux_R35.4.1_aarch64/Linux_for_Tegra/sources/tegra/optee-src/nv-optee/optee/optee_os/lib/libutee/user_ta_entry.c:298
     328:	f8408445 	ldr	x5, [x2], #8
     32c:	52800003 	mov	w3, #0x0                   	// #0
     330:	2a0503e9 	mov	w9, w5
/home/ssysarch/Desktop/nick/jetpack_5/Jetson_Linux_R35.4.1_aarch64/Linux_for_Tegra/sources/tegra/optee-src/nv-optee/optee/optee_os/lib/libutee/user_ta_entry.c:304
     334:	1ac32528 	lsr	w8, w9, w3
     338:	12000d04 	and	w4, w8, #0xf
     33c:	721e051f 	tst	w8, #0xc
/home/ssysarch/Desktop/nick/jetpack_5/Jetson_Linux_R35.4.1_aarch64/Linux_for_Tegra/sources/tegra/optee-src/nv-optee/optee/optee_os/lib/libutee/user_ta_entry.c:302
     340:	a9401847 	ldp	x7, x6, [x2]
/home/ssysarch/Desktop/nick/jetpack_5/Jetson_Linux_R35.4.1_aarch64/Linux_for_Tegra/sources/tegra/optee-src/nv-optee/optee/optee_os/lib/libutee/user_ta_entry.c:304
     344:	54000081 	b.ne	354 <from_utee_params+0x2c>  // b.any
     348:	340000c4 	cbz	w4, 360 <from_utee_params+0x38>
/home/ssysarch/Desktop/nick/jetpack_5/Jetson_Linux_R35.4.1_aarch64/Linux_for_Tegra/sources/tegra/optee-src/nv-optee/optee/optee_os/lib/libutee/user_ta_entry.c:309
     34c:	29001807 	stp	w7, w6, [x0]
/home/ssysarch/Desktop/nick/jetpack_5/Jetson_Linux_R35.4.1_aarch64/Linux_for_Tegra/sources/tegra/optee-src/nv-optee/optee/optee_os/lib/libutee/user_ta_entry.c:310
     350:	14000004 	b	360 <from_utee_params+0x38>
/home/ssysarch/Desktop/nick/jetpack_5/Jetson_Linux_R35.4.1_aarch64/Linux_for_Tegra/sources/tegra/optee-src/nv-optee/optee/optee_os/lib/libutee/user_ta_entry.c:304
     354:	51001484 	sub	w4, w4, #0x5
     358:	7100089f 	cmp	w4, #0x2
     35c:	54000109 	b.ls	37c <from_utee_params+0x54>  // b.plast
/home/ssysarch/Desktop/nick/jetpack_5/Jetson_Linux_R35.4.1_aarch64/Linux_for_Tegra/sources/tegra/optee-src/nv-optee/optee/optee_os/lib/libutee/user_ta_entry.c:300 (discriminator 2)
     360:	11001063 	add	w3, w3, #0x4
     364:	91004042 	add	x2, x2, #0x10
     368:	91004000 	add	x0, x0, #0x10
     36c:	7100407f 	cmp	w3, #0x10
     370:	54fffe21 	b.ne	334 <from_utee_params+0xc>  // b.any
/home/ssysarch/Desktop/nick/jetpack_5/Jetson_Linux_R35.4.1_aarch64/Linux_for_Tegra/sources/tegra/optee-src/nv-optee/optee/optee_os/lib/libutee/user_ta_entry.c:323
     374:	b9000025 	str	w5, [x1]
/home/ssysarch/Desktop/nick/jetpack_5/Jetson_Linux_R35.4.1_aarch64/Linux_for_Tegra/sources/tegra/optee-src/nv-optee/optee/optee_os/lib/libutee/user_ta_entry.c:324
     378:	d65f03c0 	ret
/home/ssysarch/Desktop/nick/jetpack_5/Jetson_Linux_R35.4.1_aarch64/Linux_for_Tegra/sources/tegra/optee-src/nv-optee/optee/optee_os/lib/libutee/user_ta_entry.c:315
     37c:	a9001807 	stp	x7, x6, [x0]
/home/ssysarch/Desktop/nick/jetpack_5/Jetson_Linux_R35.4.1_aarch64/Linux_for_Tegra/sources/tegra/optee-src/nv-optee/optee/optee_os/lib/libutee/user_ta_entry.c:316
     380:	17fffff8 	b	360 <from_utee_params+0x38>

0000000000000384 <_init_iterate_phdr_cb>:
_init_iterate_phdr_cb():
/home/ssysarch/Desktop/nick/jetpack_5/Jetson_Linux_R35.4.1_aarch64/Linux_for_Tegra/sources/tegra/optee-src/nv-optee/optee/optee_os/lib/libutee/user_ta_entry.c:60
     384:	a9bd7bfd 	stp	x29, x30, [sp, #-48]!
     388:	910003fd 	mov	x29, sp
     38c:	a90153f3 	stp	x19, x20, [sp, #16]
     390:	aa0203f4 	mov	x20, x2
     394:	f90013f5 	str	x21, [sp, #32]
     398:	aa0003f5 	mov	x21, x0
/home/ssysarch/Desktop/nick/jetpack_5/Jetson_Linux_R35.4.1_aarch64/Linux_for_Tegra/sources/tegra/optee-src/nv-optee/optee/optee_os/lib/libutee/user_ta_entry.c:64
     39c:	d2800a00 	mov	x0, #0x50                  	// #80
     3a0:	94002adb 	bl	af0c <malloc>
/home/ssysarch/Desktop/nick/jetpack_5/Jetson_Linux_R35.4.1_aarch64/Linux_for_Tegra/sources/tegra/optee-src/nv-optee/optee/optee_os/lib/libutee/user_ta_entry.c:65
     3a4:	b5000140 	cbnz	x0, 3cc <_init_iterate_phdr_cb+0x48>
/home/ssysarch/Desktop/nick/jetpack_5/Jetson_Linux_R35.4.1_aarch64/Linux_for_Tegra/sources/tegra/optee-src/nv-optee/optee/optee_os/lib/libutee/user_ta_entry.c:66
     3a8:	f0000864 	adrp	x4, 10f000 <large_buffer+0xff68c>
     3ac:	91296484 	add	x4, x4, #0xa59
     3b0:	f0000860 	adrp	x0, 10f000 <large_buffer+0xff68c>
     3b4:	912aa000 	add	x0, x0, #0xaa8
     3b8:	52800023 	mov	w3, #0x1                   	// #1
     3bc:	52800022 	mov	w2, #0x1                   	// #1
     3c0:	52800841 	mov	w1, #0x42                  	// #66
     3c4:	940030d7 	bl	c720 <trace_printf>
/home/ssysarch/Desktop/nick/jetpack_5/Jetson_Linux_R35.4.1_aarch64/Linux_for_Tegra/sources/tegra/optee-src/nv-optee/optee/optee_os/lib/libutee/user_ta_entry.c:67
     3c8:	940001e1 	bl	b4c <abort>
     3cc:	aa0003f3 	mov	x19, x0
/home/ssysarch/Desktop/nick/jetpack_5/Jetson_Linux_R35.4.1_aarch64/Linux_for_Tegra/sources/tegra/optee-src/nv-optee/optee/optee_os/lib/libutee/user_ta_entry.c:69
     3d0:	aa1503e1 	mov	x1, x21
     3d4:	d2800802 	mov	x2, #0x40                  	// #64
     3d8:	97ffff12 	bl	20 <memcpy>
/home/ssysarch/Desktop/nick/jetpack_5/Jetson_Linux_R35.4.1_aarch64/Linux_for_Tegra/sources/tegra/optee-src/nv-optee/optee/optee_os/lib/libutee/user_ta_entry.c:70
     3dc:	b0000880 	adrp	x0, 111000 <_DYNAMIC>
     3e0:	91122000 	add	x0, x0, #0x488
/home/ssysarch/Desktop/nick/jetpack_5/Jetson_Linux_R35.4.1_aarch64/Linux_for_Tegra/sources/tegra/optee-src/nv-optee/optee/optee_os/lib/libutee/user_ta_entry.c:73
     3e4:	f94013f5 	ldr	x21, [sp, #32]
/home/ssysarch/Desktop/nick/jetpack_5/Jetson_Linux_R35.4.1_aarch64/Linux_for_Tegra/sources/tegra/optee-src/nv-optee/optee/optee_os/lib/libutee/user_ta_entry.c:70
     3e8:	f9400c01 	ldr	x1, [x0, #24]
     3ec:	a904067f 	stp	xzr, x1, [x19, #64]
     3f0:	f9000033 	str	x19, [x1]
     3f4:	91010273 	add	x19, x19, #0x40
     3f8:	f9000c13 	str	x19, [x0, #24]
/home/ssysarch/Desktop/nick/jetpack_5/Jetson_Linux_R35.4.1_aarch64/Linux_for_Tegra/sources/tegra/optee-src/nv-optee/optee/optee_os/lib/libutee/user_ta_entry.c:71
     3fc:	f9400280 	ldr	x0, [x20]
     400:	91000400 	add	x0, x0, #0x1
     404:	f9000280 	str	x0, [x20]
/home/ssysarch/Desktop/nick/jetpack_5/Jetson_Linux_R35.4.1_aarch64/Linux_for_Tegra/sources/tegra/optee-src/nv-optee/optee/optee_os/lib/libutee/user_ta_entry.c:73
     408:	52800000 	mov	w0, #0x0                   	// #0
     40c:	a94153f3 	ldp	x19, x20, [sp, #16]
     410:	a8c37bfd 	ldp	x29, x30, [sp], #48
     414:	d65f03c0 	ret

0000000000000418 <__utee_call_elf_init_fn>:
__utee_call_elf_init_fn():
/home/ssysarch/Desktop/nick/jetpack_5/Jetson_Linux_R35.4.1_aarch64/Linux_for_Tegra/sources/tegra/optee-src/nv-optee/optee/optee_os/lib/libutee/user_ta_entry.c:107
     418:	a9b97bfd 	stp	x29, x30, [sp, #-112]!
     41c:	b0000880 	adrp	x0, 111000 <_DYNAMIC>
     420:	910003fd 	mov	x29, sp
     424:	f9409800 	ldr	x0, [x0, #304]
     428:	a90153f3 	stp	x19, x20, [sp, #16]
/home/ssysarch/Desktop/nick/jetpack_5/Jetson_Linux_R35.4.1_aarch64/Linux_for_Tegra/sources/tegra/optee-src/nv-optee/optee/optee_os/lib/libutee/user_ta_entry.c:111
     42c:	d2800014 	mov	x20, #0x0                   	// #0
/home/ssysarch/Desktop/nick/jetpack_5/Jetson_Linux_R35.4.1_aarch64/Linux_for_Tegra/sources/tegra/optee-src/nv-optee/optee/optee_os/lib/libutee/user_ta_entry.c:107
     430:	f9400001 	ldr	x1, [x0]
     434:	f90037e1 	str	x1, [sp, #104]
     438:	d2800001 	mov	x1, #0x0                   	// #0
/home/ssysarch/Desktop/nick/jetpack_5/Jetson_Linux_R35.4.1_aarch64/Linux_for_Tegra/sources/tegra/optee-src/nv-optee/optee/optee_os/lib/libutee/user_ta_entry.c:116
     43c:	90000000 	adrp	x0, 0 <ta_head>
     440:	910e1000 	add	x0, x0, #0x384
     444:	910163e1 	add	x1, sp, #0x58
/home/ssysarch/Desktop/nick/jetpack_5/Jetson_Linux_R35.4.1_aarch64/Linux_for_Tegra/sources/tegra/optee-src/nv-optee/optee/optee_os/lib/libutee/user_ta_entry.c:107
     448:	a9025bf5 	stp	x21, x22, [sp, #32]
     44c:	a90363f7 	stp	x23, x24, [sp, #48]
     450:	b0000897 	adrp	x23, 111000 <_DYNAMIC>
     454:	aa1703f8 	mov	x24, x23
     458:	a9046bf9 	stp	x25, x26, [sp, #64]
/home/ssysarch/Desktop/nick/jetpack_5/Jetson_Linux_R35.4.1_aarch64/Linux_for_Tegra/sources/tegra/optee-src/nv-optee/optee/optee_os/lib/libutee/user_ta_entry.c:122
     45c:	910183f9 	add	x25, sp, #0x60
     460:	910143fa 	add	x26, sp, #0x50
/home/ssysarch/Desktop/nick/jetpack_5/Jetson_Linux_R35.4.1_aarch64/Linux_for_Tegra/sources/tegra/optee-src/nv-optee/optee/optee_os/lib/libutee/user_ta_entry.c:109
     464:	a9057fff 	stp	xzr, xzr, [sp, #80]
/home/ssysarch/Desktop/nick/jetpack_5/Jetson_Linux_R35.4.1_aarch64/Linux_for_Tegra/sources/tegra/optee-src/nv-optee/optee/optee_os/lib/libutee/user_ta_entry.c:110
     468:	f90033ff 	str	xzr, [sp, #96]
/home/ssysarch/Desktop/nick/jetpack_5/Jetson_Linux_R35.4.1_aarch64/Linux_for_Tegra/sources/tegra/optee-src/nv-optee/optee/optee_os/lib/libutee/user_ta_entry.c:116
     46c:	940014a7 	bl	5708 <dl_iterate_phdr>
/home/ssysarch/Desktop/nick/jetpack_5/Jetson_Linux_R35.4.1_aarch64/Linux_for_Tegra/sources/tegra/optee-src/nv-optee/optee/optee_os/lib/libutee/user_ta_entry.c:119
     470:	b0000881 	adrp	x1, 111000 <_DYNAMIC>
     474:	91122020 	add	x0, x1, #0x488
     478:	aa0103f3 	mov	x19, x1
     47c:	f9400c00 	ldr	x0, [x0, #24]
     480:	f9400400 	ldr	x0, [x0, #8]
     484:	f9400015 	ldr	x21, [x0]
/home/ssysarch/Desktop/nick/jetpack_5/Jetson_Linux_R35.4.1_aarch64/Linux_for_Tegra/sources/tegra/optee-src/nv-optee/optee/optee_os/lib/libutee/user_ta_entry.c:119 (discriminator 1)
     488:	f942d2e1 	ldr	x1, [x23, #1440]
     48c:	b5000175 	cbnz	x21, 4b8 <__utee_call_elf_init_fn+0xa0>
/home/ssysarch/Desktop/nick/jetpack_5/Jetson_Linux_R35.4.1_aarch64/Linux_for_Tegra/sources/tegra/optee-src/nv-optee/optee/optee_os/lib/libutee/user_ta_entry.c:130
     490:	8b010294 	add	x20, x20, x1
/home/ssysarch/Desktop/nick/jetpack_5/Jetson_Linux_R35.4.1_aarch64/Linux_for_Tegra/sources/tegra/optee-src/nv-optee/optee/optee_os/lib/libutee/user_ta_entry.c:132
     494:	91122261 	add	x1, x19, #0x488
/home/ssysarch/Desktop/nick/jetpack_5/Jetson_Linux_R35.4.1_aarch64/Linux_for_Tegra/sources/tegra/optee-src/nv-optee/optee/optee_os/lib/libutee/user_ta_entry.c:133
     498:	aa0103f3 	mov	x19, x1
/home/ssysarch/Desktop/nick/jetpack_5/Jetson_Linux_R35.4.1_aarch64/Linux_for_Tegra/sources/tegra/optee-src/nv-optee/optee/optee_os/lib/libutee/user_ta_entry.c:130
     49c:	f902d314 	str	x20, [x24, #1440]
/home/ssysarch/Desktop/nick/jetpack_5/Jetson_Linux_R35.4.1_aarch64/Linux_for_Tegra/sources/tegra/optee-src/nv-optee/optee/optee_os/lib/libutee/user_ta_entry.c:132
     4a0:	f9400820 	ldr	x0, [x1, #16]
/home/ssysarch/Desktop/nick/jetpack_5/Jetson_Linux_R35.4.1_aarch64/Linux_for_Tegra/sources/tegra/optee-src/nv-optee/optee/optee_os/lib/libutee/user_ta_entry.c:132 (discriminator 2)
     4a4:	b40004a0 	cbz	x0, 538 <__utee_call_elf_init_fn+0x120>
     4a8:	a9440414 	ldp	x20, x1, [x0, #64]
/home/ssysarch/Desktop/nick/jetpack_5/Jetson_Linux_R35.4.1_aarch64/Linux_for_Tegra/sources/tegra/optee-src/nv-optee/optee/optee_os/lib/libutee/user_ta_entry.c:133 (discriminator 3)
     4ac:	b50003b4 	cbnz	x20, 520 <__utee_call_elf_init_fn+0x108>
/home/ssysarch/Desktop/nick/jetpack_5/Jetson_Linux_R35.4.1_aarch64/Linux_for_Tegra/sources/tegra/optee-src/nv-optee/optee/optee_os/lib/libutee/user_ta_entry.c:133 (discriminator 2)
     4b0:	f9000e61 	str	x1, [x19, #24]
     4b4:	1400001c 	b	524 <__utee_call_elf_init_fn+0x10c>
/home/ssysarch/Desktop/nick/jetpack_5/Jetson_Linux_R35.4.1_aarch64/Linux_for_Tegra/sources/tegra/optee-src/nv-optee/optee/optee_os/lib/libutee/user_ta_entry.c:120
     4b8:	f9402fe0 	ldr	x0, [sp, #88]
     4bc:	cb010000 	sub	x0, x0, x1
     4c0:	eb14001f 	cmp	x0, x20
     4c4:	54fffe60 	b.eq	490 <__utee_call_elf_init_fn+0x78>  // b.none
/home/ssysarch/Desktop/nick/jetpack_5/Jetson_Linux_R35.4.1_aarch64/Linux_for_Tegra/sources/tegra/optee-src/nv-optee/optee/optee_os/lib/libutee/user_ta_entry.c:124
     4c8:	d2800016 	mov	x22, #0x0                   	// #0
/home/ssysarch/Desktop/nick/jetpack_5/Jetson_Linux_R35.4.1_aarch64/Linux_for_Tegra/sources/tegra/optee-src/nv-optee/optee/optee_os/lib/libutee/user_ta_entry.c:122
     4cc:	aa1903e4 	mov	x4, x25
     4d0:	aa1a03e3 	mov	x3, x26
     4d4:	aa1503e0 	mov	x0, x21
     4d8:	52800362 	mov	w2, #0x1b                  	// #27
     4dc:	52800321 	mov	w1, #0x19                  	// #25
     4e0:	97ffff1d 	bl	154 <_get_fn_array>
/home/ssysarch/Desktop/nick/jetpack_5/Jetson_Linux_R35.4.1_aarch64/Linux_for_Tegra/sources/tegra/optee-src/nv-optee/optee/optee_os/lib/libutee/user_ta_entry.c:124 (discriminator 1)
     4e4:	f94033e0 	ldr	x0, [sp, #96]
     4e8:	eb16001f 	cmp	x0, x22
     4ec:	54000108 	b.hi	50c <__utee_call_elf_init_fn+0xf4>  // b.pmore
/home/ssysarch/Desktop/nick/jetpack_5/Jetson_Linux_R35.4.1_aarch64/Linux_for_Tegra/sources/tegra/optee-src/nv-optee/optee/optee_os/lib/libutee/user_ta_entry.c:119 (discriminator 2)
     4f0:	f94026a0 	ldr	x0, [x21, #72]
/home/ssysarch/Desktop/nick/jetpack_5/Jetson_Linux_R35.4.1_aarch64/Linux_for_Tegra/sources/tegra/optee-src/nv-optee/optee/optee_os/lib/libutee/user_ta_entry.c:128 (discriminator 2)
     4f4:	91000694 	add	x20, x20, #0x1
/home/ssysarch/Desktop/nick/jetpack_5/Jetson_Linux_R35.4.1_aarch64/Linux_for_Tegra/sources/tegra/optee-src/nv-optee/optee/optee_os/lib/libutee/user_ta_entry.c:119 (discriminator 2)
     4f8:	f9400400 	ldr	x0, [x0, #8]
     4fc:	f9400015 	ldr	x21, [x0]
/home/ssysarch/Desktop/nick/jetpack_5/Jetson_Linux_R35.4.1_aarch64/Linux_for_Tegra/sources/tegra/optee-src/nv-optee/optee/optee_os/lib/libutee/user_ta_entry.c:126 (discriminator 2)
     500:	f9002bff 	str	xzr, [sp, #80]
/home/ssysarch/Desktop/nick/jetpack_5/Jetson_Linux_R35.4.1_aarch64/Linux_for_Tegra/sources/tegra/optee-src/nv-optee/optee/optee_os/lib/libutee/user_ta_entry.c:127 (discriminator 2)
     504:	f90033ff 	str	xzr, [sp, #96]
/home/ssysarch/Desktop/nick/jetpack_5/Jetson_Linux_R35.4.1_aarch64/Linux_for_Tegra/sources/tegra/optee-src/nv-optee/optee/optee_os/lib/libutee/user_ta_entry.c:119 (discriminator 2)
     508:	17ffffe0 	b	488 <__utee_call_elf_init_fn+0x70>
/home/ssysarch/Desktop/nick/jetpack_5/Jetson_Linux_R35.4.1_aarch64/Linux_for_Tegra/sources/tegra/optee-src/nv-optee/optee/optee_os/lib/libutee/user_ta_entry.c:125 (discriminator 3)
     50c:	f9402be0 	ldr	x0, [sp, #80]
     510:	f8767800 	ldr	x0, [x0, x22, lsl #3]
/home/ssysarch/Desktop/nick/jetpack_5/Jetson_Linux_R35.4.1_aarch64/Linux_for_Tegra/sources/tegra/optee-src/nv-optee/optee/optee_os/lib/libutee/user_ta_entry.c:124 (discriminator 3)
     514:	910006d6 	add	x22, x22, #0x1
/home/ssysarch/Desktop/nick/jetpack_5/Jetson_Linux_R35.4.1_aarch64/Linux_for_Tegra/sources/tegra/optee-src/nv-optee/optee/optee_os/lib/libutee/user_ta_entry.c:125 (discriminator 3)
     518:	d63f0000 	blr	x0
/home/ssysarch/Desktop/nick/jetpack_5/Jetson_Linux_R35.4.1_aarch64/Linux_for_Tegra/sources/tegra/optee-src/nv-optee/optee/optee_os/lib/libutee/user_ta_entry.c:124 (discriminator 3)
     51c:	17fffff2 	b	4e4 <__utee_call_elf_init_fn+0xcc>
/home/ssysarch/Desktop/nick/jetpack_5/Jetson_Linux_R35.4.1_aarch64/Linux_for_Tegra/sources/tegra/optee-src/nv-optee/optee/optee_os/lib/libutee/user_ta_entry.c:133 (discriminator 1)
     520:	f9002681 	str	x1, [x20, #72]
/home/ssysarch/Desktop/nick/jetpack_5/Jetson_Linux_R35.4.1_aarch64/Linux_for_Tegra/sources/tegra/optee-src/nv-optee/optee/optee_os/lib/libutee/user_ta_entry.c:133 (discriminator 4)
     524:	f9402401 	ldr	x1, [x0, #72]
     528:	f9000034 	str	x20, [x1]
/home/ssysarch/Desktop/nick/jetpack_5/Jetson_Linux_R35.4.1_aarch64/Linux_for_Tegra/sources/tegra/optee-src/nv-optee/optee/optee_os/lib/libutee/user_ta_entry.c:134 (discriminator 4)
     52c:	94002a98 	bl	af8c <free>
/home/ssysarch/Desktop/nick/jetpack_5/Jetson_Linux_R35.4.1_aarch64/Linux_for_Tegra/sources/tegra/optee-src/nv-optee/optee/optee_os/lib/libutee/user_ta_entry.c:132 (discriminator 4)
     530:	aa1403e0 	mov	x0, x20
     534:	17ffffdc 	b	4a4 <__utee_call_elf_init_fn+0x8c>
/home/ssysarch/Desktop/nick/jetpack_5/Jetson_Linux_R35.4.1_aarch64/Linux_for_Tegra/sources/tegra/optee-src/nv-optee/optee/optee_os/lib/libutee/user_ta_entry.c:136
     538:	b0000880 	adrp	x0, 111000 <_DYNAMIC>
     53c:	f9409800 	ldr	x0, [x0, #304]
     540:	f94037e1 	ldr	x1, [sp, #104]
     544:	f9400002 	ldr	x2, [x0]
     548:	eb020021 	subs	x1, x1, x2
     54c:	d2800002 	mov	x2, #0x0                   	// #0
     550:	54000040 	b.eq	558 <__utee_call_elf_init_fn+0x140>  // b.none
     554:	94002bca 	bl	b47c <__stack_chk_fail>
     558:	a94153f3 	ldp	x19, x20, [sp, #16]
     55c:	a9425bf5 	ldp	x21, x22, [sp, #32]
     560:	a94363f7 	ldp	x23, x24, [sp, #48]
     564:	a9446bf9 	ldp	x25, x26, [sp, #64]
     568:	a8c77bfd 	ldp	x29, x30, [sp], #112
     56c:	d65f03c0 	ret

0000000000000570 <__utee_call_elf_fini_fn>:
__utee_call_elf_fini_fn():
/home/ssysarch/Desktop/nick/jetpack_5/Jetson_Linux_R35.4.1_aarch64/Linux_for_Tegra/sources/tegra/optee-src/nv-optee/optee/optee_os/lib/libutee/user_ta_entry.c:155
     570:	d2800001 	mov	x1, #0x0                   	// #0
     574:	90000000 	adrp	x0, 0 <ta_head>
     578:	91081000 	add	x0, x0, #0x204
     57c:	14001463 	b	5708 <dl_iterate_phdr>

0000000000000580 <ta_header_remove_session>:
ta_header_remove_session():
/home/ssysarch/Desktop/nick/jetpack_5/Jetson_Linux_R35.4.1_aarch64/Linux_for_Tegra/sources/tegra/optee-src/nv-optee/optee/optee_os/lib/libutee/user_ta_entry.c:245
     580:	a9be7bfd 	stp	x29, x30, [sp, #-32]!
     584:	2a0003e2 	mov	w2, w0
     588:	910003fd 	mov	x29, sp
     58c:	f9000bf3 	str	x19, [sp, #16]
/home/ssysarch/Desktop/nick/jetpack_5/Jetson_Linux_R35.4.1_aarch64/Linux_for_Tegra/sources/tegra/optee-src/nv-optee/optee/optee_os/lib/libutee/user_ta_entry.c:249
     590:	b0000893 	adrp	x19, 111000 <_DYNAMIC>
     594:	f9424660 	ldr	x0, [x19, #1160]
/home/ssysarch/Desktop/nick/jetpack_5/Jetson_Linux_R35.4.1_aarch64/Linux_for_Tegra/sources/tegra/optee-src/nv-optee/optee/optee_os/lib/libutee/user_ta_entry.c:249 (discriminator 1)
     598:	b5000080 	cbnz	x0, 5a8 <ta_header_remove_session+0x28>
/home/ssysarch/Desktop/nick/jetpack_5/Jetson_Linux_R35.4.1_aarch64/Linux_for_Tegra/sources/tegra/optee-src/nv-optee/optee/optee_os/lib/libutee/user_ta_entry.c:263
     59c:	f9400bf3 	ldr	x19, [sp, #16]
     5a0:	a8c27bfd 	ldp	x29, x30, [sp], #32
     5a4:	d65f03c0 	ret
/home/ssysarch/Desktop/nick/jetpack_5/Jetson_Linux_R35.4.1_aarch64/Linux_for_Tegra/sources/tegra/optee-src/nv-optee/optee/optee_os/lib/libutee/user_ta_entry.c:250
     5a8:	b9400003 	ldr	w3, [x0]
     5ac:	f9400801 	ldr	x1, [x0, #16]
     5b0:	6b02007f 	cmp	w3, w2
     5b4:	540002e1 	b.ne	610 <ta_header_remove_session+0x90>  // b.any
/home/ssysarch/Desktop/nick/jetpack_5/Jetson_Linux_R35.4.1_aarch64/Linux_for_Tegra/sources/tegra/optee-src/nv-optee/optee/optee_os/lib/libutee/user_ta_entry.c:251
     5b8:	f9400c02 	ldr	x2, [x0, #24]
     5bc:	b4000241 	cbz	x1, 604 <ta_header_remove_session+0x84>
/home/ssysarch/Desktop/nick/jetpack_5/Jetson_Linux_R35.4.1_aarch64/Linux_for_Tegra/sources/tegra/optee-src/nv-optee/optee/optee_os/lib/libutee/user_ta_entry.c:251 (discriminator 1)
     5c0:	f9000c22 	str	x2, [x1, #24]
/home/ssysarch/Desktop/nick/jetpack_5/Jetson_Linux_R35.4.1_aarch64/Linux_for_Tegra/sources/tegra/optee-src/nv-optee/optee/optee_os/lib/libutee/user_ta_entry.c:251 (discriminator 4)
     5c4:	f9400c02 	ldr	x2, [x0, #24]
     5c8:	f9000041 	str	x1, [x2]
/home/ssysarch/Desktop/nick/jetpack_5/Jetson_Linux_R35.4.1_aarch64/Linux_for_Tegra/sources/tegra/optee-src/nv-optee/optee/optee_os/lib/libutee/user_ta_entry.c:252 (discriminator 4)
     5cc:	940005ba 	bl	1cb4 <TEE_Free>
/home/ssysarch/Desktop/nick/jetpack_5/Jetson_Linux_R35.4.1_aarch64/Linux_for_Tegra/sources/tegra/optee-src/nv-optee/optee/optee_os/lib/libutee/user_ta_entry.c:257 (discriminator 4)
     5d0:	f9424660 	ldr	x0, [x19, #1160]
     5d4:	b5fffe40 	cbnz	x0, 59c <ta_header_remove_session+0x1c>
/home/ssysarch/Desktop/nick/jetpack_5/Jetson_Linux_R35.4.1_aarch64/Linux_for_Tegra/sources/tegra/optee-src/nv-optee/optee/optee_os/lib/libutee/user_ta_entry.c:255 (discriminator 1)
     5d8:	b0000880 	adrp	x0, 111000 <_DYNAMIC>
     5dc:	52800281 	mov	w1, #0x14                  	// #20
     5e0:	f940e000 	ldr	x0, [x0, #448]
     5e4:	b9401400 	ldr	w0, [x0, #20]
     5e8:	0a010000 	and	w0, w0, w1
/home/ssysarch/Desktop/nick/jetpack_5/Jetson_Linux_R35.4.1_aarch64/Linux_for_Tegra/sources/tegra/optee-src/nv-optee/optee/optee_os/lib/libutee/user_ta_entry.c:257 (discriminator 1)
     5ec:	6b01001f 	cmp	w0, w1
     5f0:	54fffd60 	b.eq	59c <ta_header_remove_session+0x1c>  // b.none
uninit_instance():
/home/ssysarch/Desktop/nick/jetpack_5/Jetson_Linux_R35.4.1_aarch64/Linux_for_Tegra/sources/tegra/optee-src/nv-optee/optee/optee_os/lib/libutee/user_ta_entry.c:192
     5f4:	97fffec8 	bl	114 <TA_DestroyEntryPoint>
ta_header_remove_session():
/home/ssysarch/Desktop/nick/jetpack_5/Jetson_Linux_R35.4.1_aarch64/Linux_for_Tegra/sources/tegra/optee-src/nv-optee/optee/optee_os/lib/libutee/user_ta_entry.c:263
     5f8:	f9400bf3 	ldr	x19, [sp, #16]
     5fc:	a8c27bfd 	ldp	x29, x30, [sp], #32
uninit_instance():
/home/ssysarch/Desktop/nick/jetpack_5/Jetson_Linux_R35.4.1_aarch64/Linux_for_Tegra/sources/tegra/optee-src/nv-optee/optee/optee_os/lib/libutee/user_ta_entry.c:193
     600:	17ffffdc 	b	570 <__utee_call_elf_fini_fn>
ta_header_remove_session():
/home/ssysarch/Desktop/nick/jetpack_5/Jetson_Linux_R35.4.1_aarch64/Linux_for_Tegra/sources/tegra/optee-src/nv-optee/optee/optee_os/lib/libutee/user_ta_entry.c:251 (discriminator 2)
     604:	91122263 	add	x3, x19, #0x488
     608:	f9000462 	str	x2, [x3, #8]
     60c:	17ffffee 	b	5c4 <ta_header_remove_session+0x44>
     610:	aa0103e0 	mov	x0, x1
     614:	17ffffe1 	b	598 <ta_header_remove_session+0x18>

0000000000000618 <__utee_entry>:
__utee_entry():
/home/ssysarch/Desktop/nick/jetpack_5/Jetson_Linux_R35.4.1_aarch64/Linux_for_Tegra/sources/tegra/optee-src/nv-optee/optee/optee_os/lib/libutee/user_ta_entry.c:421
     618:	a9b77bfd 	stp	x29, x30, [sp, #-144]!
/home/ssysarch/Desktop/nick/jetpack_5/Jetson_Linux_R35.4.1_aarch64/Linux_for_Tegra/sources/tegra/optee-src/nv-optee/optee/optee_os/lib/libutee/user_ta_entry.c:424
     61c:	f100041f 	cmp	x0, #0x1
/home/ssysarch/Desktop/nick/jetpack_5/Jetson_Linux_R35.4.1_aarch64/Linux_for_Tegra/sources/tegra/optee-src/nv-optee/optee/optee_os/lib/libutee/user_ta_entry.c:421
     620:	910003fd 	mov	x29, sp
     624:	a9025bf5 	stp	x21, x22, [sp, #32]
     628:	aa0103f5 	mov	x21, x1
     62c:	b0000881 	adrp	x1, 111000 <_DYNAMIC>
     630:	aa0203f6 	mov	x22, x2
     634:	a90363f7 	stp	x23, x24, [sp, #48]
     638:	aa0303f7 	mov	x23, x3
     63c:	f9409822 	ldr	x2, [x1, #304]
     640:	a90153f3 	stp	x19, x20, [sp, #16]
     644:	aa0103f4 	mov	x20, x1
     648:	f9400043 	ldr	x3, [x2]
     64c:	f90047e3 	str	x3, [sp, #136]
     650:	d2800003 	mov	x3, #0x0                   	// #0
/home/ssysarch/Desktop/nick/jetpack_5/Jetson_Linux_R35.4.1_aarch64/Linux_for_Tegra/sources/tegra/optee-src/nv-optee/optee/optee_os/lib/libutee/user_ta_entry.c:424
     654:	54000ca0 	b.eq	7e8 <__utee_entry+0x1d0>  // b.none
     658:	f100081f 	cmp	x0, #0x2
     65c:	54000d80 	b.eq	80c <__utee_entry+0x1f4>  // b.none
     660:	b50010c0 	cbnz	x0, 878 <__utee_entry+0x260>
ta_header_add_session():
/home/ssysarch/Desktop/nick/jetpack_5/Jetson_Linux_R35.4.1_aarch64/Linux_for_Tegra/sources/tegra/optee-src/nv-optee/optee/optee_os/lib/libutee/user_ta_entry.c:220
     664:	2a1503e0 	mov	w0, w21
     668:	97ffff0b 	bl	294 <ta_header_get_session>
/home/ssysarch/Desktop/nick/jetpack_5/Jetson_Linux_R35.4.1_aarch64/Linux_for_Tegra/sources/tegra/optee-src/nv-optee/optee/optee_os/lib/libutee/user_ta_entry.c:223
     66c:	b5000840 	cbnz	x0, 774 <__utee_entry+0x15c>
/home/ssysarch/Desktop/nick/jetpack_5/Jetson_Linux_R35.4.1_aarch64/Linux_for_Tegra/sources/tegra/optee-src/nv-optee/optee/optee_os/lib/libutee/user_ta_entry.c:226
     670:	b0000880 	adrp	x0, 111000 <_DYNAMIC>
     674:	91168000 	add	x0, x0, #0x5a0
     678:	39402001 	ldrb	w1, [x0, #8]
     67c:	340000e1 	cbz	w1, 698 <__utee_entry+0x80>
/home/ssysarch/Desktop/nick/jetpack_5/Jetson_Linux_R35.4.1_aarch64/Linux_for_Tegra/sources/tegra/optee-src/nv-optee/optee/optee_os/lib/libutee/user_ta_entry.c:233
     680:	52b00001 	mov	w1, #0x80000000            	// #-2147483648
     684:	d2800400 	mov	x0, #0x20                  	// #32
     688:	94000540 	bl	1b88 <TEE_Malloc>
/home/ssysarch/Desktop/nick/jetpack_5/Jetson_Linux_R35.4.1_aarch64/Linux_for_Tegra/sources/tegra/optee-src/nv-optee/optee/optee_os/lib/libutee/user_ta_entry.c:235
     68c:	b5000620 	cbnz	x0, 750 <__utee_entry+0x138>
/home/ssysarch/Desktop/nick/jetpack_5/Jetson_Linux_R35.4.1_aarch64/Linux_for_Tegra/sources/tegra/optee-src/nv-optee/optee/optee_os/lib/libutee/user_ta_entry.c:236
     690:	129ffe73 	mov	w19, #0xffff000c            	// #-65524
     694:	14000022 	b	71c <__utee_entry+0x104>
/home/ssysarch/Desktop/nick/jetpack_5/Jetson_Linux_R35.4.1_aarch64/Linux_for_Tegra/sources/tegra/optee-src/nv-optee/optee/optee_os/lib/libutee/user_ta_entry.c:227
     698:	52800021 	mov	w1, #0x1                   	// #1
     69c:	39002001 	strb	w1, [x0, #8]
init_instance():
/home/ssysarch/Desktop/nick/jetpack_5/Jetson_Linux_R35.4.1_aarch64/Linux_for_Tegra/sources/tegra/optee-src/nv-optee/optee/optee_os/lib/libutee/user_ta_entry.c:170
     6a0:	97fffeab 	bl	14c <tahead_get_trace_level>
     6a4:	94002f8d 	bl	c4d8 <trace_set_level>
/home/ssysarch/Desktop/nick/jetpack_5/Jetson_Linux_R35.4.1_aarch64/Linux_for_Tegra/sources/tegra/optee-src/nv-optee/optee/optee_os/lib/libutee/user_ta_entry.c:172
     6a8:	f9409e80 	ldr	x0, [x20, #312]
     6ac:	f9400001 	ldr	x1, [x0]
     6b0:	f940be80 	ldr	x0, [x20, #376]
     6b4:	94002b19 	bl	b318 <malloc_add_pool>
/home/ssysarch/Desktop/nick/jetpack_5/Jetson_Linux_R35.4.1_aarch64/Linux_for_Tegra/sources/tegra/optee-src/nv-optee/optee/optee_os/lib/libutee/user_ta_entry.c:173
     6b8:	f940a280 	ldr	x0, [x20, #320]
     6bc:	f9400017 	ldr	x23, [x0]
     6c0:	b4000177 	cbz	x23, 6ec <__utee_entry+0xd4>
/home/ssysarch/Desktop/nick/jetpack_5/Jetson_Linux_R35.4.1_aarch64/Linux_for_Tegra/sources/tegra/optee-src/nv-optee/optee/optee_os/lib/libutee/user_ta_entry.c:174
     6c4:	94002a3a 	bl	afac <raw_malloc_get_ctx_size>
     6c8:	94002a11 	bl	af0c <malloc>
     6cc:	f940d293 	ldr	x19, [x20, #416]
     6d0:	f9000260 	str	x0, [x19]
/home/ssysarch/Desktop/nick/jetpack_5/Jetson_Linux_R35.4.1_aarch64/Linux_for_Tegra/sources/tegra/optee-src/nv-optee/optee/optee_os/lib/libutee/user_ta_entry.c:175
     6d4:	b40000c0 	cbz	x0, 6ec <__utee_entry+0xd4>
/home/ssysarch/Desktop/nick/jetpack_5/Jetson_Linux_R35.4.1_aarch64/Linux_for_Tegra/sources/tegra/optee-src/nv-optee/optee/optee_os/lib/libutee/user_ta_entry.c:176
     6d8:	94002a37 	bl	afb4 <raw_malloc_init_ctx>
/home/ssysarch/Desktop/nick/jetpack_5/Jetson_Linux_R35.4.1_aarch64/Linux_for_Tegra/sources/tegra/optee-src/nv-optee/optee/optee_os/lib/libutee/user_ta_entry.c:177
     6dc:	f940d681 	ldr	x1, [x20, #424]
     6e0:	aa1703e2 	mov	x2, x23
     6e4:	f9400260 	ldr	x0, [x19]
     6e8:	94002a3e 	bl	afe0 <raw_malloc_add_pool>
get_memtag_implementation():
/home/ssysarch/Desktop/nick/jetpack_5/Jetson_Linux_R35.4.1_aarch64/Linux_for_Tegra/sources/tegra/optee-src/nv-optee/optee/optee_os/lib/libutee/user_ta_entry.c:163
     6ec:	910113e2 	add	x2, sp, #0x44
     6f0:	f0000861 	adrp	x1, 10f000 <large_buffer+0xff68c>
     6f4:	9129c821 	add	x1, x1, #0xa72
     6f8:	12800040 	mov	w0, #0xfffffffd            	// #-3
/home/ssysarch/Desktop/nick/jetpack_5/Jetson_Linux_R35.4.1_aarch64/Linux_for_Tegra/sources/tegra/optee-src/nv-optee/optee/optee_os/lib/libutee/user_ta_entry.c:161
     6fc:	b90047ff 	str	wzr, [sp, #68]
/home/ssysarch/Desktop/nick/jetpack_5/Jetson_Linux_R35.4.1_aarch64/Linux_for_Tegra/sources/tegra/optee-src/nv-optee/optee/optee_os/lib/libutee/user_ta_entry.c:163
     700:	940010a0 	bl	4980 <TEE_GetPropertyAsU32>
init_instance():
/home/ssysarch/Desktop/nick/jetpack_5/Jetson_Linux_R35.4.1_aarch64/Linux_for_Tegra/sources/tegra/optee-src/nv-optee/optee/optee_os/lib/libutee/user_ta_entry.c:183
     704:	940007db 	bl	2670 <_TEE_MathAPI_Init>
/home/ssysarch/Desktop/nick/jetpack_5/Jetson_Linux_R35.4.1_aarch64/Linux_for_Tegra/sources/tegra/optee-src/nv-optee/optee/optee_os/lib/libutee/user_ta_entry.c:184
     708:	94001369 	bl	54ac <__utee_tcb_init>
/home/ssysarch/Desktop/nick/jetpack_5/Jetson_Linux_R35.4.1_aarch64/Linux_for_Tegra/sources/tegra/optee-src/nv-optee/optee/optee_os/lib/libutee/user_ta_entry.c:185
     70c:	97ffff43 	bl	418 <__utee_call_elf_init_fn>
/home/ssysarch/Desktop/nick/jetpack_5/Jetson_Linux_R35.4.1_aarch64/Linux_for_Tegra/sources/tegra/optee-src/nv-optee/optee/optee_os/lib/libutee/user_ta_entry.c:186
     710:	97fffe7f 	bl	10c <TA_CreateEntryPoint>
     714:	2a0003f3 	mov	w19, w0
ta_header_add_session():
/home/ssysarch/Desktop/nick/jetpack_5/Jetson_Linux_R35.4.1_aarch64/Linux_for_Tegra/sources/tegra/optee-src/nv-optee/optee/optee_os/lib/libutee/user_ta_entry.c:229
     718:	34fffb40 	cbz	w0, 680 <__utee_entry+0x68>
ta_header_save_params():
/home/ssysarch/Desktop/nick/jetpack_5/Jetson_Linux_R35.4.1_aarch64/Linux_for_Tegra/sources/tegra/optee-src/nv-optee/optee/optee_os/lib/libutee/user_ta_entry.c:199
     71c:	f940ca80 	ldr	x0, [x20, #400]
/home/ssysarch/Desktop/nick/jetpack_5/Jetson_Linux_R35.4.1_aarch64/Linux_for_Tegra/sources/tegra/optee-src/nv-optee/optee/optee_os/lib/libutee/user_ta_entry.c:204
     720:	52800001 	mov	w1, #0x0                   	// #0
     724:	d2800802 	mov	x2, #0x40                  	// #64
/home/ssysarch/Desktop/nick/jetpack_5/Jetson_Linux_R35.4.1_aarch64/Linux_for_Tegra/sources/tegra/optee-src/nv-optee/optee/optee_os/lib/libutee/user_ta_entry.c:199
     728:	b900001f 	str	wzr, [x0]
/home/ssysarch/Desktop/nick/jetpack_5/Jetson_Linux_R35.4.1_aarch64/Linux_for_Tegra/sources/tegra/optee-src/nv-optee/optee/optee_os/lib/libutee/user_ta_entry.c:204
     72c:	f940da80 	ldr	x0, [x20, #432]
     730:	94002b76 	bl	b508 <memset>
__utee_entry():
/home/ssysarch/Desktop/nick/jetpack_5/Jetson_Linux_R35.4.1_aarch64/Linux_for_Tegra/sources/tegra/optee-src/nv-optee/optee/optee_os/lib/libutee/user_ta_entry.c:446
     734:	f9409a94 	ldr	x20, [x20, #304]
     738:	f94047e0 	ldr	x0, [sp, #136]
     73c:	f9400281 	ldr	x1, [x20]
     740:	eb010000 	subs	x0, x0, x1
     744:	d2800001 	mov	x1, #0x0                   	// #0
     748:	54000a00 	b.eq	888 <__utee_entry+0x270>  // b.none
     74c:	94002b4c 	bl	b47c <__stack_chk_fail>
ta_header_add_session():
/home/ssysarch/Desktop/nick/jetpack_5/Jetson_Linux_R35.4.1_aarch64/Linux_for_Tegra/sources/tegra/optee-src/nv-optee/optee/optee_os/lib/libutee/user_ta_entry.c:239
     750:	b0000881 	adrp	x1, 111000 <_DYNAMIC>
     754:	91122021 	add	x1, x1, #0x488
     758:	f9400422 	ldr	x2, [x1, #8]
/home/ssysarch/Desktop/nick/jetpack_5/Jetson_Linux_R35.4.1_aarch64/Linux_for_Tegra/sources/tegra/optee-src/nv-optee/optee/optee_os/lib/libutee/user_ta_entry.c:237
     75c:	b9000015 	str	w21, [x0]
/home/ssysarch/Desktop/nick/jetpack_5/Jetson_Linux_R35.4.1_aarch64/Linux_for_Tegra/sources/tegra/optee-src/nv-optee/optee/optee_os/lib/libutee/user_ta_entry.c:239
     760:	a900fc1f 	stp	xzr, xzr, [x0, #8]
     764:	f9000c02 	str	x2, [x0, #24]
     768:	f9000040 	str	x0, [x2]
     76c:	91004000 	add	x0, x0, #0x10
     770:	f9000420 	str	x0, [x1, #8]
entry_open_session():
/home/ssysarch/Desktop/nick/jetpack_5/Jetson_Linux_R35.4.1_aarch64/Linux_for_Tegra/sources/tegra/optee-src/nv-optee/optee/optee_os/lib/libutee/user_ta_entry.c:338
     774:	2a1503e0 	mov	w0, w21
     778:	97fffec7 	bl	294 <ta_header_get_session>
     77c:	aa0003f3 	mov	x19, x0
/home/ssysarch/Desktop/nick/jetpack_5/Jetson_Linux_R35.4.1_aarch64/Linux_for_Tegra/sources/tegra/optee-src/nv-optee/optee/optee_os/lib/libutee/user_ta_entry.c:339
     780:	b4000800 	cbz	x0, 880 <__utee_entry+0x268>
/home/ssysarch/Desktop/nick/jetpack_5/Jetson_Linux_R35.4.1_aarch64/Linux_for_Tegra/sources/tegra/optee-src/nv-optee/optee/optee_os/lib/libutee/user_ta_entry.c:342
     784:	910123f7 	add	x23, sp, #0x48
     788:	aa1603e2 	mov	x2, x22
     78c:	910113e1 	add	x1, sp, #0x44
     790:	aa1703e0 	mov	x0, x23
     794:	97fffee5 	bl	328 <from_utee_params>
/home/ssysarch/Desktop/nick/jetpack_5/Jetson_Linux_R35.4.1_aarch64/Linux_for_Tegra/sources/tegra/optee-src/nv-optee/optee/optee_os/lib/libutee/user_ta_entry.c:343
     798:	b94047f8 	ldr	w24, [sp, #68]
ta_header_save_params():
/home/ssysarch/Desktop/nick/jetpack_5/Jetson_Linux_R35.4.1_aarch64/Linux_for_Tegra/sources/tegra/optee-src/nv-optee/optee/optee_os/lib/libutee/user_ta_entry.c:199
     79c:	f940ca80 	ldr	x0, [x20, #400]
/home/ssysarch/Desktop/nick/jetpack_5/Jetson_Linux_R35.4.1_aarch64/Linux_for_Tegra/sources/tegra/optee-src/nv-optee/optee/optee_os/lib/libutee/user_ta_entry.c:202
     7a0:	aa1703e1 	mov	x1, x23
     7a4:	d2800802 	mov	x2, #0x40                  	// #64
/home/ssysarch/Desktop/nick/jetpack_5/Jetson_Linux_R35.4.1_aarch64/Linux_for_Tegra/sources/tegra/optee-src/nv-optee/optee/optee_os/lib/libutee/user_ta_entry.c:199
     7a8:	b9000018 	str	w24, [x0]
/home/ssysarch/Desktop/nick/jetpack_5/Jetson_Linux_R35.4.1_aarch64/Linux_for_Tegra/sources/tegra/optee-src/nv-optee/optee/optee_os/lib/libutee/user_ta_entry.c:202
     7ac:	f940da80 	ldr	x0, [x20, #432]
     7b0:	97fffe1c 	bl	20 <memcpy>
entry_open_session():
/home/ssysarch/Desktop/nick/jetpack_5/Jetson_Linux_R35.4.1_aarch64/Linux_for_Tegra/sources/tegra/optee-src/nv-optee/optee/optee_os/lib/libutee/user_ta_entry.c:345
     7b4:	91002262 	add	x2, x19, #0x8
     7b8:	aa1703e1 	mov	x1, x23
     7bc:	2a1803e0 	mov	w0, w24
     7c0:	97fffe56 	bl	118 <TA_OpenSessionEntryPoint>
/home/ssysarch/Desktop/nick/jetpack_5/Jetson_Linux_R35.4.1_aarch64/Linux_for_Tegra/sources/tegra/optee-src/nv-optee/optee/optee_os/lib/libutee/user_ta_entry.c:348
     7c4:	b94047e1 	ldr	w1, [sp, #68]
/home/ssysarch/Desktop/nick/jetpack_5/Jetson_Linux_R35.4.1_aarch64/Linux_for_Tegra/sources/tegra/optee-src/nv-optee/optee/optee_os/lib/libutee/user_ta_entry.c:345
     7c8:	2a0003f3 	mov	w19, w0
/home/ssysarch/Desktop/nick/jetpack_5/Jetson_Linux_R35.4.1_aarch64/Linux_for_Tegra/sources/tegra/optee-src/nv-optee/optee/optee_os/lib/libutee/user_ta_entry.c:348
     7cc:	aa1703e2 	mov	x2, x23
     7d0:	aa1603e0 	mov	x0, x22
     7d4:	97fffeba 	bl	2bc <to_utee_params>
/home/ssysarch/Desktop/nick/jetpack_5/Jetson_Linux_R35.4.1_aarch64/Linux_for_Tegra/sources/tegra/optee-src/nv-optee/optee/optee_os/lib/libutee/user_ta_entry.c:350
     7d8:	34fffa33 	cbz	w19, 71c <__utee_entry+0x104>
/home/ssysarch/Desktop/nick/jetpack_5/Jetson_Linux_R35.4.1_aarch64/Linux_for_Tegra/sources/tegra/optee-src/nv-optee/optee/optee_os/lib/libutee/user_ta_entry.c:351
     7dc:	2a1503e0 	mov	w0, w21
     7e0:	97ffff68 	bl	580 <ta_header_remove_session>
     7e4:	17ffffce 	b	71c <__utee_entry+0x104>
entry_close_session():
/home/ssysarch/Desktop/nick/jetpack_5/Jetson_Linux_R35.4.1_aarch64/Linux_for_Tegra/sources/tegra/optee-src/nv-optee/optee/optee_os/lib/libutee/user_ta_entry.c:357
     7e8:	2a1503e0 	mov	w0, w21
     7ec:	97fffeaa 	bl	294 <ta_header_get_session>
/home/ssysarch/Desktop/nick/jetpack_5/Jetson_Linux_R35.4.1_aarch64/Linux_for_Tegra/sources/tegra/optee-src/nv-optee/optee/optee_os/lib/libutee/user_ta_entry.c:359
     7f0:	b4000480 	cbz	x0, 880 <__utee_entry+0x268>
/home/ssysarch/Desktop/nick/jetpack_5/Jetson_Linux_R35.4.1_aarch64/Linux_for_Tegra/sources/tegra/optee-src/nv-optee/optee/optee_os/lib/libutee/user_ta_entry.c:362
     7f4:	f9400400 	ldr	x0, [x0, #8]
/home/ssysarch/Desktop/nick/jetpack_5/Jetson_Linux_R35.4.1_aarch64/Linux_for_Tegra/sources/tegra/optee-src/nv-optee/optee/optee_os/lib/libutee/user_ta_entry.c:365
     7f8:	52800013 	mov	w19, #0x0                   	// #0
/home/ssysarch/Desktop/nick/jetpack_5/Jetson_Linux_R35.4.1_aarch64/Linux_for_Tegra/sources/tegra/optee-src/nv-optee/optee/optee_os/lib/libutee/user_ta_entry.c:362
     7fc:	97fffe4c 	bl	12c <TA_CloseSessionEntryPoint>
/home/ssysarch/Desktop/nick/jetpack_5/Jetson_Linux_R35.4.1_aarch64/Linux_for_Tegra/sources/tegra/optee-src/nv-optee/optee/optee_os/lib/libutee/user_ta_entry.c:364
     800:	2a1503e0 	mov	w0, w21
     804:	97ffff5f 	bl	580 <ta_header_remove_session>
/home/ssysarch/Desktop/nick/jetpack_5/Jetson_Linux_R35.4.1_aarch64/Linux_for_Tegra/sources/tegra/optee-src/nv-optee/optee/optee_os/lib/libutee/user_ta_entry.c:365
     808:	17ffffc5 	b	71c <__utee_entry+0x104>
entry_invoke_command():
/home/ssysarch/Desktop/nick/jetpack_5/Jetson_Linux_R35.4.1_aarch64/Linux_for_Tegra/sources/tegra/optee-src/nv-optee/optee/optee_os/lib/libutee/user_ta_entry.c:374
     80c:	2a1503e0 	mov	w0, w21
     810:	97fffea1 	bl	294 <ta_header_get_session>
     814:	aa0003f3 	mov	x19, x0
/home/ssysarch/Desktop/nick/jetpack_5/Jetson_Linux_R35.4.1_aarch64/Linux_for_Tegra/sources/tegra/optee-src/nv-optee/optee/optee_os/lib/libutee/user_ta_entry.c:376
     818:	b4000340 	cbz	x0, 880 <__utee_entry+0x268>
/home/ssysarch/Desktop/nick/jetpack_5/Jetson_Linux_R35.4.1_aarch64/Linux_for_Tegra/sources/tegra/optee-src/nv-optee/optee/optee_os/lib/libutee/user_ta_entry.c:379
     81c:	910123f5 	add	x21, sp, #0x48
     820:	aa1603e2 	mov	x2, x22
     824:	910113e1 	add	x1, sp, #0x44
     828:	aa1503e0 	mov	x0, x21
     82c:	97fffebf 	bl	328 <from_utee_params>
/home/ssysarch/Desktop/nick/jetpack_5/Jetson_Linux_R35.4.1_aarch64/Linux_for_Tegra/sources/tegra/optee-src/nv-optee/optee/optee_os/lib/libutee/user_ta_entry.c:380
     830:	b94047f8 	ldr	w24, [sp, #68]
ta_header_save_params():
/home/ssysarch/Desktop/nick/jetpack_5/Jetson_Linux_R35.4.1_aarch64/Linux_for_Tegra/sources/tegra/optee-src/nv-optee/optee/optee_os/lib/libutee/user_ta_entry.c:199
     834:	f940ca80 	ldr	x0, [x20, #400]
/home/ssysarch/Desktop/nick/jetpack_5/Jetson_Linux_R35.4.1_aarch64/Linux_for_Tegra/sources/tegra/optee-src/nv-optee/optee/optee_os/lib/libutee/user_ta_entry.c:202
     838:	aa1503e1 	mov	x1, x21
     83c:	d2800802 	mov	x2, #0x40                  	// #64
/home/ssysarch/Desktop/nick/jetpack_5/Jetson_Linux_R35.4.1_aarch64/Linux_for_Tegra/sources/tegra/optee-src/nv-optee/optee/optee_os/lib/libutee/user_ta_entry.c:199
     840:	b9000018 	str	w24, [x0]
/home/ssysarch/Desktop/nick/jetpack_5/Jetson_Linux_R35.4.1_aarch64/Linux_for_Tegra/sources/tegra/optee-src/nv-optee/optee/optee_os/lib/libutee/user_ta_entry.c:202
     844:	f940da80 	ldr	x0, [x20, #432]
     848:	97fffdf6 	bl	20 <memcpy>
entry_invoke_command():
/home/ssysarch/Desktop/nick/jetpack_5/Jetson_Linux_R35.4.1_aarch64/Linux_for_Tegra/sources/tegra/optee-src/nv-optee/optee/optee_os/lib/libutee/user_ta_entry.c:382
     84c:	f9400660 	ldr	x0, [x19, #8]
     850:	2a1803e2 	mov	w2, w24
     854:	2a1703e1 	mov	w1, w23
     858:	aa1503e3 	mov	x3, x21
     85c:	97fffe35 	bl	130 <TA_InvokeCommandEntryPoint>
     860:	2a0003f3 	mov	w19, w0
/home/ssysarch/Desktop/nick/jetpack_5/Jetson_Linux_R35.4.1_aarch64/Linux_for_Tegra/sources/tegra/optee-src/nv-optee/optee/optee_os/lib/libutee/user_ta_entry.c:385
     864:	b94047e1 	ldr	w1, [sp, #68]
     868:	aa1503e2 	mov	x2, x21
     86c:	aa1603e0 	mov	x0, x22
     870:	97fffe93 	bl	2bc <to_utee_params>
/home/ssysarch/Desktop/nick/jetpack_5/Jetson_Linux_R35.4.1_aarch64/Linux_for_Tegra/sources/tegra/optee-src/nv-optee/optee/optee_os/lib/libutee/user_ta_entry.c:386
     874:	17ffffaa 	b	71c <__utee_entry+0x104>
__utee_entry():
/home/ssysarch/Desktop/nick/jetpack_5/Jetson_Linux_R35.4.1_aarch64/Linux_for_Tegra/sources/tegra/optee-src/nv-optee/optee/optee_os/lib/libutee/user_ta_entry.c:424
     878:	129ffeb3 	mov	w19, #0xffff000a            	// #-65526
     87c:	17ffffa8 	b	71c <__utee_entry+0x104>
entry_close_session():
/home/ssysarch/Desktop/nick/jetpack_5/Jetson_Linux_R35.4.1_aarch64/Linux_for_Tegra/sources/tegra/optee-src/nv-optee/optee/optee_os/lib/libutee/user_ta_entry.c:360
     880:	129fff13 	mov	w19, #0xffff0007            	// #-65529
     884:	17ffffa6 	b	71c <__utee_entry+0x104>
__utee_entry():
/home/ssysarch/Desktop/nick/jetpack_5/Jetson_Linux_R35.4.1_aarch64/Linux_for_Tegra/sources/tegra/optee-src/nv-optee/optee/optee_os/lib/libutee/user_ta_entry.c:446
     888:	2a1303e0 	mov	w0, w19
     88c:	a94153f3 	ldp	x19, x20, [sp, #16]
     890:	a9425bf5 	ldp	x21, x22, [sp, #32]
     894:	a94363f7 	ldp	x23, x24, [sp, #48]
     898:	a8c97bfd 	ldp	x29, x30, [sp], #144
     89c:	d65f03c0 	ret

00000000000008a0 <_utee_panic>:
_utee_panic():
/home/ssysarch/Desktop/nick/jetpack_5/Jetson_Linux_R35.4.1_aarch64/Linux_for_Tegra/sources/tegra/optee-src/nv-optee/optee/optee_os/lib/libutee/arch/arm/utee_syscalls_a64.S:41
     8a0:	a9bf7bfd 	stp	x29, x30, [sp, #-16]!
/home/ssysarch/Desktop/nick/jetpack_5/Jetson_Linux_R35.4.1_aarch64/Linux_for_Tegra/sources/tegra/optee-src/nv-optee/optee/optee_os/lib/libutee/arch/arm/utee_syscalls_a64.S:42
     8a4:	910003e1 	mov	x1, sp
/home/ssysarch/Desktop/nick/jetpack_5/Jetson_Linux_R35.4.1_aarch64/Linux_for_Tegra/sources/tegra/optee-src/nv-optee/optee/optee_os/lib/libutee/arch/arm/utee_syscalls_a64.S:43
     8a8:	94000007 	bl	8c4 <__utee_panic>

00000000000008ac <_utee_return>:
_utee_return():
/home/ssysarch/Desktop/nick/jetpack_5/Jetson_Linux_R35.4.1_aarch64/Linux_for_Tegra/sources/tegra/optee-src/nv-optee/optee/optee_os/lib/libutee/include/utee_syscalls_asm.S:8
     8ac:	d2800008 	mov	x8, #0x0                   	// #0
     8b0:	d4000001 	svc	#0x0
     8b4:	d65f03c0 	ret

00000000000008b8 <_utee_log>:
_utee_log():
/home/ssysarch/Desktop/nick/jetpack_5/Jetson_Linux_R35.4.1_aarch64/Linux_for_Tegra/sources/tegra/optee-src/nv-optee/optee/optee_os/lib/libutee/include/utee_syscalls_asm.S:10
     8b8:	d2800028 	mov	x8, #0x1                   	// #1
     8bc:	d4000001 	svc	#0x0
     8c0:	d65f03c0 	ret

00000000000008c4 <__utee_panic>:
__utee_panic():
/home/ssysarch/Desktop/nick/jetpack_5/Jetson_Linux_R35.4.1_aarch64/Linux_for_Tegra/sources/tegra/optee-src/nv-optee/optee/optee_os/lib/libutee/include/utee_syscalls_asm.S:12
     8c4:	d2800048 	mov	x8, #0x2                   	// #2
     8c8:	d4000001 	svc	#0x0
     8cc:	d65f03c0 	ret

00000000000008d0 <_utee_get_property>:
_utee_get_property():
/home/ssysarch/Desktop/nick/jetpack_5/Jetson_Linux_R35.4.1_aarch64/Linux_for_Tegra/sources/tegra/optee-src/nv-optee/optee/optee_os/lib/libutee/include/utee_syscalls_asm.S:14
     8d0:	d2800068 	mov	x8, #0x3                   	// #3
     8d4:	d4000001 	svc	#0x0
     8d8:	d65f03c0 	ret

00000000000008dc <_utee_get_property_name_to_index>:
_utee_get_property_name_to_index():
/home/ssysarch/Desktop/nick/jetpack_5/Jetson_Linux_R35.4.1_aarch64/Linux_for_Tegra/sources/tegra/optee-src/nv-optee/optee/optee_os/lib/libutee/include/utee_syscalls_asm.S:16
     8dc:	d2800088 	mov	x8, #0x4                   	// #4
     8e0:	d4000001 	svc	#0x0
     8e4:	d65f03c0 	ret

00000000000008e8 <_utee_open_ta_session>:
_utee_open_ta_session():
/home/ssysarch/Desktop/nick/jetpack_5/Jetson_Linux_R35.4.1_aarch64/Linux_for_Tegra/sources/tegra/optee-src/nv-optee/optee/optee_os/lib/libutee/include/utee_syscalls_asm.S:19
     8e8:	d28000a8 	mov	x8, #0x5                   	// #5
     8ec:	d4000001 	svc	#0x0
     8f0:	d65f03c0 	ret

00000000000008f4 <_utee_close_ta_session>:
_utee_close_ta_session():
/home/ssysarch/Desktop/nick/jetpack_5/Jetson_Linux_R35.4.1_aarch64/Linux_for_Tegra/sources/tegra/optee-src/nv-optee/optee/optee_os/lib/libutee/include/utee_syscalls_asm.S:21
     8f4:	d28000c8 	mov	x8, #0x6                   	// #6
     8f8:	d4000001 	svc	#0x0
     8fc:	d65f03c0 	ret

0000000000000900 <_utee_invoke_ta_command>:
_utee_invoke_ta_command():
/home/ssysarch/Desktop/nick/jetpack_5/Jetson_Linux_R35.4.1_aarch64/Linux_for_Tegra/sources/tegra/optee-src/nv-optee/optee/optee_os/lib/libutee/include/utee_syscalls_asm.S:23
     900:	d28000e8 	mov	x8, #0x7                   	// #7
     904:	d4000001 	svc	#0x0
     908:	d65f03c0 	ret

000000000000090c <_utee_get_cancellation_flag>:
_utee_get_cancellation_flag():
/home/ssysarch/Desktop/nick/jetpack_5/Jetson_Linux_R35.4.1_aarch64/Linux_for_Tegra/sources/tegra/optee-src/nv-optee/optee/optee_os/lib/libutee/include/utee_syscalls_asm.S:25
     90c:	d2800128 	mov	x8, #0x9                   	// #9
     910:	d4000001 	svc	#0x0
     914:	d65f03c0 	ret

0000000000000918 <_utee_check_access_rights>:
_utee_check_access_rights():
/home/ssysarch/Desktop/nick/jetpack_5/Jetson_Linux_R35.4.1_aarch64/Linux_for_Tegra/sources/tegra/optee-src/nv-optee/optee/optee_os/lib/libutee/include/utee_syscalls_asm.S:28
     918:	d2800108 	mov	x8, #0x8                   	// #8
     91c:	d4000001 	svc	#0x0
     920:	d65f03c0 	ret

0000000000000924 <_utee_unmask_cancellation>:
_utee_unmask_cancellation():
/home/ssysarch/Desktop/nick/jetpack_5/Jetson_Linux_R35.4.1_aarch64/Linux_for_Tegra/sources/tegra/optee-src/nv-optee/optee/optee_os/lib/libutee/include/utee_syscalls_asm.S:30
     924:	d2800148 	mov	x8, #0xa                   	// #10
     928:	d4000001 	svc	#0x0
     92c:	d65f03c0 	ret

0000000000000930 <_utee_mask_cancellation>:
_utee_mask_cancellation():
/home/ssysarch/Desktop/nick/jetpack_5/Jetson_Linux_R35.4.1_aarch64/Linux_for_Tegra/sources/tegra/optee-src/nv-optee/optee/optee_os/lib/libutee/include/utee_syscalls_asm.S:32
     930:	d2800168 	mov	x8, #0xb                   	// #11
     934:	d4000001 	svc	#0x0
     938:	d65f03c0 	ret

000000000000093c <_utee_wait>:
_utee_wait():
/home/ssysarch/Desktop/nick/jetpack_5/Jetson_Linux_R35.4.1_aarch64/Linux_for_Tegra/sources/tegra/optee-src/nv-optee/optee/optee_os/lib/libutee/include/utee_syscalls_asm.S:34
     93c:	d2800188 	mov	x8, #0xc                   	// #12
     940:	d4000001 	svc	#0x0
     944:	d65f03c0 	ret

0000000000000948 <_utee_get_time>:
_utee_get_time():
/home/ssysarch/Desktop/nick/jetpack_5/Jetson_Linux_R35.4.1_aarch64/Linux_for_Tegra/sources/tegra/optee-src/nv-optee/optee/optee_os/lib/libutee/include/utee_syscalls_asm.S:36
     948:	d28001a8 	mov	x8, #0xd                   	// #13
     94c:	d4000001 	svc	#0x0
     950:	d65f03c0 	ret

0000000000000954 <_utee_set_ta_time>:
_utee_set_ta_time():
/home/ssysarch/Desktop/nick/jetpack_5/Jetson_Linux_R35.4.1_aarch64/Linux_for_Tegra/sources/tegra/optee-src/nv-optee/optee/optee_os/lib/libutee/include/utee_syscalls_asm.S:38
     954:	d28001c8 	mov	x8, #0xe                   	// #14
     958:	d4000001 	svc	#0x0
     95c:	d65f03c0 	ret

0000000000000960 <_utee_cryp_state_alloc>:
_utee_cryp_state_alloc():
/home/ssysarch/Desktop/nick/jetpack_5/Jetson_Linux_R35.4.1_aarch64/Linux_for_Tegra/sources/tegra/optee-src/nv-optee/optee/optee_os/lib/libutee/include/utee_syscalls_asm.S:40
     960:	d28001e8 	mov	x8, #0xf                   	// #15
     964:	d4000001 	svc	#0x0
     968:	d65f03c0 	ret

000000000000096c <_utee_cryp_state_copy>:
_utee_cryp_state_copy():
/home/ssysarch/Desktop/nick/jetpack_5/Jetson_Linux_R35.4.1_aarch64/Linux_for_Tegra/sources/tegra/optee-src/nv-optee/optee/optee_os/lib/libutee/include/utee_syscalls_asm.S:42
     96c:	d2800208 	mov	x8, #0x10                  	// #16
     970:	d4000001 	svc	#0x0
     974:	d65f03c0 	ret

0000000000000978 <_utee_cryp_state_free>:
_utee_cryp_state_free():
/home/ssysarch/Desktop/nick/jetpack_5/Jetson_Linux_R35.4.1_aarch64/Linux_for_Tegra/sources/tegra/optee-src/nv-optee/optee/optee_os/lib/libutee/include/utee_syscalls_asm.S:44
     978:	d2800228 	mov	x8, #0x11                  	// #17
     97c:	d4000001 	svc	#0x0
     980:	d65f03c0 	ret

0000000000000984 <_utee_hash_init>:
_utee_hash_init():
/home/ssysarch/Desktop/nick/jetpack_5/Jetson_Linux_R35.4.1_aarch64/Linux_for_Tegra/sources/tegra/optee-src/nv-optee/optee/optee_os/lib/libutee/include/utee_syscalls_asm.S:46
     984:	d2800248 	mov	x8, #0x12                  	// #18
     988:	d4000001 	svc	#0x0
     98c:	d65f03c0 	ret

0000000000000990 <_utee_hash_update>:
_utee_hash_update():
/home/ssysarch/Desktop/nick/jetpack_5/Jetson_Linux_R35.4.1_aarch64/Linux_for_Tegra/sources/tegra/optee-src/nv-optee/optee/optee_os/lib/libutee/include/utee_syscalls_asm.S:48
     990:	d2800268 	mov	x8, #0x13                  	// #19
     994:	d4000001 	svc	#0x0
     998:	d65f03c0 	ret

000000000000099c <_utee_hash_final>:
_utee_hash_final():
/home/ssysarch/Desktop/nick/jetpack_5/Jetson_Linux_R35.4.1_aarch64/Linux_for_Tegra/sources/tegra/optee-src/nv-optee/optee/optee_os/lib/libutee/include/utee_syscalls_asm.S:50
     99c:	d2800288 	mov	x8, #0x14                  	// #20
     9a0:	d4000001 	svc	#0x0
     9a4:	d65f03c0 	ret

00000000000009a8 <_utee_cipher_init>:
_utee_cipher_init():
/home/ssysarch/Desktop/nick/jetpack_5/Jetson_Linux_R35.4.1_aarch64/Linux_for_Tegra/sources/tegra/optee-src/nv-optee/optee/optee_os/lib/libutee/include/utee_syscalls_asm.S:52
     9a8:	d28002a8 	mov	x8, #0x15                  	// #21
     9ac:	d4000001 	svc	#0x0
     9b0:	d65f03c0 	ret

00000000000009b4 <_utee_cipher_update>:
_utee_cipher_update():
/home/ssysarch/Desktop/nick/jetpack_5/Jetson_Linux_R35.4.1_aarch64/Linux_for_Tegra/sources/tegra/optee-src/nv-optee/optee/optee_os/lib/libutee/include/utee_syscalls_asm.S:54
     9b4:	d28002c8 	mov	x8, #0x16                  	// #22
     9b8:	d4000001 	svc	#0x0
     9bc:	d65f03c0 	ret

00000000000009c0 <_utee_cipher_final>:
_utee_cipher_final():
/home/ssysarch/Desktop/nick/jetpack_5/Jetson_Linux_R35.4.1_aarch64/Linux_for_Tegra/sources/tegra/optee-src/nv-optee/optee/optee_os/lib/libutee/include/utee_syscalls_asm.S:56
     9c0:	d28002e8 	mov	x8, #0x17                  	// #23
     9c4:	d4000001 	svc	#0x0
     9c8:	d65f03c0 	ret

00000000000009cc <_utee_cryp_obj_get_info>:
_utee_cryp_obj_get_info():
/home/ssysarch/Desktop/nick/jetpack_5/Jetson_Linux_R35.4.1_aarch64/Linux_for_Tegra/sources/tegra/optee-src/nv-optee/optee/optee_os/lib/libutee/include/utee_syscalls_asm.S:58
     9cc:	d2800308 	mov	x8, #0x18                  	// #24
     9d0:	d4000001 	svc	#0x0
     9d4:	d65f03c0 	ret

00000000000009d8 <_utee_cryp_obj_restrict_usage>:
_utee_cryp_obj_restrict_usage():
/home/ssysarch/Desktop/nick/jetpack_5/Jetson_Linux_R35.4.1_aarch64/Linux_for_Tegra/sources/tegra/optee-src/nv-optee/optee/optee_os/lib/libutee/include/utee_syscalls_asm.S:60
     9d8:	d2800328 	mov	x8, #0x19                  	// #25
     9dc:	d4000001 	svc	#0x0
     9e0:	d65f03c0 	ret

00000000000009e4 <_utee_cryp_obj_get_attr>:
_utee_cryp_obj_get_attr():
/home/ssysarch/Desktop/nick/jetpack_5/Jetson_Linux_R35.4.1_aarch64/Linux_for_Tegra/sources/tegra/optee-src/nv-optee/optee/optee_os/lib/libutee/include/utee_syscalls_asm.S:63
     9e4:	d2800348 	mov	x8, #0x1a                  	// #26
     9e8:	d4000001 	svc	#0x0
     9ec:	d65f03c0 	ret

00000000000009f0 <_utee_cryp_obj_alloc>:
_utee_cryp_obj_alloc():
/home/ssysarch/Desktop/nick/jetpack_5/Jetson_Linux_R35.4.1_aarch64/Linux_for_Tegra/sources/tegra/optee-src/nv-optee/optee/optee_os/lib/libutee/include/utee_syscalls_asm.S:65
     9f0:	d2800368 	mov	x8, #0x1b                  	// #27
     9f4:	d4000001 	svc	#0x0
     9f8:	d65f03c0 	ret

00000000000009fc <_utee_cryp_obj_close>:
_utee_cryp_obj_close():
/home/ssysarch/Desktop/nick/jetpack_5/Jetson_Linux_R35.4.1_aarch64/Linux_for_Tegra/sources/tegra/optee-src/nv-optee/optee/optee_os/lib/libutee/include/utee_syscalls_asm.S:67
     9fc:	d2800388 	mov	x8, #0x1c                  	// #28
     a00:	d4000001 	svc	#0x0
     a04:	d65f03c0 	ret

0000000000000a08 <_utee_cryp_obj_reset>:
_utee_cryp_obj_reset():
/home/ssysarch/Desktop/nick/jetpack_5/Jetson_Linux_R35.4.1_aarch64/Linux_for_Tegra/sources/tegra/optee-src/nv-optee/optee/optee_os/lib/libutee/include/utee_syscalls_asm.S:69
     a08:	d28003a8 	mov	x8, #0x1d                  	// #29
     a0c:	d4000001 	svc	#0x0
     a10:	d65f03c0 	ret

0000000000000a14 <_utee_cryp_obj_populate>:
_utee_cryp_obj_populate():
/home/ssysarch/Desktop/nick/jetpack_5/Jetson_Linux_R35.4.1_aarch64/Linux_for_Tegra/sources/tegra/optee-src/nv-optee/optee/optee_os/lib/libutee/include/utee_syscalls_asm.S:71
     a14:	d28003c8 	mov	x8, #0x1e                  	// #30
     a18:	d4000001 	svc	#0x0
     a1c:	d65f03c0 	ret

0000000000000a20 <_utee_cryp_obj_copy>:
_utee_cryp_obj_copy():
/home/ssysarch/Desktop/nick/jetpack_5/Jetson_Linux_R35.4.1_aarch64/Linux_for_Tegra/sources/tegra/optee-src/nv-optee/optee/optee_os/lib/libutee/include/utee_syscalls_asm.S:73
     a20:	d28003e8 	mov	x8, #0x1f                  	// #31
     a24:	d4000001 	svc	#0x0
     a28:	d65f03c0 	ret

0000000000000a2c <_utee_cryp_derive_key>:
_utee_cryp_derive_key():
/home/ssysarch/Desktop/nick/jetpack_5/Jetson_Linux_R35.4.1_aarch64/Linux_for_Tegra/sources/tegra/optee-src/nv-optee/optee/optee_os/lib/libutee/include/utee_syscalls_asm.S:75
     a2c:	d2800408 	mov	x8, #0x20                  	// #32
     a30:	d4000001 	svc	#0x0
     a34:	d65f03c0 	ret

0000000000000a38 <_utee_cryp_random_number_generate>:
_utee_cryp_random_number_generate():
/home/ssysarch/Desktop/nick/jetpack_5/Jetson_Linux_R35.4.1_aarch64/Linux_for_Tegra/sources/tegra/optee-src/nv-optee/optee/optee_os/lib/libutee/include/utee_syscalls_asm.S:77
     a38:	d2800428 	mov	x8, #0x21                  	// #33
     a3c:	d4000001 	svc	#0x0
     a40:	d65f03c0 	ret

0000000000000a44 <_utee_authenc_init>:
_utee_authenc_init():
/home/ssysarch/Desktop/nick/jetpack_5/Jetson_Linux_R35.4.1_aarch64/Linux_for_Tegra/sources/tegra/optee-src/nv-optee/optee/optee_os/lib/libutee/include/utee_syscalls_asm.S:80
     a44:	d2800448 	mov	x8, #0x22                  	// #34
     a48:	d4000001 	svc	#0x0
     a4c:	d65f03c0 	ret

0000000000000a50 <_utee_authenc_update_aad>:
_utee_authenc_update_aad():
/home/ssysarch/Desktop/nick/jetpack_5/Jetson_Linux_R35.4.1_aarch64/Linux_for_Tegra/sources/tegra/optee-src/nv-optee/optee/optee_os/lib/libutee/include/utee_syscalls_asm.S:82
     a50:	d2800468 	mov	x8, #0x23                  	// #35
     a54:	d4000001 	svc	#0x0
     a58:	d65f03c0 	ret

0000000000000a5c <_utee_authenc_update_payload>:
_utee_authenc_update_payload():
/home/ssysarch/Desktop/nick/jetpack_5/Jetson_Linux_R35.4.1_aarch64/Linux_for_Tegra/sources/tegra/optee-src/nv-optee/optee/optee_os/lib/libutee/include/utee_syscalls_asm.S:84
     a5c:	d2800488 	mov	x8, #0x24                  	// #36
     a60:	d4000001 	svc	#0x0
     a64:	d65f03c0 	ret

0000000000000a68 <_utee_authenc_enc_final>:
_utee_authenc_enc_final():
/home/ssysarch/Desktop/nick/jetpack_5/Jetson_Linux_R35.4.1_aarch64/Linux_for_Tegra/sources/tegra/optee-src/nv-optee/optee/optee_os/lib/libutee/include/utee_syscalls_asm.S:87
     a68:	d28004a8 	mov	x8, #0x25                  	// #37
     a6c:	d4000001 	svc	#0x0
     a70:	d65f03c0 	ret

0000000000000a74 <_utee_authenc_dec_final>:
_utee_authenc_dec_final():
/home/ssysarch/Desktop/nick/jetpack_5/Jetson_Linux_R35.4.1_aarch64/Linux_for_Tegra/sources/tegra/optee-src/nv-optee/optee/optee_os/lib/libutee/include/utee_syscalls_asm.S:89
     a74:	d28004c8 	mov	x8, #0x26                  	// #38
     a78:	d4000001 	svc	#0x0
     a7c:	d65f03c0 	ret

0000000000000a80 <_utee_asymm_operate>:
_utee_asymm_operate():
/home/ssysarch/Desktop/nick/jetpack_5/Jetson_Linux_R35.4.1_aarch64/Linux_for_Tegra/sources/tegra/optee-src/nv-optee/optee/optee_os/lib/libutee/include/utee_syscalls_asm.S:91
     a80:	d28004e8 	mov	x8, #0x27                  	// #39
     a84:	d4000001 	svc	#0x0
     a88:	d65f03c0 	ret

0000000000000a8c <_utee_asymm_verify>:
_utee_asymm_verify():
/home/ssysarch/Desktop/nick/jetpack_5/Jetson_Linux_R35.4.1_aarch64/Linux_for_Tegra/sources/tegra/optee-src/nv-optee/optee/optee_os/lib/libutee/include/utee_syscalls_asm.S:93
     a8c:	d2800508 	mov	x8, #0x28                  	// #40
     a90:	d4000001 	svc	#0x0
     a94:	d65f03c0 	ret

0000000000000a98 <_utee_storage_obj_open>:
_utee_storage_obj_open():
/home/ssysarch/Desktop/nick/jetpack_5/Jetson_Linux_R35.4.1_aarch64/Linux_for_Tegra/sources/tegra/optee-src/nv-optee/optee/optee_os/lib/libutee/include/utee_syscalls_asm.S:95
     a98:	d2800528 	mov	x8, #0x29                  	// #41
     a9c:	d4000001 	svc	#0x0
     aa0:	d65f03c0 	ret

0000000000000aa4 <_utee_storage_obj_create>:
_utee_storage_obj_create():
/home/ssysarch/Desktop/nick/jetpack_5/Jetson_Linux_R35.4.1_aarch64/Linux_for_Tegra/sources/tegra/optee-src/nv-optee/optee/optee_os/lib/libutee/include/utee_syscalls_asm.S:97
     aa4:	d2800548 	mov	x8, #0x2a                  	// #42
     aa8:	d4000001 	svc	#0x0
     aac:	d65f03c0 	ret

0000000000000ab0 <_utee_storage_obj_del>:
_utee_storage_obj_del():
/home/ssysarch/Desktop/nick/jetpack_5/Jetson_Linux_R35.4.1_aarch64/Linux_for_Tegra/sources/tegra/optee-src/nv-optee/optee/optee_os/lib/libutee/include/utee_syscalls_asm.S:99
     ab0:	d2800568 	mov	x8, #0x2b                  	// #43
     ab4:	d4000001 	svc	#0x0
     ab8:	d65f03c0 	ret

0000000000000abc <_utee_storage_obj_rename>:
_utee_storage_obj_rename():
/home/ssysarch/Desktop/nick/jetpack_5/Jetson_Linux_R35.4.1_aarch64/Linux_for_Tegra/sources/tegra/optee-src/nv-optee/optee/optee_os/lib/libutee/include/utee_syscalls_asm.S:101
     abc:	d2800588 	mov	x8, #0x2c                  	// #44
     ac0:	d4000001 	svc	#0x0
     ac4:	d65f03c0 	ret

0000000000000ac8 <_utee_storage_alloc_enum>:
_utee_storage_alloc_enum():
/home/ssysarch/Desktop/nick/jetpack_5/Jetson_Linux_R35.4.1_aarch64/Linux_for_Tegra/sources/tegra/optee-src/nv-optee/optee/optee_os/lib/libutee/include/utee_syscalls_asm.S:103
     ac8:	d28005a8 	mov	x8, #0x2d                  	// #45
     acc:	d4000001 	svc	#0x0
     ad0:	d65f03c0 	ret

0000000000000ad4 <_utee_storage_free_enum>:
_utee_storage_free_enum():
/home/ssysarch/Desktop/nick/jetpack_5/Jetson_Linux_R35.4.1_aarch64/Linux_for_Tegra/sources/tegra/optee-src/nv-optee/optee/optee_os/lib/libutee/include/utee_syscalls_asm.S:105
     ad4:	d28005c8 	mov	x8, #0x2e                  	// #46
     ad8:	d4000001 	svc	#0x0
     adc:	d65f03c0 	ret

0000000000000ae0 <_utee_storage_reset_enum>:
_utee_storage_reset_enum():
/home/ssysarch/Desktop/nick/jetpack_5/Jetson_Linux_R35.4.1_aarch64/Linux_for_Tegra/sources/tegra/optee-src/nv-optee/optee/optee_os/lib/libutee/include/utee_syscalls_asm.S:107
     ae0:	d28005e8 	mov	x8, #0x2f                  	// #47
     ae4:	d4000001 	svc	#0x0
     ae8:	d65f03c0 	ret

0000000000000aec <_utee_storage_start_enum>:
_utee_storage_start_enum():
/home/ssysarch/Desktop/nick/jetpack_5/Jetson_Linux_R35.4.1_aarch64/Linux_for_Tegra/sources/tegra/optee-src/nv-optee/optee/optee_os/lib/libutee/include/utee_syscalls_asm.S:109
     aec:	d2800608 	mov	x8, #0x30                  	// #48
     af0:	d4000001 	svc	#0x0
     af4:	d65f03c0 	ret

0000000000000af8 <_utee_storage_next_enum>:
_utee_storage_next_enum():
/home/ssysarch/Desktop/nick/jetpack_5/Jetson_Linux_R35.4.1_aarch64/Linux_for_Tegra/sources/tegra/optee-src/nv-optee/optee/optee_os/lib/libutee/include/utee_syscalls_asm.S:111
     af8:	d2800628 	mov	x8, #0x31                  	// #49
     afc:	d4000001 	svc	#0x0
     b00:	d65f03c0 	ret

0000000000000b04 <_utee_storage_obj_read>:
_utee_storage_obj_read():
/home/ssysarch/Desktop/nick/jetpack_5/Jetson_Linux_R35.4.1_aarch64/Linux_for_Tegra/sources/tegra/optee-src/nv-optee/optee/optee_os/lib/libutee/include/utee_syscalls_asm.S:113
     b04:	d2800648 	mov	x8, #0x32                  	// #50
     b08:	d4000001 	svc	#0x0
     b0c:	d65f03c0 	ret

0000000000000b10 <_utee_storage_obj_write>:
_utee_storage_obj_write():
/home/ssysarch/Desktop/nick/jetpack_5/Jetson_Linux_R35.4.1_aarch64/Linux_for_Tegra/sources/tegra/optee-src/nv-optee/optee/optee_os/lib/libutee/include/utee_syscalls_asm.S:115
     b10:	d2800668 	mov	x8, #0x33                  	// #51
     b14:	d4000001 	svc	#0x0
     b18:	d65f03c0 	ret

0000000000000b1c <_utee_storage_obj_trunc>:
_utee_storage_obj_trunc():
/home/ssysarch/Desktop/nick/jetpack_5/Jetson_Linux_R35.4.1_aarch64/Linux_for_Tegra/sources/tegra/optee-src/nv-optee/optee/optee_os/lib/libutee/include/utee_syscalls_asm.S:117
     b1c:	d2800688 	mov	x8, #0x34                  	// #52
     b20:	d4000001 	svc	#0x0
     b24:	d65f03c0 	ret

0000000000000b28 <_utee_storage_obj_seek>:
_utee_storage_obj_seek():
/home/ssysarch/Desktop/nick/jetpack_5/Jetson_Linux_R35.4.1_aarch64/Linux_for_Tegra/sources/tegra/optee-src/nv-optee/optee/optee_os/lib/libutee/include/utee_syscalls_asm.S:119
     b28:	d28006a8 	mov	x8, #0x35                  	// #53
     b2c:	d4000001 	svc	#0x0
     b30:	d65f03c0 	ret

0000000000000b34 <_utee_cryp_obj_generate_key>:
_utee_cryp_obj_generate_key():
/home/ssysarch/Desktop/nick/jetpack_5/Jetson_Linux_R35.4.1_aarch64/Linux_for_Tegra/sources/tegra/optee-src/nv-optee/optee/optee_os/lib/libutee/include/utee_syscalls_asm.S:121
     b34:	d28006c8 	mov	x8, #0x36                  	// #54
     b38:	d4000001 	svc	#0x0
     b3c:	d65f03c0 	ret

0000000000000b40 <_utee_cache_operation>:
_utee_cache_operation():
/home/ssysarch/Desktop/nick/jetpack_5/Jetson_Linux_R35.4.1_aarch64/Linux_for_Tegra/sources/tegra/optee-src/nv-optee/optee/optee_os/lib/libutee/include/utee_syscalls_asm.S:124
     b40:	d28008c8 	mov	x8, #0x46                  	// #70
     b44:	d4000001 	svc	#0x0
     b48:	d65f03c0 	ret

0000000000000b4c <abort>:
abort():
/home/ssysarch/Desktop/nick/jetpack_5/Jetson_Linux_R35.4.1_aarch64/Linux_for_Tegra/sources/tegra/optee-src/nv-optee/optee/optee_os/lib/libutee/abort.c:12
     b4c:	a9bf7bfd 	stp	x29, x30, [sp, #-16]!
/home/ssysarch/Desktop/nick/jetpack_5/Jetson_Linux_R35.4.1_aarch64/Linux_for_Tegra/sources/tegra/optee-src/nv-optee/optee/optee_os/lib/libutee/abort.c:13
     b50:	f0000860 	adrp	x0, 10f000 <large_buffer+0xff68c>
     b54:	912af800 	add	x0, x0, #0xabe
/home/ssysarch/Desktop/nick/jetpack_5/Jetson_Linux_R35.4.1_aarch64/Linux_for_Tegra/sources/tegra/optee-src/nv-optee/optee/optee_os/lib/libutee/abort.c:12
     b58:	910003fd 	mov	x29, sp
/home/ssysarch/Desktop/nick/jetpack_5/Jetson_Linux_R35.4.1_aarch64/Linux_for_Tegra/sources/tegra/optee-src/nv-optee/optee/optee_os/lib/libutee/abort.c:13
     b5c:	94000050 	bl	c9c <puts>
/home/ssysarch/Desktop/nick/jetpack_5/Jetson_Linux_R35.4.1_aarch64/Linux_for_Tegra/sources/tegra/optee-src/nv-optee/optee/optee_os/lib/libutee/abort.c:14
     b60:	d2800000 	mov	x0, #0x0                   	// #0
     b64:	97ffff4f 	bl	8a0 <_utee_panic>
/home/ssysarch/Desktop/nick/jetpack_5/Jetson_Linux_R35.4.1_aarch64/Linux_for_Tegra/sources/tegra/optee-src/nv-optee/optee/optee_os/lib/libutee/abort.c:16 (discriminator 1)
     b68:	14000000 	b	b68 <abort+0x1c>

0000000000000b6c <trace_ext_puts>:
trace_ext_puts():
/home/ssysarch/Desktop/nick/jetpack_5/Jetson_Linux_R35.4.1_aarch64/Linux_for_Tegra/sources/tegra/optee-src/nv-optee/optee/optee_os/lib/libutee/trace_ext.c:22
     b6c:	a9be7bfd 	stp	x29, x30, [sp, #-32]!
     b70:	910003fd 	mov	x29, sp
     b74:	f9000bf3 	str	x19, [sp, #16]
     b78:	aa0003f3 	mov	x19, x0
/home/ssysarch/Desktop/nick/jetpack_5/Jetson_Linux_R35.4.1_aarch64/Linux_for_Tegra/sources/tegra/optee-src/nv-optee/optee/optee_os/lib/libutee/trace_ext.c:26
     b7c:	94002a73 	bl	b548 <strlen>
     b80:	aa0003e1 	mov	x1, x0
     b84:	aa1303e0 	mov	x0, x19
/home/ssysarch/Desktop/nick/jetpack_5/Jetson_Linux_R35.4.1_aarch64/Linux_for_Tegra/sources/tegra/optee-src/nv-optee/optee/optee_os/lib/libutee/trace_ext.c:28
     b88:	f9400bf3 	ldr	x19, [sp, #16]
     b8c:	a8c27bfd 	ldp	x29, x30, [sp], #32
/home/ssysarch/Desktop/nick/jetpack_5/Jetson_Linux_R35.4.1_aarch64/Linux_for_Tegra/sources/tegra/optee-src/nv-optee/optee/optee_os/lib/libutee/trace_ext.c:26
     b90:	17ffff4a 	b	8b8 <_utee_log>

0000000000000b94 <trace_ext_get_thread_id>:
trace_ext_get_thread_id():
/home/ssysarch/Desktop/nick/jetpack_5/Jetson_Linux_R35.4.1_aarch64/Linux_for_Tegra/sources/tegra/optee-src/nv-optee/optee/optee_os/lib/libutee/trace_ext.c:33
     b94:	12800000 	mov	w0, #0xffffffff            	// #-1
     b98:	d65f03c0 	ret

0000000000000b9c <printf>:
printf():
/home/ssysarch/Desktop/nick/jetpack_5/Jetson_Linux_R35.4.1_aarch64/Linux_for_Tegra/sources/tegra/optee-src/nv-optee/optee/optee_os/lib/libutee/trace_ext.c:41
     b9c:	d108c3ff 	sub	sp, sp, #0x230
     ba0:	a9007bfd 	stp	x29, x30, [sp]
     ba4:	910003fd 	mov	x29, sp
     ba8:	a90153f3 	stp	x19, x20, [sp, #16]
     bac:	aa0003f3 	mov	x19, x0
     bb0:	910823e0 	add	x0, sp, #0x208
     bb4:	a91f8be1 	stp	x1, x2, [sp, #504]
     bb8:	b0000881 	adrp	x1, 111000 <_DYNAMIC>
     bbc:	3d805fe0 	str	q0, [sp, #368]
     bc0:	3d8063e1 	str	q1, [sp, #384]
     bc4:	3d8067e2 	str	q2, [sp, #400]
     bc8:	3d806be3 	str	q3, [sp, #416]
     bcc:	3d806fe4 	str	q4, [sp, #432]
     bd0:	3d8073e5 	str	q5, [sp, #448]
     bd4:	3d8077e6 	str	q6, [sp, #464]
     bd8:	3d807be7 	str	q7, [sp, #480]
     bdc:	f9409821 	ldr	x1, [x1, #304]
     be0:	a9001003 	stp	x3, x4, [x0]
     be4:	a9011805 	stp	x5, x6, [x0, #16]
     be8:	f90117e7 	str	x7, [sp, #552]
     bec:	f9400020 	ldr	x0, [x1]
     bf0:	f900b7e0 	str	x0, [sp, #360]
     bf4:	d2800000 	mov	x0, #0x0                   	// #0
/home/ssysarch/Desktop/nick/jetpack_5/Jetson_Linux_R35.4.1_aarch64/Linux_for_Tegra/sources/tegra/optee-src/nv-optee/optee/optee_os/lib/libutee/trace_ext.c:46
     bf8:	94002e3f 	bl	c4f4 <trace_get_level>
     bfc:	7100001f 	cmp	w0, #0x0
     c00:	5400040d 	b.le	c80 <printf+0xe4>
/home/ssysarch/Desktop/nick/jetpack_5/Jetson_Linux_R35.4.1_aarch64/Linux_for_Tegra/sources/tegra/optee-src/nv-optee/optee/optee_os/lib/libutee/trace_ext.c:49
     c04:	9108c3e0 	add	x0, sp, #0x230
/home/ssysarch/Desktop/nick/jetpack_5/Jetson_Linux_R35.4.1_aarch64/Linux_for_Tegra/sources/tegra/optee-src/nv-optee/optee/optee_os/lib/libutee/trace_ext.c:50
     c08:	910083e3 	add	x3, sp, #0x20
/home/ssysarch/Desktop/nick/jetpack_5/Jetson_Linux_R35.4.1_aarch64/Linux_for_Tegra/sources/tegra/optee-src/nv-optee/optee/optee_os/lib/libutee/trace_ext.c:49
     c0c:	a90483e0 	stp	x0, x0, [sp, #72]
     c10:	9107c3e0 	add	x0, sp, #0x1f0
/home/ssysarch/Desktop/nick/jetpack_5/Jetson_Linux_R35.4.1_aarch64/Linux_for_Tegra/sources/tegra/optee-src/nv-optee/optee/optee_os/lib/libutee/trace_ext.c:50
     c14:	910123e1 	add	x1, sp, #0x48
/home/ssysarch/Desktop/nick/jetpack_5/Jetson_Linux_R35.4.1_aarch64/Linux_for_Tegra/sources/tegra/optee-src/nv-optee/optee/optee_os/lib/libutee/trace_ext.c:49
     c18:	f9002fe0 	str	x0, [sp, #88]
     c1c:	128006e0 	mov	w0, #0xffffffc8            	// #-56
     c20:	b90063e0 	str	w0, [sp, #96]
     c24:	12800fe0 	mov	w0, #0xffffff80            	// #-128
/home/ssysarch/Desktop/nick/jetpack_5/Jetson_Linux_R35.4.1_aarch64/Linux_for_Tegra/sources/tegra/optee-src/nv-optee/optee/optee_os/lib/libutee/trace_ext.c:50
     c28:	d2800402 	mov	x2, #0x20                  	// #32
     c2c:	9101a3f4 	add	x20, sp, #0x68
/home/ssysarch/Desktop/nick/jetpack_5/Jetson_Linux_R35.4.1_aarch64/Linux_for_Tegra/sources/tegra/optee-src/nv-optee/optee/optee_os/lib/libutee/trace_ext.c:49
     c30:	b90067e0 	str	w0, [sp, #100]
/home/ssysarch/Desktop/nick/jetpack_5/Jetson_Linux_R35.4.1_aarch64/Linux_for_Tegra/sources/tegra/optee-src/nv-optee/optee/optee_os/lib/libutee/trace_ext.c:50
     c34:	aa0303e0 	mov	x0, x3
     c38:	97fffcfa 	bl	20 <memcpy>
     c3c:	aa0003e3 	mov	x3, x0
     c40:	aa1303e2 	mov	x2, x19
     c44:	aa1403e0 	mov	x0, x20
     c48:	d2802001 	mov	x1, #0x100                 	// #256
     c4c:	940029f6 	bl	b424 <vsnprintf>
     c50:	2a0003f3 	mov	w19, w0
/home/ssysarch/Desktop/nick/jetpack_5/Jetson_Linux_R35.4.1_aarch64/Linux_for_Tegra/sources/tegra/optee-src/nv-optee/optee/optee_os/lib/libutee/trace_ext.c:53
     c54:	37f80060 	tbnz	w0, #31, c60 <printf+0xc4>
/home/ssysarch/Desktop/nick/jetpack_5/Jetson_Linux_R35.4.1_aarch64/Linux_for_Tegra/sources/tegra/optee-src/nv-optee/optee/optee_os/lib/libutee/trace_ext.c:56
     c58:	aa1403e0 	mov	x0, x20
     c5c:	97ffffc4 	bl	b6c <trace_ext_puts>
/home/ssysarch/Desktop/nick/jetpack_5/Jetson_Linux_R35.4.1_aarch64/Linux_for_Tegra/sources/tegra/optee-src/nv-optee/optee/optee_os/lib/libutee/trace_ext.c:59
     c60:	b0000881 	adrp	x1, 111000 <_DYNAMIC>
     c64:	f9409821 	ldr	x1, [x1, #304]
     c68:	f940b7e0 	ldr	x0, [sp, #360]
     c6c:	f9400022 	ldr	x2, [x1]
     c70:	eb020000 	subs	x0, x0, x2
     c74:	d2800002 	mov	x2, #0x0                   	// #0
     c78:	54000080 	b.eq	c88 <printf+0xec>  // b.none
     c7c:	94002a00 	bl	b47c <__stack_chk_fail>
/home/ssysarch/Desktop/nick/jetpack_5/Jetson_Linux_R35.4.1_aarch64/Linux_for_Tegra/sources/tegra/optee-src/nv-optee/optee/optee_os/lib/libutee/trace_ext.c:47
     c80:	52800013 	mov	w19, #0x0                   	// #0
     c84:	17fffff7 	b	c60 <printf+0xc4>
/home/ssysarch/Desktop/nick/jetpack_5/Jetson_Linux_R35.4.1_aarch64/Linux_for_Tegra/sources/tegra/optee-src/nv-optee/optee/optee_os/lib/libutee/trace_ext.c:59
     c88:	2a1303e0 	mov	w0, w19
     c8c:	a9407bfd 	ldp	x29, x30, [sp]
     c90:	a94153f3 	ldp	x19, x20, [sp, #16]
     c94:	9108c3ff 	add	sp, sp, #0x230
     c98:	d65f03c0 	ret

0000000000000c9c <puts>:
puts():
/home/ssysarch/Desktop/nick/jetpack_5/Jetson_Linux_R35.4.1_aarch64/Linux_for_Tegra/sources/tegra/optee-src/nv-optee/optee/optee_os/lib/libutee/trace_ext.c:62
     c9c:	a9be7bfd 	stp	x29, x30, [sp, #-32]!
     ca0:	910003fd 	mov	x29, sp
     ca4:	f9000bf3 	str	x19, [sp, #16]
     ca8:	aa0003f3 	mov	x19, x0
/home/ssysarch/Desktop/nick/jetpack_5/Jetson_Linux_R35.4.1_aarch64/Linux_for_Tegra/sources/tegra/optee-src/nv-optee/optee/optee_os/lib/libutee/trace_ext.c:63
     cac:	94002e12 	bl	c4f4 <trace_get_level>
     cb0:	7100001f 	cmp	w0, #0x0
     cb4:	540000cd 	b.le	ccc <puts+0x30>
/home/ssysarch/Desktop/nick/jetpack_5/Jetson_Linux_R35.4.1_aarch64/Linux_for_Tegra/sources/tegra/optee-src/nv-optee/optee/optee_os/lib/libutee/trace_ext.c:64
     cb8:	aa1303e0 	mov	x0, x19
     cbc:	97ffffac 	bl	b6c <trace_ext_puts>
/home/ssysarch/Desktop/nick/jetpack_5/Jetson_Linux_R35.4.1_aarch64/Linux_for_Tegra/sources/tegra/optee-src/nv-optee/optee/optee_os/lib/libutee/trace_ext.c:65
     cc0:	90000880 	adrp	x0, 110000 <__func__.4124+0x129>
     cc4:	910d8800 	add	x0, x0, #0x362
     cc8:	97ffffa9 	bl	b6c <trace_ext_puts>
/home/ssysarch/Desktop/nick/jetpack_5/Jetson_Linux_R35.4.1_aarch64/Linux_for_Tegra/sources/tegra/optee-src/nv-optee/optee/optee_os/lib/libutee/trace_ext.c:68
     ccc:	52800020 	mov	w0, #0x1                   	// #1
     cd0:	f9400bf3 	ldr	x19, [sp, #16]
     cd4:	a8c27bfd 	ldp	x29, x30, [sp], #32
     cd8:	d65f03c0 	ret

0000000000000cdc <putchar>:
putchar():
/home/ssysarch/Desktop/nick/jetpack_5/Jetson_Linux_R35.4.1_aarch64/Linux_for_Tegra/sources/tegra/optee-src/nv-optee/optee/optee_os/lib/libutee/trace_ext.c:71
     cdc:	a9bd7bfd 	stp	x29, x30, [sp, #-48]!
     ce0:	b0000881 	adrp	x1, 111000 <_DYNAMIC>
     ce4:	910003fd 	mov	x29, sp
     ce8:	f9409821 	ldr	x1, [x1, #304]
     cec:	f9000bf3 	str	x19, [sp, #16]
     cf0:	2a0003f3 	mov	w19, w0
/home/ssysarch/Desktop/nick/jetpack_5/Jetson_Linux_R35.4.1_aarch64/Linux_for_Tegra/sources/tegra/optee-src/nv-optee/optee/optee_os/lib/libutee/trace_ext.c:72
     cf4:	390083f3 	strb	w19, [sp, #32]
/home/ssysarch/Desktop/nick/jetpack_5/Jetson_Linux_R35.4.1_aarch64/Linux_for_Tegra/sources/tegra/optee-src/nv-optee/optee/optee_os/lib/libutee/trace_ext.c:71
     cf8:	f9400020 	ldr	x0, [x1]
     cfc:	f90017e0 	str	x0, [sp, #40]
     d00:	d2800000 	mov	x0, #0x0                   	// #0
/home/ssysarch/Desktop/nick/jetpack_5/Jetson_Linux_R35.4.1_aarch64/Linux_for_Tegra/sources/tegra/optee-src/nv-optee/optee/optee_os/lib/libutee/trace_ext.c:72
     d04:	390087ff 	strb	wzr, [sp, #33]
/home/ssysarch/Desktop/nick/jetpack_5/Jetson_Linux_R35.4.1_aarch64/Linux_for_Tegra/sources/tegra/optee-src/nv-optee/optee/optee_os/lib/libutee/trace_ext.c:74
     d08:	94002dfb 	bl	c4f4 <trace_get_level>
     d0c:	7100001f 	cmp	w0, #0x0
     d10:	5400006d 	b.le	d1c <putchar+0x40>
/home/ssysarch/Desktop/nick/jetpack_5/Jetson_Linux_R35.4.1_aarch64/Linux_for_Tegra/sources/tegra/optee-src/nv-optee/optee/optee_os/lib/libutee/trace_ext.c:75
     d14:	910083e0 	add	x0, sp, #0x20
     d18:	97ffff95 	bl	b6c <trace_ext_puts>
/home/ssysarch/Desktop/nick/jetpack_5/Jetson_Linux_R35.4.1_aarch64/Linux_for_Tegra/sources/tegra/optee-src/nv-optee/optee/optee_os/lib/libutee/trace_ext.c:82
     d1c:	b0000881 	adrp	x1, 111000 <_DYNAMIC>
/home/ssysarch/Desktop/nick/jetpack_5/Jetson_Linux_R35.4.1_aarch64/Linux_for_Tegra/sources/tegra/optee-src/nv-optee/optee/optee_os/lib/libutee/trace_ext.c:81
     d20:	12001e60 	and	w0, w19, #0xff
/home/ssysarch/Desktop/nick/jetpack_5/Jetson_Linux_R35.4.1_aarch64/Linux_for_Tegra/sources/tegra/optee-src/nv-optee/optee/optee_os/lib/libutee/trace_ext.c:82
     d24:	f9409821 	ldr	x1, [x1, #304]
     d28:	f94017e2 	ldr	x2, [sp, #40]
     d2c:	f9400023 	ldr	x3, [x1]
     d30:	eb030042 	subs	x2, x2, x3
     d34:	d2800003 	mov	x3, #0x0                   	// #0
     d38:	54000040 	b.eq	d40 <putchar+0x64>  // b.none
     d3c:	940029d0 	bl	b47c <__stack_chk_fail>
     d40:	f9400bf3 	ldr	x19, [sp, #16]
     d44:	a8c37bfd 	ldp	x29, x30, [sp], #48
     d48:	d65f03c0 	ret

0000000000000d4c <copy_param>:
copy_param():
/home/ssysarch/Desktop/nick/jetpack_5/Jetson_Linux_R35.4.1_aarch64/Linux_for_Tegra/sources/tegra/optee-src/nv-optee/optee/optee_os/lib/libutee/tee_api.c:43
     d4c:	2a0103e3 	mov	w3, w1
     d50:	52800004 	mov	w4, #0x0                   	// #0
     d54:	f8008403 	str	x3, [x0], #8
/home/ssysarch/Desktop/nick/jetpack_5/Jetson_Linux_R35.4.1_aarch64/Linux_for_Tegra/sources/tegra/optee-src/nv-optee/optee/optee_os/lib/libutee/tee_api.c:45
     d58:	1ac42425 	lsr	w5, w1, w4
     d5c:	12000ca3 	and	w3, w5, #0xf
     d60:	71000c7f 	cmp	w3, #0x3
     d64:	540001a0 	b.eq	d98 <copy_param+0x4c>  // b.none
     d68:	721e04bf 	tst	w5, #0xc
     d6c:	540000c1 	b.ne	d84 <copy_param+0x38>  // b.any
     d70:	7100047f 	cmp	w3, #0x1
     d74:	54000120 	b.eq	d98 <copy_param+0x4c>  // b.none
     d78:	d2800003 	mov	x3, #0x0                   	// #0
     d7c:	d2800005 	mov	x5, #0x0                   	// #0
     d80:	14000007 	b	d9c <copy_param+0x50>
     d84:	51001463 	sub	w3, w3, #0x5
     d88:	7100087f 	cmp	w3, #0x2
     d8c:	54ffff68 	b.hi	d78 <copy_param+0x2c>  // b.pmore
/home/ssysarch/Desktop/nick/jetpack_5/Jetson_Linux_R35.4.1_aarch64/Linux_for_Tegra/sources/tegra/optee-src/nv-optee/optee/optee_os/lib/libutee/tee_api.c:55
     d90:	a9400c45 	ldp	x5, x3, [x2]
/home/ssysarch/Desktop/nick/jetpack_5/Jetson_Linux_R35.4.1_aarch64/Linux_for_Tegra/sources/tegra/optee-src/nv-optee/optee/optee_os/lib/libutee/tee_api.c:56
     d94:	14000002 	b	d9c <copy_param+0x50>
/home/ssysarch/Desktop/nick/jetpack_5/Jetson_Linux_R35.4.1_aarch64/Linux_for_Tegra/sources/tegra/optee-src/nv-optee/optee/optee_os/lib/libutee/tee_api.c:49
     d98:	29400c45 	ldp	w5, w3, [x2]
/home/ssysarch/Desktop/nick/jetpack_5/Jetson_Linux_R35.4.1_aarch64/Linux_for_Tegra/sources/tegra/optee-src/nv-optee/optee/optee_os/lib/libutee/tee_api.c:62 (discriminator 2)
     d9c:	a9000c05 	stp	x5, x3, [x0]
/home/ssysarch/Desktop/nick/jetpack_5/Jetson_Linux_R35.4.1_aarch64/Linux_for_Tegra/sources/tegra/optee-src/nv-optee/optee/optee_os/lib/libutee/tee_api.c:44 (discriminator 2)
     da0:	11001084 	add	w4, w4, #0x4
     da4:	91004042 	add	x2, x2, #0x10
     da8:	7100409f 	cmp	w4, #0x10
     dac:	91004000 	add	x0, x0, #0x10
     db0:	54fffd41 	b.ne	d58 <copy_param+0xc>  // b.any
/home/ssysarch/Desktop/nick/jetpack_5/Jetson_Linux_R35.4.1_aarch64/Linux_for_Tegra/sources/tegra/optee-src/nv-optee/optee/optee_os/lib/libutee/tee_api.c:64
     db4:	d65f03c0 	ret

0000000000000db8 <copy_gp11_param>:
copy_gp11_param():
/home/ssysarch/Desktop/nick/jetpack_5/Jetson_Linux_R35.4.1_aarch64/Linux_for_Tegra/sources/tegra/optee-src/nv-optee/optee/optee_os/lib/libutee/tee_api.c:73
     db8:	2a0103e3 	mov	w3, w1
     dbc:	52800004 	mov	w4, #0x0                   	// #0
     dc0:	f8008403 	str	x3, [x0], #8
/home/ssysarch/Desktop/nick/jetpack_5/Jetson_Linux_R35.4.1_aarch64/Linux_for_Tegra/sources/tegra/optee-src/nv-optee/optee/optee_os/lib/libutee/tee_api.c:75
     dc4:	1ac42425 	lsr	w5, w1, w4
     dc8:	12000ca3 	and	w3, w5, #0xf
     dcc:	71000c7f 	cmp	w3, #0x3
     dd0:	540001c0 	b.eq	e08 <copy_gp11_param+0x50>  // b.none
     dd4:	721e04bf 	tst	w5, #0xc
     dd8:	540000c1 	b.ne	df0 <copy_gp11_param+0x38>  // b.any
     ddc:	7100047f 	cmp	w3, #0x1
     de0:	54000140 	b.eq	e08 <copy_gp11_param+0x50>  // b.none
     de4:	d2800003 	mov	x3, #0x0                   	// #0
     de8:	d2800005 	mov	x5, #0x0                   	// #0
     dec:	14000008 	b	e0c <copy_gp11_param+0x54>
     df0:	51001463 	sub	w3, w3, #0x5
     df4:	7100087f 	cmp	w3, #0x2
     df8:	54ffff68 	b.hi	de4 <copy_gp11_param+0x2c>  // b.pmore
/home/ssysarch/Desktop/nick/jetpack_5/Jetson_Linux_R35.4.1_aarch64/Linux_for_Tegra/sources/tegra/optee-src/nv-optee/optee/optee_os/lib/libutee/tee_api.c:85
     dfc:	b9400843 	ldr	w3, [x2, #8]
/home/ssysarch/Desktop/nick/jetpack_5/Jetson_Linux_R35.4.1_aarch64/Linux_for_Tegra/sources/tegra/optee-src/nv-optee/optee/optee_os/lib/libutee/tee_api.c:84
     e00:	f9400045 	ldr	x5, [x2]
/home/ssysarch/Desktop/nick/jetpack_5/Jetson_Linux_R35.4.1_aarch64/Linux_for_Tegra/sources/tegra/optee-src/nv-optee/optee/optee_os/lib/libutee/tee_api.c:86
     e04:	14000002 	b	e0c <copy_gp11_param+0x54>
/home/ssysarch/Desktop/nick/jetpack_5/Jetson_Linux_R35.4.1_aarch64/Linux_for_Tegra/sources/tegra/optee-src/nv-optee/optee/optee_os/lib/libutee/tee_api.c:79
     e08:	29400c45 	ldp	w5, w3, [x2]
/home/ssysarch/Desktop/nick/jetpack_5/Jetson_Linux_R35.4.1_aarch64/Linux_for_Tegra/sources/tegra/optee-src/nv-optee/optee/optee_os/lib/libutee/tee_api.c:92 (discriminator 2)
     e0c:	a9000c05 	stp	x5, x3, [x0]
/home/ssysarch/Desktop/nick/jetpack_5/Jetson_Linux_R35.4.1_aarch64/Linux_for_Tegra/sources/tegra/optee-src/nv-optee/optee/optee_os/lib/libutee/tee_api.c:74 (discriminator 2)
     e10:	11001084 	add	w4, w4, #0x4
     e14:	91004042 	add	x2, x2, #0x10
     e18:	7100409f 	cmp	w4, #0x10
     e1c:	91004000 	add	x0, x0, #0x10
     e20:	54fffd21 	b.ne	dc4 <copy_gp11_param+0xc>  // b.any
/home/ssysarch/Desktop/nick/jetpack_5/Jetson_Linux_R35.4.1_aarch64/Linux_for_Tegra/sources/tegra/optee-src/nv-optee/optee/optee_os/lib/libutee/tee_api.c:94
     e24:	d65f03c0 	ret

0000000000000e28 <check_mem_access_rights_params>:
check_mem_access_rights_params():
/home/ssysarch/Desktop/nick/jetpack_5/Jetson_Linux_R35.4.1_aarch64/Linux_for_Tegra/sources/tegra/optee-src/nv-optee/optee/optee_os/lib/libutee/tee_api.c:261
     e28:	b0000883 	adrp	x3, 111000 <_DYNAMIC>
bufs_intersect():
/home/ssysarch/Desktop/nick/jetpack_5/Jetson_Linux_R35.4.1_aarch64/Linux_for_Tegra/sources/tegra/optee-src/nv-optee/optee/optee_os/lib/libutee/tee_api.c:241
     e2c:	d1000447 	sub	x7, x2, #0x1
     e30:	8b0100e7 	add	x7, x7, x1
check_mem_access_rights_params():
/home/ssysarch/Desktop/nick/jetpack_5/Jetson_Linux_R35.4.1_aarch64/Linux_for_Tegra/sources/tegra/optee-src/nv-optee/optee/optee_os/lib/libutee/tee_api.c:261
     e34:	52800005 	mov	w5, #0x0                   	// #0
     e38:	f940c864 	ldr	x4, [x3, #400]
     e3c:	f940d863 	ldr	x3, [x3, #432]
     e40:	b9400089 	ldr	w9, [x4]
     e44:	1ac52524 	lsr	w4, w9, w5
     e48:	12000c84 	and	w4, w4, #0xf
     e4c:	7100149f 	cmp	w4, #0x5
     e50:	540002e0 	b.eq	eac <check_mem_access_rights_params+0x84>  // b.none
     e54:	51001884 	sub	w4, w4, #0x6
     e58:	7100049f 	cmp	w4, #0x1
     e5c:	540001c8 	b.hi	e94 <check_mem_access_rights_params+0x6c>  // b.pmore
     e60:	528000c6 	mov	w6, #0x6                   	// #6
/home/ssysarch/Desktop/nick/jetpack_5/Jetson_Linux_R35.4.1_aarch64/Linux_for_Tegra/sources/tegra/optee-src/nv-optee/optee/optee_os/lib/libutee/tee_api.c:268
     e64:	a9401068 	ldp	x8, x4, [x3]
bufs_intersect():
/home/ssysarch/Desktop/nick/jetpack_5/Jetson_Linux_R35.4.1_aarch64/Linux_for_Tegra/sources/tegra/optee-src/nv-optee/optee/optee_os/lib/libutee/tee_api.c:244
     e68:	f100005f 	cmp	x2, #0x0
     e6c:	fa401884 	ccmp	x4, #0x0, #0x4, ne  // ne = any
     e70:	54000120 	b.eq	e94 <check_mem_access_rights_params+0x6c>  // b.none
/home/ssysarch/Desktop/nick/jetpack_5/Jetson_Linux_R35.4.1_aarch64/Linux_for_Tegra/sources/tegra/optee-src/nv-optee/optee/optee_os/lib/libutee/tee_api.c:242
     e74:	d1000484 	sub	x4, x4, #0x1
/home/ssysarch/Desktop/nick/jetpack_5/Jetson_Linux_R35.4.1_aarch64/Linux_for_Tegra/sources/tegra/optee-src/nv-optee/optee/optee_os/lib/libutee/tee_api.c:247
     e78:	eb07011f 	cmp	x8, x7
/home/ssysarch/Desktop/nick/jetpack_5/Jetson_Linux_R35.4.1_aarch64/Linux_for_Tegra/sources/tegra/optee-src/nv-optee/optee/optee_os/lib/libutee/tee_api.c:242
     e7c:	8b080084 	add	x4, x4, x8
/home/ssysarch/Desktop/nick/jetpack_5/Jetson_Linux_R35.4.1_aarch64/Linux_for_Tegra/sources/tegra/optee-src/nv-optee/optee/optee_os/lib/libutee/tee_api.c:247
     e80:	fa449022 	ccmp	x1, x4, #0x2, ls  // ls = plast
     e84:	54000088 	b.hi	e94 <check_mem_access_rights_params+0x6c>  // b.pmore
check_mem_access_rights_params():
/home/ssysarch/Desktop/nick/jetpack_5/Jetson_Linux_R35.4.1_aarch64/Linux_for_Tegra/sources/tegra/optee-src/nv-optee/optee/optee_os/lib/libutee/tee_api.c:267
     e88:	320000c6 	orr	w6, w6, #0x1
/home/ssysarch/Desktop/nick/jetpack_5/Jetson_Linux_R35.4.1_aarch64/Linux_for_Tegra/sources/tegra/optee-src/nv-optee/optee/optee_os/lib/libutee/tee_api.c:271
     e8c:	6a26001f 	bics	wzr, w0, w6
     e90:	54000121 	b.ne	eb4 <check_mem_access_rights_params+0x8c>  // b.any
/home/ssysarch/Desktop/nick/jetpack_5/Jetson_Linux_R35.4.1_aarch64/Linux_for_Tegra/sources/tegra/optee-src/nv-optee/optee/optee_os/lib/libutee/tee_api.c:258 (discriminator 2)
     e94:	110010a5 	add	w5, w5, #0x4
     e98:	91004063 	add	x3, x3, #0x10
     e9c:	710040bf 	cmp	w5, #0x10
     ea0:	54fffd21 	b.ne	e44 <check_mem_access_rights_params+0x1c>  // b.any
/home/ssysarch/Desktop/nick/jetpack_5/Jetson_Linux_R35.4.1_aarch64/Linux_for_Tegra/sources/tegra/optee-src/nv-optee/optee/optee_os/lib/libutee/tee_api.c:280
     ea4:	52800000 	mov	w0, #0x0                   	// #0
/home/ssysarch/Desktop/nick/jetpack_5/Jetson_Linux_R35.4.1_aarch64/Linux_for_Tegra/sources/tegra/optee-src/nv-optee/optee/optee_os/lib/libutee/tee_api.c:281
     ea8:	d65f03c0 	ret
/home/ssysarch/Desktop/nick/jetpack_5/Jetson_Linux_R35.4.1_aarch64/Linux_for_Tegra/sources/tegra/optee-src/nv-optee/optee/optee_os/lib/libutee/tee_api.c:259
     eac:	52800086 	mov	w6, #0x4                   	// #4
     eb0:	17ffffed 	b	e64 <check_mem_access_rights_params+0x3c>
/home/ssysarch/Desktop/nick/jetpack_5/Jetson_Linux_R35.4.1_aarch64/Linux_for_Tegra/sources/tegra/optee-src/nv-optee/optee/optee_os/lib/libutee/tee_api.c:272
     eb4:	129fffc0 	mov	w0, #0xffff0001            	// #-65535
     eb8:	17fffffc 	b	ea8 <check_mem_access_rights_params+0x80>

0000000000000ebc <buf_overlaps_no_share_heap>:
buf_overlaps_no_share_heap():
/home/ssysarch/Desktop/nick/jetpack_5/Jetson_Linux_R35.4.1_aarch64/Linux_for_Tegra/sources/tegra/optee-src/nv-optee/optee/optee_os/lib/libutee/tee_api.c:284
     ebc:	aa0003e3 	mov	x3, x0
/home/ssysarch/Desktop/nick/jetpack_5/Jetson_Linux_R35.4.1_aarch64/Linux_for_Tegra/sources/tegra/optee-src/nv-optee/optee/optee_os/lib/libutee/tee_api.c:285
     ec0:	b0000880 	adrp	x0, 111000 <_DYNAMIC>
     ec4:	f940d000 	ldr	x0, [x0, #416]
     ec8:	f9400000 	ldr	x0, [x0]
/home/ssysarch/Desktop/nick/jetpack_5/Jetson_Linux_R35.4.1_aarch64/Linux_for_Tegra/sources/tegra/optee-src/nv-optee/optee/optee_os/lib/libutee/tee_api.c:287
     ecc:	b4000140 	cbz	x0, ef4 <buf_overlaps_no_share_heap+0x38>
/home/ssysarch/Desktop/nick/jetpack_5/Jetson_Linux_R35.4.1_aarch64/Linux_for_Tegra/sources/tegra/optee-src/nv-optee/optee/optee_os/lib/libutee/tee_api.c:284 (discriminator 1)
     ed0:	a9bf7bfd 	stp	x29, x30, [sp, #-16]!
     ed4:	aa0103e2 	mov	x2, x1
/home/ssysarch/Desktop/nick/jetpack_5/Jetson_Linux_R35.4.1_aarch64/Linux_for_Tegra/sources/tegra/optee-src/nv-optee/optee/optee_os/lib/libutee/tee_api.c:287 (discriminator 1)
     ed8:	aa0303e1 	mov	x1, x3
/home/ssysarch/Desktop/nick/jetpack_5/Jetson_Linux_R35.4.1_aarch64/Linux_for_Tegra/sources/tegra/optee-src/nv-optee/optee/optee_os/lib/libutee/tee_api.c:284 (discriminator 1)
     edc:	910003fd 	mov	x29, sp
/home/ssysarch/Desktop/nick/jetpack_5/Jetson_Linux_R35.4.1_aarch64/Linux_for_Tegra/sources/tegra/optee-src/nv-optee/optee/optee_os/lib/libutee/tee_api.c:287 (discriminator 1)
     ee0:	94002887 	bl	b0fc <raw_malloc_buffer_overlaps_heap>
     ee4:	12001c00 	and	w0, w0, #0xff
/home/ssysarch/Desktop/nick/jetpack_5/Jetson_Linux_R35.4.1_aarch64/Linux_for_Tegra/sources/tegra/optee-src/nv-optee/optee/optee_os/lib/libutee/tee_api.c:288 (discriminator 1)
     ee8:	12000000 	and	w0, w0, #0x1
     eec:	a8c17bfd 	ldp	x29, x30, [sp], #16
     ef0:	d65f03c0 	ret
/home/ssysarch/Desktop/nick/jetpack_5/Jetson_Linux_R35.4.1_aarch64/Linux_for_Tegra/sources/tegra/optee-src/nv-optee/optee/optee_os/lib/libutee/tee_api.c:287
     ef4:	52800000 	mov	w0, #0x0                   	// #0
/home/ssysarch/Desktop/nick/jetpack_5/Jetson_Linux_R35.4.1_aarch64/Linux_for_Tegra/sources/tegra/optee-src/nv-optee/optee/optee_os/lib/libutee/tee_api.c:288
     ef8:	12000000 	and	w0, w0, #0x1
     efc:	d65f03c0 	ret

0000000000000f00 <check_invoke_param>:
check_invoke_param():
/home/ssysarch/Desktop/nick/jetpack_5/Jetson_Linux_R35.4.1_aarch64/Linux_for_Tegra/sources/tegra/optee-src/nv-optee/optee/optee_os/lib/libutee/tee_api.c:291
     f00:	a9bc7bfd 	stp	x29, x30, [sp, #-64]!
     f04:	910003fd 	mov	x29, sp
     f08:	a90153f3 	stp	x19, x20, [sp, #16]
     f0c:	91002033 	add	x19, x1, #0x8
     f10:	52800014 	mov	w20, #0x0                   	// #0
     f14:	a9025bf5 	stp	x21, x22, [sp, #32]
     f18:	2a0003f5 	mov	w21, w0
     f1c:	f9001bf7 	str	x23, [sp, #48]
/home/ssysarch/Desktop/nick/jetpack_5/Jetson_Linux_R35.4.1_aarch64/Linux_for_Tegra/sources/tegra/optee-src/nv-optee/optee/optee_os/lib/libutee/tee_api.c:299
     f20:	1ad426a1 	lsr	w1, w21, w20
     f24:	12000c21 	and	w1, w1, #0xf
     f28:	7100143f 	cmp	w1, #0x5
     f2c:	540003a0 	b.eq	fa0 <check_invoke_param+0xa0>  // b.none
     f30:	51001821 	sub	w1, w1, #0x6
     f34:	7100043f 	cmp	w1, #0x1
     f38:	54000228 	b.hi	f7c <check_invoke_param+0x7c>  // b.pmore
     f3c:	528000c0 	mov	w0, #0x6                   	// #6
/home/ssysarch/Desktop/nick/jetpack_5/Jetson_Linux_R35.4.1_aarch64/Linux_for_Tegra/sources/tegra/optee-src/nv-optee/optee/optee_os/lib/libutee/tee_api.c:297
     f40:	a97fde76 	ldp	x22, x23, [x19, #-8]
/home/ssysarch/Desktop/nick/jetpack_5/Jetson_Linux_R35.4.1_aarch64/Linux_for_Tegra/sources/tegra/optee-src/nv-optee/optee/optee_os/lib/libutee/tee_api.c:306
     f44:	32000000 	orr	w0, w0, #0x1
     f48:	aa1703e2 	mov	x2, x23
     f4c:	aa1603e1 	mov	x1, x22
     f50:	97ffffb6 	bl	e28 <check_mem_access_rights_params>
     f54:	34000060 	cbz	w0, f60 <check_invoke_param+0x60>
/home/ssysarch/Desktop/nick/jetpack_5/Jetson_Linux_R35.4.1_aarch64/Linux_for_Tegra/sources/tegra/optee-src/nv-optee/optee/optee_os/lib/libutee/tee_api.c:307
     f58:	52800000 	mov	w0, #0x0                   	// #0
     f5c:	94000bfe 	bl	3f54 <TEE_Panic>
/home/ssysarch/Desktop/nick/jetpack_5/Jetson_Linux_R35.4.1_aarch64/Linux_for_Tegra/sources/tegra/optee-src/nv-optee/optee/optee_os/lib/libutee/tee_api.c:308
     f60:	aa1703e1 	mov	x1, x23
     f64:	aa1603e0 	mov	x0, x22
     f68:	97ffffd5 	bl	ebc <buf_overlaps_no_share_heap>
     f6c:	72001c1f 	tst	w0, #0xff
     f70:	54000060 	b.eq	f7c <check_invoke_param+0x7c>  // b.none
/home/ssysarch/Desktop/nick/jetpack_5/Jetson_Linux_R35.4.1_aarch64/Linux_for_Tegra/sources/tegra/optee-src/nv-optee/optee/optee_os/lib/libutee/tee_api.c:309
     f74:	52800000 	mov	w0, #0x0                   	// #0
     f78:	94000bf7 	bl	3f54 <TEE_Panic>
/home/ssysarch/Desktop/nick/jetpack_5/Jetson_Linux_R35.4.1_aarch64/Linux_for_Tegra/sources/tegra/optee-src/nv-optee/optee/optee_os/lib/libutee/tee_api.c:294 (discriminator 2)
     f7c:	11001294 	add	w20, w20, #0x4
     f80:	91004273 	add	x19, x19, #0x10
     f84:	7100429f 	cmp	w20, #0x10
     f88:	54fffcc1 	b.ne	f20 <check_invoke_param+0x20>  // b.any
/home/ssysarch/Desktop/nick/jetpack_5/Jetson_Linux_R35.4.1_aarch64/Linux_for_Tegra/sources/tegra/optee-src/nv-optee/optee/optee_os/lib/libutee/tee_api.c:315
     f8c:	a94153f3 	ldp	x19, x20, [sp, #16]
     f90:	a9425bf5 	ldp	x21, x22, [sp, #32]
     f94:	f9401bf7 	ldr	x23, [sp, #48]
     f98:	a8c47bfd 	ldp	x29, x30, [sp], #64
     f9c:	d65f03c0 	ret
/home/ssysarch/Desktop/nick/jetpack_5/Jetson_Linux_R35.4.1_aarch64/Linux_for_Tegra/sources/tegra/optee-src/nv-optee/optee/optee_os/lib/libutee/tee_api.c:295
     fa0:	52800080 	mov	w0, #0x4                   	// #4
     fa4:	17ffffe7 	b	f40 <check_invoke_param+0x40>

0000000000000fa8 <update_out_param>:
update_out_param():
/home/ssysarch/Desktop/nick/jetpack_5/Jetson_Linux_R35.4.1_aarch64/Linux_for_Tegra/sources/tegra/optee-src/nv-optee/optee/optee_os/lib/libutee/tee_api.c:180
     fa8:	a9bc7bfd 	stp	x29, x30, [sp, #-64]!
     fac:	910003fd 	mov	x29, sp
     fb0:	a90153f3 	stp	x19, x20, [sp, #16]
/home/ssysarch/Desktop/nick/jetpack_5/Jetson_Linux_R35.4.1_aarch64/Linux_for_Tegra/sources/tegra/optee-src/nv-optee/optee/optee_os/lib/libutee/tee_api.c:182
     fb4:	aa0203f4 	mov	x20, x2
     fb8:	aa0003f3 	mov	x19, x0
/home/ssysarch/Desktop/nick/jetpack_5/Jetson_Linux_R35.4.1_aarch64/Linux_for_Tegra/sources/tegra/optee-src/nv-optee/optee/optee_os/lib/libutee/tee_api.c:180
     fbc:	a90363f7 	stp	x23, x24, [sp, #48]
     fc0:	aa0103f8 	mov	x24, x1
/home/ssysarch/Desktop/nick/jetpack_5/Jetson_Linux_R35.4.1_aarch64/Linux_for_Tegra/sources/tegra/optee-src/nv-optee/optee/optee_os/lib/libutee/tee_api.c:182
     fc4:	f8408697 	ldr	x23, [x20], #8
/home/ssysarch/Desktop/nick/jetpack_5/Jetson_Linux_R35.4.1_aarch64/Linux_for_Tegra/sources/tegra/optee-src/nv-optee/optee/optee_os/lib/libutee/tee_api.c:180
     fc8:	a9025bf5 	stp	x21, x22, [sp, #32]
/home/ssysarch/Desktop/nick/jetpack_5/Jetson_Linux_R35.4.1_aarch64/Linux_for_Tegra/sources/tegra/optee-src/nv-optee/optee/optee_os/lib/libutee/tee_api.c:184
     fcc:	d2800015 	mov	x21, #0x0                   	// #0
/home/ssysarch/Desktop/nick/jetpack_5/Jetson_Linux_R35.4.1_aarch64/Linux_for_Tegra/sources/tegra/optee-src/nv-optee/optee/optee_os/lib/libutee/tee_api.c:188
     fd0:	531e76a0 	lsl	w0, w21, #2
/home/ssysarch/Desktop/nick/jetpack_5/Jetson_Linux_R35.4.1_aarch64/Linux_for_Tegra/sources/tegra/optee-src/nv-optee/optee/optee_os/lib/libutee/tee_api.c:186
     fd4:	f9400696 	ldr	x22, [x20, #8]
/home/ssysarch/Desktop/nick/jetpack_5/Jetson_Linux_R35.4.1_aarch64/Linux_for_Tegra/sources/tegra/optee-src/nv-optee/optee/optee_os/lib/libutee/tee_api.c:188
     fd8:	1ac026e0 	lsr	w0, w23, w0
     fdc:	12000c01 	and	w1, w0, #0xf
     fe0:	721e041f 	tst	w0, #0xc
     fe4:	540000c1 	b.ne	ffc <update_out_param+0x54>  // b.any
     fe8:	721f081f 	tst	w0, #0xe
     fec:	540000e0 	b.eq	1008 <update_out_param+0x60>  // b.none
/home/ssysarch/Desktop/nick/jetpack_5/Jetson_Linux_R35.4.1_aarch64/Linux_for_Tegra/sources/tegra/optee-src/nv-optee/optee/optee_os/lib/libutee/tee_api.c:191
     ff0:	f9400280 	ldr	x0, [x20]
/home/ssysarch/Desktop/nick/jetpack_5/Jetson_Linux_R35.4.1_aarch64/Linux_for_Tegra/sources/tegra/optee-src/nv-optee/optee/optee_os/lib/libutee/tee_api.c:192
     ff4:	29005a60 	stp	w0, w22, [x19]
/home/ssysarch/Desktop/nick/jetpack_5/Jetson_Linux_R35.4.1_aarch64/Linux_for_Tegra/sources/tegra/optee-src/nv-optee/optee/optee_os/lib/libutee/tee_api.c:193
     ff8:	14000004 	b	1008 <update_out_param+0x60>
/home/ssysarch/Desktop/nick/jetpack_5/Jetson_Linux_R35.4.1_aarch64/Linux_for_Tegra/sources/tegra/optee-src/nv-optee/optee/optee_os/lib/libutee/tee_api.c:188
     ffc:	51001820 	sub	w0, w1, #0x6
    1000:	7100041f 	cmp	w0, #0x1
    1004:	54000169 	b.ls	1030 <update_out_param+0x88>  // b.plast
/home/ssysarch/Desktop/nick/jetpack_5/Jetson_Linux_R35.4.1_aarch64/Linux_for_Tegra/sources/tegra/optee-src/nv-optee/optee/optee_os/lib/libutee/tee_api.c:184 (discriminator 2)
    1008:	910006b5 	add	x21, x21, #0x1
    100c:	91004294 	add	x20, x20, #0x10
    1010:	91004273 	add	x19, x19, #0x10
    1014:	f10012bf 	cmp	x21, #0x4
    1018:	54fffdc1 	b.ne	fd0 <update_out_param+0x28>  // b.any
/home/ssysarch/Desktop/nick/jetpack_5/Jetson_Linux_R35.4.1_aarch64/Linux_for_Tegra/sources/tegra/optee-src/nv-optee/optee/optee_os/lib/libutee/tee_api.c:205
    101c:	a94153f3 	ldp	x19, x20, [sp, #16]
    1020:	a9425bf5 	ldp	x21, x22, [sp, #32]
    1024:	a94363f7 	ldp	x23, x24, [sp, #48]
    1028:	a8c47bfd 	ldp	x29, x30, [sp], #64
    102c:	d65f03c0 	ret
/home/ssysarch/Desktop/nick/jetpack_5/Jetson_Linux_R35.4.1_aarch64/Linux_for_Tegra/sources/tegra/optee-src/nv-optee/optee/optee_os/lib/libutee/tee_api.c:196
    1030:	f8757b01 	ldr	x1, [x24, x21, lsl #3]
    1034:	b40000a1 	cbz	x1, 1048 <update_out_param+0xa0>
/home/ssysarch/Desktop/nick/jetpack_5/Jetson_Linux_R35.4.1_aarch64/Linux_for_Tegra/sources/tegra/optee-src/nv-optee/optee/optee_os/lib/libutee/tee_api.c:198
    1038:	a9400a60 	ldp	x0, x2, [x19]
    103c:	eb16005f 	cmp	x2, x22
/home/ssysarch/Desktop/nick/jetpack_5/Jetson_Linux_R35.4.1_aarch64/Linux_for_Tegra/sources/tegra/optee-src/nv-optee/optee/optee_os/lib/libutee/tee_api.c:197
    1040:	9a969042 	csel	x2, x2, x22, ls  // ls = plast
    1044:	97fffbf7 	bl	20 <memcpy>
/home/ssysarch/Desktop/nick/jetpack_5/Jetson_Linux_R35.4.1_aarch64/Linux_for_Tegra/sources/tegra/optee-src/nv-optee/optee/optee_os/lib/libutee/tee_api.c:199
    1048:	f9000676 	str	x22, [x19, #8]
/home/ssysarch/Desktop/nick/jetpack_5/Jetson_Linux_R35.4.1_aarch64/Linux_for_Tegra/sources/tegra/optee-src/nv-optee/optee/optee_os/lib/libutee/tee_api.c:200
    104c:	17ffffef 	b	1008 <update_out_param+0x60>

0000000000001050 <update_out_gp11_param>:
update_out_gp11_param():
/home/ssysarch/Desktop/nick/jetpack_5/Jetson_Linux_R35.4.1_aarch64/Linux_for_Tegra/sources/tegra/optee-src/nv-optee/optee/optee_os/lib/libutee/tee_api.c:210
    1050:	a9bc7bfd 	stp	x29, x30, [sp, #-64]!
    1054:	910003fd 	mov	x29, sp
    1058:	a90153f3 	stp	x19, x20, [sp, #16]
/home/ssysarch/Desktop/nick/jetpack_5/Jetson_Linux_R35.4.1_aarch64/Linux_for_Tegra/sources/tegra/optee-src/nv-optee/optee/optee_os/lib/libutee/tee_api.c:212
    105c:	aa0203f4 	mov	x20, x2
    1060:	aa0003f3 	mov	x19, x0
/home/ssysarch/Desktop/nick/jetpack_5/Jetson_Linux_R35.4.1_aarch64/Linux_for_Tegra/sources/tegra/optee-src/nv-optee/optee/optee_os/lib/libutee/tee_api.c:210
    1064:	a90363f7 	stp	x23, x24, [sp, #48]
    1068:	aa0103f8 	mov	x24, x1
/home/ssysarch/Desktop/nick/jetpack_5/Jetson_Linux_R35.4.1_aarch64/Linux_for_Tegra/sources/tegra/optee-src/nv-optee/optee/optee_os/lib/libutee/tee_api.c:212
    106c:	f8408697 	ldr	x23, [x20], #8
/home/ssysarch/Desktop/nick/jetpack_5/Jetson_Linux_R35.4.1_aarch64/Linux_for_Tegra/sources/tegra/optee-src/nv-optee/optee/optee_os/lib/libutee/tee_api.c:210
    1070:	a9025bf5 	stp	x21, x22, [sp, #32]
/home/ssysarch/Desktop/nick/jetpack_5/Jetson_Linux_R35.4.1_aarch64/Linux_for_Tegra/sources/tegra/optee-src/nv-optee/optee/optee_os/lib/libutee/tee_api.c:214
    1074:	d2800015 	mov	x21, #0x0                   	// #0
/home/ssysarch/Desktop/nick/jetpack_5/Jetson_Linux_R35.4.1_aarch64/Linux_for_Tegra/sources/tegra/optee-src/nv-optee/optee/optee_os/lib/libutee/tee_api.c:218
    1078:	531e76a0 	lsl	w0, w21, #2
/home/ssysarch/Desktop/nick/jetpack_5/Jetson_Linux_R35.4.1_aarch64/Linux_for_Tegra/sources/tegra/optee-src/nv-optee/optee/optee_os/lib/libutee/tee_api.c:216
    107c:	f9400696 	ldr	x22, [x20, #8]
/home/ssysarch/Desktop/nick/jetpack_5/Jetson_Linux_R35.4.1_aarch64/Linux_for_Tegra/sources/tegra/optee-src/nv-optee/optee/optee_os/lib/libutee/tee_api.c:218
    1080:	1ac026e0 	lsr	w0, w23, w0
    1084:	12000c01 	and	w1, w0, #0xf
    1088:	721e041f 	tst	w0, #0xc
    108c:	540000c1 	b.ne	10a4 <update_out_gp11_param+0x54>  // b.any
    1090:	721f081f 	tst	w0, #0xe
    1094:	540000e0 	b.eq	10b0 <update_out_gp11_param+0x60>  // b.none
/home/ssysarch/Desktop/nick/jetpack_5/Jetson_Linux_R35.4.1_aarch64/Linux_for_Tegra/sources/tegra/optee-src/nv-optee/optee/optee_os/lib/libutee/tee_api.c:221
    1098:	f9400280 	ldr	x0, [x20]
/home/ssysarch/Desktop/nick/jetpack_5/Jetson_Linux_R35.4.1_aarch64/Linux_for_Tegra/sources/tegra/optee-src/nv-optee/optee/optee_os/lib/libutee/tee_api.c:222
    109c:	29005a60 	stp	w0, w22, [x19]
/home/ssysarch/Desktop/nick/jetpack_5/Jetson_Linux_R35.4.1_aarch64/Linux_for_Tegra/sources/tegra/optee-src/nv-optee/optee/optee_os/lib/libutee/tee_api.c:223
    10a0:	14000004 	b	10b0 <update_out_gp11_param+0x60>
/home/ssysarch/Desktop/nick/jetpack_5/Jetson_Linux_R35.4.1_aarch64/Linux_for_Tegra/sources/tegra/optee-src/nv-optee/optee/optee_os/lib/libutee/tee_api.c:218
    10a4:	51001820 	sub	w0, w1, #0x6
    10a8:	7100041f 	cmp	w0, #0x1
    10ac:	54000169 	b.ls	10d8 <update_out_gp11_param+0x88>  // b.plast
/home/ssysarch/Desktop/nick/jetpack_5/Jetson_Linux_R35.4.1_aarch64/Linux_for_Tegra/sources/tegra/optee-src/nv-optee/optee/optee_os/lib/libutee/tee_api.c:214 (discriminator 2)
    10b0:	910006b5 	add	x21, x21, #0x1
    10b4:	91004294 	add	x20, x20, #0x10
    10b8:	91004273 	add	x19, x19, #0x10
    10bc:	f10012bf 	cmp	x21, #0x4
    10c0:	54fffdc1 	b.ne	1078 <update_out_gp11_param+0x28>  // b.any
/home/ssysarch/Desktop/nick/jetpack_5/Jetson_Linux_R35.4.1_aarch64/Linux_for_Tegra/sources/tegra/optee-src/nv-optee/optee/optee_os/lib/libutee/tee_api.c:235
    10c4:	a94153f3 	ldp	x19, x20, [sp, #16]
    10c8:	a9425bf5 	ldp	x21, x22, [sp, #32]
    10cc:	a94363f7 	ldp	x23, x24, [sp, #48]
    10d0:	a8c47bfd 	ldp	x29, x30, [sp], #64
    10d4:	d65f03c0 	ret
/home/ssysarch/Desktop/nick/jetpack_5/Jetson_Linux_R35.4.1_aarch64/Linux_for_Tegra/sources/tegra/optee-src/nv-optee/optee/optee_os/lib/libutee/tee_api.c:226
    10d8:	f8757b01 	ldr	x1, [x24, x21, lsl #3]
    10dc:	b40000c1 	cbz	x1, 10f4 <update_out_gp11_param+0xa4>
/home/ssysarch/Desktop/nick/jetpack_5/Jetson_Linux_R35.4.1_aarch64/Linux_for_Tegra/sources/tegra/optee-src/nv-optee/optee/optee_os/lib/libutee/tee_api.c:228
    10e0:	b9400a62 	ldr	w2, [x19, #8]
/home/ssysarch/Desktop/nick/jetpack_5/Jetson_Linux_R35.4.1_aarch64/Linux_for_Tegra/sources/tegra/optee-src/nv-optee/optee/optee_os/lib/libutee/tee_api.c:227
    10e4:	f9400260 	ldr	x0, [x19]
/home/ssysarch/Desktop/nick/jetpack_5/Jetson_Linux_R35.4.1_aarch64/Linux_for_Tegra/sources/tegra/optee-src/nv-optee/optee/optee_os/lib/libutee/tee_api.c:228
    10e8:	eb16005f 	cmp	x2, x22
/home/ssysarch/Desktop/nick/jetpack_5/Jetson_Linux_R35.4.1_aarch64/Linux_for_Tegra/sources/tegra/optee-src/nv-optee/optee/optee_os/lib/libutee/tee_api.c:227
    10ec:	9a969042 	csel	x2, x2, x22, ls  // ls = plast
    10f0:	97fffbcc 	bl	20 <memcpy>
/home/ssysarch/Desktop/nick/jetpack_5/Jetson_Linux_R35.4.1_aarch64/Linux_for_Tegra/sources/tegra/optee-src/nv-optee/optee/optee_os/lib/libutee/tee_api.c:229
    10f4:	b9000a76 	str	w22, [x19, #8]
/home/ssysarch/Desktop/nick/jetpack_5/Jetson_Linux_R35.4.1_aarch64/Linux_for_Tegra/sources/tegra/optee-src/nv-optee/optee/optee_os/lib/libutee/tee_api.c:230
    10f8:	17ffffee 	b	10b0 <update_out_gp11_param+0x60>

00000000000010fc <TEE_CloseTASession>:
TEE_CloseTASession():
/home/ssysarch/Desktop/nick/jetpack_5/Jetson_Linux_R35.4.1_aarch64/Linux_for_Tegra/sources/tegra/optee-src/nv-optee/optee/optee_os/lib/libutee/tee_api.c:415
    10fc:	b4000120 	cbz	x0, 1120 <TEE_CloseTASession+0x24>
/home/ssysarch/Desktop/nick/jetpack_5/Jetson_Linux_R35.4.1_aarch64/Linux_for_Tegra/sources/tegra/optee-src/nv-optee/optee/optee_os/lib/libutee/tee_api.c:414
    1100:	a9bf7bfd 	stp	x29, x30, [sp, #-16]!
    1104:	910003fd 	mov	x29, sp
/home/ssysarch/Desktop/nick/jetpack_5/Jetson_Linux_R35.4.1_aarch64/Linux_for_Tegra/sources/tegra/optee-src/nv-optee/optee/optee_os/lib/libutee/tee_api.c:416
    1108:	97fffdfb 	bl	8f4 <_utee_close_ta_session>
/home/ssysarch/Desktop/nick/jetpack_5/Jetson_Linux_R35.4.1_aarch64/Linux_for_Tegra/sources/tegra/optee-src/nv-optee/optee/optee_os/lib/libutee/tee_api.c:418
    110c:	34000060 	cbz	w0, 1118 <TEE_CloseTASession+0x1c>
/home/ssysarch/Desktop/nick/jetpack_5/Jetson_Linux_R35.4.1_aarch64/Linux_for_Tegra/sources/tegra/optee-src/nv-optee/optee/optee_os/lib/libutee/tee_api.c:421
    1110:	a8c17bfd 	ldp	x29, x30, [sp], #16
/home/ssysarch/Desktop/nick/jetpack_5/Jetson_Linux_R35.4.1_aarch64/Linux_for_Tegra/sources/tegra/optee-src/nv-optee/optee/optee_os/lib/libutee/tee_api.c:419
    1114:	14000b90 	b	3f54 <TEE_Panic>
/home/ssysarch/Desktop/nick/jetpack_5/Jetson_Linux_R35.4.1_aarch64/Linux_for_Tegra/sources/tegra/optee-src/nv-optee/optee/optee_os/lib/libutee/tee_api.c:421
    1118:	a8c17bfd 	ldp	x29, x30, [sp], #16
    111c:	d65f03c0 	ret
    1120:	d65f03c0 	ret

0000000000001124 <TEE_GetCancellationFlag>:
TEE_GetCancellationFlag():
/home/ssysarch/Desktop/nick/jetpack_5/Jetson_Linux_R35.4.1_aarch64/Linux_for_Tegra/sources/tegra/optee-src/nv-optee/optee/optee_os/lib/libutee/tee_api.c:530
    1124:	a9be7bfd 	stp	x29, x30, [sp, #-32]!
    1128:	90000881 	adrp	x1, 111000 <_DYNAMIC>
    112c:	910003fd 	mov	x29, sp
    1130:	f9409821 	ldr	x1, [x1, #304]
    1134:	f9400020 	ldr	x0, [x1]
    1138:	f9000fe0 	str	x0, [sp, #24]
    113c:	d2800000 	mov	x0, #0x0                   	// #0
/home/ssysarch/Desktop/nick/jetpack_5/Jetson_Linux_R35.4.1_aarch64/Linux_for_Tegra/sources/tegra/optee-src/nv-optee/optee/optee_os/lib/libutee/tee_api.c:532
    1140:	910053e0 	add	x0, sp, #0x14
    1144:	97fffdf2 	bl	90c <_utee_get_cancellation_flag>
/home/ssysarch/Desktop/nick/jetpack_5/Jetson_Linux_R35.4.1_aarch64/Linux_for_Tegra/sources/tegra/optee-src/nv-optee/optee/optee_os/lib/libutee/tee_api.c:534
    1148:	34000040 	cbz	w0, 1150 <TEE_GetCancellationFlag+0x2c>
/home/ssysarch/Desktop/nick/jetpack_5/Jetson_Linux_R35.4.1_aarch64/Linux_for_Tegra/sources/tegra/optee-src/nv-optee/optee/optee_os/lib/libutee/tee_api.c:535
    114c:	b90017ff 	str	wzr, [sp, #20]
/home/ssysarch/Desktop/nick/jetpack_5/Jetson_Linux_R35.4.1_aarch64/Linux_for_Tegra/sources/tegra/optee-src/nv-optee/optee/optee_os/lib/libutee/tee_api.c:537
    1150:	90000881 	adrp	x1, 111000 <_DYNAMIC>
/home/ssysarch/Desktop/nick/jetpack_5/Jetson_Linux_R35.4.1_aarch64/Linux_for_Tegra/sources/tegra/optee-src/nv-optee/optee/optee_os/lib/libutee/tee_api.c:536
    1154:	b94017e0 	ldr	w0, [sp, #20]
/home/ssysarch/Desktop/nick/jetpack_5/Jetson_Linux_R35.4.1_aarch64/Linux_for_Tegra/sources/tegra/optee-src/nv-optee/optee/optee_os/lib/libutee/tee_api.c:537
    1158:	f9409821 	ldr	x1, [x1, #304]
/home/ssysarch/Desktop/nick/jetpack_5/Jetson_Linux_R35.4.1_aarch64/Linux_for_Tegra/sources/tegra/optee-src/nv-optee/optee/optee_os/lib/libutee/tee_api.c:536
    115c:	7100001f 	cmp	w0, #0x0
    1160:	1a9f07e0 	cset	w0, ne  // ne = any
/home/ssysarch/Desktop/nick/jetpack_5/Jetson_Linux_R35.4.1_aarch64/Linux_for_Tegra/sources/tegra/optee-src/nv-optee/optee/optee_os/lib/libutee/tee_api.c:537
    1164:	f9400fe2 	ldr	x2, [sp, #24]
    1168:	f9400023 	ldr	x3, [x1]
    116c:	eb030042 	subs	x2, x2, x3
    1170:	d2800003 	mov	x3, #0x0                   	// #0
    1174:	54000040 	b.eq	117c <TEE_GetCancellationFlag+0x58>  // b.none
    1178:	940028c1 	bl	b47c <__stack_chk_fail>
    117c:	a8c27bfd 	ldp	x29, x30, [sp], #32
    1180:	d65f03c0 	ret

0000000000001184 <TEE_UnmaskCancellation>:
TEE_UnmaskCancellation():
/home/ssysarch/Desktop/nick/jetpack_5/Jetson_Linux_R35.4.1_aarch64/Linux_for_Tegra/sources/tegra/optee-src/nv-optee/optee/optee_os/lib/libutee/tee_api.c:540
    1184:	a9be7bfd 	stp	x29, x30, [sp, #-32]!
    1188:	90000881 	adrp	x1, 111000 <_DYNAMIC>
    118c:	910003fd 	mov	x29, sp
    1190:	f9409821 	ldr	x1, [x1, #304]
    1194:	f9400020 	ldr	x0, [x1]
    1198:	f9000fe0 	str	x0, [sp, #24]
    119c:	d2800000 	mov	x0, #0x0                   	// #0
/home/ssysarch/Desktop/nick/jetpack_5/Jetson_Linux_R35.4.1_aarch64/Linux_for_Tegra/sources/tegra/optee-src/nv-optee/optee/optee_os/lib/libutee/tee_api.c:542
    11a0:	910053e0 	add	x0, sp, #0x14
    11a4:	97fffde0 	bl	924 <_utee_unmask_cancellation>
/home/ssysarch/Desktop/nick/jetpack_5/Jetson_Linux_R35.4.1_aarch64/Linux_for_Tegra/sources/tegra/optee-src/nv-optee/optee/optee_os/lib/libutee/tee_api.c:544
    11a8:	34000040 	cbz	w0, 11b0 <TEE_UnmaskCancellation+0x2c>
/home/ssysarch/Desktop/nick/jetpack_5/Jetson_Linux_R35.4.1_aarch64/Linux_for_Tegra/sources/tegra/optee-src/nv-optee/optee/optee_os/lib/libutee/tee_api.c:545
    11ac:	94000b6a 	bl	3f54 <TEE_Panic>
/home/ssysarch/Desktop/nick/jetpack_5/Jetson_Linux_R35.4.1_aarch64/Linux_for_Tegra/sources/tegra/optee-src/nv-optee/optee/optee_os/lib/libutee/tee_api.c:547
    11b0:	90000881 	adrp	x1, 111000 <_DYNAMIC>
/home/ssysarch/Desktop/nick/jetpack_5/Jetson_Linux_R35.4.1_aarch64/Linux_for_Tegra/sources/tegra/optee-src/nv-optee/optee/optee_os/lib/libutee/tee_api.c:546
    11b4:	b94017e0 	ldr	w0, [sp, #20]
/home/ssysarch/Desktop/nick/jetpack_5/Jetson_Linux_R35.4.1_aarch64/Linux_for_Tegra/sources/tegra/optee-src/nv-optee/optee/optee_os/lib/libutee/tee_api.c:547
    11b8:	f9409821 	ldr	x1, [x1, #304]
/home/ssysarch/Desktop/nick/jetpack_5/Jetson_Linux_R35.4.1_aarch64/Linux_for_Tegra/sources/tegra/optee-src/nv-optee/optee/optee_os/lib/libutee/tee_api.c:546
    11bc:	7100001f 	cmp	w0, #0x0
    11c0:	1a9f07e0 	cset	w0, ne  // ne = any
/home/ssysarch/Desktop/nick/jetpack_5/Jetson_Linux_R35.4.1_aarch64/Linux_for_Tegra/sources/tegra/optee-src/nv-optee/optee/optee_os/lib/libutee/tee_api.c:547
    11c4:	f9400fe2 	ldr	x2, [sp, #24]
    11c8:	f9400023 	ldr	x3, [x1]
    11cc:	eb030042 	subs	x2, x2, x3
    11d0:	d2800003 	mov	x3, #0x0                   	// #0
    11d4:	54000040 	b.eq	11dc <TEE_UnmaskCancellation+0x58>  // b.none
    11d8:	940028a9 	bl	b47c <__stack_chk_fail>
    11dc:	a8c27bfd 	ldp	x29, x30, [sp], #32
    11e0:	d65f03c0 	ret

00000000000011e4 <TEE_MaskCancellation>:
TEE_MaskCancellation():
/home/ssysarch/Desktop/nick/jetpack_5/Jetson_Linux_R35.4.1_aarch64/Linux_for_Tegra/sources/tegra/optee-src/nv-optee/optee/optee_os/lib/libutee/tee_api.c:550
    11e4:	a9be7bfd 	stp	x29, x30, [sp, #-32]!
    11e8:	90000881 	adrp	x1, 111000 <_DYNAMIC>
    11ec:	910003fd 	mov	x29, sp
    11f0:	f9409821 	ldr	x1, [x1, #304]
    11f4:	f9400020 	ldr	x0, [x1]
    11f8:	f9000fe0 	str	x0, [sp, #24]
    11fc:	d2800000 	mov	x0, #0x0                   	// #0
/home/ssysarch/Desktop/nick/jetpack_5/Jetson_Linux_R35.4.1_aarch64/Linux_for_Tegra/sources/tegra/optee-src/nv-optee/optee/optee_os/lib/libutee/tee_api.c:552
    1200:	910053e0 	add	x0, sp, #0x14
    1204:	97fffdcb 	bl	930 <_utee_mask_cancellation>
/home/ssysarch/Desktop/nick/jetpack_5/Jetson_Linux_R35.4.1_aarch64/Linux_for_Tegra/sources/tegra/optee-src/nv-optee/optee/optee_os/lib/libutee/tee_api.c:554
    1208:	34000040 	cbz	w0, 1210 <TEE_MaskCancellation+0x2c>
/home/ssysarch/Desktop/nick/jetpack_5/Jetson_Linux_R35.4.1_aarch64/Linux_for_Tegra/sources/tegra/optee-src/nv-optee/optee/optee_os/lib/libutee/tee_api.c:555
    120c:	94000b52 	bl	3f54 <TEE_Panic>
/home/ssysarch/Desktop/nick/jetpack_5/Jetson_Linux_R35.4.1_aarch64/Linux_for_Tegra/sources/tegra/optee-src/nv-optee/optee/optee_os/lib/libutee/tee_api.c:557
    1210:	90000881 	adrp	x1, 111000 <_DYNAMIC>
/home/ssysarch/Desktop/nick/jetpack_5/Jetson_Linux_R35.4.1_aarch64/Linux_for_Tegra/sources/tegra/optee-src/nv-optee/optee/optee_os/lib/libutee/tee_api.c:556
    1214:	b94017e0 	ldr	w0, [sp, #20]
/home/ssysarch/Desktop/nick/jetpack_5/Jetson_Linux_R35.4.1_aarch64/Linux_for_Tegra/sources/tegra/optee-src/nv-optee/optee/optee_os/lib/libutee/tee_api.c:557
    1218:	f9409821 	ldr	x1, [x1, #304]
/home/ssysarch/Desktop/nick/jetpack_5/Jetson_Linux_R35.4.1_aarch64/Linux_for_Tegra/sources/tegra/optee-src/nv-optee/optee/optee_os/lib/libutee/tee_api.c:556
    121c:	7100001f 	cmp	w0, #0x0
    1220:	1a9f07e0 	cset	w0, ne  // ne = any
/home/ssysarch/Desktop/nick/jetpack_5/Jetson_Linux_R35.4.1_aarch64/Linux_for_Tegra/sources/tegra/optee-src/nv-optee/optee/optee_os/lib/libutee/tee_api.c:557
    1224:	f9400fe2 	ldr	x2, [sp, #24]
    1228:	f9400023 	ldr	x3, [x1]
    122c:	eb030042 	subs	x2, x2, x3
    1230:	d2800003 	mov	x3, #0x0                   	// #0
    1234:	54000040 	b.eq	123c <TEE_MaskCancellation+0x58>  // b.none
    1238:	94002891 	bl	b47c <__stack_chk_fail>
    123c:	a8c27bfd 	ldp	x29, x30, [sp], #32
    1240:	d65f03c0 	ret

0000000000001244 <TEE_CheckMemoryAccessRights>:
TEE_CheckMemoryAccessRights():
/home/ssysarch/Desktop/nick/jetpack_5/Jetson_Linux_R35.4.1_aarch64/Linux_for_Tegra/sources/tegra/optee-src/nv-optee/optee/optee_os/lib/libutee/tee_api.c:566
    1244:	b5000102 	cbnz	x2, 1264 <TEE_CheckMemoryAccessRights+0x20>
/home/ssysarch/Desktop/nick/jetpack_5/Jetson_Linux_R35.4.1_aarch64/Linux_for_Tegra/sources/tegra/optee-src/nv-optee/optee/optee_os/lib/libutee/tee_api.c:567
    1248:	52800000 	mov	w0, #0x0                   	// #0
/home/ssysarch/Desktop/nick/jetpack_5/Jetson_Linux_R35.4.1_aarch64/Linux_for_Tegra/sources/tegra/optee-src/nv-optee/optee/optee_os/lib/libutee/tee_api.c:592
    124c:	d65f03c0 	ret
/home/ssysarch/Desktop/nick/jetpack_5/Jetson_Linux_R35.4.1_aarch64/Linux_for_Tegra/sources/tegra/optee-src/nv-optee/optee/optee_os/lib/libutee/tee_api.c:567
    1250:	52800000 	mov	w0, #0x0                   	// #0
/home/ssysarch/Desktop/nick/jetpack_5/Jetson_Linux_R35.4.1_aarch64/Linux_for_Tegra/sources/tegra/optee-src/nv-optee/optee/optee_os/lib/libutee/tee_api.c:592
    1254:	a94153f3 	ldp	x19, x20, [sp, #16]
    1258:	f94013f5 	ldr	x21, [sp, #32]
    125c:	a8c37bfd 	ldp	x29, x30, [sp], #48
    1260:	d65f03c0 	ret
/home/ssysarch/Desktop/nick/jetpack_5/Jetson_Linux_R35.4.1_aarch64/Linux_for_Tegra/sources/tegra/optee-src/nv-optee/optee/optee_os/lib/libutee/tee_api.c:563
    1264:	a9bd7bfd 	stp	x29, x30, [sp, #-48]!
    1268:	910003fd 	mov	x29, sp
    126c:	a90153f3 	stp	x19, x20, [sp, #16]
    1270:	aa0103f4 	mov	x20, x1
    1274:	aa0203f3 	mov	x19, x2
    1278:	f90013f5 	str	x21, [sp, #32]
    127c:	2a0003f5 	mov	w21, w0
/home/ssysarch/Desktop/nick/jetpack_5/Jetson_Linux_R35.4.1_aarch64/Linux_for_Tegra/sources/tegra/optee-src/nv-optee/optee/optee_os/lib/libutee/tee_api.c:573
    1280:	97fffda6 	bl	918 <_utee_check_access_rights>
    1284:	35000200 	cbnz	w0, 12c4 <TEE_CheckMemoryAccessRights+0x80>
/home/ssysarch/Desktop/nick/jetpack_5/Jetson_Linux_R35.4.1_aarch64/Linux_for_Tegra/sources/tegra/optee-src/nv-optee/optee/optee_os/lib/libutee/tee_api.c:584
    1288:	aa1303e2 	mov	x2, x19
    128c:	aa1403e1 	mov	x1, x20
    1290:	12000aa0 	and	w0, w21, #0x7
    1294:	97fffee5 	bl	e28 <check_mem_access_rights_params>
    1298:	35000160 	cbnz	w0, 12c4 <TEE_CheckMemoryAccessRights+0x80>
/home/ssysarch/Desktop/nick/jetpack_5/Jetson_Linux_R35.4.1_aarch64/Linux_for_Tegra/sources/tegra/optee-src/nv-optee/optee/optee_os/lib/libutee/tee_api.c:587
    129c:	aa1303e1 	mov	x1, x19
    12a0:	aa1403e0 	mov	x0, x20
    12a4:	94002827 	bl	b340 <malloc_buffer_overlaps_heap>
    12a8:	72001c1f 	tst	w0, #0xff
    12ac:	54fffd20 	b.eq	1250 <TEE_CheckMemoryAccessRights+0xc>  // b.none
/home/ssysarch/Desktop/nick/jetpack_5/Jetson_Linux_R35.4.1_aarch64/Linux_for_Tegra/sources/tegra/optee-src/nv-optee/optee/optee_os/lib/libutee/tee_api.c:588
    12b0:	aa1303e1 	mov	x1, x19
    12b4:	aa1403e0 	mov	x0, x20
    12b8:	9400281d 	bl	b32c <malloc_buffer_is_within_alloced>
/home/ssysarch/Desktop/nick/jetpack_5/Jetson_Linux_R35.4.1_aarch64/Linux_for_Tegra/sources/tegra/optee-src/nv-optee/optee/optee_os/lib/libutee/tee_api.c:587
    12bc:	72001c1f 	tst	w0, #0xff
    12c0:	54fffc81 	b.ne	1250 <TEE_CheckMemoryAccessRights+0xc>  // b.any
/home/ssysarch/Desktop/nick/jetpack_5/Jetson_Linux_R35.4.1_aarch64/Linux_for_Tegra/sources/tegra/optee-src/nv-optee/optee/optee_os/lib/libutee/tee_api.c:589
    12c4:	129fffc0 	mov	w0, #0xffff0001            	// #-65535
    12c8:	17ffffe3 	b	1254 <TEE_CheckMemoryAccessRights+0x10>

00000000000012cc <map_tmp_param>:
map_tmp_param():
/home/ssysarch/Desktop/nick/jetpack_5/Jetson_Linux_R35.4.1_aarch64/Linux_for_Tegra/sources/tegra/optee-src/nv-optee/optee/optee_os/lib/libutee/tee_api.c:98
    12cc:	a9b87bfd 	stp	x29, x30, [sp, #-128]!
    12d0:	90000884 	adrp	x4, 111000 <_DYNAMIC>
    12d4:	910003fd 	mov	x29, sp
    12d8:	f9409884 	ldr	x4, [x4, #304]
    12dc:	a9046bf9 	stp	x25, x26, [sp, #64]
    12e0:	aa0003f9 	mov	x25, x0
    12e4:	a90153f3 	stp	x19, x20, [sp, #16]
    12e8:	f9400080 	ldr	x0, [x4]
    12ec:	f9003fe0 	str	x0, [sp, #120]
    12f0:	d2800000 	mov	x0, #0x0                   	// #0
/home/ssysarch/Desktop/nick/jetpack_5/Jetson_Linux_R35.4.1_aarch64/Linux_for_Tegra/sources/tegra/optee-src/nv-optee/optee/optee_os/lib/libutee/tee_api.c:101
    12f4:	d280001a 	mov	x26, #0x0                   	// #0
/home/ssysarch/Desktop/nick/jetpack_5/Jetson_Linux_R35.4.1_aarch64/Linux_for_Tegra/sources/tegra/optee-src/nv-optee/optee/optee_os/lib/libutee/tee_api.c:98
    12f8:	a9025bf5 	stp	x21, x22, [sp, #32]
    12fc:	aa0203f6 	mov	x22, x2
    1300:	aa0303f5 	mov	x21, x3
    1304:	a90363f7 	stp	x23, x24, [sp, #48]
    1308:	91002338 	add	x24, x25, #0x8
    130c:	aa0103f7 	mov	x23, x1
    1310:	a90573fb 	stp	x27, x28, [sp, #80]
/home/ssysarch/Desktop/nick/jetpack_5/Jetson_Linux_R35.4.1_aarch64/Linux_for_Tegra/sources/tegra/optee-src/nv-optee/optee/optee_os/lib/libutee/tee_api.c:115
    1314:	aa1803fb 	mov	x27, x24
/home/ssysarch/Desktop/nick/jetpack_5/Jetson_Linux_R35.4.1_aarch64/Linux_for_Tegra/sources/tegra/optee-src/nv-optee/optee/optee_os/lib/libutee/tee_api.c:135
    1318:	9101c3fc 	add	x28, sp, #0x70
/home/ssysarch/Desktop/nick/jetpack_5/Jetson_Linux_R35.4.1_aarch64/Linux_for_Tegra/sources/tegra/optee-src/nv-optee/optee/optee_os/lib/libutee/tee_api.c:114
    131c:	f900003f 	str	xzr, [x1]
/home/ssysarch/Desktop/nick/jetpack_5/Jetson_Linux_R35.4.1_aarch64/Linux_for_Tegra/sources/tegra/optee-src/nv-optee/optee/optee_os/lib/libutee/tee_api.c:116
    1320:	d2800013 	mov	x19, #0x0                   	// #0
/home/ssysarch/Desktop/nick/jetpack_5/Jetson_Linux_R35.4.1_aarch64/Linux_for_Tegra/sources/tegra/optee-src/nv-optee/optee/optee_os/lib/libutee/tee_api.c:135
    1324:	52800023 	mov	w3, #0x1                   	// #1
/home/ssysarch/Desktop/nick/jetpack_5/Jetson_Linux_R35.4.1_aarch64/Linux_for_Tegra/sources/tegra/optee-src/nv-optee/optee/optee_os/lib/libutee/tee_api.c:115
    1328:	f900005f 	str	xzr, [x2]
/home/ssysarch/Desktop/nick/jetpack_5/Jetson_Linux_R35.4.1_aarch64/Linux_for_Tegra/sources/tegra/optee-src/nv-optee/optee/optee_os/lib/libutee/tee_api.c:103
    132c:	b90073ff 	str	wzr, [sp, #112]
/home/ssysarch/Desktop/nick/jetpack_5/Jetson_Linux_R35.4.1_aarch64/Linux_for_Tegra/sources/tegra/optee-src/nv-optee/optee/optee_os/lib/libutee/tee_api.c:118
    1330:	f9400321 	ldr	x1, [x25]
    1334:	531e7660 	lsl	w0, w19, #2
/home/ssysarch/Desktop/nick/jetpack_5/Jetson_Linux_R35.4.1_aarch64/Linux_for_Tegra/sources/tegra/optee-src/nv-optee/optee/optee_os/lib/libutee/tee_api.c:117
    1338:	f8337abf 	str	xzr, [x21, x19, lsl #3]
/home/ssysarch/Desktop/nick/jetpack_5/Jetson_Linux_R35.4.1_aarch64/Linux_for_Tegra/sources/tegra/optee-src/nv-optee/optee/optee_os/lib/libutee/tee_api.c:118
    133c:	1ac02421 	lsr	w1, w1, w0
    1340:	12000c21 	and	w1, w1, #0xf
    1344:	51001421 	sub	w1, w1, #0x5
    1348:	7100083f 	cmp	w1, #0x2
    134c:	540001e8 	b.hi	1388 <map_tmp_param+0xbc>  // b.pmore
/home/ssysarch/Desktop/nick/jetpack_5/Jetson_Linux_R35.4.1_aarch64/Linux_for_Tegra/sources/tegra/optee-src/nv-optee/optee/optee_os/lib/libutee/tee_api.c:123
    1350:	a9405361 	ldp	x1, x20, [x27]
/home/ssysarch/Desktop/nick/jetpack_5/Jetson_Linux_R35.4.1_aarch64/Linux_for_Tegra/sources/tegra/optee-src/nv-optee/optee/optee_os/lib/libutee/tee_api.c:133
    1354:	f100003f 	cmp	x1, #0x0
    1358:	fa401a84 	ccmp	x20, #0x0, #0x4, ne  // ne = any
    135c:	54000160 	b.eq	1388 <map_tmp_param+0xbc>  // b.none
/home/ssysarch/Desktop/nick/jetpack_5/Jetson_Linux_R35.4.1_aarch64/Linux_for_Tegra/sources/tegra/optee-src/nv-optee/optee/optee_os/lib/libutee/tee_api.c:134 (discriminator 1)
    1360:	aa1403e2 	mov	x2, x20
    1364:	52800020 	mov	w0, #0x1                   	// #1
    1368:	b9006fe3 	str	w3, [sp, #108]
    136c:	97ffffb6 	bl	1244 <TEE_CheckMemoryAccessRights>
/home/ssysarch/Desktop/nick/jetpack_5/Jetson_Linux_R35.4.1_aarch64/Linux_for_Tegra/sources/tegra/optee-src/nv-optee/optee/optee_os/lib/libutee/tee_api.c:133 (discriminator 1)
    1370:	b9406fe3 	ldr	w3, [sp, #108]
    1374:	350000a0 	cbnz	w0, 1388 <map_tmp_param+0xbc>
/home/ssysarch/Desktop/nick/jetpack_5/Jetson_Linux_R35.4.1_aarch64/Linux_for_Tegra/sources/tegra/optee-src/nv-optee/optee/optee_os/lib/libutee/tee_api.c:136
    1378:	91003e94 	add	x20, x20, #0xf
/home/ssysarch/Desktop/nick/jetpack_5/Jetson_Linux_R35.4.1_aarch64/Linux_for_Tegra/sources/tegra/optee-src/nv-optee/optee/optee_os/lib/libutee/tee_api.c:135
    137c:	383c6a63 	strb	w3, [x19, x28]
/home/ssysarch/Desktop/nick/jetpack_5/Jetson_Linux_R35.4.1_aarch64/Linux_for_Tegra/sources/tegra/optee-src/nv-optee/optee/optee_os/lib/libutee/tee_api.c:136
    1380:	927cee94 	and	x20, x20, #0xfffffffffffffff0
    1384:	8b14035a 	add	x26, x26, x20
/home/ssysarch/Desktop/nick/jetpack_5/Jetson_Linux_R35.4.1_aarch64/Linux_for_Tegra/sources/tegra/optee-src/nv-optee/optee/optee_os/lib/libutee/tee_api.c:116 (discriminator 2)
    1388:	91000673 	add	x19, x19, #0x1
    138c:	9100437b 	add	x27, x27, #0x10
    1390:	f100127f 	cmp	x19, #0x4
    1394:	54fffce1 	b.ne	1330 <map_tmp_param+0x64>  // b.any
/home/ssysarch/Desktop/nick/jetpack_5/Jetson_Linux_R35.4.1_aarch64/Linux_for_Tegra/sources/tegra/optee-src/nv-optee/optee/optee_os/lib/libutee/tee_api.c:144
    1398:	b400053a 	cbz	x26, 143c <map_tmp_param+0x170>
/home/ssysarch/Desktop/nick/jetpack_5/Jetson_Linux_R35.4.1_aarch64/Linux_for_Tegra/sources/tegra/optee-src/nv-optee/optee/optee_os/lib/libutee/tee_api.c:145
    139c:	2a1303e1 	mov	w1, w19
    13a0:	aa1a03e0 	mov	x0, x26
    13a4:	94000fa0 	bl	5224 <tee_map_zi>
/home/ssysarch/Desktop/nick/jetpack_5/Jetson_Linux_R35.4.1_aarch64/Linux_for_Tegra/sources/tegra/optee-src/nv-optee/optee/optee_os/lib/libutee/tee_api.c:146
    13a8:	b40004e0 	cbz	x0, 1444 <map_tmp_param+0x178>
/home/ssysarch/Desktop/nick/jetpack_5/Jetson_Linux_R35.4.1_aarch64/Linux_for_Tegra/sources/tegra/optee-src/nv-optee/optee/optee_os/lib/libutee/tee_api.c:148
    13ac:	f90002e0 	str	x0, [x23]
/home/ssysarch/Desktop/nick/jetpack_5/Jetson_Linux_R35.4.1_aarch64/Linux_for_Tegra/sources/tegra/optee-src/nv-optee/optee/optee_os/lib/libutee/tee_api.c:149
    13b0:	f90002da 	str	x26, [x22]
/home/ssysarch/Desktop/nick/jetpack_5/Jetson_Linux_R35.4.1_aarch64/Linux_for_Tegra/sources/tegra/optee-src/nv-optee/optee/optee_os/lib/libutee/tee_api.c:157
    13b4:	9101c3f6 	add	x22, sp, #0x70
/home/ssysarch/Desktop/nick/jetpack_5/Jetson_Linux_R35.4.1_aarch64/Linux_for_Tegra/sources/tegra/optee-src/nv-optee/optee/optee_os/lib/libutee/tee_api.c:100
    13b8:	d2800013 	mov	x19, #0x0                   	// #0
/home/ssysarch/Desktop/nick/jetpack_5/Jetson_Linux_R35.4.1_aarch64/Linux_for_Tegra/sources/tegra/optee-src/nv-optee/optee/optee_os/lib/libutee/tee_api.c:153
    13bc:	f9400323 	ldr	x3, [x25]
    13c0:	531e7661 	lsl	w1, w19, #2
    13c4:	1ac12463 	lsr	w3, w3, w1
    13c8:	12000c63 	and	w3, w3, #0xf
    13cc:	51001461 	sub	w1, w3, #0x5
    13d0:	7100083f 	cmp	w1, #0x2
    13d4:	540001a8 	b.hi	1408 <map_tmp_param+0x13c>  // b.pmore
/home/ssysarch/Desktop/nick/jetpack_5/Jetson_Linux_R35.4.1_aarch64/Linux_for_Tegra/sources/tegra/optee-src/nv-optee/optee/optee_os/lib/libutee/tee_api.c:157
    13d8:	38766a61 	ldrb	w1, [x19, x22]
    13dc:	34000161 	cbz	w1, 1408 <map_tmp_param+0x13c>
/home/ssysarch/Desktop/nick/jetpack_5/Jetson_Linux_R35.4.1_aarch64/Linux_for_Tegra/sources/tegra/optee-src/nv-optee/optee/optee_os/lib/libutee/tee_api.c:159
    13e0:	a9400b01 	ldp	x1, x2, [x24]
/home/ssysarch/Desktop/nick/jetpack_5/Jetson_Linux_R35.4.1_aarch64/Linux_for_Tegra/sources/tegra/optee-src/nv-optee/optee/optee_os/lib/libutee/tee_api.c:161
    13e4:	f8337aa0 	str	x0, [x21, x19, lsl #3]
/home/ssysarch/Desktop/nick/jetpack_5/Jetson_Linux_R35.4.1_aarch64/Linux_for_Tegra/sources/tegra/optee-src/nv-optee/optee/optee_os/lib/libutee/tee_api.c:163
    13e8:	f9000300 	str	x0, [x24]
/home/ssysarch/Desktop/nick/jetpack_5/Jetson_Linux_R35.4.1_aarch64/Linux_for_Tegra/sources/tegra/optee-src/nv-optee/optee/optee_os/lib/libutee/tee_api.c:164
    13ec:	7100187f 	cmp	w3, #0x6
/home/ssysarch/Desktop/nick/jetpack_5/Jetson_Linux_R35.4.1_aarch64/Linux_for_Tegra/sources/tegra/optee-src/nv-optee/optee/optee_os/lib/libutee/tee_api.c:162
    13f0:	91003c54 	add	x20, x2, #0xf
    13f4:	927cee94 	and	x20, x20, #0xfffffffffffffff0
    13f8:	8b140014 	add	x20, x0, x20
/home/ssysarch/Desktop/nick/jetpack_5/Jetson_Linux_R35.4.1_aarch64/Linux_for_Tegra/sources/tegra/optee-src/nv-optee/optee/optee_os/lib/libutee/tee_api.c:164
    13fc:	54000040 	b.eq	1404 <map_tmp_param+0x138>  // b.none
/home/ssysarch/Desktop/nick/jetpack_5/Jetson_Linux_R35.4.1_aarch64/Linux_for_Tegra/sources/tegra/optee-src/nv-optee/optee/optee_os/lib/libutee/tee_api.c:166
    1400:	97fffb08 	bl	20 <memcpy>
/home/ssysarch/Desktop/nick/jetpack_5/Jetson_Linux_R35.4.1_aarch64/Linux_for_Tegra/sources/tegra/optee-src/nv-optee/optee/optee_os/lib/libutee/tee_api.c:162
    1404:	aa1403e0 	mov	x0, x20
/home/ssysarch/Desktop/nick/jetpack_5/Jetson_Linux_R35.4.1_aarch64/Linux_for_Tegra/sources/tegra/optee-src/nv-optee/optee/optee_os/lib/libutee/tee_api.c:152 (discriminator 2)
    1408:	91000673 	add	x19, x19, #0x1
    140c:	91004318 	add	x24, x24, #0x10
    1410:	f100127f 	cmp	x19, #0x4
    1414:	54fffd41 	b.ne	13bc <map_tmp_param+0xf0>  // b.any
/home/ssysarch/Desktop/nick/jetpack_5/Jetson_Linux_R35.4.1_aarch64/Linux_for_Tegra/sources/tegra/optee-src/nv-optee/optee/optee_os/lib/libutee/tee_api.c:173
    1418:	52800000 	mov	w0, #0x0                   	// #0
/home/ssysarch/Desktop/nick/jetpack_5/Jetson_Linux_R35.4.1_aarch64/Linux_for_Tegra/sources/tegra/optee-src/nv-optee/optee/optee_os/lib/libutee/tee_api.c:175
    141c:	90000884 	adrp	x4, 111000 <_DYNAMIC>
    1420:	f9409884 	ldr	x4, [x4, #304]
    1424:	f9403fe1 	ldr	x1, [sp, #120]
    1428:	f9400082 	ldr	x2, [x4]
    142c:	eb020021 	subs	x1, x1, x2
    1430:	d2800002 	mov	x2, #0x0                   	// #0
    1434:	540000c0 	b.eq	144c <map_tmp_param+0x180>  // b.none
    1438:	94002811 	bl	b47c <__stack_chk_fail>
/home/ssysarch/Desktop/nick/jetpack_5/Jetson_Linux_R35.4.1_aarch64/Linux_for_Tegra/sources/tegra/optee-src/nv-optee/optee/optee_os/lib/libutee/tee_api.c:100
    143c:	d2800000 	mov	x0, #0x0                   	// #0
    1440:	17ffffdd 	b	13b4 <map_tmp_param+0xe8>
/home/ssysarch/Desktop/nick/jetpack_5/Jetson_Linux_R35.4.1_aarch64/Linux_for_Tegra/sources/tegra/optee-src/nv-optee/optee/optee_os/lib/libutee/tee_api.c:147
    1444:	129ffe60 	mov	w0, #0xffff000c            	// #-65524
    1448:	17fffff5 	b	141c <map_tmp_param+0x150>
/home/ssysarch/Desktop/nick/jetpack_5/Jetson_Linux_R35.4.1_aarch64/Linux_for_Tegra/sources/tegra/optee-src/nv-optee/optee/optee_os/lib/libutee/tee_api.c:175
    144c:	a94153f3 	ldp	x19, x20, [sp, #16]
    1450:	a9425bf5 	ldp	x21, x22, [sp, #32]
    1454:	a94363f7 	ldp	x23, x24, [sp, #48]
    1458:	a9446bf9 	ldp	x25, x26, [sp, #64]
    145c:	a94573fb 	ldp	x27, x28, [sp, #80]
    1460:	a8c87bfd 	ldp	x29, x30, [sp], #128
    1464:	d65f03c0 	ret

0000000000001468 <TEE_OpenTASession>:
TEE_OpenTASession():
/home/ssysarch/Desktop/nick/jetpack_5/Jetson_Linux_R35.4.1_aarch64/Linux_for_Tegra/sources/tegra/optee-src/nv-optee/optee/optee_os/lib/libutee/tee_api.c:323
    1468:	a9b27bfd 	stp	x29, x30, [sp, #-224]!
    146c:	90000886 	adrp	x6, 111000 <_DYNAMIC>
    1470:	910003fd 	mov	x29, sp
    1474:	f94098c6 	ldr	x6, [x6, #304]
    1478:	a90363f7 	stp	x23, x24, [sp, #48]
    147c:	aa0003f7 	mov	x23, x0
    1480:	f94000c0 	ldr	x0, [x6]
    1484:	f9006fe0 	str	x0, [sp, #216]
    1488:	d2800000 	mov	x0, #0x0                   	// #0
    148c:	a90153f3 	stp	x19, x20, [sp, #16]
    1490:	2a0103f8 	mov	w24, w1
    1494:	a9025bf5 	stp	x21, x22, [sp, #32]
    1498:	2a0203f3 	mov	w19, w2
    149c:	aa0303f4 	mov	x20, x3
    14a0:	a9046bf9 	stp	x25, x26, [sp, #64]
    14a4:	aa0403f5 	mov	x21, x4
    14a8:	aa0503f9 	mov	x25, x5
/home/ssysarch/Desktop/nick/jetpack_5/Jetson_Linux_R35.4.1_aarch64/Linux_for_Tegra/sources/tegra/optee-src/nv-optee/optee/optee_os/lib/libutee/tee_api.c:326
    14ac:	b9005fff 	str	wzr, [sp, #92]
/home/ssysarch/Desktop/nick/jetpack_5/Jetson_Linux_R35.4.1_aarch64/Linux_for_Tegra/sources/tegra/optee-src/nv-optee/optee/optee_os/lib/libutee/tee_api.c:328
    14b0:	a9067fff 	stp	xzr, xzr, [sp, #96]
/home/ssysarch/Desktop/nick/jetpack_5/Jetson_Linux_R35.4.1_aarch64/Linux_for_Tegra/sources/tegra/optee-src/nv-optee/optee/optee_os/lib/libutee/tee_api.c:329
    14b4:	a9077fff 	stp	xzr, xzr, [sp, #112]
    14b8:	a9087fff 	stp	xzr, xzr, [sp, #128]
/home/ssysarch/Desktop/nick/jetpack_5/Jetson_Linux_R35.4.1_aarch64/Linux_for_Tegra/sources/tegra/optee-src/nv-optee/optee/optee_os/lib/libutee/tee_api.c:325
    14bc:	a9097fff 	stp	xzr, xzr, [sp, #144]
    14c0:	a90a7fff 	stp	xzr, xzr, [sp, #160]
    14c4:	a90b7fff 	stp	xzr, xzr, [sp, #176]
    14c8:	a90c7fff 	stp	xzr, xzr, [sp, #192]
    14cc:	f9006bff 	str	xzr, [sp, #208]
/home/ssysarch/Desktop/nick/jetpack_5/Jetson_Linux_R35.4.1_aarch64/Linux_for_Tegra/sources/tegra/optee-src/nv-optee/optee/optee_os/lib/libutee/tee_api.c:331
    14d0:	340000e2 	cbz	w2, 14ec <TEE_OpenTASession+0x84>
/home/ssysarch/Desktop/nick/jetpack_5/Jetson_Linux_R35.4.1_aarch64/Linux_for_Tegra/sources/tegra/optee-src/nv-optee/optee/optee_os/lib/libutee/tee_api.c:332
    14d4:	aa0303e0 	mov	x0, x3
    14d8:	d2800801 	mov	x1, #0x40                  	// #64
    14dc:	94000b47 	bl	41f8 <__utee_check_inout_annotation>
/home/ssysarch/Desktop/nick/jetpack_5/Jetson_Linux_R35.4.1_aarch64/Linux_for_Tegra/sources/tegra/optee-src/nv-optee/optee/optee_os/lib/libutee/tee_api.c:335
    14e0:	aa1403e1 	mov	x1, x20
    14e4:	2a1303e0 	mov	w0, w19
    14e8:	97fffe86 	bl	f00 <check_invoke_param>
/home/ssysarch/Desktop/nick/jetpack_5/Jetson_Linux_R35.4.1_aarch64/Linux_for_Tegra/sources/tegra/optee-src/nv-optee/optee/optee_os/lib/libutee/tee_api.c:337
    14ec:	aa1503e0 	mov	x0, x21
/home/ssysarch/Desktop/nick/jetpack_5/Jetson_Linux_R35.4.1_aarch64/Linux_for_Tegra/sources/tegra/optee-src/nv-optee/optee/optee_os/lib/libutee/tee_api.c:339
    14f0:	910243f6 	add	x22, sp, #0x90
/home/ssysarch/Desktop/nick/jetpack_5/Jetson_Linux_R35.4.1_aarch64/Linux_for_Tegra/sources/tegra/optee-src/nv-optee/optee/optee_os/lib/libutee/tee_api.c:337
    14f4:	d2800101 	mov	x1, #0x8                   	// #8
    14f8:	94000b1d 	bl	416c <__utee_check_out_annotation>
/home/ssysarch/Desktop/nick/jetpack_5/Jetson_Linux_R35.4.1_aarch64/Linux_for_Tegra/sources/tegra/optee-src/nv-optee/optee/optee_os/lib/libutee/tee_api.c:339
    14fc:	2a1303e1 	mov	w1, w19
    1500:	aa1403e2 	mov	x2, x20
    1504:	aa1603e0 	mov	x0, x22
/home/ssysarch/Desktop/nick/jetpack_5/Jetson_Linux_R35.4.1_aarch64/Linux_for_Tegra/sources/tegra/optee-src/nv-optee/optee/optee_os/lib/libutee/tee_api.c:340
    1508:	9101c3fa 	add	x26, sp, #0x70
/home/ssysarch/Desktop/nick/jetpack_5/Jetson_Linux_R35.4.1_aarch64/Linux_for_Tegra/sources/tegra/optee-src/nv-optee/optee/optee_os/lib/libutee/tee_api.c:339
    150c:	97fffe10 	bl	d4c <copy_param>
/home/ssysarch/Desktop/nick/jetpack_5/Jetson_Linux_R35.4.1_aarch64/Linux_for_Tegra/sources/tegra/optee-src/nv-optee/optee/optee_os/lib/libutee/tee_api.c:340
    1510:	aa1a03e3 	mov	x3, x26
    1514:	9101a3e2 	add	x2, sp, #0x68
    1518:	910183e1 	add	x1, sp, #0x60
    151c:	aa1603e0 	mov	x0, x22
    1520:	97ffff6b 	bl	12cc <map_tmp_param>
    1524:	2a0003f3 	mov	w19, w0
/home/ssysarch/Desktop/nick/jetpack_5/Jetson_Linux_R35.4.1_aarch64/Linux_for_Tegra/sources/tegra/optee-src/nv-optee/optee/optee_os/lib/libutee/tee_api.c:341
    1528:	35000260 	cbnz	w0, 1574 <TEE_OpenTASession+0x10c>
/home/ssysarch/Desktop/nick/jetpack_5/Jetson_Linux_R35.4.1_aarch64/Linux_for_Tegra/sources/tegra/optee-src/nv-optee/optee/optee_os/lib/libutee/tee_api.c:343
    152c:	aa1903e4 	mov	x4, x25
    1530:	910173e3 	add	x3, sp, #0x5c
    1534:	aa1603e2 	mov	x2, x22
    1538:	2a1803e1 	mov	w1, w24
    153c:	aa1703e0 	mov	x0, x23
    1540:	97fffcea 	bl	8e8 <_utee_open_ta_session>
/home/ssysarch/Desktop/nick/jetpack_5/Jetson_Linux_R35.4.1_aarch64/Linux_for_Tegra/sources/tegra/optee-src/nv-optee/optee/optee_os/lib/libutee/tee_api.c:345
    1544:	aa1603e2 	mov	x2, x22
/home/ssysarch/Desktop/nick/jetpack_5/Jetson_Linux_R35.4.1_aarch64/Linux_for_Tegra/sources/tegra/optee-src/nv-optee/optee/optee_os/lib/libutee/tee_api.c:343
    1548:	2a0003f3 	mov	w19, w0
/home/ssysarch/Desktop/nick/jetpack_5/Jetson_Linux_R35.4.1_aarch64/Linux_for_Tegra/sources/tegra/optee-src/nv-optee/optee/optee_os/lib/libutee/tee_api.c:345
    154c:	aa1a03e1 	mov	x1, x26
    1550:	aa1403e0 	mov	x0, x20
    1554:	97fffe95 	bl	fa8 <update_out_param>
/home/ssysarch/Desktop/nick/jetpack_5/Jetson_Linux_R35.4.1_aarch64/Linux_for_Tegra/sources/tegra/optee-src/nv-optee/optee/optee_os/lib/libutee/tee_api.c:346
    1558:	f94033e0 	ldr	x0, [sp, #96]
    155c:	b40000a0 	cbz	x0, 1570 <TEE_OpenTASession+0x108>
/home/ssysarch/Desktop/nick/jetpack_5/Jetson_Linux_R35.4.1_aarch64/Linux_for_Tegra/sources/tegra/optee-src/nv-optee/optee/optee_os/lib/libutee/tee_api.c:347
    1560:	f94037e1 	ldr	x1, [sp, #104]
    1564:	94000f5c 	bl	52d4 <tee_unmap>
/home/ssysarch/Desktop/nick/jetpack_5/Jetson_Linux_R35.4.1_aarch64/Linux_for_Tegra/sources/tegra/optee-src/nv-optee/optee/optee_os/lib/libutee/tee_api.c:349
    1568:	34000040 	cbz	w0, 1570 <TEE_OpenTASession+0x108>
/home/ssysarch/Desktop/nick/jetpack_5/Jetson_Linux_R35.4.1_aarch64/Linux_for_Tegra/sources/tegra/optee-src/nv-optee/optee/optee_os/lib/libutee/tee_api.c:350
    156c:	94000a7a 	bl	3f54 <TEE_Panic>
/home/ssysarch/Desktop/nick/jetpack_5/Jetson_Linux_R35.4.1_aarch64/Linux_for_Tegra/sources/tegra/optee-src/nv-optee/optee/optee_os/lib/libutee/tee_api.c:359
    1570:	34000053 	cbz	w19, 1578 <TEE_OpenTASession+0x110>
/home/ssysarch/Desktop/nick/jetpack_5/Jetson_Linux_R35.4.1_aarch64/Linux_for_Tegra/sources/tegra/optee-src/nv-optee/optee/optee_os/lib/libutee/tee_api.c:360
    1574:	b9005fff 	str	wzr, [sp, #92]
/home/ssysarch/Desktop/nick/jetpack_5/Jetson_Linux_R35.4.1_aarch64/Linux_for_Tegra/sources/tegra/optee-src/nv-optee/optee/optee_os/lib/libutee/tee_api.c:364
    1578:	90000886 	adrp	x6, 111000 <_DYNAMIC>
/home/ssysarch/Desktop/nick/jetpack_5/Jetson_Linux_R35.4.1_aarch64/Linux_for_Tegra/sources/tegra/optee-src/nv-optee/optee/optee_os/lib/libutee/tee_api.c:362
    157c:	b9405fe0 	ldr	w0, [sp, #92]
    1580:	f90002a0 	str	x0, [x21]
/home/ssysarch/Desktop/nick/jetpack_5/Jetson_Linux_R35.4.1_aarch64/Linux_for_Tegra/sources/tegra/optee-src/nv-optee/optee/optee_os/lib/libutee/tee_api.c:364
    1584:	f94098c6 	ldr	x6, [x6, #304]
    1588:	f9406fe0 	ldr	x0, [sp, #216]
    158c:	f94000c1 	ldr	x1, [x6]
    1590:	eb010000 	subs	x0, x0, x1
    1594:	d2800001 	mov	x1, #0x0                   	// #0
    1598:	54000040 	b.eq	15a0 <TEE_OpenTASession+0x138>  // b.none
    159c:	940027b8 	bl	b47c <__stack_chk_fail>
    15a0:	2a1303e0 	mov	w0, w19
    15a4:	a94153f3 	ldp	x19, x20, [sp, #16]
    15a8:	a9425bf5 	ldp	x21, x22, [sp, #32]
    15ac:	a94363f7 	ldp	x23, x24, [sp, #48]
    15b0:	a9446bf9 	ldp	x25, x26, [sp, #64]
    15b4:	a8ce7bfd 	ldp	x29, x30, [sp], #224
    15b8:	d65f03c0 	ret

00000000000015bc <__GP11_TEE_OpenTASession>:
__GP11_TEE_OpenTASession():
/home/ssysarch/Desktop/nick/jetpack_5/Jetson_Linux_R35.4.1_aarch64/Linux_for_Tegra/sources/tegra/optee-src/nv-optee/optee/optee_os/lib/libutee/tee_api.c:372
    15bc:	a9b27bfd 	stp	x29, x30, [sp, #-224]!
    15c0:	90000886 	adrp	x6, 111000 <_DYNAMIC>
    15c4:	910003fd 	mov	x29, sp
    15c8:	f94098c6 	ldr	x6, [x6, #304]
    15cc:	a90363f7 	stp	x23, x24, [sp, #48]
    15d0:	aa0003f7 	mov	x23, x0
    15d4:	f94000c0 	ldr	x0, [x6]
    15d8:	f9006fe0 	str	x0, [sp, #216]
    15dc:	d2800000 	mov	x0, #0x0                   	// #0
    15e0:	a90153f3 	stp	x19, x20, [sp, #16]
    15e4:	2a0103f8 	mov	w24, w1
    15e8:	a9025bf5 	stp	x21, x22, [sp, #32]
    15ec:	2a0203f3 	mov	w19, w2
    15f0:	aa0303f4 	mov	x20, x3
    15f4:	a9046bf9 	stp	x25, x26, [sp, #64]
    15f8:	aa0403f5 	mov	x21, x4
    15fc:	aa0503f9 	mov	x25, x5
/home/ssysarch/Desktop/nick/jetpack_5/Jetson_Linux_R35.4.1_aarch64/Linux_for_Tegra/sources/tegra/optee-src/nv-optee/optee/optee_os/lib/libutee/tee_api.c:375
    1600:	b9005fff 	str	wzr, [sp, #92]
/home/ssysarch/Desktop/nick/jetpack_5/Jetson_Linux_R35.4.1_aarch64/Linux_for_Tegra/sources/tegra/optee-src/nv-optee/optee/optee_os/lib/libutee/tee_api.c:377
    1604:	a9067fff 	stp	xzr, xzr, [sp, #96]
/home/ssysarch/Desktop/nick/jetpack_5/Jetson_Linux_R35.4.1_aarch64/Linux_for_Tegra/sources/tegra/optee-src/nv-optee/optee/optee_os/lib/libutee/tee_api.c:378
    1608:	a9077fff 	stp	xzr, xzr, [sp, #112]
    160c:	a9087fff 	stp	xzr, xzr, [sp, #128]
/home/ssysarch/Desktop/nick/jetpack_5/Jetson_Linux_R35.4.1_aarch64/Linux_for_Tegra/sources/tegra/optee-src/nv-optee/optee/optee_os/lib/libutee/tee_api.c:374
    1610:	a9097fff 	stp	xzr, xzr, [sp, #144]
    1614:	a90a7fff 	stp	xzr, xzr, [sp, #160]
    1618:	a90b7fff 	stp	xzr, xzr, [sp, #176]
    161c:	a90c7fff 	stp	xzr, xzr, [sp, #192]
    1620:	f9006bff 	str	xzr, [sp, #208]
/home/ssysarch/Desktop/nick/jetpack_5/Jetson_Linux_R35.4.1_aarch64/Linux_for_Tegra/sources/tegra/optee-src/nv-optee/optee/optee_os/lib/libutee/tee_api.c:380
    1624:	34000082 	cbz	w2, 1634 <__GP11_TEE_OpenTASession+0x78>
/home/ssysarch/Desktop/nick/jetpack_5/Jetson_Linux_R35.4.1_aarch64/Linux_for_Tegra/sources/tegra/optee-src/nv-optee/optee/optee_os/lib/libutee/tee_api.c:381
    1628:	aa0303e0 	mov	x0, x3
    162c:	d2800801 	mov	x1, #0x40                  	// #64
    1630:	94000af2 	bl	41f8 <__utee_check_inout_annotation>
/home/ssysarch/Desktop/nick/jetpack_5/Jetson_Linux_R35.4.1_aarch64/Linux_for_Tegra/sources/tegra/optee-src/nv-optee/optee/optee_os/lib/libutee/tee_api.c:384
    1634:	aa1503e0 	mov	x0, x21
/home/ssysarch/Desktop/nick/jetpack_5/Jetson_Linux_R35.4.1_aarch64/Linux_for_Tegra/sources/tegra/optee-src/nv-optee/optee/optee_os/lib/libutee/tee_api.c:386
    1638:	910243f6 	add	x22, sp, #0x90
/home/ssysarch/Desktop/nick/jetpack_5/Jetson_Linux_R35.4.1_aarch64/Linux_for_Tegra/sources/tegra/optee-src/nv-optee/optee/optee_os/lib/libutee/tee_api.c:384
    163c:	d2800101 	mov	x1, #0x8                   	// #8
    1640:	94000acb 	bl	416c <__utee_check_out_annotation>
/home/ssysarch/Desktop/nick/jetpack_5/Jetson_Linux_R35.4.1_aarch64/Linux_for_Tegra/sources/tegra/optee-src/nv-optee/optee/optee_os/lib/libutee/tee_api.c:386
    1644:	2a1303e1 	mov	w1, w19
    1648:	aa1403e2 	mov	x2, x20
    164c:	aa1603e0 	mov	x0, x22
/home/ssysarch/Desktop/nick/jetpack_5/Jetson_Linux_R35.4.1_aarch64/Linux_for_Tegra/sources/tegra/optee-src/nv-optee/optee/optee_os/lib/libutee/tee_api.c:387
    1650:	9101c3fa 	add	x26, sp, #0x70
/home/ssysarch/Desktop/nick/jetpack_5/Jetson_Linux_R35.4.1_aarch64/Linux_for_Tegra/sources/tegra/optee-src/nv-optee/optee/optee_os/lib/libutee/tee_api.c:386
    1654:	97fffdd9 	bl	db8 <copy_gp11_param>
/home/ssysarch/Desktop/nick/jetpack_5/Jetson_Linux_R35.4.1_aarch64/Linux_for_Tegra/sources/tegra/optee-src/nv-optee/optee/optee_os/lib/libutee/tee_api.c:387
    1658:	aa1a03e3 	mov	x3, x26
    165c:	9101a3e2 	add	x2, sp, #0x68
    1660:	910183e1 	add	x1, sp, #0x60
    1664:	aa1603e0 	mov	x0, x22
    1668:	97ffff19 	bl	12cc <map_tmp_param>
    166c:	2a0003f3 	mov	w19, w0
/home/ssysarch/Desktop/nick/jetpack_5/Jetson_Linux_R35.4.1_aarch64/Linux_for_Tegra/sources/tegra/optee-src/nv-optee/optee/optee_os/lib/libutee/tee_api.c:388
    1670:	35000260 	cbnz	w0, 16bc <__GP11_TEE_OpenTASession+0x100>
/home/ssysarch/Desktop/nick/jetpack_5/Jetson_Linux_R35.4.1_aarch64/Linux_for_Tegra/sources/tegra/optee-src/nv-optee/optee/optee_os/lib/libutee/tee_api.c:390
    1674:	aa1903e4 	mov	x4, x25
    1678:	910173e3 	add	x3, sp, #0x5c
    167c:	aa1603e2 	mov	x2, x22
    1680:	2a1803e1 	mov	w1, w24
    1684:	aa1703e0 	mov	x0, x23
    1688:	97fffc98 	bl	8e8 <_utee_open_ta_session>
/home/ssysarch/Desktop/nick/jetpack_5/Jetson_Linux_R35.4.1_aarch64/Linux_for_Tegra/sources/tegra/optee-src/nv-optee/optee/optee_os/lib/libutee/tee_api.c:392
    168c:	aa1603e2 	mov	x2, x22
/home/ssysarch/Desktop/nick/jetpack_5/Jetson_Linux_R35.4.1_aarch64/Linux_for_Tegra/sources/tegra/optee-src/nv-optee/optee/optee_os/lib/libutee/tee_api.c:390
    1690:	2a0003f3 	mov	w19, w0
/home/ssysarch/Desktop/nick/jetpack_5/Jetson_Linux_R35.4.1_aarch64/Linux_for_Tegra/sources/tegra/optee-src/nv-optee/optee/optee_os/lib/libutee/tee_api.c:392
    1694:	aa1a03e1 	mov	x1, x26
    1698:	aa1403e0 	mov	x0, x20
    169c:	97fffe6d 	bl	1050 <update_out_gp11_param>
/home/ssysarch/Desktop/nick/jetpack_5/Jetson_Linux_R35.4.1_aarch64/Linux_for_Tegra/sources/tegra/optee-src/nv-optee/optee/optee_os/lib/libutee/tee_api.c:393
    16a0:	f94033e0 	ldr	x0, [sp, #96]
    16a4:	b40000a0 	cbz	x0, 16b8 <__GP11_TEE_OpenTASession+0xfc>
/home/ssysarch/Desktop/nick/jetpack_5/Jetson_Linux_R35.4.1_aarch64/Linux_for_Tegra/sources/tegra/optee-src/nv-optee/optee/optee_os/lib/libutee/tee_api.c:394
    16a8:	f94037e1 	ldr	x1, [sp, #104]
    16ac:	94000f0a 	bl	52d4 <tee_unmap>
/home/ssysarch/Desktop/nick/jetpack_5/Jetson_Linux_R35.4.1_aarch64/Linux_for_Tegra/sources/tegra/optee-src/nv-optee/optee/optee_os/lib/libutee/tee_api.c:396
    16b0:	34000040 	cbz	w0, 16b8 <__GP11_TEE_OpenTASession+0xfc>
/home/ssysarch/Desktop/nick/jetpack_5/Jetson_Linux_R35.4.1_aarch64/Linux_for_Tegra/sources/tegra/optee-src/nv-optee/optee/optee_os/lib/libutee/tee_api.c:397
    16b4:	94000a28 	bl	3f54 <TEE_Panic>
/home/ssysarch/Desktop/nick/jetpack_5/Jetson_Linux_R35.4.1_aarch64/Linux_for_Tegra/sources/tegra/optee-src/nv-optee/optee/optee_os/lib/libutee/tee_api.c:406
    16b8:	34000053 	cbz	w19, 16c0 <__GP11_TEE_OpenTASession+0x104>
/home/ssysarch/Desktop/nick/jetpack_5/Jetson_Linux_R35.4.1_aarch64/Linux_for_Tegra/sources/tegra/optee-src/nv-optee/optee/optee_os/lib/libutee/tee_api.c:407
    16bc:	b9005fff 	str	wzr, [sp, #92]
/home/ssysarch/Desktop/nick/jetpack_5/Jetson_Linux_R35.4.1_aarch64/Linux_for_Tegra/sources/tegra/optee-src/nv-optee/optee/optee_os/lib/libutee/tee_api.c:411
    16c0:	90000886 	adrp	x6, 111000 <_DYNAMIC>
/home/ssysarch/Desktop/nick/jetpack_5/Jetson_Linux_R35.4.1_aarch64/Linux_for_Tegra/sources/tegra/optee-src/nv-optee/optee/optee_os/lib/libutee/tee_api.c:409
    16c4:	b9405fe0 	ldr	w0, [sp, #92]
    16c8:	f90002a0 	str	x0, [x21]
/home/ssysarch/Desktop/nick/jetpack_5/Jetson_Linux_R35.4.1_aarch64/Linux_for_Tegra/sources/tegra/optee-src/nv-optee/optee/optee_os/lib/libutee/tee_api.c:411
    16cc:	f94098c6 	ldr	x6, [x6, #304]
    16d0:	f9406fe0 	ldr	x0, [sp, #216]
    16d4:	f94000c1 	ldr	x1, [x6]
    16d8:	eb010000 	subs	x0, x0, x1
    16dc:	d2800001 	mov	x1, #0x0                   	// #0
    16e0:	54000040 	b.eq	16e8 <__GP11_TEE_OpenTASession+0x12c>  // b.none
    16e4:	94002766 	bl	b47c <__stack_chk_fail>
    16e8:	2a1303e0 	mov	w0, w19
    16ec:	a94153f3 	ldp	x19, x20, [sp, #16]
    16f0:	a9425bf5 	ldp	x21, x22, [sp, #32]
    16f4:	a94363f7 	ldp	x23, x24, [sp, #48]
    16f8:	a9446bf9 	ldp	x25, x26, [sp, #64]
    16fc:	a8ce7bfd 	ldp	x29, x30, [sp], #224
    1700:	d65f03c0 	ret

0000000000001704 <TEE_InvokeTACommand>:
TEE_InvokeTACommand():
/home/ssysarch/Desktop/nick/jetpack_5/Jetson_Linux_R35.4.1_aarch64/Linux_for_Tegra/sources/tegra/optee-src/nv-optee/optee/optee_os/lib/libutee/tee_api.c:428
    1704:	a9b27bfd 	stp	x29, x30, [sp, #-224]!
    1708:	90000886 	adrp	x6, 111000 <_DYNAMIC>
    170c:	910003fd 	mov	x29, sp
    1710:	f94098c6 	ldr	x6, [x6, #304]
    1714:	a9025bf5 	stp	x21, x22, [sp, #32]
    1718:	aa0003f6 	mov	x22, x0
    171c:	f94000c0 	ldr	x0, [x6]
    1720:	f9006fe0 	str	x0, [sp, #216]
    1724:	d2800000 	mov	x0, #0x0                   	// #0
    1728:	a90153f3 	stp	x19, x20, [sp, #16]
/home/ssysarch/Desktop/nick/jetpack_5/Jetson_Linux_R35.4.1_aarch64/Linux_for_Tegra/sources/tegra/optee-src/nv-optee/optee/optee_os/lib/libutee/tee_api.c:430
    172c:	52800060 	mov	w0, #0x3                   	// #3
/home/ssysarch/Desktop/nick/jetpack_5/Jetson_Linux_R35.4.1_aarch64/Linux_for_Tegra/sources/tegra/optee-src/nv-optee/optee/optee_os/lib/libutee/tee_api.c:428
    1730:	a90363f7 	stp	x23, x24, [sp, #48]
    1734:	2a0303f3 	mov	w19, w3
    1738:	2a0103f7 	mov	w23, w1
    173c:	a9046bf9 	stp	x25, x26, [sp, #64]
    1740:	2a0203f8 	mov	w24, w2
    1744:	aa0403f5 	mov	x21, x4
/home/ssysarch/Desktop/nick/jetpack_5/Jetson_Linux_R35.4.1_aarch64/Linux_for_Tegra/sources/tegra/optee-src/nv-optee/optee/optee_os/lib/libutee/tee_api.c:430
    1748:	b9005fe0 	str	w0, [sp, #92]
/home/ssysarch/Desktop/nick/jetpack_5/Jetson_Linux_R35.4.1_aarch64/Linux_for_Tegra/sources/tegra/optee-src/nv-optee/optee/optee_os/lib/libutee/tee_api.c:428
    174c:	aa0503f4 	mov	x20, x5
/home/ssysarch/Desktop/nick/jetpack_5/Jetson_Linux_R35.4.1_aarch64/Linux_for_Tegra/sources/tegra/optee-src/nv-optee/optee/optee_os/lib/libutee/tee_api.c:433
    1750:	a9067fff 	stp	xzr, xzr, [sp, #96]
/home/ssysarch/Desktop/nick/jetpack_5/Jetson_Linux_R35.4.1_aarch64/Linux_for_Tegra/sources/tegra/optee-src/nv-optee/optee/optee_os/lib/libutee/tee_api.c:434
    1754:	a9077fff 	stp	xzr, xzr, [sp, #112]
    1758:	a9087fff 	stp	xzr, xzr, [sp, #128]
/home/ssysarch/Desktop/nick/jetpack_5/Jetson_Linux_R35.4.1_aarch64/Linux_for_Tegra/sources/tegra/optee-src/nv-optee/optee/optee_os/lib/libutee/tee_api.c:431
    175c:	a9097fff 	stp	xzr, xzr, [sp, #144]
    1760:	a90a7fff 	stp	xzr, xzr, [sp, #160]
    1764:	a90b7fff 	stp	xzr, xzr, [sp, #176]
    1768:	a90c7fff 	stp	xzr, xzr, [sp, #192]
    176c:	f9006bff 	str	xzr, [sp, #208]
/home/ssysarch/Desktop/nick/jetpack_5/Jetson_Linux_R35.4.1_aarch64/Linux_for_Tegra/sources/tegra/optee-src/nv-optee/optee/optee_os/lib/libutee/tee_api.c:436
    1770:	340000e3 	cbz	w3, 178c <TEE_InvokeTACommand+0x88>
/home/ssysarch/Desktop/nick/jetpack_5/Jetson_Linux_R35.4.1_aarch64/Linux_for_Tegra/sources/tegra/optee-src/nv-optee/optee/optee_os/lib/libutee/tee_api.c:437
    1774:	aa0403e0 	mov	x0, x4
    1778:	d2800801 	mov	x1, #0x40                  	// #64
    177c:	94000a9f 	bl	41f8 <__utee_check_inout_annotation>
/home/ssysarch/Desktop/nick/jetpack_5/Jetson_Linux_R35.4.1_aarch64/Linux_for_Tegra/sources/tegra/optee-src/nv-optee/optee/optee_os/lib/libutee/tee_api.c:440
    1780:	aa1503e1 	mov	x1, x21
    1784:	2a1303e0 	mov	w0, w19
    1788:	97fffdde 	bl	f00 <check_invoke_param>
/home/ssysarch/Desktop/nick/jetpack_5/Jetson_Linux_R35.4.1_aarch64/Linux_for_Tegra/sources/tegra/optee-src/nv-optee/optee/optee_os/lib/libutee/tee_api.c:442
    178c:	b4000094 	cbz	x20, 179c <TEE_InvokeTACommand+0x98>
/home/ssysarch/Desktop/nick/jetpack_5/Jetson_Linux_R35.4.1_aarch64/Linux_for_Tegra/sources/tegra/optee-src/nv-optee/optee/optee_os/lib/libutee/tee_api.c:443
    1790:	aa1403e0 	mov	x0, x20
    1794:	d2800081 	mov	x1, #0x4                   	// #4
    1798:	94000a75 	bl	416c <__utee_check_out_annotation>
/home/ssysarch/Desktop/nick/jetpack_5/Jetson_Linux_R35.4.1_aarch64/Linux_for_Tegra/sources/tegra/optee-src/nv-optee/optee/optee_os/lib/libutee/tee_api.c:446
    179c:	910243f9 	add	x25, sp, #0x90
    17a0:	2a1303e1 	mov	w1, w19
    17a4:	aa1503e2 	mov	x2, x21
    17a8:	aa1903e0 	mov	x0, x25
/home/ssysarch/Desktop/nick/jetpack_5/Jetson_Linux_R35.4.1_aarch64/Linux_for_Tegra/sources/tegra/optee-src/nv-optee/optee/optee_os/lib/libutee/tee_api.c:447
    17ac:	9101c3fa 	add	x26, sp, #0x70
/home/ssysarch/Desktop/nick/jetpack_5/Jetson_Linux_R35.4.1_aarch64/Linux_for_Tegra/sources/tegra/optee-src/nv-optee/optee/optee_os/lib/libutee/tee_api.c:446
    17b0:	97fffd67 	bl	d4c <copy_param>
/home/ssysarch/Desktop/nick/jetpack_5/Jetson_Linux_R35.4.1_aarch64/Linux_for_Tegra/sources/tegra/optee-src/nv-optee/optee/optee_os/lib/libutee/tee_api.c:447
    17b4:	aa1a03e3 	mov	x3, x26
    17b8:	9101a3e2 	add	x2, sp, #0x68
    17bc:	910183e1 	add	x1, sp, #0x60
    17c0:	aa1903e0 	mov	x0, x25
    17c4:	97fffec2 	bl	12cc <map_tmp_param>
    17c8:	2a0003f3 	mov	w19, w0
/home/ssysarch/Desktop/nick/jetpack_5/Jetson_Linux_R35.4.1_aarch64/Linux_for_Tegra/sources/tegra/optee-src/nv-optee/optee/optee_os/lib/libutee/tee_api.c:448
    17cc:	35000240 	cbnz	w0, 1814 <TEE_InvokeTACommand+0x110>
/home/ssysarch/Desktop/nick/jetpack_5/Jetson_Linux_R35.4.1_aarch64/Linux_for_Tegra/sources/tegra/optee-src/nv-optee/optee/optee_os/lib/libutee/tee_api.c:450
    17d0:	910173e4 	add	x4, sp, #0x5c
    17d4:	aa1903e3 	mov	x3, x25
    17d8:	2a1803e2 	mov	w2, w24
    17dc:	2a1703e1 	mov	w1, w23
    17e0:	aa1603e0 	mov	x0, x22
    17e4:	97fffc47 	bl	900 <_utee_invoke_ta_command>
/home/ssysarch/Desktop/nick/jetpack_5/Jetson_Linux_R35.4.1_aarch64/Linux_for_Tegra/sources/tegra/optee-src/nv-optee/optee/optee_os/lib/libutee/tee_api.c:453
    17e8:	aa1903e2 	mov	x2, x25
/home/ssysarch/Desktop/nick/jetpack_5/Jetson_Linux_R35.4.1_aarch64/Linux_for_Tegra/sources/tegra/optee-src/nv-optee/optee/optee_os/lib/libutee/tee_api.c:450
    17ec:	2a0003f3 	mov	w19, w0
/home/ssysarch/Desktop/nick/jetpack_5/Jetson_Linux_R35.4.1_aarch64/Linux_for_Tegra/sources/tegra/optee-src/nv-optee/optee/optee_os/lib/libutee/tee_api.c:453
    17f0:	aa1a03e1 	mov	x1, x26
    17f4:	aa1503e0 	mov	x0, x21
    17f8:	97fffdec 	bl	fa8 <update_out_param>
/home/ssysarch/Desktop/nick/jetpack_5/Jetson_Linux_R35.4.1_aarch64/Linux_for_Tegra/sources/tegra/optee-src/nv-optee/optee/optee_os/lib/libutee/tee_api.c:454
    17fc:	f94033e0 	ldr	x0, [sp, #96]
    1800:	b40000a0 	cbz	x0, 1814 <TEE_InvokeTACommand+0x110>
/home/ssysarch/Desktop/nick/jetpack_5/Jetson_Linux_R35.4.1_aarch64/Linux_for_Tegra/sources/tegra/optee-src/nv-optee/optee/optee_os/lib/libutee/tee_api.c:455
    1804:	f94037e1 	ldr	x1, [sp, #104]
    1808:	94000eb3 	bl	52d4 <tee_unmap>
/home/ssysarch/Desktop/nick/jetpack_5/Jetson_Linux_R35.4.1_aarch64/Linux_for_Tegra/sources/tegra/optee-src/nv-optee/optee/optee_os/lib/libutee/tee_api.c:457
    180c:	34000040 	cbz	w0, 1814 <TEE_InvokeTACommand+0x110>
/home/ssysarch/Desktop/nick/jetpack_5/Jetson_Linux_R35.4.1_aarch64/Linux_for_Tegra/sources/tegra/optee-src/nv-optee/optee/optee_os/lib/libutee/tee_api.c:458
    1810:	940009d1 	bl	3f54 <TEE_Panic>
/home/ssysarch/Desktop/nick/jetpack_5/Jetson_Linux_R35.4.1_aarch64/Linux_for_Tegra/sources/tegra/optee-src/nv-optee/optee/optee_os/lib/libutee/tee_api.c:462
    1814:	b9405fe0 	ldr	w0, [sp, #92]
    1818:	b4000054 	cbz	x20, 1820 <TEE_InvokeTACommand+0x11c>
/home/ssysarch/Desktop/nick/jetpack_5/Jetson_Linux_R35.4.1_aarch64/Linux_for_Tegra/sources/tegra/optee-src/nv-optee/optee/optee_os/lib/libutee/tee_api.c:463
    181c:	b9000280 	str	w0, [x20]
/home/ssysarch/Desktop/nick/jetpack_5/Jetson_Linux_R35.4.1_aarch64/Linux_for_Tegra/sources/tegra/optee-src/nv-optee/optee/optee_os/lib/libutee/tee_api.c:465
    1820:	7100101f 	cmp	w0, #0x4
    1824:	54000140 	b.eq	184c <TEE_InvokeTACommand+0x148>  // b.none
/home/ssysarch/Desktop/nick/jetpack_5/Jetson_Linux_R35.4.1_aarch64/Linux_for_Tegra/sources/tegra/optee-src/nv-optee/optee/optee_os/lib/libutee/tee_api.c:468
    1828:	7100027f 	cmp	w19, #0x0
    182c:	129ffe60 	mov	w0, #0xffff000c            	// #-65524
    1830:	7a401264 	ccmp	w19, w0, #0x4, ne  // ne = any
    1834:	540000c0 	b.eq	184c <TEE_InvokeTACommand+0x148>  // b.none
/home/ssysarch/Desktop/nick/jetpack_5/Jetson_Linux_R35.4.1_aarch64/Linux_for_Tegra/sources/tegra/optee-src/nv-optee/optee/optee_os/lib/libutee/tee_api.c:469
    1838:	1299fb60 	mov	w0, #0xffff3024            	// #-53212
    183c:	6b00027f 	cmp	w19, w0
    1840:	54000060 	b.eq	184c <TEE_InvokeTACommand+0x148>  // b.none
/home/ssysarch/Desktop/nick/jetpack_5/Jetson_Linux_R35.4.1_aarch64/Linux_for_Tegra/sources/tegra/optee-src/nv-optee/optee/optee_os/lib/libutee/tee_api.c:471
    1844:	2a1303e0 	mov	w0, w19
    1848:	940009c3 	bl	3f54 <TEE_Panic>
/home/ssysarch/Desktop/nick/jetpack_5/Jetson_Linux_R35.4.1_aarch64/Linux_for_Tegra/sources/tegra/optee-src/nv-optee/optee/optee_os/lib/libutee/tee_api.c:474
    184c:	90000886 	adrp	x6, 111000 <_DYNAMIC>
    1850:	f94098c6 	ldr	x6, [x6, #304]
    1854:	f9406fe0 	ldr	x0, [sp, #216]
    1858:	f94000c1 	ldr	x1, [x6]
    185c:	eb010000 	subs	x0, x0, x1
    1860:	d2800001 	mov	x1, #0x0                   	// #0
    1864:	54000040 	b.eq	186c <TEE_InvokeTACommand+0x168>  // b.none
    1868:	94002705 	bl	b47c <__stack_chk_fail>
    186c:	2a1303e0 	mov	w0, w19
    1870:	a94153f3 	ldp	x19, x20, [sp, #16]
    1874:	a9425bf5 	ldp	x21, x22, [sp, #32]
    1878:	a94363f7 	ldp	x23, x24, [sp, #48]
    187c:	a9446bf9 	ldp	x25, x26, [sp, #64]
    1880:	a8ce7bfd 	ldp	x29, x30, [sp], #224
    1884:	d65f03c0 	ret

0000000000001888 <__GP11_TEE_InvokeTACommand>:
__GP11_TEE_InvokeTACommand():
/home/ssysarch/Desktop/nick/jetpack_5/Jetson_Linux_R35.4.1_aarch64/Linux_for_Tegra/sources/tegra/optee-src/nv-optee/optee/optee_os/lib/libutee/tee_api.c:481
    1888:	a9b27bfd 	stp	x29, x30, [sp, #-224]!
    188c:	90000886 	adrp	x6, 111000 <_DYNAMIC>
    1890:	910003fd 	mov	x29, sp
    1894:	f94098c6 	ldr	x6, [x6, #304]
    1898:	a90363f7 	stp	x23, x24, [sp, #48]
    189c:	aa0003f7 	mov	x23, x0
    18a0:	f94000c0 	ldr	x0, [x6]
    18a4:	f9006fe0 	str	x0, [sp, #216]
    18a8:	d2800000 	mov	x0, #0x0                   	// #0
    18ac:	a90153f3 	stp	x19, x20, [sp, #16]
/home/ssysarch/Desktop/nick/jetpack_5/Jetson_Linux_R35.4.1_aarch64/Linux_for_Tegra/sources/tegra/optee-src/nv-optee/optee/optee_os/lib/libutee/tee_api.c:483
    18b0:	52800060 	mov	w0, #0x3                   	// #3
/home/ssysarch/Desktop/nick/jetpack_5/Jetson_Linux_R35.4.1_aarch64/Linux_for_Tegra/sources/tegra/optee-src/nv-optee/optee/optee_os/lib/libutee/tee_api.c:481
    18b4:	a9025bf5 	stp	x21, x22, [sp, #32]
    18b8:	2a0103f8 	mov	w24, w1
    18bc:	2a0303f3 	mov	w19, w3
    18c0:	a9046bf9 	stp	x25, x26, [sp, #64]
    18c4:	aa0403f5 	mov	x21, x4
    18c8:	2a0203f9 	mov	w25, w2
/home/ssysarch/Desktop/nick/jetpack_5/Jetson_Linux_R35.4.1_aarch64/Linux_for_Tegra/sources/tegra/optee-src/nv-optee/optee/optee_os/lib/libutee/tee_api.c:483
    18cc:	b9005fe0 	str	w0, [sp, #92]
/home/ssysarch/Desktop/nick/jetpack_5/Jetson_Linux_R35.4.1_aarch64/Linux_for_Tegra/sources/tegra/optee-src/nv-optee/optee/optee_os/lib/libutee/tee_api.c:481
    18d0:	aa0503f4 	mov	x20, x5
/home/ssysarch/Desktop/nick/jetpack_5/Jetson_Linux_R35.4.1_aarch64/Linux_for_Tegra/sources/tegra/optee-src/nv-optee/optee/optee_os/lib/libutee/tee_api.c:486
    18d4:	a9067fff 	stp	xzr, xzr, [sp, #96]
/home/ssysarch/Desktop/nick/jetpack_5/Jetson_Linux_R35.4.1_aarch64/Linux_for_Tegra/sources/tegra/optee-src/nv-optee/optee/optee_os/lib/libutee/tee_api.c:487
    18d8:	a9077fff 	stp	xzr, xzr, [sp, #112]
    18dc:	a9087fff 	stp	xzr, xzr, [sp, #128]
/home/ssysarch/Desktop/nick/jetpack_5/Jetson_Linux_R35.4.1_aarch64/Linux_for_Tegra/sources/tegra/optee-src/nv-optee/optee/optee_os/lib/libutee/tee_api.c:484
    18e0:	a9097fff 	stp	xzr, xzr, [sp, #144]
    18e4:	a90a7fff 	stp	xzr, xzr, [sp, #160]
    18e8:	a90b7fff 	stp	xzr, xzr, [sp, #176]
    18ec:	a90c7fff 	stp	xzr, xzr, [sp, #192]
    18f0:	f9006bff 	str	xzr, [sp, #208]
/home/ssysarch/Desktop/nick/jetpack_5/Jetson_Linux_R35.4.1_aarch64/Linux_for_Tegra/sources/tegra/optee-src/nv-optee/optee/optee_os/lib/libutee/tee_api.c:489
    18f4:	34000083 	cbz	w3, 1904 <__GP11_TEE_InvokeTACommand+0x7c>
/home/ssysarch/Desktop/nick/jetpack_5/Jetson_Linux_R35.4.1_aarch64/Linux_for_Tegra/sources/tegra/optee-src/nv-optee/optee/optee_os/lib/libutee/tee_api.c:490
    18f8:	aa0403e0 	mov	x0, x4
    18fc:	d2800801 	mov	x1, #0x40                  	// #64
    1900:	94000a3e 	bl	41f8 <__utee_check_inout_annotation>
/home/ssysarch/Desktop/nick/jetpack_5/Jetson_Linux_R35.4.1_aarch64/Linux_for_Tegra/sources/tegra/optee-src/nv-optee/optee/optee_os/lib/libutee/tee_api.c:493
    1904:	b4000094 	cbz	x20, 1914 <__GP11_TEE_InvokeTACommand+0x8c>
/home/ssysarch/Desktop/nick/jetpack_5/Jetson_Linux_R35.4.1_aarch64/Linux_for_Tegra/sources/tegra/optee-src/nv-optee/optee/optee_os/lib/libutee/tee_api.c:494
    1908:	aa1403e0 	mov	x0, x20
    190c:	d2800081 	mov	x1, #0x4                   	// #4
    1910:	94000a17 	bl	416c <__utee_check_out_annotation>
/home/ssysarch/Desktop/nick/jetpack_5/Jetson_Linux_R35.4.1_aarch64/Linux_for_Tegra/sources/tegra/optee-src/nv-optee/optee/optee_os/lib/libutee/tee_api.c:497
    1914:	910243f6 	add	x22, sp, #0x90
    1918:	2a1303e1 	mov	w1, w19
    191c:	aa1503e2 	mov	x2, x21
    1920:	aa1603e0 	mov	x0, x22
/home/ssysarch/Desktop/nick/jetpack_5/Jetson_Linux_R35.4.1_aarch64/Linux_for_Tegra/sources/tegra/optee-src/nv-optee/optee/optee_os/lib/libutee/tee_api.c:498
    1924:	9101c3fa 	add	x26, sp, #0x70
/home/ssysarch/Desktop/nick/jetpack_5/Jetson_Linux_R35.4.1_aarch64/Linux_for_Tegra/sources/tegra/optee-src/nv-optee/optee/optee_os/lib/libutee/tee_api.c:497
    1928:	97fffd24 	bl	db8 <copy_gp11_param>
/home/ssysarch/Desktop/nick/jetpack_5/Jetson_Linux_R35.4.1_aarch64/Linux_for_Tegra/sources/tegra/optee-src/nv-optee/optee/optee_os/lib/libutee/tee_api.c:498
    192c:	aa1a03e3 	mov	x3, x26
    1930:	9101a3e2 	add	x2, sp, #0x68
    1934:	910183e1 	add	x1, sp, #0x60
    1938:	aa1603e0 	mov	x0, x22
    193c:	97fffe64 	bl	12cc <map_tmp_param>
    1940:	2a0003f3 	mov	w19, w0
/home/ssysarch/Desktop/nick/jetpack_5/Jetson_Linux_R35.4.1_aarch64/Linux_for_Tegra/sources/tegra/optee-src/nv-optee/optee/optee_os/lib/libutee/tee_api.c:499
    1944:	35000240 	cbnz	w0, 198c <__GP11_TEE_InvokeTACommand+0x104>
/home/ssysarch/Desktop/nick/jetpack_5/Jetson_Linux_R35.4.1_aarch64/Linux_for_Tegra/sources/tegra/optee-src/nv-optee/optee/optee_os/lib/libutee/tee_api.c:501
    1948:	910173e4 	add	x4, sp, #0x5c
    194c:	aa1603e3 	mov	x3, x22
    1950:	2a1903e2 	mov	w2, w25
    1954:	2a1803e1 	mov	w1, w24
    1958:	aa1703e0 	mov	x0, x23
    195c:	97fffbe9 	bl	900 <_utee_invoke_ta_command>
/home/ssysarch/Desktop/nick/jetpack_5/Jetson_Linux_R35.4.1_aarch64/Linux_for_Tegra/sources/tegra/optee-src/nv-optee/optee/optee_os/lib/libutee/tee_api.c:504
    1960:	aa1603e2 	mov	x2, x22
/home/ssysarch/Desktop/nick/jetpack_5/Jetson_Linux_R35.4.1_aarch64/Linux_for_Tegra/sources/tegra/optee-src/nv-optee/optee/optee_os/lib/libutee/tee_api.c:501
    1964:	2a0003f3 	mov	w19, w0
/home/ssysarch/Desktop/nick/jetpack_5/Jetson_Linux_R35.4.1_aarch64/Linux_for_Tegra/sources/tegra/optee-src/nv-optee/optee/optee_os/lib/libutee/tee_api.c:504
    1968:	aa1a03e1 	mov	x1, x26
    196c:	aa1503e0 	mov	x0, x21
    1970:	97fffdb8 	bl	1050 <update_out_gp11_param>
/home/ssysarch/Desktop/nick/jetpack_5/Jetson_Linux_R35.4.1_aarch64/Linux_for_Tegra/sources/tegra/optee-src/nv-optee/optee/optee_os/lib/libutee/tee_api.c:505
    1974:	f94033e0 	ldr	x0, [sp, #96]
    1978:	b40000a0 	cbz	x0, 198c <__GP11_TEE_InvokeTACommand+0x104>
/home/ssysarch/Desktop/nick/jetpack_5/Jetson_Linux_R35.4.1_aarch64/Linux_for_Tegra/sources/tegra/optee-src/nv-optee/optee/optee_os/lib/libutee/tee_api.c:506
    197c:	f94037e1 	ldr	x1, [sp, #104]
    1980:	94000e55 	bl	52d4 <tee_unmap>
/home/ssysarch/Desktop/nick/jetpack_5/Jetson_Linux_R35.4.1_aarch64/Linux_for_Tegra/sources/tegra/optee-src/nv-optee/optee/optee_os/lib/libutee/tee_api.c:508
    1984:	34000040 	cbz	w0, 198c <__GP11_TEE_InvokeTACommand+0x104>
/home/ssysarch/Desktop/nick/jetpack_5/Jetson_Linux_R35.4.1_aarch64/Linux_for_Tegra/sources/tegra/optee-src/nv-optee/optee/optee_os/lib/libutee/tee_api.c:509
    1988:	94000973 	bl	3f54 <TEE_Panic>
/home/ssysarch/Desktop/nick/jetpack_5/Jetson_Linux_R35.4.1_aarch64/Linux_for_Tegra/sources/tegra/optee-src/nv-optee/optee/optee_os/lib/libutee/tee_api.c:513
    198c:	b9405fe0 	ldr	w0, [sp, #92]
    1990:	b4000054 	cbz	x20, 1998 <__GP11_TEE_InvokeTACommand+0x110>
/home/ssysarch/Desktop/nick/jetpack_5/Jetson_Linux_R35.4.1_aarch64/Linux_for_Tegra/sources/tegra/optee-src/nv-optee/optee/optee_os/lib/libutee/tee_api.c:514
    1994:	b9000280 	str	w0, [x20]
/home/ssysarch/Desktop/nick/jetpack_5/Jetson_Linux_R35.4.1_aarch64/Linux_for_Tegra/sources/tegra/optee-src/nv-optee/optee/optee_os/lib/libutee/tee_api.c:516
    1998:	7100101f 	cmp	w0, #0x4
    199c:	54000140 	b.eq	19c4 <__GP11_TEE_InvokeTACommand+0x13c>  // b.none
/home/ssysarch/Desktop/nick/jetpack_5/Jetson_Linux_R35.4.1_aarch64/Linux_for_Tegra/sources/tegra/optee-src/nv-optee/optee/optee_os/lib/libutee/tee_api.c:519
    19a0:	7100027f 	cmp	w19, #0x0
    19a4:	129ffe60 	mov	w0, #0xffff000c            	// #-65524
    19a8:	7a401264 	ccmp	w19, w0, #0x4, ne  // ne = any
    19ac:	540000c0 	b.eq	19c4 <__GP11_TEE_InvokeTACommand+0x13c>  // b.none
/home/ssysarch/Desktop/nick/jetpack_5/Jetson_Linux_R35.4.1_aarch64/Linux_for_Tegra/sources/tegra/optee-src/nv-optee/optee/optee_os/lib/libutee/tee_api.c:520
    19b0:	1299fb60 	mov	w0, #0xffff3024            	// #-53212
    19b4:	6b00027f 	cmp	w19, w0
    19b8:	54000060 	b.eq	19c4 <__GP11_TEE_InvokeTACommand+0x13c>  // b.none
/home/ssysarch/Desktop/nick/jetpack_5/Jetson_Linux_R35.4.1_aarch64/Linux_for_Tegra/sources/tegra/optee-src/nv-optee/optee/optee_os/lib/libutee/tee_api.c:522
    19bc:	2a1303e0 	mov	w0, w19
    19c0:	94000965 	bl	3f54 <TEE_Panic>
/home/ssysarch/Desktop/nick/jetpack_5/Jetson_Linux_R35.4.1_aarch64/Linux_for_Tegra/sources/tegra/optee-src/nv-optee/optee/optee_os/lib/libutee/tee_api.c:525
    19c4:	90000886 	adrp	x6, 111000 <_DYNAMIC>
    19c8:	f94098c6 	ldr	x6, [x6, #304]
    19cc:	f9406fe0 	ldr	x0, [sp, #216]
    19d0:	f94000c1 	ldr	x1, [x6]
    19d4:	eb010000 	subs	x0, x0, x1
    19d8:	d2800001 	mov	x1, #0x0                   	// #0
    19dc:	54000040 	b.eq	19e4 <__GP11_TEE_InvokeTACommand+0x15c>  // b.none
    19e0:	940026a7 	bl	b47c <__stack_chk_fail>
    19e4:	2a1303e0 	mov	w0, w19
    19e8:	a94153f3 	ldp	x19, x20, [sp, #16]
    19ec:	a9425bf5 	ldp	x21, x22, [sp, #32]
    19f0:	a94363f7 	ldp	x23, x24, [sp, #48]
    19f4:	a9446bf9 	ldp	x25, x26, [sp, #64]
    19f8:	a8ce7bfd 	ldp	x29, x30, [sp], #224
    19fc:	d65f03c0 	ret

0000000000001a00 <__GP11_TEE_CheckMemoryAccessRights>:
__GP11_TEE_CheckMemoryAccessRights():
/home/ssysarch/Desktop/nick/jetpack_5/Jetson_Linux_R35.4.1_aarch64/Linux_for_Tegra/sources/tegra/optee-src/nv-optee/optee/optee_os/lib/libutee/tee_api.c:597
    1a00:	2a0203e2 	mov	w2, w2
    1a04:	17fffe10 	b	1244 <TEE_CheckMemoryAccessRights>

0000000000001a08 <TEE_SetInstanceData>:
TEE_SetInstanceData():
/home/ssysarch/Desktop/nick/jetpack_5/Jetson_Linux_R35.4.1_aarch64/Linux_for_Tegra/sources/tegra/optee-src/nv-optee/optee/optee_os/lib/libutee/tee_api.c:602
    1a08:	90000881 	adrp	x1, 111000 <_DYNAMIC>
    1a0c:	f9030820 	str	x0, [x1, #1552]
/home/ssysarch/Desktop/nick/jetpack_5/Jetson_Linux_R35.4.1_aarch64/Linux_for_Tegra/sources/tegra/optee-src/nv-optee/optee/optee_os/lib/libutee/tee_api.c:603
    1a10:	d65f03c0 	ret

0000000000001a14 <TEE_GetInstanceData>:
TEE_GetInstanceData():
/home/ssysarch/Desktop/nick/jetpack_5/Jetson_Linux_R35.4.1_aarch64/Linux_for_Tegra/sources/tegra/optee-src/nv-optee/optee/optee_os/lib/libutee/tee_api.c:608
    1a14:	90000880 	adrp	x0, 111000 <_DYNAMIC>
    1a18:	f9430800 	ldr	x0, [x0, #1552]
    1a1c:	d65f03c0 	ret

0000000000001a20 <TEE_MemMove>:
TEE_MemMove():
/home/ssysarch/Desktop/nick/jetpack_5/Jetson_Linux_R35.4.1_aarch64/Linux_for_Tegra/sources/tegra/optee-src/nv-optee/optee/optee_os/lib/libutee/tee_api.c:612
    1a20:	140026a3 	b	b4ac <memmove>

0000000000001a24 <__GP11_TEE_MemMove>:
__GP11_TEE_MemMove():
/home/ssysarch/Desktop/nick/jetpack_5/Jetson_Linux_R35.4.1_aarch64/Linux_for_Tegra/sources/tegra/optee-src/nv-optee/optee/optee_os/lib/libutee/tee_api.c:617
    1a24:	2a0203e2 	mov	w2, w2
    1a28:	17fffffe 	b	1a20 <TEE_MemMove>

0000000000001a2c <TEE_MemCompare>:
TEE_MemCompare():
/home/ssysarch/Desktop/nick/jetpack_5/Jetson_Linux_R35.4.1_aarch64/Linux_for_Tegra/sources/tegra/optee-src/nv-optee/optee/optee_os/lib/libutee/tee_api.c:622
    1a2c:	14002c3f 	b	cb28 <consttime_memcmp>

0000000000001a30 <__GP11_TEE_MemCompare>:
__GP11_TEE_MemCompare():
/home/ssysarch/Desktop/nick/jetpack_5/Jetson_Linux_R35.4.1_aarch64/Linux_for_Tegra/sources/tegra/optee-src/nv-optee/optee/optee_os/lib/libutee/tee_api.c:628
    1a30:	2a0203e2 	mov	w2, w2
    1a34:	17fffffe 	b	1a2c <TEE_MemCompare>

0000000000001a38 <TEE_MemFill>:
TEE_MemFill():
/home/ssysarch/Desktop/nick/jetpack_5/Jetson_Linux_R35.4.1_aarch64/Linux_for_Tegra/sources/tegra/optee-src/nv-optee/optee/optee_os/lib/libutee/tee_api.c:633
    1a38:	140026b4 	b	b508 <memset>

0000000000001a3c <__GP11_TEE_MemFill>:
__GP11_TEE_MemFill():
/home/ssysarch/Desktop/nick/jetpack_5/Jetson_Linux_R35.4.1_aarch64/Linux_for_Tegra/sources/tegra/optee-src/nv-optee/optee/optee_os/lib/libutee/tee_api.c:638
    1a3c:	2a0203e2 	mov	w2, w2
    1a40:	17fffffe 	b	1a38 <TEE_MemFill>

0000000000001a44 <TEE_GetSystemTime>:
TEE_GetSystemTime():
/home/ssysarch/Desktop/nick/jetpack_5/Jetson_Linux_R35.4.1_aarch64/Linux_for_Tegra/sources/tegra/optee-src/nv-optee/optee/optee_os/lib/libutee/tee_api.c:644
    1a44:	a9bf7bfd 	stp	x29, x30, [sp, #-16]!
/home/ssysarch/Desktop/nick/jetpack_5/Jetson_Linux_R35.4.1_aarch64/Linux_for_Tegra/sources/tegra/optee-src/nv-optee/optee/optee_os/lib/libutee/tee_api.c:645
    1a48:	aa0003e1 	mov	x1, x0
    1a4c:	d2800000 	mov	x0, #0x0                   	// #0
/home/ssysarch/Desktop/nick/jetpack_5/Jetson_Linux_R35.4.1_aarch64/Linux_for_Tegra/sources/tegra/optee-src/nv-optee/optee/optee_os/lib/libutee/tee_api.c:644
    1a50:	910003fd 	mov	x29, sp
/home/ssysarch/Desktop/nick/jetpack_5/Jetson_Linux_R35.4.1_aarch64/Linux_for_Tegra/sources/tegra/optee-src/nv-optee/optee/optee_os/lib/libutee/tee_api.c:645
    1a54:	97fffbbd 	bl	948 <_utee_get_time>
/home/ssysarch/Desktop/nick/jetpack_5/Jetson_Linux_R35.4.1_aarch64/Linux_for_Tegra/sources/tegra/optee-src/nv-optee/optee/optee_os/lib/libutee/tee_api.c:647
    1a58:	34000060 	cbz	w0, 1a64 <TEE_GetSystemTime+0x20>
/home/ssysarch/Desktop/nick/jetpack_5/Jetson_Linux_R35.4.1_aarch64/Linux_for_Tegra/sources/tegra/optee-src/nv-optee/optee/optee_os/lib/libutee/tee_api.c:649
    1a5c:	a8c17bfd 	ldp	x29, x30, [sp], #16
/home/ssysarch/Desktop/nick/jetpack_5/Jetson_Linux_R35.4.1_aarch64/Linux_for_Tegra/sources/tegra/optee-src/nv-optee/optee/optee_os/lib/libutee/tee_api.c:648
    1a60:	1400093d 	b	3f54 <TEE_Panic>
/home/ssysarch/Desktop/nick/jetpack_5/Jetson_Linux_R35.4.1_aarch64/Linux_for_Tegra/sources/tegra/optee-src/nv-optee/optee/optee_os/lib/libutee/tee_api.c:649
    1a64:	a8c17bfd 	ldp	x29, x30, [sp], #16
    1a68:	d65f03c0 	ret

0000000000001a6c <TEE_Wait>:
TEE_Wait():
/home/ssysarch/Desktop/nick/jetpack_5/Jetson_Linux_R35.4.1_aarch64/Linux_for_Tegra/sources/tegra/optee-src/nv-optee/optee/optee_os/lib/libutee/tee_api.c:652
    1a6c:	a9be7bfd 	stp	x29, x30, [sp, #-32]!
/home/ssysarch/Desktop/nick/jetpack_5/Jetson_Linux_R35.4.1_aarch64/Linux_for_Tegra/sources/tegra/optee-src/nv-optee/optee/optee_os/lib/libutee/tee_api.c:653
    1a70:	2a0003e0 	mov	w0, w0
/home/ssysarch/Desktop/nick/jetpack_5/Jetson_Linux_R35.4.1_aarch64/Linux_for_Tegra/sources/tegra/optee-src/nv-optee/optee/optee_os/lib/libutee/tee_api.c:652
    1a74:	910003fd 	mov	x29, sp
    1a78:	f9000bf3 	str	x19, [sp, #16]
/home/ssysarch/Desktop/nick/jetpack_5/Jetson_Linux_R35.4.1_aarch64/Linux_for_Tegra/sources/tegra/optee-src/nv-optee/optee/optee_os/lib/libutee/tee_api.c:653
    1a7c:	97fffbb0 	bl	93c <_utee_wait>
/home/ssysarch/Desktop/nick/jetpack_5/Jetson_Linux_R35.4.1_aarch64/Linux_for_Tegra/sources/tegra/optee-src/nv-optee/optee/optee_os/lib/libutee/tee_api.c:655
    1a80:	7100001f 	cmp	w0, #0x0
    1a84:	129fffa1 	mov	w1, #0xffff0002            	// #-65534
/home/ssysarch/Desktop/nick/jetpack_5/Jetson_Linux_R35.4.1_aarch64/Linux_for_Tegra/sources/tegra/optee-src/nv-optee/optee/optee_os/lib/libutee/tee_api.c:653
    1a88:	2a0003f3 	mov	w19, w0
/home/ssysarch/Desktop/nick/jetpack_5/Jetson_Linux_R35.4.1_aarch64/Linux_for_Tegra/sources/tegra/optee-src/nv-optee/optee/optee_os/lib/libutee/tee_api.c:655
    1a8c:	7a411004 	ccmp	w0, w1, #0x4, ne  // ne = any
    1a90:	54000040 	b.eq	1a98 <TEE_Wait+0x2c>  // b.none
/home/ssysarch/Desktop/nick/jetpack_5/Jetson_Linux_R35.4.1_aarch64/Linux_for_Tegra/sources/tegra/optee-src/nv-optee/optee/optee_os/lib/libutee/tee_api.c:656
    1a94:	94000930 	bl	3f54 <TEE_Panic>
/home/ssysarch/Desktop/nick/jetpack_5/Jetson_Linux_R35.4.1_aarch64/Linux_for_Tegra/sources/tegra/optee-src/nv-optee/optee/optee_os/lib/libutee/tee_api.c:659
    1a98:	2a1303e0 	mov	w0, w19
    1a9c:	f9400bf3 	ldr	x19, [sp, #16]
    1aa0:	a8c27bfd 	ldp	x29, x30, [sp], #32
    1aa4:	d65f03c0 	ret

0000000000001aa8 <TEE_GetTAPersistentTime>:
TEE_GetTAPersistentTime():
/home/ssysarch/Desktop/nick/jetpack_5/Jetson_Linux_R35.4.1_aarch64/Linux_for_Tegra/sources/tegra/optee-src/nv-optee/optee/optee_os/lib/libutee/tee_api.c:662
    1aa8:	a9be7bfd 	stp	x29, x30, [sp, #-32]!
/home/ssysarch/Desktop/nick/jetpack_5/Jetson_Linux_R35.4.1_aarch64/Linux_for_Tegra/sources/tegra/optee-src/nv-optee/optee/optee_os/lib/libutee/tee_api.c:665
    1aac:	aa0003e1 	mov	x1, x0
/home/ssysarch/Desktop/nick/jetpack_5/Jetson_Linux_R35.4.1_aarch64/Linux_for_Tegra/sources/tegra/optee-src/nv-optee/optee/optee_os/lib/libutee/tee_api.c:662
    1ab0:	910003fd 	mov	x29, sp
    1ab4:	a90153f3 	stp	x19, x20, [sp, #16]
    1ab8:	aa0003f4 	mov	x20, x0
/home/ssysarch/Desktop/nick/jetpack_5/Jetson_Linux_R35.4.1_aarch64/Linux_for_Tegra/sources/tegra/optee-src/nv-optee/optee/optee_os/lib/libutee/tee_api.c:665
    1abc:	d2800020 	mov	x0, #0x1                   	// #1
    1ac0:	97fffba2 	bl	948 <_utee_get_time>
/home/ssysarch/Desktop/nick/jetpack_5/Jetson_Linux_R35.4.1_aarch64/Linux_for_Tegra/sources/tegra/optee-src/nv-optee/optee/optee_os/lib/libutee/tee_api.c:667
    1ac4:	7100001f 	cmp	w0, #0x0
/home/ssysarch/Desktop/nick/jetpack_5/Jetson_Linux_R35.4.1_aarch64/Linux_for_Tegra/sources/tegra/optee-src/nv-optee/optee/optee_os/lib/libutee/tee_api.c:665
    1ac8:	2a0003f3 	mov	w19, w0
/home/ssysarch/Desktop/nick/jetpack_5/Jetson_Linux_R35.4.1_aarch64/Linux_for_Tegra/sources/tegra/optee-src/nv-optee/optee/optee_os/lib/libutee/tee_api.c:667
    1acc:	1a9f07e2 	cset	w2, ne  // ne = any
    1ad0:	1299fe00 	mov	w0, #0xffff300f            	// #-53233
    1ad4:	6b00027f 	cmp	w19, w0
    1ad8:	1a9f1041 	csel	w1, w2, wzr, ne  // ne = any
    1adc:	34000041 	cbz	w1, 1ae4 <TEE_GetTAPersistentTime+0x3c>
/home/ssysarch/Desktop/nick/jetpack_5/Jetson_Linux_R35.4.1_aarch64/Linux_for_Tegra/sources/tegra/optee-src/nv-optee/optee/optee_os/lib/libutee/tee_api.c:669
    1ae0:	29007e9f 	stp	wzr, wzr, [x20]
/home/ssysarch/Desktop/nick/jetpack_5/Jetson_Linux_R35.4.1_aarch64/Linux_for_Tegra/sources/tegra/optee-src/nv-optee/optee/optee_os/lib/libutee/tee_api.c:673
    1ae4:	11402e60 	add	w0, w19, #0xb, lsl #12
/home/ssysarch/Desktop/nick/jetpack_5/Jetson_Linux_R35.4.1_aarch64/Linux_for_Tegra/sources/tegra/optee-src/nv-optee/optee/optee_os/lib/libutee/tee_api.c:672
    1ae8:	7100005f 	cmp	w2, #0x0
    1aec:	7a411800 	ccmp	w0, #0x1, #0x0, ne  // ne = any
    1af0:	540000e9 	b.ls	1b0c <TEE_GetTAPersistentTime+0x64>  // b.plast
/home/ssysarch/Desktop/nick/jetpack_5/Jetson_Linux_R35.4.1_aarch64/Linux_for_Tegra/sources/tegra/optee-src/nv-optee/optee/optee_os/lib/libutee/tee_api.c:674
    1af4:	340000c1 	cbz	w1, 1b0c <TEE_GetTAPersistentTime+0x64>
/home/ssysarch/Desktop/nick/jetpack_5/Jetson_Linux_R35.4.1_aarch64/Linux_for_Tegra/sources/tegra/optee-src/nv-optee/optee/optee_os/lib/libutee/tee_api.c:675
    1af8:	129ffe60 	mov	w0, #0xffff000c            	// #-65524
    1afc:	6b00027f 	cmp	w19, w0
    1b00:	54000060 	b.eq	1b0c <TEE_GetTAPersistentTime+0x64>  // b.none
/home/ssysarch/Desktop/nick/jetpack_5/Jetson_Linux_R35.4.1_aarch64/Linux_for_Tegra/sources/tegra/optee-src/nv-optee/optee/optee_os/lib/libutee/tee_api.c:677
    1b04:	2a1303e0 	mov	w0, w19
    1b08:	94000913 	bl	3f54 <TEE_Panic>
/home/ssysarch/Desktop/nick/jetpack_5/Jetson_Linux_R35.4.1_aarch64/Linux_for_Tegra/sources/tegra/optee-src/nv-optee/optee/optee_os/lib/libutee/tee_api.c:680
    1b0c:	2a1303e0 	mov	w0, w19
    1b10:	a94153f3 	ldp	x19, x20, [sp, #16]
    1b14:	a8c27bfd 	ldp	x29, x30, [sp], #32
    1b18:	d65f03c0 	ret

0000000000001b1c <TEE_SetTAPersistentTime>:
TEE_SetTAPersistentTime():
/home/ssysarch/Desktop/nick/jetpack_5/Jetson_Linux_R35.4.1_aarch64/Linux_for_Tegra/sources/tegra/optee-src/nv-optee/optee/optee_os/lib/libutee/tee_api.c:683
    1b1c:	a9be7bfd 	stp	x29, x30, [sp, #-32]!
    1b20:	910003fd 	mov	x29, sp
    1b24:	f9000bf3 	str	x19, [sp, #16]
/home/ssysarch/Desktop/nick/jetpack_5/Jetson_Linux_R35.4.1_aarch64/Linux_for_Tegra/sources/tegra/optee-src/nv-optee/optee/optee_os/lib/libutee/tee_api.c:686
    1b28:	97fffb8b 	bl	954 <_utee_set_ta_time>
/home/ssysarch/Desktop/nick/jetpack_5/Jetson_Linux_R35.4.1_aarch64/Linux_for_Tegra/sources/tegra/optee-src/nv-optee/optee/optee_os/lib/libutee/tee_api.c:688
    1b2c:	7100001f 	cmp	w0, #0x0
    1b30:	129ffe61 	mov	w1, #0xffff000c            	// #-65524
/home/ssysarch/Desktop/nick/jetpack_5/Jetson_Linux_R35.4.1_aarch64/Linux_for_Tegra/sources/tegra/optee-src/nv-optee/optee/optee_os/lib/libutee/tee_api.c:686
    1b34:	2a0003f3 	mov	w19, w0
/home/ssysarch/Desktop/nick/jetpack_5/Jetson_Linux_R35.4.1_aarch64/Linux_for_Tegra/sources/tegra/optee-src/nv-optee/optee/optee_os/lib/libutee/tee_api.c:688
    1b38:	7a411004 	ccmp	w0, w1, #0x4, ne  // ne = any
    1b3c:	540000a0 	b.eq	1b50 <TEE_SetTAPersistentTime+0x34>  // b.none
/home/ssysarch/Desktop/nick/jetpack_5/Jetson_Linux_R35.4.1_aarch64/Linux_for_Tegra/sources/tegra/optee-src/nv-optee/optee/optee_os/lib/libutee/tee_api.c:689
    1b40:	1299f7c1 	mov	w1, #0xffff3041            	// #-53183
    1b44:	6b01001f 	cmp	w0, w1
    1b48:	54000040 	b.eq	1b50 <TEE_SetTAPersistentTime+0x34>  // b.none
/home/ssysarch/Desktop/nick/jetpack_5/Jetson_Linux_R35.4.1_aarch64/Linux_for_Tegra/sources/tegra/optee-src/nv-optee/optee/optee_os/lib/libutee/tee_api.c:691
    1b4c:	94000902 	bl	3f54 <TEE_Panic>
/home/ssysarch/Desktop/nick/jetpack_5/Jetson_Linux_R35.4.1_aarch64/Linux_for_Tegra/sources/tegra/optee-src/nv-optee/optee/optee_os/lib/libutee/tee_api.c:694
    1b50:	2a1303e0 	mov	w0, w19
    1b54:	f9400bf3 	ldr	x19, [sp, #16]
    1b58:	a8c27bfd 	ldp	x29, x30, [sp], #32
    1b5c:	d65f03c0 	ret

0000000000001b60 <TEE_GetREETime>:
TEE_GetREETime():
/home/ssysarch/Desktop/nick/jetpack_5/Jetson_Linux_R35.4.1_aarch64/Linux_for_Tegra/sources/tegra/optee-src/nv-optee/optee/optee_os/lib/libutee/tee_api.c:697
    1b60:	a9bf7bfd 	stp	x29, x30, [sp, #-16]!
/home/ssysarch/Desktop/nick/jetpack_5/Jetson_Linux_R35.4.1_aarch64/Linux_for_Tegra/sources/tegra/optee-src/nv-optee/optee/optee_os/lib/libutee/tee_api.c:698
    1b64:	aa0003e1 	mov	x1, x0
    1b68:	d2800040 	mov	x0, #0x2                   	// #2
/home/ssysarch/Desktop/nick/jetpack_5/Jetson_Linux_R35.4.1_aarch64/Linux_for_Tegra/sources/tegra/optee-src/nv-optee/optee/optee_os/lib/libutee/tee_api.c:697
    1b6c:	910003fd 	mov	x29, sp
/home/ssysarch/Desktop/nick/jetpack_5/Jetson_Linux_R35.4.1_aarch64/Linux_for_Tegra/sources/tegra/optee-src/nv-optee/optee/optee_os/lib/libutee/tee_api.c:698
    1b70:	97fffb76 	bl	948 <_utee_get_time>
/home/ssysarch/Desktop/nick/jetpack_5/Jetson_Linux_R35.4.1_aarch64/Linux_for_Tegra/sources/tegra/optee-src/nv-optee/optee/optee_os/lib/libutee/tee_api.c:700
    1b74:	34000060 	cbz	w0, 1b80 <TEE_GetREETime+0x20>
/home/ssysarch/Desktop/nick/jetpack_5/Jetson_Linux_R35.4.1_aarch64/Linux_for_Tegra/sources/tegra/optee-src/nv-optee/optee/optee_os/lib/libutee/tee_api.c:702
    1b78:	a8c17bfd 	ldp	x29, x30, [sp], #16
/home/ssysarch/Desktop/nick/jetpack_5/Jetson_Linux_R35.4.1_aarch64/Linux_for_Tegra/sources/tegra/optee-src/nv-optee/optee/optee_os/lib/libutee/tee_api.c:701
    1b7c:	140008f6 	b	3f54 <TEE_Panic>
/home/ssysarch/Desktop/nick/jetpack_5/Jetson_Linux_R35.4.1_aarch64/Linux_for_Tegra/sources/tegra/optee-src/nv-optee/optee/optee_os/lib/libutee/tee_api.c:702
    1b80:	a8c17bfd 	ldp	x29, x30, [sp], #16
    1b84:	d65f03c0 	ret

0000000000001b88 <TEE_Malloc>:
TEE_Malloc():
/home/ssysarch/Desktop/nick/jetpack_5/Jetson_Linux_R35.4.1_aarch64/Linux_for_Tegra/sources/tegra/optee-src/nv-optee/optee/optee_os/lib/libutee/tee_api.c:705
    1b88:	a9be7bfd 	stp	x29, x30, [sp, #-32]!
    1b8c:	aa0003e2 	mov	x2, x0
/home/ssysarch/Desktop/nick/jetpack_5/Jetson_Linux_R35.4.1_aarch64/Linux_for_Tegra/sources/tegra/optee-src/nv-optee/optee/optee_os/lib/libutee/tee_api.c:706
    1b90:	71000c3f 	cmp	w1, #0x3
/home/ssysarch/Desktop/nick/jetpack_5/Jetson_Linux_R35.4.1_aarch64/Linux_for_Tegra/sources/tegra/optee-src/nv-optee/optee/optee_os/lib/libutee/tee_api.c:705
    1b94:	910003fd 	mov	x29, sp
    1b98:	f9000bf3 	str	x19, [sp, #16]
    1b9c:	2a0103f3 	mov	w19, w1
/home/ssysarch/Desktop/nick/jetpack_5/Jetson_Linux_R35.4.1_aarch64/Linux_for_Tegra/sources/tegra/optee-src/nv-optee/optee/optee_os/lib/libutee/tee_api.c:706
    1ba0:	54000148 	b.hi	1bc8 <TEE_Malloc+0x40>  // b.pmore
    1ba4:	51000421 	sub	w1, w1, #0x1
    1ba8:	7100083f 	cmp	w1, #0x2
    1bac:	54000308 	b.hi	1c0c <TEE_Malloc+0x84>  // b.pmore
    1bb0:	d0000060 	adrp	x0, f000 <__text_end+0x243c>
    1bb4:	91152000 	add	x0, x0, #0x548
    1bb8:	38614800 	ldrb	w0, [x0, w1, uxtw]
    1bbc:	10000061 	adr	x1, 1bc8 <TEE_Malloc+0x40>
    1bc0:	8b208820 	add	x0, x1, w0, sxtb #2
    1bc4:	d61f0000 	br	x0
    1bc8:	52b00001 	mov	w1, #0x80000000            	// #-2147483648
    1bcc:	6b01027f 	cmp	w19, w1
    1bd0:	540005e0 	b.eq	1c8c <TEE_Malloc+0x104>  // b.none
/home/ssysarch/Desktop/nick/jetpack_5/Jetson_Linux_R35.4.1_aarch64/Linux_for_Tegra/sources/tegra/optee-src/nv-optee/optee/optee_os/lib/libutee/tee_api.c:739
    1bd4:	52800023 	mov	w3, #0x1                   	// #1
    1bd8:	2a1303e5 	mov	w5, w19
    1bdc:	d0000864 	adrp	x4, 10f000 <large_buffer+0xff68c>
    1be0:	912b1484 	add	x4, x4, #0xac5
    1be4:	52800022 	mov	w2, #0x1                   	// #1
    1be8:	52805c61 	mov	w1, #0x2e3                 	// #739
    1bec:	d0000060 	adrp	x0, f000 <__text_end+0x243c>
    1bf0:	91154000 	add	x0, x0, #0x550
    1bf4:	94002acb 	bl	c720 <trace_printf>
/home/ssysarch/Desktop/nick/jetpack_5/Jetson_Linux_R35.4.1_aarch64/Linux_for_Tegra/sources/tegra/optee-src/nv-optee/optee/optee_os/lib/libutee/tee_api.c:741
    1bf8:	d2800003 	mov	x3, #0x0                   	// #0
/home/ssysarch/Desktop/nick/jetpack_5/Jetson_Linux_R35.4.1_aarch64/Linux_for_Tegra/sources/tegra/optee-src/nv-optee/optee/optee_os/lib/libutee/tee_api.c:742
    1bfc:	aa0303e0 	mov	x0, x3
    1c00:	f9400bf3 	ldr	x19, [sp, #16]
    1c04:	a8c27bfd 	ldp	x29, x30, [sp], #32
    1c08:	d65f03c0 	ret
/home/ssysarch/Desktop/nick/jetpack_5/Jetson_Linux_R35.4.1_aarch64/Linux_for_Tegra/sources/tegra/optee-src/nv-optee/optee/optee_os/lib/libutee/tee_api.c:708
    1c0c:	b40004c0 	cbz	x0, 1ca4 <TEE_Malloc+0x11c>
/home/ssysarch/Desktop/nick/jetpack_5/Jetson_Linux_R35.4.1_aarch64/Linux_for_Tegra/sources/tegra/optee-src/nv-optee/optee/optee_os/lib/libutee/tee_api.c:742
    1c10:	f9400bf3 	ldr	x19, [sp, #16]
/home/ssysarch/Desktop/nick/jetpack_5/Jetson_Linux_R35.4.1_aarch64/Linux_for_Tegra/sources/tegra/optee-src/nv-optee/optee/optee_os/lib/libutee/tee_api.c:710
    1c14:	aa0003e1 	mov	x1, x0
/home/ssysarch/Desktop/nick/jetpack_5/Jetson_Linux_R35.4.1_aarch64/Linux_for_Tegra/sources/tegra/optee-src/nv-optee/optee/optee_os/lib/libutee/tee_api.c:742
    1c18:	a8c27bfd 	ldp	x29, x30, [sp], #32
/home/ssysarch/Desktop/nick/jetpack_5/Jetson_Linux_R35.4.1_aarch64/Linux_for_Tegra/sources/tegra/optee-src/nv-optee/optee/optee_os/lib/libutee/tee_api.c:710
    1c1c:	d2800020 	mov	x0, #0x1                   	// #1
    1c20:	140024c1 	b	af24 <calloc>
/home/ssysarch/Desktop/nick/jetpack_5/Jetson_Linux_R35.4.1_aarch64/Linux_for_Tegra/sources/tegra/optee-src/nv-optee/optee/optee_os/lib/libutee/tee_api.c:713
    1c24:	52800000 	mov	w0, #0x0                   	// #0
    1c28:	940008cb 	bl	3f54 <TEE_Panic>
/home/ssysarch/Desktop/nick/jetpack_5/Jetson_Linux_R35.4.1_aarch64/Linux_for_Tegra/sources/tegra/optee-src/nv-optee/optee/optee_os/lib/libutee/tee_api.c:714
    1c2c:	17ffffea 	b	1bd4 <TEE_Malloc+0x4c>
/home/ssysarch/Desktop/nick/jetpack_5/Jetson_Linux_R35.4.1_aarch64/Linux_for_Tegra/sources/tegra/optee-src/nv-optee/optee/optee_os/lib/libutee/tee_api.c:717
    1c30:	b4000362 	cbz	x2, 1c9c <TEE_Malloc+0x114>
/home/ssysarch/Desktop/nick/jetpack_5/Jetson_Linux_R35.4.1_aarch64/Linux_for_Tegra/sources/tegra/optee-src/nv-optee/optee/optee_os/lib/libutee/tee_api.c:719
    1c34:	90000880 	adrp	x0, 111000 <_DYNAMIC>
    1c38:	f940d000 	ldr	x0, [x0, #416]
    1c3c:	f9400003 	ldr	x3, [x0]
    1c40:	b4fffde3 	cbz	x3, 1bfc <TEE_Malloc+0x74>
/home/ssysarch/Desktop/nick/jetpack_5/Jetson_Linux_R35.4.1_aarch64/Linux_for_Tegra/sources/tegra/optee-src/nv-optee/optee/optee_os/lib/libutee/tee_api.c:742
    1c44:	f9400bf3 	ldr	x19, [sp, #16]
/home/ssysarch/Desktop/nick/jetpack_5/Jetson_Linux_R35.4.1_aarch64/Linux_for_Tegra/sources/tegra/optee-src/nv-optee/optee/optee_os/lib/libutee/tee_api.c:721
    1c48:	aa0303e4 	mov	x4, x3
/home/ssysarch/Desktop/nick/jetpack_5/Jetson_Linux_R35.4.1_aarch64/Linux_for_Tegra/sources/tegra/optee-src/nv-optee/optee/optee_os/lib/libutee/tee_api.c:742
    1c4c:	a8c27bfd 	ldp	x29, x30, [sp], #32
/home/ssysarch/Desktop/nick/jetpack_5/Jetson_Linux_R35.4.1_aarch64/Linux_for_Tegra/sources/tegra/optee-src/nv-optee/optee/optee_os/lib/libutee/tee_api.c:721
    1c50:	aa0203e3 	mov	x3, x2
    1c54:	d2800001 	mov	x1, #0x0                   	// #0
    1c58:	d2800022 	mov	x2, #0x1                   	// #1
    1c5c:	d2800000 	mov	x0, #0x0                   	// #0
    1c60:	14002452 	b	ada8 <raw_calloc>
/home/ssysarch/Desktop/nick/jetpack_5/Jetson_Linux_R35.4.1_aarch64/Linux_for_Tegra/sources/tegra/optee-src/nv-optee/optee/optee_os/lib/libutee/tee_api.c:724
    1c64:	b40001c2 	cbz	x2, 1c9c <TEE_Malloc+0x114>
/home/ssysarch/Desktop/nick/jetpack_5/Jetson_Linux_R35.4.1_aarch64/Linux_for_Tegra/sources/tegra/optee-src/nv-optee/optee/optee_os/lib/libutee/tee_api.c:726
    1c68:	90000880 	adrp	x0, 111000 <_DYNAMIC>
    1c6c:	f940d000 	ldr	x0, [x0, #416]
    1c70:	f9400003 	ldr	x3, [x0]
    1c74:	b4fffc43 	cbz	x3, 1bfc <TEE_Malloc+0x74>
/home/ssysarch/Desktop/nick/jetpack_5/Jetson_Linux_R35.4.1_aarch64/Linux_for_Tegra/sources/tegra/optee-src/nv-optee/optee/optee_os/lib/libutee/tee_api.c:742
    1c78:	f9400bf3 	ldr	x19, [sp, #16]
/home/ssysarch/Desktop/nick/jetpack_5/Jetson_Linux_R35.4.1_aarch64/Linux_for_Tegra/sources/tegra/optee-src/nv-optee/optee/optee_os/lib/libutee/tee_api.c:728
    1c7c:	d2800001 	mov	x1, #0x0                   	// #0
/home/ssysarch/Desktop/nick/jetpack_5/Jetson_Linux_R35.4.1_aarch64/Linux_for_Tegra/sources/tegra/optee-src/nv-optee/optee/optee_os/lib/libutee/tee_api.c:742
    1c80:	a8c27bfd 	ldp	x29, x30, [sp], #32
/home/ssysarch/Desktop/nick/jetpack_5/Jetson_Linux_R35.4.1_aarch64/Linux_for_Tegra/sources/tegra/optee-src/nv-optee/optee/optee_os/lib/libutee/tee_api.c:728
    1c84:	d2800000 	mov	x0, #0x0                   	// #0
    1c88:	14002440 	b	ad88 <raw_malloc>
/home/ssysarch/Desktop/nick/jetpack_5/Jetson_Linux_R35.4.1_aarch64/Linux_for_Tegra/sources/tegra/optee-src/nv-optee/optee/optee_os/lib/libutee/tee_api.c:731
    1c8c:	b40000c0 	cbz	x0, 1ca4 <TEE_Malloc+0x11c>
/home/ssysarch/Desktop/nick/jetpack_5/Jetson_Linux_R35.4.1_aarch64/Linux_for_Tegra/sources/tegra/optee-src/nv-optee/optee/optee_os/lib/libutee/tee_api.c:742
    1c90:	f9400bf3 	ldr	x19, [sp, #16]
    1c94:	a8c27bfd 	ldp	x29, x30, [sp], #32
/home/ssysarch/Desktop/nick/jetpack_5/Jetson_Linux_R35.4.1_aarch64/Linux_for_Tegra/sources/tegra/optee-src/nv-optee/optee/optee_os/lib/libutee/tee_api.c:733
    1c98:	1400249d 	b	af0c <malloc>
/home/ssysarch/Desktop/nick/jetpack_5/Jetson_Linux_R35.4.1_aarch64/Linux_for_Tegra/sources/tegra/optee-src/nv-optee/optee/optee_os/lib/libutee/tee_api.c:718
    1c9c:	d2800043 	mov	x3, #0x2                   	// #2
    1ca0:	17ffffd7 	b	1bfc <TEE_Malloc+0x74>
/home/ssysarch/Desktop/nick/jetpack_5/Jetson_Linux_R35.4.1_aarch64/Linux_for_Tegra/sources/tegra/optee-src/nv-optee/optee/optee_os/lib/libutee/tee_api.c:709
    1ca4:	d2800023 	mov	x3, #0x1                   	// #1
    1ca8:	17ffffd5 	b	1bfc <TEE_Malloc+0x74>

0000000000001cac <__GP11_TEE_Malloc>:
__GP11_TEE_Malloc():
/home/ssysarch/Desktop/nick/jetpack_5/Jetson_Linux_R35.4.1_aarch64/Linux_for_Tegra/sources/tegra/optee-src/nv-optee/optee/optee_os/lib/libutee/tee_api.c:746
    1cac:	2a0003e0 	mov	w0, w0
    1cb0:	17ffffb6 	b	1b88 <TEE_Malloc>

0000000000001cb4 <TEE_Free>:
TEE_Free():
/home/ssysarch/Desktop/nick/jetpack_5/Jetson_Linux_R35.4.1_aarch64/Linux_for_Tegra/sources/tegra/optee-src/nv-optee/optee/optee_os/lib/libutee/tee_api.c:787
    1cb4:	d1000401 	sub	x1, x0, #0x1
    1cb8:	f100043f 	cmp	x1, #0x1
    1cbc:	540002a9 	b.ls	1d10 <TEE_Free+0x5c>  // b.plast
/home/ssysarch/Desktop/nick/jetpack_5/Jetson_Linux_R35.4.1_aarch64/Linux_for_Tegra/sources/tegra/optee-src/nv-optee/optee/optee_os/lib/libutee/tee_api.c:786
    1cc0:	a9be7bfd 	stp	x29, x30, [sp, #-32]!
addr_is_in_no_share_heap():
/home/ssysarch/Desktop/nick/jetpack_5/Jetson_Linux_R35.4.1_aarch64/Linux_for_Tegra/sources/tegra/optee-src/nv-optee/optee/optee_os/lib/libutee/tee_api.c:751
    1cc4:	d2800021 	mov	x1, #0x1                   	// #1
TEE_Free():
/home/ssysarch/Desktop/nick/jetpack_5/Jetson_Linux_R35.4.1_aarch64/Linux_for_Tegra/sources/tegra/optee-src/nv-optee/optee/optee_os/lib/libutee/tee_api.c:786
    1cc8:	910003fd 	mov	x29, sp
    1ccc:	f9000bf3 	str	x19, [sp, #16]
    1cd0:	aa0003f3 	mov	x19, x0
addr_is_in_no_share_heap():
/home/ssysarch/Desktop/nick/jetpack_5/Jetson_Linux_R35.4.1_aarch64/Linux_for_Tegra/sources/tegra/optee-src/nv-optee/optee/optee_os/lib/libutee/tee_api.c:751
    1cd4:	97fffc7a 	bl	ebc <buf_overlaps_no_share_heap>
TEE_Free():
/home/ssysarch/Desktop/nick/jetpack_5/Jetson_Linux_R35.4.1_aarch64/Linux_for_Tegra/sources/tegra/optee-src/nv-optee/optee/optee_os/lib/libutee/tee_api.c:789
    1cd8:	72001c1f 	tst	w0, #0xff
    1cdc:	54000120 	b.eq	1d00 <TEE_Free+0x4c>  // b.none
/home/ssysarch/Desktop/nick/jetpack_5/Jetson_Linux_R35.4.1_aarch64/Linux_for_Tegra/sources/tegra/optee-src/nv-optee/optee/optee_os/lib/libutee/tee_api.c:790
    1ce0:	90000880 	adrp	x0, 111000 <_DYNAMIC>
    1ce4:	52800002 	mov	w2, #0x0                   	// #0
    1ce8:	f940d000 	ldr	x0, [x0, #416]
    1cec:	f9400001 	ldr	x1, [x0]
    1cf0:	aa1303e0 	mov	x0, x19
/home/ssysarch/Desktop/nick/jetpack_5/Jetson_Linux_R35.4.1_aarch64/Linux_for_Tegra/sources/tegra/optee-src/nv-optee/optee/optee_os/lib/libutee/tee_api.c:794
    1cf4:	f9400bf3 	ldr	x19, [sp, #16]
    1cf8:	a8c27bfd 	ldp	x29, x30, [sp], #32
/home/ssysarch/Desktop/nick/jetpack_5/Jetson_Linux_R35.4.1_aarch64/Linux_for_Tegra/sources/tegra/optee-src/nv-optee/optee/optee_os/lib/libutee/tee_api.c:790
    1cfc:	14002427 	b	ad98 <raw_free>
/home/ssysarch/Desktop/nick/jetpack_5/Jetson_Linux_R35.4.1_aarch64/Linux_for_Tegra/sources/tegra/optee-src/nv-optee/optee/optee_os/lib/libutee/tee_api.c:792
    1d00:	aa1303e0 	mov	x0, x19
/home/ssysarch/Desktop/nick/jetpack_5/Jetson_Linux_R35.4.1_aarch64/Linux_for_Tegra/sources/tegra/optee-src/nv-optee/optee/optee_os/lib/libutee/tee_api.c:794
    1d04:	f9400bf3 	ldr	x19, [sp, #16]
    1d08:	a8c27bfd 	ldp	x29, x30, [sp], #32
/home/ssysarch/Desktop/nick/jetpack_5/Jetson_Linux_R35.4.1_aarch64/Linux_for_Tegra/sources/tegra/optee-src/nv-optee/optee/optee_os/lib/libutee/tee_api.c:792
    1d0c:	140024a0 	b	af8c <free>
    1d10:	d65f03c0 	ret

0000000000001d14 <TEE_Realloc>:
TEE_Realloc():
/home/ssysarch/Desktop/nick/jetpack_5/Jetson_Linux_R35.4.1_aarch64/Linux_for_Tegra/sources/tegra/optee-src/nv-optee/optee/optee_os/lib/libutee/tee_api.c:755
    1d14:	a9be7bfd 	stp	x29, x30, [sp, #-32]!
    1d18:	910003fd 	mov	x29, sp
    1d1c:	a90153f3 	stp	x19, x20, [sp, #16]
    1d20:	aa0003f3 	mov	x19, x0
/home/ssysarch/Desktop/nick/jetpack_5/Jetson_Linux_R35.4.1_aarch64/Linux_for_Tegra/sources/tegra/optee-src/nv-optee/optee/optee_os/lib/libutee/tee_api.c:756
    1d24:	b5000161 	cbnz	x1, 1d50 <TEE_Realloc+0x3c>
/home/ssysarch/Desktop/nick/jetpack_5/Jetson_Linux_R35.4.1_aarch64/Linux_for_Tegra/sources/tegra/optee-src/nv-optee/optee/optee_os/lib/libutee/tee_api.c:757
    1d28:	97ffffe3 	bl	1cb4 <TEE_Free>
addr_is_in_no_share_heap():
/home/ssysarch/Desktop/nick/jetpack_5/Jetson_Linux_R35.4.1_aarch64/Linux_for_Tegra/sources/tegra/optee-src/nv-optee/optee/optee_os/lib/libutee/tee_api.c:751
    1d2c:	aa1303e0 	mov	x0, x19
    1d30:	d2800021 	mov	x1, #0x1                   	// #1
    1d34:	97fffc62 	bl	ebc <buf_overlaps_no_share_heap>
TEE_Realloc():
/home/ssysarch/Desktop/nick/jetpack_5/Jetson_Linux_R35.4.1_aarch64/Linux_for_Tegra/sources/tegra/optee-src/nv-optee/optee/optee_os/lib/libutee/tee_api.c:762
    1d38:	72001c1f 	tst	w0, #0xff
    1d3c:	9a9f07e0 	cset	x0, ne  // ne = any
    1d40:	91000400 	add	x0, x0, #0x1
/home/ssysarch/Desktop/nick/jetpack_5/Jetson_Linux_R35.4.1_aarch64/Linux_for_Tegra/sources/tegra/optee-src/nv-optee/optee/optee_os/lib/libutee/tee_api.c:778
    1d44:	a94153f3 	ldp	x19, x20, [sp, #16]
    1d48:	a8c27bfd 	ldp	x29, x30, [sp], #32
    1d4c:	d65f03c0 	ret
/home/ssysarch/Desktop/nick/jetpack_5/Jetson_Linux_R35.4.1_aarch64/Linux_for_Tegra/sources/tegra/optee-src/nv-optee/optee/optee_os/lib/libutee/tee_api.c:765
    1d50:	f100041f 	cmp	x0, #0x1
    1d54:	54000081 	b.ne	1d64 <TEE_Realloc+0x50>  // b.any
/home/ssysarch/Desktop/nick/jetpack_5/Jetson_Linux_R35.4.1_aarch64/Linux_for_Tegra/sources/tegra/optee-src/nv-optee/optee/optee_os/lib/libutee/tee_api.c:778
    1d58:	a94153f3 	ldp	x19, x20, [sp, #16]
    1d5c:	a8c27bfd 	ldp	x29, x30, [sp], #32
/home/ssysarch/Desktop/nick/jetpack_5/Jetson_Linux_R35.4.1_aarch64/Linux_for_Tegra/sources/tegra/optee-src/nv-optee/optee/optee_os/lib/libutee/tee_api.c:766
    1d60:	14002471 	b	af24 <calloc>
    1d64:	aa0103f4 	mov	x20, x1
/home/ssysarch/Desktop/nick/jetpack_5/Jetson_Linux_R35.4.1_aarch64/Linux_for_Tegra/sources/tegra/optee-src/nv-optee/optee/optee_os/lib/libutee/tee_api.c:767
    1d68:	f100081f 	cmp	x0, #0x2
    1d6c:	540001a1 	b.ne	1da0 <TEE_Realloc+0x8c>  // b.any
/home/ssysarch/Desktop/nick/jetpack_5/Jetson_Linux_R35.4.1_aarch64/Linux_for_Tegra/sources/tegra/optee-src/nv-optee/optee/optee_os/lib/libutee/tee_api.c:768
    1d70:	90000880 	adrp	x0, 111000 <_DYNAMIC>
    1d74:	f940d000 	ldr	x0, [x0, #416]
    1d78:	f9400000 	ldr	x0, [x0]
    1d7c:	b4fffe40 	cbz	x0, 1d44 <TEE_Realloc+0x30>
/home/ssysarch/Desktop/nick/jetpack_5/Jetson_Linux_R35.4.1_aarch64/Linux_for_Tegra/sources/tegra/optee-src/nv-optee/optee/optee_os/lib/libutee/tee_api.c:778
    1d80:	a94153f3 	ldp	x19, x20, [sp, #16]
/home/ssysarch/Desktop/nick/jetpack_5/Jetson_Linux_R35.4.1_aarch64/Linux_for_Tegra/sources/tegra/optee-src/nv-optee/optee/optee_os/lib/libutee/tee_api.c:770
    1d84:	aa0003e4 	mov	x4, x0
/home/ssysarch/Desktop/nick/jetpack_5/Jetson_Linux_R35.4.1_aarch64/Linux_for_Tegra/sources/tegra/optee-src/nv-optee/optee/optee_os/lib/libutee/tee_api.c:778
    1d88:	a8c27bfd 	ldp	x29, x30, [sp], #32
/home/ssysarch/Desktop/nick/jetpack_5/Jetson_Linux_R35.4.1_aarch64/Linux_for_Tegra/sources/tegra/optee-src/nv-optee/optee/optee_os/lib/libutee/tee_api.c:770
    1d8c:	aa0103e3 	mov	x3, x1
    1d90:	d2800022 	mov	x2, #0x1                   	// #1
    1d94:	d2800001 	mov	x1, #0x0                   	// #0
    1d98:	d2800000 	mov	x0, #0x0                   	// #0
    1d9c:	14002403 	b	ada8 <raw_calloc>
addr_is_in_no_share_heap():
/home/ssysarch/Desktop/nick/jetpack_5/Jetson_Linux_R35.4.1_aarch64/Linux_for_Tegra/sources/tegra/optee-src/nv-optee/optee/optee_os/lib/libutee/tee_api.c:751
    1da0:	d2800021 	mov	x1, #0x1                   	// #1
    1da4:	97fffc46 	bl	ebc <buf_overlaps_no_share_heap>
TEE_Realloc():
/home/ssysarch/Desktop/nick/jetpack_5/Jetson_Linux_R35.4.1_aarch64/Linux_for_Tegra/sources/tegra/optee-src/nv-optee/optee/optee_os/lib/libutee/tee_api.c:773
    1da8:	72001c1f 	tst	w0, #0xff
    1dac:	54000160 	b.eq	1dd8 <TEE_Realloc+0xc4>  // b.none
/home/ssysarch/Desktop/nick/jetpack_5/Jetson_Linux_R35.4.1_aarch64/Linux_for_Tegra/sources/tegra/optee-src/nv-optee/optee/optee_os/lib/libutee/tee_api.c:774
    1db0:	90000880 	adrp	x0, 111000 <_DYNAMIC>
    1db4:	aa1403e3 	mov	x3, x20
    1db8:	d2800002 	mov	x2, #0x0                   	// #0
    1dbc:	d2800001 	mov	x1, #0x0                   	// #0
    1dc0:	f940d000 	ldr	x0, [x0, #416]
    1dc4:	f9400004 	ldr	x4, [x0]
    1dc8:	aa1303e0 	mov	x0, x19
/home/ssysarch/Desktop/nick/jetpack_5/Jetson_Linux_R35.4.1_aarch64/Linux_for_Tegra/sources/tegra/optee-src/nv-optee/optee/optee_os/lib/libutee/tee_api.c:778
    1dcc:	a94153f3 	ldp	x19, x20, [sp, #16]
    1dd0:	a8c27bfd 	ldp	x29, x30, [sp], #32
/home/ssysarch/Desktop/nick/jetpack_5/Jetson_Linux_R35.4.1_aarch64/Linux_for_Tegra/sources/tegra/optee-src/nv-optee/optee/optee_os/lib/libutee/tee_api.c:774
    1dd4:	14002411 	b	ae18 <raw_realloc>
/home/ssysarch/Desktop/nick/jetpack_5/Jetson_Linux_R35.4.1_aarch64/Linux_for_Tegra/sources/tegra/optee-src/nv-optee/optee/optee_os/lib/libutee/tee_api.c:777
    1dd8:	aa1403e1 	mov	x1, x20
    1ddc:	aa1303e0 	mov	x0, x19
