
/home/ssysarch/Desktop/nick/jetpack_5/Jetson_Linux_R35.4.1_aarch64/Linux_for_Tegra/sources/tegra/optee-src/nv-optee/optee/build/t234//ldelf/ldelf.elf:     file format elf64-littleaarch64
/home/ssysarch/Desktop/nick/jetpack_5/Jetson_Linux_R35.4.1_aarch64/Linux_for_Tegra/sources/tegra/optee-src/nv-optee/optee/build/t234//ldelf/ldelf.elf
architecture: aarch64, flags 0x00000150:
HAS_SYMS, DYNAMIC, D_PAGED
start address 0x0000000000000000

Program Header:
    LOAD off    0x0000000000001000 vaddr 0x0000000000000000 paddr 0x0000000000000000 align 2**12
         filesz 0x0000000000007d88 memsz 0x0000000000007d88 flags r-x
    LOAD off    0x0000000000009000 vaddr 0x0000000000008000 paddr 0x0000000000008000 align 2**12
         filesz 0x00000000000001f4 memsz 0x0000000000000210 flags rw-
 DYNAMIC off    0x0000000000009000 vaddr 0x0000000000008000 paddr 0x0000000000008000 align 2**3
         filesz 0x0000000000000110 memsz 0x0000000000000110 flags rw-
   STACK off    0x0000000000000000 vaddr 0x0000000000000000 paddr 0x0000000000000000 align 2**4
         filesz 0x0000000000000000 memsz 0x0000000000000000 flags rw-

Dynamic Section:
  HASH                 0x0000000000007cc8
  GNU_HASH             0x0000000000007c58
  STRTAB               0x0000000000007cc0
  SYMTAB               0x0000000000007c78
  STRSZ                0x0000000000000001
  SYMENT               0x0000000000000018
  DEBUG                0x0000000000000000
  RELA                 0x0000000000007ce0
  RELASZ               0x00000000000000a8
  RELAENT              0x0000000000000018
  FLAGS_1              0x0000000008000000
  RELACOUNT            0x0000000000000003
private flags = 0:

Sections:
Idx Name          Size      VMA               LMA               File off  Algn
  0 .text         00006990  0000000000000000  0000000000000000  00001000  2**4
                  CONTENTS, ALLOC, LOAD, READONLY, CODE
  1 .rodata       000012c5  0000000000006990  0000000000006990  00007990  2**2
                  CONTENTS, ALLOC, LOAD, READONLY, DATA
  2 .gnu.hash     0000001c  0000000000007c58  0000000000007c58  00008c58  2**3
                  CONTENTS, ALLOC, LOAD, READONLY, DATA
  3 .dynsym       00000048  0000000000007c78  0000000000007c78  00008c78  2**3
                  CONTENTS, ALLOC, LOAD, READONLY, DATA
  4 .dynstr       00000001  0000000000007cc0  0000000000007cc0  00008cc0  2**0
                  CONTENTS, ALLOC, LOAD, READONLY, DATA
  5 .hash         00000018  0000000000007cc8  0000000000007cc8  00008cc8  2**3
                  CONTENTS, ALLOC, LOAD, READONLY, DATA
  6 .rela.got     00000060  0000000000007ce0  0000000000007ce0  00008ce0  2**3
                  CONTENTS, ALLOC, LOAD, READONLY, DATA
  7 .dynamic      00000110  0000000000008000  0000000000008000  00009000  2**3
                  CONTENTS, ALLOC, LOAD, DATA
  8 .got          00000040  0000000000008110  0000000000008110  00009110  2**3
                  CONTENTS, ALLOC, LOAD, DATA
  9 .data         000000a4  0000000000008150  0000000000008150  00009150  2**3
                  CONTENTS, ALLOC, LOAD, DATA
 10 .bss          00000018  00000000000081f8  00000000000081f8  000091f4  2**3
                  ALLOC
 11 .debug_line   00009c3e  0000000000000000  0000000000000000  000091f4  2**0
                  CONTENTS, READONLY, DEBUGGING
 12 .debug_info   00011169  0000000000000000  0000000000000000  00012e32  2**0
                  CONTENTS, READONLY, DEBUGGING
 13 .debug_abbrev 00002c08  0000000000000000  0000000000000000  00023f9b  2**0
                  CONTENTS, READONLY, DEBUGGING
 14 .debug_aranges 00001060  0000000000000000  0000000000000000  00026bb0  2**4
                  CONTENTS, READONLY, DEBUGGING
 15 .debug_str    000163ec  0000000000000000  0000000000000000  00027c10  2**0
                  CONTENTS, READONLY, DEBUGGING
 16 .rela.dyn     00000048  0000000000007d40  0000000000007d40  00008d40  2**3
                  CONTENTS, ALLOC, LOAD, READONLY, DATA
 17 .debug_ranges 00002cd0  0000000000000000  0000000000000000  0003e000  2**4
                  CONTENTS, READONLY, DEBUGGING
 18 .debug_loc    00017e66  0000000000000000  0000000000000000  00040cd0  2**0
                  CONTENTS, READONLY, DEBUGGING
 19 .debug_macro  00012a20  0000000000000000  0000000000000000  00058b36  2**0
                  CONTENTS, READONLY, DEBUGGING
 20 .comment      0000001f  0000000000000000  0000000000000000  0006b556  2**0
                  CONTENTS, READONLY
SYMBOL TABLE:
0000000000000000 l    d  .text	0000000000000000 .text
0000000000006990 l    d  .rodata	0000000000000000 .rodata
0000000000007c58 l    d  .gnu.hash	0000000000000000 .gnu.hash
0000000000007c78 l    d  .dynsym	0000000000000000 .dynsym
0000000000007cc0 l    d  .dynstr	0000000000000000 .dynstr
0000000000007cc8 l    d  .hash	0000000000000000 .hash
0000000000007ce0 l    d  .rela.got	0000000000000000 .rela.got
0000000000008000 l    d  .dynamic	0000000000000000 .dynamic
0000000000008110 l    d  .got	0000000000000000 .got
0000000000008150 l    d  .data	0000000000000000 .data
00000000000081f8 l    d  .bss	0000000000000000 .bss
0000000000000000 l    d  .debug_line	0000000000000000 .debug_line
0000000000000000 l    d  .debug_info	0000000000000000 .debug_info
0000000000000000 l    d  .debug_abbrev	0000000000000000 .debug_abbrev
0000000000000000 l    d  .debug_aranges	0000000000000000 .debug_aranges
0000000000000000 l    d  .debug_str	0000000000000000 .debug_str
0000000000007d40 l    d  .rela.dyn	0000000000000000 .rela.dyn
0000000000000000 l    d  .debug_ranges	0000000000000000 .debug_ranges
0000000000000000 l    d  .debug_loc	0000000000000000 .debug_loc
0000000000000000 l    d  .debug_macro	0000000000000000 .debug_macro
0000000000000000 l    d  .comment	0000000000000000 .comment
0000000000000000 l    df *ABS*	0000000000000000 /home/ssysarch/Desktop/nick/jetpack_5/Jetson_Linux_R35.4.1_aarch64/Linux_for_Tegra/sources/tegra/optee-src/nv-optee/optee/build/t234//ldelf/start_a64.o
000000000000005c l       .text	0000000000000000 reloc_begin_rel
0000000000000060 l       .text	0000000000000000 reloc_end_rel
0000000000000000 l    df *ABS*	0000000000000000 memcpy.c
0000000000000000 l    df *ABS*	0000000000000000 /home/ssysarch/Desktop/nick/jetpack_5/Jetson_Linux_R35.4.1_aarch64/Linux_for_Tegra/sources/tegra/optee-src/nv-optee/optee/build/t234//ldelf/syscalls_a64.o
0000000000000000 l    df *ABS*	0000000000000000 /home/ssysarch/Desktop/nick/jetpack_5/Jetson_Linux_R35.4.1_aarch64/Linux_for_Tegra/sources/tegra/optee-src/nv-optee/optee/build/t234//ldelf/tlsdesc_rel_a64.o
0000000000000000 l    df *ABS*	0000000000000000 dl.c
0000000000000000 l    df *ABS*	0000000000000000 main.c
00000000000002c8 l     F .text	000000000000003c dl_entry
0000000000000304 l     F .text	000000000000004c print_to_console
0000000000000350 l     F .text	00000000000000f0 dump_ta_state
00000000000081f8 l     O .bss	0000000000000008 mpool_base
0000000000006ac1 l     O .rodata	000000000000000e __func__.2303
0000000000006acf l     O .rodata	0000000000000006 __func__.2318
0000000000000000 l    df *ABS*	0000000000000000 sys.c
0000000000000000 l    df *ABS*	0000000000000000 ta_elf.c
00000000000006d4 l     F .text	0000000000000068 queue_elf_helper
000000000000073c l     F .text	0000000000000058 get_pad_begin
0000000000000794 l     F .text	0000000000000084 ta_elf_add_bti
0000000000000818 l     F .text	00000000000002b0 init_elf
0000000000000ac8 l     F .text	0000000000000058 print_wrapper
0000000000000b20 l     F .text	0000000000000044 read_dyn
0000000000000b64 l     F .text	00000000000000a8 check_range
0000000000000c0c l     F .text	0000000000000058 check_hashtab
0000000000000c64 l     F .text	00000000000000d4 add_segment.isra.0
0000000000000d38 l     F .text	000000000000005c close_handle.isra.0
0000000000000d94 l     F .text	0000000000000074 check_phdr_in_range.constprop.0
0000000000000e08 l     F .text	0000000000000020 _assert_trap.constprop.0
0000000000000e28 l     F .text	0000000000000128 get_init_fini_array.constprop.0
0000000000000f50 l     F .text	000000000000008c elf_get_init_fini_array
0000000000000fdc l     F .text	000000000000013c print_seg
0000000000001118 l     F .text	0000000000000114 copy_section_headers
000000000000122c l     F .text	00000000000004a4 populate_segments
00000000000016d0 l     F .text	00000000000000d4 get_next_in_order.isra.0
00000000000017a4 l     F .text	00000000000000ec save_soname_from_segment
0000000000001890 l     F .text	000000000000044c save_symtab
0000000000001cdc l     F .text	00000000000004dc map_segments
0000000000002200 l     F .text	000000000000005c queue_elf
000000000000225c l     F .text	00000000000001a0 add_deps_from_segment
00000000000023fc l     F .text	0000000000000080 add_dependencies
0000000000008200 l     O .bss	0000000000000008 ta_stack
0000000000008208 l     O .bss	0000000000000008 ta_stack_size
0000000000008150 l     O .data	0000000000000008 last_tls_mod_id.2749
0000000000008158 l     O .data	0000000000000008 next_offs.3110
00000000000072a0 l     O .rodata	0000000000000012 __func__.2750
00000000000072b2 l     O .rodata	000000000000000a __func__.2759
00000000000072bc l     O .rodata	0000000000000014 __func__.2782
00000000000072d0 l     O .rodata	000000000000000c __func__.2799
00000000000072dc l     O .rodata	000000000000000e __func__.2810
00000000000072ea l     O .rodata	0000000000000012 __func__.2821
00000000000072fc l     O .rodata	0000000000000019 __func__.2849
0000000000007315 l     O .rodata	0000000000000010 __func__.2876
0000000000007325 l     O .rodata	0000000000000010 __func__.2885
0000000000007335 l     O .rodata	0000000000000009 __func__.2905
000000000000733e l     O .rodata	000000000000000c __func__.2922
000000000000734a l     O .rodata	0000000000000011 __func__.2947
000000000000735b l     O .rodata	0000000000000010 __func__.2957
000000000000736b l     O .rodata	0000000000000019 __func__.2970
0000000000007384 l     O .rodata	000000000000000e __func__.2989
0000000000007392 l     O .rodata	0000000000000012 __func__.2997
00000000000073a4 l     O .rodata	000000000000000f __func__.3018
00000000000073b3 l     O .rodata	000000000000000d __func__.3046
00000000000073c0 l     O .rodata	0000000000000016 __func__.3061
00000000000073d6 l     O .rodata	0000000000000015 __func__.3087
00000000000073eb l     O .rodata	000000000000000d __func__.3095
00000000000073f8 l     O .rodata	0000000000000014 __func__.3100
000000000000740c l     O .rodata	000000000000000a __func__.3114
0000000000007416 l     O .rodata	0000000000000011 __func__.3124
0000000000007427 l     O .rodata	000000000000001a __func__.3131
0000000000007441 l     O .rodata	0000000000000017 __func__.3136
0000000000007458 l     O .rodata	0000000000000019 __func__.3144
0000000000007471 l     O .rodata	0000000000000012 __func__.3181
0000000000007483 l     O .rodata	0000000000000016 __func__.3206
0000000000007499 l     O .rodata	0000000000000013 __func__.3253
00000000000074ac l     O .rodata	0000000000000014 __func__.3273
00000000000074c0 l     O .rodata	0000000000000009 __func__.3342
00000000000074c9 l     O .rodata	0000000000000021 __func__.3353
00000000000074ea l     O .rodata	0000000000000013 __func__.3382
00000000000074fd l     O .rodata	0000000000000019 __func__.3391
0000000000000000 l    df *ABS*	0000000000000000 ta_elf_rel.c
0000000000003470 l     F .text	00000000000001d8 check_found_sym
0000000000003648 l     F .text	0000000000000224 resolve_sym_helper
000000000000386c l     F .text	00000000000000b0 e32_get_sym_name.isra.0
000000000000391c l     F .text	00000000000000ac e64_get_sym_name.isra.0
0000000000003a80 l     F .text	0000000000000070 resolve_sym
0000000000003af0 l     F .text	0000000000000054 e32_process_dyn_rel
0000000000003b44 l     F .text	0000000000000054 e64_process_dyn_rela
0000000000003b98 l     F .text	0000000000000080 e64_process_tls_tprel_rela
00000000000077ae l     O .rodata	000000000000000c __func__.2470
00000000000077ba l     O .rodata	0000000000000010 __func__.2491
00000000000077ca l     O .rodata	0000000000000013 __func__.2519
00000000000077dd l     O .rodata	0000000000000011 __func__.2544
00000000000077ee l     O .rodata	000000000000000c __func__.2552
00000000000077fa l     O .rodata	0000000000000013 __func__.2574
000000000000780d l     O .rodata	000000000000000d __func__.2597
000000000000781a l     O .rodata	0000000000000011 __func__.2627
000000000000782b l     O .rodata	000000000000000d __func__.2681
0000000000000000 l    df *ABS*	0000000000000000 unwind_arm32.c
00000000000044c4 l     F .text	000000000000005c pop_vsp
0000000000004520 l     F .text	0000000000000088 unwind_exec_read_byte
0000000000007879 l     O .rodata	0000000000000011 __func__.1817
000000000000788a l     O .rodata	000000000000000b __func__.1825
0000000000000000 l    df *ABS*	0000000000000000 unwind_arm64.c
0000000000000000 l    df *ABS*	0000000000000000 assert.c
0000000000000000 l    df *ABS*	0000000000000000 tee_uuid_from_str.c
0000000000004c6c l     F .text	000000000000008c parse_hex
0000000000000000 l    df *ABS*	0000000000000000 utee_syscalls_a64.o
0000000000000000 l    df *ABS*	0000000000000000 bget_malloc.c
0000000000004e60 l     F .text	0000000000000010 _assert_trap
0000000000004e70 l     F .text	0000000000000038 raw_malloc_return_hook.isra.0
0000000000004ea8 l     F .text	0000000000000028 bget_buf_size.part.0
0000000000008170 l     O .data	0000000000000080 malloc_ctx
0000000000007ba4 l     O .rodata	0000000000000005 __func__.2063
0000000000007ba9 l     O .rodata	0000000000000006 __func__.2083
0000000000007baf l     O .rodata	0000000000000005 __func__.2104
0000000000007bb4 l     O .rodata	0000000000000006 __func__.2113
0000000000007bba l     O .rodata	000000000000000e __func__.2151
0000000000007bc8 l     O .rodata	0000000000000014 __func__.2352
0000000000000000 l    df *ABS*	0000000000000000 isxdigit.c
0000000000000000 l    df *ABS*	0000000000000000 snprintf.c
0000000000000000 l    df *ABS*	0000000000000000 tolower.c
0000000000000000 l    df *ABS*	0000000000000000 memcmp.c
0000000000000000 l    df *ABS*	0000000000000000 memset.c
0000000000000000 l    df *ABS*	0000000000000000 strcmp.c
0000000000000000 l    df *ABS*	0000000000000000 strcpy.c
0000000000000000 l    df *ABS*	0000000000000000 strnlen.c
0000000000000000 l    df *ABS*	0000000000000000 snprintk.c
0000000000005b38 l     F .text	0000000000000ba4 kprintf.constprop.0
0000000000007c14 l     O .rodata	0000000000000011 HEXDIGITS
0000000000007c25 l     O .rodata	0000000000000011 hexdigits
0000000000000000 l    df *ABS*	0000000000000000 trace.c
0000000000007c50 l     O .rodata	0000000000000005 lvl_strs.1750
0000000000000000 l    df *ABS*	0000000000000000 memchr.c
0000000000000000 l    df *ABS*	0000000000000000 strlen.c
0000000000000000 l    df *ABS*	0000000000000000 trace_ext.c
0000000000000000 l    df *ABS*	0000000000000000 
00000000000059c4 l     F .text	0000000000000018 strcpy
0000000000005798 l     F .text	0000000000000114 raw_malloc_add_pool
00000000000055c8 l     F .text	0000000000000010 raw_free
00000000000039c8 l     F .text	00000000000000b8 ta_elf_resolve_sym
0000000000004cf8 l     F .text	0000000000000150 tee_uuid_from_str
0000000000005a90 l     F .text	0000000000000058 vsnprintk
00000000000058e8 l     F .text	0000000000000054 snprintf
0000000000008000 l     O *ABS*	0000000000000000 _DYNAMIC
0000000000003c18 l     F .text	00000000000008ac ta_elf_relocate
00000000000021b8 l     F .text	0000000000000048 ta_elf_find_elf
00000000000068cc l     F .text	000000000000004c trace_printf
0000000000000070 l     F .text	00000000000000ec memcpy
0000000000000650 l     F .text	0000000000000010 sys_return_cleanup
000000000000593c l     F .text	0000000000000014 tolower
000000000000573c l     F .text	0000000000000018 malloc
0000000000004b84 l     F .text	0000000000000090 print_stack_arm64
00000000000006cc l     F .text	0000000000000004 sys_remap
0000000000002a68 l     F .text	0000000000000270 ta_elf_print_mappings
0000000000005574 l     F .text	0000000000000054 raw_malloc
0000000000005194 l     F .text	0000000000000084 bgetz
00000000000005b4 l     F .text	000000000000009c __panic
00000000000066dc l     F .text	00000000000001f0 trace_vprintf
0000000000004c14 l     F .text	0000000000000044 _assert_log
00000000000058c0 l     F .text	0000000000000028 isxdigit
00000000000059dc l     F .text	0000000000000028 strnlen
0000000000002d5c l     F .text	0000000000000048 ta_elf_stack_trace_a32
0000000000005754 l     F .text	000000000000001c calloc
0000000000000200 l     F .text	0000000000000060 dlopen_entry
000000000000067c l     F .text	0000000000000004 sys_unmap
0000000000006918 l     F .text	000000000000002c memchr
0000000000003078 l     F .text	0000000000000240 ta_elf_set_elf_phdr_info
0000000000004ae0 l     F .text	0000000000000004 ftrace_map_lr
00000000000029d8 l     F .text	0000000000000090 ta_elf_finalize_mappings
0000000000003394 l     F .text	00000000000000dc ta_elf_add_library
0000000000005770 l     F .text	0000000000000018 realloc
0000000000000260 l     F .text	0000000000000068 dlsym_entry
0000000000005950 l     F .text	0000000000000034 memcmp
00000000000058ac l     F .text	0000000000000014 malloc_add_pool
0000000000005648 l     F .text	00000000000000f4 raw_realloc
00000000000032b8 l     F .text	00000000000000dc ta_elf_finalize_load_main
00000000000054b0 l     F .text	00000000000000c4 bpool
0000000000000680 l     F .text	000000000000000c sys_open_ta_bin
0000000000004ae4 l     F .text	0000000000000004 pauth_strip_pac
0000000000005984 l     F .text	000000000000001c memset
0000000000002cd8 l     F .text	0000000000000084 find_exidx
00000000000059a0 l     F .text	0000000000000024 strcmp
000000000000068c l     F .text	0000000000000008 sys_close_ta_bin
0000000000004a5c l     F .text	0000000000000084 print_stack_arm32
0000000000002da4 l     F .text	0000000000000030 ta_elf_stack_trace_a64
0000000000005ae8 l     F .text	0000000000000050 snprintk
00000000000045a8 l     F .text	00000000000004b4 unwind_stack_arm32
0000000000004ed0 l     F .text	00000000000002c4 bget
0000000000000660 l     F .text	000000000000001c sys_map_zi
0000000000000694 l     F .text	000000000000001c sys_map_ta_bin
0000000000000440 l     F .text	0000000000000174 ldelf
0000000000004c58 l     F .text	0000000000000014 _assert_break
0000000000008128 l     O *ABS*	0000000000000000 _GLOBAL_OFFSET_TABLE_
00000000000028ec l     F .text	00000000000000ec ta_elf_load_dependency
0000000000005a04 l     F .text	000000000000008c __vsnprintf
00000000000006d0 l     F .text	0000000000000004 sys_gen_random_num
0000000000006960 l     F .text	0000000000000028 trace_ext_puts
0000000000006988 l     F .text	0000000000000008 trace_ext_get_thread_id
00000000000006c4 l     F .text	0000000000000008 sys_set_prot
00000000000055d8 l     F .text	0000000000000070 raw_calloc
0000000000004ae8 l     F .text	000000000000009c unwind_stack_arm64
0000000000006944 l     F .text	000000000000001c strlen
0000000000005218 l     F .text	0000000000000298 brel
000000000000247c l     F .text	0000000000000470 ta_elf_load_main
0000000000002dd4 l     F .text	00000000000002a4 ta_elf_set_init_fini_info_compat
00000000000006b0 l     F .text	0000000000000014 sys_copy_from_ta_bin
0000000000005788 l     F .text	0000000000000010 free
0000000000007ce0 g       .rela.got	0000000000000000 __reloc_begin
00000000000001e0 g     F .text	000000000000000c _ldelf_remap
0000000000008160 g     O .data	0000000000000010 .hidden main_elf_queue
0000000000000000 g       .text	0000000000000000 __text_start
00000000000001c8 g     F .text	000000000000000c _ldelf_cp_from_bin
0000000000000168 g     F .text	000000000000000c _ldelf_return
000000000000015c g     F .text	000000000000000c _ldelf_panic
00000000000081f0 g     O .data	0000000000000004 .hidden trace_level
0000000000006af7 g     O .rodata	0000000000000003 .hidden trace_ext_prefix
0000000000000174 g     F .text	000000000000000c _ldelf_log
00000000000001bc g     F .text	000000000000000c _ldelf_map_bin
0000000000004e54 g     F .text	000000000000000c __utee_panic
0000000000004e48 g     F .text	000000000000000c _utee_panic
0000000000007d88 g       .rela.dyn	0000000000000000 __reloc_end
00000000000001ec g     F .text	000000000000000c _ldelf_gen_rnd_num
0000000000000000 g     F .text	0000000000000064 _ldelf_start
00000000000001b0 g     F .text	000000000000000c _ldelf_close_bin
0000000000006990 g       .text	0000000000000000 __text_end
0000000000000198 g     F .text	000000000000000c _ldelf_unmap
00000000000001f8 g     F .text	0000000000000008 tlsdesc_resolve
00000000000001a4 g     F .text	000000000000000c _ldelf_open_bin
00000000000001d4 g     F .text	000000000000000c _ldelf_set_prot
000000000000018c g     F .text	000000000000000c _ldelf_map_zi
0000000000000180 g     F .text	000000000000000c __ldelf_panic



Disassembly of section .text:

0000000000000000 <_ldelf_start>:
_ldelf_start():
/home/ssysarch/Desktop/nick/jetpack_5/Jetson_Linux_R35.4.1_aarch64/Linux_for_Tegra/sources/tegra/optee-src/nv-optee/optee/optee_os/ldelf/start_a64.S:24
       0:	100002e4 	adr	x4, 5c <reloc_begin_rel>
/home/ssysarch/Desktop/nick/jetpack_5/Jetson_Linux_R35.4.1_aarch64/Linux_for_Tegra/sources/tegra/optee-src/nv-optee/optee/optee_os/ldelf/start_a64.S:25
       4:	180002c5 	ldr	w5, 5c <reloc_begin_rel>
/home/ssysarch/Desktop/nick/jetpack_5/Jetson_Linux_R35.4.1_aarch64/Linux_for_Tegra/sources/tegra/optee-src/nv-optee/optee/optee_os/ldelf/start_a64.S:26
       8:	180002c6 	ldr	w6, 60 <reloc_end_rel>
/home/ssysarch/Desktop/nick/jetpack_5/Jetson_Linux_R35.4.1_aarch64/Linux_for_Tegra/sources/tegra/optee-src/nv-optee/optee/optee_os/ldelf/start_a64.S:27
       c:	8b0400a5 	add	x5, x5, x4
/home/ssysarch/Desktop/nick/jetpack_5/Jetson_Linux_R35.4.1_aarch64/Linux_for_Tegra/sources/tegra/optee-src/nv-optee/optee/optee_os/ldelf/start_a64.S:28
      10:	8b0400c6 	add	x6, x6, x4
/home/ssysarch/Desktop/nick/jetpack_5/Jetson_Linux_R35.4.1_aarch64/Linux_for_Tegra/sources/tegra/optee-src/nv-optee/optee/optee_os/ldelf/start_a64.S:29
      14:	eb0600bf 	cmp	x5, x6
/home/ssysarch/Desktop/nick/jetpack_5/Jetson_Linux_R35.4.1_aarch64/Linux_for_Tegra/sources/tegra/optee-src/nv-optee/optee/optee_os/ldelf/start_a64.S:30
      18:	54000180 	b.eq	48 <_ldelf_start+0x48>  // b.none
/home/ssysarch/Desktop/nick/jetpack_5/Jetson_Linux_R35.4.1_aarch64/Linux_for_Tegra/sources/tegra/optee-src/nv-optee/optee/optee_os/ldelf/start_a64.S:32
      1c:	10ffff24 	adr	x4, 0 <_ldelf_start>
/home/ssysarch/Desktop/nick/jetpack_5/Jetson_Linux_R35.4.1_aarch64/Linux_for_Tegra/sources/tegra/optee-src/nv-optee/optee/optee_os/ldelf/start_a64.S:35
      20:	a8c120a7 	ldp	x7, x8, [x5], #16
/home/ssysarch/Desktop/nick/jetpack_5/Jetson_Linux_R35.4.1_aarch64/Linux_for_Tegra/sources/tegra/optee-src/nv-optee/optee/optee_os/ldelf/start_a64.S:36
      24:	f84084a9 	ldr	x9, [x5], #8
/home/ssysarch/Desktop/nick/jetpack_5/Jetson_Linux_R35.4.1_aarch64/Linux_for_Tegra/sources/tegra/optee-src/nv-optee/optee/optee_os/ldelf/start_a64.S:37
      28:	92407d08 	and	x8, x8, #0xffffffff
/home/ssysarch/Desktop/nick/jetpack_5/Jetson_Linux_R35.4.1_aarch64/Linux_for_Tegra/sources/tegra/optee-src/nv-optee/optee/optee_os/ldelf/start_a64.S:38
      2c:	f1100d1f 	cmp	x8, #0x403
/home/ssysarch/Desktop/nick/jetpack_5/Jetson_Linux_R35.4.1_aarch64/Linux_for_Tegra/sources/tegra/optee-src/nv-optee/optee/optee_os/ldelf/start_a64.S:40
      30:	54000121 	b.ne	54 <_ldelf_start+0x54>  // b.any
/home/ssysarch/Desktop/nick/jetpack_5/Jetson_Linux_R35.4.1_aarch64/Linux_for_Tegra/sources/tegra/optee-src/nv-optee/optee/optee_os/ldelf/start_a64.S:46
      34:	8b0400e7 	add	x7, x7, x4
/home/ssysarch/Desktop/nick/jetpack_5/Jetson_Linux_R35.4.1_aarch64/Linux_for_Tegra/sources/tegra/optee-src/nv-optee/optee/optee_os/ldelf/start_a64.S:47
      38:	8b040129 	add	x9, x9, x4
/home/ssysarch/Desktop/nick/jetpack_5/Jetson_Linux_R35.4.1_aarch64/Linux_for_Tegra/sources/tegra/optee-src/nv-optee/optee/optee_os/ldelf/start_a64.S:48
      3c:	f90000e9 	str	x9, [x7]
/home/ssysarch/Desktop/nick/jetpack_5/Jetson_Linux_R35.4.1_aarch64/Linux_for_Tegra/sources/tegra/optee-src/nv-optee/optee/optee_os/ldelf/start_a64.S:50
      40:	eb0600bf 	cmp	x5, x6
/home/ssysarch/Desktop/nick/jetpack_5/Jetson_Linux_R35.4.1_aarch64/Linux_for_Tegra/sources/tegra/optee-src/nv-optee/optee/optee_os/ldelf/start_a64.S:51
      44:	54fffee3 	b.cc	20 <_ldelf_start+0x20>  // b.lo, b.ul, b.last
/home/ssysarch/Desktop/nick/jetpack_5/Jetson_Linux_R35.4.1_aarch64/Linux_for_Tegra/sources/tegra/optee-src/nv-optee/optee/optee_os/ldelf/start_a64.S:53
      48:	940000fe 	bl	440 <ldelf>
/home/ssysarch/Desktop/nick/jetpack_5/Jetson_Linux_R35.4.1_aarch64/Linux_for_Tegra/sources/tegra/optee-src/nv-optee/optee/optee_os/ldelf/start_a64.S:54
      4c:	d2800000 	mov	x0, #0x0                   	// #0
/home/ssysarch/Desktop/nick/jetpack_5/Jetson_Linux_R35.4.1_aarch64/Linux_for_Tegra/sources/tegra/optee-src/nv-optee/optee/optee_os/ldelf/start_a64.S:55
      50:	94000046 	bl	168 <_ldelf_return>
/home/ssysarch/Desktop/nick/jetpack_5/Jetson_Linux_R35.4.1_aarch64/Linux_for_Tegra/sources/tegra/optee-src/nv-optee/optee/optee_os/ldelf/start_a64.S:56
      54:	d2800000 	mov	x0, #0x0                   	// #0
/home/ssysarch/Desktop/nick/jetpack_5/Jetson_Linux_R35.4.1_aarch64/Linux_for_Tegra/sources/tegra/optee-src/nv-optee/optee/optee_os/ldelf/start_a64.S:57
      58:	94000041 	bl	15c <_ldelf_panic>

000000000000005c <reloc_begin_rel>:
reloc_begin_rel():
/home/ssysarch/Desktop/nick/jetpack_5/Jetson_Linux_R35.4.1_aarch64/Linux_for_Tegra/sources/tegra/optee-src/nv-optee/optee/optee_os/ldelf/start_a64.S:57
      5c:	00007c84 	.word	0x00007c84

0000000000000060 <reloc_end_rel>:
reloc_end_rel():
/home/ssysarch/Desktop/nick/jetpack_5/Jetson_Linux_R35.4.1_aarch64/Linux_for_Tegra/sources/tegra/optee-src/nv-optee/optee/optee_os/ldelf/start_a64.S:57
      60:	00007d28 	.word	0x00007d28
	...

0000000000000070 <memcpy>:
memcpy():
/home/ssysarch/Desktop/nick/jetpack_5/Jetson_Linux_R35.4.1_aarch64/Linux_for_Tegra/sources/tegra/optee-src/nv-optee/optee/optee_os/lib/libutils/isoc/newlib/memcpy.c:106
      70:	f1007c5f 	cmp	x2, #0x1f
      74:	54000629 	b.ls	138 <memcpy+0xc8>  // b.plast
/home/ssysarch/Desktop/nick/jetpack_5/Jetson_Linux_R35.4.1_aarch64/Linux_for_Tegra/sources/tegra/optee-src/nv-optee/optee/optee_os/lib/libutils/isoc/newlib/memcpy.c:106 (discriminator 1)
      78:	aa000025 	orr	x5, x1, x0
      7c:	f24008a5 	ands	x5, x5, #0x7
      80:	54000641 	b.ne	148 <memcpy+0xd8>  // b.any
      84:	d1008048 	sub	x8, x2, #0x20
/home/ssysarch/Desktop/nick/jetpack_5/Jetson_Linux_R35.4.1_aarch64/Linux_for_Tegra/sources/tegra/optee-src/nv-optee/optee/optee_os/lib/libutils/isoc/newlib/memcpy.c:108
      88:	aa0103e4 	mov	x4, x1
      8c:	927be908 	and	x8, x8, #0xffffffffffffffe0
/home/ssysarch/Desktop/nick/jetpack_5/Jetson_Linux_R35.4.1_aarch64/Linux_for_Tegra/sources/tegra/optee-src/nv-optee/optee/optee_os/lib/libutils/isoc/newlib/memcpy.c:107
      90:	aa0003e3 	mov	x3, x0
      94:	91008108 	add	x8, x8, #0x20
      98:	8b080007 	add	x7, x0, x8
      9c:	d503201f 	nop
/home/ssysarch/Desktop/nick/jetpack_5/Jetson_Linux_R35.4.1_aarch64/Linux_for_Tegra/sources/tegra/optee-src/nv-optee/optee/optee_os/lib/libutils/isoc/newlib/memcpy.c:112
      a0:	f9400086 	ldr	x6, [x4]
      a4:	f9000066 	str	x6, [x3]
/home/ssysarch/Desktop/nick/jetpack_5/Jetson_Linux_R35.4.1_aarch64/Linux_for_Tegra/sources/tegra/optee-src/nv-optee/optee/optee_os/lib/libutils/isoc/newlib/memcpy.c:113
      a8:	91008084 	add	x4, x4, #0x20
      ac:	91008063 	add	x3, x3, #0x20
      b0:	f85e8086 	ldur	x6, [x4, #-24]
      b4:	f81e8066 	stur	x6, [x3, #-24]
/home/ssysarch/Desktop/nick/jetpack_5/Jetson_Linux_R35.4.1_aarch64/Linux_for_Tegra/sources/tegra/optee-src/nv-optee/optee/optee_os/lib/libutils/isoc/newlib/memcpy.c:114
      b8:	f85f0086 	ldur	x6, [x4, #-16]
      bc:	f81f0066 	stur	x6, [x3, #-16]
/home/ssysarch/Desktop/nick/jetpack_5/Jetson_Linux_R35.4.1_aarch64/Linux_for_Tegra/sources/tegra/optee-src/nv-optee/optee/optee_os/lib/libutils/isoc/newlib/memcpy.c:111
      c0:	eb0300ff 	cmp	x7, x3
/home/ssysarch/Desktop/nick/jetpack_5/Jetson_Linux_R35.4.1_aarch64/Linux_for_Tegra/sources/tegra/optee-src/nv-optee/optee/optee_os/lib/libutils/isoc/newlib/memcpy.c:115
      c4:	f85f8086 	ldur	x6, [x4, #-8]
      c8:	f81f8066 	stur	x6, [x3, #-8]
/home/ssysarch/Desktop/nick/jetpack_5/Jetson_Linux_R35.4.1_aarch64/Linux_for_Tegra/sources/tegra/optee-src/nv-optee/optee/optee_os/lib/libutils/isoc/newlib/memcpy.c:111
      cc:	54fffea1 	b.ne	a0 <memcpy+0x30>  // b.any
      d0:	8b080021 	add	x1, x1, x8
/home/ssysarch/Desktop/nick/jetpack_5/Jetson_Linux_R35.4.1_aarch64/Linux_for_Tegra/sources/tegra/optee-src/nv-optee/optee/optee_os/lib/libutils/isoc/newlib/memcpy.c:120
      d4:	f27d045f 	tst	x2, #0x18
      d8:	92401044 	and	x4, x2, #0x1f
      dc:	540003c0 	b.eq	154 <memcpy+0xe4>  // b.none
/home/ssysarch/Desktop/nick/jetpack_5/Jetson_Linux_R35.4.1_aarch64/Linux_for_Tegra/sources/tegra/optee-src/nv-optee/optee/optee_os/lib/libutils/isoc/newlib/memcpy.c:121
      e0:	f8656826 	ldr	x6, [x1, x5]
      e4:	f8256866 	str	x6, [x3, x5]
/home/ssysarch/Desktop/nick/jetpack_5/Jetson_Linux_R35.4.1_aarch64/Linux_for_Tegra/sources/tegra/optee-src/nv-optee/optee/optee_os/lib/libutils/isoc/newlib/memcpy.c:120
      e8:	910020a5 	add	x5, x5, #0x8
      ec:	cb050086 	sub	x6, x4, x5
      f0:	f1001cdf 	cmp	x6, #0x7
      f4:	54ffff68 	b.hi	e0 <memcpy+0x70>  // b.pmore
      f8:	d1002084 	sub	x4, x4, #0x8
      fc:	92400842 	and	x2, x2, #0x7
     100:	927df084 	and	x4, x4, #0xfffffffffffffff8
/home/ssysarch/Desktop/nick/jetpack_5/Jetson_Linux_R35.4.1_aarch64/Linux_for_Tegra/sources/tegra/optee-src/nv-optee/optee/optee_os/lib/libutils/isoc/newlib/memcpy.c:130
     104:	d1000446 	sub	x6, x2, #0x1
     108:	91002084 	add	x4, x4, #0x8
     10c:	8b040063 	add	x3, x3, x4
     110:	8b040021 	add	x1, x1, x4
     114:	b4000102 	cbz	x2, 134 <memcpy+0xc4>
/home/ssysarch/Desktop/nick/jetpack_5/Jetson_Linux_R35.4.1_aarch64/Linux_for_Tegra/sources/tegra/optee-src/nv-optee/optee/optee_os/lib/libutils/isoc/newlib/memcpy.c:99
     118:	d2800002 	mov	x2, #0x0                   	// #0
     11c:	d503201f 	nop
/home/ssysarch/Desktop/nick/jetpack_5/Jetson_Linux_R35.4.1_aarch64/Linux_for_Tegra/sources/tegra/optee-src/nv-optee/optee/optee_os/lib/libutils/isoc/newlib/memcpy.c:131
     120:	38626825 	ldrb	w5, [x1, x2]
/home/ssysarch/Desktop/nick/jetpack_5/Jetson_Linux_R35.4.1_aarch64/Linux_for_Tegra/sources/tegra/optee-src/nv-optee/optee/optee_os/lib/libutils/isoc/newlib/memcpy.c:130
     124:	eb0200df 	cmp	x6, x2
/home/ssysarch/Desktop/nick/jetpack_5/Jetson_Linux_R35.4.1_aarch64/Linux_for_Tegra/sources/tegra/optee-src/nv-optee/optee/optee_os/lib/libutils/isoc/newlib/memcpy.c:131
     128:	38226865 	strb	w5, [x3, x2]
/home/ssysarch/Desktop/nick/jetpack_5/Jetson_Linux_R35.4.1_aarch64/Linux_for_Tegra/sources/tegra/optee-src/nv-optee/optee/optee_os/lib/libutils/isoc/newlib/memcpy.c:130
     12c:	91000442 	add	x2, x2, #0x1
     130:	54ffff81 	b.ne	120 <memcpy+0xb0>  // b.any
/home/ssysarch/Desktop/nick/jetpack_5/Jetson_Linux_R35.4.1_aarch64/Linux_for_Tegra/sources/tegra/optee-src/nv-optee/optee/optee_os/lib/libutils/isoc/newlib/memcpy.c:135
     134:	d65f03c0 	ret
/home/ssysarch/Desktop/nick/jetpack_5/Jetson_Linux_R35.4.1_aarch64/Linux_for_Tegra/sources/tegra/optee-src/nv-optee/optee/optee_os/lib/libutils/isoc/newlib/memcpy.c:99
     138:	aa0003e3 	mov	x3, x0
/home/ssysarch/Desktop/nick/jetpack_5/Jetson_Linux_R35.4.1_aarch64/Linux_for_Tegra/sources/tegra/optee-src/nv-optee/optee/optee_os/lib/libutils/isoc/newlib/memcpy.c:130
     13c:	d1000446 	sub	x6, x2, #0x1
     140:	b5fffec2 	cbnz	x2, 118 <memcpy+0xa8>
/home/ssysarch/Desktop/nick/jetpack_5/Jetson_Linux_R35.4.1_aarch64/Linux_for_Tegra/sources/tegra/optee-src/nv-optee/optee/optee_os/lib/libutils/isoc/newlib/memcpy.c:135
     144:	d65f03c0 	ret
/home/ssysarch/Desktop/nick/jetpack_5/Jetson_Linux_R35.4.1_aarch64/Linux_for_Tegra/sources/tegra/optee-src/nv-optee/optee/optee_os/lib/libutils/isoc/newlib/memcpy.c:130
     148:	d1000446 	sub	x6, x2, #0x1
/home/ssysarch/Desktop/nick/jetpack_5/Jetson_Linux_R35.4.1_aarch64/Linux_for_Tegra/sources/tegra/optee-src/nv-optee/optee/optee_os/lib/libutils/isoc/newlib/memcpy.c:99
     14c:	aa0003e3 	mov	x3, x0
     150:	17fffff2 	b	118 <memcpy+0xa8>
/home/ssysarch/Desktop/nick/jetpack_5/Jetson_Linux_R35.4.1_aarch64/Linux_for_Tegra/sources/tegra/optee-src/nv-optee/optee/optee_os/lib/libutils/isoc/newlib/memcpy.c:120
     154:	aa0403e2 	mov	x2, x4
     158:	17fffff9 	b	13c <memcpy+0xcc>

000000000000015c <_ldelf_panic>:
_ldelf_panic():
/home/ssysarch/Desktop/nick/jetpack_5/Jetson_Linux_R35.4.1_aarch64/Linux_for_Tegra/sources/tegra/optee-src/nv-optee/optee/optee_os/ldelf/syscalls_a64.S:25
     15c:	a9bf7bfd 	stp	x29, x30, [sp, #-16]!
/home/ssysarch/Desktop/nick/jetpack_5/Jetson_Linux_R35.4.1_aarch64/Linux_for_Tegra/sources/tegra/optee-src/nv-optee/optee/optee_os/ldelf/syscalls_a64.S:26
     160:	910003e1 	mov	x1, sp
/home/ssysarch/Desktop/nick/jetpack_5/Jetson_Linux_R35.4.1_aarch64/Linux_for_Tegra/sources/tegra/optee-src/nv-optee/optee/optee_os/ldelf/syscalls_a64.S:27
     164:	94000007 	bl	180 <__ldelf_panic>

0000000000000168 <_ldelf_return>:
_ldelf_return():
/home/ssysarch/Desktop/nick/jetpack_5/Jetson_Linux_R35.4.1_aarch64/Linux_for_Tegra/sources/tegra/optee-src/nv-optee/optee/optee_os/ldelf/syscalls_asm.S:9
     168:	d2800008 	mov	x8, #0x0                   	// #0
     16c:	d4000001 	svc	#0x0
     170:	d65f03c0 	ret

0000000000000174 <_ldelf_log>:
_ldelf_log():
/home/ssysarch/Desktop/nick/jetpack_5/Jetson_Linux_R35.4.1_aarch64/Linux_for_Tegra/sources/tegra/optee-src/nv-optee/optee/optee_os/ldelf/syscalls_asm.S:10
     174:	d2800028 	mov	x8, #0x1                   	// #1
     178:	d4000001 	svc	#0x0
     17c:	d65f03c0 	ret

0000000000000180 <__ldelf_panic>:
__ldelf_panic():
/home/ssysarch/Desktop/nick/jetpack_5/Jetson_Linux_R35.4.1_aarch64/Linux_for_Tegra/sources/tegra/optee-src/nv-optee/optee/optee_os/ldelf/syscalls_asm.S:11
     180:	d2800048 	mov	x8, #0x2                   	// #2
     184:	d4000001 	svc	#0x0
     188:	d65f03c0 	ret

000000000000018c <_ldelf_map_zi>:
_ldelf_map_zi():
/home/ssysarch/Desktop/nick/jetpack_5/Jetson_Linux_R35.4.1_aarch64/Linux_for_Tegra/sources/tegra/optee-src/nv-optee/optee/optee_os/ldelf/syscalls_asm.S:12
     18c:	d2800068 	mov	x8, #0x3                   	// #3
     190:	d4000001 	svc	#0x0
     194:	d65f03c0 	ret

0000000000000198 <_ldelf_unmap>:
_ldelf_unmap():
/home/ssysarch/Desktop/nick/jetpack_5/Jetson_Linux_R35.4.1_aarch64/Linux_for_Tegra/sources/tegra/optee-src/nv-optee/optee/optee_os/ldelf/syscalls_asm.S:13
     198:	d2800088 	mov	x8, #0x4                   	// #4
     19c:	d4000001 	svc	#0x0
     1a0:	d65f03c0 	ret

00000000000001a4 <_ldelf_open_bin>:
_ldelf_open_bin():
/home/ssysarch/Desktop/nick/jetpack_5/Jetson_Linux_R35.4.1_aarch64/Linux_for_Tegra/sources/tegra/optee-src/nv-optee/optee/optee_os/ldelf/syscalls_asm.S:14
     1a4:	d28000a8 	mov	x8, #0x5                   	// #5
     1a8:	d4000001 	svc	#0x0
     1ac:	d65f03c0 	ret

00000000000001b0 <_ldelf_close_bin>:
_ldelf_close_bin():
/home/ssysarch/Desktop/nick/jetpack_5/Jetson_Linux_R35.4.1_aarch64/Linux_for_Tegra/sources/tegra/optee-src/nv-optee/optee/optee_os/ldelf/syscalls_asm.S:15
     1b0:	d28000c8 	mov	x8, #0x6                   	// #6
     1b4:	d4000001 	svc	#0x0
     1b8:	d65f03c0 	ret

00000000000001bc <_ldelf_map_bin>:
_ldelf_map_bin():
/home/ssysarch/Desktop/nick/jetpack_5/Jetson_Linux_R35.4.1_aarch64/Linux_for_Tegra/sources/tegra/optee-src/nv-optee/optee/optee_os/ldelf/syscalls_asm.S:16
     1bc:	d28000e8 	mov	x8, #0x7                   	// #7
     1c0:	d4000001 	svc	#0x0
     1c4:	d65f03c0 	ret

00000000000001c8 <_ldelf_cp_from_bin>:
_ldelf_cp_from_bin():
/home/ssysarch/Desktop/nick/jetpack_5/Jetson_Linux_R35.4.1_aarch64/Linux_for_Tegra/sources/tegra/optee-src/nv-optee/optee/optee_os/ldelf/syscalls_asm.S:17
     1c8:	d2800108 	mov	x8, #0x8                   	// #8
     1cc:	d4000001 	svc	#0x0
     1d0:	d65f03c0 	ret

00000000000001d4 <_ldelf_set_prot>:
_ldelf_set_prot():
/home/ssysarch/Desktop/nick/jetpack_5/Jetson_Linux_R35.4.1_aarch64/Linux_for_Tegra/sources/tegra/optee-src/nv-optee/optee/optee_os/ldelf/syscalls_asm.S:18
     1d4:	d2800128 	mov	x8, #0x9                   	// #9
     1d8:	d4000001 	svc	#0x0
     1dc:	d65f03c0 	ret

00000000000001e0 <_ldelf_remap>:
_ldelf_remap():
/home/ssysarch/Desktop/nick/jetpack_5/Jetson_Linux_R35.4.1_aarch64/Linux_for_Tegra/sources/tegra/optee-src/nv-optee/optee/optee_os/ldelf/syscalls_asm.S:19
     1e0:	d2800148 	mov	x8, #0xa                   	// #10
     1e4:	d4000001 	svc	#0x0
     1e8:	d65f03c0 	ret

00000000000001ec <_ldelf_gen_rnd_num>:
_ldelf_gen_rnd_num():
/home/ssysarch/Desktop/nick/jetpack_5/Jetson_Linux_R35.4.1_aarch64/Linux_for_Tegra/sources/tegra/optee-src/nv-optee/optee/optee_os/ldelf/syscalls_asm.S:20
     1ec:	d2800168 	mov	x8, #0xb                   	// #11
     1f0:	d4000001 	svc	#0x0
     1f4:	d65f03c0 	ret

00000000000001f8 <tlsdesc_resolve>:
tlsdesc_resolve():
/home/ssysarch/Desktop/nick/jetpack_5/Jetson_Linux_R35.4.1_aarch64/Linux_for_Tegra/sources/tegra/optee-src/nv-optee/optee/optee_os/ldelf/tlsdesc_rel_a64.S:17
     1f8:	f9400400 	ldr	x0, [x0, #8]
/home/ssysarch/Desktop/nick/jetpack_5/Jetson_Linux_R35.4.1_aarch64/Linux_for_Tegra/sources/tegra/optee-src/nv-optee/optee/optee_os/ldelf/tlsdesc_rel_a64.S:18
     1fc:	d65f03c0 	ret

0000000000000200 <dlopen_entry>:
dlopen_entry():
/home/ssysarch/Desktop/nick/jetpack_5/Jetson_Linux_R35.4.1_aarch64/Linux_for_Tegra/sources/tegra/optee-src/nv-optee/optee/optee_os/ldelf/dl.c:12
     200:	a9bd7bfd 	stp	x29, x30, [sp, #-48]!
/home/ssysarch/Desktop/nick/jetpack_5/Jetson_Linux_R35.4.1_aarch64/Linux_for_Tegra/sources/tegra/optee-src/nv-optee/optee/optee_os/ldelf/dl.c:15
     204:	52822041 	mov	w1, #0x1102                	// #4354
/home/ssysarch/Desktop/nick/jetpack_5/Jetson_Linux_R35.4.1_aarch64/Linux_for_Tegra/sources/tegra/optee-src/nv-optee/optee/optee_os/ldelf/dl.c:12
     208:	910003fd 	mov	x29, sp
/home/ssysarch/Desktop/nick/jetpack_5/Jetson_Linux_R35.4.1_aarch64/Linux_for_Tegra/sources/tegra/optee-src/nv-optee/optee/optee_os/ldelf/dl.c:15
     20c:	b9401802 	ldr	w2, [x0, #24]
/home/ssysarch/Desktop/nick/jetpack_5/Jetson_Linux_R35.4.1_aarch64/Linux_for_Tegra/sources/tegra/optee-src/nv-optee/optee/optee_os/ldelf/dl.c:12
     210:	f9000bf3 	str	x19, [sp, #16]
/home/ssysarch/Desktop/nick/jetpack_5/Jetson_Linux_R35.4.1_aarch64/Linux_for_Tegra/sources/tegra/optee-src/nv-optee/optee/optee_os/ldelf/dl.c:13
     214:	a9027fff 	stp	xzr, xzr, [sp, #32]
/home/ssysarch/Desktop/nick/jetpack_5/Jetson_Linux_R35.4.1_aarch64/Linux_for_Tegra/sources/tegra/optee-src/nv-optee/optee/optee_os/ldelf/dl.c:15
     218:	6b01005f 	cmp	w2, w1
     21c:	54000161 	b.ne	248 <dlopen_entry+0x48>  // b.any
/home/ssysarch/Desktop/nick/jetpack_5/Jetson_Linux_R35.4.1_aarch64/Linux_for_Tegra/sources/tegra/optee-src/nv-optee/optee/optee_os/ldelf/dl.c:18
     220:	91002013 	add	x19, x0, #0x8
     224:	910083e1 	add	x1, sp, #0x20
     228:	aa1303e0 	mov	x0, x19
     22c:	d2800202 	mov	x2, #0x10                  	// #16
     230:	940015c8 	bl	5950 <memcmp>
     234:	34000120 	cbz	w0, 258 <dlopen_entry+0x58>
/home/ssysarch/Desktop/nick/jetpack_5/Jetson_Linux_R35.4.1_aarch64/Linux_for_Tegra/sources/tegra/optee-src/nv-optee/optee/optee_os/ldelf/dl.c:21
     238:	aa1303e0 	mov	x0, x19
/home/ssysarch/Desktop/nick/jetpack_5/Jetson_Linux_R35.4.1_aarch64/Linux_for_Tegra/sources/tegra/optee-src/nv-optee/optee/optee_os/ldelf/dl.c:22
     23c:	f9400bf3 	ldr	x19, [sp, #16]
     240:	a8c37bfd 	ldp	x29, x30, [sp], #48
/home/ssysarch/Desktop/nick/jetpack_5/Jetson_Linux_R35.4.1_aarch64/Linux_for_Tegra/sources/tegra/optee-src/nv-optee/optee/optee_os/ldelf/dl.c:21
     244:	14000c54 	b	3394 <ta_elf_add_library>
/home/ssysarch/Desktop/nick/jetpack_5/Jetson_Linux_R35.4.1_aarch64/Linux_for_Tegra/sources/tegra/optee-src/nv-optee/optee/optee_os/ldelf/dl.c:16
     248:	129fff20 	mov	w0, #0xffff0006            	// #-65530
/home/ssysarch/Desktop/nick/jetpack_5/Jetson_Linux_R35.4.1_aarch64/Linux_for_Tegra/sources/tegra/optee-src/nv-optee/optee/optee_os/ldelf/dl.c:22
     24c:	f9400bf3 	ldr	x19, [sp, #16]
     250:	a8c37bfd 	ldp	x29, x30, [sp], #48
     254:	d65f03c0 	ret
/home/ssysarch/Desktop/nick/jetpack_5/Jetson_Linux_R35.4.1_aarch64/Linux_for_Tegra/sources/tegra/optee-src/nv-optee/optee/optee_os/ldelf/dl.c:19
     258:	52800000 	mov	w0, #0x0                   	// #0
     25c:	17fffffc 	b	24c <dlopen_entry+0x4c>

0000000000000260 <dlsym_entry>:
dlsym_entry():
/home/ssysarch/Desktop/nick/jetpack_5/Jetson_Linux_R35.4.1_aarch64/Linux_for_Tegra/sources/tegra/optee-src/nv-optee/optee/optee_os/ldelf/dl.c:25
     260:	a9bd7bfd 	stp	x29, x30, [sp, #-48]!
/home/ssysarch/Desktop/nick/jetpack_5/Jetson_Linux_R35.4.1_aarch64/Linux_for_Tegra/sources/tegra/optee-src/nv-optee/optee/optee_os/ldelf/dl.c:29
     264:	d2800202 	mov	x2, #0x10                  	// #16
/home/ssysarch/Desktop/nick/jetpack_5/Jetson_Linux_R35.4.1_aarch64/Linux_for_Tegra/sources/tegra/optee-src/nv-optee/optee/optee_os/ldelf/dl.c:25
     268:	910003fd 	mov	x29, sp
     26c:	a90153f3 	stp	x19, x20, [sp, #16]
/home/ssysarch/Desktop/nick/jetpack_5/Jetson_Linux_R35.4.1_aarch64/Linux_for_Tegra/sources/tegra/optee-src/nv-optee/optee/optee_os/ldelf/dl.c:29
     270:	91002014 	add	x20, x0, #0x8
/home/ssysarch/Desktop/nick/jetpack_5/Jetson_Linux_R35.4.1_aarch64/Linux_for_Tegra/sources/tegra/optee-src/nv-optee/optee/optee_os/ldelf/dl.c:25
     274:	aa0003f3 	mov	x19, x0
/home/ssysarch/Desktop/nick/jetpack_5/Jetson_Linux_R35.4.1_aarch64/Linux_for_Tegra/sources/tegra/optee-src/nv-optee/optee/optee_os/ldelf/dl.c:29
     278:	910083e1 	add	x1, sp, #0x20
     27c:	aa1403e0 	mov	x0, x20
/home/ssysarch/Desktop/nick/jetpack_5/Jetson_Linux_R35.4.1_aarch64/Linux_for_Tegra/sources/tegra/optee-src/nv-optee/optee/optee_os/ldelf/dl.c:27
     280:	a9027fff 	stp	xzr, xzr, [sp, #32]
/home/ssysarch/Desktop/nick/jetpack_5/Jetson_Linux_R35.4.1_aarch64/Linux_for_Tegra/sources/tegra/optee-src/nv-optee/optee/optee_os/ldelf/dl.c:29
     284:	940015b3 	bl	5950 <memcmp>
     288:	34000120 	cbz	w0, 2ac <dlsym_entry+0x4c>
/home/ssysarch/Desktop/nick/jetpack_5/Jetson_Linux_R35.4.1_aarch64/Linux_for_Tegra/sources/tegra/optee-src/nv-optee/optee/optee_os/ldelf/dl.c:30
     28c:	aa1403e0 	mov	x0, x20
     290:	940007ca 	bl	21b8 <ta_elf_find_elf>
     294:	aa0003e3 	mov	x3, x0
/home/ssysarch/Desktop/nick/jetpack_5/Jetson_Linux_R35.4.1_aarch64/Linux_for_Tegra/sources/tegra/optee-src/nv-optee/optee/optee_os/ldelf/dl.c:31
     298:	b50000c0 	cbnz	x0, 2b0 <dlsym_entry+0x50>
/home/ssysarch/Desktop/nick/jetpack_5/Jetson_Linux_R35.4.1_aarch64/Linux_for_Tegra/sources/tegra/optee-src/nv-optee/optee/optee_os/ldelf/dl.c:37
     29c:	129ffee0 	mov	w0, #0xffff0008            	// #-65528
     2a0:	a94153f3 	ldp	x19, x20, [sp, #16]
     2a4:	a8c37bfd 	ldp	x29, x30, [sp], #48
     2a8:	d65f03c0 	ret
/home/ssysarch/Desktop/nick/jetpack_5/Jetson_Linux_R35.4.1_aarch64/Linux_for_Tegra/sources/tegra/optee-src/nv-optee/optee/optee_os/ldelf/dl.c:26
     2ac:	d2800003 	mov	x3, #0x0                   	// #0
/home/ssysarch/Desktop/nick/jetpack_5/Jetson_Linux_R35.4.1_aarch64/Linux_for_Tegra/sources/tegra/optee-src/nv-optee/optee/optee_os/ldelf/dl.c:35
     2b0:	91006261 	add	x1, x19, #0x18
     2b4:	91008260 	add	x0, x19, #0x20
/home/ssysarch/Desktop/nick/jetpack_5/Jetson_Linux_R35.4.1_aarch64/Linux_for_Tegra/sources/tegra/optee-src/nv-optee/optee/optee_os/ldelf/dl.c:37
     2b8:	a94153f3 	ldp	x19, x20, [sp, #16]
/home/ssysarch/Desktop/nick/jetpack_5/Jetson_Linux_R35.4.1_aarch64/Linux_for_Tegra/sources/tegra/optee-src/nv-optee/optee/optee_os/ldelf/dl.c:35
     2bc:	d2800002 	mov	x2, #0x0                   	// #0
/home/ssysarch/Desktop/nick/jetpack_5/Jetson_Linux_R35.4.1_aarch64/Linux_for_Tegra/sources/tegra/optee-src/nv-optee/optee/optee_os/ldelf/dl.c:37
     2c0:	a8c37bfd 	ldp	x29, x30, [sp], #48
/home/ssysarch/Desktop/nick/jetpack_5/Jetson_Linux_R35.4.1_aarch64/Linux_for_Tegra/sources/tegra/optee-src/nv-optee/optee/optee_os/ldelf/dl.c:35
     2c4:	14000dc1 	b	39c8 <ta_elf_resolve_sym>

00000000000002c8 <dl_entry>:
dl_entry():
/home/ssysarch/Desktop/nick/jetpack_5/Jetson_Linux_R35.4.1_aarch64/Linux_for_Tegra/sources/tegra/optee-src/nv-optee/optee/optee_os/ldelf/main.c:108
     2c8:	a9be7bfd 	stp	x29, x30, [sp, #-32]!
     2cc:	910003fd 	mov	x29, sp
/home/ssysarch/Desktop/nick/jetpack_5/Jetson_Linux_R35.4.1_aarch64/Linux_for_Tegra/sources/tegra/optee-src/nv-optee/optee/optee_os/ldelf/main.c:109
     2d0:	b9400001 	ldr	w1, [x0]
/home/ssysarch/Desktop/nick/jetpack_5/Jetson_Linux_R35.4.1_aarch64/Linux_for_Tegra/sources/tegra/optee-src/nv-optee/optee/optee_os/ldelf/main.c:108
     2d4:	f9000bf3 	str	x19, [sp, #16]
     2d8:	aa0003f3 	mov	x19, x0
/home/ssysarch/Desktop/nick/jetpack_5/Jetson_Linux_R35.4.1_aarch64/Linux_for_Tegra/sources/tegra/optee-src/nv-optee/optee/optee_os/ldelf/main.c:109
     2dc:	340000a1 	cbz	w1, 2f0 <dl_entry+0x28>
     2e0:	7100043f 	cmp	w1, #0x1
     2e4:	540000c0 	b.eq	2fc <dl_entry+0x34>  // b.none
/home/ssysarch/Desktop/nick/jetpack_5/Jetson_Linux_R35.4.1_aarch64/Linux_for_Tegra/sources/tegra/optee-src/nv-optee/optee/optee_os/ldelf/main.c:117
     2e8:	129ffea0 	mov	w0, #0xffff000a            	// #-65526
     2ec:	14000002 	b	2f4 <dl_entry+0x2c>
/home/ssysarch/Desktop/nick/jetpack_5/Jetson_Linux_R35.4.1_aarch64/Linux_for_Tegra/sources/tegra/optee-src/nv-optee/optee/optee_os/ldelf/main.c:111
     2f0:	97ffffc4 	bl	200 <dlopen_entry>
/home/ssysarch/Desktop/nick/jetpack_5/Jetson_Linux_R35.4.1_aarch64/Linux_for_Tegra/sources/tegra/optee-src/nv-optee/optee/optee_os/ldelf/main.c:117
     2f4:	b9000660 	str	w0, [x19, #4]
/home/ssysarch/Desktop/nick/jetpack_5/Jetson_Linux_R35.4.1_aarch64/Linux_for_Tegra/sources/tegra/optee-src/nv-optee/optee/optee_os/ldelf/main.c:120
     2f8:	940000d6 	bl	650 <sys_return_cleanup>
/home/ssysarch/Desktop/nick/jetpack_5/Jetson_Linux_R35.4.1_aarch64/Linux_for_Tegra/sources/tegra/optee-src/nv-optee/optee/optee_os/ldelf/main.c:114
     2fc:	97ffffd9 	bl	260 <dlsym_entry>
     300:	17fffffd 	b	2f4 <dl_entry+0x2c>

0000000000000304 <print_to_console>:
print_to_console():
/home/ssysarch/Desktop/nick/jetpack_5/Jetson_Linux_R35.4.1_aarch64/Linux_for_Tegra/sources/tegra/optee-src/nv-optee/optee/optee_os/ldelf/main.c:28
     304:	a9bc7bfd 	stp	x29, x30, [sp, #-64]!
/home/ssysarch/Desktop/nick/jetpack_5/Jetson_Linux_R35.4.1_aarch64/Linux_for_Tegra/sources/tegra/optee-src/nv-optee/optee/optee_os/ldelf/main.c:29
     308:	910083e5 	add	x5, sp, #0x20
/home/ssysarch/Desktop/nick/jetpack_5/Jetson_Linux_R35.4.1_aarch64/Linux_for_Tegra/sources/tegra/optee-src/nv-optee/optee/optee_os/ldelf/main.c:28
     30c:	910003fd 	mov	x29, sp
/home/ssysarch/Desktop/nick/jetpack_5/Jetson_Linux_R35.4.1_aarch64/Linux_for_Tegra/sources/tegra/optee-src/nv-optee/optee/optee_os/ldelf/main.c:29
     310:	aa0503e0 	mov	x0, x5
/home/ssysarch/Desktop/nick/jetpack_5/Jetson_Linux_R35.4.1_aarch64/Linux_for_Tegra/sources/tegra/optee-src/nv-optee/optee/optee_os/ldelf/main.c:28
     314:	f9000bf3 	str	x19, [sp, #16]
     318:	aa0103f3 	mov	x19, x1
     31c:	aa0203e1 	mov	x1, x2
/home/ssysarch/Desktop/nick/jetpack_5/Jetson_Linux_R35.4.1_aarch64/Linux_for_Tegra/sources/tegra/optee-src/nv-optee/optee/optee_os/ldelf/main.c:29
     320:	d2800402 	mov	x2, #0x20                  	// #32
     324:	97ffff53 	bl	70 <memcpy>
     328:	aa0003e5 	mov	x5, x0
     32c:	aa1303e4 	mov	x4, x19
     330:	52800023 	mov	w3, #0x1                   	// #1
     334:	52800022 	mov	w2, #0x1                   	// #1
     338:	52800001 	mov	w1, #0x0                   	// #0
     33c:	d2800000 	mov	x0, #0x0                   	// #0
     340:	940018e7 	bl	66dc <trace_vprintf>
/home/ssysarch/Desktop/nick/jetpack_5/Jetson_Linux_R35.4.1_aarch64/Linux_for_Tegra/sources/tegra/optee-src/nv-optee/optee/optee_os/ldelf/main.c:30
     344:	f9400bf3 	ldr	x19, [sp, #16]
     348:	a8c47bfd 	ldp	x29, x30, [sp], #64
     34c:	d65f03c0 	ret

0000000000000350 <dump_ta_state>:
dump_ta_state():
/home/ssysarch/Desktop/nick/jetpack_5/Jetson_Linux_R35.4.1_aarch64/Linux_for_Tegra/sources/tegra/optee-src/nv-optee/optee/optee_os/ldelf/main.c:33
     350:	a9bd7bfd 	stp	x29, x30, [sp, #-48]!
     354:	910003fd 	mov	x29, sp
     358:	a90153f3 	stp	x19, x20, [sp, #16]
/home/ssysarch/Desktop/nick/jetpack_5/Jetson_Linux_R35.4.1_aarch64/Linux_for_Tegra/sources/tegra/optee-src/nv-optee/optee/optee_os/ldelf/main.c:34
     35c:	90000054 	adrp	x20, 8000 <_DYNAMIC>
     360:	f9409a94 	ldr	x20, [x20, #304]
/home/ssysarch/Desktop/nick/jetpack_5/Jetson_Linux_R35.4.1_aarch64/Linux_for_Tegra/sources/tegra/optee-src/nv-optee/optee/optee_os/ldelf/main.c:33
     364:	f90013f5 	str	x21, [sp, #32]
/home/ssysarch/Desktop/nick/jetpack_5/Jetson_Linux_R35.4.1_aarch64/Linux_for_Tegra/sources/tegra/optee-src/nv-optee/optee/optee_os/ldelf/main.c:34
     368:	f9400295 	ldr	x21, [x20]
/home/ssysarch/Desktop/nick/jetpack_5/Jetson_Linux_R35.4.1_aarch64/Linux_for_Tegra/sources/tegra/optee-src/nv-optee/optee/optee_os/ldelf/main.c:36
     36c:	b4000095 	cbz	x21, 37c <dump_ta_state+0x2c>
     370:	aa0003f3 	mov	x19, x0
/home/ssysarch/Desktop/nick/jetpack_5/Jetson_Linux_R35.4.1_aarch64/Linux_for_Tegra/sources/tegra/optee-src/nv-optee/optee/optee_os/ldelf/main.c:36 (discriminator 2)
     374:	394002a0 	ldrb	w0, [x21]
     378:	35000140 	cbnz	w0, 3a0 <dump_ta_state+0x50>
_assert_trap():
/home/ssysarch/Desktop/nick/jetpack_5/Jetson_Linux_R35.4.1_aarch64/Linux_for_Tegra/sources/tegra/optee-src/nv-optee/optee/optee_os/lib/libutils/isoc/include/assert.h:19
     37c:	d0000023 	adrp	x3, 6000 <kprintf.constprop.0+0x4c8>
     380:	912b0463 	add	x3, x3, #0xac1
     384:	d0000021 	adrp	x1, 6000 <kprintf.constprop.0+0x4c8>
     388:	91291821 	add	x1, x1, #0xa46
     38c:	d0000020 	adrp	x0, 6000 <kprintf.constprop.0+0x4c8>
     390:	91294c00 	add	x0, x0, #0xa53
     394:	52800482 	mov	w2, #0x24                  	// #36
     398:	9400121f 	bl	4c14 <_assert_log>
/home/ssysarch/Desktop/nick/jetpack_5/Jetson_Linux_R35.4.1_aarch64/Linux_for_Tegra/sources/tegra/optee-src/nv-optee/optee/optee_os/lib/libutils/isoc/include/assert.h:20
     39c:	9400122f 	bl	4c58 <_assert_break>
dump_ta_state():
/home/ssysarch/Desktop/nick/jetpack_5/Jetson_Linux_R35.4.1_aarch64/Linux_for_Tegra/sources/tegra/optee-src/nv-optee/optee/optee_os/ldelf/main.c:37
     3a0:	910442a5 	add	x5, x21, #0x110
     3a4:	52800023 	mov	w3, #0x1                   	// #1
     3a8:	52800022 	mov	w2, #0x1                   	// #1
     3ac:	52800001 	mov	w1, #0x0                   	// #0
     3b0:	d2800000 	mov	x0, #0x0                   	// #0
     3b4:	d0000024 	adrp	x4, 6000 <kprintf.constprop.0+0x4c8>
     3b8:	91299c84 	add	x4, x4, #0xa67
     3bc:	94001944 	bl	68cc <trace_printf>
/home/ssysarch/Desktop/nick/jetpack_5/Jetson_Linux_R35.4.1_aarch64/Linux_for_Tegra/sources/tegra/optee-src/nv-optee/optee/optee_os/ldelf/main.c:38
     3c0:	394006a1 	ldrb	w1, [x21, #1]
     3c4:	d0000020 	adrp	x0, 6000 <kprintf.constprop.0+0x4c8>
     3c8:	d0000025 	adrp	x5, 6000 <kprintf.constprop.0+0x4c8>
     3cc:	9128f800 	add	x0, x0, #0xa3e
     3d0:	7100003f 	cmp	w1, #0x0
     3d4:	9128e8a5 	add	x5, x5, #0xa3a
     3d8:	9a8010a5 	csel	x5, x5, x0, ne  // ne = any
     3dc:	52800023 	mov	w3, #0x1                   	// #1
     3e0:	52800022 	mov	w2, #0x1                   	// #1
     3e4:	52800001 	mov	w1, #0x0                   	// #0
     3e8:	d2800000 	mov	x0, #0x0                   	// #0
     3ec:	d0000024 	adrp	x4, 6000 <kprintf.constprop.0+0x4c8>
     3f0:	9129e484 	add	x4, x4, #0xa79
     3f4:	94001936 	bl	68cc <trace_printf>
/home/ssysarch/Desktop/nick/jetpack_5/Jetson_Linux_R35.4.1_aarch64/Linux_for_Tegra/sources/tegra/optee-src/nv-optee/optee/optee_os/ldelf/main.c:41
     3f8:	90000040 	adrp	x0, 8000 <_DYNAMIC>
     3fc:	f940fc05 	ldr	x5, [x0, #504]
     400:	91014264 	add	x4, x19, #0x50
     404:	f9402663 	ldr	x3, [x19, #72]
     408:	d2800000 	mov	x0, #0x0                   	// #0
     40c:	aa1403e2 	mov	x2, x20
     410:	90000001 	adrp	x1, 0 <_ldelf_start>
     414:	910c1021 	add	x1, x1, #0x304
     418:	94000994 	bl	2a68 <ta_elf_print_mappings>
/home/ssysarch/Desktop/nick/jetpack_5/Jetson_Linux_R35.4.1_aarch64/Linux_for_Tegra/sources/tegra/optee-src/nv-optee/optee/optee_os/ldelf/main.c:44
     41c:	39410260 	ldrb	w0, [x19, #64]
     420:	34000080 	cbz	w0, 430 <dump_ta_state+0xe0>
/home/ssysarch/Desktop/nick/jetpack_5/Jetson_Linux_R35.4.1_aarch64/Linux_for_Tegra/sources/tegra/optee-src/nv-optee/optee/optee_os/ldelf/main.c:45
     424:	aa1303e0 	mov	x0, x19
     428:	94000a4d 	bl	2d5c <ta_elf_stack_trace_a32>
/home/ssysarch/Desktop/nick/jetpack_5/Jetson_Linux_R35.4.1_aarch64/Linux_for_Tegra/sources/tegra/optee-src/nv-optee/optee/optee_os/ldelf/main.c:50
     42c:	94000089 	bl	650 <sys_return_cleanup>
/home/ssysarch/Desktop/nick/jetpack_5/Jetson_Linux_R35.4.1_aarch64/Linux_for_Tegra/sources/tegra/optee-src/nv-optee/optee/optee_os/ldelf/main.c:47
     430:	a9400660 	ldp	x0, x1, [x19]
     434:	f9400a62 	ldr	x2, [x19, #16]
     438:	94000a5b 	bl	2da4 <ta_elf_stack_trace_a64>
     43c:	17fffffc 	b	42c <dump_ta_state+0xdc>

0000000000000440 <ldelf>:
ldelf():
/home/ssysarch/Desktop/nick/jetpack_5/Jetson_Linux_R35.4.1_aarch64/Linux_for_Tegra/sources/tegra/optee-src/nv-optee/optee/optee_os/ldelf/main.c:131
     440:	a9bd7bfd 	stp	x29, x30, [sp, #-48]!
/home/ssysarch/Desktop/nick/jetpack_5/Jetson_Linux_R35.4.1_aarch64/Linux_for_Tegra/sources/tegra/optee-src/nv-optee/optee/optee_os/ldelf/main.c:135
     444:	aa0003e5 	mov	x5, x0
     448:	52800023 	mov	w3, #0x1                   	// #1
/home/ssysarch/Desktop/nick/jetpack_5/Jetson_Linux_R35.4.1_aarch64/Linux_for_Tegra/sources/tegra/optee-src/nv-optee/optee/optee_os/ldelf/main.c:131
     44c:	910003fd 	mov	x29, sp
     450:	a90153f3 	stp	x19, x20, [sp, #16]
/home/ssysarch/Desktop/nick/jetpack_5/Jetson_Linux_R35.4.1_aarch64/Linux_for_Tegra/sources/tegra/optee-src/nv-optee/optee/optee_os/ldelf/main.c:135
     454:	52800062 	mov	w2, #0x3                   	// #3
     458:	528010e1 	mov	w1, #0x87                  	// #135
/home/ssysarch/Desktop/nick/jetpack_5/Jetson_Linux_R35.4.1_aarch64/Linux_for_Tegra/sources/tegra/optee-src/nv-optee/optee/optee_os/ldelf/main.c:131
     45c:	a9025bf5 	stp	x21, x22, [sp, #32]
/home/ssysarch/Desktop/nick/jetpack_5/Jetson_Linux_R35.4.1_aarch64/Linux_for_Tegra/sources/tegra/optee-src/nv-optee/optee/optee_os/ldelf/main.c:135
     460:	d0000034 	adrp	x20, 6000 <kprintf.constprop.0+0x4c8>
     464:	912b3e95 	add	x21, x20, #0xacf
/home/ssysarch/Desktop/nick/jetpack_5/Jetson_Linux_R35.4.1_aarch64/Linux_for_Tegra/sources/tegra/optee-src/nv-optee/optee/optee_os/ldelf/main.c:131
     468:	aa0003f3 	mov	x19, x0
/home/ssysarch/Desktop/nick/jetpack_5/Jetson_Linux_R35.4.1_aarch64/Linux_for_Tegra/sources/tegra/optee-src/nv-optee/optee/optee_os/ldelf/main.c:135
     46c:	d0000024 	adrp	x4, 6000 <kprintf.constprop.0+0x4c8>
     470:	912a0c84 	add	x4, x4, #0xa83
     474:	aa1503e0 	mov	x0, x21
     478:	94001915 	bl	68cc <trace_printf>
/home/ssysarch/Desktop/nick/jetpack_5/Jetson_Linux_R35.4.1_aarch64/Linux_for_Tegra/sources/tegra/optee-src/nv-optee/optee/optee_os/ldelf/main.c:136
     47c:	90000056 	adrp	x22, 8000 <_DYNAMIC>
     480:	d2800004 	mov	x4, #0x0                   	// #0
     484:	9107e2c2 	add	x2, x22, #0x1f8
     488:	d2800003 	mov	x3, #0x0                   	// #0
     48c:	52800001 	mov	w1, #0x0                   	// #0
     490:	d2880000 	mov	x0, #0x4000                	// #16384
     494:	94000073 	bl	660 <sys_map_zi>
/home/ssysarch/Desktop/nick/jetpack_5/Jetson_Linux_R35.4.1_aarch64/Linux_for_Tegra/sources/tegra/optee-src/nv-optee/optee/optee_os/ldelf/main.c:137
     498:	340001e0 	cbz	w0, 4d4 <ldelf+0x94>
     49c:	2a0003e6 	mov	w6, w0
/home/ssysarch/Desktop/nick/jetpack_5/Jetson_Linux_R35.4.1_aarch64/Linux_for_Tegra/sources/tegra/optee-src/nv-optee/optee/optee_os/ldelf/main.c:138
     4a0:	d0000024 	adrp	x4, 6000 <kprintf.constprop.0+0x4c8>
     4a4:	912a4c84 	add	x4, x4, #0xa93
     4a8:	d2880005 	mov	x5, #0x4000                	// #16384
     4ac:	52800023 	mov	w3, #0x1                   	// #1
     4b0:	aa1503e0 	mov	x0, x21
     4b4:	52800022 	mov	w2, #0x1                   	// #1
     4b8:	52801141 	mov	w1, #0x8a                  	// #138
     4bc:	94001904 	bl	68cc <trace_printf>
/home/ssysarch/Desktop/nick/jetpack_5/Jetson_Linux_R35.4.1_aarch64/Linux_for_Tegra/sources/tegra/optee-src/nv-optee/optee/optee_os/ldelf/main.c:139
     4c0:	d0000020 	adrp	x0, 6000 <kprintf.constprop.0+0x4c8>
     4c4:	91291800 	add	x0, x0, #0xa46
     4c8:	aa1503e2 	mov	x2, x21
     4cc:	52801161 	mov	w1, #0x8b                  	// #139
     4d0:	94000039 	bl	5b4 <__panic>
/home/ssysarch/Desktop/nick/jetpack_5/Jetson_Linux_R35.4.1_aarch64/Linux_for_Tegra/sources/tegra/optee-src/nv-optee/optee/optee_os/ldelf/main.c:141
     4d4:	f940fec0 	ldr	x0, [x22, #504]
     4d8:	d2880001 	mov	x1, #0x4000                	// #16384
     4dc:	940014f4 	bl	58ac <malloc_add_pool>
/home/ssysarch/Desktop/nick/jetpack_5/Jetson_Linux_R35.4.1_aarch64/Linux_for_Tegra/sources/tegra/optee-src/nv-optee/optee/optee_os/ldelf/main.c:144
     4e0:	91004261 	add	x1, x19, #0x10
     4e4:	aa1303e0 	mov	x0, x19
     4e8:	91005263 	add	x3, x19, #0x14
     4ec:	9100a262 	add	x2, x19, #0x28
     4f0:	940007e3 	bl	247c <ta_elf_load_main>
/home/ssysarch/Desktop/nick/jetpack_5/Jetson_Linux_R35.4.1_aarch64/Linux_for_Tegra/sources/tegra/optee-src/nv-optee/optee/optee_os/ldelf/main.c:152
     4f4:	90000041 	adrp	x1, 8000 <_DYNAMIC>
     4f8:	aa0103f6 	mov	x22, x1
     4fc:	f9409820 	ldr	x0, [x1, #304]
     500:	f9400015 	ldr	x21, [x0]
/home/ssysarch/Desktop/nick/jetpack_5/Jetson_Linux_R35.4.1_aarch64/Linux_for_Tegra/sources/tegra/optee-src/nv-optee/optee/optee_os/ldelf/main.c:152 (discriminator 1)
     504:	b50002b5 	cbnz	x21, 558 <ldelf+0x118>
/home/ssysarch/Desktop/nick/jetpack_5/Jetson_Linux_R35.4.1_aarch64/Linux_for_Tegra/sources/tegra/optee-src/nv-optee/optee/optee_os/ldelf/main.c:155
     508:	f9409ac0 	ldr	x0, [x22, #304]
     50c:	f9400015 	ldr	x21, [x0]
/home/ssysarch/Desktop/nick/jetpack_5/Jetson_Linux_R35.4.1_aarch64/Linux_for_Tegra/sources/tegra/optee-src/nv-optee/optee/optee_os/ldelf/main.c:155 (discriminator 1)
     510:	b5000335 	cbnz	x21, 574 <ldelf+0x134>
/home/ssysarch/Desktop/nick/jetpack_5/Jetson_Linux_R35.4.1_aarch64/Linux_for_Tegra/sources/tegra/optee-src/nv-optee/optee/optee_os/ldelf/main.c:160
     514:	91008261 	add	x1, x19, #0x20
     518:	91006260 	add	x0, x19, #0x18
     51c:	94000b67 	bl	32b8 <ta_elf_finalize_load_main>
/home/ssysarch/Desktop/nick/jetpack_5/Jetson_Linux_R35.4.1_aarch64/Linux_for_Tegra/sources/tegra/optee-src/nv-optee/optee/optee_os/ldelf/main.c:169
     520:	912b3e94 	add	x20, x20, #0xacf
/home/ssysarch/Desktop/nick/jetpack_5/Jetson_Linux_R35.4.1_aarch64/Linux_for_Tegra/sources/tegra/optee-src/nv-optee/optee/optee_os/ldelf/main.c:168
     524:	f9409ad6 	ldr	x22, [x22, #304]
/home/ssysarch/Desktop/nick/jetpack_5/Jetson_Linux_R35.4.1_aarch64/Linux_for_Tegra/sources/tegra/optee-src/nv-optee/optee/optee_os/ldelf/main.c:162
     528:	f9001e7f 	str	xzr, [x19, #56]
/home/ssysarch/Desktop/nick/jetpack_5/Jetson_Linux_R35.4.1_aarch64/Linux_for_Tegra/sources/tegra/optee-src/nv-optee/optee/optee_os/ldelf/main.c:168
     52c:	f94002d5 	ldr	x21, [x22]
/home/ssysarch/Desktop/nick/jetpack_5/Jetson_Linux_R35.4.1_aarch64/Linux_for_Tegra/sources/tegra/optee-src/nv-optee/optee/optee_os/ldelf/main.c:169
     530:	d0000036 	adrp	x22, 6000 <kprintf.constprop.0+0x4c8>
     534:	912abad6 	add	x22, x22, #0xaae
/home/ssysarch/Desktop/nick/jetpack_5/Jetson_Linux_R35.4.1_aarch64/Linux_for_Tegra/sources/tegra/optee-src/nv-optee/optee/optee_os/ldelf/main.c:168 (discriminator 1)
     538:	b50002b5 	cbnz	x21, 58c <ldelf+0x14c>
/home/ssysarch/Desktop/nick/jetpack_5/Jetson_Linux_R35.4.1_aarch64/Linux_for_Tegra/sources/tegra/optee-src/nv-optee/optee/optee_os/ldelf/main.c:173
     53c:	90000000 	adrp	x0, 0 <_ldelf_start>
     540:	910d4000 	add	x0, x0, #0x350
     544:	f9001a60 	str	x0, [x19, #48]
/home/ssysarch/Desktop/nick/jetpack_5/Jetson_Linux_R35.4.1_aarch64/Linux_for_Tegra/sources/tegra/optee-src/nv-optee/optee/optee_os/ldelf/main.c:177
     548:	90000000 	adrp	x0, 0 <_ldelf_start>
     54c:	910b2000 	add	x0, x0, #0x2c8
     550:	f9002260 	str	x0, [x19, #64]
/home/ssysarch/Desktop/nick/jetpack_5/Jetson_Linux_R35.4.1_aarch64/Linux_for_Tegra/sources/tegra/optee-src/nv-optee/optee/optee_os/ldelf/main.c:179
     554:	9400003f 	bl	650 <sys_return_cleanup>
/home/ssysarch/Desktop/nick/jetpack_5/Jetson_Linux_R35.4.1_aarch64/Linux_for_Tegra/sources/tegra/optee-src/nv-optee/optee/optee_os/ldelf/main.c:153 (discriminator 3)
     558:	b9401260 	ldr	w0, [x19, #16]
     55c:	7100001f 	cmp	w0, #0x0
     560:	aa1503e0 	mov	x0, x21
     564:	1a9f07e1 	cset	w1, ne  // ne = any
     568:	940008e1 	bl	28ec <ta_elf_load_dependency>
/home/ssysarch/Desktop/nick/jetpack_5/Jetson_Linux_R35.4.1_aarch64/Linux_for_Tegra/sources/tegra/optee-src/nv-optee/optee/optee_os/ldelf/main.c:152 (discriminator 3)
     56c:	f94092b5 	ldr	x21, [x21, #288]
     570:	17ffffe5 	b	504 <ldelf+0xc4>
/home/ssysarch/Desktop/nick/jetpack_5/Jetson_Linux_R35.4.1_aarch64/Linux_for_Tegra/sources/tegra/optee-src/nv-optee/optee/optee_os/ldelf/main.c:156 (discriminator 3)
     574:	aa1503e0 	mov	x0, x21
     578:	94000da8 	bl	3c18 <ta_elf_relocate>
/home/ssysarch/Desktop/nick/jetpack_5/Jetson_Linux_R35.4.1_aarch64/Linux_for_Tegra/sources/tegra/optee-src/nv-optee/optee/optee_os/ldelf/main.c:157 (discriminator 3)
     57c:	aa1503e0 	mov	x0, x21
     580:	94000916 	bl	29d8 <ta_elf_finalize_mappings>
/home/ssysarch/Desktop/nick/jetpack_5/Jetson_Linux_R35.4.1_aarch64/Linux_for_Tegra/sources/tegra/optee-src/nv-optee/optee/optee_os/ldelf/main.c:155 (discriminator 3)
     584:	f94092b5 	ldr	x21, [x21, #288]
     588:	17ffffe2 	b	510 <ldelf+0xd0>
/home/ssysarch/Desktop/nick/jetpack_5/Jetson_Linux_R35.4.1_aarch64/Linux_for_Tegra/sources/tegra/optee-src/nv-optee/optee/optee_os/ldelf/main.c:169 (discriminator 3)
     58c:	f94006a6 	ldr	x6, [x21, #8]
     590:	910442a5 	add	x5, x21, #0x110
     594:	aa1603e4 	mov	x4, x22
     598:	aa1403e0 	mov	x0, x20
     59c:	52800023 	mov	w3, #0x1                   	// #1
     5a0:	52800062 	mov	w2, #0x3                   	// #3
     5a4:	52801521 	mov	w1, #0xa9                  	// #169
     5a8:	940018c9 	bl	68cc <trace_printf>
/home/ssysarch/Desktop/nick/jetpack_5/Jetson_Linux_R35.4.1_aarch64/Linux_for_Tegra/sources/tegra/optee-src/nv-optee/optee/optee_os/ldelf/main.c:168 (discriminator 3)
     5ac:	f94092b5 	ldr	x21, [x21, #288]
     5b0:	17ffffe2 	b	538 <ldelf+0xf8>

00000000000005b4 <__panic>:
__panic():
/home/ssysarch/Desktop/nick/jetpack_5/Jetson_Linux_R35.4.1_aarch64/Linux_for_Tegra/sources/tegra/optee-src/nv-optee/optee/optee_os/ldelf/sys.c:17
     5b4:	d10083ff 	sub	sp, sp, #0x20
     5b8:	aa0003e5 	mov	x5, x0
/home/ssysarch/Desktop/nick/jetpack_5/Jetson_Linux_R35.4.1_aarch64/Linux_for_Tegra/sources/tegra/optee-src/nv-optee/optee/optee_os/ldelf/sys.c:18
     5bc:	aa020000 	orr	x0, x0, x2
/home/ssysarch/Desktop/nick/jetpack_5/Jetson_Linux_R35.4.1_aarch64/Linux_for_Tegra/sources/tegra/optee-src/nv-optee/optee/optee_os/ldelf/sys.c:17
     5c0:	a9017bfd 	stp	x29, x30, [sp, #16]
     5c4:	910043fd 	add	x29, sp, #0x10
/home/ssysarch/Desktop/nick/jetpack_5/Jetson_Linux_R35.4.1_aarch64/Linux_for_Tegra/sources/tegra/optee-src/nv-optee/optee/optee_os/ldelf/sys.c:18
     5c8:	b5000140 	cbnz	x0, 5f0 <__panic+0x3c>
/home/ssysarch/Desktop/nick/jetpack_5/Jetson_Linux_R35.4.1_aarch64/Linux_for_Tegra/sources/tegra/optee-src/nv-optee/optee/optee_os/ldelf/sys.c:19
     5cc:	d0000024 	adrp	x4, 6000 <kprintf.constprop.0+0x4c8>
     5d0:	912b6c84 	add	x4, x4, #0xadb
     5d4:	52800023 	mov	w3, #0x1                   	// #1
     5d8:	52800022 	mov	w2, #0x1                   	// #1
     5dc:	52800001 	mov	w1, #0x0                   	// #0
     5e0:	940018bb 	bl	68cc <trace_printf>
/home/ssysarch/Desktop/nick/jetpack_5/Jetson_Linux_R35.4.1_aarch64/Linux_for_Tegra/sources/tegra/optee-src/nv-optee/optee/optee_os/ldelf/sys.c:25
     5e4:	d2800020 	mov	x0, #0x1                   	// #1
     5e8:	97fffedd 	bl	15c <_ldelf_panic>
/home/ssysarch/Desktop/nick/jetpack_5/Jetson_Linux_R35.4.1_aarch64/Linux_for_Tegra/sources/tegra/optee-src/nv-optee/optee/optee_os/ldelf/sys.c:27 (discriminator 1)
     5ec:	14000000 	b	5ec <__panic+0x38>
     5f0:	2a0103e6 	mov	w6, w1
/home/ssysarch/Desktop/nick/jetpack_5/Jetson_Linux_R35.4.1_aarch64/Linux_for_Tegra/sources/tegra/optee-src/nv-optee/optee/optee_os/ldelf/sys.c:21
     5f4:	b5000085 	cbnz	x5, 604 <__panic+0x50>
     5f8:	d0000025 	adrp	x5, 6000 <kprintf.constprop.0+0x4c8>
     5fc:	912b54a5 	add	x5, x5, #0xad5
     600:	52800006 	mov	w6, #0x0                   	// #0
/home/ssysarch/Desktop/nick/jetpack_5/Jetson_Linux_R35.4.1_aarch64/Linux_for_Tegra/sources/tegra/optee-src/nv-optee/optee/optee_os/ldelf/sys.c:21 (discriminator 8)
     604:	b50001c2 	cbnz	x2, 63c <__panic+0x88>
/home/ssysarch/Desktop/nick/jetpack_5/Jetson_Linux_R35.4.1_aarch64/Linux_for_Tegra/sources/tegra/optee-src/nv-optee/optee/optee_os/ldelf/sys.c:21
     608:	d0000022 	adrp	x2, 6000 <kprintf.constprop.0+0x4c8>
     60c:	9133cc42 	add	x2, x2, #0xcf3
     610:	aa0203e7 	mov	x7, x2
     614:	aa0203e0 	mov	x0, x2
/home/ssysarch/Desktop/nick/jetpack_5/Jetson_Linux_R35.4.1_aarch64/Linux_for_Tegra/sources/tegra/optee-src/nv-optee/optee/optee_os/ldelf/sys.c:21 (discriminator 20)
     618:	a90003e2 	stp	x2, x0, [sp]
     61c:	d0000024 	adrp	x4, 6000 <kprintf.constprop.0+0x4c8>
     620:	912b8484 	add	x4, x4, #0xae1
     624:	52800023 	mov	w3, #0x1                   	// #1
     628:	52800001 	mov	w1, #0x0                   	// #0
     62c:	52800022 	mov	w2, #0x1                   	// #1
     630:	d2800000 	mov	x0, #0x0                   	// #0
     634:	940018a6 	bl	68cc <trace_printf>
     638:	17ffffeb 	b	5e4 <__panic+0x30>
/home/ssysarch/Desktop/nick/jetpack_5/Jetson_Linux_R35.4.1_aarch64/Linux_for_Tegra/sources/tegra/optee-src/nv-optee/optee/optee_os/ldelf/sys.c:21
     63c:	d0000027 	adrp	x7, 6000 <kprintf.constprop.0+0x4c8>
     640:	912b5ce7 	add	x7, x7, #0xad7
     644:	d0000020 	adrp	x0, 6000 <kprintf.constprop.0+0x4c8>
     648:	912b6400 	add	x0, x0, #0xad9
     64c:	17fffff3 	b	618 <__panic+0x64>

0000000000000650 <sys_return_cleanup>:
sys_return_cleanup():
/home/ssysarch/Desktop/nick/jetpack_5/Jetson_Linux_R35.4.1_aarch64/Linux_for_Tegra/sources/tegra/optee-src/nv-optee/optee/optee_os/ldelf/sys.c:32
     650:	a9bf7bfd 	stp	x29, x30, [sp, #-16]!
/home/ssysarch/Desktop/nick/jetpack_5/Jetson_Linux_R35.4.1_aarch64/Linux_for_Tegra/sources/tegra/optee-src/nv-optee/optee/optee_os/ldelf/sys.c:33
     654:	d2800000 	mov	x0, #0x0                   	// #0
/home/ssysarch/Desktop/nick/jetpack_5/Jetson_Linux_R35.4.1_aarch64/Linux_for_Tegra/sources/tegra/optee-src/nv-optee/optee/optee_os/ldelf/sys.c:32
     658:	910003fd 	mov	x29, sp
/home/ssysarch/Desktop/nick/jetpack_5/Jetson_Linux_R35.4.1_aarch64/Linux_for_Tegra/sources/tegra/optee-src/nv-optee/optee/optee_os/ldelf/sys.c:33
     65c:	97fffec3 	bl	168 <_ldelf_return>

0000000000000660 <sys_map_zi>:
sys_map_zi():
/home/ssysarch/Desktop/nick/jetpack_5/Jetson_Linux_R35.4.1_aarch64/Linux_for_Tegra/sources/tegra/optee-src/nv-optee/optee/optee_os/ldelf/sys.c:41
     660:	aa0003e5 	mov	x5, x0
     664:	aa0203e0 	mov	x0, x2
     668:	aa0303e2 	mov	x2, x3
     66c:	aa0403e3 	mov	x3, x4
/home/ssysarch/Desktop/nick/jetpack_5/Jetson_Linux_R35.4.1_aarch64/Linux_for_Tegra/sources/tegra/optee-src/nv-optee/optee/optee_os/ldelf/sys.c:42
     670:	2a0103e4 	mov	w4, w1
     674:	aa0503e1 	mov	x1, x5
     678:	17fffec5 	b	18c <_ldelf_map_zi>

000000000000067c <sys_unmap>:
sys_unmap():
/home/ssysarch/Desktop/nick/jetpack_5/Jetson_Linux_R35.4.1_aarch64/Linux_for_Tegra/sources/tegra/optee-src/nv-optee/optee/optee_os/ldelf/sys.c:47
     67c:	17fffec7 	b	198 <_ldelf_unmap>

0000000000000680 <sys_open_ta_bin>:
sys_open_ta_bin():
/home/ssysarch/Desktop/nick/jetpack_5/Jetson_Linux_R35.4.1_aarch64/Linux_for_Tegra/sources/tegra/optee-src/nv-optee/optee/optee_os/ldelf/sys.c:52
     680:	aa0103e2 	mov	x2, x1
     684:	d2800201 	mov	x1, #0x10                  	// #16
     688:	17fffec7 	b	1a4 <_ldelf_open_bin>

000000000000068c <sys_close_ta_bin>:
sys_close_ta_bin():
/home/ssysarch/Desktop/nick/jetpack_5/Jetson_Linux_R35.4.1_aarch64/Linux_for_Tegra/sources/tegra/optee-src/nv-optee/optee/optee_os/ldelf/sys.c:57
     68c:	2a0003e0 	mov	w0, w0
     690:	17fffec8 	b	1b0 <_ldelf_close_bin>

0000000000000694 <sys_map_ta_bin>:
sys_map_ta_bin():
/home/ssysarch/Desktop/nick/jetpack_5/Jetson_Linux_R35.4.1_aarch64/Linux_for_Tegra/sources/tegra/optee-src/nv-optee/optee/optee_os/ldelf/sys.c:63
     694:	2a0303e7 	mov	w7, w3
     698:	aa0403e3 	mov	x3, x4
     69c:	aa0503e4 	mov	x4, x5
     6a0:	aa0603e5 	mov	x5, x6
/home/ssysarch/Desktop/nick/jetpack_5/Jetson_Linux_R35.4.1_aarch64/Linux_for_Tegra/sources/tegra/optee-src/nv-optee/optee/optee_os/ldelf/sys.c:64
     6a4:	2a0203e6 	mov	w6, w2
     6a8:	2a0703e2 	mov	w2, w7
     6ac:	17fffec4 	b	1bc <_ldelf_map_bin>

00000000000006b0 <sys_copy_from_ta_bin>:
sys_copy_from_ta_bin():
/home/ssysarch/Desktop/nick/jetpack_5/Jetson_Linux_R35.4.1_aarch64/Linux_for_Tegra/sources/tegra/optee-src/nv-optee/optee/optee_os/ldelf/sys.c:71
     6b0:	aa0103e4 	mov	x4, x1
     6b4:	aa0303e1 	mov	x1, x3
/home/ssysarch/Desktop/nick/jetpack_5/Jetson_Linux_R35.4.1_aarch64/Linux_for_Tegra/sources/tegra/optee-src/nv-optee/optee/optee_os/ldelf/sys.c:72
     6b8:	2a0203e3 	mov	w3, w2
     6bc:	aa0403e2 	mov	x2, x4
     6c0:	17fffec2 	b	1c8 <_ldelf_cp_from_bin>

00000000000006c4 <sys_set_prot>:
sys_set_prot():
/home/ssysarch/Desktop/nick/jetpack_5/Jetson_Linux_R35.4.1_aarch64/Linux_for_Tegra/sources/tegra/optee-src/nv-optee/optee/optee_os/ldelf/sys.c:77
     6c4:	2a0203e2 	mov	w2, w2
     6c8:	17fffec3 	b	1d4 <_ldelf_set_prot>

00000000000006cc <sys_remap>:
sys_remap():
/home/ssysarch/Desktop/nick/jetpack_5/Jetson_Linux_R35.4.1_aarch64/Linux_for_Tegra/sources/tegra/optee-src/nv-optee/optee/optee_os/ldelf/sys.c:83
     6cc:	17fffec5 	b	1e0 <_ldelf_remap>

00000000000006d0 <sys_gen_random_num>:
sys_gen_random_num():
/home/ssysarch/Desktop/nick/jetpack_5/Jetson_Linux_R35.4.1_aarch64/Linux_for_Tegra/sources/tegra/optee-src/nv-optee/optee/optee_os/ldelf/sys.c:88
     6d0:	17fffec7 	b	1ec <_ldelf_gen_rnd_num>

00000000000006d4 <queue_elf_helper>:
queue_elf_helper():
/home/ssysarch/Desktop/nick/jetpack_5/Jetson_Linux_R35.4.1_aarch64/Linux_for_Tegra/sources/tegra/optee-src/nv-optee/optee/optee_os/ldelf/ta_elf.c:63
     6d4:	a9be7bfd 	stp	x29, x30, [sp, #-32]!
/home/ssysarch/Desktop/nick/jetpack_5/Jetson_Linux_R35.4.1_aarch64/Linux_for_Tegra/sources/tegra/optee-src/nv-optee/optee/optee_os/ldelf/ta_elf.c:64
     6d8:	d2802601 	mov	x1, #0x130                 	// #304
/home/ssysarch/Desktop/nick/jetpack_5/Jetson_Linux_R35.4.1_aarch64/Linux_for_Tegra/sources/tegra/optee-src/nv-optee/optee/optee_os/ldelf/ta_elf.c:63
     6dc:	910003fd 	mov	x29, sp
     6e0:	a90153f3 	stp	x19, x20, [sp, #16]
     6e4:	aa0003f4 	mov	x20, x0
/home/ssysarch/Desktop/nick/jetpack_5/Jetson_Linux_R35.4.1_aarch64/Linux_for_Tegra/sources/tegra/optee-src/nv-optee/optee/optee_os/ldelf/ta_elf.c:64
     6e8:	d2800020 	mov	x0, #0x1                   	// #1
     6ec:	9400141a 	bl	5754 <calloc>
     6f0:	aa0003f3 	mov	x19, x0
/home/ssysarch/Desktop/nick/jetpack_5/Jetson_Linux_R35.4.1_aarch64/Linux_for_Tegra/sources/tegra/optee-src/nv-optee/optee/optee_os/ldelf/ta_elf.c:66
     6f4:	b40001c0 	cbz	x0, 72c <queue_elf_helper+0x58>
/home/ssysarch/Desktop/nick/jetpack_5/Jetson_Linux_R35.4.1_aarch64/Linux_for_Tegra/sources/tegra/optee-src/nv-optee/optee/optee_os/ldelf/ta_elf.c:69
     6f8:	f80a0c1f 	str	xzr, [x0, #160]!
/home/ssysarch/Desktop/nick/jetpack_5/Jetson_Linux_R35.4.1_aarch64/Linux_for_Tegra/sources/tegra/optee-src/nv-optee/optee/optee_os/ldelf/ta_elf.c:71
     6fc:	aa1403e1 	mov	x1, x20
     700:	d2800202 	mov	x2, #0x10                  	// #16
/home/ssysarch/Desktop/nick/jetpack_5/Jetson_Linux_R35.4.1_aarch64/Linux_for_Tegra/sources/tegra/optee-src/nv-optee/optee/optee_os/ldelf/ta_elf.c:69
     704:	f9005660 	str	x0, [x19, #168]
/home/ssysarch/Desktop/nick/jetpack_5/Jetson_Linux_R35.4.1_aarch64/Linux_for_Tegra/sources/tegra/optee-src/nv-optee/optee/optee_os/ldelf/ta_elf.c:71
     708:	91044260 	add	x0, x19, #0x110
     70c:	97fffe59 	bl	70 <memcpy>
/home/ssysarch/Desktop/nick/jetpack_5/Jetson_Linux_R35.4.1_aarch64/Linux_for_Tegra/sources/tegra/optee-src/nv-optee/optee/optee_os/ldelf/ta_elf.c:72
     710:	90000040 	adrp	x0, 8000 <_DYNAMIC>
     714:	91058000 	add	x0, x0, #0x160
     718:	f9400401 	ldr	x1, [x0, #8]
     71c:	a912067f 	stp	xzr, x1, [x19, #288]
     720:	f9000033 	str	x19, [x1]
     724:	91048261 	add	x1, x19, #0x120
     728:	f9000401 	str	x1, [x0, #8]
/home/ssysarch/Desktop/nick/jetpack_5/Jetson_Linux_R35.4.1_aarch64/Linux_for_Tegra/sources/tegra/optee-src/nv-optee/optee/optee_os/ldelf/ta_elf.c:74
     72c:	aa1303e0 	mov	x0, x19
     730:	a94153f3 	ldp	x19, x20, [sp, #16]
     734:	a8c27bfd 	ldp	x29, x30, [sp], #32
     738:	d65f03c0 	ret

000000000000073c <get_pad_begin>:
get_pad_begin():
/home/ssysarch/Desktop/nick/jetpack_5/Jetson_Linux_R35.4.1_aarch64/Linux_for_Tegra/sources/tegra/optee-src/nv-optee/optee/optee_os/ldelf/ta_elf.c:755
     73c:	a9be7bfd 	stp	x29, x30, [sp, #-32]!
/home/ssysarch/Desktop/nick/jetpack_5/Jetson_Linux_R35.4.1_aarch64/Linux_for_Tegra/sources/tegra/optee-src/nv-optee/optee/optee_os/ldelf/ta_elf.c:766
     740:	d2800081 	mov	x1, #0x4                   	// #4
/home/ssysarch/Desktop/nick/jetpack_5/Jetson_Linux_R35.4.1_aarch64/Linux_for_Tegra/sources/tegra/optee-src/nv-optee/optee/optee_os/ldelf/ta_elf.c:755
     744:	910003fd 	mov	x29, sp
/home/ssysarch/Desktop/nick/jetpack_5/Jetson_Linux_R35.4.1_aarch64/Linux_for_Tegra/sources/tegra/optee-src/nv-optee/optee/optee_os/ldelf/ta_elf.c:766
     748:	910073e0 	add	x0, sp, #0x1c
/home/ssysarch/Desktop/nick/jetpack_5/Jetson_Linux_R35.4.1_aarch64/Linux_for_Tegra/sources/tegra/optee-src/nv-optee/optee/optee_os/ldelf/ta_elf.c:760
     74c:	b9001fff 	str	wzr, [sp, #28]
/home/ssysarch/Desktop/nick/jetpack_5/Jetson_Linux_R35.4.1_aarch64/Linux_for_Tegra/sources/tegra/optee-src/nv-optee/optee/optee_os/ldelf/ta_elf.c:766
     750:	97ffffe0 	bl	6d0 <sys_gen_random_num>
/home/ssysarch/Desktop/nick/jetpack_5/Jetson_Linux_R35.4.1_aarch64/Linux_for_Tegra/sources/tegra/optee-src/nv-optee/optee/optee_os/ldelf/ta_elf.c:767
     754:	340001a0 	cbz	w0, 788 <get_pad_begin+0x4c>
     758:	2a0003e5 	mov	w5, w0
/home/ssysarch/Desktop/nick/jetpack_5/Jetson_Linux_R35.4.1_aarch64/Linux_for_Tegra/sources/tegra/optee-src/nv-optee/optee/optee_os/ldelf/ta_elf.c:768
     75c:	d0000024 	adrp	x4, 6000 <kprintf.constprop.0+0x4c8>
     760:	912be884 	add	x4, x4, #0xafa
     764:	52800023 	mov	w3, #0x1                   	// #1
     768:	52800062 	mov	w2, #0x3                   	// #3
     76c:	52806001 	mov	w1, #0x300                 	// #768
     770:	f0000020 	adrp	x0, 7000 <trace_ext_prefix+0x509>
     774:	910e1000 	add	x0, x0, #0x384
     778:	94001855 	bl	68cc <trace_printf>
/home/ssysarch/Desktop/nick/jetpack_5/Jetson_Linux_R35.4.1_aarch64/Linux_for_Tegra/sources/tegra/optee-src/nv-optee/optee/optee_os/ldelf/ta_elf.c:769
     77c:	d2800000 	mov	x0, #0x0                   	// #0
/home/ssysarch/Desktop/nick/jetpack_5/Jetson_Linux_R35.4.1_aarch64/Linux_for_Tegra/sources/tegra/optee-src/nv-optee/optee/optee_os/ldelf/ta_elf.c:778
     780:	a8c27bfd 	ldp	x29, x30, [sp], #32
     784:	d65f03c0 	ret
/home/ssysarch/Desktop/nick/jetpack_5/Jetson_Linux_R35.4.1_aarch64/Linux_for_Tegra/sources/tegra/optee-src/nv-optee/optee/optee_os/ldelf/ta_elf.c:774
     788:	b9401fe0 	ldr	w0, [sp, #28]
     78c:	d3741800 	ubfiz	x0, x0, #12, #7
     790:	17fffffc 	b	780 <get_pad_begin+0x44>

0000000000000794 <ta_elf_add_bti>:
ta_elf_add_bti():
/home/ssysarch/Desktop/nick/jetpack_5/Jetson_Linux_R35.4.1_aarch64/Linux_for_Tegra/sources/tegra/optee-src/nv-optee/optee/optee_os/ldelf/ta_elf.c:913
     794:	a9bd7bfd 	stp	x29, x30, [sp, #-48]!
     798:	910003fd 	mov	x29, sp
     79c:	a90153f3 	stp	x19, x20, [sp, #16]
     7a0:	aa0003f4 	mov	x20, x0
/home/ssysarch/Desktop/nick/jetpack_5/Jetson_Linux_R35.4.1_aarch64/Linux_for_Tegra/sources/tegra/optee-src/nv-optee/optee/optee_os/ldelf/ta_elf.c:918
     7a4:	f9405013 	ldr	x19, [x0, #160]
/home/ssysarch/Desktop/nick/jetpack_5/Jetson_Linux_R35.4.1_aarch64/Linux_for_Tegra/sources/tegra/optee-src/nv-optee/optee/optee_os/ldelf/ta_elf.c:913
     7a8:	f90013f5 	str	x21, [sp, #32]
/home/ssysarch/Desktop/nick/jetpack_5/Jetson_Linux_R35.4.1_aarch64/Linux_for_Tegra/sources/tegra/optee-src/nv-optee/optee/optee_os/ldelf/ta_elf.c:918 (discriminator 1)
     7ac:	b50000b3 	cbnz	x19, 7c0 <ta_elf_add_bti+0x2c>
/home/ssysarch/Desktop/nick/jetpack_5/Jetson_Linux_R35.4.1_aarch64/Linux_for_Tegra/sources/tegra/optee-src/nv-optee/optee/optee_os/ldelf/ta_elf.c:927
     7b0:	a94153f3 	ldp	x19, x20, [sp, #16]
     7b4:	f94013f5 	ldr	x21, [sp, #32]
     7b8:	a8c37bfd 	ldp	x29, x30, [sp], #48
     7bc:	d65f03c0 	ret
/home/ssysarch/Desktop/nick/jetpack_5/Jetson_Linux_R35.4.1_aarch64/Linux_for_Tegra/sources/tegra/optee-src/nv-optee/optee/optee_os/ldelf/ta_elf.c:921
     7c0:	f9401260 	ldr	x0, [x19, #32]
     7c4:	36000260 	tbz	w0, #0, 810 <ta_elf_add_bti+0x7c>
/home/ssysarch/Desktop/nick/jetpack_5/Jetson_Linux_R35.4.1_aarch64/Linux_for_Tegra/sources/tegra/optee-src/nv-optee/optee/optee_os/ldelf/ta_elf.c:919
     7c8:	f9400683 	ldr	x3, [x20, #8]
/home/ssysarch/Desktop/nick/jetpack_5/Jetson_Linux_R35.4.1_aarch64/Linux_for_Tegra/sources/tegra/optee-src/nv-optee/optee/optee_os/ldelf/ta_elf.c:922
     7cc:	52800182 	mov	w2, #0xc                   	// #12
     7d0:	f9400e61 	ldr	x1, [x19, #24]
/home/ssysarch/Desktop/nick/jetpack_5/Jetson_Linux_R35.4.1_aarch64/Linux_for_Tegra/sources/tegra/optee-src/nv-optee/optee/optee_os/ldelf/ta_elf.c:919
     7d4:	f9400660 	ldr	x0, [x19, #8]
/home/ssysarch/Desktop/nick/jetpack_5/Jetson_Linux_R35.4.1_aarch64/Linux_for_Tegra/sources/tegra/optee-src/nv-optee/optee/optee_os/ldelf/ta_elf.c:922
     7d8:	8b000060 	add	x0, x3, x0
     7dc:	97ffffba 	bl	6c4 <sys_set_prot>
     7e0:	2a0003f5 	mov	w21, w0
/home/ssysarch/Desktop/nick/jetpack_5/Jetson_Linux_R35.4.1_aarch64/Linux_for_Tegra/sources/tegra/optee-src/nv-optee/optee/optee_os/ldelf/ta_elf.c:923
     7e4:	34000160 	cbz	w0, 810 <ta_elf_add_bti+0x7c>
/home/ssysarch/Desktop/nick/jetpack_5/Jetson_Linux_R35.4.1_aarch64/Linux_for_Tegra/sources/tegra/optee-src/nv-optee/optee/optee_os/ldelf/ta_elf.c:924
     7e8:	d0000024 	adrp	x4, 6000 <kprintf.constprop.0+0x4c8>
     7ec:	912c4884 	add	x4, x4, #0xb12
     7f0:	52800023 	mov	w3, #0x1                   	// #1
     7f4:	52800022 	mov	w2, #0x1                   	// #1
     7f8:	52807381 	mov	w1, #0x39c                 	// #924
     7fc:	f0000020 	adrp	x0, 7000 <trace_ext_prefix+0x509>
     800:	910e9000 	add	x0, x0, #0x3a4
     804:	94001832 	bl	68cc <trace_printf>
     808:	2a1503e0 	mov	w0, w21
     80c:	97fffe57 	bl	168 <_ldelf_return>
/home/ssysarch/Desktop/nick/jetpack_5/Jetson_Linux_R35.4.1_aarch64/Linux_for_Tegra/sources/tegra/optee-src/nv-optee/optee/optee_os/ldelf/ta_elf.c:918
     810:	f9401e73 	ldr	x19, [x19, #56]
     814:	17ffffe6 	b	7ac <ta_elf_add_bti+0x18>

0000000000000818 <init_elf>:
init_elf():
/home/ssysarch/Desktop/nick/jetpack_5/Jetson_Linux_R35.4.1_aarch64/Linux_for_Tegra/sources/tegra/optee-src/nv-optee/optee/optee_os/ldelf/ta_elf.c:478
     818:	a9bc7bfd 	stp	x29, x30, [sp, #-64]!
/home/ssysarch/Desktop/nick/jetpack_5/Jetson_Linux_R35.4.1_aarch64/Linux_for_Tegra/sources/tegra/optee-src/nv-optee/optee/optee_os/ldelf/ta_elf.c:484
     81c:	91040001 	add	x1, x0, #0x100
/home/ssysarch/Desktop/nick/jetpack_5/Jetson_Linux_R35.4.1_aarch64/Linux_for_Tegra/sources/tegra/optee-src/nv-optee/optee/optee_os/ldelf/ta_elf.c:478
     820:	910003fd 	mov	x29, sp
     824:	f90013f5 	str	x21, [sp, #32]
/home/ssysarch/Desktop/nick/jetpack_5/Jetson_Linux_R35.4.1_aarch64/Linux_for_Tegra/sources/tegra/optee-src/nv-optee/optee/optee_os/ldelf/ta_elf.c:484
     828:	91044015 	add	x21, x0, #0x110
/home/ssysarch/Desktop/nick/jetpack_5/Jetson_Linux_R35.4.1_aarch64/Linux_for_Tegra/sources/tegra/optee-src/nv-optee/optee/optee_os/ldelf/ta_elf.c:478
     82c:	a90153f3 	stp	x19, x20, [sp, #16]
     830:	aa0003f3 	mov	x19, x0
/home/ssysarch/Desktop/nick/jetpack_5/Jetson_Linux_R35.4.1_aarch64/Linux_for_Tegra/sources/tegra/optee-src/nv-optee/optee/optee_os/ldelf/ta_elf.c:484
     834:	aa1503e0 	mov	x0, x21
/home/ssysarch/Desktop/nick/jetpack_5/Jetson_Linux_R35.4.1_aarch64/Linux_for_Tegra/sources/tegra/optee-src/nv-optee/optee/optee_os/ldelf/ta_elf.c:480
     838:	f9001fff 	str	xzr, [sp, #56]
/home/ssysarch/Desktop/nick/jetpack_5/Jetson_Linux_R35.4.1_aarch64/Linux_for_Tegra/sources/tegra/optee-src/nv-optee/optee/optee_os/ldelf/ta_elf.c:484
     83c:	97ffff91 	bl	680 <sys_open_ta_bin>
/home/ssysarch/Desktop/nick/jetpack_5/Jetson_Linux_R35.4.1_aarch64/Linux_for_Tegra/sources/tegra/optee-src/nv-optee/optee/optee_os/ldelf/ta_elf.c:485
     840:	340001a0 	cbz	w0, 874 <init_elf+0x5c>
     844:	2a0003f4 	mov	w20, w0
/home/ssysarch/Desktop/nick/jetpack_5/Jetson_Linux_R35.4.1_aarch64/Linux_for_Tegra/sources/tegra/optee-src/nv-optee/optee/optee_os/ldelf/ta_elf.c:486
     848:	d0000024 	adrp	x4, 6000 <kprintf.constprop.0+0x4c8>
     84c:	912c7c84 	add	x4, x4, #0xb1f
     850:	f0000020 	adrp	x0, 7000 <trace_ext_prefix+0x509>
     854:	910cd400 	add	x0, x0, #0x335
     858:	aa1503e5 	mov	x5, x21
     85c:	52800023 	mov	w3, #0x1                   	// #1
     860:	52800022 	mov	w2, #0x1                   	// #1
     864:	52803cc1 	mov	w1, #0x1e6                 	// #486
     868:	94001819 	bl	68cc <trace_printf>
/home/ssysarch/Desktop/nick/jetpack_5/Jetson_Linux_R35.4.1_aarch64/Linux_for_Tegra/sources/tegra/optee-src/nv-optee/optee/optee_os/ldelf/ta_elf.c:496
     86c:	2a1403e0 	mov	w0, w20
     870:	97fffe3e 	bl	168 <_ldelf_return>
/home/ssysarch/Desktop/nick/jetpack_5/Jetson_Linux_R35.4.1_aarch64/Linux_for_Tegra/sources/tegra/optee-src/nv-optee/optee/optee_os/ldelf/ta_elf.c:492
     874:	39400260 	ldrb	w0, [x19]
/home/ssysarch/Desktop/nick/jetpack_5/Jetson_Linux_R35.4.1_aarch64/Linux_for_Tegra/sources/tegra/optee-src/nv-optee/optee/optee_os/ldelf/ta_elf.c:493
     878:	52800035 	mov	w21, #0x1                   	// #1
/home/ssysarch/Desktop/nick/jetpack_5/Jetson_Linux_R35.4.1_aarch64/Linux_for_Tegra/sources/tegra/optee-src/nv-optee/optee/optee_os/ldelf/ta_elf.c:494
     87c:	b9410263 	ldr	w3, [x19, #256]
     880:	d2800006 	mov	x6, #0x0                   	// #0
/home/ssysarch/Desktop/nick/jetpack_5/Jetson_Linux_R35.4.1_aarch64/Linux_for_Tegra/sources/tegra/optee-src/nv-optee/optee/optee_os/ldelf/ta_elf.c:493
     884:	7100001f 	cmp	w0, #0x0
/home/ssysarch/Desktop/nick/jetpack_5/Jetson_Linux_R35.4.1_aarch64/Linux_for_Tegra/sources/tegra/optee-src/nv-optee/optee/optee_os/ldelf/ta_elf.c:494
     888:	d2800005 	mov	x5, #0x0                   	// #0
     88c:	9100e3e0 	add	x0, sp, #0x38
     890:	d2800004 	mov	x4, #0x0                   	// #0
     894:	528000a2 	mov	w2, #0x5                   	// #5
     898:	d2820001 	mov	x1, #0x1000                	// #4096
     89c:	1a8212a2 	csel	w2, w21, w2, ne  // ne = any
     8a0:	97ffff7d 	bl	694 <sys_map_ta_bin>
     8a4:	2a0003f4 	mov	w20, w0
/home/ssysarch/Desktop/nick/jetpack_5/Jetson_Linux_R35.4.1_aarch64/Linux_for_Tegra/sources/tegra/optee-src/nv-optee/optee/optee_os/ldelf/ta_elf.c:495
     8a8:	34000140 	cbz	w0, 8d0 <init_elf+0xb8>
/home/ssysarch/Desktop/nick/jetpack_5/Jetson_Linux_R35.4.1_aarch64/Linux_for_Tegra/sources/tegra/optee-src/nv-optee/optee/optee_os/ldelf/ta_elf.c:496
     8ac:	2a1503e3 	mov	w3, w21
     8b0:	2a1503e2 	mov	w2, w21
     8b4:	d0000024 	adrp	x4, 6000 <kprintf.constprop.0+0x4c8>
     8b8:	912cd484 	add	x4, x4, #0xb35
     8bc:	52803e01 	mov	w1, #0x1f0                 	// #496
     8c0:	f0000020 	adrp	x0, 7000 <trace_ext_prefix+0x509>
     8c4:	910cd400 	add	x0, x0, #0x335
     8c8:	94001801 	bl	68cc <trace_printf>
     8cc:	17ffffe8 	b	86c <init_elf+0x54>
/home/ssysarch/Desktop/nick/jetpack_5/Jetson_Linux_R35.4.1_aarch64/Linux_for_Tegra/sources/tegra/optee-src/nv-optee/optee/optee_os/ldelf/ta_elf.c:498
     8d0:	39400261 	ldrb	w1, [x19]
/home/ssysarch/Desktop/nick/jetpack_5/Jetson_Linux_R35.4.1_aarch64/Linux_for_Tegra/sources/tegra/optee-src/nv-optee/optee/optee_os/ldelf/ta_elf.c:497
     8d4:	f9401fe0 	ldr	x0, [sp, #56]
     8d8:	f9001260 	str	x0, [x19, #32]
/home/ssysarch/Desktop/nick/jetpack_5/Jetson_Linux_R35.4.1_aarch64/Linux_for_Tegra/sources/tegra/optee-src/nv-optee/optee/optee_os/ldelf/ta_elf.c:498
     8dc:	350000a1 	cbnz	w1, 8f0 <init_elf+0xd8>
/home/ssysarch/Desktop/nick/jetpack_5/Jetson_Linux_R35.4.1_aarch64/Linux_for_Tegra/sources/tegra/optee-src/nv-optee/optee/optee_os/ldelf/ta_elf.c:500
     8e0:	91400401 	add	x1, x0, #0x1, lsl #12
     8e4:	a9008660 	stp	x0, x1, [x19, #8]
/home/ssysarch/Desktop/nick/jetpack_5/Jetson_Linux_R35.4.1_aarch64/Linux_for_Tegra/sources/tegra/optee-src/nv-optee/optee/optee_os/ldelf/ta_elf.c:501
     8e8:	d2820001 	mov	x1, #0x1000                	// #4096
     8ec:	f9000e61 	str	x1, [x19, #24]
/home/ssysarch/Desktop/nick/jetpack_5/Jetson_Linux_R35.4.1_aarch64/Linux_for_Tegra/sources/tegra/optee-src/nv-optee/optee/optee_os/ldelf/ta_elf.c:504
     8f0:	b9400002 	ldr	w2, [x0]
     8f4:	5288afe1 	mov	w1, #0x457f                	// #17791
     8f8:	72a8c981 	movk	w1, #0x464c, lsl #16
     8fc:	6b01005f 	cmp	w2, w1
     900:	54000160 	b.eq	92c <init_elf+0x114>  // b.none
/home/ssysarch/Desktop/nick/jetpack_5/Jetson_Linux_R35.4.1_aarch64/Linux_for_Tegra/sources/tegra/optee-src/nv-optee/optee/optee_os/ldelf/ta_elf.c:505
     904:	d0000024 	adrp	x4, 6000 <kprintf.constprop.0+0x4c8>
     908:	912d1084 	add	x4, x4, #0xb44
     90c:	52800023 	mov	w3, #0x1                   	// #1
     910:	52800022 	mov	w2, #0x1                   	// #1
     914:	52803f21 	mov	w1, #0x1f9                 	// #505
/home/ssysarch/Desktop/nick/jetpack_5/Jetson_Linux_R35.4.1_aarch64/Linux_for_Tegra/sources/tegra/optee-src/nv-optee/optee/optee_os/ldelf/ta_elf.c:515
     918:	f0000020 	adrp	x0, 7000 <trace_ext_prefix+0x509>
     91c:	910cd400 	add	x0, x0, #0x335
     920:	940017eb 	bl	68cc <trace_printf>
     924:	129fff40 	mov	w0, #0xffff0005            	// #-65531
     928:	17ffffd2 	b	870 <init_elf+0x58>
e32_parse_ehdr():
/home/ssysarch/Desktop/nick/jetpack_5/Jetson_Linux_R35.4.1_aarch64/Linux_for_Tegra/sources/tegra/optee-src/nv-optee/optee/optee_os/ldelf/ta_elf.c:106
     92c:	b9400401 	ldr	w1, [x0, #4]
/home/ssysarch/Desktop/nick/jetpack_5/Jetson_Linux_R35.4.1_aarch64/Linux_for_Tegra/sources/tegra/optee-src/nv-optee/optee/optee_os/ldelf/ta_elf.c:104
     930:	52802022 	mov	w2, #0x101                 	// #257
     934:	72a00022 	movk	w2, #0x1, lsl #16
     938:	6b02003f 	cmp	w1, w2
     93c:	54000641 	b.ne	a04 <init_elf+0x1ec>  // b.any
/home/ssysarch/Desktop/nick/jetpack_5/Jetson_Linux_R35.4.1_aarch64/Linux_for_Tegra/sources/tegra/optee-src/nv-optee/optee/optee_os/ldelf/ta_elf.c:108
     940:	b9401002 	ldr	w2, [x0, #16]
     944:	52800061 	mov	w1, #0x3                   	// #3
     948:	72a00501 	movk	w1, #0x28, lsl #16
     94c:	6b01005f 	cmp	w2, w1
     950:	54000981 	b.ne	a80 <init_elf+0x268>  // b.any
/home/ssysarch/Desktop/nick/jetpack_5/Jetson_Linux_R35.4.1_aarch64/Linux_for_Tegra/sources/tegra/optee-src/nv-optee/optee/optee_os/ldelf/ta_elf.c:109
     954:	b9402401 	ldr	w1, [x0, #36]
/home/ssysarch/Desktop/nick/jetpack_5/Jetson_Linux_R35.4.1_aarch64/Linux_for_Tegra/sources/tegra/optee-src/nv-optee/optee/optee_os/ldelf/ta_elf.c:108
     958:	52a0a002 	mov	w2, #0x5000000             	// #83886080
/home/ssysarch/Desktop/nick/jetpack_5/Jetson_Linux_R35.4.1_aarch64/Linux_for_Tegra/sources/tegra/optee-src/nv-optee/optee/optee_os/ldelf/ta_elf.c:109
     95c:	12081c21 	and	w1, w1, #0xff000000
/home/ssysarch/Desktop/nick/jetpack_5/Jetson_Linux_R35.4.1_aarch64/Linux_for_Tegra/sources/tegra/optee-src/nv-optee/optee/optee_os/ldelf/ta_elf.c:108
     960:	6b02003f 	cmp	w1, w2
     964:	540008e1 	b.ne	a80 <init_elf+0x268>  // b.any
/home/ssysarch/Desktop/nick/jetpack_5/Jetson_Linux_R35.4.1_aarch64/Linux_for_Tegra/sources/tegra/optee-src/nv-optee/optee/optee_os/ldelf/ta_elf.c:109
     968:	79405401 	ldrh	w1, [x0, #42]
     96c:	7100803f 	cmp	w1, #0x20
     970:	54000881 	b.ne	a80 <init_elf+0x268>  // b.any
/home/ssysarch/Desktop/nick/jetpack_5/Jetson_Linux_R35.4.1_aarch64/Linux_for_Tegra/sources/tegra/optee-src/nv-optee/optee/optee_os/ldelf/ta_elf.c:113
     974:	79405c01 	ldrh	w1, [x0, #46]
     978:	7100a03f 	cmp	w1, #0x28
     97c:	54000821 	b.ne	a80 <init_elf+0x268>  // b.any
/home/ssysarch/Desktop/nick/jetpack_5/Jetson_Linux_R35.4.1_aarch64/Linux_for_Tegra/sources/tegra/optee-src/nv-optee/optee/optee_os/ldelf/ta_elf.c:117
     980:	52800021 	mov	w1, #0x1                   	// #1
     984:	39000661 	strb	w1, [x19, #1]
/home/ssysarch/Desktop/nick/jetpack_5/Jetson_Linux_R35.4.1_aarch64/Linux_for_Tegra/sources/tegra/optee-src/nv-optee/optee/optee_os/ldelf/ta_elf.c:118
     988:	b9401801 	ldr	w1, [x0, #24]
     98c:	f9001661 	str	x1, [x19, #40]
/home/ssysarch/Desktop/nick/jetpack_5/Jetson_Linux_R35.4.1_aarch64/Linux_for_Tegra/sources/tegra/optee-src/nv-optee/optee/optee_os/ldelf/ta_elf.c:119
     990:	b9401c01 	ldr	w1, [x0, #28]
     994:	f9001a61 	str	x1, [x19, #48]
/home/ssysarch/Desktop/nick/jetpack_5/Jetson_Linux_R35.4.1_aarch64/Linux_for_Tegra/sources/tegra/optee-src/nv-optee/optee/optee_os/ldelf/ta_elf.c:120
     998:	b9402001 	ldr	w1, [x0, #32]
     99c:	f9001e61 	str	x1, [x19, #56]
/home/ssysarch/Desktop/nick/jetpack_5/Jetson_Linux_R35.4.1_aarch64/Linux_for_Tegra/sources/tegra/optee-src/nv-optee/optee/optee_os/ldelf/ta_elf.c:121
     9a0:	79405801 	ldrh	w1, [x0, #44]
     9a4:	b9004261 	str	w1, [x19, #64]
/home/ssysarch/Desktop/nick/jetpack_5/Jetson_Linux_R35.4.1_aarch64/Linux_for_Tegra/sources/tegra/optee-src/nv-optee/optee/optee_os/ldelf/ta_elf.c:122
     9a8:	79406001 	ldrh	w1, [x0, #48]
     9ac:	b9004661 	str	w1, [x19, #68]
/home/ssysarch/Desktop/nick/jetpack_5/Jetson_Linux_R35.4.1_aarch64/Linux_for_Tegra/sources/tegra/optee-src/nv-optee/optee/optee_os/ldelf/ta_elf.c:123
     9b0:	d2800401 	mov	x1, #0x20                  	// #32
     9b4:	f2c00501 	movk	x1, #0x28, lsl #32
     9b8:	f9002661 	str	x1, [x19, #72]
init_elf():
/home/ssysarch/Desktop/nick/jetpack_5/Jetson_Linux_R35.4.1_aarch64/Linux_for_Tegra/sources/tegra/optee-src/nv-optee/optee/optee_os/ldelf/ta_elf.c:513
     9bc:	b9404263 	ldr	w3, [x19, #64]
     9c0:	b9404a61 	ldr	w1, [x19, #72]
/home/ssysarch/Desktop/nick/jetpack_5/Jetson_Linux_R35.4.1_aarch64/Linux_for_Tegra/sources/tegra/optee-src/nv-optee/optee/optee_os/ldelf/ta_elf.c:514
     9c4:	f9401a62 	ldr	x2, [x19, #48]
/home/ssysarch/Desktop/nick/jetpack_5/Jetson_Linux_R35.4.1_aarch64/Linux_for_Tegra/sources/tegra/optee-src/nv-optee/optee/optee_os/ldelf/ta_elf.c:513
     9c8:	9ba37c21 	umull	x1, w1, w3
/home/ssysarch/Desktop/nick/jetpack_5/Jetson_Linux_R35.4.1_aarch64/Linux_for_Tegra/sources/tegra/optee-src/nv-optee/optee/optee_os/ldelf/ta_elf.c:514
     9cc:	ab020021 	adds	x1, x1, x2
     9d0:	54000642 	b.cs	a98 <init_elf+0x280>  // b.hs, b.nlast
/home/ssysarch/Desktop/nick/jetpack_5/Jetson_Linux_R35.4.1_aarch64/Linux_for_Tegra/sources/tegra/optee-src/nv-optee/optee/optee_os/ldelf/ta_elf.c:517
     9d4:	f140043f 	cmp	x1, #0x1, lsl #12
     9d8:	540006c9 	b.ls	ab0 <init_elf+0x298>  // b.plast
/home/ssysarch/Desktop/nick/jetpack_5/Jetson_Linux_R35.4.1_aarch64/Linux_for_Tegra/sources/tegra/optee-src/nv-optee/optee/optee_os/ldelf/ta_elf.c:518
     9dc:	d0000024 	adrp	x4, 6000 <kprintf.constprop.0+0x4c8>
     9e0:	912e1084 	add	x4, x4, #0xb84
     9e4:	52800023 	mov	w3, #0x1                   	// #1
     9e8:	52800022 	mov	w2, #0x1                   	// #1
     9ec:	528040c1 	mov	w1, #0x206                 	// #518
     9f0:	f0000020 	adrp	x0, 7000 <trace_ext_prefix+0x509>
     9f4:	910cd400 	add	x0, x0, #0x335
     9f8:	940017b5 	bl	68cc <trace_printf>
     9fc:	129ffea0 	mov	w0, #0xffff000a            	// #-65526
     a00:	17ffff9c 	b	870 <init_elf+0x58>
e64_parse_ehdr():
/home/ssysarch/Desktop/nick/jetpack_5/Jetson_Linux_R35.4.1_aarch64/Linux_for_Tegra/sources/tegra/optee-src/nv-optee/optee/optee_os/ldelf/ta_elf.c:132
     a04:	52802042 	mov	w2, #0x102                 	// #258
     a08:	72a00022 	movk	w2, #0x1, lsl #16
     a0c:	6b02003f 	cmp	w1, w2
     a10:	54000381 	b.ne	a80 <init_elf+0x268>  // b.any
/home/ssysarch/Desktop/nick/jetpack_5/Jetson_Linux_R35.4.1_aarch64/Linux_for_Tegra/sources/tegra/optee-src/nv-optee/optee/optee_os/ldelf/ta_elf.c:136
     a14:	b9401002 	ldr	w2, [x0, #16]
     a18:	52800061 	mov	w1, #0x3                   	// #3
     a1c:	72a016e1 	movk	w1, #0xb7, lsl #16
     a20:	6b01005f 	cmp	w2, w1
     a24:	540002e1 	b.ne	a80 <init_elf+0x268>  // b.any
/home/ssysarch/Desktop/nick/jetpack_5/Jetson_Linux_R35.4.1_aarch64/Linux_for_Tegra/sources/tegra/optee-src/nv-optee/optee/optee_os/ldelf/ta_elf.c:137
     a28:	f9401801 	ldr	x1, [x0, #48]
     a2c:	d2e00702 	mov	x2, #0x38000000000000      	// #15762598695796736
     a30:	9250bc21 	and	x1, x1, #0xffff0000ffffffff
     a34:	eb02003f 	cmp	x1, x2
     a38:	54000241 	b.ne	a80 <init_elf+0x268>  // b.any
     a3c:	79407401 	ldrh	w1, [x0, #58]
     a40:	7101003f 	cmp	w1, #0x40
     a44:	540001e1 	b.ne	a80 <init_elf+0x268>  // b.any
/home/ssysarch/Desktop/nick/jetpack_5/Jetson_Linux_R35.4.1_aarch64/Linux_for_Tegra/sources/tegra/optee-src/nv-optee/optee/optee_os/ldelf/ta_elf.c:143
     a48:	f9400c02 	ldr	x2, [x0, #24]
     a4c:	f9001662 	str	x2, [x19, #40]
/home/ssysarch/Desktop/nick/jetpack_5/Jetson_Linux_R35.4.1_aarch64/Linux_for_Tegra/sources/tegra/optee-src/nv-optee/optee/optee_os/ldelf/ta_elf.c:144
     a50:	f9401002 	ldr	x2, [x0, #32]
     a54:	f9001a62 	str	x2, [x19, #48]
/home/ssysarch/Desktop/nick/jetpack_5/Jetson_Linux_R35.4.1_aarch64/Linux_for_Tegra/sources/tegra/optee-src/nv-optee/optee/optee_os/ldelf/ta_elf.c:145
     a58:	f9401402 	ldr	x2, [x0, #40]
     a5c:	f9001e62 	str	x2, [x19, #56]
/home/ssysarch/Desktop/nick/jetpack_5/Jetson_Linux_R35.4.1_aarch64/Linux_for_Tegra/sources/tegra/optee-src/nv-optee/optee/optee_os/ldelf/ta_elf.c:146
     a60:	79407002 	ldrh	w2, [x0, #56]
     a64:	b9004262 	str	w2, [x19, #64]
/home/ssysarch/Desktop/nick/jetpack_5/Jetson_Linux_R35.4.1_aarch64/Linux_for_Tegra/sources/tegra/optee-src/nv-optee/optee/optee_os/ldelf/ta_elf.c:147
     a68:	79407802 	ldrh	w2, [x0, #60]
     a6c:	b9004662 	str	w2, [x19, #68]
/home/ssysarch/Desktop/nick/jetpack_5/Jetson_Linux_R35.4.1_aarch64/Linux_for_Tegra/sources/tegra/optee-src/nv-optee/optee/optee_os/ldelf/ta_elf.c:148
     a70:	79406c02 	ldrh	w2, [x0, #54]
/home/ssysarch/Desktop/nick/jetpack_5/Jetson_Linux_R35.4.1_aarch64/Linux_for_Tegra/sources/tegra/optee-src/nv-optee/optee/optee_os/ldelf/ta_elf.c:142
     a74:	3900067f 	strb	wzr, [x19, #1]
/home/ssysarch/Desktop/nick/jetpack_5/Jetson_Linux_R35.4.1_aarch64/Linux_for_Tegra/sources/tegra/optee-src/nv-optee/optee/optee_os/ldelf/ta_elf.c:149
     a78:	29090662 	stp	w2, w1, [x19, #72]
init_elf():
/home/ssysarch/Desktop/nick/jetpack_5/Jetson_Linux_R35.4.1_aarch64/Linux_for_Tegra/sources/tegra/optee-src/nv-optee/optee/optee_os/ldelf/ta_elf.c:510
     a7c:	17ffffd0 	b	9bc <init_elf+0x1a4>
/home/ssysarch/Desktop/nick/jetpack_5/Jetson_Linux_R35.4.1_aarch64/Linux_for_Tegra/sources/tegra/optee-src/nv-optee/optee/optee_os/ldelf/ta_elf.c:511
     a80:	d0000024 	adrp	x4, 6000 <kprintf.constprop.0+0x4c8>
     a84:	912d5484 	add	x4, x4, #0xb55
     a88:	52800023 	mov	w3, #0x1                   	// #1
     a8c:	52800022 	mov	w2, #0x1                   	// #1
     a90:	52803fe1 	mov	w1, #0x1ff                 	// #511
     a94:	17ffffa1 	b	918 <init_elf+0x100>
/home/ssysarch/Desktop/nick/jetpack_5/Jetson_Linux_R35.4.1_aarch64/Linux_for_Tegra/sources/tegra/optee-src/nv-optee/optee/optee_os/ldelf/ta_elf.c:515
     a98:	d0000024 	adrp	x4, 6000 <kprintf.constprop.0+0x4c8>
     a9c:	912d9884 	add	x4, x4, #0xb66
     aa0:	52800023 	mov	w3, #0x1                   	// #1
     aa4:	52800022 	mov	w2, #0x1                   	// #1
     aa8:	52804061 	mov	w1, #0x203                 	// #515
     aac:	17ffff9b 	b	918 <init_elf+0x100>
/home/ssysarch/Desktop/nick/jetpack_5/Jetson_Linux_R35.4.1_aarch64/Linux_for_Tegra/sources/tegra/optee-src/nv-optee/optee/optee_os/ldelf/ta_elf.c:520
     ab0:	8b020000 	add	x0, x0, x2
/home/ssysarch/Desktop/nick/jetpack_5/Jetson_Linux_R35.4.1_aarch64/Linux_for_Tegra/sources/tegra/optee-src/nv-optee/optee/optee_os/ldelf/ta_elf.c:521
     ab4:	f94013f5 	ldr	x21, [sp, #32]
/home/ssysarch/Desktop/nick/jetpack_5/Jetson_Linux_R35.4.1_aarch64/Linux_for_Tegra/sources/tegra/optee-src/nv-optee/optee/optee_os/ldelf/ta_elf.c:520
     ab8:	f9002a60 	str	x0, [x19, #80]
/home/ssysarch/Desktop/nick/jetpack_5/Jetson_Linux_R35.4.1_aarch64/Linux_for_Tegra/sources/tegra/optee-src/nv-optee/optee/optee_os/ldelf/ta_elf.c:521
     abc:	a94153f3 	ldp	x19, x20, [sp, #16]
     ac0:	a8c47bfd 	ldp	x29, x30, [sp], #64
     ac4:	d65f03c0 	ret

0000000000000ac8 <print_wrapper>:
print_wrapper():
/home/ssysarch/Desktop/nick/jetpack_5/Jetson_Linux_R35.4.1_aarch64/Linux_for_Tegra/sources/tegra/optee-src/nv-optee/optee/optee_os/ldelf/ta_elf.c:1348
     ac8:	a9b87bfd 	stp	x29, x30, [sp, #-128]!
     acc:	aa0103e8 	mov	x8, x1
     ad0:	aa0203e1 	mov	x1, x2
     ad4:	910003fd 	mov	x29, sp
/home/ssysarch/Desktop/nick/jetpack_5/Jetson_Linux_R35.4.1_aarch64/Linux_for_Tegra/sources/tegra/optee-src/nv-optee/optee/optee_os/ldelf/ta_elf.c:1351
     ad8:	910203e2 	add	x2, sp, #0x80
     adc:	a9030be2 	stp	x2, x2, [sp, #48]
     ae0:	910143e2 	add	x2, sp, #0x50
     ae4:	f90023e2 	str	x2, [sp, #64]
     ae8:	128004e2 	mov	w2, #0xffffffd8            	// #-40
     aec:	b9004be2 	str	w2, [sp, #72]
     af0:	b9004fff 	str	wzr, [sp, #76]
/home/ssysarch/Desktop/nick/jetpack_5/Jetson_Linux_R35.4.1_aarch64/Linux_for_Tegra/sources/tegra/optee-src/nv-optee/optee/optee_os/ldelf/ta_elf.c:1348
     af4:	a90593e3 	stp	x3, x4, [sp, #88]
/home/ssysarch/Desktop/nick/jetpack_5/Jetson_Linux_R35.4.1_aarch64/Linux_for_Tegra/sources/tegra/optee-src/nv-optee/optee/optee_os/ldelf/ta_elf.c:1352
     af8:	a9430fe2 	ldp	x2, x3, [sp, #48]
     afc:	a9010fe2 	stp	x2, x3, [sp, #16]
     b00:	a9440fe2 	ldp	x2, x3, [sp, #64]
     b04:	a9020fe2 	stp	x2, x3, [sp, #32]
/home/ssysarch/Desktop/nick/jetpack_5/Jetson_Linux_R35.4.1_aarch64/Linux_for_Tegra/sources/tegra/optee-src/nv-optee/optee/optee_os/ldelf/ta_elf.c:1348
     b08:	a9069be5 	stp	x5, x6, [sp, #104]
/home/ssysarch/Desktop/nick/jetpack_5/Jetson_Linux_R35.4.1_aarch64/Linux_for_Tegra/sources/tegra/optee-src/nv-optee/optee/optee_os/ldelf/ta_elf.c:1352
     b0c:	910043e2 	add	x2, sp, #0x10
/home/ssysarch/Desktop/nick/jetpack_5/Jetson_Linux_R35.4.1_aarch64/Linux_for_Tegra/sources/tegra/optee-src/nv-optee/optee/optee_os/ldelf/ta_elf.c:1348
     b10:	f9003fe7 	str	x7, [sp, #120]
/home/ssysarch/Desktop/nick/jetpack_5/Jetson_Linux_R35.4.1_aarch64/Linux_for_Tegra/sources/tegra/optee-src/nv-optee/optee/optee_os/ldelf/ta_elf.c:1352
     b14:	d63f0100 	blr	x8
/home/ssysarch/Desktop/nick/jetpack_5/Jetson_Linux_R35.4.1_aarch64/Linux_for_Tegra/sources/tegra/optee-src/nv-optee/optee/optee_os/ldelf/ta_elf.c:1354
     b18:	a8c87bfd 	ldp	x29, x30, [sp], #128
     b1c:	d65f03c0 	ret

0000000000000b20 <read_dyn>:
read_dyn():
/home/ssysarch/Desktop/nick/jetpack_5/Jetson_Linux_R35.4.1_aarch64/Linux_for_Tegra/sources/tegra/optee-src/nv-optee/optee/optee_os/ldelf/ta_elf.c:214
     b20:	f9400405 	ldr	x5, [x0, #8]
     b24:	39400400 	ldrb	w0, [x0, #1]
     b28:	8b050021 	add	x1, x1, x5
     b2c:	34000100 	cbz	w0, b4c <read_dyn+0x2c>
/home/ssysarch/Desktop/nick/jetpack_5/Jetson_Linux_R35.4.1_aarch64/Linux_for_Tegra/sources/tegra/optee-src/nv-optee/optee/optee_os/ldelf/ta_elf.c:217
     b30:	d37df040 	lsl	x0, x2, #3
     b34:	8b020c22 	add	x2, x1, x2, lsl #3
     b38:	b8606820 	ldr	w0, [x1, x0]
     b3c:	b9000060 	str	w0, [x3]
/home/ssysarch/Desktop/nick/jetpack_5/Jetson_Linux_R35.4.1_aarch64/Linux_for_Tegra/sources/tegra/optee-src/nv-optee/optee/optee_os/ldelf/ta_elf.c:218
     b40:	b9400440 	ldr	w0, [x2, #4]
/home/ssysarch/Desktop/nick/jetpack_5/Jetson_Linux_R35.4.1_aarch64/Linux_for_Tegra/sources/tegra/optee-src/nv-optee/optee/optee_os/ldelf/ta_elf.c:223
     b44:	f9000080 	str	x0, [x4]
/home/ssysarch/Desktop/nick/jetpack_5/Jetson_Linux_R35.4.1_aarch64/Linux_for_Tegra/sources/tegra/optee-src/nv-optee/optee/optee_os/ldelf/ta_elf.c:225
     b48:	d65f03c0 	ret
/home/ssysarch/Desktop/nick/jetpack_5/Jetson_Linux_R35.4.1_aarch64/Linux_for_Tegra/sources/tegra/optee-src/nv-optee/optee/optee_os/ldelf/ta_elf.c:222
     b4c:	d37cec40 	lsl	x0, x2, #4
     b50:	8b021022 	add	x2, x1, x2, lsl #4
     b54:	f8606820 	ldr	x0, [x1, x0]
     b58:	b9000060 	str	w0, [x3]
/home/ssysarch/Desktop/nick/jetpack_5/Jetson_Linux_R35.4.1_aarch64/Linux_for_Tegra/sources/tegra/optee-src/nv-optee/optee/optee_os/ldelf/ta_elf.c:223
     b5c:	f9400440 	ldr	x0, [x2, #8]
     b60:	17fffff9 	b	b44 <read_dyn+0x24>

0000000000000b64 <check_range>:
check_range():
/home/ssysarch/Desktop/nick/jetpack_5/Jetson_Linux_R35.4.1_aarch64/Linux_for_Tegra/sources/tegra/optee-src/nv-optee/optee/optee_os/ldelf/ta_elf.c:229
     b64:	a9bf7bfd 	stp	x29, x30, [sp, #-16]!
     b68:	aa0103e5 	mov	x5, x1
     b6c:	aa0203e6 	mov	x6, x2
     b70:	910003fd 	mov	x29, sp
/home/ssysarch/Desktop/nick/jetpack_5/Jetson_Linux_R35.4.1_aarch64/Linux_for_Tegra/sources/tegra/optee-src/nv-optee/optee/optee_os/ldelf/ta_elf.c:232
     b74:	f9400401 	ldr	x1, [x0, #8]
     b78:	eb02003f 	cmp	x1, x2
     b7c:	54000169 	b.ls	ba8 <check_range+0x44>  // b.plast
/home/ssysarch/Desktop/nick/jetpack_5/Jetson_Linux_R35.4.1_aarch64/Linux_for_Tegra/sources/tegra/optee-src/nv-optee/optee/optee_os/ldelf/ta_elf.c:233
     b80:	d0000024 	adrp	x4, 6000 <kprintf.constprop.0+0x4c8>
     b84:	912e8084 	add	x4, x4, #0xba0
     b88:	f0000020 	adrp	x0, 7000 <trace_ext_prefix+0x509>
     b8c:	910b4000 	add	x0, x0, #0x2d0
     b90:	52800023 	mov	w3, #0x1                   	// #1
     b94:	52800022 	mov	w2, #0x1                   	// #1
     b98:	52801d21 	mov	w1, #0xe9                  	// #233
     b9c:	9400174c 	bl	68cc <trace_printf>
/home/ssysarch/Desktop/nick/jetpack_5/Jetson_Linux_R35.4.1_aarch64/Linux_for_Tegra/sources/tegra/optee-src/nv-optee/optee/optee_os/ldelf/ta_elf.c:236
     ba0:	129fff40 	mov	w0, #0xffff0005            	// #-65531
     ba4:	97fffd71 	bl	168 <_ldelf_return>
/home/ssysarch/Desktop/nick/jetpack_5/Jetson_Linux_R35.4.1_aarch64/Linux_for_Tegra/sources/tegra/optee-src/nv-optee/optee/optee_os/ldelf/ta_elf.c:235
     ba8:	ab030047 	adds	x7, x2, x3
     bac:	540001a2 	b.cs	be0 <check_range+0x7c>  // b.hs, b.nlast
/home/ssysarch/Desktop/nick/jetpack_5/Jetson_Linux_R35.4.1_aarch64/Linux_for_Tegra/sources/tegra/optee-src/nv-optee/optee/optee_os/ldelf/ta_elf.c:238
     bb0:	f9400800 	ldr	x0, [x0, #16]
     bb4:	eb0000ff 	cmp	x7, x0
     bb8:	54000269 	b.ls	c04 <check_range+0xa0>  // b.plast
/home/ssysarch/Desktop/nick/jetpack_5/Jetson_Linux_R35.4.1_aarch64/Linux_for_Tegra/sources/tegra/optee-src/nv-optee/optee/optee_os/ldelf/ta_elf.c:239
     bbc:	d0000024 	adrp	x4, 6000 <kprintf.constprop.0+0x4c8>
     bc0:	912f1484 	add	x4, x4, #0xbc5
     bc4:	52800023 	mov	w3, #0x1                   	// #1
     bc8:	52800022 	mov	w2, #0x1                   	// #1
     bcc:	52801de1 	mov	w1, #0xef                  	// #239
     bd0:	f0000020 	adrp	x0, 7000 <trace_ext_prefix+0x509>
     bd4:	910b4000 	add	x0, x0, #0x2d0
     bd8:	9400173d 	bl	68cc <trace_printf>
     bdc:	17fffff1 	b	ba0 <check_range+0x3c>
/home/ssysarch/Desktop/nick/jetpack_5/Jetson_Linux_R35.4.1_aarch64/Linux_for_Tegra/sources/tegra/optee-src/nv-optee/optee/optee_os/ldelf/ta_elf.c:236
     be0:	d0000024 	adrp	x4, 6000 <kprintf.constprop.0+0x4c8>
     be4:	912ecc84 	add	x4, x4, #0xbb3
     be8:	52800023 	mov	w3, #0x1                   	// #1
     bec:	52800022 	mov	w2, #0x1                   	// #1
     bf0:	52801d81 	mov	w1, #0xec                  	// #236
     bf4:	f0000020 	adrp	x0, 7000 <trace_ext_prefix+0x509>
     bf8:	910b4000 	add	x0, x0, #0x2d0
     bfc:	94001734 	bl	68cc <trace_printf>
     c00:	17ffffe8 	b	ba0 <check_range+0x3c>
/home/ssysarch/Desktop/nick/jetpack_5/Jetson_Linux_R35.4.1_aarch64/Linux_for_Tegra/sources/tegra/optee-src/nv-optee/optee/optee_os/ldelf/ta_elf.c:241
     c04:	a8c17bfd 	ldp	x29, x30, [sp], #16
     c08:	d65f03c0 	ret

0000000000000c0c <check_hashtab>:
check_hashtab():
/home/ssysarch/Desktop/nick/jetpack_5/Jetson_Linux_R35.4.1_aarch64/Linux_for_Tegra/sources/tegra/optee-src/nv-optee/optee/optee_os/ldelf/ta_elf.c:245
     c0c:	aa0103e5 	mov	x5, x1
/home/ssysarch/Desktop/nick/jetpack_5/Jetson_Linux_R35.4.1_aarch64/Linux_for_Tegra/sources/tegra/optee-src/nv-optee/optee/optee_os/ldelf/ta_elf.c:256
     c10:	f240043f 	tst	x1, #0x3
     c14:	540001a0 	b.eq	c48 <check_hashtab+0x3c>  // b.none
/home/ssysarch/Desktop/nick/jetpack_5/Jetson_Linux_R35.4.1_aarch64/Linux_for_Tegra/sources/tegra/optee-src/nv-optee/optee/optee_os/ldelf/ta_elf.c:245
     c18:	a9bf7bfd 	stp	x29, x30, [sp, #-16]!
/home/ssysarch/Desktop/nick/jetpack_5/Jetson_Linux_R35.4.1_aarch64/Linux_for_Tegra/sources/tegra/optee-src/nv-optee/optee/optee_os/ldelf/ta_elf.c:257
     c1c:	d0000024 	adrp	x4, 6000 <kprintf.constprop.0+0x4c8>
     c20:	912f7884 	add	x4, x4, #0xbde
     c24:	52800023 	mov	w3, #0x1                   	// #1
     c28:	52800022 	mov	w2, #0x1                   	// #1
     c2c:	52802021 	mov	w1, #0x101                 	// #257
/home/ssysarch/Desktop/nick/jetpack_5/Jetson_Linux_R35.4.1_aarch64/Linux_for_Tegra/sources/tegra/optee-src/nv-optee/optee/optee_os/ldelf/ta_elf.c:245
     c30:	910003fd 	mov	x29, sp
/home/ssysarch/Desktop/nick/jetpack_5/Jetson_Linux_R35.4.1_aarch64/Linux_for_Tegra/sources/tegra/optee-src/nv-optee/optee/optee_os/ldelf/ta_elf.c:257
     c34:	f0000020 	adrp	x0, 7000 <trace_ext_prefix+0x509>
     c38:	910b7000 	add	x0, x0, #0x2dc
     c3c:	94001724 	bl	68cc <trace_printf>
     c40:	129fff40 	mov	w0, #0xffff0005            	// #-65531
     c44:	97fffd49 	bl	168 <_ldelf_return>
/home/ssysarch/Desktop/nick/jetpack_5/Jetson_Linux_R35.4.1_aarch64/Linux_for_Tegra/sources/tegra/optee-src/nv-optee/optee/optee_os/ldelf/ta_elf.c:260
     c48:	91000863 	add	x3, x3, #0x2
     c4c:	8b020063 	add	x3, x3, x2
/home/ssysarch/Desktop/nick/jetpack_5/Jetson_Linux_R35.4.1_aarch64/Linux_for_Tegra/sources/tegra/optee-src/nv-optee/optee/optee_os/ldelf/ta_elf.c:264
     c50:	aa0103e2 	mov	x2, x1
     c54:	d0000021 	adrp	x1, 6000 <kprintf.constprop.0+0x4c8>
     c58:	912fe821 	add	x1, x1, #0xbfa
     c5c:	d37ef463 	lsl	x3, x3, #2
     c60:	17ffffc1 	b	b64 <check_range>

0000000000000c64 <add_segment.isra.0>:
add_segment():
/home/ssysarch/Desktop/nick/jetpack_5/Jetson_Linux_R35.4.1_aarch64/Linux_for_Tegra/sources/tegra/optee-src/nv-optee/optee/optee_os/ldelf/ta_elf.c:533
     c64:	a9bb7bfd 	stp	x29, x30, [sp, #-80]!
     c68:	910003fd 	mov	x29, sp
     c6c:	a90153f3 	stp	x19, x20, [sp, #16]
     c70:	aa0003f3 	mov	x19, x0
     c74:	aa0403f4 	mov	x20, x4
/home/ssysarch/Desktop/nick/jetpack_5/Jetson_Linux_R35.4.1_aarch64/Linux_for_Tegra/sources/tegra/optee-src/nv-optee/optee/optee_os/ldelf/ta_elf.c:536
     c78:	d2800020 	mov	x0, #0x1                   	// #1
/home/ssysarch/Desktop/nick/jetpack_5/Jetson_Linux_R35.4.1_aarch64/Linux_for_Tegra/sources/tegra/optee-src/nv-optee/optee/optee_os/ldelf/ta_elf.c:533
     c7c:	a9025bf5 	stp	x21, x22, [sp, #32]
     c80:	aa0303f5 	mov	x21, x3
     c84:	aa0603f6 	mov	x22, x6
     c88:	a90363f7 	stp	x23, x24, [sp, #48]
     c8c:	aa0203f8 	mov	x24, x2
     c90:	aa0503f7 	mov	x23, x5
     c94:	f90023f9 	str	x25, [sp, #64]
     c98:	aa0103f9 	mov	x25, x1
/home/ssysarch/Desktop/nick/jetpack_5/Jetson_Linux_R35.4.1_aarch64/Linux_for_Tegra/sources/tegra/optee-src/nv-optee/optee/optee_os/ldelf/ta_elf.c:536
     c9c:	d2800901 	mov	x1, #0x48                  	// #72
     ca0:	940012ad 	bl	5754 <calloc>
/home/ssysarch/Desktop/nick/jetpack_5/Jetson_Linux_R35.4.1_aarch64/Linux_for_Tegra/sources/tegra/optee-src/nv-optee/optee/optee_os/ldelf/ta_elf.c:538
     ca4:	b5000160 	cbnz	x0, cd0 <add_segment.isra.0+0x6c>
/home/ssysarch/Desktop/nick/jetpack_5/Jetson_Linux_R35.4.1_aarch64/Linux_for_Tegra/sources/tegra/optee-src/nv-optee/optee/optee_os/ldelf/ta_elf.c:539
     ca8:	d0000024 	adrp	x4, 6000 <kprintf.constprop.0+0x4c8>
     cac:	91300884 	add	x4, x4, #0xc02
     cb0:	52800023 	mov	w3, #0x1                   	// #1
     cb4:	52800022 	mov	w2, #0x1                   	// #1
     cb8:	52804361 	mov	w1, #0x21b                 	// #539
     cbc:	f0000020 	adrp	x0, 7000 <trace_ext_prefix+0x509>
     cc0:	910cf800 	add	x0, x0, #0x33e
     cc4:	94001702 	bl	68cc <trace_printf>
     cc8:	129ffe60 	mov	w0, #0xffff000c            	// #-65524
/home/ssysarch/Desktop/nick/jetpack_5/Jetson_Linux_R35.4.1_aarch64/Linux_for_Tegra/sources/tegra/optee-src/nv-optee/optee/optee_os/ldelf/ta_elf.c:542
     ccc:	97fffd27 	bl	168 <_ldelf_return>
/home/ssysarch/Desktop/nick/jetpack_5/Jetson_Linux_R35.4.1_aarch64/Linux_for_Tegra/sources/tegra/optee-src/nv-optee/optee/optee_os/ldelf/ta_elf.c:541
     cd0:	eb15029f 	cmp	x20, x21
     cd4:	54000162 	b.cs	d00 <add_segment.isra.0+0x9c>  // b.hs, b.nlast
/home/ssysarch/Desktop/nick/jetpack_5/Jetson_Linux_R35.4.1_aarch64/Linux_for_Tegra/sources/tegra/optee-src/nv-optee/optee/optee_os/ldelf/ta_elf.c:542
     cd8:	d0000024 	adrp	x4, 6000 <kprintf.constprop.0+0x4c8>
     cdc:	91302484 	add	x4, x4, #0xc09
     ce0:	52800023 	mov	w3, #0x1                   	// #1
     ce4:	52800022 	mov	w2, #0x1                   	// #1
     ce8:	528043c1 	mov	w1, #0x21e                 	// #542
     cec:	f0000020 	adrp	x0, 7000 <trace_ext_prefix+0x509>
     cf0:	910cf800 	add	x0, x0, #0x33e
     cf4:	940016f6 	bl	68cc <trace_printf>
     cf8:	129fff40 	mov	w0, #0xffff0005            	// #-65531
     cfc:	17fffff4 	b	ccc <add_segment.isra.0+0x68>
/home/ssysarch/Desktop/nick/jetpack_5/Jetson_Linux_R35.4.1_aarch64/Linux_for_Tegra/sources/tegra/optee-src/nv-optee/optee/optee_os/ldelf/ta_elf.c:551
     d00:	f9400261 	ldr	x1, [x19]
/home/ssysarch/Desktop/nick/jetpack_5/Jetson_Linux_R35.4.1_aarch64/Linux_for_Tegra/sources/tegra/optee-src/nv-optee/optee/optee_os/ldelf/ta_elf.c:545
     d04:	a9006019 	stp	x25, x24, [x0]
/home/ssysarch/Desktop/nick/jetpack_5/Jetson_Linux_R35.4.1_aarch64/Linux_for_Tegra/sources/tegra/optee-src/nv-optee/optee/optee_os/ldelf/ta_elf.c:547
     d08:	a9015015 	stp	x21, x20, [x0, #16]
/home/ssysarch/Desktop/nick/jetpack_5/Jetson_Linux_R35.4.1_aarch64/Linux_for_Tegra/sources/tegra/optee-src/nv-optee/optee/optee_os/ldelf/ta_elf.c:549
     d0c:	a9025817 	stp	x23, x22, [x0, #32]
/home/ssysarch/Desktop/nick/jetpack_5/Jetson_Linux_R35.4.1_aarch64/Linux_for_Tegra/sources/tegra/optee-src/nv-optee/optee/optee_os/ldelf/ta_elf.c:551
     d10:	a903841f 	stp	xzr, x1, [x0, #56]
/home/ssysarch/Desktop/nick/jetpack_5/Jetson_Linux_R35.4.1_aarch64/Linux_for_Tegra/sources/tegra/optee-src/nv-optee/optee/optee_os/ldelf/ta_elf.c:552
     d14:	a9425bf5 	ldp	x21, x22, [sp, #32]
     d18:	a94363f7 	ldp	x23, x24, [sp, #48]
     d1c:	f94023f9 	ldr	x25, [sp, #64]
/home/ssysarch/Desktop/nick/jetpack_5/Jetson_Linux_R35.4.1_aarch64/Linux_for_Tegra/sources/tegra/optee-src/nv-optee/optee/optee_os/ldelf/ta_elf.c:551
     d20:	f9000020 	str	x0, [x1]
     d24:	9100e001 	add	x1, x0, #0x38
     d28:	f9000261 	str	x1, [x19]
/home/ssysarch/Desktop/nick/jetpack_5/Jetson_Linux_R35.4.1_aarch64/Linux_for_Tegra/sources/tegra/optee-src/nv-optee/optee/optee_os/ldelf/ta_elf.c:552
     d2c:	a94153f3 	ldp	x19, x20, [sp, #16]
     d30:	a8c57bfd 	ldp	x29, x30, [sp], #80
     d34:	d65f03c0 	ret

0000000000000d38 <close_handle.isra.0>:
close_handle():
/home/ssysarch/Desktop/nick/jetpack_5/Jetson_Linux_R35.4.1_aarch64/Linux_for_Tegra/sources/tegra/optee-src/nv-optee/optee/optee_os/ldelf/ta_elf.c:1128
     d38:	a9be7bfd 	stp	x29, x30, [sp, #-32]!
     d3c:	910003fd 	mov	x29, sp
     d40:	a90153f3 	stp	x19, x20, [sp, #16]
     d44:	aa0003f3 	mov	x19, x0
/home/ssysarch/Desktop/nick/jetpack_5/Jetson_Linux_R35.4.1_aarch64/Linux_for_Tegra/sources/tegra/optee-src/nv-optee/optee/optee_os/ldelf/ta_elf.c:1130
     d48:	b9400000 	ldr	w0, [x0]
     d4c:	97fffe50 	bl	68c <sys_close_ta_bin>
/home/ssysarch/Desktop/nick/jetpack_5/Jetson_Linux_R35.4.1_aarch64/Linux_for_Tegra/sources/tegra/optee-src/nv-optee/optee/optee_os/ldelf/ta_elf.c:1132
     d50:	34000180 	cbz	w0, d80 <close_handle.isra.0+0x48>
/home/ssysarch/Desktop/nick/jetpack_5/Jetson_Linux_R35.4.1_aarch64/Linux_for_Tegra/sources/tegra/optee-src/nv-optee/optee/optee_os/ldelf/ta_elf.c:1133
     d54:	d0000024 	adrp	x4, 6000 <kprintf.constprop.0+0x4c8>
     d58:	91308c84 	add	x4, x4, #0xc23
     d5c:	52800023 	mov	w3, #0x1                   	// #1
     d60:	52800022 	mov	w2, #0x1                   	// #1
     d64:	52808da1 	mov	w1, #0x46d                 	// #1133
     d68:	2a0003f4 	mov	w20, w0
     d6c:	f0000020 	adrp	x0, 7000 <trace_ext_prefix+0x509>
     d70:	910fac00 	add	x0, x0, #0x3eb
     d74:	940016d6 	bl	68cc <trace_printf>
     d78:	2a1403e0 	mov	w0, w20
     d7c:	97fffcfb 	bl	168 <_ldelf_return>
/home/ssysarch/Desktop/nick/jetpack_5/Jetson_Linux_R35.4.1_aarch64/Linux_for_Tegra/sources/tegra/optee-src/nv-optee/optee/optee_os/ldelf/ta_elf.c:1134
     d80:	12800000 	mov	w0, #0xffffffff            	// #-1
     d84:	b9000260 	str	w0, [x19]
/home/ssysarch/Desktop/nick/jetpack_5/Jetson_Linux_R35.4.1_aarch64/Linux_for_Tegra/sources/tegra/optee-src/nv-optee/optee/optee_os/ldelf/ta_elf.c:1135
     d88:	a94153f3 	ldp	x19, x20, [sp, #16]
     d8c:	a8c27bfd 	ldp	x29, x30, [sp], #32
     d90:	d65f03c0 	ret

0000000000000d94 <check_phdr_in_range.constprop.0>:
check_phdr_in_range():
/home/ssysarch/Desktop/nick/jetpack_5/Jetson_Linux_R35.4.1_aarch64/Linux_for_Tegra/sources/tegra/optee-src/nv-optee/optee/optee_os/ldelf/ta_elf.c:193
     d94:	a9bf7bfd 	stp	x29, x30, [sp, #-16]!
/home/ssysarch/Desktop/nick/jetpack_5/Jetson_Linux_R35.4.1_aarch64/Linux_for_Tegra/sources/tegra/optee-src/nv-optee/optee/optee_os/ldelf/ta_elf.c:198
     d98:	ab020021 	adds	x1, x1, x2
/home/ssysarch/Desktop/nick/jetpack_5/Jetson_Linux_R35.4.1_aarch64/Linux_for_Tegra/sources/tegra/optee-src/nv-optee/optee/optee_os/ldelf/ta_elf.c:193
     d9c:	910003fd 	mov	x29, sp
/home/ssysarch/Desktop/nick/jetpack_5/Jetson_Linux_R35.4.1_aarch64/Linux_for_Tegra/sources/tegra/optee-src/nv-optee/optee/optee_os/ldelf/ta_elf.c:198
     da0:	540001a2 	b.cs	dd4 <check_phdr_in_range.constprop.0+0x40>  // b.hs, b.nlast
/home/ssysarch/Desktop/nick/jetpack_5/Jetson_Linux_R35.4.1_aarch64/Linux_for_Tegra/sources/tegra/optee-src/nv-optee/optee/optee_os/ldelf/ta_elf.c:206
     da4:	f9400802 	ldr	x2, [x0, #16]
     da8:	f9400400 	ldr	x0, [x0, #8]
     dac:	cb000040 	sub	x0, x2, x0
     db0:	eb00003f 	cmp	x1, x0
     db4:	54000269 	b.ls	e00 <check_phdr_in_range.constprop.0+0x6c>  // b.plast
/home/ssysarch/Desktop/nick/jetpack_5/Jetson_Linux_R35.4.1_aarch64/Linux_for_Tegra/sources/tegra/optee-src/nv-optee/optee/optee_os/ldelf/ta_elf.c:207
     db8:	d0000024 	adrp	x4, 6000 <kprintf.constprop.0+0x4c8>
     dbc:	91314084 	add	x4, x4, #0xc50
     dc0:	52800045 	mov	w5, #0x2                   	// #2
     dc4:	52800023 	mov	w3, #0x1                   	// #1
     dc8:	52800022 	mov	w2, #0x1                   	// #1
     dcc:	528019e1 	mov	w1, #0xcf                  	// #207
     dd0:	14000007 	b	dec <check_phdr_in_range.constprop.0+0x58>
/home/ssysarch/Desktop/nick/jetpack_5/Jetson_Linux_R35.4.1_aarch64/Linux_for_Tegra/sources/tegra/optee-src/nv-optee/optee/optee_os/ldelf/ta_elf.c:199
     dd4:	d0000024 	adrp	x4, 6000 <kprintf.constprop.0+0x4c8>
     dd8:	9130d084 	add	x4, x4, #0xc34
     ddc:	52800045 	mov	w5, #0x2                   	// #2
     de0:	52800023 	mov	w3, #0x1                   	// #1
     de4:	52800022 	mov	w2, #0x1                   	// #1
     de8:	528018e1 	mov	w1, #0xc7                  	// #199
/home/ssysarch/Desktop/nick/jetpack_5/Jetson_Linux_R35.4.1_aarch64/Linux_for_Tegra/sources/tegra/optee-src/nv-optee/optee/optee_os/ldelf/ta_elf.c:207
     dec:	f0000020 	adrp	x0, 7000 <trace_ext_prefix+0x509>
     df0:	910af000 	add	x0, x0, #0x2bc
     df4:	940016b6 	bl	68cc <trace_printf>
     df8:	129fff40 	mov	w0, #0xffff0005            	// #-65531
     dfc:	97fffcdb 	bl	168 <_ldelf_return>
/home/ssysarch/Desktop/nick/jetpack_5/Jetson_Linux_R35.4.1_aarch64/Linux_for_Tegra/sources/tegra/optee-src/nv-optee/optee/optee_os/ldelf/ta_elf.c:209
     e00:	a8c17bfd 	ldp	x29, x30, [sp], #16
     e04:	d65f03c0 	ret

0000000000000e08 <_assert_trap.constprop.0>:
_assert_trap():
/home/ssysarch/Desktop/nick/jetpack_5/Jetson_Linux_R35.4.1_aarch64/Linux_for_Tegra/sources/tegra/optee-src/nv-optee/optee/optee_os/lib/libutils/isoc/include/assert.h:19
     e08:	aa0203e3 	mov	x3, x2
     e0c:	2a0103e2 	mov	w2, w1
     e10:	d0000021 	adrp	x1, 6000 <kprintf.constprop.0+0x4c8>
     e14:	9131c421 	add	x1, x1, #0xc71
/home/ssysarch/Desktop/nick/jetpack_5/Jetson_Linux_R35.4.1_aarch64/Linux_for_Tegra/sources/tegra/optee-src/nv-optee/optee/optee_os/lib/libutils/isoc/include/assert.h:15
     e18:	a9bf7bfd 	stp	x29, x30, [sp, #-16]!
     e1c:	910003fd 	mov	x29, sp
/home/ssysarch/Desktop/nick/jetpack_5/Jetson_Linux_R35.4.1_aarch64/Linux_for_Tegra/sources/tegra/optee-src/nv-optee/optee/optee_os/lib/libutils/isoc/include/assert.h:19
     e20:	94000f7d 	bl	4c14 <_assert_log>
/home/ssysarch/Desktop/nick/jetpack_5/Jetson_Linux_R35.4.1_aarch64/Linux_for_Tegra/sources/tegra/optee-src/nv-optee/optee/optee_os/lib/libutils/isoc/include/assert.h:20
     e24:	94000f8d 	bl	4c58 <_assert_break>

0000000000000e28 <get_init_fini_array.constprop.0>:
get_init_fini_array():
/home/ssysarch/Desktop/nick/jetpack_5/Jetson_Linux_R35.4.1_aarch64/Linux_for_Tegra/sources/tegra/optee-src/nv-optee/optee/optee_os/ldelf/ta_elf.c:1617
     e28:	a9ba7bfd 	stp	x29, x30, [sp, #-96]!
     e2c:	910003fd 	mov	x29, sp
     e30:	a90153f3 	stp	x19, x20, [sp, #16]
     e34:	aa0003f3 	mov	x19, x0
     e38:	aa0103f4 	mov	x20, x1
     e3c:	a9025bf5 	stp	x21, x22, [sp, #32]
     e40:	aa0303f5 	mov	x21, x3
     e44:	aa0403f6 	mov	x22, x4
     e48:	a90363f7 	stp	x23, x24, [sp, #48]
     e4c:	aa0603f8 	mov	x24, x6
     e50:	aa0503f7 	mov	x23, x5
     e54:	f90023f9 	str	x25, [sp, #64]
     e58:	aa0203f9 	mov	x25, x2
/home/ssysarch/Desktop/nick/jetpack_5/Jetson_Linux_R35.4.1_aarch64/Linux_for_Tegra/sources/tegra/optee-src/nv-optee/optee/optee_os/ldelf/ta_elf.c:1626
     e5c:	b90057ff 	str	wzr, [sp, #84]
/home/ssysarch/Desktop/nick/jetpack_5/Jetson_Linux_R35.4.1_aarch64/Linux_for_Tegra/sources/tegra/optee-src/nv-optee/optee/optee_os/ldelf/ta_elf.c:1627
     e60:	f9002fff 	str	xzr, [sp, #88]
/home/ssysarch/Desktop/nick/jetpack_5/Jetson_Linux_R35.4.1_aarch64/Linux_for_Tegra/sources/tegra/optee-src/nv-optee/optee/optee_os/ldelf/ta_elf.c:1631
     e64:	97ffffcc 	bl	d94 <check_phdr_in_range.constprop.0>
/home/ssysarch/Desktop/nick/jetpack_5/Jetson_Linux_R35.4.1_aarch64/Linux_for_Tegra/sources/tegra/optee-src/nv-optee/optee/optee_os/ldelf/ta_elf.c:1633
     e68:	39400661 	ldrb	w1, [x19, #1]
/home/ssysarch/Desktop/nick/jetpack_5/Jetson_Linux_R35.4.1_aarch64/Linux_for_Tegra/sources/tegra/optee-src/nv-optee/optee/optee_os/ldelf/ta_elf.c:1637
     e6c:	d2800100 	mov	x0, #0x8                   	// #8
     e70:	d2800207 	mov	x7, #0x10                  	// #16
     e74:	d2800088 	mov	x8, #0x4                   	// #4
     e78:	7100003f 	cmp	w1, #0x0
     e7c:	9a871007 	csel	x7, x0, x7, ne  // ne = any
     e80:	9a801108 	csel	x8, x8, x0, ne  // ne = any
/home/ssysarch/Desktop/nick/jetpack_5/Jetson_Linux_R35.4.1_aarch64/Linux_for_Tegra/sources/tegra/optee-src/nv-optee/optee/optee_os/ldelf/ta_elf.c:1641
     e84:	9ac70b26 	udiv	x6, x25, x7
     e88:	9b07e4c7 	msub	x7, x6, x7, x25
     e8c:	b5000167 	cbnz	x7, eb8 <get_init_fini_array.constprop.0+0x90>
/home/ssysarch/Desktop/nick/jetpack_5/Jetson_Linux_R35.4.1_aarch64/Linux_for_Tegra/sources/tegra/optee-src/nv-optee/optee/optee_os/ldelf/ta_elf.c:1645
     e90:	910163e4 	add	x4, sp, #0x58
     e94:	910153e3 	add	x3, sp, #0x54
/home/ssysarch/Desktop/nick/jetpack_5/Jetson_Linux_R35.4.1_aarch64/Linux_for_Tegra/sources/tegra/optee-src/nv-optee/optee/optee_os/ldelf/ta_elf.c:1644
     e98:	eb0700df 	cmp	x6, x7
     e9c:	540001a1 	b.ne	ed0 <get_init_fini_array.constprop.0+0xa8>  // b.any
/home/ssysarch/Desktop/nick/jetpack_5/Jetson_Linux_R35.4.1_aarch64/Linux_for_Tegra/sources/tegra/optee-src/nv-optee/optee/optee_os/ldelf/ta_elf.c:1655
     ea0:	a94153f3 	ldp	x19, x20, [sp, #16]
     ea4:	a9425bf5 	ldp	x21, x22, [sp, #32]
     ea8:	a94363f7 	ldp	x23, x24, [sp, #48]
     eac:	f94023f9 	ldr	x25, [sp, #64]
     eb0:	a8c67bfd 	ldp	x29, x30, [sp], #96
     eb4:	d65f03c0 	ret
/home/ssysarch/Desktop/nick/jetpack_5/Jetson_Linux_R35.4.1_aarch64/Linux_for_Tegra/sources/tegra/optee-src/nv-optee/optee/optee_os/ldelf/ta_elf.c:1641
     eb8:	f0000022 	adrp	x2, 7000 <trace_ext_prefix+0x509>
     ebc:	9112b042 	add	x2, x2, #0x4ac
     ec0:	d0000020 	adrp	x0, 6000 <kprintf.constprop.0+0x4c8>
     ec4:	91320000 	add	x0, x0, #0xc80
     ec8:	5280cd21 	mov	w1, #0x669                 	// #1641
     ecc:	97ffffcf 	bl	e08 <_assert_trap.constprop.0>
/home/ssysarch/Desktop/nick/jetpack_5/Jetson_Linux_R35.4.1_aarch64/Linux_for_Tegra/sources/tegra/optee-src/nv-optee/optee/optee_os/ldelf/ta_elf.c:1645
     ed0:	aa1303e0 	mov	x0, x19
     ed4:	aa0703e2 	mov	x2, x7
     ed8:	aa1403e1 	mov	x1, x20
     edc:	97ffff11 	bl	b20 <read_dyn>
/home/ssysarch/Desktop/nick/jetpack_5/Jetson_Linux_R35.4.1_aarch64/Linux_for_Tegra/sources/tegra/optee-src/nv-optee/optee/optee_os/ldelf/ta_elf.c:1646
     ee0:	b94057e0 	ldr	w0, [sp, #84]
     ee4:	7100641f 	cmp	w0, #0x19
     ee8:	540000e1 	b.ne	f04 <get_init_fini_array.constprop.0+0xdc>  // b.any
/home/ssysarch/Desktop/nick/jetpack_5/Jetson_Linux_R35.4.1_aarch64/Linux_for_Tegra/sources/tegra/optee-src/nv-optee/optee/optee_os/ldelf/ta_elf.c:1647
     eec:	f9400660 	ldr	x0, [x19, #8]
     ef0:	f9402fe1 	ldr	x1, [sp, #88]
     ef4:	8b010000 	add	x0, x0, x1
     ef8:	f90002a0 	str	x0, [x21]
/home/ssysarch/Desktop/nick/jetpack_5/Jetson_Linux_R35.4.1_aarch64/Linux_for_Tegra/sources/tegra/optee-src/nv-optee/optee/optee_os/ldelf/ta_elf.c:1644
     efc:	910004e7 	add	x7, x7, #0x1
     f00:	17ffffe6 	b	e98 <get_init_fini_array.constprop.0+0x70>
/home/ssysarch/Desktop/nick/jetpack_5/Jetson_Linux_R35.4.1_aarch64/Linux_for_Tegra/sources/tegra/optee-src/nv-optee/optee/optee_os/ldelf/ta_elf.c:1648
     f04:	7100681f 	cmp	w0, #0x1a
     f08:	540000c1 	b.ne	f20 <get_init_fini_array.constprop.0+0xf8>  // b.any
/home/ssysarch/Desktop/nick/jetpack_5/Jetson_Linux_R35.4.1_aarch64/Linux_for_Tegra/sources/tegra/optee-src/nv-optee/optee/optee_os/ldelf/ta_elf.c:1649
     f0c:	f9400660 	ldr	x0, [x19, #8]
     f10:	f9402fe1 	ldr	x1, [sp, #88]
     f14:	8b010000 	add	x0, x0, x1
     f18:	f90002e0 	str	x0, [x23]
     f1c:	17fffff8 	b	efc <get_init_fini_array.constprop.0+0xd4>
/home/ssysarch/Desktop/nick/jetpack_5/Jetson_Linux_R35.4.1_aarch64/Linux_for_Tegra/sources/tegra/optee-src/nv-optee/optee/optee_os/ldelf/ta_elf.c:1650
     f20:	71006c1f 	cmp	w0, #0x1b
     f24:	540000a1 	b.ne	f38 <get_init_fini_array.constprop.0+0x110>  // b.any
/home/ssysarch/Desktop/nick/jetpack_5/Jetson_Linux_R35.4.1_aarch64/Linux_for_Tegra/sources/tegra/optee-src/nv-optee/optee/optee_os/ldelf/ta_elf.c:1651
     f28:	f9402fe0 	ldr	x0, [sp, #88]
     f2c:	9ac80800 	udiv	x0, x0, x8
     f30:	f90002c0 	str	x0, [x22]
     f34:	17fffff2 	b	efc <get_init_fini_array.constprop.0+0xd4>
/home/ssysarch/Desktop/nick/jetpack_5/Jetson_Linux_R35.4.1_aarch64/Linux_for_Tegra/sources/tegra/optee-src/nv-optee/optee/optee_os/ldelf/ta_elf.c:1652
     f38:	7100701f 	cmp	w0, #0x1c
     f3c:	54fffe01 	b.ne	efc <get_init_fini_array.constprop.0+0xd4>  // b.any
/home/ssysarch/Desktop/nick/jetpack_5/Jetson_Linux_R35.4.1_aarch64/Linux_for_Tegra/sources/tegra/optee-src/nv-optee/optee/optee_os/ldelf/ta_elf.c:1653
     f40:	f9402fe0 	ldr	x0, [sp, #88]
     f44:	9ac80800 	udiv	x0, x0, x8
     f48:	f9000300 	str	x0, [x24]
     f4c:	17ffffec 	b	efc <get_init_fini_array.constprop.0+0xd4>

0000000000000f50 <elf_get_init_fini_array>:
elf_get_init_fini_array():
/home/ssysarch/Desktop/nick/jetpack_5/Jetson_Linux_R35.4.1_aarch64/Linux_for_Tegra/sources/tegra/optee-src/nv-optee/optee/optee_os/ldelf/ta_elf.c:1661
     f50:	aa0303e5 	mov	x5, x3
/home/ssysarch/Desktop/nick/jetpack_5/Jetson_Linux_R35.4.1_aarch64/Linux_for_Tegra/sources/tegra/optee-src/nv-optee/optee/optee_os/ldelf/ta_elf.c:1664
     f54:	39400403 	ldrb	w3, [x0, #1]
/home/ssysarch/Desktop/nick/jetpack_5/Jetson_Linux_R35.4.1_aarch64/Linux_for_Tegra/sources/tegra/optee-src/nv-optee/optee/optee_os/ldelf/ta_elf.c:1661
     f58:	aa0403e6 	mov	x6, x4
     f5c:	b9404004 	ldr	w4, [x0, #64]
     f60:	f9402807 	ldr	x7, [x0, #80]
/home/ssysarch/Desktop/nick/jetpack_5/Jetson_Linux_R35.4.1_aarch64/Linux_for_Tegra/sources/tegra/optee-src/nv-optee/optee/optee_os/ldelf/ta_elf.c:1664
     f64:	350001a3 	cbnz	w3, f98 <elf_get_init_fini_array+0x48>
/home/ssysarch/Desktop/nick/jetpack_5/Jetson_Linux_R35.4.1_aarch64/Linux_for_Tegra/sources/tegra/optee-src/nv-optee/optee/optee_os/ldelf/ta_elf.c:1680
     f68:	d2800003 	mov	x3, #0x0                   	// #0
/home/ssysarch/Desktop/nick/jetpack_5/Jetson_Linux_R35.4.1_aarch64/Linux_for_Tegra/sources/tegra/optee-src/nv-optee/optee/optee_os/ldelf/ta_elf.c:1680 (discriminator 1)
     f6c:	eb03009f 	cmp	x4, x3
     f70:	540001a9 	b.ls	fa4 <elf_get_init_fini_array+0x54>  // b.plast
/home/ssysarch/Desktop/nick/jetpack_5/Jetson_Linux_R35.4.1_aarch64/Linux_for_Tegra/sources/tegra/optee-src/nv-optee/optee/optee_os/ldelf/ta_elf.c:1681
     f74:	aa0703e8 	mov	x8, x7
     f78:	b84384e9 	ldr	w9, [x7], #56
     f7c:	7100093f 	cmp	w9, #0x2
     f80:	540002a1 	b.ne	fd4 <elf_get_init_fini_array+0x84>  // b.any
/home/ssysarch/Desktop/nick/jetpack_5/Jetson_Linux_R35.4.1_aarch64/Linux_for_Tegra/sources/tegra/optee-src/nv-optee/optee/optee_os/ldelf/ta_elf.c:1682
     f84:	aa0203e4 	mov	x4, x2
     f88:	aa0103e3 	mov	x3, x1
     f8c:	f9400901 	ldr	x1, [x8, #16]
     f90:	f9401502 	ldr	x2, [x8, #40]
     f94:	1400000d 	b	fc8 <elf_get_init_fini_array+0x78>
/home/ssysarch/Desktop/nick/jetpack_5/Jetson_Linux_R35.4.1_aarch64/Linux_for_Tegra/sources/tegra/optee-src/nv-optee/optee/optee_os/ldelf/ta_elf.c:1667
     f98:	d2800003 	mov	x3, #0x0                   	// #0
     f9c:	eb03009f 	cmp	x4, x3
     fa0:	54000048 	b.hi	fa8 <elf_get_init_fini_array+0x58>  // b.pmore
/home/ssysarch/Desktop/nick/jetpack_5/Jetson_Linux_R35.4.1_aarch64/Linux_for_Tegra/sources/tegra/optee-src/nv-optee/optee/optee_os/ldelf/ta_elf.c:1691
     fa4:	d65f03c0 	ret
/home/ssysarch/Desktop/nick/jetpack_5/Jetson_Linux_R35.4.1_aarch64/Linux_for_Tegra/sources/tegra/optee-src/nv-optee/optee/optee_os/ldelf/ta_elf.c:1668
     fa8:	aa0703e8 	mov	x8, x7
     fac:	b84204e9 	ldr	w9, [x7], #32
     fb0:	7100093f 	cmp	w9, #0x2
     fb4:	540000c1 	b.ne	fcc <elf_get_init_fini_array+0x7c>  // b.any
/home/ssysarch/Desktop/nick/jetpack_5/Jetson_Linux_R35.4.1_aarch64/Linux_for_Tegra/sources/tegra/optee-src/nv-optee/optee/optee_os/ldelf/ta_elf.c:1669
     fb8:	aa0203e4 	mov	x4, x2
     fbc:	aa0103e3 	mov	x3, x1
     fc0:	b9401502 	ldr	w2, [x8, #20]
     fc4:	b9400901 	ldr	w1, [x8, #8]
/home/ssysarch/Desktop/nick/jetpack_5/Jetson_Linux_R35.4.1_aarch64/Linux_for_Tegra/sources/tegra/optee-src/nv-optee/optee/optee_os/ldelf/ta_elf.c:1682
     fc8:	17ffff98 	b	e28 <get_init_fini_array.constprop.0>
/home/ssysarch/Desktop/nick/jetpack_5/Jetson_Linux_R35.4.1_aarch64/Linux_for_Tegra/sources/tegra/optee-src/nv-optee/optee/optee_os/ldelf/ta_elf.c:1667
     fcc:	91000463 	add	x3, x3, #0x1
     fd0:	17fffff3 	b	f9c <elf_get_init_fini_array+0x4c>
/home/ssysarch/Desktop/nick/jetpack_5/Jetson_Linux_R35.4.1_aarch64/Linux_for_Tegra/sources/tegra/optee-src/nv-optee/optee/optee_os/ldelf/ta_elf.c:1680 (discriminator 2)
     fd4:	91000463 	add	x3, x3, #0x1
     fd8:	17ffffe5 	b	f6c <elf_get_init_fini_array+0x1c>

0000000000000fdc <print_seg>:
print_seg():
/home/ssysarch/Desktop/nick/jetpack_5/Jetson_Linux_R35.4.1_aarch64/Linux_for_Tegra/sources/tegra/optee-src/nv-optee/optee/optee_os/ldelf/ta_elf.c:1360
     fdc:	d10243ff 	sub	sp, sp, #0x90
     fe0:	a9027bfd 	stp	x29, x30, [sp, #32]
     fe4:	910083fd 	add	x29, sp, #0x20
     fe8:	a90353f3 	stp	x19, x20, [sp, #48]
     fec:	2a0703f3 	mov	w19, w7
     ff0:	910203f4 	add	x20, sp, #0x80
     ff4:	a9045bf5 	stp	x21, x22, [sp, #64]
     ff8:	aa0003f6 	mov	x22, x0
/home/ssysarch/Desktop/nick/jetpack_5/Jetson_Linux_R35.4.1_aarch64/Linux_for_Tegra/sources/tegra/optee-src/nv-optee/optee/optee_os/ldelf/ta_elf.c:1364
     ffc:	5285a5a0 	mov	w0, #0x2d2d                	// #11565
    1000:	72a5a5a0 	movk	w0, #0x2d2d, lsl #16
/home/ssysarch/Desktop/nick/jetpack_5/Jetson_Linux_R35.4.1_aarch64/Linux_for_Tegra/sources/tegra/optee-src/nv-optee/optee/optee_os/ldelf/ta_elf.c:1360
    1004:	a90563f7 	stp	x23, x24, [sp, #80]
    1008:	aa0403f5 	mov	x21, x4
    100c:	a9066bf9 	stp	x25, x26, [sp, #96]
    1010:	aa0103f7 	mov	x23, x1
    1014:	aa0203f8 	mov	x24, x2
/home/ssysarch/Desktop/nick/jetpack_5/Jetson_Linux_R35.4.1_aarch64/Linux_for_Tegra/sources/tegra/optee-src/nv-optee/optee/optee_os/ldelf/ta_elf.c:1364
    1018:	b9007be0 	str	w0, [sp, #120]
/home/ssysarch/Desktop/nick/jetpack_5/Jetson_Linux_R35.4.1_aarch64/Linux_for_Tegra/sources/tegra/optee-src/nv-optee/optee/optee_os/ldelf/ta_elf.c:1360
    101c:	aa0503f9 	mov	x25, x5
/home/ssysarch/Desktop/nick/jetpack_5/Jetson_Linux_R35.4.1_aarch64/Linux_for_Tegra/sources/tegra/optee-src/nv-optee/optee/optee_os/ldelf/ta_elf.c:1364
    1020:	3901f3ff 	strb	wzr, [sp, #124]
/home/ssysarch/Desktop/nick/jetpack_5/Jetson_Linux_R35.4.1_aarch64/Linux_for_Tegra/sources/tegra/optee-src/nv-optee/optee/optee_os/ldelf/ta_elf.c:1360
    1024:	aa0603fa 	mov	x26, x6
/home/ssysarch/Desktop/nick/jetpack_5/Jetson_Linux_R35.4.1_aarch64/Linux_for_Tegra/sources/tegra/optee-src/nv-optee/optee/optee_os/ldelf/ta_elf.c:1363
    1028:	f90043ff 	str	xzr, [sp, #128]
    102c:	b9008bff 	str	wzr, [sp, #136]
    1030:	79011bff 	strh	wzr, [sp, #140]
/home/ssysarch/Desktop/nick/jetpack_5/Jetson_Linux_R35.4.1_aarch64/Linux_for_Tegra/sources/tegra/optee-src/nv-optee/optee/optee_os/ldelf/ta_elf.c:1366
    1034:	37f804c3 	tbnz	w3, #31, 10cc <print_seg+0xf0>
/home/ssysarch/Desktop/nick/jetpack_5/Jetson_Linux_R35.4.1_aarch64/Linux_for_Tegra/sources/tegra/optee-src/nv-optee/optee/optee_os/ldelf/ta_elf.c:1367
    1038:	b0000022 	adrp	x2, 6000 <kprintf.constprop.0+0x4c8>
    103c:	91325c42 	add	x2, x2, #0xc97
    1040:	aa1403e0 	mov	x0, x20
    1044:	d28001c1 	mov	x1, #0xe                   	// #14
    1048:	94001228 	bl	58e8 <snprintf>
/home/ssysarch/Desktop/nick/jetpack_5/Jetson_Linux_R35.4.1_aarch64/Linux_for_Tegra/sources/tegra/optee-src/nv-optee/optee/optee_os/ldelf/ta_elf.c:1384
    104c:	36000073 	tbz	w19, #0, 1058 <print_seg+0x7c>
/home/ssysarch/Desktop/nick/jetpack_5/Jetson_Linux_R35.4.1_aarch64/Linux_for_Tegra/sources/tegra/optee-src/nv-optee/optee/optee_os/ldelf/ta_elf.c:1385
    1050:	52800e40 	mov	w0, #0x72                  	// #114
    1054:	3901e3e0 	strb	w0, [sp, #120]
/home/ssysarch/Desktop/nick/jetpack_5/Jetson_Linux_R35.4.1_aarch64/Linux_for_Tegra/sources/tegra/optee-src/nv-optee/optee/optee_os/ldelf/ta_elf.c:1386
    1058:	36080073 	tbz	w19, #1, 1064 <print_seg+0x88>
/home/ssysarch/Desktop/nick/jetpack_5/Jetson_Linux_R35.4.1_aarch64/Linux_for_Tegra/sources/tegra/optee-src/nv-optee/optee/optee_os/ldelf/ta_elf.c:1387
    105c:	52800ee0 	mov	w0, #0x77                  	// #119
    1060:	3901e7e0 	strb	w0, [sp, #121]
/home/ssysarch/Desktop/nick/jetpack_5/Jetson_Linux_R35.4.1_aarch64/Linux_for_Tegra/sources/tegra/optee-src/nv-optee/optee/optee_os/ldelf/ta_elf.c:1388
    1064:	36100073 	tbz	w19, #2, 1070 <print_seg+0x94>
/home/ssysarch/Desktop/nick/jetpack_5/Jetson_Linux_R35.4.1_aarch64/Linux_for_Tegra/sources/tegra/optee-src/nv-optee/optee/optee_os/ldelf/ta_elf.c:1389
    1068:	52800f00 	mov	w0, #0x78                  	// #120
    106c:	3901ebe0 	strb	w0, [sp, #122]
/home/ssysarch/Desktop/nick/jetpack_5/Jetson_Linux_R35.4.1_aarch64/Linux_for_Tegra/sources/tegra/optee-src/nv-optee/optee/optee_os/ldelf/ta_elf.c:1390
    1070:	36180073 	tbz	w19, #3, 107c <print_seg+0xa0>
/home/ssysarch/Desktop/nick/jetpack_5/Jetson_Linux_R35.4.1_aarch64/Linux_for_Tegra/sources/tegra/optee-src/nv-optee/optee/optee_os/ldelf/ta_elf.c:1391
    1074:	52800e60 	mov	w0, #0x73                  	// #115
    1078:	3901efe0 	strb	w0, [sp, #123]
/home/ssysarch/Desktop/nick/jetpack_5/Jetson_Linux_R35.4.1_aarch64/Linux_for_Tegra/sources/tegra/optee-src/nv-optee/optee/optee_os/ldelf/ta_elf.c:1393
    107c:	9101e3e0 	add	x0, sp, #0x78
    1080:	a90003fa 	stp	x26, x0, [sp]
    1084:	aa1903e7 	mov	x7, x25
    1088:	f9000bf4 	str	x20, [sp, #16]
    108c:	aa1503e5 	mov	x5, x21
    1090:	aa1803e3 	mov	x3, x24
    1094:	aa1703e1 	mov	x1, x23
    1098:	aa1603e0 	mov	x0, x22
    109c:	52800106 	mov	w6, #0x8                   	// #8
    10a0:	b0000022 	adrp	x2, 6000 <kprintf.constprop.0+0x4c8>
    10a4:	9132e042 	add	x2, x2, #0xcb8
    10a8:	2a0603e4 	mov	w4, w6
    10ac:	97fffe87 	bl	ac8 <print_wrapper>
/home/ssysarch/Desktop/nick/jetpack_5/Jetson_Linux_R35.4.1_aarch64/Linux_for_Tegra/sources/tegra/optee-src/nv-optee/optee/optee_os/ldelf/ta_elf.c:1396
    10b0:	a9427bfd 	ldp	x29, x30, [sp, #32]
    10b4:	a94353f3 	ldp	x19, x20, [sp, #48]
    10b8:	a9445bf5 	ldp	x21, x22, [sp, #64]
    10bc:	a94563f7 	ldp	x23, x24, [sp, #80]
    10c0:	a9466bf9 	ldp	x25, x26, [sp, #96]
    10c4:	910243ff 	add	sp, sp, #0x90
    10c8:	d65f03c0 	ret
/home/ssysarch/Desktop/nick/jetpack_5/Jetson_Linux_R35.4.1_aarch64/Linux_for_Tegra/sources/tegra/optee-src/nv-optee/optee/optee_os/ldelf/ta_elf.c:1370
    10cc:	362000b3 	tbz	w19, #4, 10e0 <print_seg+0x104>
/home/ssysarch/Desktop/nick/jetpack_5/Jetson_Linux_R35.4.1_aarch64/Linux_for_Tegra/sources/tegra/optee-src/nv-optee/optee/optee_os/ldelf/ta_elf.c:1371
    10d0:	b0000021 	adrp	x1, 6000 <kprintf.constprop.0+0x4c8>
    10d4:	91327421 	add	x1, x1, #0xc9d
    10d8:	aa1403e0 	mov	x0, x20
    10dc:	9400123a 	bl	59c4 <strcpy>
/home/ssysarch/Desktop/nick/jetpack_5/Jetson_Linux_R35.4.1_aarch64/Linux_for_Tegra/sources/tegra/optee-src/nv-optee/optee/optee_os/ldelf/ta_elf.c:1374
    10e0:	363800b3 	tbz	w19, #7, 10f4 <print_seg+0x118>
/home/ssysarch/Desktop/nick/jetpack_5/Jetson_Linux_R35.4.1_aarch64/Linux_for_Tegra/sources/tegra/optee-src/nv-optee/optee/optee_os/ldelf/ta_elf.c:1375
    10e4:	b0000021 	adrp	x1, 6000 <kprintf.constprop.0+0x4c8>
    10e8:	91329821 	add	x1, x1, #0xca6
    10ec:	aa1403e0 	mov	x0, x20
    10f0:	94001235 	bl	59c4 <strcpy>
/home/ssysarch/Desktop/nick/jetpack_5/Jetson_Linux_R35.4.1_aarch64/Linux_for_Tegra/sources/tegra/optee-src/nv-optee/optee/optee_os/ldelf/ta_elf.c:1378
    10f4:	f0000020 	adrp	x0, 8000 <_DYNAMIC>
    10f8:	f9410000 	ldr	x0, [x0, #512]
    10fc:	eb15001f 	cmp	x0, x21
    1100:	54fffa61 	b.ne	104c <print_seg+0x70>  // b.any
/home/ssysarch/Desktop/nick/jetpack_5/Jetson_Linux_R35.4.1_aarch64/Linux_for_Tegra/sources/tegra/optee-src/nv-optee/optee/optee_os/ldelf/ta_elf.c:1379
    1104:	aa1403e0 	mov	x0, x20
    1108:	b0000021 	adrp	x1, 6000 <kprintf.constprop.0+0x4c8>
    110c:	9132bc21 	add	x1, x1, #0xcaf
    1110:	9400122d 	bl	59c4 <strcpy>
/home/ssysarch/Desktop/nick/jetpack_5/Jetson_Linux_R35.4.1_aarch64/Linux_for_Tegra/sources/tegra/optee-src/nv-optee/optee/optee_os/ldelf/ta_elf.c:1380
    1114:	17ffffce 	b	104c <print_seg+0x70>

0000000000001118 <copy_section_headers>:
copy_section_headers():
/home/ssysarch/Desktop/nick/jetpack_5/Jetson_Linux_R35.4.1_aarch64/Linux_for_Tegra/sources/tegra/optee-src/nv-optee/optee/optee_os/ldelf/ta_elf.c:1095
    1118:	a9bc7bfd 	stp	x29, x30, [sp, #-64]!
    111c:	910003fd 	mov	x29, sp
    1120:	a90153f3 	stp	x19, x20, [sp, #16]
    1124:	aa0003f4 	mov	x20, x0
    1128:	a9025bf5 	stp	x21, x22, [sp, #32]
/home/ssysarch/Desktop/nick/jetpack_5/Jetson_Linux_R35.4.1_aarch64/Linux_for_Tegra/sources/tegra/optee-src/nv-optee/optee/optee_os/ldelf/ta_elf.c:1100
    112c:	b9404415 	ldr	w21, [x0, #68]
    1130:	b9404c00 	ldr	w0, [x0, #76]
/home/ssysarch/Desktop/nick/jetpack_5/Jetson_Linux_R35.4.1_aarch64/Linux_for_Tegra/sources/tegra/optee-src/nv-optee/optee/optee_os/ldelf/ta_elf.c:1095
    1134:	f9001bf7 	str	x23, [sp, #48]
/home/ssysarch/Desktop/nick/jetpack_5/Jetson_Linux_R35.4.1_aarch64/Linux_for_Tegra/sources/tegra/optee-src/nv-optee/optee/optee_os/ldelf/ta_elf.c:1100
    1138:	9ba07eb5 	umull	x21, w21, w0
/home/ssysarch/Desktop/nick/jetpack_5/Jetson_Linux_R35.4.1_aarch64/Linux_for_Tegra/sources/tegra/optee-src/nv-optee/optee/optee_os/ldelf/ta_elf.c:1103
    113c:	aa1503e0 	mov	x0, x21
    1140:	9400117f 	bl	573c <malloc>
    1144:	f9002e80 	str	x0, [x20, #88]
/home/ssysarch/Desktop/nick/jetpack_5/Jetson_Linux_R35.4.1_aarch64/Linux_for_Tegra/sources/tegra/optee-src/nv-optee/optee/optee_os/ldelf/ta_elf.c:1104
    1148:	b5000160 	cbnz	x0, 1174 <copy_section_headers+0x5c>
/home/ssysarch/Desktop/nick/jetpack_5/Jetson_Linux_R35.4.1_aarch64/Linux_for_Tegra/sources/tegra/optee-src/nv-optee/optee/optee_os/ldelf/ta_elf.c:1105
    114c:	b0000024 	adrp	x4, 6000 <kprintf.constprop.0+0x4c8>
    1150:	9133d084 	add	x4, x4, #0xcf4
    1154:	52800023 	mov	w3, #0x1                   	// #1
    1158:	52800022 	mov	w2, #0x1                   	// #1
    115c:	52808a21 	mov	w1, #0x451                 	// #1105
    1160:	d0000020 	adrp	x0, 7000 <trace_ext_prefix+0x509>
    1164:	910f5800 	add	x0, x0, #0x3d6
    1168:	940015d9 	bl	68cc <trace_printf>
    116c:	129ffe60 	mov	w0, #0xffff000c            	// #-65524
/home/ssysarch/Desktop/nick/jetpack_5/Jetson_Linux_R35.4.1_aarch64/Linux_for_Tegra/sources/tegra/optee-src/nv-optee/optee/optee_os/ldelf/ta_elf.c:1124
    1170:	97fffbfe 	bl	168 <_ldelf_return>
/home/ssysarch/Desktop/nick/jetpack_5/Jetson_Linux_R35.4.1_aarch64/Linux_for_Tegra/sources/tegra/optee-src/nv-optee/optee/optee_os/ldelf/ta_elf.c:1112
    1174:	f9401e97 	ldr	x23, [x20, #56]
    1178:	aa0003f6 	mov	x22, x0
    117c:	f13ffeff 	cmp	x23, #0xfff
    1180:	54000488 	b.hi	1210 <copy_section_headers+0xf8>  // b.pmore
/home/ssysarch/Desktop/nick/jetpack_5/Jetson_Linux_R35.4.1_aarch64/Linux_for_Tegra/sources/tegra/optee-src/nv-optee/optee/optee_os/ldelf/ta_elf.c:1113
    1184:	39400281 	ldrb	w1, [x20]
    1188:	340000e1 	cbz	w1, 11a4 <copy_section_headers+0x8c>
/home/ssysarch/Desktop/nick/jetpack_5/Jetson_Linux_R35.4.1_aarch64/Linux_for_Tegra/sources/tegra/optee-src/nv-optee/optee/optee_os/ldelf/ta_elf.c:1113 (discriminator 1)
    118c:	d0000022 	adrp	x2, 7000 <trace_ext_prefix+0x509>
    1190:	910f5842 	add	x2, x2, #0x3d6
    1194:	b0000020 	adrp	x0, 6000 <kprintf.constprop.0+0x4c8>
    1198:	9133ec00 	add	x0, x0, #0xcfb
    119c:	52808b21 	mov	w1, #0x459                 	// #1113
    11a0:	97ffff1a 	bl	e08 <_assert_trap.constprop.0>
/home/ssysarch/Desktop/nick/jetpack_5/Jetson_Linux_R35.4.1_aarch64/Linux_for_Tegra/sources/tegra/optee-src/nv-optee/optee/optee_os/ldelf/ta_elf.c:1114
    11a4:	d2820013 	mov	x19, #0x1000                	// #4096
    11a8:	cb170273 	sub	x19, x19, x23
    11ac:	eb15027f 	cmp	x19, x21
/home/ssysarch/Desktop/nick/jetpack_5/Jetson_Linux_R35.4.1_aarch64/Linux_for_Tegra/sources/tegra/optee-src/nv-optee/optee/optee_os/ldelf/ta_elf.c:1115
    11b0:	f9400681 	ldr	x1, [x20, #8]
/home/ssysarch/Desktop/nick/jetpack_5/Jetson_Linux_R35.4.1_aarch64/Linux_for_Tegra/sources/tegra/optee-src/nv-optee/optee/optee_os/ldelf/ta_elf.c:1114
    11b4:	9a959273 	csel	x19, x19, x21, ls  // ls = plast
/home/ssysarch/Desktop/nick/jetpack_5/Jetson_Linux_R35.4.1_aarch64/Linux_for_Tegra/sources/tegra/optee-src/nv-optee/optee/optee_os/ldelf/ta_elf.c:1115
    11b8:	aa1303e2 	mov	x2, x19
    11bc:	8b0102e1 	add	x1, x23, x1
    11c0:	97fffbac 	bl	70 <memcpy>
/home/ssysarch/Desktop/nick/jetpack_5/Jetson_Linux_R35.4.1_aarch64/Linux_for_Tegra/sources/tegra/optee-src/nv-optee/optee/optee_os/ldelf/ta_elf.c:1119
    11c4:	eb1302bf 	cmp	x21, x19
    11c8:	54000289 	b.ls	1218 <copy_section_headers+0x100>  // b.plast
/home/ssysarch/Desktop/nick/jetpack_5/Jetson_Linux_R35.4.1_aarch64/Linux_for_Tegra/sources/tegra/optee-src/nv-optee/optee/optee_os/ldelf/ta_elf.c:1120
    11cc:	b9410282 	ldr	w2, [x20, #256]
    11d0:	8b1302e3 	add	x3, x23, x19
    11d4:	cb1302a1 	sub	x1, x21, x19
    11d8:	8b1302c0 	add	x0, x22, x19
    11dc:	97fffd35 	bl	6b0 <sys_copy_from_ta_bin>
    11e0:	2a0003f3 	mov	w19, w0
/home/ssysarch/Desktop/nick/jetpack_5/Jetson_Linux_R35.4.1_aarch64/Linux_for_Tegra/sources/tegra/optee-src/nv-optee/optee/optee_os/ldelf/ta_elf.c:1123
    11e4:	340001a0 	cbz	w0, 1218 <copy_section_headers+0x100>
/home/ssysarch/Desktop/nick/jetpack_5/Jetson_Linux_R35.4.1_aarch64/Linux_for_Tegra/sources/tegra/optee-src/nv-optee/optee/optee_os/ldelf/ta_elf.c:1124
    11e8:	b0000024 	adrp	x4, 6000 <kprintf.constprop.0+0x4c8>
    11ec:	91342484 	add	x4, x4, #0xd09
    11f0:	52800023 	mov	w3, #0x1                   	// #1
    11f4:	52800022 	mov	w2, #0x1                   	// #1
    11f8:	52808c81 	mov	w1, #0x464                 	// #1124
    11fc:	d0000020 	adrp	x0, 7000 <trace_ext_prefix+0x509>
    1200:	910f5800 	add	x0, x0, #0x3d6
    1204:	940015b2 	bl	68cc <trace_printf>
    1208:	2a1303e0 	mov	w0, w19
    120c:	17ffffd9 	b	1170 <copy_section_headers+0x58>
/home/ssysarch/Desktop/nick/jetpack_5/Jetson_Linux_R35.4.1_aarch64/Linux_for_Tegra/sources/tegra/optee-src/nv-optee/optee/optee_os/ldelf/ta_elf.c:1098
    1210:	d2800013 	mov	x19, #0x0                   	// #0
    1214:	17ffffec 	b	11c4 <copy_section_headers+0xac>
/home/ssysarch/Desktop/nick/jetpack_5/Jetson_Linux_R35.4.1_aarch64/Linux_for_Tegra/sources/tegra/optee-src/nv-optee/optee/optee_os/ldelf/ta_elf.c:1126
    1218:	a94153f3 	ldp	x19, x20, [sp, #16]
    121c:	a9425bf5 	ldp	x21, x22, [sp, #32]
    1220:	f9401bf7 	ldr	x23, [sp, #48]
    1224:	a8c47bfd 	ldp	x29, x30, [sp], #64
    1228:	d65f03c0 	ret

000000000000122c <populate_segments>:
populate_segments():
/home/ssysarch/Desktop/nick/jetpack_5/Jetson_Linux_R35.4.1_aarch64/Linux_for_Tegra/sources/tegra/optee-src/nv-optee/optee/optee_os/ldelf/ta_elf.c:781
    122c:	a9b97bfd 	stp	x29, x30, [sp, #-112]!
    1230:	910003fd 	mov	x29, sp
    1234:	a90153f3 	stp	x19, x20, [sp, #16]
    1238:	aa0003f3 	mov	x19, x0
/home/ssysarch/Desktop/nick/jetpack_5/Jetson_Linux_R35.4.1_aarch64/Linux_for_Tegra/sources/tegra/optee-src/nv-optee/optee/optee_os/ldelf/ta_elf.c:787
    123c:	39400800 	ldrb	w0, [x0, #2]
/home/ssysarch/Desktop/nick/jetpack_5/Jetson_Linux_R35.4.1_aarch64/Linux_for_Tegra/sources/tegra/optee-src/nv-optee/optee/optee_os/ldelf/ta_elf.c:781
    1240:	a9025bf5 	stp	x21, x22, [sp, #32]
    1244:	a90363f7 	stp	x23, x24, [sp, #48]
    1248:	a9046bf9 	stp	x25, x26, [sp, #64]
    124c:	a90573fb 	stp	x27, x28, [sp, #80]
/home/ssysarch/Desktop/nick/jetpack_5/Jetson_Linux_R35.4.1_aarch64/Linux_for_Tegra/sources/tegra/optee-src/nv-optee/optee/optee_os/ldelf/ta_elf.c:784
    1250:	f90037ff 	str	xzr, [sp, #104]
/home/ssysarch/Desktop/nick/jetpack_5/Jetson_Linux_R35.4.1_aarch64/Linux_for_Tegra/sources/tegra/optee-src/nv-optee/optee/optee_os/ldelf/ta_elf.c:787
    1254:	340000e0 	cbz	w0, 1270 <populate_segments+0x44>
/home/ssysarch/Desktop/nick/jetpack_5/Jetson_Linux_R35.4.1_aarch64/Linux_for_Tegra/sources/tegra/optee-src/nv-optee/optee/optee_os/ldelf/ta_elf.c:787 (discriminator 1)
    1258:	d0000022 	adrp	x2, 7000 <trace_ext_prefix+0x509>
    125c:	910e4842 	add	x2, x2, #0x392
    1260:	b0000020 	adrp	x0, 6000 <kprintf.constprop.0+0x4c8>
    1264:	91347800 	add	x0, x0, #0xd1e
    1268:	52806261 	mov	w1, #0x313                 	// #787
/home/ssysarch/Desktop/nick/jetpack_5/Jetson_Linux_R35.4.1_aarch64/Linux_for_Tegra/sources/tegra/optee-src/nv-optee/optee/optee_os/ldelf/ta_elf.c:797 (discriminator 1)
    126c:	97fffee7 	bl	e08 <_assert_trap.constprop.0>
/home/ssysarch/Desktop/nick/jetpack_5/Jetson_Linux_R35.4.1_aarch64/Linux_for_Tegra/sources/tegra/optee-src/nv-optee/optee/optee_os/ldelf/ta_elf.c:788
    1270:	f9405275 	ldr	x21, [x19, #160]
    1274:	9101a3f6 	add	x22, sp, #0x68
/home/ssysarch/Desktop/nick/jetpack_5/Jetson_Linux_R35.4.1_aarch64/Linux_for_Tegra/sources/tegra/optee-src/nv-optee/optee/optee_os/ldelf/ta_elf.c:788 (discriminator 1)
    1278:	b5000115 	cbnz	x21, 1298 <populate_segments+0x6c>
/home/ssysarch/Desktop/nick/jetpack_5/Jetson_Linux_R35.4.1_aarch64/Linux_for_Tegra/sources/tegra/optee-src/nv-optee/optee/optee_os/ldelf/ta_elf.c:910
    127c:	a94153f3 	ldp	x19, x20, [sp, #16]
    1280:	a9425bf5 	ldp	x21, x22, [sp, #32]
    1284:	a94363f7 	ldp	x23, x24, [sp, #48]
    1288:	a9446bf9 	ldp	x25, x26, [sp, #64]
    128c:	a94573fb 	ldp	x27, x28, [sp, #80]
    1290:	a8c77bfd 	ldp	x29, x30, [sp], #112
    1294:	d65f03c0 	ret
/home/ssysarch/Desktop/nick/jetpack_5/Jetson_Linux_R35.4.1_aarch64/Linux_for_Tegra/sources/tegra/optee-src/nv-optee/optee/optee_os/ldelf/ta_elf.c:789
    1298:	f9405660 	ldr	x0, [x19, #168]
/home/ssysarch/Desktop/nick/jetpack_5/Jetson_Linux_R35.4.1_aarch64/Linux_for_Tegra/sources/tegra/optee-src/nv-optee/optee/optee_os/ldelf/ta_elf.c:791
    129c:	f94006a1 	ldr	x1, [x21, #8]
/home/ssysarch/Desktop/nick/jetpack_5/Jetson_Linux_R35.4.1_aarch64/Linux_for_Tegra/sources/tegra/optee-src/nv-optee/optee/optee_os/ldelf/ta_elf.c:789
    12a0:	f9400400 	ldr	x0, [x0, #8]
/home/ssysarch/Desktop/nick/jetpack_5/Jetson_Linux_R35.4.1_aarch64/Linux_for_Tegra/sources/tegra/optee-src/nv-optee/optee/optee_os/ldelf/ta_elf.c:791
    12a4:	f9400eb9 	ldr	x25, [x21, #24]
/home/ssysarch/Desktop/nick/jetpack_5/Jetson_Linux_R35.4.1_aarch64/Linux_for_Tegra/sources/tegra/optee-src/nv-optee/optee/optee_os/ldelf/ta_elf.c:789
    12a8:	f9400002 	ldr	x2, [x0]
roundup():
/home/ssysarch/Desktop/nick/jetpack_5/Jetson_Linux_R35.4.1_aarch64/Linux_for_Tegra/sources/tegra/optee-src/nv-optee/optee/optee_os/ldelf/ta_elf.c:525
    12ac:	8b190020 	add	x0, x1, x25
    12b0:	f9400458 	ldr	x24, [x2, #8]
    12b4:	f9400c46 	ldr	x6, [x2, #24]
populate_segments():
/home/ssysarch/Desktop/nick/jetpack_5/Jetson_Linux_R35.4.1_aarch64/Linux_for_Tegra/sources/tegra/optee-src/nv-optee/optee/optee_os/ldelf/ta_elf.c:793
    12b8:	3940c2a2 	ldrb	w2, [x21, #48]
roundup():
/home/ssysarch/Desktop/nick/jetpack_5/Jetson_Linux_R35.4.1_aarch64/Linux_for_Tegra/sources/tegra/optee-src/nv-optee/optee/optee_os/ldelf/ta_elf.c:525
    12bc:	8b060318 	add	x24, x24, x6
    12c0:	cb000318 	sub	x24, x24, x0
    12c4:	913fff18 	add	x24, x24, #0xfff
    12c8:	9274cf18 	and	x24, x24, #0xfffffffffffff000
populate_segments():
/home/ssysarch/Desktop/nick/jetpack_5/Jetson_Linux_R35.4.1_aarch64/Linux_for_Tegra/sources/tegra/optee-src/nv-optee/optee/optee_os/ldelf/ta_elf.c:793
    12cc:	34000b02 	cbz	w2, 142c <populate_segments+0x200>
roundup():
/home/ssysarch/Desktop/nick/jetpack_5/Jetson_Linux_R35.4.1_aarch64/Linux_for_Tegra/sources/tegra/optee-src/nv-optee/optee/optee_os/ldelf/ta_elf.c:525
    12d0:	913ffc14 	add	x20, x0, #0xfff
rounddown():
/home/ssysarch/Desktop/nick/jetpack_5/Jetson_Linux_R35.4.1_aarch64/Linux_for_Tegra/sources/tegra/optee-src/nv-optee/optee/optee_os/ldelf/ta_elf.c:530
    12d4:	9274cc20 	and	x0, x1, #0xfffffffffffff000
roundup():
/home/ssysarch/Desktop/nick/jetpack_5/Jetson_Linux_R35.4.1_aarch64/Linux_for_Tegra/sources/tegra/optee-src/nv-optee/optee/optee_os/ldelf/ta_elf.c:525
    12d8:	9274ce94 	and	x20, x20, #0xfffffffffffff000
populate_segments():
/home/ssysarch/Desktop/nick/jetpack_5/Jetson_Linux_R35.4.1_aarch64/Linux_for_Tegra/sources/tegra/optee-src/nv-optee/optee/optee_os/ldelf/ta_elf.c:794
    12dc:	cb000294 	sub	x20, x20, x0
/home/ssysarch/Desktop/nick/jetpack_5/Jetson_Linux_R35.4.1_aarch64/Linux_for_Tegra/sources/tegra/optee-src/nv-optee/optee/optee_os/ldelf/ta_elf.c:797
    12e0:	f9400660 	ldr	x0, [x19, #8]
    12e4:	b50000e0 	cbnz	x0, 1300 <populate_segments+0xd4>
/home/ssysarch/Desktop/nick/jetpack_5/Jetson_Linux_R35.4.1_aarch64/Linux_for_Tegra/sources/tegra/optee-src/nv-optee/optee/optee_os/ldelf/ta_elf.c:797 (discriminator 1)
    12e8:	d0000022 	adrp	x2, 7000 <trace_ext_prefix+0x509>
    12ec:	910e4842 	add	x2, x2, #0x392
    12f0:	b0000020 	adrp	x0, 6000 <kprintf.constprop.0+0x4c8>
    12f4:	9134b800 	add	x0, x0, #0xd2e
    12f8:	528063a1 	mov	w1, #0x31d                 	// #797
    12fc:	17ffffdc 	b	126c <populate_segments+0x40>
/home/ssysarch/Desktop/nick/jetpack_5/Jetson_Linux_R35.4.1_aarch64/Linux_for_Tegra/sources/tegra/optee-src/nv-optee/optee/optee_os/ldelf/ta_elf.c:798
    1300:	8b000021 	add	x1, x1, x0
/home/ssysarch/Desktop/nick/jetpack_5/Jetson_Linux_R35.4.1_aarch64/Linux_for_Tegra/sources/tegra/optee-src/nv-optee/optee/optee_os/ldelf/ta_elf.c:799
    1304:	f9400a60 	ldr	x0, [x19, #16]
rounddown():
/home/ssysarch/Desktop/nick/jetpack_5/Jetson_Linux_R35.4.1_aarch64/Linux_for_Tegra/sources/tegra/optee-src/nv-optee/optee/optee_os/ldelf/ta_elf.c:530
    1308:	9274cc21 	and	x1, x1, #0xfffffffffffff000
populate_segments():
/home/ssysarch/Desktop/nick/jetpack_5/Jetson_Linux_R35.4.1_aarch64/Linux_for_Tegra/sources/tegra/optee-src/nv-optee/optee/optee_os/ldelf/ta_elf.c:798
    130c:	f90037e1 	str	x1, [sp, #104]
/home/ssysarch/Desktop/nick/jetpack_5/Jetson_Linux_R35.4.1_aarch64/Linux_for_Tegra/sources/tegra/optee-src/nv-optee/optee/optee_os/ldelf/ta_elf.c:799
    1310:	eb01001f 	cmp	x0, x1
    1314:	540000e9 	b.ls	1330 <populate_segments+0x104>  // b.plast
/home/ssysarch/Desktop/nick/jetpack_5/Jetson_Linux_R35.4.1_aarch64/Linux_for_Tegra/sources/tegra/optee-src/nv-optee/optee/optee_os/ldelf/ta_elf.c:799 (discriminator 1)
    1318:	d0000022 	adrp	x2, 7000 <trace_ext_prefix+0x509>
    131c:	910e4842 	add	x2, x2, #0x392
    1320:	b0000020 	adrp	x0, 6000 <kprintf.constprop.0+0x4c8>
    1324:	9134f400 	add	x0, x0, #0xd3d
    1328:	528063e1 	mov	w1, #0x31f                 	// #799
    132c:	17ffffd0 	b	126c <populate_segments+0x40>
/home/ssysarch/Desktop/nick/jetpack_5/Jetson_Linux_R35.4.1_aarch64/Linux_for_Tegra/sources/tegra/optee-src/nv-optee/optee/optee_os/ldelf/ta_elf.c:800
    1330:	aa1803e4 	mov	x4, x24
    1334:	aa1603e2 	mov	x2, x22
    1338:	aa1403e0 	mov	x0, x20
    133c:	d2800003 	mov	x3, #0x0                   	// #0
    1340:	52800001 	mov	w1, #0x0                   	// #0
    1344:	97fffcc7 	bl	660 <sys_map_zi>
    1348:	2a0003f8 	mov	w24, w0
/home/ssysarch/Desktop/nick/jetpack_5/Jetson_Linux_R35.4.1_aarch64/Linux_for_Tegra/sources/tegra/optee-src/nv-optee/optee/optee_os/ldelf/ta_elf.c:801
    134c:	34000160 	cbz	w0, 1378 <populate_segments+0x14c>
/home/ssysarch/Desktop/nick/jetpack_5/Jetson_Linux_R35.4.1_aarch64/Linux_for_Tegra/sources/tegra/optee-src/nv-optee/optee/optee_os/ldelf/ta_elf.c:802
    1350:	b0000024 	adrp	x4, 6000 <kprintf.constprop.0+0x4c8>
    1354:	91354484 	add	x4, x4, #0xd51
    1358:	52800023 	mov	w3, #0x1                   	// #1
    135c:	52800022 	mov	w2, #0x1                   	// #1
    1360:	52806441 	mov	w1, #0x322                 	// #802
/home/ssysarch/Desktop/nick/jetpack_5/Jetson_Linux_R35.4.1_aarch64/Linux_for_Tegra/sources/tegra/optee-src/nv-optee/optee/optee_os/ldelf/ta_elf.c:887
    1364:	d0000020 	adrp	x0, 7000 <trace_ext_prefix+0x509>
    1368:	910e4800 	add	x0, x0, #0x392
    136c:	94001558 	bl	68cc <trace_printf>
    1370:	2a1803e0 	mov	w0, w24
    1374:	14000025 	b	1408 <populate_segments+0x1dc>
copy_remapped_to():
/home/ssysarch/Desktop/nick/jetpack_5/Jetson_Linux_R35.4.1_aarch64/Linux_for_Tegra/sources/tegra/optee-src/nv-optee/optee/optee_os/ldelf/ta_elf.c:597
    1378:	a94012b8 	ldp	x24, x4, [x21]
    137c:	f9400660 	ldr	x0, [x19, #8]
/home/ssysarch/Desktop/nick/jetpack_5/Jetson_Linux_R35.4.1_aarch64/Linux_for_Tegra/sources/tegra/optee-src/nv-optee/optee/optee_os/ldelf/ta_elf.c:600
    1380:	f9400aba 	ldr	x26, [x21, #16]
/home/ssysarch/Desktop/nick/jetpack_5/Jetson_Linux_R35.4.1_aarch64/Linux_for_Tegra/sources/tegra/optee-src/nv-optee/optee/optee_os/ldelf/ta_elf.c:597
    1384:	8b000084 	add	x4, x4, x0
/home/ssysarch/Desktop/nick/jetpack_5/Jetson_Linux_R35.4.1_aarch64/Linux_for_Tegra/sources/tegra/optee-src/nv-optee/optee/optee_os/ldelf/ta_elf.c:602
    1388:	f9400e60 	ldr	x0, [x19, #24]
    138c:	eb00031f 	cmp	x24, x0
    1390:	540001a2 	b.cs	13c4 <populate_segments+0x198>  // b.hs, b.nlast
/home/ssysarch/Desktop/nick/jetpack_5/Jetson_Linux_R35.4.1_aarch64/Linux_for_Tegra/sources/tegra/optee-src/nv-optee/optee/optee_os/ldelf/ta_elf.c:603
    1394:	cb180019 	sub	x25, x0, x24
/home/ssysarch/Desktop/nick/jetpack_5/Jetson_Linux_R35.4.1_aarch64/Linux_for_Tegra/sources/tegra/optee-src/nv-optee/optee/optee_os/ldelf/ta_elf.c:604
    1398:	f9400a61 	ldr	x1, [x19, #16]
/home/ssysarch/Desktop/nick/jetpack_5/Jetson_Linux_R35.4.1_aarch64/Linux_for_Tegra/sources/tegra/optee-src/nv-optee/optee/optee_os/ldelf/ta_elf.c:603
    139c:	eb1a033f 	cmp	x25, x26
    13a0:	9a9a9339 	csel	x25, x25, x26, ls  // ls = plast
/home/ssysarch/Desktop/nick/jetpack_5/Jetson_Linux_R35.4.1_aarch64/Linux_for_Tegra/sources/tegra/optee-src/nv-optee/optee/optee_os/ldelf/ta_elf.c:604
    13a4:	cb000021 	sub	x1, x1, x0
    13a8:	aa1903e2 	mov	x2, x25
    13ac:	8b180021 	add	x1, x1, x24
    13b0:	aa0403e0 	mov	x0, x4
/home/ssysarch/Desktop/nick/jetpack_5/Jetson_Linux_R35.4.1_aarch64/Linux_for_Tegra/sources/tegra/optee-src/nv-optee/optee/optee_os/ldelf/ta_elf.c:607
    13b4:	cb19035a 	sub	x26, x26, x25
/home/ssysarch/Desktop/nick/jetpack_5/Jetson_Linux_R35.4.1_aarch64/Linux_for_Tegra/sources/tegra/optee-src/nv-optee/optee/optee_os/ldelf/ta_elf.c:604
    13b8:	97fffb2e 	bl	70 <memcpy>
/home/ssysarch/Desktop/nick/jetpack_5/Jetson_Linux_R35.4.1_aarch64/Linux_for_Tegra/sources/tegra/optee-src/nv-optee/optee/optee_os/ldelf/ta_elf.c:606
    13bc:	8b190318 	add	x24, x24, x25
/home/ssysarch/Desktop/nick/jetpack_5/Jetson_Linux_R35.4.1_aarch64/Linux_for_Tegra/sources/tegra/optee-src/nv-optee/optee/optee_os/ldelf/ta_elf.c:605
    13c0:	8b190004 	add	x4, x0, x25
/home/ssysarch/Desktop/nick/jetpack_5/Jetson_Linux_R35.4.1_aarch64/Linux_for_Tegra/sources/tegra/optee-src/nv-optee/optee/optee_os/ldelf/ta_elf.c:610
    13c4:	b40002ba 	cbz	x26, 1418 <populate_segments+0x1ec>
/home/ssysarch/Desktop/nick/jetpack_5/Jetson_Linux_R35.4.1_aarch64/Linux_for_Tegra/sources/tegra/optee-src/nv-optee/optee/optee_os/ldelf/ta_elf.c:611
    13c8:	b9410262 	ldr	w2, [x19, #256]
    13cc:	aa1803e3 	mov	x3, x24
    13d0:	aa1a03e1 	mov	x1, x26
    13d4:	aa0403e0 	mov	x0, x4
    13d8:	97fffcb6 	bl	6b0 <sys_copy_from_ta_bin>
    13dc:	2a0003f9 	mov	w25, w0
/home/ssysarch/Desktop/nick/jetpack_5/Jetson_Linux_R35.4.1_aarch64/Linux_for_Tegra/sources/tegra/optee-src/nv-optee/optee/optee_os/ldelf/ta_elf.c:614
    13e0:	34000160 	cbz	w0, 140c <populate_segments+0x1e0>
/home/ssysarch/Desktop/nick/jetpack_5/Jetson_Linux_R35.4.1_aarch64/Linux_for_Tegra/sources/tegra/optee-src/nv-optee/optee/optee_os/ldelf/ta_elf.c:615
    13e4:	b0000024 	adrp	x4, 6000 <kprintf.constprop.0+0x4c8>
    13e8:	91342484 	add	x4, x4, #0xd09
    13ec:	52800023 	mov	w3, #0x1                   	// #1
    13f0:	52800022 	mov	w2, #0x1                   	// #1
    13f4:	52804ce1 	mov	w1, #0x267                 	// #615
    13f8:	d0000020 	adrp	x0, 7000 <trace_ext_prefix+0x509>
    13fc:	910d2800 	add	x0, x0, #0x34a
    1400:	94001533 	bl	68cc <trace_printf>
    1404:	2a1903e0 	mov	w0, w25
populate_segments():
/home/ssysarch/Desktop/nick/jetpack_5/Jetson_Linux_R35.4.1_aarch64/Linux_for_Tegra/sources/tegra/optee-src/nv-optee/optee/optee_os/ldelf/ta_elf.c:901
    1408:	97fffb58 	bl	168 <_ldelf_return>
copy_remapped_to():
/home/ssysarch/Desktop/nick/jetpack_5/Jetson_Linux_R35.4.1_aarch64/Linux_for_Tegra/sources/tegra/optee-src/nv-optee/optee/optee_os/ldelf/ta_elf.c:616
    140c:	f9400e63 	ldr	x3, [x19, #24]
    1410:	8b180063 	add	x3, x3, x24
    1414:	f9000e63 	str	x3, [x19, #24]
populate_segments():
/home/ssysarch/Desktop/nick/jetpack_5/Jetson_Linux_R35.4.1_aarch64/Linux_for_Tegra/sources/tegra/optee-src/nv-optee/optee/optee_os/ldelf/ta_elf.c:805
    1418:	f94037e0 	ldr	x0, [sp, #104]
    141c:	8b140014 	add	x20, x0, x20
/home/ssysarch/Desktop/nick/jetpack_5/Jetson_Linux_R35.4.1_aarch64/Linux_for_Tegra/sources/tegra/optee-src/nv-optee/optee/optee_os/ldelf/ta_elf.c:843
    1420:	f9000a74 	str	x20, [x19, #16]
/home/ssysarch/Desktop/nick/jetpack_5/Jetson_Linux_R35.4.1_aarch64/Linux_for_Tegra/sources/tegra/optee-src/nv-optee/optee/optee_os/ldelf/ta_elf.c:788 (discriminator 2)
    1424:	f9401eb5 	ldr	x21, [x21, #56]
    1428:	17ffff94 	b	1278 <populate_segments+0x4c>
/home/ssysarch/Desktop/nick/jetpack_5/Jetson_Linux_R35.4.1_aarch64/Linux_for_Tegra/sources/tegra/optee-src/nv-optee/optee/optee_os/ldelf/ta_elf.c:810
    142c:	f94002b7 	ldr	x23, [x21]
/home/ssysarch/Desktop/nick/jetpack_5/Jetson_Linux_R35.4.1_aarch64/Linux_for_Tegra/sources/tegra/optee-src/nv-optee/optee/optee_os/ldelf/ta_elf.c:813
    1430:	f9400e62 	ldr	x2, [x19, #24]
/home/ssysarch/Desktop/nick/jetpack_5/Jetson_Linux_R35.4.1_aarch64/Linux_for_Tegra/sources/tegra/optee-src/nv-optee/optee/optee_os/ldelf/ta_elf.c:808
    1434:	f9400ab4 	ldr	x20, [x21, #16]
/home/ssysarch/Desktop/nick/jetpack_5/Jetson_Linux_R35.4.1_aarch64/Linux_for_Tegra/sources/tegra/optee-src/nv-optee/optee/optee_os/ldelf/ta_elf.c:813
    1438:	eb17005f 	cmp	x2, x23
    143c:	54000589 	b.ls	14ec <populate_segments+0x2c0>  // b.plast
/home/ssysarch/Desktop/nick/jetpack_5/Jetson_Linux_R35.4.1_aarch64/Linux_for_Tegra/sources/tegra/optee-src/nv-optee/optee/optee_os/ldelf/ta_elf.c:819
    1440:	8b140022 	add	x2, x1, x20
    1444:	f13ffc5f 	cmp	x2, #0xfff
    1448:	540004a8 	b.hi	14dc <populate_segments+0x2b0>  // b.pmore
/home/ssysarch/Desktop/nick/jetpack_5/Jetson_Linux_R35.4.1_aarch64/Linux_for_Tegra/sources/tegra/optee-src/nv-optee/optee/optee_os/ldelf/ta_elf.c:826
    144c:	f140041f 	cmp	x0, #0x1, lsl #12
    1450:	54fffea9 	b.ls	1424 <populate_segments+0x1f8>  // b.plast
roundup():
/home/ssysarch/Desktop/nick/jetpack_5/Jetson_Linux_R35.4.1_aarch64/Linux_for_Tegra/sources/tegra/optee-src/nv-optee/optee/optee_os/ldelf/ta_elf.c:525
    1454:	913ffc14 	add	x20, x0, #0xfff
    1458:	913ffc21 	add	x1, x1, #0xfff
populate_segments():
/home/ssysarch/Desktop/nick/jetpack_5/Jetson_Linux_R35.4.1_aarch64/Linux_for_Tegra/sources/tegra/optee-src/nv-optee/optee/optee_os/ldelf/ta_elf.c:834
    145c:	f9400a62 	ldr	x2, [x19, #16]
roundup():
/home/ssysarch/Desktop/nick/jetpack_5/Jetson_Linux_R35.4.1_aarch64/Linux_for_Tegra/sources/tegra/optee-src/nv-optee/optee/optee_os/ldelf/ta_elf.c:525
    1460:	9274ce94 	and	x20, x20, #0xfffffffffffff000
    1464:	9274cc21 	and	x1, x1, #0xfffffffffffff000
populate_segments():
/home/ssysarch/Desktop/nick/jetpack_5/Jetson_Linux_R35.4.1_aarch64/Linux_for_Tegra/sources/tegra/optee-src/nv-optee/optee/optee_os/ldelf/ta_elf.c:834
    1468:	f90037e2 	str	x2, [sp, #104]
/home/ssysarch/Desktop/nick/jetpack_5/Jetson_Linux_R35.4.1_aarch64/Linux_for_Tegra/sources/tegra/optee-src/nv-optee/optee/optee_os/ldelf/ta_elf.c:835
    146c:	cb010294 	sub	x20, x20, x1
/home/ssysarch/Desktop/nick/jetpack_5/Jetson_Linux_R35.4.1_aarch64/Linux_for_Tegra/sources/tegra/optee-src/nv-optee/optee/optee_os/ldelf/ta_elf.c:838
    1470:	f1400694 	subs	x20, x20, #0x1, lsl #12
    1474:	540000e1 	b.ne	1490 <populate_segments+0x264>  // b.any
/home/ssysarch/Desktop/nick/jetpack_5/Jetson_Linux_R35.4.1_aarch64/Linux_for_Tegra/sources/tegra/optee-src/nv-optee/optee/optee_os/ldelf/ta_elf.c:838 (discriminator 1)
    1478:	d0000022 	adrp	x2, 7000 <trace_ext_prefix+0x509>
    147c:	910e4842 	add	x2, x2, #0x392
    1480:	b0000020 	adrp	x0, 6000 <kprintf.constprop.0+0x4c8>
    1484:	91357000 	add	x0, x0, #0xd5c
    1488:	528068c1 	mov	w1, #0x346                 	// #838
    148c:	17ffff78 	b	126c <populate_segments+0x40>
/home/ssysarch/Desktop/nick/jetpack_5/Jetson_Linux_R35.4.1_aarch64/Linux_for_Tegra/sources/tegra/optee-src/nv-optee/optee/optee_os/ldelf/ta_elf.c:839
    1490:	aa1603e2 	mov	x2, x22
    1494:	aa1403e0 	mov	x0, x20
    1498:	d2800004 	mov	x4, #0x0                   	// #0
    149c:	d2800003 	mov	x3, #0x0                   	// #0
    14a0:	52800001 	mov	w1, #0x0                   	// #0
    14a4:	97fffc6f 	bl	660 <sys_map_zi>
    14a8:	2a0003f8 	mov	w24, w0
/home/ssysarch/Desktop/nick/jetpack_5/Jetson_Linux_R35.4.1_aarch64/Linux_for_Tegra/sources/tegra/optee-src/nv-optee/optee/optee_os/ldelf/ta_elf.c:841
    14ac:	340000e0 	cbz	w0, 14c8 <populate_segments+0x29c>
/home/ssysarch/Desktop/nick/jetpack_5/Jetson_Linux_R35.4.1_aarch64/Linux_for_Tegra/sources/tegra/optee-src/nv-optee/optee/optee_os/ldelf/ta_elf.c:842
    14b0:	b0000024 	adrp	x4, 6000 <kprintf.constprop.0+0x4c8>
    14b4:	91354484 	add	x4, x4, #0xd51
    14b8:	52800023 	mov	w3, #0x1                   	// #1
    14bc:	52800022 	mov	w2, #0x1                   	// #1
    14c0:	52806941 	mov	w1, #0x34a                 	// #842
    14c4:	17ffffa8 	b	1364 <populate_segments+0x138>
roundup():
/home/ssysarch/Desktop/nick/jetpack_5/Jetson_Linux_R35.4.1_aarch64/Linux_for_Tegra/sources/tegra/optee-src/nv-optee/optee/optee_os/ldelf/ta_elf.c:525
    14c8:	f94037e0 	ldr	x0, [sp, #104]
    14cc:	913ffc00 	add	x0, x0, #0xfff
    14d0:	8b140014 	add	x20, x0, x20
    14d4:	9274ce94 	and	x20, x20, #0xfffffffffffff000
    14d8:	17ffffd2 	b	1420 <populate_segments+0x1f4>
populate_segments():
/home/ssysarch/Desktop/nick/jetpack_5/Jetson_Linux_R35.4.1_aarch64/Linux_for_Tegra/sources/tegra/optee-src/nv-optee/optee/optee_os/ldelf/ta_elf.c:848
    14dc:	91400421 	add	x1, x1, #0x1, lsl #12
/home/ssysarch/Desktop/nick/jetpack_5/Jetson_Linux_R35.4.1_aarch64/Linux_for_Tegra/sources/tegra/optee-src/nv-optee/optee/optee_os/ldelf/ta_elf.c:849
    14e0:	d1400694 	sub	x20, x20, #0x1, lsl #12
/home/ssysarch/Desktop/nick/jetpack_5/Jetson_Linux_R35.4.1_aarch64/Linux_for_Tegra/sources/tegra/optee-src/nv-optee/optee/optee_os/ldelf/ta_elf.c:850
    14e4:	d1400739 	sub	x25, x25, #0x1, lsl #12
/home/ssysarch/Desktop/nick/jetpack_5/Jetson_Linux_R35.4.1_aarch64/Linux_for_Tegra/sources/tegra/optee-src/nv-optee/optee/optee_os/ldelf/ta_elf.c:851
    14e8:	914006f7 	add	x23, x23, #0x1, lsl #12
/home/ssysarch/Desktop/nick/jetpack_5/Jetson_Linux_R35.4.1_aarch64/Linux_for_Tegra/sources/tegra/optee-src/nv-optee/optee/optee_os/ldelf/ta_elf.c:854
    14ec:	f9400660 	ldr	x0, [x19, #8]
    14f0:	b5000280 	cbnz	x0, 1540 <populate_segments+0x314>
/home/ssysarch/Desktop/nick/jetpack_5/Jetson_Linux_R35.4.1_aarch64/Linux_for_Tegra/sources/tegra/optee-src/nv-optee/optee/optee_os/ldelf/ta_elf.c:855
    14f4:	f90037ff 	str	xzr, [sp, #104]
/home/ssysarch/Desktop/nick/jetpack_5/Jetson_Linux_R35.4.1_aarch64/Linux_for_Tegra/sources/tegra/optee-src/nv-optee/optee/optee_os/ldelf/ta_elf.c:856
    14f8:	97fffc91 	bl	73c <get_pad_begin>
    14fc:	aa0003fc 	mov	x28, x0
/home/ssysarch/Desktop/nick/jetpack_5/Jetson_Linux_R35.4.1_aarch64/Linux_for_Tegra/sources/tegra/optee-src/nv-optee/optee/optee_os/ldelf/ta_elf.c:867
    1500:	f94012a0 	ldr	x0, [x21, #32]
/home/ssysarch/Desktop/nick/jetpack_5/Jetson_Linux_R35.4.1_aarch64/Linux_for_Tegra/sources/tegra/optee-src/nv-optee/optee/optee_os/ldelf/ta_elf.c:870
    1504:	5301041b 	ubfx	w27, w0, #1, #1
    1508:	1100077b 	add	w27, w27, #0x1
/home/ssysarch/Desktop/nick/jetpack_5/Jetson_Linux_R35.4.1_aarch64/Linux_for_Tegra/sources/tegra/optee-src/nv-optee/optee/optee_os/ldelf/ta_elf.c:871
    150c:	36000040 	tbz	w0, #0, 1514 <populate_segments+0x2e8>
/home/ssysarch/Desktop/nick/jetpack_5/Jetson_Linux_R35.4.1_aarch64/Linux_for_Tegra/sources/tegra/optee-src/nv-optee/optee/optee_os/ldelf/ta_elf.c:872
    1510:	321e037b 	orr	w27, w27, #0x4
/home/ssysarch/Desktop/nick/jetpack_5/Jetson_Linux_R35.4.1_aarch64/Linux_for_Tegra/sources/tegra/optee-src/nv-optee/optee/optee_os/ldelf/ta_elf.c:873
    1514:	371001e0 	tbnz	w0, #2, 1550 <populate_segments+0x324>
/home/ssysarch/Desktop/nick/jetpack_5/Jetson_Linux_R35.4.1_aarch64/Linux_for_Tegra/sources/tegra/optee-src/nv-optee/optee/optee_os/ldelf/ta_elf.c:874
    1518:	b0000024 	adrp	x4, 6000 <kprintf.constprop.0+0x4c8>
    151c:	91359884 	add	x4, x4, #0xd66
    1520:	52800023 	mov	w3, #0x1                   	// #1
    1524:	52800022 	mov	w2, #0x1                   	// #1
    1528:	52806d41 	mov	w1, #0x36a                 	// #874
    152c:	d0000020 	adrp	x0, 7000 <trace_ext_prefix+0x509>
    1530:	910e4800 	add	x0, x0, #0x392
    1534:	940014e6 	bl	68cc <trace_printf>
    1538:	129ffea0 	mov	w0, #0xffff000a            	// #-65526
    153c:	17ffffb3 	b	1408 <populate_segments+0x1dc>
/home/ssysarch/Desktop/nick/jetpack_5/Jetson_Linux_R35.4.1_aarch64/Linux_for_Tegra/sources/tegra/optee-src/nv-optee/optee/optee_os/ldelf/ta_elf.c:863
    1540:	8b010001 	add	x1, x0, x1
/home/ssysarch/Desktop/nick/jetpack_5/Jetson_Linux_R35.4.1_aarch64/Linux_for_Tegra/sources/tegra/optee-src/nv-optee/optee/optee_os/ldelf/ta_elf.c:864
    1544:	d280001c 	mov	x28, #0x0                   	// #0
/home/ssysarch/Desktop/nick/jetpack_5/Jetson_Linux_R35.4.1_aarch64/Linux_for_Tegra/sources/tegra/optee-src/nv-optee/optee/optee_os/ldelf/ta_elf.c:863
    1548:	f90037e1 	str	x1, [sp, #104]
/home/ssysarch/Desktop/nick/jetpack_5/Jetson_Linux_R35.4.1_aarch64/Linux_for_Tegra/sources/tegra/optee-src/nv-optee/optee/optee_os/ldelf/ta_elf.c:864
    154c:	17ffffed 	b	1500 <populate_segments+0x2d4>
/home/ssysarch/Desktop/nick/jetpack_5/Jetson_Linux_R35.4.1_aarch64/Linux_for_Tegra/sources/tegra/optee-src/nv-optee/optee/optee_os/ldelf/ta_elf.c:876
    1550:	3608057b 	tbz	w27, #1, 15fc <populate_segments+0x3d0>
/home/ssysarch/Desktop/nick/jetpack_5/Jetson_Linux_R35.4.1_aarch64/Linux_for_Tegra/sources/tegra/optee-src/nv-optee/optee/optee_os/ldelf/ta_elf.c:877
    1554:	aa1803e4 	mov	x4, x24
    1558:	aa1c03e3 	mov	x3, x28
    155c:	aa1603e2 	mov	x2, x22
    1560:	aa1903e0 	mov	x0, x25
    1564:	52800001 	mov	w1, #0x0                   	// #0
    1568:	97fffc3e 	bl	660 <sys_map_zi>
/home/ssysarch/Desktop/nick/jetpack_5/Jetson_Linux_R35.4.1_aarch64/Linux_for_Tegra/sources/tegra/optee-src/nv-optee/optee/optee_os/ldelf/ta_elf.c:879
    156c:	f100039f 	cmp	x28, #0x0
/home/ssysarch/Desktop/nick/jetpack_5/Jetson_Linux_R35.4.1_aarch64/Linux_for_Tegra/sources/tegra/optee-src/nv-optee/optee/optee_os/ldelf/ta_elf.c:877
    1570:	2a0003fa 	mov	w26, w0
/home/ssysarch/Desktop/nick/jetpack_5/Jetson_Linux_R35.4.1_aarch64/Linux_for_Tegra/sources/tegra/optee-src/nv-optee/optee/optee_os/ldelf/ta_elf.c:879
    1574:	129ffe60 	mov	w0, #0xffff000c            	// #-65524
    1578:	7a401340 	ccmp	w26, w0, #0x0, ne  // ne = any
    157c:	54000101 	b.ne	159c <populate_segments+0x370>  // b.any
/home/ssysarch/Desktop/nick/jetpack_5/Jetson_Linux_R35.4.1_aarch64/Linux_for_Tegra/sources/tegra/optee-src/nv-optee/optee/optee_os/ldelf/ta_elf.c:880
    1580:	aa1803e4 	mov	x4, x24
    1584:	aa1603e2 	mov	x2, x22
    1588:	aa1903e0 	mov	x0, x25
    158c:	d2800003 	mov	x3, #0x0                   	// #0
    1590:	52800001 	mov	w1, #0x0                   	// #0
    1594:	97fffc33 	bl	660 <sys_map_zi>
    1598:	2a0003fa 	mov	w26, w0
/home/ssysarch/Desktop/nick/jetpack_5/Jetson_Linux_R35.4.1_aarch64/Linux_for_Tegra/sources/tegra/optee-src/nv-optee/optee/optee_os/ldelf/ta_elf.c:882
    159c:	3400017a 	cbz	w26, 15c8 <populate_segments+0x39c>
/home/ssysarch/Desktop/nick/jetpack_5/Jetson_Linux_R35.4.1_aarch64/Linux_for_Tegra/sources/tegra/optee-src/nv-optee/optee/optee_os/ldelf/ta_elf.c:883
    15a0:	b0000024 	adrp	x4, 6000 <kprintf.constprop.0+0x4c8>
    15a4:	91354484 	add	x4, x4, #0xd51
    15a8:	52800023 	mov	w3, #0x1                   	// #1
    15ac:	52800022 	mov	w2, #0x1                   	// #1
    15b0:	52806e61 	mov	w1, #0x373                 	// #883
/home/ssysarch/Desktop/nick/jetpack_5/Jetson_Linux_R35.4.1_aarch64/Linux_for_Tegra/sources/tegra/optee-src/nv-optee/optee/optee_os/ldelf/ta_elf.c:901
    15b4:	d0000020 	adrp	x0, 7000 <trace_ext_prefix+0x509>
    15b8:	910e4800 	add	x0, x0, #0x392
    15bc:	940014c4 	bl	68cc <trace_printf>
    15c0:	2a1a03e0 	mov	w0, w26
    15c4:	17ffff91 	b	1408 <populate_segments+0x1dc>
/home/ssysarch/Desktop/nick/jetpack_5/Jetson_Linux_R35.4.1_aarch64/Linux_for_Tegra/sources/tegra/optee-src/nv-optee/optee/optee_os/ldelf/ta_elf.c:884
    15c8:	b9410262 	ldr	w2, [x19, #256]
    15cc:	aa1703e3 	mov	x3, x23
    15d0:	f94037e0 	ldr	x0, [sp, #104]
    15d4:	aa1403e1 	mov	x1, x20
    15d8:	97fffc36 	bl	6b0 <sys_copy_from_ta_bin>
    15dc:	2a0003f8 	mov	w24, w0
/home/ssysarch/Desktop/nick/jetpack_5/Jetson_Linux_R35.4.1_aarch64/Linux_for_Tegra/sources/tegra/optee-src/nv-optee/optee/optee_os/ldelf/ta_elf.c:886
    15e0:	34000600 	cbz	w0, 16a0 <populate_segments+0x474>
/home/ssysarch/Desktop/nick/jetpack_5/Jetson_Linux_R35.4.1_aarch64/Linux_for_Tegra/sources/tegra/optee-src/nv-optee/optee/optee_os/ldelf/ta_elf.c:887
    15e4:	b0000024 	adrp	x4, 6000 <kprintf.constprop.0+0x4c8>
    15e8:	91342484 	add	x4, x4, #0xd09
    15ec:	52800023 	mov	w3, #0x1                   	// #1
    15f0:	52800022 	mov	w2, #0x1                   	// #1
    15f4:	52806ee1 	mov	w1, #0x377                 	// #887
    15f8:	17ffff5b 	b	1364 <populate_segments+0x138>
/home/ssysarch/Desktop/nick/jetpack_5/Jetson_Linux_R35.4.1_aarch64/Linux_for_Tegra/sources/tegra/optee-src/nv-optee/optee/optee_os/ldelf/ta_elf.c:889
    15fc:	eb19029f 	cmp	x20, x25
    1600:	54000160 	b.eq	162c <populate_segments+0x400>  // b.none
/home/ssysarch/Desktop/nick/jetpack_5/Jetson_Linux_R35.4.1_aarch64/Linux_for_Tegra/sources/tegra/optee-src/nv-optee/optee/optee_os/ldelf/ta_elf.c:890
    1604:	b0000024 	adrp	x4, 6000 <kprintf.constprop.0+0x4c8>
    1608:	9135fc84 	add	x4, x4, #0xd7f
    160c:	52800023 	mov	w3, #0x1                   	// #1
    1610:	52800022 	mov	w2, #0x1                   	// #1
    1614:	52806f41 	mov	w1, #0x37a                 	// #890
    1618:	d0000020 	adrp	x0, 7000 <trace_ext_prefix+0x509>
    161c:	910e4800 	add	x0, x0, #0x392
    1620:	940014ab 	bl	68cc <trace_printf>
    1624:	129fff40 	mov	w0, #0xffff0005            	// #-65531
    1628:	17ffff78 	b	1408 <populate_segments+0x1dc>
/home/ssysarch/Desktop/nick/jetpack_5/Jetson_Linux_R35.4.1_aarch64/Linux_for_Tegra/sources/tegra/optee-src/nv-optee/optee/optee_os/ldelf/ta_elf.c:892
    162c:	b9410263 	ldr	w3, [x19, #256]
    1630:	aa1803e6 	mov	x6, x24
    1634:	aa1c03e5 	mov	x5, x28
    1638:	aa1703e4 	mov	x4, x23
    163c:	2a1b03e2 	mov	w2, w27
    1640:	aa1403e1 	mov	x1, x20
    1644:	aa1603e0 	mov	x0, x22
    1648:	97fffc13 	bl	694 <sys_map_ta_bin>
    164c:	2a0003fa 	mov	w26, w0
/home/ssysarch/Desktop/nick/jetpack_5/Jetson_Linux_R35.4.1_aarch64/Linux_for_Tegra/sources/tegra/optee-src/nv-optee/optee/optee_os/ldelf/ta_elf.c:895
    1650:	f100039f 	cmp	x28, #0x0
    1654:	129ffe60 	mov	w0, #0xffff000c            	// #-65524
    1658:	7a401340 	ccmp	w26, w0, #0x0, ne  // ne = any
    165c:	54000141 	b.ne	1684 <populate_segments+0x458>  // b.any
/home/ssysarch/Desktop/nick/jetpack_5/Jetson_Linux_R35.4.1_aarch64/Linux_for_Tegra/sources/tegra/optee-src/nv-optee/optee/optee_os/ldelf/ta_elf.c:896
    1660:	b9410263 	ldr	w3, [x19, #256]
    1664:	aa1803e6 	mov	x6, x24
    1668:	aa1703e4 	mov	x4, x23
    166c:	2a1b03e2 	mov	w2, w27
    1670:	aa1403e1 	mov	x1, x20
    1674:	aa1603e0 	mov	x0, x22
    1678:	d2800005 	mov	x5, #0x0                   	// #0
    167c:	97fffc06 	bl	694 <sys_map_ta_bin>
    1680:	2a0003fa 	mov	w26, w0
/home/ssysarch/Desktop/nick/jetpack_5/Jetson_Linux_R35.4.1_aarch64/Linux_for_Tegra/sources/tegra/optee-src/nv-optee/optee/optee_os/ldelf/ta_elf.c:900
    1684:	340000fa 	cbz	w26, 16a0 <populate_segments+0x474>
/home/ssysarch/Desktop/nick/jetpack_5/Jetson_Linux_R35.4.1_aarch64/Linux_for_Tegra/sources/tegra/optee-src/nv-optee/optee/optee_os/ldelf/ta_elf.c:901
    1688:	b0000024 	adrp	x4, 6000 <kprintf.constprop.0+0x4c8>
    168c:	912cd484 	add	x4, x4, #0xb35
    1690:	52800023 	mov	w3, #0x1                   	// #1
    1694:	52800022 	mov	w2, #0x1                   	// #1
    1698:	528070a1 	mov	w1, #0x385                 	// #901
    169c:	17ffffc6 	b	15b4 <populate_segments+0x388>
/home/ssysarch/Desktop/nick/jetpack_5/Jetson_Linux_R35.4.1_aarch64/Linux_for_Tegra/sources/tegra/optee-src/nv-optee/optee/optee_os/ldelf/ta_elf.c:904
    16a0:	f9400661 	ldr	x1, [x19, #8]
    16a4:	f94037e0 	ldr	x0, [sp, #104]
    16a8:	b5000041 	cbnz	x1, 16b0 <populate_segments+0x484>
/home/ssysarch/Desktop/nick/jetpack_5/Jetson_Linux_R35.4.1_aarch64/Linux_for_Tegra/sources/tegra/optee-src/nv-optee/optee/optee_os/ldelf/ta_elf.c:905
    16ac:	f9000660 	str	x0, [x19, #8]
roundup():
/home/ssysarch/Desktop/nick/jetpack_5/Jetson_Linux_R35.4.1_aarch64/Linux_for_Tegra/sources/tegra/optee-src/nv-optee/optee/optee_os/ldelf/ta_elf.c:525
    16b0:	913ffc00 	add	x0, x0, #0xfff
    16b4:	8b190000 	add	x0, x0, x25
    16b8:	9274cc00 	and	x0, x0, #0xfffffffffffff000
populate_segments():
/home/ssysarch/Desktop/nick/jetpack_5/Jetson_Linux_R35.4.1_aarch64/Linux_for_Tegra/sources/tegra/optee-src/nv-optee/optee/optee_os/ldelf/ta_elf.c:906
    16bc:	f9000a60 	str	x0, [x19, #16]
/home/ssysarch/Desktop/nick/jetpack_5/Jetson_Linux_R35.4.1_aarch64/Linux_for_Tegra/sources/tegra/optee-src/nv-optee/optee/optee_os/ldelf/ta_elf.c:907
    16c0:	f9400e60 	ldr	x0, [x19, #24]
    16c4:	8b140014 	add	x20, x0, x20
    16c8:	f9000e74 	str	x20, [x19, #24]
    16cc:	17ffff56 	b	1424 <populate_segments+0x1f8>

00000000000016d0 <get_next_in_order.isra.0>:
get_next_in_order():
/home/ssysarch/Desktop/nick/jetpack_5/Jetson_Linux_R35.4.1_aarch64/Linux_for_Tegra/sources/tegra/optee-src/nv-optee/optee/optee_os/ldelf/ta_elf.c:1410
    16d0:	f9400024 	ldr	x4, [x1]
/home/ssysarch/Desktop/nick/jetpack_5/Jetson_Linux_R35.4.1_aarch64/Linux_for_Tegra/sources/tegra/optee-src/nv-optee/optee/optee_os/ldelf/ta_elf.c:1411
    16d4:	f9400045 	ldr	x5, [x2]
/home/ssysarch/Desktop/nick/jetpack_5/Jetson_Linux_R35.4.1_aarch64/Linux_for_Tegra/sources/tegra/optee-src/nv-optee/optee/optee_os/ldelf/ta_elf.c:1412
    16d8:	f100009f 	cmp	x4, #0x0
    16dc:	1a9f07e7 	cset	w7, ne  // ne = any
    16e0:	f10000bf 	cmp	x5, #0x0
    16e4:	1a9f07e6 	cset	w6, ne  // ne = any
    16e8:	6b0600ff 	cmp	w7, w6
    16ec:	54000120 	b.eq	1710 <get_next_in_order.isra.0+0x40>  // b.none
/home/ssysarch/Desktop/nick/jetpack_5/Jetson_Linux_R35.4.1_aarch64/Linux_for_Tegra/sources/tegra/optee-src/nv-optee/optee/optee_os/ldelf/ta_elf.c:1398
    16f0:	a9bf7bfd 	stp	x29, x30, [sp, #-16]!
/home/ssysarch/Desktop/nick/jetpack_5/Jetson_Linux_R35.4.1_aarch64/Linux_for_Tegra/sources/tegra/optee-src/nv-optee/optee/optee_os/ldelf/ta_elf.c:1412
    16f4:	d0000022 	adrp	x2, 7000 <trace_ext_prefix+0x509>
    16f8:	9111c442 	add	x2, x2, #0x471
/home/ssysarch/Desktop/nick/jetpack_5/Jetson_Linux_R35.4.1_aarch64/Linux_for_Tegra/sources/tegra/optee-src/nv-optee/optee/optee_os/ldelf/ta_elf.c:1398
    16fc:	910003fd 	mov	x29, sp
/home/ssysarch/Desktop/nick/jetpack_5/Jetson_Linux_R35.4.1_aarch64/Linux_for_Tegra/sources/tegra/optee-src/nv-optee/optee/optee_os/ldelf/ta_elf.c:1412
    1700:	b0000020 	adrp	x0, 6000 <kprintf.constprop.0+0x4c8>
    1704:	91366400 	add	x0, x0, #0xd99
    1708:	5280b081 	mov	w1, #0x584                 	// #1412
    170c:	97fffdbf 	bl	e08 <_assert_trap.constprop.0>
/home/ssysarch/Desktop/nick/jetpack_5/Jetson_Linux_R35.4.1_aarch64/Linux_for_Tegra/sources/tegra/optee-src/nv-optee/optee/optee_os/ldelf/ta_elf.c:1414
    1710:	b40000c5 	cbz	x5, 1728 <get_next_in_order.isra.0+0x58>
/home/ssysarch/Desktop/nick/jetpack_5/Jetson_Linux_R35.4.1_aarch64/Linux_for_Tegra/sources/tegra/optee-src/nv-optee/optee/optee_os/ldelf/ta_elf.c:1415
    1714:	f9401ca5 	ldr	x5, [x5, #56]
/home/ssysarch/Desktop/nick/jetpack_5/Jetson_Linux_R35.4.1_aarch64/Linux_for_Tegra/sources/tegra/optee-src/nv-optee/optee/optee_os/ldelf/ta_elf.c:1416
    1718:	b4000085 	cbz	x5, 1728 <get_next_in_order.isra.0+0x58>
/home/ssysarch/Desktop/nick/jetpack_5/Jetson_Linux_R35.4.1_aarch64/Linux_for_Tegra/sources/tegra/optee-src/nv-optee/optee/optee_os/ldelf/ta_elf.c:1417
    171c:	f9000045 	str	x5, [x2]
/home/ssysarch/Desktop/nick/jetpack_5/Jetson_Linux_R35.4.1_aarch64/Linux_for_Tegra/sources/tegra/optee-src/nv-optee/optee/optee_os/ldelf/ta_elf.c:1442
    1720:	52800020 	mov	w0, #0x1                   	// #1
    1724:	d65f03c0 	ret
/home/ssysarch/Desktop/nick/jetpack_5/Jetson_Linux_R35.4.1_aarch64/Linux_for_Tegra/sources/tegra/optee-src/nv-optee/optee/optee_os/ldelf/ta_elf.c:1422
    1728:	b40001a4 	cbz	x4, 175c <get_next_in_order.isra.0+0x8c>
/home/ssysarch/Desktop/nick/jetpack_5/Jetson_Linux_R35.4.1_aarch64/Linux_for_Tegra/sources/tegra/optee-src/nv-optee/optee/optee_os/ldelf/ta_elf.c:1423
    172c:	f9400488 	ldr	x8, [x4, #8]
/home/ssysarch/Desktop/nick/jetpack_5/Jetson_Linux_R35.4.1_aarch64/Linux_for_Tegra/sources/tegra/optee-src/nv-optee/optee/optee_os/ldelf/ta_elf.c:1407
    1730:	d2800006 	mov	x6, #0x0                   	// #0
/home/ssysarch/Desktop/nick/jetpack_5/Jetson_Linux_R35.4.1_aarch64/Linux_for_Tegra/sources/tegra/optee-src/nv-optee/optee/optee_os/ldelf/ta_elf.c:1404
    1734:	d2800005 	mov	x5, #0x0                   	// #0
/home/ssysarch/Desktop/nick/jetpack_5/Jetson_Linux_R35.4.1_aarch64/Linux_for_Tegra/sources/tegra/optee-src/nv-optee/optee/optee_os/ldelf/ta_elf.c:1427
    1738:	f9400004 	ldr	x4, [x0]
/home/ssysarch/Desktop/nick/jetpack_5/Jetson_Linux_R35.4.1_aarch64/Linux_for_Tegra/sources/tegra/optee-src/nv-optee/optee/optee_os/ldelf/ta_elf.c:1426
    173c:	d2800000 	mov	x0, #0x0                   	// #0
/home/ssysarch/Desktop/nick/jetpack_5/Jetson_Linux_R35.4.1_aarch64/Linux_for_Tegra/sources/tegra/optee-src/nv-optee/optee/optee_os/ldelf/ta_elf.c:1427
    1740:	b5000124 	cbnz	x4, 1764 <get_next_in_order.isra.0+0x94>
/home/ssysarch/Desktop/nick/jetpack_5/Jetson_Linux_R35.4.1_aarch64/Linux_for_Tegra/sources/tegra/optee-src/nv-optee/optee/optee_os/ldelf/ta_elf.c:1436
    1744:	b40002c0 	cbz	x0, 179c <get_next_in_order.isra.0+0xcc>
/home/ssysarch/Desktop/nick/jetpack_5/Jetson_Linux_R35.4.1_aarch64/Linux_for_Tegra/sources/tegra/optee-src/nv-optee/optee/optee_os/ldelf/ta_elf.c:1439
    1748:	f9000020 	str	x0, [x1]
/home/ssysarch/Desktop/nick/jetpack_5/Jetson_Linux_R35.4.1_aarch64/Linux_for_Tegra/sources/tegra/optee-src/nv-optee/optee/optee_os/ldelf/ta_elf.c:1440
    174c:	f9405000 	ldr	x0, [x0, #160]
    1750:	f9000040 	str	x0, [x2]
/home/ssysarch/Desktop/nick/jetpack_5/Jetson_Linux_R35.4.1_aarch64/Linux_for_Tegra/sources/tegra/optee-src/nv-optee/optee/optee_os/ldelf/ta_elf.c:1441
    1754:	f9000065 	str	x5, [x3]
    1758:	17fffff2 	b	1720 <get_next_in_order.isra.0+0x50>
/home/ssysarch/Desktop/nick/jetpack_5/Jetson_Linux_R35.4.1_aarch64/Linux_for_Tegra/sources/tegra/optee-src/nv-optee/optee/optee_os/ldelf/ta_elf.c:1405
    175c:	d2800008 	mov	x8, #0x0                   	// #0
    1760:	17fffff4 	b	1730 <get_next_in_order.isra.0+0x60>
/home/ssysarch/Desktop/nick/jetpack_5/Jetson_Linux_R35.4.1_aarch64/Linux_for_Tegra/sources/tegra/optee-src/nv-optee/optee/optee_os/ldelf/ta_elf.c:1428
    1764:	f9400487 	ldr	x7, [x4, #8]
    1768:	eb0800ff 	cmp	x7, x8
    176c:	540000c9 	b.ls	1784 <get_next_in_order.isra.0+0xb4>  // b.plast
/home/ssysarch/Desktop/nick/jetpack_5/Jetson_Linux_R35.4.1_aarch64/Linux_for_Tegra/sources/tegra/optee-src/nv-optee/optee/optee_os/ldelf/ta_elf.c:1429
    1770:	b4000100 	cbz	x0, 1790 <get_next_in_order.isra.0+0xc0>
    1774:	f9400409 	ldr	x9, [x0, #8]
/home/ssysarch/Desktop/nick/jetpack_5/Jetson_Linux_R35.4.1_aarch64/Linux_for_Tegra/sources/tegra/optee-src/nv-optee/optee/optee_os/ldelf/ta_elf.c:1431
    1778:	eb0900ff 	cmp	x7, x9
    177c:	9a8620a5 	csel	x5, x5, x6, cs  // cs = hs, nlast
    1780:	9a842000 	csel	x0, x0, x4, cs  // cs = hs, nlast
/home/ssysarch/Desktop/nick/jetpack_5/Jetson_Linux_R35.4.1_aarch64/Linux_for_Tegra/sources/tegra/optee-src/nv-optee/optee/optee_os/ldelf/ta_elf.c:1434
    1784:	910004c6 	add	x6, x6, #0x1
/home/ssysarch/Desktop/nick/jetpack_5/Jetson_Linux_R35.4.1_aarch64/Linux_for_Tegra/sources/tegra/optee-src/nv-optee/optee/optee_os/ldelf/ta_elf.c:1427
    1788:	f9409084 	ldr	x4, [x4, #288]
    178c:	17ffffed 	b	1740 <get_next_in_order.isra.0+0x70>
/home/ssysarch/Desktop/nick/jetpack_5/Jetson_Linux_R35.4.1_aarch64/Linux_for_Tegra/sources/tegra/optee-src/nv-optee/optee/optee_os/ldelf/ta_elf.c:1431
    1790:	aa0603e5 	mov	x5, x6
    1794:	aa0403e0 	mov	x0, x4
    1798:	17fffffb 	b	1784 <get_next_in_order.isra.0+0xb4>
/home/ssysarch/Desktop/nick/jetpack_5/Jetson_Linux_R35.4.1_aarch64/Linux_for_Tegra/sources/tegra/optee-src/nv-optee/optee/optee_os/ldelf/ta_elf.c:1437
    179c:	52800000 	mov	w0, #0x0                   	// #0
/home/ssysarch/Desktop/nick/jetpack_5/Jetson_Linux_R35.4.1_aarch64/Linux_for_Tegra/sources/tegra/optee-src/nv-optee/optee/optee_os/ldelf/ta_elf.c:1443
    17a0:	d65f03c0 	ret

00000000000017a4 <save_soname_from_segment>:
save_soname_from_segment():
/home/ssysarch/Desktop/nick/jetpack_5/Jetson_Linux_R35.4.1_aarch64/Linux_for_Tegra/sources/tegra/optee-src/nv-optee/optee/optee_os/ldelf/ta_elf.c:340
    17a4:	a9be7bfd 	stp	x29, x30, [sp, #-32]!
/home/ssysarch/Desktop/nick/jetpack_5/Jetson_Linux_R35.4.1_aarch64/Linux_for_Tegra/sources/tegra/optee-src/nv-optee/optee/optee_os/ldelf/ta_elf.c:348
    17a8:	7100083f 	cmp	w1, #0x2
/home/ssysarch/Desktop/nick/jetpack_5/Jetson_Linux_R35.4.1_aarch64/Linux_for_Tegra/sources/tegra/optee-src/nv-optee/optee/optee_os/ldelf/ta_elf.c:340
    17ac:	910003fd 	mov	x29, sp
/home/ssysarch/Desktop/nick/jetpack_5/Jetson_Linux_R35.4.1_aarch64/Linux_for_Tegra/sources/tegra/optee-src/nv-optee/optee/optee_os/ldelf/ta_elf.c:344
    17b0:	b90017ff 	str	wzr, [sp, #20]
/home/ssysarch/Desktop/nick/jetpack_5/Jetson_Linux_R35.4.1_aarch64/Linux_for_Tegra/sources/tegra/optee-src/nv-optee/optee/optee_os/ldelf/ta_elf.c:345
    17b4:	f9000fff 	str	xzr, [sp, #24]
/home/ssysarch/Desktop/nick/jetpack_5/Jetson_Linux_R35.4.1_aarch64/Linux_for_Tegra/sources/tegra/optee-src/nv-optee/optee/optee_os/ldelf/ta_elf.c:348
    17b8:	54000601 	b.ne	1878 <save_soname_from_segment+0xd4>  // b.any
    17bc:	aa0003e7 	mov	x7, x0
/home/ssysarch/Desktop/nick/jetpack_5/Jetson_Linux_R35.4.1_aarch64/Linux_for_Tegra/sources/tegra/optee-src/nv-optee/optee/optee_os/ldelf/ta_elf.c:351
    17c0:	39400400 	ldrb	w0, [x0, #1]
/home/ssysarch/Desktop/nick/jetpack_5/Jetson_Linux_R35.4.1_aarch64/Linux_for_Tegra/sources/tegra/optee-src/nv-optee/optee/optee_os/ldelf/ta_elf.c:354
    17c4:	d2800106 	mov	x6, #0x8                   	// #8
/home/ssysarch/Desktop/nick/jetpack_5/Jetson_Linux_R35.4.1_aarch64/Linux_for_Tegra/sources/tegra/optee-src/nv-optee/optee/optee_os/ldelf/ta_elf.c:359
    17c8:	d2800008 	mov	x8, #0x0                   	// #0
/home/ssysarch/Desktop/nick/jetpack_5/Jetson_Linux_R35.4.1_aarch64/Linux_for_Tegra/sources/tegra/optee-src/nv-optee/optee/optee_os/ldelf/ta_elf.c:354
    17cc:	7100001f 	cmp	w0, #0x0
    17d0:	d2800200 	mov	x0, #0x10                  	// #16
    17d4:	9a8010c6 	csel	x6, x6, x0, ne  // ne = any
/home/ssysarch/Desktop/nick/jetpack_5/Jetson_Linux_R35.4.1_aarch64/Linux_for_Tegra/sources/tegra/optee-src/nv-optee/optee/optee_os/ldelf/ta_elf.c:356
    17d8:	9ac6086a 	udiv	x10, x3, x6
    17dc:	9b068d46 	msub	x6, x10, x6, x3
    17e0:	b5000106 	cbnz	x6, 1800 <save_soname_from_segment+0x5c>
    17e4:	aa0203e9 	mov	x9, x2
/home/ssysarch/Desktop/nick/jetpack_5/Jetson_Linux_R35.4.1_aarch64/Linux_for_Tegra/sources/tegra/optee-src/nv-optee/optee/optee_os/ldelf/ta_elf.c:360
    17e8:	910063e4 	add	x4, sp, #0x18
    17ec:	910053e3 	add	x3, sp, #0x14
/home/ssysarch/Desktop/nick/jetpack_5/Jetson_Linux_R35.4.1_aarch64/Linux_for_Tegra/sources/tegra/optee-src/nv-optee/optee/optee_os/ldelf/ta_elf.c:359 (discriminator 1)
    17f0:	eb0a011f 	cmp	x8, x10
    17f4:	54000121 	b.ne	1818 <save_soname_from_segment+0x74>  // b.any
/home/ssysarch/Desktop/nick/jetpack_5/Jetson_Linux_R35.4.1_aarch64/Linux_for_Tegra/sources/tegra/optee-src/nv-optee/optee/optee_os/ldelf/ta_elf.c:346
    17f8:	d2800008 	mov	x8, #0x0                   	// #0
    17fc:	14000011 	b	1840 <save_soname_from_segment+0x9c>
/home/ssysarch/Desktop/nick/jetpack_5/Jetson_Linux_R35.4.1_aarch64/Linux_for_Tegra/sources/tegra/optee-src/nv-optee/optee/optee_os/ldelf/ta_elf.c:356 (discriminator 1)
    1800:	d0000022 	adrp	x2, 7000 <trace_ext_prefix+0x509>
    1804:	910bf042 	add	x2, x2, #0x2fc
    1808:	b0000020 	adrp	x0, 6000 <kprintf.constprop.0+0x4c8>
    180c:	91320000 	add	x0, x0, #0xc80
    1810:	52802c81 	mov	w1, #0x164                 	// #356
    1814:	97fffd7d 	bl	e08 <_assert_trap.constprop.0>
/home/ssysarch/Desktop/nick/jetpack_5/Jetson_Linux_R35.4.1_aarch64/Linux_for_Tegra/sources/tegra/optee-src/nv-optee/optee/optee_os/ldelf/ta_elf.c:360
    1818:	aa0703e0 	mov	x0, x7
    181c:	aa0803e2 	mov	x2, x8
    1820:	aa0903e1 	mov	x1, x9
    1824:	97fffcbf 	bl	b20 <read_dyn>
/home/ssysarch/Desktop/nick/jetpack_5/Jetson_Linux_R35.4.1_aarch64/Linux_for_Tegra/sources/tegra/optee-src/nv-optee/optee/optee_os/ldelf/ta_elf.c:361
    1828:	b94017e0 	ldr	w0, [sp, #20]
    182c:	7100141f 	cmp	w0, #0x5
    1830:	54000281 	b.ne	1880 <save_soname_from_segment+0xdc>  // b.any
/home/ssysarch/Desktop/nick/jetpack_5/Jetson_Linux_R35.4.1_aarch64/Linux_for_Tegra/sources/tegra/optee-src/nv-optee/optee/optee_os/ldelf/ta_elf.c:362
    1834:	f94004e8 	ldr	x8, [x7, #8]
    1838:	f9400fe0 	ldr	x0, [sp, #24]
    183c:	8b000108 	add	x8, x8, x0
/home/ssysarch/Desktop/nick/jetpack_5/Jetson_Linux_R35.4.1_aarch64/Linux_for_Tegra/sources/tegra/optee-src/nv-optee/optee/optee_os/ldelf/ta_elf.c:367
    1840:	910063e4 	add	x4, sp, #0x18
    1844:	910053e3 	add	x3, sp, #0x14
/home/ssysarch/Desktop/nick/jetpack_5/Jetson_Linux_R35.4.1_aarch64/Linux_for_Tegra/sources/tegra/optee-src/nv-optee/optee/optee_os/ldelf/ta_elf.c:366 (discriminator 1)
    1848:	eb0a00df 	cmp	x6, x10
    184c:	54000160 	b.eq	1878 <save_soname_from_segment+0xd4>  // b.none
/home/ssysarch/Desktop/nick/jetpack_5/Jetson_Linux_R35.4.1_aarch64/Linux_for_Tegra/sources/tegra/optee-src/nv-optee/optee/optee_os/ldelf/ta_elf.c:367
    1850:	aa0703e0 	mov	x0, x7
    1854:	aa0603e2 	mov	x2, x6
    1858:	aa0903e1 	mov	x1, x9
    185c:	97fffcb1 	bl	b20 <read_dyn>
/home/ssysarch/Desktop/nick/jetpack_5/Jetson_Linux_R35.4.1_aarch64/Linux_for_Tegra/sources/tegra/optee-src/nv-optee/optee/optee_os/ldelf/ta_elf.c:368
    1860:	b94017e0 	ldr	w0, [sp, #20]
    1864:	7100381f 	cmp	w0, #0xe
    1868:	54000101 	b.ne	1888 <save_soname_from_segment+0xe4>  // b.any
/home/ssysarch/Desktop/nick/jetpack_5/Jetson_Linux_R35.4.1_aarch64/Linux_for_Tegra/sources/tegra/optee-src/nv-optee/optee/optee_os/ldelf/ta_elf.c:369
    186c:	f9400fe0 	ldr	x0, [sp, #24]
    1870:	8b000108 	add	x8, x8, x0
    1874:	f9004ce8 	str	x8, [x7, #152]
/home/ssysarch/Desktop/nick/jetpack_5/Jetson_Linux_R35.4.1_aarch64/Linux_for_Tegra/sources/tegra/optee-src/nv-optee/optee/optee_os/ldelf/ta_elf.c:373
    1878:	a8c27bfd 	ldp	x29, x30, [sp], #32
    187c:	d65f03c0 	ret
/home/ssysarch/Desktop/nick/jetpack_5/Jetson_Linux_R35.4.1_aarch64/Linux_for_Tegra/sources/tegra/optee-src/nv-optee/optee/optee_os/ldelf/ta_elf.c:359 (discriminator 2)
    1880:	91000508 	add	x8, x8, #0x1
    1884:	17ffffdb 	b	17f0 <save_soname_from_segment+0x4c>
/home/ssysarch/Desktop/nick/jetpack_5/Jetson_Linux_R35.4.1_aarch64/Linux_for_Tegra/sources/tegra/optee-src/nv-optee/optee/optee_os/ldelf/ta_elf.c:366 (discriminator 2)
    1888:	910004c6 	add	x6, x6, #0x1
    188c:	17ffffef 	b	1848 <save_soname_from_segment+0xa4>

0000000000001890 <save_symtab>:
save_symtab():
/home/ssysarch/Desktop/nick/jetpack_5/Jetson_Linux_R35.4.1_aarch64/Linux_for_Tegra/sources/tegra/optee-src/nv-optee/optee/optee_os/ldelf/ta_elf.c:449
    1890:	a9bd7bfd 	stp	x29, x30, [sp, #-48]!
    1894:	910003fd 	mov	x29, sp
    1898:	b9404402 	ldr	w2, [x0, #68]
    189c:	a90153f3 	stp	x19, x20, [sp, #16]
    18a0:	aa0003f3 	mov	x19, x0
    18a4:	a9025bf5 	stp	x21, x22, [sp, #32]
    18a8:	f9402c15 	ldr	x21, [x0, #88]
/home/ssysarch/Desktop/nick/jetpack_5/Jetson_Linux_R35.4.1_aarch64/Linux_for_Tegra/sources/tegra/optee-src/nv-optee/optee/optee_os/ldelf/ta_elf.c:452
    18ac:	39400400 	ldrb	w0, [x0, #1]
    18b0:	35000340 	cbnz	w0, 1918 <save_symtab+0x88>
    18b4:	aa1503e0 	mov	x0, x21
/home/ssysarch/Desktop/nick/jetpack_5/Jetson_Linux_R35.4.1_aarch64/Linux_for_Tegra/sources/tegra/optee-src/nv-optee/optee/optee_os/ldelf/ta_elf.c:464
    18b8:	d2800001 	mov	x1, #0x0                   	// #0
/home/ssysarch/Desktop/nick/jetpack_5/Jetson_Linux_R35.4.1_aarch64/Linux_for_Tegra/sources/tegra/optee-src/nv-optee/optee/optee_os/ldelf/ta_elf.c:464 (discriminator 1)
    18bc:	eb02003f 	cmp	x1, x2
    18c0:	54000e42 	b.cs	1a88 <save_symtab+0x1f8>  // b.hs, b.nlast
/home/ssysarch/Desktop/nick/jetpack_5/Jetson_Linux_R35.4.1_aarch64/Linux_for_Tegra/sources/tegra/optee-src/nv-optee/optee/optee_os/ldelf/ta_elf.c:465
    18c4:	aa0003f6 	mov	x22, x0
    18c8:	91010000 	add	x0, x0, #0x40
    18cc:	b85c4003 	ldur	w3, [x0, #-60]
    18d0:	71002c7f 	cmp	w3, #0xb
    18d4:	54001541 	b.ne	1b7c <save_symtab+0x2ec>  // b.any
e64_save_symtab():
/home/ssysarch/Desktop/nick/jetpack_5/Jetson_Linux_R35.4.1_aarch64/Linux_for_Tegra/sources/tegra/optee-src/nv-optee/optee/optee_os/ldelf/ta_elf.c:425
    18d8:	f9400665 	ldr	x5, [x19, #8]
    18dc:	f9400ac2 	ldr	x2, [x22, #16]
/home/ssysarch/Desktop/nick/jetpack_5/Jetson_Linux_R35.4.1_aarch64/Linux_for_Tegra/sources/tegra/optee-src/nv-optee/optee/optee_os/ldelf/ta_elf.c:423
    18e0:	b9402ad4 	ldr	w20, [x22, #40]
/home/ssysarch/Desktop/nick/jetpack_5/Jetson_Linux_R35.4.1_aarch64/Linux_for_Tegra/sources/tegra/optee-src/nv-optee/optee/optee_os/ldelf/ta_elf.c:425
    18e4:	8b050042 	add	x2, x2, x5
    18e8:	f9003262 	str	x2, [x19, #96]
/home/ssysarch/Desktop/nick/jetpack_5/Jetson_Linux_R35.4.1_aarch64/Linux_for_Tegra/sources/tegra/optee-src/nv-optee/optee/optee_os/ldelf/ta_elf.c:428
    18ec:	f240085f 	tst	x2, #0x7
    18f0:	54000f40 	b.eq	1ad8 <save_symtab+0x248>  // b.none
/home/ssysarch/Desktop/nick/jetpack_5/Jetson_Linux_R35.4.1_aarch64/Linux_for_Tegra/sources/tegra/optee-src/nv-optee/optee/optee_os/ldelf/ta_elf.c:429
    18f4:	aa0203e5 	mov	x5, x2
    18f8:	b0000024 	adrp	x4, 6000 <kprintf.constprop.0+0x4c8>
    18fc:	91394c84 	add	x4, x4, #0xe53
    1900:	d0000020 	adrp	x0, 7000 <trace_ext_prefix+0x509>
    1904:	910c9400 	add	x0, x0, #0x325
    1908:	52800023 	mov	w3, #0x1                   	// #1
    190c:	52800022 	mov	w2, #0x1                   	// #1
    1910:	528035a1 	mov	w1, #0x1ad                 	// #429
    1914:	1400002f 	b	19d0 <save_symtab+0x140>
    1918:	aa1503e0 	mov	x0, x21
save_symtab():
/home/ssysarch/Desktop/nick/jetpack_5/Jetson_Linux_R35.4.1_aarch64/Linux_for_Tegra/sources/tegra/optee-src/nv-optee/optee/optee_os/ldelf/ta_elf.c:455
    191c:	d2800001 	mov	x1, #0x0                   	// #0
/home/ssysarch/Desktop/nick/jetpack_5/Jetson_Linux_R35.4.1_aarch64/Linux_for_Tegra/sources/tegra/optee-src/nv-optee/optee/optee_os/ldelf/ta_elf.c:455 (discriminator 1)
    1920:	eb02003f 	cmp	x1, x2
    1924:	540002e3 	b.cc	1980 <save_symtab+0xf0>  // b.lo, b.ul, b.last
save_hashtab():
/home/ssysarch/Desktop/nick/jetpack_5/Jetson_Linux_R35.4.1_aarch64/Linux_for_Tegra/sources/tegra/optee-src/nv-optee/optee/optee_os/ldelf/ta_elf.c:302
    1928:	f9402e60 	ldr	x0, [x19, #88]
/home/ssysarch/Desktop/nick/jetpack_5/Jetson_Linux_R35.4.1_aarch64/Linux_for_Tegra/sources/tegra/optee-src/nv-optee/optee/optee_os/ldelf/ta_elf.c:308
    192c:	529ffec5 	mov	w5, #0xfff6                	// #65526
    1930:	72adffe5 	movk	w5, #0x6fff, lsl #16
/home/ssysarch/Desktop/nick/jetpack_5/Jetson_Linux_R35.4.1_aarch64/Linux_for_Tegra/sources/tegra/optee-src/nv-optee/optee/optee_os/ldelf/ta_elf.c:302
    1934:	b9404664 	ldr	w4, [x19, #68]
    1938:	91001000 	add	x0, x0, #0x4
    193c:	d2800002 	mov	x2, #0x0                   	// #0
    1940:	eb04005f 	cmp	x2, x4
    1944:	54001203 	b.cc	1b84 <save_symtab+0x2f4>  // b.lo, b.ul, b.last
/home/ssysarch/Desktop/nick/jetpack_5/Jetson_Linux_R35.4.1_aarch64/Linux_for_Tegra/sources/tegra/optee-src/nv-optee/optee/optee_os/ldelf/ta_elf.c:329
    1948:	f9404261 	ldr	x1, [x19, #128]
    194c:	b5001481 	cbnz	x1, 1bdc <save_symtab+0x34c>
/home/ssysarch/Desktop/nick/jetpack_5/Jetson_Linux_R35.4.1_aarch64/Linux_for_Tegra/sources/tegra/optee-src/nv-optee/optee/optee_os/ldelf/ta_elf.c:334
    1950:	f9404665 	ldr	x5, [x19, #136]
    1954:	b40018e5 	cbz	x5, 1c70 <save_symtab+0x3e0>
check_gnu_hashtab():
/home/ssysarch/Desktop/nick/jetpack_5/Jetson_Linux_R35.4.1_aarch64/Linux_for_Tegra/sources/tegra/optee-src/nv-optee/optee/optee_os/ldelf/ta_elf.c:274
    1958:	f24004bf 	tst	x5, #0x3
    195c:	54001520 	b.eq	1c00 <save_symtab+0x370>  // b.none
/home/ssysarch/Desktop/nick/jetpack_5/Jetson_Linux_R35.4.1_aarch64/Linux_for_Tegra/sources/tegra/optee-src/nv-optee/optee/optee_os/ldelf/ta_elf.c:275
    1960:	b0000024 	adrp	x4, 6000 <kprintf.constprop.0+0x4c8>
    1964:	913bdc84 	add	x4, x4, #0xef7
    1968:	d0000020 	adrp	x0, 7000 <trace_ext_prefix+0x509>
    196c:	910ba800 	add	x0, x0, #0x2ea
    1970:	52800023 	mov	w3, #0x1                   	// #1
    1974:	52800022 	mov	w2, #0x1                   	// #1
    1978:	52802261 	mov	w1, #0x113                 	// #275
    197c:	14000015 	b	19d0 <save_symtab+0x140>
save_symtab():
/home/ssysarch/Desktop/nick/jetpack_5/Jetson_Linux_R35.4.1_aarch64/Linux_for_Tegra/sources/tegra/optee-src/nv-optee/optee/optee_os/ldelf/ta_elf.c:456
    1980:	aa0003f6 	mov	x22, x0
    1984:	9100a000 	add	x0, x0, #0x28
    1988:	b85dc003 	ldur	w3, [x0, #-36]
    198c:	71002c7f 	cmp	w3, #0xb
    1990:	54000a01 	b.ne	1ad0 <save_symtab+0x240>  // b.any
e32_save_symtab():
/home/ssysarch/Desktop/nick/jetpack_5/Jetson_Linux_R35.4.1_aarch64/Linux_for_Tegra/sources/tegra/optee-src/nv-optee/optee/optee_os/ldelf/ta_elf.c:401
    1994:	f9400665 	ldr	x5, [x19, #8]
    1998:	b9400ec2 	ldr	w2, [x22, #12]
/home/ssysarch/Desktop/nick/jetpack_5/Jetson_Linux_R35.4.1_aarch64/Linux_for_Tegra/sources/tegra/optee-src/nv-optee/optee/optee_os/ldelf/ta_elf.c:399
    199c:	b9401ad4 	ldr	w20, [x22, #24]
/home/ssysarch/Desktop/nick/jetpack_5/Jetson_Linux_R35.4.1_aarch64/Linux_for_Tegra/sources/tegra/optee-src/nv-optee/optee/optee_os/ldelf/ta_elf.c:401
    19a0:	8b050042 	add	x2, x2, x5
    19a4:	f9003262 	str	x2, [x19, #96]
/home/ssysarch/Desktop/nick/jetpack_5/Jetson_Linux_R35.4.1_aarch64/Linux_for_Tegra/sources/tegra/optee-src/nv-optee/optee/optee_os/ldelf/ta_elf.c:402
    19a8:	f240045f 	tst	x2, #0x3
    19ac:	54000160 	b.eq	19d8 <save_symtab+0x148>  // b.none
/home/ssysarch/Desktop/nick/jetpack_5/Jetson_Linux_R35.4.1_aarch64/Linux_for_Tegra/sources/tegra/optee-src/nv-optee/optee/optee_os/ldelf/ta_elf.c:403
    19b0:	b0000024 	adrp	x4, 6000 <kprintf.constprop.0+0x4c8>
    19b4:	91373884 	add	x4, x4, #0xdce
    19b8:	d0000020 	adrp	x0, 7000 <trace_ext_prefix+0x509>
    19bc:	910c5400 	add	x0, x0, #0x315
    19c0:	aa0203e5 	mov	x5, x2
    19c4:	52800023 	mov	w3, #0x1                   	// #1
    19c8:	52800022 	mov	w2, #0x1                   	// #1
    19cc:	52803261 	mov	w1, #0x193                 	// #403
check_gnu_hashtab():
/home/ssysarch/Desktop/nick/jetpack_5/Jetson_Linux_R35.4.1_aarch64/Linux_for_Tegra/sources/tegra/optee-src/nv-optee/optee/optee_os/ldelf/ta_elf.c:275
    19d0:	940013bf 	bl	68cc <trace_printf>
    19d4:	14000011 	b	1a18 <save_symtab+0x188>
e32_save_symtab():
/home/ssysarch/Desktop/nick/jetpack_5/Jetson_Linux_R35.4.1_aarch64/Linux_for_Tegra/sources/tegra/optee-src/nv-optee/optee/optee_os/ldelf/ta_elf.c:405
    19d8:	b94016c3 	ldr	w3, [x22, #20]
    19dc:	aa1303e0 	mov	x0, x19
    19e0:	b0000021 	adrp	x1, 6000 <kprintf.constprop.0+0x4c8>
    19e4:	9137b021 	add	x1, x1, #0xdec
    19e8:	97fffc5f 	bl	b64 <check_range>
/home/ssysarch/Desktop/nick/jetpack_5/Jetson_Linux_R35.4.1_aarch64/Linux_for_Tegra/sources/tegra/optee-src/nv-optee/optee/optee_os/ldelf/ta_elf.c:407
    19ec:	b94016c0 	ldr	w0, [x22, #20]
    19f0:	f2400c1f 	tst	x0, #0xf
    19f4:	54000160 	b.eq	1a20 <save_symtab+0x190>  // b.none
/home/ssysarch/Desktop/nick/jetpack_5/Jetson_Linux_R35.4.1_aarch64/Linux_for_Tegra/sources/tegra/optee-src/nv-optee/optee/optee_os/ldelf/ta_elf.c:408
    19f8:	b0000024 	adrp	x4, 6000 <kprintf.constprop.0+0x4c8>
    19fc:	9137d884 	add	x4, x4, #0xdf6
    1a00:	52800023 	mov	w3, #0x1                   	// #1
    1a04:	52800022 	mov	w2, #0x1                   	// #1
    1a08:	52803301 	mov	w1, #0x198                 	// #408
    1a0c:	d0000020 	adrp	x0, 7000 <trace_ext_prefix+0x509>
    1a10:	910c5400 	add	x0, x0, #0x315
    1a14:	940013ae 	bl	68cc <trace_printf>
    1a18:	129fff40 	mov	w0, #0xffff0005            	// #-65531
    1a1c:	97fff9d3 	bl	168 <_ldelf_return>
/home/ssysarch/Desktop/nick/jetpack_5/Jetson_Linux_R35.4.1_aarch64/Linux_for_Tegra/sources/tegra/optee-src/nv-optee/optee/optee_os/ldelf/ta_elf.c:410
    1a20:	53047c00 	lsr	w0, w0, #4
    1a24:	f9003660 	str	x0, [x19, #104]
/home/ssysarch/Desktop/nick/jetpack_5/Jetson_Linux_R35.4.1_aarch64/Linux_for_Tegra/sources/tegra/optee-src/nv-optee/optee/optee_os/ldelf/ta_elf.c:412
    1a28:	b9404660 	ldr	w0, [x19, #68]
    1a2c:	6b00029f 	cmp	w20, w0
    1a30:	540000e3 	b.cc	1a4c <save_symtab+0x1bc>  // b.lo, b.ul, b.last
/home/ssysarch/Desktop/nick/jetpack_5/Jetson_Linux_R35.4.1_aarch64/Linux_for_Tegra/sources/tegra/optee-src/nv-optee/optee/optee_os/ldelf/ta_elf.c:413
    1a34:	b0000024 	adrp	x4, 6000 <kprintf.constprop.0+0x4c8>
    1a38:	9138a884 	add	x4, x4, #0xe2a
    1a3c:	52800023 	mov	w3, #0x1                   	// #1
    1a40:	52800022 	mov	w2, #0x1                   	// #1
    1a44:	528033a1 	mov	w1, #0x19d                 	// #413
    1a48:	17fffff1 	b	1a0c <save_symtab+0x17c>
/home/ssysarch/Desktop/nick/jetpack_5/Jetson_Linux_R35.4.1_aarch64/Linux_for_Tegra/sources/tegra/optee-src/nv-optee/optee/optee_os/ldelf/ta_elf.c:414
    1a4c:	52800500 	mov	w0, #0x28                  	// #40
/home/ssysarch/Desktop/nick/jetpack_5/Jetson_Linux_R35.4.1_aarch64/Linux_for_Tegra/sources/tegra/optee-src/nv-optee/optee/optee_os/ldelf/ta_elf.c:415
    1a50:	b0000021 	adrp	x1, 6000 <kprintf.constprop.0+0x4c8>
    1a54:	91393021 	add	x1, x1, #0xe4c
/home/ssysarch/Desktop/nick/jetpack_5/Jetson_Linux_R35.4.1_aarch64/Linux_for_Tegra/sources/tegra/optee-src/nv-optee/optee/optee_os/ldelf/ta_elf.c:414
    1a58:	9ba05694 	umaddl	x20, w20, w0, x21
    1a5c:	f9400660 	ldr	x0, [x19, #8]
    1a60:	b9400e82 	ldr	w2, [x20, #12]
/home/ssysarch/Desktop/nick/jetpack_5/Jetson_Linux_R35.4.1_aarch64/Linux_for_Tegra/sources/tegra/optee-src/nv-optee/optee/optee_os/ldelf/ta_elf.c:415
    1a64:	b9401683 	ldr	w3, [x20, #20]
/home/ssysarch/Desktop/nick/jetpack_5/Jetson_Linux_R35.4.1_aarch64/Linux_for_Tegra/sources/tegra/optee-src/nv-optee/optee/optee_os/ldelf/ta_elf.c:414
    1a68:	8b000042 	add	x2, x2, x0
    1a6c:	f9003a62 	str	x2, [x19, #112]
/home/ssysarch/Desktop/nick/jetpack_5/Jetson_Linux_R35.4.1_aarch64/Linux_for_Tegra/sources/tegra/optee-src/nv-optee/optee/optee_os/ldelf/ta_elf.c:415
    1a70:	aa1303e0 	mov	x0, x19
    1a74:	97fffc3c 	bl	b64 <check_range>
/home/ssysarch/Desktop/nick/jetpack_5/Jetson_Linux_R35.4.1_aarch64/Linux_for_Tegra/sources/tegra/optee-src/nv-optee/optee/optee_os/ldelf/ta_elf.c:417
    1a78:	b9401680 	ldr	w0, [x20, #20]
e64_save_symtab():
/home/ssysarch/Desktop/nick/jetpack_5/Jetson_Linux_R35.4.1_aarch64/Linux_for_Tegra/sources/tegra/optee-src/nv-optee/optee/optee_os/ldelf/ta_elf.c:445
    1a7c:	f9003e60 	str	x0, [x19, #120]
save_hashtab():
/home/ssysarch/Desktop/nick/jetpack_5/Jetson_Linux_R35.4.1_aarch64/Linux_for_Tegra/sources/tegra/optee-src/nv-optee/optee/optee_os/ldelf/ta_elf.c:299
    1a80:	39400660 	ldrb	w0, [x19, #1]
    1a84:	35fff520 	cbnz	w0, 1928 <save_symtab+0x98>
/home/ssysarch/Desktop/nick/jetpack_5/Jetson_Linux_R35.4.1_aarch64/Linux_for_Tegra/sources/tegra/optee-src/nv-optee/optee/optee_os/ldelf/ta_elf.c:316
    1a88:	f9402e60 	ldr	x0, [x19, #88]
/home/ssysarch/Desktop/nick/jetpack_5/Jetson_Linux_R35.4.1_aarch64/Linux_for_Tegra/sources/tegra/optee-src/nv-optee/optee/optee_os/ldelf/ta_elf.c:322
    1a8c:	529ffec5 	mov	w5, #0xfff6                	// #65526
    1a90:	72adffe5 	movk	w5, #0x6fff, lsl #16
/home/ssysarch/Desktop/nick/jetpack_5/Jetson_Linux_R35.4.1_aarch64/Linux_for_Tegra/sources/tegra/optee-src/nv-optee/optee/optee_os/ldelf/ta_elf.c:316
    1a94:	b9404664 	ldr	w4, [x19, #68]
    1a98:	91001000 	add	x0, x0, #0x4
    1a9c:	d2800002 	mov	x2, #0x0                   	// #0
    1aa0:	eb04005f 	cmp	x2, x4
    1aa4:	54fff522 	b.cs	1948 <save_symtab+0xb8>  // b.hs, b.nlast
/home/ssysarch/Desktop/nick/jetpack_5/Jetson_Linux_R35.4.1_aarch64/Linux_for_Tegra/sources/tegra/optee-src/nv-optee/optee/optee_os/ldelf/ta_elf.c:317
    1aa8:	f9400663 	ldr	x3, [x19, #8]
    1aac:	f840c001 	ldur	x1, [x0, #12]
    1ab0:	8b030021 	add	x1, x1, x3
/home/ssysarch/Desktop/nick/jetpack_5/Jetson_Linux_R35.4.1_aarch64/Linux_for_Tegra/sources/tegra/optee-src/nv-optee/optee/optee_os/ldelf/ta_elf.c:320
    1ab4:	b9400003 	ldr	w3, [x0]
    1ab8:	7100147f 	cmp	w3, #0x5
    1abc:	54000841 	b.ne	1bc4 <save_symtab+0x334>  // b.any
/home/ssysarch/Desktop/nick/jetpack_5/Jetson_Linux_R35.4.1_aarch64/Linux_for_Tegra/sources/tegra/optee-src/nv-optee/optee/optee_os/ldelf/ta_elf.c:321
    1ac0:	f9004261 	str	x1, [x19, #128]
/home/ssysarch/Desktop/nick/jetpack_5/Jetson_Linux_R35.4.1_aarch64/Linux_for_Tegra/sources/tegra/optee-src/nv-optee/optee/optee_os/ldelf/ta_elf.c:316
    1ac4:	91000442 	add	x2, x2, #0x1
    1ac8:	91010000 	add	x0, x0, #0x40
    1acc:	17fffff5 	b	1aa0 <save_symtab+0x210>
save_symtab():
/home/ssysarch/Desktop/nick/jetpack_5/Jetson_Linux_R35.4.1_aarch64/Linux_for_Tegra/sources/tegra/optee-src/nv-optee/optee/optee_os/ldelf/ta_elf.c:455 (discriminator 2)
    1ad0:	91000421 	add	x1, x1, #0x1
    1ad4:	17ffff93 	b	1920 <save_symtab+0x90>
e64_save_symtab():
/home/ssysarch/Desktop/nick/jetpack_5/Jetson_Linux_R35.4.1_aarch64/Linux_for_Tegra/sources/tegra/optee-src/nv-optee/optee/optee_os/ldelf/ta_elf.c:431
    1ad8:	f94012c3 	ldr	x3, [x22, #32]
    1adc:	aa1303e0 	mov	x0, x19
    1ae0:	b0000021 	adrp	x1, 6000 <kprintf.constprop.0+0x4c8>
    1ae4:	9139d821 	add	x1, x1, #0xe76
    1ae8:	97fffc1f 	bl	b64 <check_range>
/home/ssysarch/Desktop/nick/jetpack_5/Jetson_Linux_R35.4.1_aarch64/Linux_for_Tegra/sources/tegra/optee-src/nv-optee/optee/optee_os/ldelf/ta_elf.c:434
    1aec:	f94012c2 	ldr	x2, [x22, #32]
    1af0:	d2800300 	mov	x0, #0x18                  	// #24
    1af4:	9ac00841 	udiv	x1, x2, x0
    1af8:	9b008820 	msub	x0, x1, x0, x2
    1afc:	b4000120 	cbz	x0, 1b20 <save_symtab+0x290>
/home/ssysarch/Desktop/nick/jetpack_5/Jetson_Linux_R35.4.1_aarch64/Linux_for_Tegra/sources/tegra/optee-src/nv-optee/optee/optee_os/ldelf/ta_elf.c:435
    1b00:	b0000024 	adrp	x4, 6000 <kprintf.constprop.0+0x4c8>
    1b04:	913a1484 	add	x4, x4, #0xe85
    1b08:	52800023 	mov	w3, #0x1                   	// #1
    1b0c:	52800022 	mov	w2, #0x1                   	// #1
    1b10:	52803661 	mov	w1, #0x1b3                 	// #435
/home/ssysarch/Desktop/nick/jetpack_5/Jetson_Linux_R35.4.1_aarch64/Linux_for_Tegra/sources/tegra/optee-src/nv-optee/optee/optee_os/ldelf/ta_elf.c:440
    1b14:	d0000020 	adrp	x0, 7000 <trace_ext_prefix+0x509>
    1b18:	910c9400 	add	x0, x0, #0x325
    1b1c:	17ffffbe 	b	1a14 <save_symtab+0x184>
/home/ssysarch/Desktop/nick/jetpack_5/Jetson_Linux_R35.4.1_aarch64/Linux_for_Tegra/sources/tegra/optee-src/nv-optee/optee/optee_os/ldelf/ta_elf.c:439
    1b20:	b9404660 	ldr	w0, [x19, #68]
/home/ssysarch/Desktop/nick/jetpack_5/Jetson_Linux_R35.4.1_aarch64/Linux_for_Tegra/sources/tegra/optee-src/nv-optee/optee/optee_os/ldelf/ta_elf.c:437
    1b24:	f9003661 	str	x1, [x19, #104]
/home/ssysarch/Desktop/nick/jetpack_5/Jetson_Linux_R35.4.1_aarch64/Linux_for_Tegra/sources/tegra/optee-src/nv-optee/optee/optee_os/ldelf/ta_elf.c:439
    1b28:	6b00029f 	cmp	w20, w0
    1b2c:	540000e3 	b.cc	1b48 <save_symtab+0x2b8>  // b.lo, b.ul, b.last
/home/ssysarch/Desktop/nick/jetpack_5/Jetson_Linux_R35.4.1_aarch64/Linux_for_Tegra/sources/tegra/optee-src/nv-optee/optee/optee_os/ldelf/ta_elf.c:440
    1b30:	b0000024 	adrp	x4, 6000 <kprintf.constprop.0+0x4c8>
    1b34:	913af884 	add	x4, x4, #0xebe
    1b38:	52800023 	mov	w3, #0x1                   	// #1
    1b3c:	52800022 	mov	w2, #0x1                   	// #1
    1b40:	52803701 	mov	w1, #0x1b8                 	// #440
    1b44:	17fffff4 	b	1b14 <save_symtab+0x284>
/home/ssysarch/Desktop/nick/jetpack_5/Jetson_Linux_R35.4.1_aarch64/Linux_for_Tegra/sources/tegra/optee-src/nv-optee/optee/optee_os/ldelf/ta_elf.c:442
    1b48:	d37a7e94 	ubfiz	x20, x20, #6, #32
/home/ssysarch/Desktop/nick/jetpack_5/Jetson_Linux_R35.4.1_aarch64/Linux_for_Tegra/sources/tegra/optee-src/nv-optee/optee/optee_os/ldelf/ta_elf.c:443
    1b4c:	b0000021 	adrp	x1, 6000 <kprintf.constprop.0+0x4c8>
    1b50:	913ba021 	add	x1, x1, #0xee8
/home/ssysarch/Desktop/nick/jetpack_5/Jetson_Linux_R35.4.1_aarch64/Linux_for_Tegra/sources/tegra/optee-src/nv-optee/optee/optee_os/ldelf/ta_elf.c:442
    1b54:	8b1402b4 	add	x20, x21, x20
    1b58:	f9400660 	ldr	x0, [x19, #8]
    1b5c:	f9400a82 	ldr	x2, [x20, #16]
/home/ssysarch/Desktop/nick/jetpack_5/Jetson_Linux_R35.4.1_aarch64/Linux_for_Tegra/sources/tegra/optee-src/nv-optee/optee/optee_os/ldelf/ta_elf.c:443
    1b60:	f9401283 	ldr	x3, [x20, #32]
/home/ssysarch/Desktop/nick/jetpack_5/Jetson_Linux_R35.4.1_aarch64/Linux_for_Tegra/sources/tegra/optee-src/nv-optee/optee/optee_os/ldelf/ta_elf.c:442
    1b64:	8b000042 	add	x2, x2, x0
    1b68:	f9003a62 	str	x2, [x19, #112]
/home/ssysarch/Desktop/nick/jetpack_5/Jetson_Linux_R35.4.1_aarch64/Linux_for_Tegra/sources/tegra/optee-src/nv-optee/optee/optee_os/ldelf/ta_elf.c:443
    1b6c:	aa1303e0 	mov	x0, x19
    1b70:	97fffbfd 	bl	b64 <check_range>
/home/ssysarch/Desktop/nick/jetpack_5/Jetson_Linux_R35.4.1_aarch64/Linux_for_Tegra/sources/tegra/optee-src/nv-optee/optee/optee_os/ldelf/ta_elf.c:445
    1b74:	f9401280 	ldr	x0, [x20, #32]
    1b78:	17ffffc1 	b	1a7c <save_symtab+0x1ec>
save_symtab():
/home/ssysarch/Desktop/nick/jetpack_5/Jetson_Linux_R35.4.1_aarch64/Linux_for_Tegra/sources/tegra/optee-src/nv-optee/optee/optee_os/ldelf/ta_elf.c:464 (discriminator 2)
    1b7c:	91000421 	add	x1, x1, #0x1
    1b80:	17ffff4f 	b	18bc <save_symtab+0x2c>
save_hashtab():
/home/ssysarch/Desktop/nick/jetpack_5/Jetson_Linux_R35.4.1_aarch64/Linux_for_Tegra/sources/tegra/optee-src/nv-optee/optee/optee_os/ldelf/ta_elf.c:303
    1b84:	f9400663 	ldr	x3, [x19, #8]
    1b88:	b9400801 	ldr	w1, [x0, #8]
    1b8c:	8b030021 	add	x1, x1, x3
/home/ssysarch/Desktop/nick/jetpack_5/Jetson_Linux_R35.4.1_aarch64/Linux_for_Tegra/sources/tegra/optee-src/nv-optee/optee/optee_os/ldelf/ta_elf.c:306
    1b90:	b9400003 	ldr	w3, [x0]
    1b94:	7100147f 	cmp	w3, #0x5
    1b98:	540000a1 	b.ne	1bac <save_symtab+0x31c>  // b.any
/home/ssysarch/Desktop/nick/jetpack_5/Jetson_Linux_R35.4.1_aarch64/Linux_for_Tegra/sources/tegra/optee-src/nv-optee/optee/optee_os/ldelf/ta_elf.c:307
    1b9c:	f9004261 	str	x1, [x19, #128]
/home/ssysarch/Desktop/nick/jetpack_5/Jetson_Linux_R35.4.1_aarch64/Linux_for_Tegra/sources/tegra/optee-src/nv-optee/optee/optee_os/ldelf/ta_elf.c:302
    1ba0:	91000442 	add	x2, x2, #0x1
    1ba4:	9100a000 	add	x0, x0, #0x28
    1ba8:	17ffff66 	b	1940 <save_symtab+0xb0>
/home/ssysarch/Desktop/nick/jetpack_5/Jetson_Linux_R35.4.1_aarch64/Linux_for_Tegra/sources/tegra/optee-src/nv-optee/optee/optee_os/ldelf/ta_elf.c:308
    1bac:	6b05007f 	cmp	w3, w5
    1bb0:	54ffff81 	b.ne	1ba0 <save_symtab+0x310>  // b.any
/home/ssysarch/Desktop/nick/jetpack_5/Jetson_Linux_R35.4.1_aarch64/Linux_for_Tegra/sources/tegra/optee-src/nv-optee/optee/optee_os/ldelf/ta_elf.c:309
    1bb4:	f9004661 	str	x1, [x19, #136]
/home/ssysarch/Desktop/nick/jetpack_5/Jetson_Linux_R35.4.1_aarch64/Linux_for_Tegra/sources/tegra/optee-src/nv-optee/optee/optee_os/ldelf/ta_elf.c:310
    1bb8:	b9401001 	ldr	w1, [x0, #16]
    1bbc:	f9004a61 	str	x1, [x19, #144]
    1bc0:	17fffff8 	b	1ba0 <save_symtab+0x310>
/home/ssysarch/Desktop/nick/jetpack_5/Jetson_Linux_R35.4.1_aarch64/Linux_for_Tegra/sources/tegra/optee-src/nv-optee/optee/optee_os/ldelf/ta_elf.c:322
    1bc4:	6b05007f 	cmp	w3, w5
    1bc8:	54fff7e1 	b.ne	1ac4 <save_symtab+0x234>  // b.any
/home/ssysarch/Desktop/nick/jetpack_5/Jetson_Linux_R35.4.1_aarch64/Linux_for_Tegra/sources/tegra/optee-src/nv-optee/optee/optee_os/ldelf/ta_elf.c:323
    1bcc:	f9004661 	str	x1, [x19, #136]
/home/ssysarch/Desktop/nick/jetpack_5/Jetson_Linux_R35.4.1_aarch64/Linux_for_Tegra/sources/tegra/optee-src/nv-optee/optee/optee_os/ldelf/ta_elf.c:324
    1bd0:	f841c001 	ldur	x1, [x0, #28]
    1bd4:	f9004a61 	str	x1, [x19, #144]
    1bd8:	17ffffbb 	b	1ac4 <save_symtab+0x234>
/home/ssysarch/Desktop/nick/jetpack_5/Jetson_Linux_R35.4.1_aarch64/Linux_for_Tegra/sources/tegra/optee-src/nv-optee/optee/optee_os/ldelf/ta_elf.c:330
    1bdc:	aa1303e0 	mov	x0, x19
    1be0:	d2800003 	mov	x3, #0x0                   	// #0
    1be4:	d2800002 	mov	x2, #0x0                   	// #0
    1be8:	97fffc09 	bl	c0c <check_hashtab>
/home/ssysarch/Desktop/nick/jetpack_5/Jetson_Linux_R35.4.1_aarch64/Linux_for_Tegra/sources/tegra/optee-src/nv-optee/optee/optee_os/ldelf/ta_elf.c:331
    1bec:	f9404261 	ldr	x1, [x19, #128]
/home/ssysarch/Desktop/nick/jetpack_5/Jetson_Linux_R35.4.1_aarch64/Linux_for_Tegra/sources/tegra/optee-src/nv-optee/optee/optee_os/ldelf/ta_elf.c:332
    1bf0:	aa1303e0 	mov	x0, x19
    1bf4:	29400c22 	ldp	w2, w3, [x1]
    1bf8:	97fffc05 	bl	c0c <check_hashtab>
    1bfc:	17ffff55 	b	1950 <save_symtab+0xc0>
check_gnu_hashtab():
/home/ssysarch/Desktop/nick/jetpack_5/Jetson_Linux_R35.4.1_aarch64/Linux_for_Tegra/sources/tegra/optee-src/nv-optee/optee/optee_os/ldelf/ta_elf.c:278
    1c00:	f9404a62 	ldr	x2, [x19, #144]
    1c04:	f1003c5f 	cmp	x2, #0xf
    1c08:	54000128 	b.hi	1c2c <save_symtab+0x39c>  // b.pmore
/home/ssysarch/Desktop/nick/jetpack_5/Jetson_Linux_R35.4.1_aarch64/Linux_for_Tegra/sources/tegra/optee-src/nv-optee/optee/optee_os/ldelf/ta_elf.c:279
    1c0c:	b0000024 	adrp	x4, 6000 <kprintf.constprop.0+0x4c8>
    1c10:	913c5c84 	add	x4, x4, #0xf17
    1c14:	52800023 	mov	w3, #0x1                   	// #1
    1c18:	52800022 	mov	w2, #0x1                   	// #1
    1c1c:	528022e1 	mov	w1, #0x117                 	// #279
/home/ssysarch/Desktop/nick/jetpack_5/Jetson_Linux_R35.4.1_aarch64/Linux_for_Tegra/sources/tegra/optee-src/nv-optee/optee/optee_os/ldelf/ta_elf.c:291
    1c20:	d0000020 	adrp	x0, 7000 <trace_ext_prefix+0x509>
    1c24:	910ba800 	add	x0, x0, #0x2ea
    1c28:	17ffff7b 	b	1a14 <save_symtab+0x184>
/home/ssysarch/Desktop/nick/jetpack_5/Jetson_Linux_R35.4.1_aarch64/Linux_for_Tegra/sources/tegra/optee-src/nv-optee/optee/optee_os/ldelf/ta_elf.c:283
    1c2c:	b94008a0 	ldr	w0, [x5, #8]
    1c30:	39400663 	ldrb	w3, [x19, #1]
/home/ssysarch/Desktop/nick/jetpack_5/Jetson_Linux_R35.4.1_aarch64/Linux_for_Tegra/sources/tegra/optee-src/nv-optee/optee/optee_os/ldelf/ta_elf.c:284
    1c34:	2a0003e1 	mov	w1, w0
    1c38:	7100007f 	cmp	w3, #0x0
    1c3c:	531f7800 	lsl	w0, w0, #1
    1c40:	9a810000 	csel	x0, x0, x1, eq  // eq = none
/home/ssysarch/Desktop/nick/jetpack_5/Jetson_Linux_R35.4.1_aarch64/Linux_for_Tegra/sources/tegra/optee-src/nv-optee/optee/optee_os/ldelf/ta_elf.c:287
    1c44:	b94000a1 	ldr	w1, [x5]
    1c48:	91001021 	add	x1, x1, #0x4
/home/ssysarch/Desktop/nick/jetpack_5/Jetson_Linux_R35.4.1_aarch64/Linux_for_Tegra/sources/tegra/optee-src/nv-optee/optee/optee_os/ldelf/ta_elf.c:288
    1c4c:	8b000020 	add	x0, x1, x0
/home/ssysarch/Desktop/nick/jetpack_5/Jetson_Linux_R35.4.1_aarch64/Linux_for_Tegra/sources/tegra/optee-src/nv-optee/optee/optee_os/ldelf/ta_elf.c:289
    1c50:	eb00085f 	cmp	x2, x0, lsl #2
    1c54:	540000e2 	b.cs	1c70 <save_symtab+0x3e0>  // b.hs, b.nlast
/home/ssysarch/Desktop/nick/jetpack_5/Jetson_Linux_R35.4.1_aarch64/Linux_for_Tegra/sources/tegra/optee-src/nv-optee/optee/optee_os/ldelf/ta_elf.c:291
    1c58:	b0000024 	adrp	x4, 6000 <kprintf.constprop.0+0x4c8>
    1c5c:	913cb484 	add	x4, x4, #0xf2d
    1c60:	52800023 	mov	w3, #0x1                   	// #1
    1c64:	52800022 	mov	w2, #0x1                   	// #1
    1c68:	52802461 	mov	w1, #0x123                 	// #291
    1c6c:	17ffffed 	b	1c20 <save_symtab+0x390>
save_soname():
/home/ssysarch/Desktop/nick/jetpack_5/Jetson_Linux_R35.4.1_aarch64/Linux_for_Tegra/sources/tegra/optee-src/nv-optee/optee/optee_os/ldelf/ta_elf.c:379
    1c70:	39400660 	ldrb	w0, [x19, #1]
/home/ssysarch/Desktop/nick/jetpack_5/Jetson_Linux_R35.4.1_aarch64/Linux_for_Tegra/sources/tegra/optee-src/nv-optee/optee/optee_os/ldelf/ta_elf.c:382
    1c74:	d2800015 	mov	x21, #0x0                   	// #0
    1c78:	f9402a74 	ldr	x20, [x19, #80]
/home/ssysarch/Desktop/nick/jetpack_5/Jetson_Linux_R35.4.1_aarch64/Linux_for_Tegra/sources/tegra/optee-src/nv-optee/optee/optee_os/ldelf/ta_elf.c:379
    1c7c:	35000220 	cbnz	w0, 1cc0 <save_symtab+0x430>
/home/ssysarch/Desktop/nick/jetpack_5/Jetson_Linux_R35.4.1_aarch64/Linux_for_Tegra/sources/tegra/optee-src/nv-optee/optee/optee_os/ldelf/ta_elf.c:389
    1c80:	b9404260 	ldr	w0, [x19, #64]
    1c84:	eb0002bf 	cmp	x21, x0
    1c88:	54000222 	b.cs	1ccc <save_symtab+0x43c>  // b.hs, b.nlast
/home/ssysarch/Desktop/nick/jetpack_5/Jetson_Linux_R35.4.1_aarch64/Linux_for_Tegra/sources/tegra/optee-src/nv-optee/optee/optee_os/ldelf/ta_elf.c:390
    1c8c:	f9400a82 	ldr	x2, [x20, #16]
    1c90:	aa1303e0 	mov	x0, x19
    1c94:	f9401683 	ldr	x3, [x20, #40]
/home/ssysarch/Desktop/nick/jetpack_5/Jetson_Linux_R35.4.1_aarch64/Linux_for_Tegra/sources/tegra/optee-src/nv-optee/optee/optee_os/ldelf/ta_elf.c:389
    1c98:	910006b5 	add	x21, x21, #0x1
/home/ssysarch/Desktop/nick/jetpack_5/Jetson_Linux_R35.4.1_aarch64/Linux_for_Tegra/sources/tegra/optee-src/nv-optee/optee/optee_os/ldelf/ta_elf.c:390
    1c9c:	b8438681 	ldr	w1, [x20], #56
    1ca0:	97fffec1 	bl	17a4 <save_soname_from_segment>
/home/ssysarch/Desktop/nick/jetpack_5/Jetson_Linux_R35.4.1_aarch64/Linux_for_Tegra/sources/tegra/optee-src/nv-optee/optee/optee_os/ldelf/ta_elf.c:389
    1ca4:	17fffff7 	b	1c80 <save_symtab+0x3f0>
/home/ssysarch/Desktop/nick/jetpack_5/Jetson_Linux_R35.4.1_aarch64/Linux_for_Tegra/sources/tegra/optee-src/nv-optee/optee/optee_os/ldelf/ta_elf.c:383
    1ca8:	b9400a82 	ldr	w2, [x20, #8]
    1cac:	aa1303e0 	mov	x0, x19
    1cb0:	b9401683 	ldr	w3, [x20, #20]
/home/ssysarch/Desktop/nick/jetpack_5/Jetson_Linux_R35.4.1_aarch64/Linux_for_Tegra/sources/tegra/optee-src/nv-optee/optee/optee_os/ldelf/ta_elf.c:382
    1cb4:	910006b5 	add	x21, x21, #0x1
/home/ssysarch/Desktop/nick/jetpack_5/Jetson_Linux_R35.4.1_aarch64/Linux_for_Tegra/sources/tegra/optee-src/nv-optee/optee/optee_os/ldelf/ta_elf.c:383
    1cb8:	b8420681 	ldr	w1, [x20], #32
    1cbc:	97fffeba 	bl	17a4 <save_soname_from_segment>
/home/ssysarch/Desktop/nick/jetpack_5/Jetson_Linux_R35.4.1_aarch64/Linux_for_Tegra/sources/tegra/optee-src/nv-optee/optee/optee_os/ldelf/ta_elf.c:382
    1cc0:	b9404260 	ldr	w0, [x19, #64]
    1cc4:	eb0002bf 	cmp	x21, x0
    1cc8:	54ffff03 	b.cc	1ca8 <save_symtab+0x418>  // b.lo, b.ul, b.last
save_symtab():
/home/ssysarch/Desktop/nick/jetpack_5/Jetson_Linux_R35.4.1_aarch64/Linux_for_Tegra/sources/tegra/optee-src/nv-optee/optee/optee_os/ldelf/ta_elf.c:475
    1ccc:	a94153f3 	ldp	x19, x20, [sp, #16]
    1cd0:	a9425bf5 	ldp	x21, x22, [sp, #32]
    1cd4:	a8c37bfd 	ldp	x29, x30, [sp], #48
    1cd8:	d65f03c0 	ret

0000000000001cdc <map_segments>:
map_segments():
/home/ssysarch/Desktop/nick/jetpack_5/Jetson_Linux_R35.4.1_aarch64/Linux_for_Tegra/sources/tegra/optee-src/nv-optee/optee/optee_os/ldelf/ta_elf.c:993
    1cdc:	a9ba7bfd 	stp	x29, x30, [sp, #-96]!
    1ce0:	910003fd 	mov	x29, sp
    1ce4:	a90153f3 	stp	x19, x20, [sp, #16]
    1ce8:	aa0003f3 	mov	x19, x0
parse_load_segments():
/home/ssysarch/Desktop/nick/jetpack_5/Jetson_Linux_R35.4.1_aarch64/Linux_for_Tegra/sources/tegra/optee-src/nv-optee/optee/optee_os/ldelf/ta_elf.c:558
    1cec:	f9402814 	ldr	x20, [x0, #80]
map_segments():
/home/ssysarch/Desktop/nick/jetpack_5/Jetson_Linux_R35.4.1_aarch64/Linux_for_Tegra/sources/tegra/optee-src/nv-optee/optee/optee_os/ldelf/ta_elf.c:993
    1cf0:	a9025bf5 	stp	x21, x22, [sp, #32]
parse_load_segments():
/home/ssysarch/Desktop/nick/jetpack_5/Jetson_Linux_R35.4.1_aarch64/Linux_for_Tegra/sources/tegra/optee-src/nv-optee/optee/optee_os/ldelf/ta_elf.c:558
    1cf4:	39400400 	ldrb	w0, [x0, #1]
map_segments():
/home/ssysarch/Desktop/nick/jetpack_5/Jetson_Linux_R35.4.1_aarch64/Linux_for_Tegra/sources/tegra/optee-src/nv-optee/optee/optee_os/ldelf/ta_elf.c:993
    1cf8:	a90363f7 	stp	x23, x24, [sp, #48]
parse_load_segments():
/home/ssysarch/Desktop/nick/jetpack_5/Jetson_Linux_R35.4.1_aarch64/Linux_for_Tegra/sources/tegra/optee-src/nv-optee/optee/optee_os/ldelf/ta_elf.c:561
    1cfc:	d2800015 	mov	x21, #0x0                   	// #0
map_segments():
/home/ssysarch/Desktop/nick/jetpack_5/Jetson_Linux_R35.4.1_aarch64/Linux_for_Tegra/sources/tegra/optee-src/nv-optee/optee/optee_os/ldelf/ta_elf.c:993
    1d00:	f90023f9 	str	x25, [sp, #64]
parse_load_segments():
/home/ssysarch/Desktop/nick/jetpack_5/Jetson_Linux_R35.4.1_aarch64/Linux_for_Tegra/sources/tegra/optee-src/nv-optee/optee/optee_os/ldelf/ta_elf.c:558
    1d04:	35000220 	cbnz	w0, 1d48 <map_segments+0x6c>
/home/ssysarch/Desktop/nick/jetpack_5/Jetson_Linux_R35.4.1_aarch64/Linux_for_Tegra/sources/tegra/optee-src/nv-optee/optee/optee_os/ldelf/ta_elf.c:578
    1d08:	9102a276 	add	x22, x19, #0xa8
/home/ssysarch/Desktop/nick/jetpack_5/Jetson_Linux_R35.4.1_aarch64/Linux_for_Tegra/sources/tegra/optee-src/nv-optee/optee/optee_os/ldelf/ta_elf.c:576
    1d0c:	b9404261 	ldr	w1, [x19, #64]
    1d10:	eb0102bf 	cmp	x21, x1
    1d14:	540002a2 	b.cs	1d68 <map_segments+0x8c>  // b.hs, b.nlast
/home/ssysarch/Desktop/nick/jetpack_5/Jetson_Linux_R35.4.1_aarch64/Linux_for_Tegra/sources/tegra/optee-src/nv-optee/optee/optee_os/ldelf/ta_elf.c:577
    1d18:	b9400281 	ldr	w1, [x20]
    1d1c:	7100043f 	cmp	w1, #0x1
    1d20:	540009c1 	b.ne	1e58 <map_segments+0x17c>  // b.any
/home/ssysarch/Desktop/nick/jetpack_5/Jetson_Linux_R35.4.1_aarch64/Linux_for_Tegra/sources/tegra/optee-src/nv-optee/optee/optee_os/ldelf/ta_elf.c:578
    1d24:	a9408a81 	ldp	x1, x2, [x20, #8]
    1d28:	aa1603e0 	mov	x0, x22
    1d2c:	a9421283 	ldp	x3, x4, [x20, #32]
    1d30:	b9400685 	ldr	w5, [x20, #4]
    1d34:	f9401a86 	ldr	x6, [x20, #48]
    1d38:	97fffbcb 	bl	c64 <add_segment.isra.0>
/home/ssysarch/Desktop/nick/jetpack_5/Jetson_Linux_R35.4.1_aarch64/Linux_for_Tegra/sources/tegra/optee-src/nv-optee/optee/optee_os/ldelf/ta_elf.c:576
    1d3c:	910006b5 	add	x21, x21, #0x1
    1d40:	9100e294 	add	x20, x20, #0x38
    1d44:	17fffff2 	b	1d0c <map_segments+0x30>
    1d48:	f0000036 	adrp	x22, 8000 <_DYNAMIC>
/home/ssysarch/Desktop/nick/jetpack_5/Jetson_Linux_R35.4.1_aarch64/Linux_for_Tegra/sources/tegra/optee-src/nv-optee/optee/optee_os/ldelf/ta_elf.c:563
    1d4c:	9102a279 	add	x25, x19, #0xa8
    1d50:	aa1603f8 	mov	x24, x22
/home/ssysarch/Desktop/nick/jetpack_5/Jetson_Linux_R35.4.1_aarch64/Linux_for_Tegra/sources/tegra/optee-src/nv-optee/optee/optee_os/ldelf/ta_elf.c:567
    1d54:	52800037 	mov	w23, #0x1                   	// #1
    1d58:	72ae0017 	movk	w23, #0x7000, lsl #16
/home/ssysarch/Desktop/nick/jetpack_5/Jetson_Linux_R35.4.1_aarch64/Linux_for_Tegra/sources/tegra/optee-src/nv-optee/optee/optee_os/ldelf/ta_elf.c:561
    1d5c:	b9404261 	ldr	w1, [x19, #64]
    1d60:	eb0102bf 	cmp	x21, x1
    1d64:	54000343 	b.cc	1dcc <map_segments+0xf0>  // b.lo, b.ul, b.last
adjust_segments():
/home/ssysarch/Desktop/nick/jetpack_5/Jetson_Linux_R35.4.1_aarch64/Linux_for_Tegra/sources/tegra/optee-src/nv-optee/optee/optee_os/ldelf/ta_elf.c:629
    1d68:	f9405264 	ldr	x4, [x19, #160]
/home/ssysarch/Desktop/nick/jetpack_5/Jetson_Linux_R35.4.1_aarch64/Linux_for_Tegra/sources/tegra/optee-src/nv-optee/optee/optee_os/ldelf/ta_elf.c:625
    1d6c:	d2800003 	mov	x3, #0x0                   	// #0
/home/ssysarch/Desktop/nick/jetpack_5/Jetson_Linux_R35.4.1_aarch64/Linux_for_Tegra/sources/tegra/optee-src/nv-optee/optee/optee_os/ldelf/ta_elf.c:629
    1d70:	aa0403e0 	mov	x0, x4
    1d74:	b5000840 	cbnz	x0, 1e7c <map_segments+0x1a0>
/home/ssysarch/Desktop/nick/jetpack_5/Jetson_Linux_R35.4.1_aarch64/Linux_for_Tegra/sources/tegra/optee-src/nv-optee/optee/optee_os/ldelf/ta_elf.c:652
    1d78:	b50011a4 	cbnz	x4, 1fac <map_segments+0x2d0>
map_segments():
/home/ssysarch/Desktop/nick/jetpack_5/Jetson_Linux_R35.4.1_aarch64/Linux_for_Tegra/sources/tegra/optee-src/nv-optee/optee/optee_os/ldelf/ta_elf.c:998
    1d7c:	f9405260 	ldr	x0, [x19, #160]
    1d80:	f9400000 	ldr	x0, [x0]
    1d84:	f13ffc1f 	cmp	x0, #0xfff
    1d88:	540020c8 	b.hi	21a0 <map_segments+0x4c4>  // b.pmore
/home/ssysarch/Desktop/nick/jetpack_5/Jetson_Linux_R35.4.1_aarch64/Linux_for_Tegra/sources/tegra/optee-src/nv-optee/optee/optee_os/ldelf/ta_elf.c:1001
    1d8c:	f9405660 	ldr	x0, [x19, #168]
/home/ssysarch/Desktop/nick/jetpack_5/Jetson_Linux_R35.4.1_aarch64/Linux_for_Tegra/sources/tegra/optee-src/nv-optee/optee/optee_os/ldelf/ta_elf.c:1000
    1d90:	a940d662 	ldp	x2, x21, [x19, #8]
/home/ssysarch/Desktop/nick/jetpack_5/Jetson_Linux_R35.4.1_aarch64/Linux_for_Tegra/sources/tegra/optee-src/nv-optee/optee/optee_os/ldelf/ta_elf.c:1001
    1d94:	f9400400 	ldr	x0, [x0, #8]
/home/ssysarch/Desktop/nick/jetpack_5/Jetson_Linux_R35.4.1_aarch64/Linux_for_Tegra/sources/tegra/optee-src/nv-optee/optee/optee_os/ldelf/ta_elf.c:1000
    1d98:	cb0202b5 	sub	x21, x21, x2
/home/ssysarch/Desktop/nick/jetpack_5/Jetson_Linux_R35.4.1_aarch64/Linux_for_Tegra/sources/tegra/optee-src/nv-optee/optee/optee_os/ldelf/ta_elf.c:1001
    1d9c:	f9400016 	ldr	x22, [x0]
/home/ssysarch/Desktop/nick/jetpack_5/Jetson_Linux_R35.4.1_aarch64/Linux_for_Tegra/sources/tegra/optee-src/nv-optee/optee/optee_os/ldelf/ta_elf.c:999
    1da0:	f9002fff 	str	xzr, [sp, #88]
/home/ssysarch/Desktop/nick/jetpack_5/Jetson_Linux_R35.4.1_aarch64/Linux_for_Tegra/sources/tegra/optee-src/nv-optee/optee/optee_os/ldelf/ta_elf.c:1002
    1da4:	97fffa66 	bl	73c <get_pad_begin>
    1da8:	aa0003e3 	mov	x3, x0
/home/ssysarch/Desktop/nick/jetpack_5/Jetson_Linux_R35.4.1_aarch64/Linux_for_Tegra/sources/tegra/optee-src/nv-optee/optee/optee_os/ldelf/ta_elf.c:1008
    1dac:	39400260 	ldrb	w0, [x19]
    1db0:	34001a20 	cbz	w0, 20f4 <map_segments+0x418>
    1db4:	d0000022 	adrp	x2, 7000 <trace_ext_prefix+0x509>
    1db8:	910ecc42 	add	x2, x2, #0x3b3
    1dbc:	b0000020 	adrp	x0, 6000 <kprintf.constprop.0+0x4c8>
    1dc0:	9133ec00 	add	x0, x0, #0xcfb
    1dc4:	52807e01 	mov	w1, #0x3f0                 	// #1008
    1dc8:	1400001f 	b	1e44 <map_segments+0x168>
parse_load_segments():
/home/ssysarch/Desktop/nick/jetpack_5/Jetson_Linux_R35.4.1_aarch64/Linux_for_Tegra/sources/tegra/optee-src/nv-optee/optee/optee_os/ldelf/ta_elf.c:562
    1dcc:	b9400281 	ldr	w1, [x20]
    1dd0:	7100043f 	cmp	w1, #0x1
    1dd4:	54000121 	b.ne	1df8 <map_segments+0x11c>  // b.any
/home/ssysarch/Desktop/nick/jetpack_5/Jetson_Linux_R35.4.1_aarch64/Linux_for_Tegra/sources/tegra/optee-src/nv-optee/optee/optee_os/ldelf/ta_elf.c:563
    1dd8:	29408a81 	ldp	w1, w2, [x20, #4]
    1ddc:	aa1903e0 	mov	x0, x25
    1de0:	29421283 	ldp	w3, w4, [x20, #16]
    1de4:	29431a85 	ldp	w5, w6, [x20, #24]
    1de8:	97fffb9f 	bl	c64 <add_segment.isra.0>
/home/ssysarch/Desktop/nick/jetpack_5/Jetson_Linux_R35.4.1_aarch64/Linux_for_Tegra/sources/tegra/optee-src/nv-optee/optee/optee_os/ldelf/ta_elf.c:561
    1dec:	910006b5 	add	x21, x21, #0x1
    1df0:	91008294 	add	x20, x20, #0x20
    1df4:	17ffffda 	b	1d5c <map_segments+0x80>
/home/ssysarch/Desktop/nick/jetpack_5/Jetson_Linux_R35.4.1_aarch64/Linux_for_Tegra/sources/tegra/optee-src/nv-optee/optee/optee_os/ldelf/ta_elf.c:567
    1df8:	6b17003f 	cmp	w1, w23
    1dfc:	540000c1 	b.ne	1e14 <map_segments+0x138>  // b.any
/home/ssysarch/Desktop/nick/jetpack_5/Jetson_Linux_R35.4.1_aarch64/Linux_for_Tegra/sources/tegra/optee-src/nv-optee/optee/optee_os/ldelf/ta_elf.c:568
    1e00:	b9400a80 	ldr	w0, [x20, #8]
    1e04:	f9005a60 	str	x0, [x19, #176]
/home/ssysarch/Desktop/nick/jetpack_5/Jetson_Linux_R35.4.1_aarch64/Linux_for_Tegra/sources/tegra/optee-src/nv-optee/optee/optee_os/ldelf/ta_elf.c:569
    1e08:	b9401280 	ldr	w0, [x20, #16]
    1e0c:	f9005e60 	str	x0, [x19, #184]
    1e10:	17fffff7 	b	1dec <map_segments+0x110>
/home/ssysarch/Desktop/nick/jetpack_5/Jetson_Linux_R35.4.1_aarch64/Linux_for_Tegra/sources/tegra/optee-src/nv-optee/optee/optee_os/ldelf/ta_elf.c:570
    1e14:	71001c3f 	cmp	w1, #0x7
    1e18:	54fffea1 	b.ne	1dec <map_segments+0x110>  // b.any
assign_tls_mod_id():
/home/ssysarch/Desktop/nick/jetpack_5/Jetson_Linux_R35.4.1_aarch64/Linux_for_Tegra/sources/tegra/optee-src/nv-optee/optee/optee_os/ldelf/ta_elf.c:57
    1e1c:	39400260 	ldrb	w0, [x19]
    1e20:	f940aac1 	ldr	x1, [x22, #336]
    1e24:	34000120 	cbz	w0, 1e48 <map_segments+0x16c>
/home/ssysarch/Desktop/nick/jetpack_5/Jetson_Linux_R35.4.1_aarch64/Linux_for_Tegra/sources/tegra/optee-src/nv-optee/optee/optee_os/ldelf/ta_elf.c:58
    1e28:	f100043f 	cmp	x1, #0x1
    1e2c:	540000e0 	b.eq	1e48 <map_segments+0x16c>  // b.none
    1e30:	d0000022 	adrp	x2, 7000 <trace_ext_prefix+0x509>
    1e34:	910a8042 	add	x2, x2, #0x2a0
    1e38:	b0000020 	adrp	x0, 6000 <kprintf.constprop.0+0x4c8>
    1e3c:	913d0800 	add	x0, x0, #0xf42
    1e40:	52800741 	mov	w1, #0x3a                  	// #58
adjust_segments():
/home/ssysarch/Desktop/nick/jetpack_5/Jetson_Linux_R35.4.1_aarch64/Linux_for_Tegra/sources/tegra/optee-src/nv-optee/optee/optee_os/ldelf/ta_elf.c:632
    1e44:	97fffbf1 	bl	e08 <_assert_trap.constprop.0>
assign_tls_mod_id():
/home/ssysarch/Desktop/nick/jetpack_5/Jetson_Linux_R35.4.1_aarch64/Linux_for_Tegra/sources/tegra/optee-src/nv-optee/optee/optee_os/ldelf/ta_elf.c:59
    1e48:	91000420 	add	x0, x1, #0x1
    1e4c:	f900ab00 	str	x0, [x24, #336]
    1e50:	f9006261 	str	x1, [x19, #192]
/home/ssysarch/Desktop/nick/jetpack_5/Jetson_Linux_R35.4.1_aarch64/Linux_for_Tegra/sources/tegra/optee-src/nv-optee/optee/optee_os/ldelf/ta_elf.c:60
    1e54:	17ffffe6 	b	1dec <map_segments+0x110>
parse_load_segments():
/home/ssysarch/Desktop/nick/jetpack_5/Jetson_Linux_R35.4.1_aarch64/Linux_for_Tegra/sources/tegra/optee-src/nv-optee/optee/optee_os/ldelf/ta_elf.c:582
    1e58:	71001c3f 	cmp	w1, #0x7
    1e5c:	54fff701 	b.ne	1d3c <map_segments+0x60>  // b.any
/home/ssysarch/Desktop/nick/jetpack_5/Jetson_Linux_R35.4.1_aarch64/Linux_for_Tegra/sources/tegra/optee-src/nv-optee/optee/optee_os/ldelf/ta_elf.c:583
    1e60:	f9400a80 	ldr	x0, [x20, #16]
    1e64:	f9006660 	str	x0, [x19, #200]
/home/ssysarch/Desktop/nick/jetpack_5/Jetson_Linux_R35.4.1_aarch64/Linux_for_Tegra/sources/tegra/optee-src/nv-optee/optee/optee_os/ldelf/ta_elf.c:584
    1e68:	f9401280 	ldr	x0, [x20, #32]
    1e6c:	f9006a60 	str	x0, [x19, #208]
/home/ssysarch/Desktop/nick/jetpack_5/Jetson_Linux_R35.4.1_aarch64/Linux_for_Tegra/sources/tegra/optee-src/nv-optee/optee/optee_os/ldelf/ta_elf.c:585
    1e70:	f9401680 	ldr	x0, [x20, #40]
    1e74:	f9006e60 	str	x0, [x19, #216]
    1e78:	17ffffb1 	b	1d3c <map_segments+0x60>
adjust_segments():
/home/ssysarch/Desktop/nick/jetpack_5/Jetson_Linux_R35.4.1_aarch64/Linux_for_Tegra/sources/tegra/optee-src/nv-optee/optee/optee_os/ldelf/ta_elf.c:632
    1e7c:	f9401405 	ldr	x5, [x0, #40]
    1e80:	f13ffcbf 	cmp	x5, #0xfff
    1e84:	540000e8 	b.hi	1ea0 <map_segments+0x1c4>  // b.pmore
    1e88:	d0000022 	adrp	x2, 7000 <trace_ext_prefix+0x509>
    1e8c:	910d6c42 	add	x2, x2, #0x35b
    1e90:	b0000020 	adrp	x0, 6000 <kprintf.constprop.0+0x4c8>
    1e94:	913d5c00 	add	x0, x0, #0xf57
    1e98:	52804f01 	mov	w1, #0x278                 	// #632
    1e9c:	17ffffea 	b	1e44 <map_segments+0x168>
/home/ssysarch/Desktop/nick/jetpack_5/Jetson_Linux_R35.4.1_aarch64/Linux_for_Tegra/sources/tegra/optee-src/nv-optee/optee/optee_os/ldelf/ta_elf.c:633
    1ea0:	f9400402 	ldr	x2, [x0, #8]
    1ea4:	f9400c01 	ldr	x1, [x0, #24]
    1ea8:	ab010046 	adds	x6, x2, x1
    1eac:	54000142 	b.cs	1ed4 <map_segments+0x1f8>  // b.hs, b.nlast
/home/ssysarch/Desktop/nick/jetpack_5/Jetson_Linux_R35.4.1_aarch64/Linux_for_Tegra/sources/tegra/optee-src/nv-optee/optee/optee_os/ldelf/ta_elf.c:634
    1eb0:	f9400806 	ldr	x6, [x0, #16]
    1eb4:	eb06003f 	cmp	x1, x6
    1eb8:	540001a2 	b.cs	1eec <map_segments+0x210>  // b.hs, b.nlast
    1ebc:	d0000022 	adrp	x2, 7000 <trace_ext_prefix+0x509>
    1ec0:	910d6c42 	add	x2, x2, #0x35b
    1ec4:	b0000020 	adrp	x0, 6000 <kprintf.constprop.0+0x4c8>
    1ec8:	913e8c00 	add	x0, x0, #0xfa3
    1ecc:	52804f41 	mov	w1, #0x27a                 	// #634
    1ed0:	17ffffdd 	b	1e44 <map_segments+0x168>
/home/ssysarch/Desktop/nick/jetpack_5/Jetson_Linux_R35.4.1_aarch64/Linux_for_Tegra/sources/tegra/optee-src/nv-optee/optee/optee_os/ldelf/ta_elf.c:633
    1ed4:	d0000022 	adrp	x2, 7000 <trace_ext_prefix+0x509>
    1ed8:	910d6c42 	add	x2, x2, #0x35b
    1edc:	b0000020 	adrp	x0, 6000 <kprintf.constprop.0+0x4c8>
    1ee0:	913dd400 	add	x0, x0, #0xf75
    1ee4:	52804f21 	mov	w1, #0x279                 	// #633
    1ee8:	17ffffd7 	b	1e44 <map_segments+0x168>
/home/ssysarch/Desktop/nick/jetpack_5/Jetson_Linux_R35.4.1_aarch64/Linux_for_Tegra/sources/tegra/optee-src/nv-optee/optee/optee_os/ldelf/ta_elf.c:635
    1eec:	f9400007 	ldr	x7, [x0]
    1ef0:	ca070041 	eor	x1, x2, x7
    1ef4:	f2402c3f 	tst	x1, #0xfff
    1ef8:	540000e0 	b.eq	1f14 <map_segments+0x238>  // b.none
    1efc:	d0000022 	adrp	x2, 7000 <trace_ext_prefix+0x509>
    1f00:	910d6c42 	add	x2, x2, #0x35b
    1f04:	b0000020 	adrp	x0, 6000 <kprintf.constprop.0+0x4c8>
    1f08:	913ef400 	add	x0, x0, #0xfbd
    1f0c:	52804f61 	mov	w1, #0x27b                 	// #635
    1f10:	17ffffcd 	b	1e44 <map_segments+0x168>
/home/ssysarch/Desktop/nick/jetpack_5/Jetson_Linux_R35.4.1_aarch64/Linux_for_Tegra/sources/tegra/optee-src/nv-optee/optee/optee_os/ldelf/ta_elf.c:638
    1f14:	f9402001 	ldr	x1, [x0, #64]
    1f18:	f9400421 	ldr	x1, [x1, #8]
    1f1c:	f9400021 	ldr	x1, [x1]
/home/ssysarch/Desktop/nick/jetpack_5/Jetson_Linux_R35.4.1_aarch64/Linux_for_Tegra/sources/tegra/optee-src/nv-optee/optee/optee_os/ldelf/ta_elf.c:639
    1f20:	b40002e1 	cbz	x1, 1f7c <map_segments+0x2a0>
/home/ssysarch/Desktop/nick/jetpack_5/Jetson_Linux_R35.4.1_aarch64/Linux_for_Tegra/sources/tegra/optee-src/nv-optee/optee/optee_os/ldelf/ta_elf.c:640
    1f24:	f9400426 	ldr	x6, [x1, #8]
    1f28:	f9400c28 	ldr	x8, [x1, #24]
    1f2c:	8b0800c6 	add	x6, x6, x8
    1f30:	eb06005f 	cmp	x2, x6
    1f34:	540000e2 	b.cs	1f50 <map_segments+0x274>  // b.hs, b.nlast
    1f38:	d0000022 	adrp	x2, 7000 <trace_ext_prefix+0x509>
    1f3c:	910d6c42 	add	x2, x2, #0x35b
    1f40:	b0000020 	adrp	x0, 6000 <kprintf.constprop.0+0x4c8>
    1f44:	913ffc00 	add	x0, x0, #0xfff
    1f48:	52805001 	mov	w1, #0x280                 	// #640
    1f4c:	17ffffbe 	b	1e44 <map_segments+0x168>
/home/ssysarch/Desktop/nick/jetpack_5/Jetson_Linux_R35.4.1_aarch64/Linux_for_Tegra/sources/tegra/optee-src/nv-optee/optee/optee_os/ldelf/ta_elf.c:641
    1f50:	f9400022 	ldr	x2, [x1]
    1f54:	f9400821 	ldr	x1, [x1, #16]
    1f58:	8b010041 	add	x1, x2, x1
    1f5c:	eb0100ff 	cmp	x7, x1
    1f60:	540000e2 	b.cs	1f7c <map_segments+0x2a0>  // b.hs, b.nlast
    1f64:	d0000022 	adrp	x2, 7000 <trace_ext_prefix+0x509>
    1f68:	910d6c42 	add	x2, x2, #0x35b
    1f6c:	d0000020 	adrp	x0, 7000 <trace_ext_prefix+0x509>
    1f70:	9100bc00 	add	x0, x0, #0x2f
    1f74:	52805021 	mov	w1, #0x281                 	// #641
    1f78:	17ffffb3 	b	1e44 <map_segments+0x168>
/home/ssysarch/Desktop/nick/jetpack_5/Jetson_Linux_R35.4.1_aarch64/Linux_for_Tegra/sources/tegra/optee-src/nv-optee/optee/optee_os/ldelf/ta_elf.c:644
    1f7c:	b4000123 	cbz	x3, 1fa0 <map_segments+0x2c4>
/home/ssysarch/Desktop/nick/jetpack_5/Jetson_Linux_R35.4.1_aarch64/Linux_for_Tegra/sources/tegra/optee-src/nv-optee/optee/optee_os/ldelf/ta_elf.c:646
    1f80:	eb0300bf 	cmp	x5, x3
    1f84:	540000e0 	b.eq	1fa0 <map_segments+0x2c4>  // b.none
    1f88:	d0000022 	adrp	x2, 7000 <trace_ext_prefix+0x509>
    1f8c:	910d6c42 	add	x2, x2, #0x35b
    1f90:	d0000020 	adrp	x0, 7000 <trace_ext_prefix+0x509>
    1f94:	91018800 	add	x0, x0, #0x62
    1f98:	528050c1 	mov	w1, #0x286                 	// #646
    1f9c:	17ffffaa 	b	1e44 <map_segments+0x168>
/home/ssysarch/Desktop/nick/jetpack_5/Jetson_Linux_R35.4.1_aarch64/Linux_for_Tegra/sources/tegra/optee-src/nv-optee/optee/optee_os/ldelf/ta_elf.c:629
    1fa0:	aa0503e3 	mov	x3, x5
    1fa4:	f9401c00 	ldr	x0, [x0, #56]
    1fa8:	17ffff73 	b	1d74 <map_segments+0x98>
/home/ssysarch/Desktop/nick/jetpack_5/Jetson_Linux_R35.4.1_aarch64/Linux_for_Tegra/sources/tegra/optee-src/nv-optee/optee/optee_os/ldelf/ta_elf.c:653
    1fac:	f9401c80 	ldr	x0, [x4, #56]
/home/ssysarch/Desktop/nick/jetpack_5/Jetson_Linux_R35.4.1_aarch64/Linux_for_Tegra/sources/tegra/optee-src/nv-optee/optee/optee_os/ldelf/ta_elf.c:649
    1fb0:	d1000475 	sub	x21, x3, #0x1
/home/ssysarch/Desktop/nick/jetpack_5/Jetson_Linux_R35.4.1_aarch64/Linux_for_Tegra/sources/tegra/optee-src/nv-optee/optee/optee_os/ldelf/ta_elf.c:700
    1fb4:	52800036 	mov	w22, #0x1                   	// #1
/home/ssysarch/Desktop/nick/jetpack_5/Jetson_Linux_R35.4.1_aarch64/Linux_for_Tegra/sources/tegra/optee-src/nv-optee/optee/optee_os/ldelf/ta_elf.c:654
    1fb8:	b4ffee20 	cbz	x0, 1d7c <map_segments+0xa0>
/home/ssysarch/Desktop/nick/jetpack_5/Jetson_Linux_R35.4.1_aarch64/Linux_for_Tegra/sources/tegra/optee-src/nv-optee/optee/optee_os/ldelf/ta_elf.c:655
    1fbc:	f9402004 	ldr	x4, [x0, #64]
    1fc0:	f9400002 	ldr	x2, [x0]
    1fc4:	f9400481 	ldr	x1, [x4, #8]
    1fc8:	f9400034 	ldr	x20, [x1]
/home/ssysarch/Desktop/nick/jetpack_5/Jetson_Linux_R35.4.1_aarch64/Linux_for_Tegra/sources/tegra/optee-src/nv-optee/optee/optee_os/ldelf/ta_elf.c:673
    1fcc:	f9400401 	ldr	x1, [x0, #8]
/home/ssysarch/Desktop/nick/jetpack_5/Jetson_Linux_R35.4.1_aarch64/Linux_for_Tegra/sources/tegra/optee-src/nv-optee/optee/optee_os/ldelf/ta_elf.c:656
    1fd0:	f9400685 	ldr	x5, [x20, #8]
rounddown():
/home/ssysarch/Desktop/nick/jetpack_5/Jetson_Linux_R35.4.1_aarch64/Linux_for_Tegra/sources/tegra/optee-src/nv-optee/optee/optee_os/ldelf/ta_elf.c:530
    1fd4:	9274cc23 	and	x3, x1, #0xfffffffffffff000
adjust_segments():
/home/ssysarch/Desktop/nick/jetpack_5/Jetson_Linux_R35.4.1_aarch64/Linux_for_Tegra/sources/tegra/optee-src/nv-optee/optee/optee_os/ldelf/ta_elf.c:656
    1fd8:	f9400e86 	ldr	x6, [x20, #24]
    1fdc:	8b0600a7 	add	x7, x5, x6
/home/ssysarch/Desktop/nick/jetpack_5/Jetson_Linux_R35.4.1_aarch64/Linux_for_Tegra/sources/tegra/optee-src/nv-optee/optee/optee_os/ldelf/ta_elf.c:673
    1fe0:	eb0300ff 	cmp	x7, x3
    1fe4:	54000529 	b.ls	2088 <map_segments+0x3ac>  // b.plast
/home/ssysarch/Desktop/nick/jetpack_5/Jetson_Linux_R35.4.1_aarch64/Linux_for_Tegra/sources/tegra/optee-src/nv-optee/optee/optee_os/ldelf/ta_elf.c:674
    1fe8:	ca020022 	eor	x2, x1, x2
    1fec:	ea15005f 	tst	x2, x21
    1ff0:	540000e0 	b.eq	200c <map_segments+0x330>  // b.none
    1ff4:	d0000022 	adrp	x2, 7000 <trace_ext_prefix+0x509>
    1ff8:	910d6c42 	add	x2, x2, #0x35b
    1ffc:	d0000020 	adrp	x0, 7000 <trace_ext_prefix+0x509>
    2000:	9101d800 	add	x0, x0, #0x76
    2004:	52805441 	mov	w1, #0x2a2                 	// #674
    2008:	17ffff8f 	b	1e44 <map_segments+0x168>
/home/ssysarch/Desktop/nick/jetpack_5/Jetson_Linux_R35.4.1_aarch64/Linux_for_Tegra/sources/tegra/optee-src/nv-optee/optee/optee_os/ldelf/ta_elf.c:675
    200c:	f9400a82 	ldr	x2, [x20, #16]
    2010:	eb0200df 	cmp	x6, x2
    2014:	540000e0 	b.eq	2030 <map_segments+0x354>  // b.none
    2018:	b0000022 	adrp	x2, 7000 <trace_ext_prefix+0x509>
    201c:	910d6c42 	add	x2, x2, #0x35b
    2020:	b0000020 	adrp	x0, 7000 <trace_ext_prefix+0x509>
    2024:	91028800 	add	x0, x0, #0xa2
    2028:	52805461 	mov	w1, #0x2a3                 	// #675
    202c:	17ffff86 	b	1e44 <map_segments+0x168>
/home/ssysarch/Desktop/nick/jetpack_5/Jetson_Linux_R35.4.1_aarch64/Linux_for_Tegra/sources/tegra/optee-src/nv-optee/optee/optee_os/ldelf/ta_elf.c:682
    2030:	f9400802 	ldr	x2, [x0, #16]
    2034:	8b020022 	add	x2, x1, x2
    2038:	cb050042 	sub	x2, x2, x5
    203c:	f9000a82 	str	x2, [x20, #16]
/home/ssysarch/Desktop/nick/jetpack_5/Jetson_Linux_R35.4.1_aarch64/Linux_for_Tegra/sources/tegra/optee-src/nv-optee/optee/optee_os/ldelf/ta_elf.c:684
    2040:	f9400c02 	ldr	x2, [x0, #24]
    2044:	8b020021 	add	x1, x1, x2
    2048:	cb050021 	sub	x1, x1, x5
/home/ssysarch/Desktop/nick/jetpack_5/Jetson_Linux_R35.4.1_aarch64/Linux_for_Tegra/sources/tegra/optee-src/nv-optee/optee/optee_os/ldelf/ta_elf.c:686
    204c:	f9401002 	ldr	x2, [x0, #32]
/home/ssysarch/Desktop/nick/jetpack_5/Jetson_Linux_R35.4.1_aarch64/Linux_for_Tegra/sources/tegra/optee-src/nv-optee/optee/optee_os/ldelf/ta_elf.c:684
    2050:	f9000e81 	str	x1, [x20, #24]
/home/ssysarch/Desktop/nick/jetpack_5/Jetson_Linux_R35.4.1_aarch64/Linux_for_Tegra/sources/tegra/optee-src/nv-optee/optee/optee_os/ldelf/ta_elf.c:686
    2054:	f9401281 	ldr	x1, [x20, #32]
    2058:	aa020021 	orr	x1, x1, x2
    205c:	f9001281 	str	x1, [x20, #32]
/home/ssysarch/Desktop/nick/jetpack_5/Jetson_Linux_R35.4.1_aarch64/Linux_for_Tegra/sources/tegra/optee-src/nv-optee/optee/optee_os/ldelf/ta_elf.c:688
    2060:	f9401c01 	ldr	x1, [x0, #56]
    2064:	b40000e1 	cbz	x1, 2080 <map_segments+0x3a4>
    2068:	f9002024 	str	x4, [x1, #64]
    206c:	f9402002 	ldr	x2, [x0, #64]
    2070:	f9000041 	str	x1, [x2]
/home/ssysarch/Desktop/nick/jetpack_5/Jetson_Linux_R35.4.1_aarch64/Linux_for_Tegra/sources/tegra/optee-src/nv-optee/optee/optee_os/ldelf/ta_elf.c:689
    2074:	94000dc5 	bl	5788 <free>
/home/ssysarch/Desktop/nick/jetpack_5/Jetson_Linux_R35.4.1_aarch64/Linux_for_Tegra/sources/tegra/optee-src/nv-optee/optee/optee_os/ldelf/ta_elf.c:690
    2078:	f9401e80 	ldr	x0, [x20, #56]
/home/ssysarch/Desktop/nick/jetpack_5/Jetson_Linux_R35.4.1_aarch64/Linux_for_Tegra/sources/tegra/optee-src/nv-optee/optee/optee_os/ldelf/ta_elf.c:691
    207c:	17ffffcf 	b	1fb8 <map_segments+0x2dc>
/home/ssysarch/Desktop/nick/jetpack_5/Jetson_Linux_R35.4.1_aarch64/Linux_for_Tegra/sources/tegra/optee-src/nv-optee/optee/optee_os/ldelf/ta_elf.c:688
    2080:	f9005664 	str	x4, [x19, #168]
    2084:	17fffffa 	b	206c <map_segments+0x390>
/home/ssysarch/Desktop/nick/jetpack_5/Jetson_Linux_R35.4.1_aarch64/Linux_for_Tegra/sources/tegra/optee-src/nv-optee/optee/optee_os/ldelf/ta_elf.c:695
    2088:	9274cc44 	and	x4, x2, #0xfffffffffffff000
    208c:	ea0202bf 	tst	x21, x2
    2090:	540001e0 	b.eq	20cc <map_segments+0x3f0>  // b.none
/home/ssysarch/Desktop/nick/jetpack_5/Jetson_Linux_R35.4.1_aarch64/Linux_for_Tegra/sources/tegra/optee-src/nv-optee/optee/optee_os/ldelf/ta_elf.c:697
    2094:	f9400282 	ldr	x2, [x20]
    2098:	f9400a85 	ldr	x5, [x20, #16]
    209c:	8b050042 	add	x2, x2, x5
/home/ssysarch/Desktop/nick/jetpack_5/Jetson_Linux_R35.4.1_aarch64/Linux_for_Tegra/sources/tegra/optee-src/nv-optee/optee/optee_os/ldelf/ta_elf.c:695
    20a0:	eb04005f 	cmp	x2, x4
    20a4:	54000149 	b.ls	20cc <map_segments+0x3f0>  // b.plast
/home/ssysarch/Desktop/nick/jetpack_5/Jetson_Linux_R35.4.1_aarch64/Linux_for_Tegra/sources/tegra/optee-src/nv-optee/optee/optee_os/ldelf/ta_elf.c:699
    20a8:	f9401002 	ldr	x2, [x0, #32]
    20ac:	370800e2 	tbnz	w2, #1, 20c8 <map_segments+0x3ec>
    20b0:	b0000022 	adrp	x2, 7000 <trace_ext_prefix+0x509>
    20b4:	910d6c42 	add	x2, x2, #0x35b
    20b8:	b0000020 	adrp	x0, 7000 <trace_ext_prefix+0x509>
    20bc:	91031800 	add	x0, x0, #0xc6
    20c0:	52805761 	mov	w1, #0x2bb                 	// #699
    20c4:	17ffff60 	b	1e44 <map_segments+0x168>
/home/ssysarch/Desktop/nick/jetpack_5/Jetson_Linux_R35.4.1_aarch64/Linux_for_Tegra/sources/tegra/optee-src/nv-optee/optee/optee_os/ldelf/ta_elf.c:700
    20c8:	3900c016 	strb	w22, [x0, #48]
/home/ssysarch/Desktop/nick/jetpack_5/Jetson_Linux_R35.4.1_aarch64/Linux_for_Tegra/sources/tegra/optee-src/nv-optee/optee/optee_os/ldelf/ta_elf.c:707
    20cc:	f9400802 	ldr	x2, [x0, #16]
    20d0:	cb030021 	sub	x1, x1, x3
/home/ssysarch/Desktop/nick/jetpack_5/Jetson_Linux_R35.4.1_aarch64/Linux_for_Tegra/sources/tegra/optee-src/nv-optee/optee/optee_os/ldelf/ta_elf.c:709
    20d4:	a9000c04 	stp	x4, x3, [x0]
/home/ssysarch/Desktop/nick/jetpack_5/Jetson_Linux_R35.4.1_aarch64/Linux_for_Tegra/sources/tegra/optee-src/nv-optee/optee/optee_os/ldelf/ta_elf.c:707
    20d8:	8b010042 	add	x2, x2, x1
    20dc:	f9000802 	str	x2, [x0, #16]
/home/ssysarch/Desktop/nick/jetpack_5/Jetson_Linux_R35.4.1_aarch64/Linux_for_Tegra/sources/tegra/optee-src/nv-optee/optee/optee_os/ldelf/ta_elf.c:708
    20e0:	f9400c02 	ldr	x2, [x0, #24]
    20e4:	8b010041 	add	x1, x2, x1
    20e8:	f9000c01 	str	x1, [x0, #24]
/home/ssysarch/Desktop/nick/jetpack_5/Jetson_Linux_R35.4.1_aarch64/Linux_for_Tegra/sources/tegra/optee-src/nv-optee/optee/optee_os/ldelf/ta_elf.c:711
    20ec:	f9401c00 	ldr	x0, [x0, #56]
    20f0:	17ffffb2 	b	1fb8 <map_segments+0x2dc>
map_segments():
/home/ssysarch/Desktop/nick/jetpack_5/Jetson_Linux_R35.4.1_aarch64/Linux_for_Tegra/sources/tegra/optee-src/nv-optee/optee/optee_os/ldelf/ta_elf.c:1015
    20f4:	f94006c4 	ldr	x4, [x22, #8]
    20f8:	910163f7 	add	x23, sp, #0x58
    20fc:	f9400ec0 	ldr	x0, [x22, #24]
    2100:	aa1503e2 	mov	x2, x21
    2104:	aa1703e1 	mov	x1, x23
    2108:	8b000084 	add	x4, x4, x0
    210c:	f9400660 	ldr	x0, [x19, #8]
roundup():
/home/ssysarch/Desktop/nick/jetpack_5/Jetson_Linux_R35.4.1_aarch64/Linux_for_Tegra/sources/tegra/optee-src/nv-optee/optee/optee_os/ldelf/ta_elf.c:525
    2110:	913ffc84 	add	x4, x4, #0xfff
map_segments():
/home/ssysarch/Desktop/nick/jetpack_5/Jetson_Linux_R35.4.1_aarch64/Linux_for_Tegra/sources/tegra/optee-src/nv-optee/optee/optee_os/ldelf/ta_elf.c:1015
    2114:	9274cc84 	and	x4, x4, #0xfffffffffffff000
    2118:	97fff96d 	bl	6cc <sys_remap>
    211c:	2a0003f4 	mov	w20, w0
/home/ssysarch/Desktop/nick/jetpack_5/Jetson_Linux_R35.4.1_aarch64/Linux_for_Tegra/sources/tegra/optee-src/nv-optee/optee/optee_os/ldelf/ta_elf.c:1017
    2120:	129ffe60 	mov	w0, #0xffff000c            	// #-65524
    2124:	6b00029f 	cmp	w20, w0
    2128:	54000181 	b.ne	2158 <map_segments+0x47c>  // b.any
/home/ssysarch/Desktop/nick/jetpack_5/Jetson_Linux_R35.4.1_aarch64/Linux_for_Tegra/sources/tegra/optee-src/nv-optee/optee/optee_os/ldelf/ta_elf.c:1018
    212c:	f94006c4 	ldr	x4, [x22, #8]
    2130:	aa1503e2 	mov	x2, x21
    2134:	f9400ec0 	ldr	x0, [x22, #24]
    2138:	aa1703e1 	mov	x1, x23
    213c:	d2800003 	mov	x3, #0x0                   	// #0
    2140:	8b000084 	add	x4, x4, x0
    2144:	f9400660 	ldr	x0, [x19, #8]
roundup():
/home/ssysarch/Desktop/nick/jetpack_5/Jetson_Linux_R35.4.1_aarch64/Linux_for_Tegra/sources/tegra/optee-src/nv-optee/optee/optee_os/ldelf/ta_elf.c:525
    2148:	913ffc84 	add	x4, x4, #0xfff
map_segments():
/home/ssysarch/Desktop/nick/jetpack_5/Jetson_Linux_R35.4.1_aarch64/Linux_for_Tegra/sources/tegra/optee-src/nv-optee/optee/optee_os/ldelf/ta_elf.c:1018
    214c:	9274cc84 	and	x4, x4, #0xfffffffffffff000
    2150:	97fff95f 	bl	6cc <sys_remap>
    2154:	2a0003f4 	mov	w20, w0
/home/ssysarch/Desktop/nick/jetpack_5/Jetson_Linux_R35.4.1_aarch64/Linux_for_Tegra/sources/tegra/optee-src/nv-optee/optee/optee_os/ldelf/ta_elf.c:1020
    2158:	34000174 	cbz	w20, 2184 <map_segments+0x4a8>
/home/ssysarch/Desktop/nick/jetpack_5/Jetson_Linux_R35.4.1_aarch64/Linux_for_Tegra/sources/tegra/optee-src/nv-optee/optee/optee_os/ldelf/ta_elf.c:1021
    215c:	b0000024 	adrp	x4, 7000 <trace_ext_prefix+0x509>
    2160:	91036084 	add	x4, x4, #0xd8
    2164:	52800023 	mov	w3, #0x1                   	// #1
    2168:	52800022 	mov	w2, #0x1                   	// #1
    216c:	52807fa1 	mov	w1, #0x3fd                 	// #1021
    2170:	b0000020 	adrp	x0, 7000 <trace_ext_prefix+0x509>
    2174:	910ecc00 	add	x0, x0, #0x3b3
    2178:	940011d5 	bl	68cc <trace_printf>
    217c:	2a1403e0 	mov	w0, w20
    2180:	97fff7fa 	bl	168 <_ldelf_return>
/home/ssysarch/Desktop/nick/jetpack_5/Jetson_Linux_R35.4.1_aarch64/Linux_for_Tegra/sources/tegra/optee-src/nv-optee/optee/optee_os/ldelf/ta_elf.c:1025
    2184:	f9401a61 	ldr	x1, [x19, #48]
/home/ssysarch/Desktop/nick/jetpack_5/Jetson_Linux_R35.4.1_aarch64/Linux_for_Tegra/sources/tegra/optee-src/nv-optee/optee/optee_os/ldelf/ta_elf.c:1022
    2188:	f9402fe0 	ldr	x0, [sp, #88]
    218c:	f9001260 	str	x0, [x19, #32]
/home/ssysarch/Desktop/nick/jetpack_5/Jetson_Linux_R35.4.1_aarch64/Linux_for_Tegra/sources/tegra/optee-src/nv-optee/optee/optee_os/ldelf/ta_elf.c:1024
    2190:	8b0002b5 	add	x21, x21, x0
    2194:	a900d660 	stp	x0, x21, [x19, #8]
/home/ssysarch/Desktop/nick/jetpack_5/Jetson_Linux_R35.4.1_aarch64/Linux_for_Tegra/sources/tegra/optee-src/nv-optee/optee/optee_os/ldelf/ta_elf.c:1025
    2198:	8b000020 	add	x0, x1, x0
    219c:	f9002a60 	str	x0, [x19, #80]
/home/ssysarch/Desktop/nick/jetpack_5/Jetson_Linux_R35.4.1_aarch64/Linux_for_Tegra/sources/tegra/optee-src/nv-optee/optee/optee_os/ldelf/ta_elf.c:1027
    21a0:	a94153f3 	ldp	x19, x20, [sp, #16]
    21a4:	a9425bf5 	ldp	x21, x22, [sp, #32]
    21a8:	a94363f7 	ldp	x23, x24, [sp, #48]
    21ac:	f94023f9 	ldr	x25, [sp, #64]
    21b0:	a8c67bfd 	ldp	x29, x30, [sp], #96
    21b4:	d65f03c0 	ret

00000000000021b8 <ta_elf_find_elf>:
ta_elf_find_elf():
/home/ssysarch/Desktop/nick/jetpack_5/Jetson_Linux_R35.4.1_aarch64/Linux_for_Tegra/sources/tegra/optee-src/nv-optee/optee/optee_os/ldelf/ta_elf.c:91
    21b8:	a9be7bfd 	stp	x29, x30, [sp, #-32]!
    21bc:	910003fd 	mov	x29, sp
    21c0:	a90153f3 	stp	x19, x20, [sp, #16]
    21c4:	aa0003f4 	mov	x20, x0
/home/ssysarch/Desktop/nick/jetpack_5/Jetson_Linux_R35.4.1_aarch64/Linux_for_Tegra/sources/tegra/optee-src/nv-optee/optee/optee_os/ldelf/ta_elf.c:94
    21c8:	d0000020 	adrp	x0, 8000 <_DYNAMIC>
    21cc:	f940b013 	ldr	x19, [x0, #352]
/home/ssysarch/Desktop/nick/jetpack_5/Jetson_Linux_R35.4.1_aarch64/Linux_for_Tegra/sources/tegra/optee-src/nv-optee/optee/optee_os/ldelf/ta_elf.c:94 (discriminator 1)
    21d0:	b50000b3 	cbnz	x19, 21e4 <ta_elf_find_elf+0x2c>
/home/ssysarch/Desktop/nick/jetpack_5/Jetson_Linux_R35.4.1_aarch64/Linux_for_Tegra/sources/tegra/optee-src/nv-optee/optee/optee_os/ldelf/ta_elf.c:99
    21d4:	aa1303e0 	mov	x0, x19
    21d8:	a94153f3 	ldp	x19, x20, [sp, #16]
    21dc:	a8c27bfd 	ldp	x29, x30, [sp], #32
    21e0:	d65f03c0 	ret
/home/ssysarch/Desktop/nick/jetpack_5/Jetson_Linux_R35.4.1_aarch64/Linux_for_Tegra/sources/tegra/optee-src/nv-optee/optee/optee_os/ldelf/ta_elf.c:95
    21e4:	91044261 	add	x1, x19, #0x110
    21e8:	aa1403e0 	mov	x0, x20
    21ec:	d2800202 	mov	x2, #0x10                  	// #16
    21f0:	94000dd8 	bl	5950 <memcmp>
    21f4:	34ffff00 	cbz	w0, 21d4 <ta_elf_find_elf+0x1c>
/home/ssysarch/Desktop/nick/jetpack_5/Jetson_Linux_R35.4.1_aarch64/Linux_for_Tegra/sources/tegra/optee-src/nv-optee/optee/optee_os/ldelf/ta_elf.c:94 (discriminator 2)
    21f8:	f9409273 	ldr	x19, [x19, #288]
    21fc:	17fffff5 	b	21d0 <ta_elf_find_elf+0x18>

0000000000002200 <queue_elf>:
queue_elf():
/home/ssysarch/Desktop/nick/jetpack_5/Jetson_Linux_R35.4.1_aarch64/Linux_for_Tegra/sources/tegra/optee-src/nv-optee/optee/optee_os/ldelf/ta_elf.c:77
    2200:	a9be7bfd 	stp	x29, x30, [sp, #-32]!
    2204:	910003fd 	mov	x29, sp
    2208:	f9000bf3 	str	x19, [sp, #16]
    220c:	aa0003f3 	mov	x19, x0
/home/ssysarch/Desktop/nick/jetpack_5/Jetson_Linux_R35.4.1_aarch64/Linux_for_Tegra/sources/tegra/optee-src/nv-optee/optee/optee_os/ldelf/ta_elf.c:78
    2210:	97ffffea 	bl	21b8 <ta_elf_find_elf>
/home/ssysarch/Desktop/nick/jetpack_5/Jetson_Linux_R35.4.1_aarch64/Linux_for_Tegra/sources/tegra/optee-src/nv-optee/optee/optee_os/ldelf/ta_elf.c:80
    2214:	b50001c0 	cbnz	x0, 224c <queue_elf+0x4c>
/home/ssysarch/Desktop/nick/jetpack_5/Jetson_Linux_R35.4.1_aarch64/Linux_for_Tegra/sources/tegra/optee-src/nv-optee/optee/optee_os/ldelf/ta_elf.c:83
    2218:	aa1303e0 	mov	x0, x19
    221c:	97fff92e 	bl	6d4 <queue_elf_helper>
/home/ssysarch/Desktop/nick/jetpack_5/Jetson_Linux_R35.4.1_aarch64/Linux_for_Tegra/sources/tegra/optee-src/nv-optee/optee/optee_os/ldelf/ta_elf.c:84
    2220:	b5000180 	cbnz	x0, 2250 <queue_elf+0x50>
/home/ssysarch/Desktop/nick/jetpack_5/Jetson_Linux_R35.4.1_aarch64/Linux_for_Tegra/sources/tegra/optee-src/nv-optee/optee/optee_os/ldelf/ta_elf.c:85
    2224:	b0000024 	adrp	x4, 7000 <trace_ext_prefix+0x509>
    2228:	91038884 	add	x4, x4, #0xe2
    222c:	52800023 	mov	w3, #0x1                   	// #1
    2230:	52800022 	mov	w2, #0x1                   	// #1
    2234:	52800aa1 	mov	w1, #0x55                  	// #85
    2238:	b0000020 	adrp	x0, 7000 <trace_ext_prefix+0x509>
    223c:	910ac800 	add	x0, x0, #0x2b2
    2240:	940011a3 	bl	68cc <trace_printf>
    2244:	129ffe60 	mov	w0, #0xffff000c            	// #-65524
    2248:	97fff7c8 	bl	168 <_ldelf_return>
/home/ssysarch/Desktop/nick/jetpack_5/Jetson_Linux_R35.4.1_aarch64/Linux_for_Tegra/sources/tegra/optee-src/nv-optee/optee/optee_os/ldelf/ta_elf.c:81
    224c:	d2800000 	mov	x0, #0x0                   	// #0
/home/ssysarch/Desktop/nick/jetpack_5/Jetson_Linux_R35.4.1_aarch64/Linux_for_Tegra/sources/tegra/optee-src/nv-optee/optee/optee_os/ldelf/ta_elf.c:88
    2250:	f9400bf3 	ldr	x19, [sp, #16]
    2254:	a8c27bfd 	ldp	x29, x30, [sp], #32
    2258:	d65f03c0 	ret

000000000000225c <add_deps_from_segment>:
add_deps_from_segment():
/home/ssysarch/Desktop/nick/jetpack_5/Jetson_Linux_R35.4.1_aarch64/Linux_for_Tegra/sources/tegra/optee-src/nv-optee/optee/optee_os/ldelf/ta_elf.c:1031
    225c:	a9b87bfd 	stp	x29, x30, [sp, #-128]!
/home/ssysarch/Desktop/nick/jetpack_5/Jetson_Linux_R35.4.1_aarch64/Linux_for_Tegra/sources/tegra/optee-src/nv-optee/optee/optee_os/ldelf/ta_elf.c:1041
    2260:	7100083f 	cmp	w1, #0x2
/home/ssysarch/Desktop/nick/jetpack_5/Jetson_Linux_R35.4.1_aarch64/Linux_for_Tegra/sources/tegra/optee-src/nv-optee/optee/optee_os/ldelf/ta_elf.c:1031
    2264:	910003fd 	mov	x29, sp
    2268:	a90153f3 	stp	x19, x20, [sp, #16]
    226c:	a9025bf5 	stp	x21, x22, [sp, #32]
    2270:	a90363f7 	stp	x23, x24, [sp, #48]
    2274:	a9046bf9 	stp	x25, x26, [sp, #64]
    2278:	f9002bfb 	str	x27, [sp, #80]
/home/ssysarch/Desktop/nick/jetpack_5/Jetson_Linux_R35.4.1_aarch64/Linux_for_Tegra/sources/tegra/optee-src/nv-optee/optee/optee_os/ldelf/ta_elf.c:1035
    227c:	b90067ff 	str	wzr, [sp, #100]
/home/ssysarch/Desktop/nick/jetpack_5/Jetson_Linux_R35.4.1_aarch64/Linux_for_Tegra/sources/tegra/optee-src/nv-optee/optee/optee_os/ldelf/ta_elf.c:1036
    2280:	f90037ff 	str	xzr, [sp, #104]
/home/ssysarch/Desktop/nick/jetpack_5/Jetson_Linux_R35.4.1_aarch64/Linux_for_Tegra/sources/tegra/optee-src/nv-optee/optee/optee_os/ldelf/ta_elf.c:1037
    2284:	a9077fff 	stp	xzr, xzr, [sp, #112]
/home/ssysarch/Desktop/nick/jetpack_5/Jetson_Linux_R35.4.1_aarch64/Linux_for_Tegra/sources/tegra/optee-src/nv-optee/optee/optee_os/ldelf/ta_elf.c:1041
    2288:	54000541 	b.ne	2330 <add_deps_from_segment+0xd4>  // b.any
    228c:	aa0003f6 	mov	x22, x0
    2290:	aa0203f7 	mov	x23, x2
    2294:	aa0303f4 	mov	x20, x3
/home/ssysarch/Desktop/nick/jetpack_5/Jetson_Linux_R35.4.1_aarch64/Linux_for_Tegra/sources/tegra/optee-src/nv-optee/optee/optee_os/ldelf/ta_elf.c:1044
    2298:	aa0303e2 	mov	x2, x3
    229c:	aa1703e1 	mov	x1, x23
    22a0:	97fffabd 	bl	d94 <check_phdr_in_range.constprop.0>
/home/ssysarch/Desktop/nick/jetpack_5/Jetson_Linux_R35.4.1_aarch64/Linux_for_Tegra/sources/tegra/optee-src/nv-optee/optee/optee_os/ldelf/ta_elf.c:1046
    22a4:	394006c0 	ldrb	w0, [x22, #1]
/home/ssysarch/Desktop/nick/jetpack_5/Jetson_Linux_R35.4.1_aarch64/Linux_for_Tegra/sources/tegra/optee-src/nv-optee/optee/optee_os/ldelf/ta_elf.c:1049
    22a8:	d2800113 	mov	x19, #0x8                   	// #8
    22ac:	d2800202 	mov	x2, #0x10                  	// #16
    22b0:	7100001f 	cmp	w0, #0x0
    22b4:	9a821273 	csel	x19, x19, x2, ne  // ne = any
/home/ssysarch/Desktop/nick/jetpack_5/Jetson_Linux_R35.4.1_aarch64/Linux_for_Tegra/sources/tegra/optee-src/nv-optee/optee/optee_os/ldelf/ta_elf.c:1051
    22b8:	9ad30a98 	udiv	x24, x20, x19
    22bc:	9b13d313 	msub	x19, x24, x19, x20
    22c0:	b40000f3 	cbz	x19, 22dc <add_deps_from_segment+0x80>
/home/ssysarch/Desktop/nick/jetpack_5/Jetson_Linux_R35.4.1_aarch64/Linux_for_Tegra/sources/tegra/optee-src/nv-optee/optee/optee_os/ldelf/ta_elf.c:1051 (discriminator 1)
    22c4:	b0000022 	adrp	x2, 7000 <trace_ext_prefix+0x509>
    22c8:	910f0042 	add	x2, x2, #0x3c0
    22cc:	90000020 	adrp	x0, 6000 <kprintf.constprop.0+0x4c8>
    22d0:	91320000 	add	x0, x0, #0xc80
    22d4:	52808361 	mov	w1, #0x41b                 	// #1051
    22d8:	97fffacc 	bl	e08 <_assert_trap.constprop.0>
/home/ssysarch/Desktop/nick/jetpack_5/Jetson_Linux_R35.4.1_aarch64/Linux_for_Tegra/sources/tegra/optee-src/nv-optee/optee/optee_os/ldelf/ta_elf.c:1055
    22dc:	9101a3e4 	add	x4, sp, #0x68
    22e0:	910193e3 	add	x3, sp, #0x64
/home/ssysarch/Desktop/nick/jetpack_5/Jetson_Linux_R35.4.1_aarch64/Linux_for_Tegra/sources/tegra/optee-src/nv-optee/optee/optee_os/ldelf/ta_elf.c:1039
    22e4:	d2800015 	mov	x21, #0x0                   	// #0
/home/ssysarch/Desktop/nick/jetpack_5/Jetson_Linux_R35.4.1_aarch64/Linux_for_Tegra/sources/tegra/optee-src/nv-optee/optee/optee_os/ldelf/ta_elf.c:1054
    22e8:	d2800006 	mov	x6, #0x0                   	// #0
/home/ssysarch/Desktop/nick/jetpack_5/Jetson_Linux_R35.4.1_aarch64/Linux_for_Tegra/sources/tegra/optee-src/nv-optee/optee/optee_os/ldelf/ta_elf.c:1038
    22ec:	d2800014 	mov	x20, #0x0                   	// #0
/home/ssysarch/Desktop/nick/jetpack_5/Jetson_Linux_R35.4.1_aarch64/Linux_for_Tegra/sources/tegra/optee-src/nv-optee/optee/optee_os/ldelf/ta_elf.c:1054 (discriminator 1)
    22f0:	eb1800df 	cmp	x6, x24
    22f4:	54000080 	b.eq	2304 <add_deps_from_segment+0xa8>  // b.none
/home/ssysarch/Desktop/nick/jetpack_5/Jetson_Linux_R35.4.1_aarch64/Linux_for_Tegra/sources/tegra/optee-src/nv-optee/optee/optee_os/ldelf/ta_elf.c:1054 (discriminator 3)
    22f8:	f100029f 	cmp	x20, #0x0
    22fc:	fa401aa4 	ccmp	x21, #0x0, #0x4, ne  // ne = any
    2300:	54000260 	b.eq	234c <add_deps_from_segment+0xf0>  // b.none
/home/ssysarch/Desktop/nick/jetpack_5/Jetson_Linux_R35.4.1_aarch64/Linux_for_Tegra/sources/tegra/optee-src/nv-optee/optee/optee_os/ldelf/ta_elf.c:1064
    2304:	9101a3fa 	add	x26, sp, #0x68
    2308:	910193fb 	add	x27, sp, #0x64
/home/ssysarch/Desktop/nick/jetpack_5/Jetson_Linux_R35.4.1_aarch64/Linux_for_Tegra/sources/tegra/optee-src/nv-optee/optee/optee_os/ldelf/ta_elf.c:1070
    230c:	9101c3f9 	add	x25, sp, #0x70
/home/ssysarch/Desktop/nick/jetpack_5/Jetson_Linux_R35.4.1_aarch64/Linux_for_Tegra/sources/tegra/optee-src/nv-optee/optee/optee_os/ldelf/ta_elf.c:1061
    2310:	aa1503e3 	mov	x3, x21
    2314:	aa1403e2 	mov	x2, x20
    2318:	aa1603e0 	mov	x0, x22
    231c:	90000021 	adrp	x1, 6000 <kprintf.constprop.0+0x4c8>
    2320:	913ba021 	add	x1, x1, #0xee8
    2324:	97fffa10 	bl	b64 <check_range>
/home/ssysarch/Desktop/nick/jetpack_5/Jetson_Linux_R35.4.1_aarch64/Linux_for_Tegra/sources/tegra/optee-src/nv-optee/optee/optee_os/ldelf/ta_elf.c:1063 (discriminator 1)
    2328:	eb18027f 	cmp	x19, x24
    232c:	54000301 	b.ne	238c <add_deps_from_segment+0x130>  // b.any
/home/ssysarch/Desktop/nick/jetpack_5/Jetson_Linux_R35.4.1_aarch64/Linux_for_Tegra/sources/tegra/optee-src/nv-optee/optee/optee_os/ldelf/ta_elf.c:1073
    2330:	a94153f3 	ldp	x19, x20, [sp, #16]
    2334:	a9425bf5 	ldp	x21, x22, [sp, #32]
    2338:	a94363f7 	ldp	x23, x24, [sp, #48]
    233c:	a9446bf9 	ldp	x25, x26, [sp, #64]
    2340:	f9402bfb 	ldr	x27, [sp, #80]
    2344:	a8c87bfd 	ldp	x29, x30, [sp], #128
    2348:	d65f03c0 	ret
/home/ssysarch/Desktop/nick/jetpack_5/Jetson_Linux_R35.4.1_aarch64/Linux_for_Tegra/sources/tegra/optee-src/nv-optee/optee/optee_os/ldelf/ta_elf.c:1055
    234c:	aa1603e0 	mov	x0, x22
    2350:	aa0603e2 	mov	x2, x6
    2354:	aa1703e1 	mov	x1, x23
    2358:	97fff9f2 	bl	b20 <read_dyn>
/home/ssysarch/Desktop/nick/jetpack_5/Jetson_Linux_R35.4.1_aarch64/Linux_for_Tegra/sources/tegra/optee-src/nv-optee/optee/optee_os/ldelf/ta_elf.c:1056
    235c:	b94067e0 	ldr	w0, [sp, #100]
    2360:	7100141f 	cmp	w0, #0x5
    2364:	540000c1 	b.ne	237c <add_deps_from_segment+0x120>  // b.any
/home/ssysarch/Desktop/nick/jetpack_5/Jetson_Linux_R35.4.1_aarch64/Linux_for_Tegra/sources/tegra/optee-src/nv-optee/optee/optee_os/ldelf/ta_elf.c:1057
    2368:	f94006d4 	ldr	x20, [x22, #8]
    236c:	f94037e0 	ldr	x0, [sp, #104]
    2370:	8b000294 	add	x20, x20, x0
/home/ssysarch/Desktop/nick/jetpack_5/Jetson_Linux_R35.4.1_aarch64/Linux_for_Tegra/sources/tegra/optee-src/nv-optee/optee/optee_os/ldelf/ta_elf.c:1054 (discriminator 2)
    2374:	910004c6 	add	x6, x6, #0x1
    2378:	17ffffde 	b	22f0 <add_deps_from_segment+0x94>
/home/ssysarch/Desktop/nick/jetpack_5/Jetson_Linux_R35.4.1_aarch64/Linux_for_Tegra/sources/tegra/optee-src/nv-optee/optee/optee_os/ldelf/ta_elf.c:1058
    237c:	7100281f 	cmp	w0, #0xa
    2380:	54ffffa1 	b.ne	2374 <add_deps_from_segment+0x118>  // b.any
/home/ssysarch/Desktop/nick/jetpack_5/Jetson_Linux_R35.4.1_aarch64/Linux_for_Tegra/sources/tegra/optee-src/nv-optee/optee/optee_os/ldelf/ta_elf.c:1059
    2384:	f94037f5 	ldr	x21, [sp, #104]
    2388:	17fffffb 	b	2374 <add_deps_from_segment+0x118>
/home/ssysarch/Desktop/nick/jetpack_5/Jetson_Linux_R35.4.1_aarch64/Linux_for_Tegra/sources/tegra/optee-src/nv-optee/optee/optee_os/ldelf/ta_elf.c:1064
    238c:	aa1303e2 	mov	x2, x19
    2390:	aa1a03e4 	mov	x4, x26
    2394:	aa1b03e3 	mov	x3, x27
    2398:	aa1703e1 	mov	x1, x23
    239c:	aa1603e0 	mov	x0, x22
    23a0:	97fff9e0 	bl	b20 <read_dyn>
/home/ssysarch/Desktop/nick/jetpack_5/Jetson_Linux_R35.4.1_aarch64/Linux_for_Tegra/sources/tegra/optee-src/nv-optee/optee/optee_os/ldelf/ta_elf.c:1065
    23a4:	b94067e2 	ldr	w2, [sp, #100]
    23a8:	7100045f 	cmp	w2, #0x1
    23ac:	54000241 	b.ne	23f4 <add_deps_from_segment+0x198>  // b.any
/home/ssysarch/Desktop/nick/jetpack_5/Jetson_Linux_R35.4.1_aarch64/Linux_for_Tegra/sources/tegra/optee-src/nv-optee/optee/optee_os/ldelf/ta_elf.c:1067
    23b0:	f94037e1 	ldr	x1, [sp, #104]
    23b4:	eb15003f 	cmp	x1, x21
    23b8:	54000143 	b.cc	23e0 <add_deps_from_segment+0x184>  // b.lo, b.ul, b.last
/home/ssysarch/Desktop/nick/jetpack_5/Jetson_Linux_R35.4.1_aarch64/Linux_for_Tegra/sources/tegra/optee-src/nv-optee/optee/optee_os/ldelf/ta_elf.c:1068
    23bc:	2a0203e3 	mov	w3, w2
    23c0:	b0000024 	adrp	x4, 7000 <trace_ext_prefix+0x509>
    23c4:	9103cc84 	add	x4, x4, #0xf3
    23c8:	52808581 	mov	w1, #0x42c                 	// #1068
    23cc:	b0000020 	adrp	x0, 7000 <trace_ext_prefix+0x509>
    23d0:	910f0000 	add	x0, x0, #0x3c0
    23d4:	9400113e 	bl	68cc <trace_printf>
    23d8:	129fff40 	mov	w0, #0xffff0005            	// #-65531
    23dc:	97fff763 	bl	168 <_ldelf_return>
/home/ssysarch/Desktop/nick/jetpack_5/Jetson_Linux_R35.4.1_aarch64/Linux_for_Tegra/sources/tegra/optee-src/nv-optee/optee/optee_os/ldelf/ta_elf.c:1070
    23e0:	8b010281 	add	x1, x20, x1
    23e4:	aa1903e0 	mov	x0, x25
    23e8:	94000a44 	bl	4cf8 <tee_uuid_from_str>
/home/ssysarch/Desktop/nick/jetpack_5/Jetson_Linux_R35.4.1_aarch64/Linux_for_Tegra/sources/tegra/optee-src/nv-optee/optee/optee_os/ldelf/ta_elf.c:1071
    23ec:	aa1903e0 	mov	x0, x25
    23f0:	97ffff84 	bl	2200 <queue_elf>
/home/ssysarch/Desktop/nick/jetpack_5/Jetson_Linux_R35.4.1_aarch64/Linux_for_Tegra/sources/tegra/optee-src/nv-optee/optee/optee_os/ldelf/ta_elf.c:1063 (discriminator 2)
    23f4:	91000673 	add	x19, x19, #0x1
    23f8:	17ffffcc 	b	2328 <add_deps_from_segment+0xcc>

00000000000023fc <add_dependencies>:
add_dependencies():
/home/ssysarch/Desktop/nick/jetpack_5/Jetson_Linux_R35.4.1_aarch64/Linux_for_Tegra/sources/tegra/optee-src/nv-optee/optee/optee_os/ldelf/ta_elf.c:1076
    23fc:	a9bd7bfd 	stp	x29, x30, [sp, #-48]!
    2400:	910003fd 	mov	x29, sp
    2404:	a90153f3 	stp	x19, x20, [sp, #16]
    2408:	aa0003f4 	mov	x20, x0
    240c:	f9402813 	ldr	x19, [x0, #80]
/home/ssysarch/Desktop/nick/jetpack_5/Jetson_Linux_R35.4.1_aarch64/Linux_for_Tegra/sources/tegra/optee-src/nv-optee/optee/optee_os/ldelf/ta_elf.c:1079
    2410:	39400400 	ldrb	w0, [x0, #1]
/home/ssysarch/Desktop/nick/jetpack_5/Jetson_Linux_R35.4.1_aarch64/Linux_for_Tegra/sources/tegra/optee-src/nv-optee/optee/optee_os/ldelf/ta_elf.c:1076
    2414:	f90013f5 	str	x21, [sp, #32]
/home/ssysarch/Desktop/nick/jetpack_5/Jetson_Linux_R35.4.1_aarch64/Linux_for_Tegra/sources/tegra/optee-src/nv-optee/optee/optee_os/ldelf/ta_elf.c:1082
    2418:	d2800015 	mov	x21, #0x0                   	// #0
/home/ssysarch/Desktop/nick/jetpack_5/Jetson_Linux_R35.4.1_aarch64/Linux_for_Tegra/sources/tegra/optee-src/nv-optee/optee/optee_os/ldelf/ta_elf.c:1079
    241c:	35000220 	cbnz	w0, 2460 <add_dependencies+0x64>
/home/ssysarch/Desktop/nick/jetpack_5/Jetson_Linux_R35.4.1_aarch64/Linux_for_Tegra/sources/tegra/optee-src/nv-optee/optee/optee_os/ldelf/ta_elf.c:1088 (discriminator 1)
    2420:	b9404280 	ldr	w0, [x20, #64]
    2424:	eb15001f 	cmp	x0, x21
    2428:	54000229 	b.ls	246c <add_dependencies+0x70>  // b.plast
/home/ssysarch/Desktop/nick/jetpack_5/Jetson_Linux_R35.4.1_aarch64/Linux_for_Tegra/sources/tegra/optee-src/nv-optee/optee/optee_os/ldelf/ta_elf.c:1089 (discriminator 3)
    242c:	f9400a62 	ldr	x2, [x19, #16]
    2430:	aa1403e0 	mov	x0, x20
    2434:	f9401663 	ldr	x3, [x19, #40]
/home/ssysarch/Desktop/nick/jetpack_5/Jetson_Linux_R35.4.1_aarch64/Linux_for_Tegra/sources/tegra/optee-src/nv-optee/optee/optee_os/ldelf/ta_elf.c:1088 (discriminator 3)
    2438:	910006b5 	add	x21, x21, #0x1
/home/ssysarch/Desktop/nick/jetpack_5/Jetson_Linux_R35.4.1_aarch64/Linux_for_Tegra/sources/tegra/optee-src/nv-optee/optee/optee_os/ldelf/ta_elf.c:1089 (discriminator 3)
    243c:	b8438661 	ldr	w1, [x19], #56
    2440:	97ffff87 	bl	225c <add_deps_from_segment>
/home/ssysarch/Desktop/nick/jetpack_5/Jetson_Linux_R35.4.1_aarch64/Linux_for_Tegra/sources/tegra/optee-src/nv-optee/optee/optee_os/ldelf/ta_elf.c:1088 (discriminator 3)
    2444:	17fffff7 	b	2420 <add_dependencies+0x24>
/home/ssysarch/Desktop/nick/jetpack_5/Jetson_Linux_R35.4.1_aarch64/Linux_for_Tegra/sources/tegra/optee-src/nv-optee/optee/optee_os/ldelf/ta_elf.c:1083
    2448:	b9400a62 	ldr	w2, [x19, #8]
    244c:	aa1403e0 	mov	x0, x20
    2450:	b9401663 	ldr	w3, [x19, #20]
/home/ssysarch/Desktop/nick/jetpack_5/Jetson_Linux_R35.4.1_aarch64/Linux_for_Tegra/sources/tegra/optee-src/nv-optee/optee/optee_os/ldelf/ta_elf.c:1082
    2454:	910006b5 	add	x21, x21, #0x1
/home/ssysarch/Desktop/nick/jetpack_5/Jetson_Linux_R35.4.1_aarch64/Linux_for_Tegra/sources/tegra/optee-src/nv-optee/optee/optee_os/ldelf/ta_elf.c:1083
    2458:	b8420661 	ldr	w1, [x19], #32
    245c:	97ffff80 	bl	225c <add_deps_from_segment>
/home/ssysarch/Desktop/nick/jetpack_5/Jetson_Linux_R35.4.1_aarch64/Linux_for_Tegra/sources/tegra/optee-src/nv-optee/optee/optee_os/ldelf/ta_elf.c:1082
    2460:	b9404280 	ldr	w0, [x20, #64]
    2464:	eb0002bf 	cmp	x21, x0
    2468:	54ffff03 	b.cc	2448 <add_dependencies+0x4c>  // b.lo, b.ul, b.last
/home/ssysarch/Desktop/nick/jetpack_5/Jetson_Linux_R35.4.1_aarch64/Linux_for_Tegra/sources/tegra/optee-src/nv-optee/optee/optee_os/ldelf/ta_elf.c:1092
    246c:	a94153f3 	ldp	x19, x20, [sp, #16]
    2470:	f94013f5 	ldr	x21, [sp, #32]
    2474:	a8c37bfd 	ldp	x29, x30, [sp], #48
    2478:	d65f03c0 	ret

000000000000247c <ta_elf_load_main>:
ta_elf_load_main():
/home/ssysarch/Desktop/nick/jetpack_5/Jetson_Linux_R35.4.1_aarch64/Linux_for_Tegra/sources/tegra/optee-src/nv-optee/optee/optee_os/ldelf/ta_elf.c:1252
    247c:	a9b87bfd 	stp	x29, x30, [sp, #-128]!
    2480:	910003fd 	mov	x29, sp
    2484:	a90153f3 	stp	x19, x20, [sp, #16]
    2488:	a9025bf5 	stp	x21, x22, [sp, #32]
    248c:	a90363f7 	stp	x23, x24, [sp, #48]
    2490:	aa0203f7 	mov	x23, x2
    2494:	aa0303f8 	mov	x24, x3
    2498:	a9046bf9 	stp	x25, x26, [sp, #64]
    249c:	aa0103f9 	mov	x25, x1
    24a0:	a90573fb 	stp	x27, x28, [sp, #80]
/home/ssysarch/Desktop/nick/jetpack_5/Jetson_Linux_R35.4.1_aarch64/Linux_for_Tegra/sources/tegra/optee-src/nv-optee/optee/optee_os/ldelf/ta_elf.c:1253
    24a4:	97ffff57 	bl	2200 <queue_elf>
/home/ssysarch/Desktop/nick/jetpack_5/Jetson_Linux_R35.4.1_aarch64/Linux_for_Tegra/sources/tegra/optee-src/nv-optee/optee/optee_os/ldelf/ta_elf.c:1254
    24a8:	f9003bff 	str	xzr, [sp, #112]
/home/ssysarch/Desktop/nick/jetpack_5/Jetson_Linux_R35.4.1_aarch64/Linux_for_Tegra/sources/tegra/optee-src/nv-optee/optee/optee_os/ldelf/ta_elf.c:1257
    24ac:	b50000e0 	cbnz	x0, 24c8 <ta_elf_load_main+0x4c>
/home/ssysarch/Desktop/nick/jetpack_5/Jetson_Linux_R35.4.1_aarch64/Linux_for_Tegra/sources/tegra/optee-src/nv-optee/optee/optee_os/ldelf/ta_elf.c:1257 (discriminator 1)
    24b0:	b0000022 	adrp	x2, 7000 <trace_ext_prefix+0x509>
    24b4:	91105842 	add	x2, x2, #0x416
    24b8:	b0000020 	adrp	x0, 7000 <trace_ext_prefix+0x509>
    24bc:	91046c00 	add	x0, x0, #0x11b
    24c0:	52809d21 	mov	w1, #0x4e9                 	// #1257
populate_segments_legacy():
/home/ssysarch/Desktop/nick/jetpack_5/Jetson_Linux_R35.4.1_aarch64/Linux_for_Tegra/sources/tegra/optee-src/nv-optee/optee/optee_os/ldelf/ta_elf.c:722
    24c4:	97fffa51 	bl	e08 <_assert_trap.constprop.0>
ta_elf_load_main():
/home/ssysarch/Desktop/nick/jetpack_5/Jetson_Linux_R35.4.1_aarch64/Linux_for_Tegra/sources/tegra/optee-src/nv-optee/optee/optee_os/ldelf/ta_elf.c:1258
    24c8:	52800021 	mov	w1, #0x1                   	// #1
    24cc:	39000001 	strb	w1, [x0]
    24d0:	aa0003f3 	mov	x19, x0
load_main():
/home/ssysarch/Desktop/nick/jetpack_5/Jetson_Linux_R35.4.1_aarch64/Linux_for_Tegra/sources/tegra/optee-src/nv-optee/optee/optee_os/ldelf/ta_elf.c:1198
    24d4:	97fff8d1 	bl	818 <init_elf>
/home/ssysarch/Desktop/nick/jetpack_5/Jetson_Linux_R35.4.1_aarch64/Linux_for_Tegra/sources/tegra/optee-src/nv-optee/optee/optee_os/ldelf/ta_elf.c:1199
    24d8:	9104027b 	add	x27, x19, #0x100
    24dc:	aa1303e0 	mov	x0, x19
    24e0:	97fffdff 	bl	1cdc <map_segments>
/home/ssysarch/Desktop/nick/jetpack_5/Jetson_Linux_R35.4.1_aarch64/Linux_for_Tegra/sources/tegra/optee-src/nv-optee/optee/optee_os/ldelf/ta_elf.c:1200
    24e4:	aa1303e0 	mov	x0, x19
    24e8:	97fffb51 	bl	122c <populate_segments>
/home/ssysarch/Desktop/nick/jetpack_5/Jetson_Linux_R35.4.1_aarch64/Linux_for_Tegra/sources/tegra/optee-src/nv-optee/optee/optee_os/ldelf/ta_elf.c:1201
    24ec:	aa1303e0 	mov	x0, x19
    24f0:	97ffffc3 	bl	23fc <add_dependencies>
/home/ssysarch/Desktop/nick/jetpack_5/Jetson_Linux_R35.4.1_aarch64/Linux_for_Tegra/sources/tegra/optee-src/nv-optee/optee/optee_os/ldelf/ta_elf.c:1202
    24f4:	aa1303e0 	mov	x0, x19
    24f8:	97fffb08 	bl	1118 <copy_section_headers>
/home/ssysarch/Desktop/nick/jetpack_5/Jetson_Linux_R35.4.1_aarch64/Linux_for_Tegra/sources/tegra/optee-src/nv-optee/optee/optee_os/ldelf/ta_elf.c:1203
    24fc:	aa1303e0 	mov	x0, x19
    2500:	97fffce4 	bl	1890 <save_symtab>
/home/ssysarch/Desktop/nick/jetpack_5/Jetson_Linux_R35.4.1_aarch64/Linux_for_Tegra/sources/tegra/optee-src/nv-optee/optee/optee_os/ldelf/ta_elf.c:1204
    2504:	aa1b03e0 	mov	x0, x27
    2508:	97fffa0c 	bl	d38 <close_handle.isra.0>
set_tls_offset():
/home/ssysarch/Desktop/nick/jetpack_5/Jetson_Linux_R35.4.1_aarch64/Linux_for_Tegra/sources/tegra/optee-src/nv-optee/optee/optee_os/ldelf/ta_elf.c:1185
    250c:	f9406660 	ldr	x0, [x19, #200]
    2510:	b40000e0 	cbz	x0, 252c <ta_elf_load_main+0xb0>
/home/ssysarch/Desktop/nick/jetpack_5/Jetson_Linux_R35.4.1_aarch64/Linux_for_Tegra/sources/tegra/optee-src/nv-optee/optee/optee_os/ldelf/ta_elf.c:1189
    2514:	d0000021 	adrp	x1, 8000 <_DYNAMIC>
    2518:	f940ac22 	ldr	x2, [x1, #344]
    251c:	f9007262 	str	x2, [x19, #224]
/home/ssysarch/Desktop/nick/jetpack_5/Jetson_Linux_R35.4.1_aarch64/Linux_for_Tegra/sources/tegra/optee-src/nv-optee/optee/optee_os/ldelf/ta_elf.c:1190
    2520:	f9406e60 	ldr	x0, [x19, #216]
    2524:	8b020000 	add	x0, x0, x2
    2528:	f900ac20 	str	x0, [x1, #344]
load_main():
/home/ssysarch/Desktop/nick/jetpack_5/Jetson_Linux_R35.4.1_aarch64/Linux_for_Tegra/sources/tegra/optee-src/nv-optee/optee/optee_os/ldelf/ta_elf.c:1207
    252c:	39400e60 	ldrb	w0, [x19, #3]
    2530:	34000060 	cbz	w0, 253c <ta_elf_load_main+0xc0>
/home/ssysarch/Desktop/nick/jetpack_5/Jetson_Linux_R35.4.1_aarch64/Linux_for_Tegra/sources/tegra/optee-src/nv-optee/optee/optee_os/ldelf/ta_elf.c:1208
    2534:	aa1303e0 	mov	x0, x19
    2538:	97fff897 	bl	794 <ta_elf_add_bti>
/home/ssysarch/Desktop/nick/jetpack_5/Jetson_Linux_R35.4.1_aarch64/Linux_for_Tegra/sources/tegra/optee-src/nv-optee/optee/optee_os/ldelf/ta_elf.c:1210
    253c:	f9400660 	ldr	x0, [x19, #8]
    2540:	f9008660 	str	x0, [x19, #264]
/home/ssysarch/Desktop/nick/jetpack_5/Jetson_Linux_R35.4.1_aarch64/Linux_for_Tegra/sources/tegra/optee-src/nv-optee/optee/optee_os/ldelf/ta_elf.c:1211
    2544:	f9400c00 	ldr	x0, [x0, #24]
    2548:	b100041f 	cmn	x0, #0x1
    254c:	540016e0 	b.eq	2828 <ta_elf_load_main+0x3ac>  // b.none
/home/ssysarch/Desktop/nick/jetpack_5/Jetson_Linux_R35.4.1_aarch64/Linux_for_Tegra/sources/tegra/optee-src/nv-optee/optee/optee_os/ldelf/ta_elf.c:1227
    2550:	9104427a 	add	x26, x19, #0x110
    2554:	52800023 	mov	w3, #0x1                   	// #1
    2558:	aa1a03e5 	mov	x5, x26
    255c:	52800062 	mov	w2, #0x3                   	// #3
    2560:	52809961 	mov	w1, #0x4cb                 	// #1227
    2564:	b0000036 	adrp	x22, 7000 <trace_ext_prefix+0x509>
    2568:	b0000024 	adrp	x4, 7000 <trace_ext_prefix+0x509>
    256c:	91047c84 	add	x4, x4, #0x11f
    2570:	911032c0 	add	x0, x22, #0x40c
    2574:	940010d6 	bl	68cc <trace_printf>
clean_elf_load_main():
/home/ssysarch/Desktop/nick/jetpack_5/Jetson_Linux_R35.4.1_aarch64/Linux_for_Tegra/sources/tegra/optee-src/nv-optee/optee/optee_os/ldelf/ta_elf.c:1144
    2578:	f9401260 	ldr	x0, [x19, #32]
    257c:	d2820001 	mov	x1, #0x1000                	// #4096
    2580:	97fff83f 	bl	67c <sys_unmap>
    2584:	2a0003f4 	mov	w20, w0
/home/ssysarch/Desktop/nick/jetpack_5/Jetson_Linux_R35.4.1_aarch64/Linux_for_Tegra/sources/tegra/optee-src/nv-optee/optee/optee_os/ldelf/ta_elf.c:1145
    2588:	34000560 	cbz	w0, 2634 <ta_elf_load_main+0x1b8>
/home/ssysarch/Desktop/nick/jetpack_5/Jetson_Linux_R35.4.1_aarch64/Linux_for_Tegra/sources/tegra/optee-src/nv-optee/optee/optee_os/ldelf/ta_elf.c:1146
    258c:	b0000024 	adrp	x4, 7000 <trace_ext_prefix+0x509>
    2590:	9104f884 	add	x4, x4, #0x13e
    2594:	b0000020 	adrp	x0, 7000 <trace_ext_prefix+0x509>
    2598:	910fe000 	add	x0, x0, #0x3f8
    259c:	52800023 	mov	w3, #0x1                   	// #1
    25a0:	52800022 	mov	w2, #0x1                   	// #1
    25a4:	52808f41 	mov	w1, #0x47a                 	// #1146
ta_elf_load_main():
/home/ssysarch/Desktop/nick/jetpack_5/Jetson_Linux_R35.4.1_aarch64/Linux_for_Tegra/sources/tegra/optee-src/nv-optee/optee/optee_os/ldelf/ta_elf.c:1265
    25a8:	940010c9 	bl	68cc <trace_printf>
    25ac:	2a1403e0 	mov	w0, w20
    25b0:	14000019 	b	2614 <ta_elf_load_main+0x198>
clean_elf_load_main():
/home/ssysarch/Desktop/nick/jetpack_5/Jetson_Linux_R35.4.1_aarch64/Linux_for_Tegra/sources/tegra/optee-src/nv-optee/optee/optee_os/ldelf/ta_elf.c:1154
    25b4:	3940c283 	ldrb	w3, [x20, #48]
/home/ssysarch/Desktop/nick/jetpack_5/Jetson_Linux_R35.4.1_aarch64/Linux_for_Tegra/sources/tegra/optee-src/nv-optee/optee/optee_os/ldelf/ta_elf.c:1153
    25b8:	f9400660 	ldr	x0, [x19, #8]
    25bc:	f9400682 	ldr	x2, [x20, #8]
rounddown():
/home/ssysarch/Desktop/nick/jetpack_5/Jetson_Linux_R35.4.1_aarch64/Linux_for_Tegra/sources/tegra/optee-src/nv-optee/optee/optee_os/ldelf/ta_elf.c:530
    25c0:	f9400e81 	ldr	x1, [x20, #24]
clean_elf_load_main():
/home/ssysarch/Desktop/nick/jetpack_5/Jetson_Linux_R35.4.1_aarch64/Linux_for_Tegra/sources/tegra/optee-src/nv-optee/optee/optee_os/ldelf/ta_elf.c:1153
    25c4:	8b000040 	add	x0, x2, x0
rounddown():
/home/ssysarch/Desktop/nick/jetpack_5/Jetson_Linux_R35.4.1_aarch64/Linux_for_Tegra/sources/tegra/optee-src/nv-optee/optee/optee_os/ldelf/ta_elf.c:530
    25c8:	9274cc00 	and	x0, x0, #0xfffffffffffff000
clean_elf_load_main():
/home/ssysarch/Desktop/nick/jetpack_5/Jetson_Linux_R35.4.1_aarch64/Linux_for_Tegra/sources/tegra/optee-src/nv-optee/optee/optee_os/ldelf/ta_elf.c:1154
    25cc:	340000c3 	cbz	w3, 25e4 <ta_elf_load_main+0x168>
/home/ssysarch/Desktop/nick/jetpack_5/Jetson_Linux_R35.4.1_aarch64/Linux_for_Tegra/sources/tegra/optee-src/nv-optee/optee/optee_os/ldelf/ta_elf.c:1155
    25d0:	8b010041 	add	x1, x2, x1
rounddown():
/home/ssysarch/Desktop/nick/jetpack_5/Jetson_Linux_R35.4.1_aarch64/Linux_for_Tegra/sources/tegra/optee-src/nv-optee/optee/optee_os/ldelf/ta_elf.c:530
    25d4:	9274cc42 	and	x2, x2, #0xfffffffffffff000
roundup():
/home/ssysarch/Desktop/nick/jetpack_5/Jetson_Linux_R35.4.1_aarch64/Linux_for_Tegra/sources/tegra/optee-src/nv-optee/optee/optee_os/ldelf/ta_elf.c:525
    25d8:	913ffc21 	add	x1, x1, #0xfff
    25dc:	9274cc21 	and	x1, x1, #0xfffffffffffff000
clean_elf_load_main():
/home/ssysarch/Desktop/nick/jetpack_5/Jetson_Linux_R35.4.1_aarch64/Linux_for_Tegra/sources/tegra/optee-src/nv-optee/optee/optee_os/ldelf/ta_elf.c:1155
    25e0:	cb020021 	sub	x1, x1, x2
/home/ssysarch/Desktop/nick/jetpack_5/Jetson_Linux_R35.4.1_aarch64/Linux_for_Tegra/sources/tegra/optee-src/nv-optee/optee/optee_os/ldelf/ta_elf.c:1160
    25e4:	97fff826 	bl	67c <sys_unmap>
    25e8:	2a0003f5 	mov	w21, w0
/home/ssysarch/Desktop/nick/jetpack_5/Jetson_Linux_R35.4.1_aarch64/Linux_for_Tegra/sources/tegra/optee-src/nv-optee/optee/optee_os/ldelf/ta_elf.c:1161
    25ec:	34000160 	cbz	w0, 2618 <ta_elf_load_main+0x19c>
/home/ssysarch/Desktop/nick/jetpack_5/Jetson_Linux_R35.4.1_aarch64/Linux_for_Tegra/sources/tegra/optee-src/nv-optee/optee/optee_os/ldelf/ta_elf.c:1162
    25f0:	b0000024 	adrp	x4, 7000 <trace_ext_prefix+0x509>
    25f4:	9104f884 	add	x4, x4, #0x13e
    25f8:	52800023 	mov	w3, #0x1                   	// #1
    25fc:	52800022 	mov	w2, #0x1                   	// #1
    2600:	52809141 	mov	w1, #0x48a                 	// #1162
    2604:	b0000020 	adrp	x0, 7000 <trace_ext_prefix+0x509>
    2608:	910fe000 	add	x0, x0, #0x3f8
    260c:	940010b0 	bl	68cc <trace_printf>
    2610:	2a1503e0 	mov	w0, w21
ta_elf_load_main():
/home/ssysarch/Desktop/nick/jetpack_5/Jetson_Linux_R35.4.1_aarch64/Linux_for_Tegra/sources/tegra/optee-src/nv-optee/optee/optee_os/ldelf/ta_elf.c:1268
    2614:	97fff6d5 	bl	168 <_ldelf_return>
clean_elf_load_main():
/home/ssysarch/Desktop/nick/jetpack_5/Jetson_Linux_R35.4.1_aarch64/Linux_for_Tegra/sources/tegra/optee-src/nv-optee/optee/optee_os/ldelf/ta_elf.c:1164
    2618:	a9438680 	ldp	x0, x1, [x20, #56]
    261c:	b40003e0 	cbz	x0, 2698 <ta_elf_load_main+0x21c>
    2620:	f9002001 	str	x1, [x0, #64]
    2624:	f9402281 	ldr	x1, [x20, #64]
    2628:	f9000020 	str	x0, [x1]
/home/ssysarch/Desktop/nick/jetpack_5/Jetson_Linux_R35.4.1_aarch64/Linux_for_Tegra/sources/tegra/optee-src/nv-optee/optee/optee_os/ldelf/ta_elf.c:1165
    262c:	aa1403e0 	mov	x0, x20
    2630:	94000c56 	bl	5788 <free>
/home/ssysarch/Desktop/nick/jetpack_5/Jetson_Linux_R35.4.1_aarch64/Linux_for_Tegra/sources/tegra/optee-src/nv-optee/optee/optee_os/ldelf/ta_elf.c:1148
    2634:	f9405274 	ldr	x20, [x19, #160]
    2638:	b5fffbf4 	cbnz	x20, 25b4 <ta_elf_load_main+0x138>
/home/ssysarch/Desktop/nick/jetpack_5/Jetson_Linux_R35.4.1_aarch64/Linux_for_Tegra/sources/tegra/optee-src/nv-optee/optee/optee_os/ldelf/ta_elf.c:1168
    263c:	f9402e60 	ldr	x0, [x19, #88]
    2640:	94000c52 	bl	5788 <free>
/home/ssysarch/Desktop/nick/jetpack_5/Jetson_Linux_R35.4.1_aarch64/Linux_for_Tegra/sources/tegra/optee-src/nv-optee/optee/optee_os/ldelf/ta_elf.c:1169
    2644:	d28021e2 	mov	x2, #0x10f                 	// #271
    2648:	52800001 	mov	w1, #0x0                   	// #0
    264c:	91000660 	add	x0, x19, #0x1
    2650:	94000ccd 	bl	5984 <memset>
/home/ssysarch/Desktop/nick/jetpack_5/Jetson_Linux_R35.4.1_aarch64/Linux_for_Tegra/sources/tegra/optee-src/nv-optee/optee/optee_os/ldelf/ta_elf.c:1172
    2654:	91028260 	add	x0, x19, #0xa0
    2658:	f9005660 	str	x0, [x19, #168]
load_main():
/home/ssysarch/Desktop/nick/jetpack_5/Jetson_Linux_R35.4.1_aarch64/Linux_for_Tegra/sources/tegra/optee-src/nv-optee/optee/optee_os/ldelf/ta_elf.c:1229
    265c:	52800020 	mov	w0, #0x1                   	// #1
    2660:	39000a60 	strb	w0, [x19, #2]
/home/ssysarch/Desktop/nick/jetpack_5/Jetson_Linux_R35.4.1_aarch64/Linux_for_Tegra/sources/tegra/optee-src/nv-optee/optee/optee_os/ldelf/ta_elf.c:1230
    2664:	aa1303e0 	mov	x0, x19
    2668:	97fff86c 	bl	818 <init_elf>
/home/ssysarch/Desktop/nick/jetpack_5/Jetson_Linux_R35.4.1_aarch64/Linux_for_Tegra/sources/tegra/optee-src/nv-optee/optee/optee_os/ldelf/ta_elf.c:1231
    266c:	aa1303e0 	mov	x0, x19
    2670:	97fffd9b 	bl	1cdc <map_segments>
populate_segments_legacy():
/home/ssysarch/Desktop/nick/jetpack_5/Jetson_Linux_R35.4.1_aarch64/Linux_for_Tegra/sources/tegra/optee-src/nv-optee/optee/optee_os/ldelf/ta_elf.c:722
    2674:	39400a60 	ldrb	w0, [x19, #2]
/home/ssysarch/Desktop/nick/jetpack_5/Jetson_Linux_R35.4.1_aarch64/Linux_for_Tegra/sources/tegra/optee-src/nv-optee/optee/optee_os/ldelf/ta_elf.c:720
    2678:	f9003fff 	str	xzr, [sp, #120]
/home/ssysarch/Desktop/nick/jetpack_5/Jetson_Linux_R35.4.1_aarch64/Linux_for_Tegra/sources/tegra/optee-src/nv-optee/optee/optee_os/ldelf/ta_elf.c:722
    267c:	35000120 	cbnz	w0, 26a0 <ta_elf_load_main+0x224>
    2680:	b0000022 	adrp	x2, 7000 <trace_ext_prefix+0x509>
    2684:	910dac42 	add	x2, x2, #0x36b
    2688:	90000020 	adrp	x0, 6000 <kprintf.constprop.0+0x4c8>
    268c:	91347c00 	add	x0, x0, #0xd1f
    2690:	52805a41 	mov	w1, #0x2d2                 	// #722
    2694:	17ffff8c 	b	24c4 <ta_elf_load_main+0x48>
clean_elf_load_main():
/home/ssysarch/Desktop/nick/jetpack_5/Jetson_Linux_R35.4.1_aarch64/Linux_for_Tegra/sources/tegra/optee-src/nv-optee/optee/optee_os/ldelf/ta_elf.c:1164
    2698:	f9005661 	str	x1, [x19, #168]
    269c:	17ffffe2 	b	2624 <ta_elf_load_main+0x1a8>
populate_segments_legacy():
/home/ssysarch/Desktop/nick/jetpack_5/Jetson_Linux_R35.4.1_aarch64/Linux_for_Tegra/sources/tegra/optee-src/nv-optee/optee/optee_os/ldelf/ta_elf.c:723
    26a0:	f9405274 	ldr	x20, [x19, #160]
/home/ssysarch/Desktop/nick/jetpack_5/Jetson_Linux_R35.4.1_aarch64/Linux_for_Tegra/sources/tegra/optee-src/nv-optee/optee/optee_os/ldelf/ta_elf.c:739
    26a4:	9101e3fc 	add	x28, sp, #0x78
/home/ssysarch/Desktop/nick/jetpack_5/Jetson_Linux_R35.4.1_aarch64/Linux_for_Tegra/sources/tegra/optee-src/nv-optee/optee/optee_os/ldelf/ta_elf.c:723
    26a8:	b5000314 	cbnz	x20, 2708 <ta_elf_load_main+0x28c>
load_main():
/home/ssysarch/Desktop/nick/jetpack_5/Jetson_Linux_R35.4.1_aarch64/Linux_for_Tegra/sources/tegra/optee-src/nv-optee/optee/optee_os/ldelf/ta_elf.c:1233
    26ac:	aa1303e0 	mov	x0, x19
    26b0:	97ffff53 	bl	23fc <add_dependencies>
/home/ssysarch/Desktop/nick/jetpack_5/Jetson_Linux_R35.4.1_aarch64/Linux_for_Tegra/sources/tegra/optee-src/nv-optee/optee/optee_os/ldelf/ta_elf.c:1234
    26b4:	aa1303e0 	mov	x0, x19
    26b8:	97fffa98 	bl	1118 <copy_section_headers>
/home/ssysarch/Desktop/nick/jetpack_5/Jetson_Linux_R35.4.1_aarch64/Linux_for_Tegra/sources/tegra/optee-src/nv-optee/optee/optee_os/ldelf/ta_elf.c:1235
    26bc:	aa1303e0 	mov	x0, x19
    26c0:	97fffc74 	bl	1890 <save_symtab>
/home/ssysarch/Desktop/nick/jetpack_5/Jetson_Linux_R35.4.1_aarch64/Linux_for_Tegra/sources/tegra/optee-src/nv-optee/optee/optee_os/ldelf/ta_elf.c:1236
    26c4:	aa1b03e0 	mov	x0, x27
    26c8:	97fff99c 	bl	d38 <close_handle.isra.0>
/home/ssysarch/Desktop/nick/jetpack_5/Jetson_Linux_R35.4.1_aarch64/Linux_for_Tegra/sources/tegra/optee-src/nv-optee/optee/optee_os/ldelf/ta_elf.c:1237
    26cc:	f9400660 	ldr	x0, [x19, #8]
    26d0:	f9008660 	str	x0, [x19, #264]
/home/ssysarch/Desktop/nick/jetpack_5/Jetson_Linux_R35.4.1_aarch64/Linux_for_Tegra/sources/tegra/optee-src/nv-optee/optee/optee_os/ldelf/ta_elf.c:1242
    26d4:	f9400c00 	ldr	x0, [x0, #24]
    26d8:	b100041f 	cmn	x0, #0x1
    26dc:	54000a61 	b.ne	2828 <ta_elf_load_main+0x3ac>  // b.any
/home/ssysarch/Desktop/nick/jetpack_5/Jetson_Linux_R35.4.1_aarch64/Linux_for_Tegra/sources/tegra/optee-src/nv-optee/optee/optee_os/ldelf/ta_elf.c:1243
    26e0:	911032c0 	add	x0, x22, #0x40c
    26e4:	aa1a03e5 	mov	x5, x26
    26e8:	b0000024 	adrp	x4, 7000 <trace_ext_prefix+0x509>
    26ec:	91052084 	add	x4, x4, #0x148
    26f0:	52800023 	mov	w3, #0x1                   	// #1
    26f4:	52800022 	mov	w2, #0x1                   	// #1
    26f8:	52809b61 	mov	w1, #0x4db                 	// #1243
    26fc:	94001074 	bl	68cc <trace_printf>
    2700:	d2bfffe0 	mov	x0, #0xffff0000            	// #4294901760
    2704:	17ffffc4 	b	2614 <ta_elf_load_main+0x198>
populate_segments_legacy():
/home/ssysarch/Desktop/nick/jetpack_5/Jetson_Linux_R35.4.1_aarch64/Linux_for_Tegra/sources/tegra/optee-src/nv-optee/optee/optee_os/ldelf/ta_elf.c:724
    2708:	f9405660 	ldr	x0, [x19, #168]
/home/ssysarch/Desktop/nick/jetpack_5/Jetson_Linux_R35.4.1_aarch64/Linux_for_Tegra/sources/tegra/optee-src/nv-optee/optee/optee_os/ldelf/ta_elf.c:726
    270c:	f9400681 	ldr	x1, [x20, #8]
/home/ssysarch/Desktop/nick/jetpack_5/Jetson_Linux_R35.4.1_aarch64/Linux_for_Tegra/sources/tegra/optee-src/nv-optee/optee/optee_os/ldelf/ta_elf.c:724
    2710:	f9400400 	ldr	x0, [x0, #8]
/home/ssysarch/Desktop/nick/jetpack_5/Jetson_Linux_R35.4.1_aarch64/Linux_for_Tegra/sources/tegra/optee-src/nv-optee/optee/optee_os/ldelf/ta_elf.c:726
    2714:	f9400e95 	ldr	x21, [x20, #24]
/home/ssysarch/Desktop/nick/jetpack_5/Jetson_Linux_R35.4.1_aarch64/Linux_for_Tegra/sources/tegra/optee-src/nv-optee/optee/optee_os/ldelf/ta_elf.c:724
    2718:	f9400000 	ldr	x0, [x0]
roundup():
/home/ssysarch/Desktop/nick/jetpack_5/Jetson_Linux_R35.4.1_aarch64/Linux_for_Tegra/sources/tegra/optee-src/nv-optee/optee/optee_os/ldelf/ta_elf.c:525
    271c:	f9400404 	ldr	x4, [x0, #8]
    2720:	f9400c00 	ldr	x0, [x0, #24]
    2724:	8b000084 	add	x4, x4, x0
    2728:	8b150020 	add	x0, x1, x21
    272c:	cb000084 	sub	x4, x4, x0
    2730:	913ffeb5 	add	x21, x21, #0xfff
populate_segments_legacy():
/home/ssysarch/Desktop/nick/jetpack_5/Jetson_Linux_R35.4.1_aarch64/Linux_for_Tegra/sources/tegra/optee-src/nv-optee/optee/optee_os/ldelf/ta_elf.c:729
    2734:	f9400660 	ldr	x0, [x19, #8]
roundup():
/home/ssysarch/Desktop/nick/jetpack_5/Jetson_Linux_R35.4.1_aarch64/Linux_for_Tegra/sources/tegra/optee-src/nv-optee/optee/optee_os/ldelf/ta_elf.c:525
    2738:	913ffc84 	add	x4, x4, #0xfff
    273c:	9274cc84 	and	x4, x4, #0xfffffffffffff000
    2740:	9274ceb5 	and	x21, x21, #0xfffffffffffff000
populate_segments_legacy():
/home/ssysarch/Desktop/nick/jetpack_5/Jetson_Linux_R35.4.1_aarch64/Linux_for_Tegra/sources/tegra/optee-src/nv-optee/optee/optee_os/ldelf/ta_elf.c:729
    2744:	b4000040 	cbz	x0, 274c <ta_elf_load_main+0x2d0>
/home/ssysarch/Desktop/nick/jetpack_5/Jetson_Linux_R35.4.1_aarch64/Linux_for_Tegra/sources/tegra/optee-src/nv-optee/optee/optee_os/ldelf/ta_elf.c:732
    2748:	8b010000 	add	x0, x0, x1
    274c:	f9003fe0 	str	x0, [sp, #120]
/home/ssysarch/Desktop/nick/jetpack_5/Jetson_Linux_R35.4.1_aarch64/Linux_for_Tegra/sources/tegra/optee-src/nv-optee/optee/optee_os/ldelf/ta_elf.c:735
    2750:	f9401280 	ldr	x0, [x20, #32]
    2754:	37100160 	tbnz	w0, #2, 2780 <ta_elf_load_main+0x304>
/home/ssysarch/Desktop/nick/jetpack_5/Jetson_Linux_R35.4.1_aarch64/Linux_for_Tegra/sources/tegra/optee-src/nv-optee/optee/optee_os/ldelf/ta_elf.c:736
    2758:	90000024 	adrp	x4, 6000 <kprintf.constprop.0+0x4c8>
    275c:	91359884 	add	x4, x4, #0xd66
    2760:	52800023 	mov	w3, #0x1                   	// #1
    2764:	52800022 	mov	w2, #0x1                   	// #1
    2768:	52805c01 	mov	w1, #0x2e0                 	// #736
    276c:	b0000020 	adrp	x0, 7000 <trace_ext_prefix+0x509>
    2770:	910dac00 	add	x0, x0, #0x36b
    2774:	94001056 	bl	68cc <trace_printf>
    2778:	129ffea0 	mov	w0, #0xffff000a            	// #-65526
    277c:	17ffffa6 	b	2614 <ta_elf_load_main+0x198>
/home/ssysarch/Desktop/nick/jetpack_5/Jetson_Linux_R35.4.1_aarch64/Linux_for_Tegra/sources/tegra/optee-src/nv-optee/optee/optee_os/ldelf/ta_elf.c:739
    2780:	aa1c03e2 	mov	x2, x28
    2784:	aa1503e0 	mov	x0, x21
    2788:	d2800003 	mov	x3, #0x0                   	// #0
    278c:	52800001 	mov	w1, #0x0                   	// #0
    2790:	97fff7b4 	bl	660 <sys_map_zi>
/home/ssysarch/Desktop/nick/jetpack_5/Jetson_Linux_R35.4.1_aarch64/Linux_for_Tegra/sources/tegra/optee-src/nv-optee/optee/optee_os/ldelf/ta_elf.c:740
    2794:	340001a0 	cbz	w0, 27c8 <ta_elf_load_main+0x34c>
/home/ssysarch/Desktop/nick/jetpack_5/Jetson_Linux_R35.4.1_aarch64/Linux_for_Tegra/sources/tegra/optee-src/nv-optee/optee/optee_os/ldelf/ta_elf.c:741
    2798:	90000024 	adrp	x4, 6000 <kprintf.constprop.0+0x4c8>
    279c:	91354484 	add	x4, x4, #0xd51
    27a0:	52800023 	mov	w3, #0x1                   	// #1
    27a4:	52800022 	mov	w2, #0x1                   	// #1
    27a8:	52805ca1 	mov	w1, #0x2e5                 	// #741
    27ac:	b9006fe0 	str	w0, [sp, #108]
/home/ssysarch/Desktop/nick/jetpack_5/Jetson_Linux_R35.4.1_aarch64/Linux_for_Tegra/sources/tegra/optee-src/nv-optee/optee/optee_os/ldelf/ta_elf.c:745
    27b0:	b0000020 	adrp	x0, 7000 <trace_ext_prefix+0x509>
    27b4:	910dac00 	add	x0, x0, #0x36b
    27b8:	94001045 	bl	68cc <trace_printf>
    27bc:	b9406fe5 	ldr	w5, [sp, #108]
    27c0:	2a0503e0 	mov	w0, w5
    27c4:	17ffff94 	b	2614 <ta_elf_load_main+0x198>
/home/ssysarch/Desktop/nick/jetpack_5/Jetson_Linux_R35.4.1_aarch64/Linux_for_Tegra/sources/tegra/optee-src/nv-optee/optee/optee_os/ldelf/ta_elf.c:742
    27c8:	b9410262 	ldr	w2, [x19, #256]
    27cc:	f9400283 	ldr	x3, [x20]
    27d0:	f9400a81 	ldr	x1, [x20, #16]
    27d4:	f9403fe0 	ldr	x0, [sp, #120]
    27d8:	97fff7b6 	bl	6b0 <sys_copy_from_ta_bin>
/home/ssysarch/Desktop/nick/jetpack_5/Jetson_Linux_R35.4.1_aarch64/Linux_for_Tegra/sources/tegra/optee-src/nv-optee/optee/optee_os/ldelf/ta_elf.c:744
    27dc:	34000100 	cbz	w0, 27fc <ta_elf_load_main+0x380>
/home/ssysarch/Desktop/nick/jetpack_5/Jetson_Linux_R35.4.1_aarch64/Linux_for_Tegra/sources/tegra/optee-src/nv-optee/optee/optee_os/ldelf/ta_elf.c:745
    27e0:	90000024 	adrp	x4, 6000 <kprintf.constprop.0+0x4c8>
    27e4:	91342484 	add	x4, x4, #0xd09
    27e8:	52800023 	mov	w3, #0x1                   	// #1
    27ec:	52800022 	mov	w2, #0x1                   	// #1
    27f0:	52805d21 	mov	w1, #0x2e9                 	// #745
    27f4:	b9006fe0 	str	w0, [sp, #108]
    27f8:	17ffffee 	b	27b0 <ta_elf_load_main+0x334>
/home/ssysarch/Desktop/nick/jetpack_5/Jetson_Linux_R35.4.1_aarch64/Linux_for_Tegra/sources/tegra/optee-src/nv-optee/optee/optee_os/ldelf/ta_elf.c:747
    27fc:	f9400661 	ldr	x1, [x19, #8]
    2800:	f9403fe0 	ldr	x0, [sp, #120]
    2804:	b5000041 	cbnz	x1, 280c <ta_elf_load_main+0x390>
/home/ssysarch/Desktop/nick/jetpack_5/Jetson_Linux_R35.4.1_aarch64/Linux_for_Tegra/sources/tegra/optee-src/nv-optee/optee/optee_os/ldelf/ta_elf.c:748
    2808:	f9000660 	str	x0, [x19, #8]
/home/ssysarch/Desktop/nick/jetpack_5/Jetson_Linux_R35.4.1_aarch64/Linux_for_Tegra/sources/tegra/optee-src/nv-optee/optee/optee_os/ldelf/ta_elf.c:749
    280c:	8b150015 	add	x21, x0, x21
/home/ssysarch/Desktop/nick/jetpack_5/Jetson_Linux_R35.4.1_aarch64/Linux_for_Tegra/sources/tegra/optee-src/nv-optee/optee/optee_os/ldelf/ta_elf.c:750
    2810:	f9400280 	ldr	x0, [x20]
    2814:	f9400a81 	ldr	x1, [x20, #16]
/home/ssysarch/Desktop/nick/jetpack_5/Jetson_Linux_R35.4.1_aarch64/Linux_for_Tegra/sources/tegra/optee-src/nv-optee/optee/optee_os/ldelf/ta_elf.c:723
    2818:	f9401e94 	ldr	x20, [x20, #56]
/home/ssysarch/Desktop/nick/jetpack_5/Jetson_Linux_R35.4.1_aarch64/Linux_for_Tegra/sources/tegra/optee-src/nv-optee/optee/optee_os/ldelf/ta_elf.c:750
    281c:	8b010000 	add	x0, x0, x1
    2820:	a9010275 	stp	x21, x0, [x19, #16]
/home/ssysarch/Desktop/nick/jetpack_5/Jetson_Linux_R35.4.1_aarch64/Linux_for_Tegra/sources/tegra/optee-src/nv-optee/optee/optee_os/ldelf/ta_elf.c:723
    2824:	17ffffa1 	b	26a8 <ta_elf_load_main+0x22c>
ta_elf_load_main():
/home/ssysarch/Desktop/nick/jetpack_5/Jetson_Linux_R35.4.1_aarch64/Linux_for_Tegra/sources/tegra/optee-src/nv-optee/optee/optee_os/ldelf/ta_elf.c:1262
    2828:	39400660 	ldrb	w0, [x19, #1]
/home/ssysarch/Desktop/nick/jetpack_5/Jetson_Linux_R35.4.1_aarch64/Linux_for_Tegra/sources/tegra/optee-src/nv-optee/optee/optee_os/ldelf/ta_elf.c:1263
    282c:	9101c3e2 	add	x2, sp, #0x70
/home/ssysarch/Desktop/nick/jetpack_5/Jetson_Linux_R35.4.1_aarch64/Linux_for_Tegra/sources/tegra/optee-src/nv-optee/optee/optee_os/ldelf/ta_elf.c:1262
    2830:	b9000320 	str	w0, [x25]
/home/ssysarch/Desktop/nick/jetpack_5/Jetson_Linux_R35.4.1_aarch64/Linux_for_Tegra/sources/tegra/optee-src/nv-optee/optee/optee_os/ldelf/ta_elf.c:1263
    2834:	d2800004 	mov	x4, #0x0                   	// #0
    2838:	f9408660 	ldr	x0, [x19, #264]
    283c:	d2800003 	mov	x3, #0x0                   	// #0
    2840:	52800001 	mov	w1, #0x0                   	// #0
    2844:	b9401000 	ldr	w0, [x0, #16]
    2848:	97fff786 	bl	660 <sys_map_zi>
    284c:	2a0003f4 	mov	w20, w0
/home/ssysarch/Desktop/nick/jetpack_5/Jetson_Linux_R35.4.1_aarch64/Linux_for_Tegra/sources/tegra/optee-src/nv-optee/optee/optee_os/ldelf/ta_elf.c:1264
    2850:	34000120 	cbz	w0, 2874 <ta_elf_load_main+0x3f8>
/home/ssysarch/Desktop/nick/jetpack_5/Jetson_Linux_R35.4.1_aarch64/Linux_for_Tegra/sources/tegra/optee-src/nv-optee/optee/optee_os/ldelf/ta_elf.c:1265
    2854:	b0000024 	adrp	x4, 7000 <trace_ext_prefix+0x509>
    2858:	9105c884 	add	x4, x4, #0x172
    285c:	b0000020 	adrp	x0, 7000 <trace_ext_prefix+0x509>
    2860:	91105800 	add	x0, x0, #0x416
    2864:	52800023 	mov	w3, #0x1                   	// #1
    2868:	52800022 	mov	w2, #0x1                   	// #1
    286c:	52809e21 	mov	w1, #0x4f1                 	// #1265
    2870:	17ffff4e 	b	25a8 <ta_elf_load_main+0x12c>
/home/ssysarch/Desktop/nick/jetpack_5/Jetson_Linux_R35.4.1_aarch64/Linux_for_Tegra/sources/tegra/optee-src/nv-optee/optee/optee_os/ldelf/ta_elf.c:1267
    2874:	f9408661 	ldr	x1, [x19, #264]
    2878:	b9401420 	ldr	w0, [x1, #20]
    287c:	72155005 	ands	w5, w0, #0xfffff800
    2880:	54000160 	b.eq	28ac <ta_elf_load_main+0x430>  // b.none
/home/ssysarch/Desktop/nick/jetpack_5/Jetson_Linux_R35.4.1_aarch64/Linux_for_Tegra/sources/tegra/optee-src/nv-optee/optee/optee_os/ldelf/ta_elf.c:1268
    2884:	b0000024 	adrp	x4, 7000 <trace_ext_prefix+0x509>
    2888:	91060c84 	add	x4, x4, #0x183
    288c:	52800023 	mov	w3, #0x1                   	// #1
    2890:	52800022 	mov	w2, #0x1                   	// #1
    2894:	52809e81 	mov	w1, #0x4f4                 	// #1268
    2898:	b0000020 	adrp	x0, 7000 <trace_ext_prefix+0x509>
    289c:	91105800 	add	x0, x0, #0x416
    28a0:	9400100b 	bl	68cc <trace_printf>
    28a4:	129fff40 	mov	w0, #0xffff0005            	// #-65531
    28a8:	17ffff5b 	b	2614 <ta_elf_load_main+0x198>
/home/ssysarch/Desktop/nick/jetpack_5/Jetson_Linux_R35.4.1_aarch64/Linux_for_Tegra/sources/tegra/optee-src/nv-optee/optee/optee_os/ldelf/ta_elf.c:1275
    28ac:	a94153f3 	ldp	x19, x20, [sp, #16]
    28b0:	a9425bf5 	ldp	x21, x22, [sp, #32]
    28b4:	a9446bf9 	ldp	x25, x26, [sp, #64]
    28b8:	a94573fb 	ldp	x27, x28, [sp, #80]
/home/ssysarch/Desktop/nick/jetpack_5/Jetson_Linux_R35.4.1_aarch64/Linux_for_Tegra/sources/tegra/optee-src/nv-optee/optee/optee_os/ldelf/ta_elf.c:1271
    28bc:	b9000300 	str	w0, [x24]
/home/ssysarch/Desktop/nick/jetpack_5/Jetson_Linux_R35.4.1_aarch64/Linux_for_Tegra/sources/tegra/optee-src/nv-optee/optee/optee_os/ldelf/ta_elf.c:1272
    28c0:	b9401020 	ldr	w0, [x1, #16]
    28c4:	f9403be1 	ldr	x1, [sp, #112]
    28c8:	8b010002 	add	x2, x0, x1
    28cc:	f90002e2 	str	x2, [x23]
/home/ssysarch/Desktop/nick/jetpack_5/Jetson_Linux_R35.4.1_aarch64/Linux_for_Tegra/sources/tegra/optee-src/nv-optee/optee/optee_os/ldelf/ta_elf.c:1273
    28d0:	d0000022 	adrp	x2, 8000 <_DYNAMIC>
/home/ssysarch/Desktop/nick/jetpack_5/Jetson_Linux_R35.4.1_aarch64/Linux_for_Tegra/sources/tegra/optee-src/nv-optee/optee/optee_os/ldelf/ta_elf.c:1275
    28d4:	a94363f7 	ldp	x23, x24, [sp, #48]
/home/ssysarch/Desktop/nick/jetpack_5/Jetson_Linux_R35.4.1_aarch64/Linux_for_Tegra/sources/tegra/optee-src/nv-optee/optee/optee_os/ldelf/ta_elf.c:1273
    28d8:	f9010041 	str	x1, [x2, #512]
/home/ssysarch/Desktop/nick/jetpack_5/Jetson_Linux_R35.4.1_aarch64/Linux_for_Tegra/sources/tegra/optee-src/nv-optee/optee/optee_os/ldelf/ta_elf.c:1274
    28dc:	d0000021 	adrp	x1, 8000 <_DYNAMIC>
    28e0:	f9010420 	str	x0, [x1, #520]
/home/ssysarch/Desktop/nick/jetpack_5/Jetson_Linux_R35.4.1_aarch64/Linux_for_Tegra/sources/tegra/optee-src/nv-optee/optee/optee_os/ldelf/ta_elf.c:1275
    28e4:	a8c87bfd 	ldp	x29, x30, [sp], #128
    28e8:	d65f03c0 	ret

00000000000028ec <ta_elf_load_dependency>:
ta_elf_load_dependency():
/home/ssysarch/Desktop/nick/jetpack_5/Jetson_Linux_R35.4.1_aarch64/Linux_for_Tegra/sources/tegra/optee-src/nv-optee/optee/optee_os/ldelf/ta_elf.c:1301
    28ec:	a9be7bfd 	stp	x29, x30, [sp, #-32]!
    28f0:	910003fd 	mov	x29, sp
    28f4:	a90153f3 	stp	x19, x20, [sp, #16]
    28f8:	12001c34 	and	w20, w1, #0xff
/home/ssysarch/Desktop/nick/jetpack_5/Jetson_Linux_R35.4.1_aarch64/Linux_for_Tegra/sources/tegra/optee-src/nv-optee/optee/optee_os/ldelf/ta_elf.c:1302
    28fc:	39400001 	ldrb	w1, [x0]
    2900:	35000661 	cbnz	w1, 29cc <ta_elf_load_dependency+0xe0>
    2904:	aa0003f3 	mov	x19, x0
/home/ssysarch/Desktop/nick/jetpack_5/Jetson_Linux_R35.4.1_aarch64/Linux_for_Tegra/sources/tegra/optee-src/nv-optee/optee/optee_os/ldelf/ta_elf.c:1305
    2908:	97fff7c4 	bl	818 <init_elf>
/home/ssysarch/Desktop/nick/jetpack_5/Jetson_Linux_R35.4.1_aarch64/Linux_for_Tegra/sources/tegra/optee-src/nv-optee/optee/optee_os/ldelf/ta_elf.c:1306
    290c:	39400661 	ldrb	w1, [x19, #1]
    2910:	6b14003f 	cmp	w1, w20
    2914:	54000280 	b.eq	2964 <ta_elf_load_dependency+0x78>  // b.none
/home/ssysarch/Desktop/nick/jetpack_5/Jetson_Linux_R35.4.1_aarch64/Linux_for_Tegra/sources/tegra/optee-src/nv-optee/optee/optee_os/ldelf/ta_elf.c:1307
    2918:	7100003f 	cmp	w1, #0x0
    291c:	90000020 	adrp	x0, 6000 <kprintf.constprop.0+0x4c8>
    2920:	91290c00 	add	x0, x0, #0xa43
    2924:	b0000027 	adrp	x7, 7000 <trace_ext_prefix+0x509>
    2928:	91066ce7 	add	x7, x7, #0x19b
    292c:	91044265 	add	x5, x19, #0x110
    2930:	9a8010e6 	csel	x6, x7, x0, ne  // ne = any
    2934:	7100029f 	cmp	w20, #0x0
    2938:	9a8010e7 	csel	x7, x7, x0, ne  // ne = any
    293c:	b0000024 	adrp	x4, 7000 <trace_ext_prefix+0x509>
    2940:	91067884 	add	x4, x4, #0x19e
    2944:	52800023 	mov	w3, #0x1                   	// #1
    2948:	52800022 	mov	w2, #0x1                   	// #1
    294c:	5280a361 	mov	w1, #0x51b                 	// #1307
    2950:	b0000020 	adrp	x0, 7000 <trace_ext_prefix+0x509>
    2954:	91110400 	add	x0, x0, #0x441
    2958:	94000fdd 	bl	68cc <trace_printf>
    295c:	129fff40 	mov	w0, #0xffff0005            	// #-65531
    2960:	97fff602 	bl	168 <_ldelf_return>
/home/ssysarch/Desktop/nick/jetpack_5/Jetson_Linux_R35.4.1_aarch64/Linux_for_Tegra/sources/tegra/optee-src/nv-optee/optee/optee_os/ldelf/ta_elf.c:1311
    2964:	aa1303e0 	mov	x0, x19
    2968:	97fffcdd 	bl	1cdc <map_segments>
/home/ssysarch/Desktop/nick/jetpack_5/Jetson_Linux_R35.4.1_aarch64/Linux_for_Tegra/sources/tegra/optee-src/nv-optee/optee/optee_os/ldelf/ta_elf.c:1312
    296c:	aa1303e0 	mov	x0, x19
    2970:	97fffa2f 	bl	122c <populate_segments>
/home/ssysarch/Desktop/nick/jetpack_5/Jetson_Linux_R35.4.1_aarch64/Linux_for_Tegra/sources/tegra/optee-src/nv-optee/optee/optee_os/ldelf/ta_elf.c:1313
    2974:	aa1303e0 	mov	x0, x19
    2978:	97fffea1 	bl	23fc <add_dependencies>
/home/ssysarch/Desktop/nick/jetpack_5/Jetson_Linux_R35.4.1_aarch64/Linux_for_Tegra/sources/tegra/optee-src/nv-optee/optee/optee_os/ldelf/ta_elf.c:1314
    297c:	aa1303e0 	mov	x0, x19
    2980:	97fff9e6 	bl	1118 <copy_section_headers>
/home/ssysarch/Desktop/nick/jetpack_5/Jetson_Linux_R35.4.1_aarch64/Linux_for_Tegra/sources/tegra/optee-src/nv-optee/optee/optee_os/ldelf/ta_elf.c:1315
    2984:	aa1303e0 	mov	x0, x19
    2988:	97fffbc2 	bl	1890 <save_symtab>
/home/ssysarch/Desktop/nick/jetpack_5/Jetson_Linux_R35.4.1_aarch64/Linux_for_Tegra/sources/tegra/optee-src/nv-optee/optee/optee_os/ldelf/ta_elf.c:1316
    298c:	91040260 	add	x0, x19, #0x100
    2990:	97fff8ea 	bl	d38 <close_handle.isra.0>
set_tls_offset():
/home/ssysarch/Desktop/nick/jetpack_5/Jetson_Linux_R35.4.1_aarch64/Linux_for_Tegra/sources/tegra/optee-src/nv-optee/optee/optee_os/ldelf/ta_elf.c:1185
    2994:	f9406660 	ldr	x0, [x19, #200]
    2998:	b40000e0 	cbz	x0, 29b4 <ta_elf_load_dependency+0xc8>
/home/ssysarch/Desktop/nick/jetpack_5/Jetson_Linux_R35.4.1_aarch64/Linux_for_Tegra/sources/tegra/optee-src/nv-optee/optee/optee_os/ldelf/ta_elf.c:1189
    299c:	d0000021 	adrp	x1, 8000 <_DYNAMIC>
    29a0:	f940ac22 	ldr	x2, [x1, #344]
    29a4:	f9007262 	str	x2, [x19, #224]
/home/ssysarch/Desktop/nick/jetpack_5/Jetson_Linux_R35.4.1_aarch64/Linux_for_Tegra/sources/tegra/optee-src/nv-optee/optee/optee_os/ldelf/ta_elf.c:1190
    29a8:	f9406e60 	ldr	x0, [x19, #216]
    29ac:	8b020000 	add	x0, x0, x2
    29b0:	f900ac20 	str	x0, [x1, #344]
ta_elf_load_dependency():
/home/ssysarch/Desktop/nick/jetpack_5/Jetson_Linux_R35.4.1_aarch64/Linux_for_Tegra/sources/tegra/optee-src/nv-optee/optee/optee_os/ldelf/ta_elf.c:1319
    29b4:	39400e60 	ldrb	w0, [x19, #3]
    29b8:	340000a0 	cbz	w0, 29cc <ta_elf_load_dependency+0xe0>
/home/ssysarch/Desktop/nick/jetpack_5/Jetson_Linux_R35.4.1_aarch64/Linux_for_Tegra/sources/tegra/optee-src/nv-optee/optee/optee_os/ldelf/ta_elf.c:1320
    29bc:	aa1303e0 	mov	x0, x19
/home/ssysarch/Desktop/nick/jetpack_5/Jetson_Linux_R35.4.1_aarch64/Linux_for_Tegra/sources/tegra/optee-src/nv-optee/optee/optee_os/ldelf/ta_elf.c:1321
    29c0:	a94153f3 	ldp	x19, x20, [sp, #16]
    29c4:	a8c27bfd 	ldp	x29, x30, [sp], #32
/home/ssysarch/Desktop/nick/jetpack_5/Jetson_Linux_R35.4.1_aarch64/Linux_for_Tegra/sources/tegra/optee-src/nv-optee/optee/optee_os/ldelf/ta_elf.c:1320
    29c8:	17fff773 	b	794 <ta_elf_add_bti>
/home/ssysarch/Desktop/nick/jetpack_5/Jetson_Linux_R35.4.1_aarch64/Linux_for_Tegra/sources/tegra/optee-src/nv-optee/optee/optee_os/ldelf/ta_elf.c:1321
    29cc:	a94153f3 	ldp	x19, x20, [sp, #16]
    29d0:	a8c27bfd 	ldp	x29, x30, [sp], #32
    29d4:	d65f03c0 	ret

00000000000029d8 <ta_elf_finalize_mappings>:
ta_elf_finalize_mappings():
/home/ssysarch/Desktop/nick/jetpack_5/Jetson_Linux_R35.4.1_aarch64/Linux_for_Tegra/sources/tegra/optee-src/nv-optee/optee/optee_os/ldelf/ta_elf.c:1324
    29d8:	a9bd7bfd 	stp	x29, x30, [sp, #-48]!
    29dc:	910003fd 	mov	x29, sp
    29e0:	a90153f3 	stp	x19, x20, [sp, #16]
    29e4:	aa0003f4 	mov	x20, x0
/home/ssysarch/Desktop/nick/jetpack_5/Jetson_Linux_R35.4.1_aarch64/Linux_for_Tegra/sources/tegra/optee-src/nv-optee/optee/optee_os/ldelf/ta_elf.c:1328
    29e8:	39400800 	ldrb	w0, [x0, #2]
/home/ssysarch/Desktop/nick/jetpack_5/Jetson_Linux_R35.4.1_aarch64/Linux_for_Tegra/sources/tegra/optee-src/nv-optee/optee/optee_os/ldelf/ta_elf.c:1324
    29ec:	f90013f5 	str	x21, [sp, #32]
/home/ssysarch/Desktop/nick/jetpack_5/Jetson_Linux_R35.4.1_aarch64/Linux_for_Tegra/sources/tegra/optee-src/nv-optee/optee/optee_os/ldelf/ta_elf.c:1328
    29f0:	34000060 	cbz	w0, 29fc <ta_elf_finalize_mappings+0x24>
/home/ssysarch/Desktop/nick/jetpack_5/Jetson_Linux_R35.4.1_aarch64/Linux_for_Tegra/sources/tegra/optee-src/nv-optee/optee/optee_os/ldelf/ta_elf.c:1331
    29f4:	f9405293 	ldr	x19, [x20, #160]
    29f8:	b50000b3 	cbnz	x19, 2a0c <ta_elf_finalize_mappings+0x34>
/home/ssysarch/Desktop/nick/jetpack_5/Jetson_Linux_R35.4.1_aarch64/Linux_for_Tegra/sources/tegra/optee-src/nv-optee/optee/optee_os/ldelf/ta_elf.c:1344
    29fc:	a94153f3 	ldp	x19, x20, [sp, #16]
    2a00:	f94013f5 	ldr	x21, [sp, #32]
    2a04:	a8c37bfd 	ldp	x29, x30, [sp], #48
    2a08:	d65f03c0 	ret
/home/ssysarch/Desktop/nick/jetpack_5/Jetson_Linux_R35.4.1_aarch64/Linux_for_Tegra/sources/tegra/optee-src/nv-optee/optee/optee_os/ldelf/ta_elf.c:1332
    2a0c:	f9400661 	ldr	x1, [x19, #8]
    2a10:	f9400680 	ldr	x0, [x20, #8]
    2a14:	8b010000 	add	x0, x0, x1
/home/ssysarch/Desktop/nick/jetpack_5/Jetson_Linux_R35.4.1_aarch64/Linux_for_Tegra/sources/tegra/optee-src/nv-optee/optee/optee_os/ldelf/ta_elf.c:1335
    2a18:	f9401261 	ldr	x1, [x19, #32]
/home/ssysarch/Desktop/nick/jetpack_5/Jetson_Linux_R35.4.1_aarch64/Linux_for_Tegra/sources/tegra/optee-src/nv-optee/optee/optee_os/ldelf/ta_elf.c:1336
    2a1c:	121f0022 	and	w2, w1, #0x2
/home/ssysarch/Desktop/nick/jetpack_5/Jetson_Linux_R35.4.1_aarch64/Linux_for_Tegra/sources/tegra/optee-src/nv-optee/optee/optee_os/ldelf/ta_elf.c:1337
    2a20:	36000041 	tbz	w1, #0, 2a28 <ta_elf_finalize_mappings+0x50>
/home/ssysarch/Desktop/nick/jetpack_5/Jetson_Linux_R35.4.1_aarch64/Linux_for_Tegra/sources/tegra/optee-src/nv-optee/optee/optee_os/ldelf/ta_elf.c:1338
    2a24:	321e0042 	orr	w2, w2, #0x4
/home/ssysarch/Desktop/nick/jetpack_5/Jetson_Linux_R35.4.1_aarch64/Linux_for_Tegra/sources/tegra/optee-src/nv-optee/optee/optee_os/ldelf/ta_elf.c:1340
    2a28:	f9400e61 	ldr	x1, [x19, #24]
    2a2c:	97fff726 	bl	6c4 <sys_set_prot>
    2a30:	2a0003f5 	mov	w21, w0
/home/ssysarch/Desktop/nick/jetpack_5/Jetson_Linux_R35.4.1_aarch64/Linux_for_Tegra/sources/tegra/optee-src/nv-optee/optee/optee_os/ldelf/ta_elf.c:1341
    2a34:	34000160 	cbz	w0, 2a60 <ta_elf_finalize_mappings+0x88>
/home/ssysarch/Desktop/nick/jetpack_5/Jetson_Linux_R35.4.1_aarch64/Linux_for_Tegra/sources/tegra/optee-src/nv-optee/optee/optee_os/ldelf/ta_elf.c:1342
    2a38:	90000024 	adrp	x4, 6000 <kprintf.constprop.0+0x4c8>
    2a3c:	912c4884 	add	x4, x4, #0xb12
    2a40:	52800023 	mov	w3, #0x1                   	// #1
    2a44:	52800022 	mov	w2, #0x1                   	// #1
    2a48:	5280a7c1 	mov	w1, #0x53e                 	// #1342
    2a4c:	b0000020 	adrp	x0, 7000 <trace_ext_prefix+0x509>
    2a50:	91116000 	add	x0, x0, #0x458
    2a54:	94000f9e 	bl	68cc <trace_printf>
    2a58:	2a1503e0 	mov	w0, w21
    2a5c:	97fff5c3 	bl	168 <_ldelf_return>
/home/ssysarch/Desktop/nick/jetpack_5/Jetson_Linux_R35.4.1_aarch64/Linux_for_Tegra/sources/tegra/optee-src/nv-optee/optee/optee_os/ldelf/ta_elf.c:1331
    2a60:	f9401e73 	ldr	x19, [x19, #56]
    2a64:	17ffffe5 	b	29f8 <ta_elf_finalize_mappings+0x20>

0000000000002a68 <ta_elf_print_mappings>:
ta_elf_print_mappings():
/home/ssysarch/Desktop/nick/jetpack_5/Jetson_Linux_R35.4.1_aarch64/Linux_for_Tegra/sources/tegra/optee-src/nv-optee/optee/optee_os/ldelf/ta_elf.c:1448
    2a68:	a9b67bfd 	stp	x29, x30, [sp, #-160]!
    2a6c:	910003fd 	mov	x29, sp
    2a70:	a90363f7 	stp	x23, x24, [sp, #48]
    2a74:	aa0203f7 	mov	x23, x2
    2a78:	aa0303f8 	mov	x24, x3
    2a7c:	a9046bf9 	stp	x25, x26, [sp, #64]
/home/ssysarch/Desktop/nick/jetpack_5/Jetson_Linux_R35.4.1_aarch64/Linux_for_Tegra/sources/tegra/optee-src/nv-optee/optee/optee_os/ldelf/ta_elf.c:1460
    2a80:	910263fa 	add	x26, sp, #0x98
    2a84:	aa1a03e3 	mov	x3, x26
/home/ssysarch/Desktop/nick/jetpack_5/Jetson_Linux_R35.4.1_aarch64/Linux_for_Tegra/sources/tegra/optee-src/nv-optee/optee/optee_os/ldelf/ta_elf.c:1448
    2a88:	a90573fb 	stp	x27, x28, [sp, #80]
/home/ssysarch/Desktop/nick/jetpack_5/Jetson_Linux_R35.4.1_aarch64/Linux_for_Tegra/sources/tegra/optee-src/nv-optee/optee/optee_os/ldelf/ta_elf.c:1460
    2a8c:	910223fb 	add	x27, sp, #0x88
    2a90:	910243fc 	add	x28, sp, #0x90
    2a94:	aa1b03e2 	mov	x2, x27
/home/ssysarch/Desktop/nick/jetpack_5/Jetson_Linux_R35.4.1_aarch64/Linux_for_Tegra/sources/tegra/optee-src/nv-optee/optee/optee_os/ldelf/ta_elf.c:1448
    2a98:	a90153f3 	stp	x19, x20, [sp, #16]
    2a9c:	aa0403f4 	mov	x20, x4
    2aa0:	a9025bf5 	stp	x21, x22, [sp, #32]
    2aa4:	aa0003f5 	mov	x21, x0
    2aa8:	aa0103f6 	mov	x22, x1
/home/ssysarch/Desktop/nick/jetpack_5/Jetson_Linux_R35.4.1_aarch64/Linux_for_Tegra/sources/tegra/optee-src/nv-optee/optee/optee_os/ldelf/ta_elf.c:1460
    2aac:	aa1703e0 	mov	x0, x23
    2ab0:	aa1c03e1 	mov	x1, x28
/home/ssysarch/Desktop/nick/jetpack_5/Jetson_Linux_R35.4.1_aarch64/Linux_for_Tegra/sources/tegra/optee-src/nv-optee/optee/optee_os/ldelf/ta_elf.c:1448
    2ab4:	f90033e5 	str	x5, [sp, #96]
/home/ssysarch/Desktop/nick/jetpack_5/Jetson_Linux_R35.4.1_aarch64/Linux_for_Tegra/sources/tegra/optee-src/nv-optee/optee/optee_os/ldelf/ta_elf.c:1452
    2ab8:	d2800019 	mov	x25, #0x0                   	// #0
/home/ssysarch/Desktop/nick/jetpack_5/Jetson_Linux_R35.4.1_aarch64/Linux_for_Tegra/sources/tegra/optee-src/nv-optee/optee/optee_os/ldelf/ta_elf.c:1450
    2abc:	a908ffff 	stp	xzr, xzr, [sp, #136]
/home/ssysarch/Desktop/nick/jetpack_5/Jetson_Linux_R35.4.1_aarch64/Linux_for_Tegra/sources/tegra/optee-src/nv-optee/optee/optee_os/ldelf/ta_elf.c:1451
    2ac0:	f9004fff 	str	xzr, [sp, #152]
/home/ssysarch/Desktop/nick/jetpack_5/Jetson_Linux_R35.4.1_aarch64/Linux_for_Tegra/sources/tegra/optee-src/nv-optee/optee/optee_os/ldelf/ta_elf.c:1460
    2ac4:	97fffb03 	bl	16d0 <get_next_in_order.isra.0>
/home/ssysarch/Desktop/nick/jetpack_5/Jetson_Linux_R35.4.1_aarch64/Linux_for_Tegra/sources/tegra/optee-src/nv-optee/optee/optee_os/ldelf/ta_elf.c:1453
    2ac8:	d280000a 	mov	x10, #0x0                   	// #0
/home/ssysarch/Desktop/nick/jetpack_5/Jetson_Linux_R35.4.1_aarch64/Linux_for_Tegra/sources/tegra/optee-src/nv-optee/optee/optee_os/ldelf/ta_elf.c:1467
    2acc:	f94047e1 	ldr	x1, [sp, #136]
    2ad0:	b4000c61 	cbz	x1, 2c5c <ta_elf_print_mappings+0x1f4>
/home/ssysarch/Desktop/nick/jetpack_5/Jetson_Linux_R35.4.1_aarch64/Linux_for_Tegra/sources/tegra/optee-src/nv-optee/optee/optee_os/ldelf/ta_elf.c:1468
    2ad4:	f9404be2 	ldr	x2, [sp, #144]
    2ad8:	f9400420 	ldr	x0, [x1, #8]
/home/ssysarch/Desktop/nick/jetpack_5/Jetson_Linux_R35.4.1_aarch64/Linux_for_Tegra/sources/tegra/optee-src/nv-optee/optee/optee_os/ldelf/ta_elf.c:1469
    2adc:	f9400c33 	ldr	x19, [x1, #24]
/home/ssysarch/Desktop/nick/jetpack_5/Jetson_Linux_R35.4.1_aarch64/Linux_for_Tegra/sources/tegra/optee-src/nv-optee/optee/optee_os/ldelf/ta_elf.c:1468
    2ae0:	f9400448 	ldr	x8, [x2, #8]
/home/ssysarch/Desktop/nick/jetpack_5/Jetson_Linux_R35.4.1_aarch64/Linux_for_Tegra/sources/tegra/optee-src/nv-optee/optee/optee_os/ldelf/ta_elf.c:1469
    2ae4:	8b130013 	add	x19, x0, x19
roundup():
/home/ssysarch/Desktop/nick/jetpack_5/Jetson_Linux_R35.4.1_aarch64/Linux_for_Tegra/sources/tegra/optee-src/nv-optee/optee/optee_os/ldelf/ta_elf.c:525
    2ae8:	913ffe73 	add	x19, x19, #0xfff
ta_elf_print_mappings():
/home/ssysarch/Desktop/nick/jetpack_5/Jetson_Linux_R35.4.1_aarch64/Linux_for_Tegra/sources/tegra/optee-src/nv-optee/optee/optee_os/ldelf/ta_elf.c:1468
    2aec:	8b080008 	add	x8, x0, x8
roundup():
/home/ssysarch/Desktop/nick/jetpack_5/Jetson_Linux_R35.4.1_aarch64/Linux_for_Tegra/sources/tegra/optee-src/nv-optee/optee/optee_os/ldelf/ta_elf.c:525
    2af0:	9274ce73 	and	x19, x19, #0xfffffffffffff000
rounddown():
/home/ssysarch/Desktop/nick/jetpack_5/Jetson_Linux_R35.4.1_aarch64/Linux_for_Tegra/sources/tegra/optee-src/nv-optee/optee/optee_os/ldelf/ta_elf.c:530
    2af4:	9274cc00 	and	x0, x0, #0xfffffffffffff000
    2af8:	9274cd08 	and	x8, x8, #0xfffffffffffff000
ta_elf_print_mappings():
/home/ssysarch/Desktop/nick/jetpack_5/Jetson_Linux_R35.4.1_aarch64/Linux_for_Tegra/sources/tegra/optee-src/nv-optee/optee/optee_os/ldelf/ta_elf.c:1469
    2afc:	cb000273 	sub	x19, x19, x0
/home/ssysarch/Desktop/nick/jetpack_5/Jetson_Linux_R35.4.1_aarch64/Linux_for_Tegra/sources/tegra/optee-src/nv-optee/optee/optee_os/ldelf/ta_elf.c:1486
    2b00:	9140050c 	add	x12, x8, #0x1, lsl #12
/home/ssysarch/Desktop/nick/jetpack_5/Jetson_Linux_R35.4.1_aarch64/Linux_for_Tegra/sources/tegra/optee-src/nv-optee/optee/optee_os/ldelf/ta_elf.c:1473
    2b04:	eb18015f 	cmp	x10, x24
    2b08:	540000c2 	b.cs	2b20 <ta_elf_print_mappings+0xb8>  // b.hs, b.nlast
/home/ssysarch/Desktop/nick/jetpack_5/Jetson_Linux_R35.4.1_aarch64/Linux_for_Tegra/sources/tegra/optee-src/nv-optee/optee/optee_os/ldelf/ta_elf.c:1473 (discriminator 1)
    2b0c:	d37be940 	lsl	x0, x10, #5
    2b10:	8b0a1681 	add	x1, x20, x10, lsl #5
    2b14:	f8606a84 	ldr	x4, [x20, x0]
    2b18:	eb08009f 	cmp	x4, x8
    2b1c:	540003e9 	b.ls	2b98 <ta_elf_print_mappings+0x130>  // b.plast
/home/ssysarch/Desktop/nick/jetpack_5/Jetson_Linux_R35.4.1_aarch64/Linux_for_Tegra/sources/tegra/optee-src/nv-optee/optee/optee_os/ldelf/ta_elf.c:1513
    2b20:	f94047e0 	ldr	x0, [sp, #136]
    2b24:	b4000a20 	cbz	x0, 2c68 <ta_elf_print_mappings+0x200>
rounddown():
/home/ssysarch/Desktop/nick/jetpack_5/Jetson_Linux_R35.4.1_aarch64/Linux_for_Tegra/sources/tegra/optee-src/nv-optee/optee/optee_os/ldelf/ta_elf.c:530
    2b28:	f9400005 	ldr	x5, [x0]
ta_elf_print_mappings():
/home/ssysarch/Desktop/nick/jetpack_5/Jetson_Linux_R35.4.1_aarch64/Linux_for_Tegra/sources/tegra/optee-src/nv-optee/optee/optee_os/ldelf/ta_elf.c:1517
    2b2c:	f9401000 	ldr	x0, [x0, #32]
rounddown():
/home/ssysarch/Desktop/nick/jetpack_5/Jetson_Linux_R35.4.1_aarch64/Linux_for_Tegra/sources/tegra/optee-src/nv-optee/optee/optee_os/ldelf/ta_elf.c:530
    2b30:	9274cca5 	and	x5, x5, #0xfffffffffffff000
ta_elf_print_mappings():
/home/ssysarch/Desktop/nick/jetpack_5/Jetson_Linux_R35.4.1_aarch64/Linux_for_Tegra/sources/tegra/optee-src/nv-optee/optee/optee_os/ldelf/ta_elf.c:1518
    2b34:	53020807 	ubfx	w7, w0, #2, #1
    2b38:	110020e7 	add	w7, w7, #0x8
/home/ssysarch/Desktop/nick/jetpack_5/Jetson_Linux_R35.4.1_aarch64/Linux_for_Tegra/sources/tegra/optee-src/nv-optee/optee/optee_os/ldelf/ta_elf.c:1519
    2b3c:	36080040 	tbz	w0, #1, 2b44 <ta_elf_print_mappings+0xdc>
/home/ssysarch/Desktop/nick/jetpack_5/Jetson_Linux_R35.4.1_aarch64/Linux_for_Tegra/sources/tegra/optee-src/nv-optee/optee/optee_os/ldelf/ta_elf.c:1520
    2b40:	321f00e7 	orr	w7, w7, #0x2
/home/ssysarch/Desktop/nick/jetpack_5/Jetson_Linux_R35.4.1_aarch64/Linux_for_Tegra/sources/tegra/optee-src/nv-optee/optee/optee_os/ldelf/ta_elf.c:1521
    2b44:	36000040 	tbz	w0, #0, 2b4c <ta_elf_print_mappings+0xe4>
/home/ssysarch/Desktop/nick/jetpack_5/Jetson_Linux_R35.4.1_aarch64/Linux_for_Tegra/sources/tegra/optee-src/nv-optee/optee/optee_os/ldelf/ta_elf.c:1522
    2b48:	321e00e7 	orr	w7, w7, #0x4
/home/ssysarch/Desktop/nick/jetpack_5/Jetson_Linux_R35.4.1_aarch64/Linux_for_Tegra/sources/tegra/optee-src/nv-optee/optee/optee_os/ldelf/ta_elf.c:1524
    2b4c:	b9409be3 	ldr	w3, [sp, #152]
    2b50:	aa1303e6 	mov	x6, x19
    2b54:	aa0803e4 	mov	x4, x8
    2b58:	aa1903e2 	mov	x2, x25
    2b5c:	aa1603e1 	mov	x1, x22
    2b60:	aa1503e0 	mov	x0, x21
    2b64:	f90037ea 	str	x10, [sp, #104]
/home/ssysarch/Desktop/nick/jetpack_5/Jetson_Linux_R35.4.1_aarch64/Linux_for_Tegra/sources/tegra/optee-src/nv-optee/optee/optee_os/ldelf/ta_elf.c:1525
    2b68:	91000739 	add	x25, x25, #0x1
/home/ssysarch/Desktop/nick/jetpack_5/Jetson_Linux_R35.4.1_aarch64/Linux_for_Tegra/sources/tegra/optee-src/nv-optee/optee/optee_os/ldelf/ta_elf.c:1524
    2b6c:	97fff91c 	bl	fdc <print_seg>
/home/ssysarch/Desktop/nick/jetpack_5/Jetson_Linux_R35.4.1_aarch64/Linux_for_Tegra/sources/tegra/optee-src/nv-optee/optee/optee_os/ldelf/ta_elf.c:1527
    2b70:	aa1a03e3 	mov	x3, x26
    2b74:	aa1b03e2 	mov	x2, x27
    2b78:	aa1c03e1 	mov	x1, x28
    2b7c:	aa1703e0 	mov	x0, x23
    2b80:	97fffad4 	bl	16d0 <get_next_in_order.isra.0>
    2b84:	72001c1f 	tst	w0, #0xff
    2b88:	f94037ea 	ldr	x10, [sp, #104]
    2b8c:	54fffa01 	b.ne	2acc <ta_elf_print_mappings+0x64>  // b.any
/home/ssysarch/Desktop/nick/jetpack_5/Jetson_Linux_R35.4.1_aarch64/Linux_for_Tegra/sources/tegra/optee-src/nv-optee/optee/optee_os/ldelf/ta_elf.c:1528
    2b90:	f90047ff 	str	xzr, [sp, #136]
    2b94:	17ffffce 	b	2acc <ta_elf_print_mappings+0x64>
/home/ssysarch/Desktop/nick/jetpack_5/Jetson_Linux_R35.4.1_aarch64/Linux_for_Tegra/sources/tegra/optee-src/nv-optee/optee/optee_os/ldelf/ta_elf.c:1477
    2b98:	9100054b 	add	x11, x10, #0x1
    2b9c:	540003c1 	b.ne	2c14 <ta_elf_print_mappings+0x1ac>  // b.any
/home/ssysarch/Desktop/nick/jetpack_5/Jetson_Linux_R35.4.1_aarch64/Linux_for_Tegra/sources/tegra/optee-src/nv-optee/optee/optee_os/ldelf/ta_elf.c:1484
    2ba0:	eb18017f 	cmp	x11, x24
    2ba4:	f9400822 	ldr	x2, [x1, #16]
    2ba8:	54000262 	b.cs	2bf4 <ta_elf_print_mappings+0x18c>  // b.hs, b.nlast
/home/ssysarch/Desktop/nick/jetpack_5/Jetson_Linux_R35.4.1_aarch64/Linux_for_Tegra/sources/tegra/optee-src/nv-optee/optee/optee_os/ldelf/ta_elf.c:1484 (discriminator 1)
    2bac:	f140045f 	cmp	x2, #0x1, lsl #12
    2bb0:	54000221 	b.ne	2bf4 <ta_elf_print_mappings+0x18c>  // b.any
/home/ssysarch/Desktop/nick/jetpack_5/Jetson_Linux_R35.4.1_aarch64/Linux_for_Tegra/sources/tegra/optee-src/nv-optee/optee/optee_os/ldelf/ta_elf.c:1489
    2bb4:	91008000 	add	x0, x0, #0x20
    2bb8:	8b000283 	add	x3, x20, x0
/home/ssysarch/Desktop/nick/jetpack_5/Jetson_Linux_R35.4.1_aarch64/Linux_for_Tegra/sources/tegra/optee-src/nv-optee/optee/optee_os/ldelf/ta_elf.c:1491
    2bbc:	f8606a80 	ldr	x0, [x20, x0]
    2bc0:	eb0c001f 	cmp	x0, x12
    2bc4:	54000181 	b.ne	2bf4 <ta_elf_print_mappings+0x18c>  // b.any
/home/ssysarch/Desktop/nick/jetpack_5/Jetson_Linux_R35.4.1_aarch64/Linux_for_Tegra/sources/tegra/optee-src/nv-optee/optee/optee_os/ldelf/ta_elf.c:1488 (discriminator 1)
    2bc8:	f9400860 	ldr	x0, [x3, #16]
    2bcc:	91400400 	add	x0, x0, #0x1, lsl #12
/home/ssysarch/Desktop/nick/jetpack_5/Jetson_Linux_R35.4.1_aarch64/Linux_for_Tegra/sources/tegra/optee-src/nv-optee/optee/optee_os/ldelf/ta_elf.c:1491 (discriminator 1)
    2bd0:	eb13001f 	cmp	x0, x19
    2bd4:	54000101 	b.ne	2bf4 <ta_elf_print_mappings+0x18c>  // b.any
/home/ssysarch/Desktop/nick/jetpack_5/Jetson_Linux_R35.4.1_aarch64/Linux_for_Tegra/sources/tegra/optee-src/nv-optee/optee/optee_os/ldelf/ta_elf.c:1492
    2bd8:	b9401821 	ldr	w1, [x1, #24]
    2bdc:	b9401860 	ldr	w0, [x3, #24]
    2be0:	6b00003f 	cmp	w1, w0
    2be4:	54000081 	b.ne	2bf4 <ta_elf_print_mappings+0x18c>  // b.any
/home/ssysarch/Desktop/nick/jetpack_5/Jetson_Linux_R35.4.1_aarch64/Linux_for_Tegra/sources/tegra/optee-src/nv-optee/optee/optee_os/ldelf/ta_elf.c:1496
    2be8:	9100094b 	add	x11, x10, #0x2
/home/ssysarch/Desktop/nick/jetpack_5/Jetson_Linux_R35.4.1_aarch64/Linux_for_Tegra/sources/tegra/optee-src/nv-optee/optee/optee_os/ldelf/ta_elf.c:1462
    2bec:	aa0b03ea 	mov	x10, x11
    2bf0:	17ffffc5 	b	2b04 <ta_elf_print_mappings+0x9c>
/home/ssysarch/Desktop/nick/jetpack_5/Jetson_Linux_R35.4.1_aarch64/Linux_for_Tegra/sources/tegra/optee-src/nv-optee/optee/optee_os/ldelf/ta_elf.c:1500
    2bf4:	eb13005f 	cmp	x2, x19
    2bf8:	54ffffa0 	b.eq	2bec <ta_elf_print_mappings+0x184>  // b.none
/home/ssysarch/Desktop/nick/jetpack_5/Jetson_Linux_R35.4.1_aarch64/Linux_for_Tegra/sources/tegra/optee-src/nv-optee/optee/optee_os/ldelf/ta_elf.c:1500 (discriminator 1)
    2bfc:	b0000022 	adrp	x2, 7000 <trace_ext_prefix+0x509>
    2c00:	91120c42 	add	x2, x2, #0x483
    2c04:	b0000020 	adrp	x0, 7000 <trace_ext_prefix+0x509>
    2c08:	91070400 	add	x0, x0, #0x1c1
    2c0c:	5280bb81 	mov	w1, #0x5dc                 	// #1500
    2c10:	97fff87e 	bl	e08 <_assert_trap.constprop.0>
/home/ssysarch/Desktop/nick/jetpack_5/Jetson_Linux_R35.4.1_aarch64/Linux_for_Tegra/sources/tegra/optee-src/nv-optee/optee/optee_os/ldelf/ta_elf.c:1501
    2c14:	54fffec2 	b.cs	2bec <ta_elf_print_mappings+0x184>  // b.hs, b.nlast
/home/ssysarch/Desktop/nick/jetpack_5/Jetson_Linux_R35.4.1_aarch64/Linux_for_Tegra/sources/tegra/optee-src/nv-optee/optee/optee_os/ldelf/ta_elf.c:1504
    2c18:	a9409825 	ldp	x5, x6, [x1, #8]
    2c1c:	aa1903e2 	mov	x2, x25
/home/ssysarch/Desktop/nick/jetpack_5/Jetson_Linux_R35.4.1_aarch64/Linux_for_Tegra/sources/tegra/optee-src/nv-optee/optee/optee_os/ldelf/ta_elf.c:1503
    2c20:	f94033e0 	ldr	x0, [sp, #96]
/home/ssysarch/Desktop/nick/jetpack_5/Jetson_Linux_R35.4.1_aarch64/Linux_for_Tegra/sources/tegra/optee-src/nv-optee/optee/optee_os/ldelf/ta_elf.c:1504
    2c24:	12800003 	mov	w3, #0xffffffff            	// #-1
    2c28:	a906a3eb 	stp	x11, x8, [sp, #104]
/home/ssysarch/Desktop/nick/jetpack_5/Jetson_Linux_R35.4.1_aarch64/Linux_for_Tegra/sources/tegra/optee-src/nv-optee/optee/optee_os/ldelf/ta_elf.c:1508
    2c2c:	91000739 	add	x25, x25, #0x1
/home/ssysarch/Desktop/nick/jetpack_5/Jetson_Linux_R35.4.1_aarch64/Linux_for_Tegra/sources/tegra/optee-src/nv-optee/optee/optee_os/ldelf/ta_elf.c:1503
    2c30:	eb00009f 	cmp	x4, x0
/home/ssysarch/Desktop/nick/jetpack_5/Jetson_Linux_R35.4.1_aarch64/Linux_for_Tegra/sources/tegra/optee-src/nv-optee/optee/optee_os/ldelf/ta_elf.c:1504
    2c34:	b9401820 	ldr	w0, [x1, #24]
/home/ssysarch/Desktop/nick/jetpack_5/Jetson_Linux_R35.4.1_aarch64/Linux_for_Tegra/sources/tegra/optee-src/nv-optee/optee/optee_os/ldelf/ta_elf.c:1503
    2c38:	1a9f17e7 	cset	w7, eq  // eq = none
/home/ssysarch/Desktop/nick/jetpack_5/Jetson_Linux_R35.4.1_aarch64/Linux_for_Tegra/sources/tegra/optee-src/nv-optee/optee/optee_os/ldelf/ta_elf.c:1504
    2c3c:	aa1603e1 	mov	x1, x22
    2c40:	f9003fec 	str	x12, [sp, #120]
    2c44:	2a071c07 	orr	w7, w0, w7, lsl #7
    2c48:	aa1503e0 	mov	x0, x21
    2c4c:	97fff8e4 	bl	fdc <print_seg>
/home/ssysarch/Desktop/nick/jetpack_5/Jetson_Linux_R35.4.1_aarch64/Linux_for_Tegra/sources/tegra/optee-src/nv-optee/optee/optee_os/ldelf/ta_elf.c:1510
    2c50:	a946a3eb 	ldp	x11, x8, [sp, #104]
    2c54:	f9403fec 	ldr	x12, [sp, #120]
    2c58:	17ffffe5 	b	2bec <ta_elf_print_mappings+0x184>
/home/ssysarch/Desktop/nick/jetpack_5/Jetson_Linux_R35.4.1_aarch64/Linux_for_Tegra/sources/tegra/optee-src/nv-optee/optee/optee_os/ldelf/ta_elf.c:1463
    2c5c:	d2800013 	mov	x19, #0x0                   	// #0
/home/ssysarch/Desktop/nick/jetpack_5/Jetson_Linux_R35.4.1_aarch64/Linux_for_Tegra/sources/tegra/optee-src/nv-optee/optee/optee_os/ldelf/ta_elf.c:1462
    2c60:	92800008 	mov	x8, #0xffffffffffffffff    	// #-1
    2c64:	17ffffa7 	b	2b00 <ta_elf_print_mappings+0x98>
/home/ssysarch/Desktop/nick/jetpack_5/Jetson_Linux_R35.4.1_aarch64/Linux_for_Tegra/sources/tegra/optee-src/nv-optee/optee/optee_os/ldelf/ta_elf.c:1533
    2c68:	b0000033 	adrp	x19, 7000 <trace_ext_prefix+0x509>
    2c6c:	91076273 	add	x19, x19, #0x1d8
/home/ssysarch/Desktop/nick/jetpack_5/Jetson_Linux_R35.4.1_aarch64/Linux_for_Tegra/sources/tegra/optee-src/nv-optee/optee/optee_os/ldelf/ta_elf.c:1532
    2c70:	f94002e0 	ldr	x0, [x23]
/home/ssysarch/Desktop/nick/jetpack_5/Jetson_Linux_R35.4.1_aarch64/Linux_for_Tegra/sources/tegra/optee-src/nv-optee/optee/optee_os/ldelf/ta_elf.c:1531
    2c74:	a9097fe0 	stp	x0, xzr, [sp, #144]
/home/ssysarch/Desktop/nick/jetpack_5/Jetson_Linux_R35.4.1_aarch64/Linux_for_Tegra/sources/tegra/optee-src/nv-optee/optee/optee_os/ldelf/ta_elf.c:1532 (discriminator 1)
    2c78:	f9404be4 	ldr	x4, [sp, #144]
    2c7c:	b5000104 	cbnz	x4, 2c9c <ta_elf_print_mappings+0x234>
/home/ssysarch/Desktop/nick/jetpack_5/Jetson_Linux_R35.4.1_aarch64/Linux_for_Tegra/sources/tegra/optee-src/nv-optee/optee/optee_os/ldelf/ta_elf.c:1538
    2c80:	a94153f3 	ldp	x19, x20, [sp, #16]
    2c84:	a9425bf5 	ldp	x21, x22, [sp, #32]
    2c88:	a94363f7 	ldp	x23, x24, [sp, #48]
    2c8c:	a9446bf9 	ldp	x25, x26, [sp, #64]
    2c90:	a94573fb 	ldp	x27, x28, [sp, #80]
    2c94:	a8ca7bfd 	ldp	x29, x30, [sp], #160
    2c98:	d65f03c0 	ret
/home/ssysarch/Desktop/nick/jetpack_5/Jetson_Linux_R35.4.1_aarch64/Linux_for_Tegra/sources/tegra/optee-src/nv-optee/optee/optee_os/ldelf/ta_elf.c:1533 (discriminator 3)
    2c9c:	f9400486 	ldr	x6, [x4, #8]
    2ca0:	aa1503e0 	mov	x0, x21
    2ca4:	f9404fe3 	ldr	x3, [sp, #152]
    2ca8:	aa1303e2 	mov	x2, x19
    2cac:	aa1603e1 	mov	x1, x22
    2cb0:	91044084 	add	x4, x4, #0x110
    2cb4:	52800105 	mov	w5, #0x8                   	// #8
    2cb8:	97fff784 	bl	ac8 <print_wrapper>
/home/ssysarch/Desktop/nick/jetpack_5/Jetson_Linux_R35.4.1_aarch64/Linux_for_Tegra/sources/tegra/optee-src/nv-optee/optee/optee_os/ldelf/ta_elf.c:1536 (discriminator 3)
    2cbc:	f9404fe0 	ldr	x0, [sp, #152]
    2cc0:	91000400 	add	x0, x0, #0x1
    2cc4:	f9004fe0 	str	x0, [sp, #152]
/home/ssysarch/Desktop/nick/jetpack_5/Jetson_Linux_R35.4.1_aarch64/Linux_for_Tegra/sources/tegra/optee-src/nv-optee/optee/optee_os/ldelf/ta_elf.c:1532 (discriminator 3)
    2cc8:	f9404be0 	ldr	x0, [sp, #144]
    2ccc:	f9409000 	ldr	x0, [x0, #288]
    2cd0:	f9004be0 	str	x0, [sp, #144]
    2cd4:	17ffffe9 	b	2c78 <ta_elf_print_mappings+0x210>

0000000000002cd8 <find_exidx>:
find_exidx():
/home/ssysarch/Desktop/nick/jetpack_5/Jetson_Linux_R35.4.1_aarch64/Linux_for_Tegra/sources/tegra/optee-src/nv-optee/optee/optee_os/ldelf/ta_elf.c:1548
    2cd8:	d0000023 	adrp	x3, 8000 <_DYNAMIC>
    2cdc:	f940b063 	ldr	x3, [x3, #352]
/home/ssysarch/Desktop/nick/jetpack_5/Jetson_Linux_R35.4.1_aarch64/Linux_for_Tegra/sources/tegra/optee-src/nv-optee/optee/optee_os/ldelf/ta_elf.c:1548 (discriminator 1)
    2ce0:	b5000063 	cbnz	x3, 2cec <find_exidx+0x14>
/home/ssysarch/Desktop/nick/jetpack_5/Jetson_Linux_R35.4.1_aarch64/Linux_for_Tegra/sources/tegra/optee-src/nv-optee/optee/optee_os/ldelf/ta_elf.c:1564
    2ce4:	52800000 	mov	w0, #0x0                   	// #0
    2ce8:	1400001a 	b	2d50 <find_exidx+0x78>
/home/ssysarch/Desktop/nick/jetpack_5/Jetson_Linux_R35.4.1_aarch64/Linux_for_Tegra/sources/tegra/optee-src/nv-optee/optee/optee_os/ldelf/ta_elf.c:1549
    2cec:	f9400466 	ldr	x6, [x3, #8]
    2cf0:	eb0000df 	cmp	x6, x0
    2cf4:	54000088 	b.hi	2d04 <find_exidx+0x2c>  // b.pmore
/home/ssysarch/Desktop/nick/jetpack_5/Jetson_Linux_R35.4.1_aarch64/Linux_for_Tegra/sources/tegra/optee-src/nv-optee/optee/optee_os/ldelf/ta_elf.c:1552
    2cf8:	f9405064 	ldr	x4, [x3, #160]
/home/ssysarch/Desktop/nick/jetpack_5/Jetson_Linux_R35.4.1_aarch64/Linux_for_Tegra/sources/tegra/optee-src/nv-optee/optee/optee_os/ldelf/ta_elf.c:1551
    2cfc:	cb060007 	sub	x7, x0, x6
/home/ssysarch/Desktop/nick/jetpack_5/Jetson_Linux_R35.4.1_aarch64/Linux_for_Tegra/sources/tegra/optee-src/nv-optee/optee/optee_os/ldelf/ta_elf.c:1552 (discriminator 1)
    2d00:	b5000064 	cbnz	x4, 2d0c <find_exidx+0x34>
/home/ssysarch/Desktop/nick/jetpack_5/Jetson_Linux_R35.4.1_aarch64/Linux_for_Tegra/sources/tegra/optee-src/nv-optee/optee/optee_os/ldelf/ta_elf.c:1548 (discriminator 2)
    2d04:	f9409063 	ldr	x3, [x3, #288]
    2d08:	17fffff6 	b	2ce0 <find_exidx+0x8>
/home/ssysarch/Desktop/nick/jetpack_5/Jetson_Linux_R35.4.1_aarch64/Linux_for_Tegra/sources/tegra/optee-src/nv-optee/optee/optee_os/ldelf/ta_elf.c:1553
    2d0c:	f9400485 	ldr	x5, [x4, #8]
    2d10:	eb0700bf 	cmp	x5, x7
    2d14:	54000208 	b.hi	2d54 <find_exidx+0x7c>  // b.pmore
/home/ssysarch/Desktop/nick/jetpack_5/Jetson_Linux_R35.4.1_aarch64/Linux_for_Tegra/sources/tegra/optee-src/nv-optee/optee/optee_os/ldelf/ta_elf.c:1555
    2d18:	f9400888 	ldr	x8, [x4, #16]
    2d1c:	cb0500e5 	sub	x5, x7, x5
    2d20:	eb0800bf 	cmp	x5, x8
    2d24:	54000182 	b.cs	2d54 <find_exidx+0x7c>  // b.hs, b.nlast
/home/ssysarch/Desktop/nick/jetpack_5/Jetson_Linux_R35.4.1_aarch64/Linux_for_Tegra/sources/tegra/optee-src/nv-optee/optee/optee_os/ldelf/ta_elf.c:1556
    2d28:	f9405860 	ldr	x0, [x3, #176]
    2d2c:	8b060006 	add	x6, x0, x6
    2d30:	f9000026 	str	x6, [x1]
/home/ssysarch/Desktop/nick/jetpack_5/Jetson_Linux_R35.4.1_aarch64/Linux_for_Tegra/sources/tegra/optee-src/nv-optee/optee/optee_os/ldelf/ta_elf.c:1557
    2d34:	f9400461 	ldr	x1, [x3, #8]
    2d38:	f9405860 	ldr	x0, [x3, #176]
    2d3c:	8b010000 	add	x0, x0, x1
    2d40:	f9405c61 	ldr	x1, [x3, #184]
    2d44:	8b010000 	add	x0, x0, x1
    2d48:	f9000040 	str	x0, [x2]
/home/ssysarch/Desktop/nick/jetpack_5/Jetson_Linux_R35.4.1_aarch64/Linux_for_Tegra/sources/tegra/optee-src/nv-optee/optee/optee_os/ldelf/ta_elf.c:1559
    2d4c:	52800020 	mov	w0, #0x1                   	// #1
/home/ssysarch/Desktop/nick/jetpack_5/Jetson_Linux_R35.4.1_aarch64/Linux_for_Tegra/sources/tegra/optee-src/nv-optee/optee/optee_os/ldelf/ta_elf.c:1565
    2d50:	d65f03c0 	ret
/home/ssysarch/Desktop/nick/jetpack_5/Jetson_Linux_R35.4.1_aarch64/Linux_for_Tegra/sources/tegra/optee-src/nv-optee/optee/optee_os/ldelf/ta_elf.c:1552 (discriminator 2)
    2d54:	f9401c84 	ldr	x4, [x4, #56]
    2d58:	17ffffea 	b	2d00 <find_exidx+0x28>

0000000000002d5c <ta_elf_stack_trace_a32>:
ta_elf_stack_trace_a32():
/home/ssysarch/Desktop/nick/jetpack_5/Jetson_Linux_R35.4.1_aarch64/Linux_for_Tegra/sources/tegra/optee-src/nv-optee/optee/optee_os/ldelf/ta_elf.c:1568
    2d5c:	a9b97bfd 	stp	x29, x30, [sp, #-112]!
/home/ssysarch/Desktop/nick/jetpack_5/Jetson_Linux_R35.4.1_aarch64/Linux_for_Tegra/sources/tegra/optee-src/nv-optee/optee/optee_os/ldelf/ta_elf.c:1571
    2d60:	aa0003e1 	mov	x1, x0
    2d64:	d2800802 	mov	x2, #0x40                  	// #64
    2d68:	910043e3 	add	x3, sp, #0x10
/home/ssysarch/Desktop/nick/jetpack_5/Jetson_Linux_R35.4.1_aarch64/Linux_for_Tegra/sources/tegra/optee-src/nv-optee/optee/optee_os/ldelf/ta_elf.c:1568
    2d6c:	910003fd 	mov	x29, sp
/home/ssysarch/Desktop/nick/jetpack_5/Jetson_Linux_R35.4.1_aarch64/Linux_for_Tegra/sources/tegra/optee-src/nv-optee/optee/optee_os/ldelf/ta_elf.c:1571
    2d70:	aa0303e0 	mov	x0, x3
/home/ssysarch/Desktop/nick/jetpack_5/Jetson_Linux_R35.4.1_aarch64/Linux_for_Tegra/sources/tegra/optee-src/nv-optee/optee/optee_os/ldelf/ta_elf.c:1569
    2d74:	a9057fff 	stp	xzr, xzr, [sp, #80]
    2d78:	a9067fff 	stp	xzr, xzr, [sp, #96]
/home/ssysarch/Desktop/nick/jetpack_5/Jetson_Linux_R35.4.1_aarch64/Linux_for_Tegra/sources/tegra/optee-src/nv-optee/optee/optee_os/ldelf/ta_elf.c:1571
    2d7c:	97fff4bd 	bl	70 <memcpy>
    2d80:	aa0003e3 	mov	x3, x0
/home/ssysarch/Desktop/nick/jetpack_5/Jetson_Linux_R35.4.1_aarch64/Linux_for_Tegra/sources/tegra/optee-src/nv-optee/optee/optee_os/ldelf/ta_elf.c:1572
    2d84:	d0000020 	adrp	x0, 8000 <_DYNAMIC>
    2d88:	f9410402 	ldr	x2, [x0, #520]
    2d8c:	d0000020 	adrp	x0, 8000 <_DYNAMIC>
    2d90:	f9410001 	ldr	x1, [x0, #512]
    2d94:	aa0303e0 	mov	x0, x3
    2d98:	94000731 	bl	4a5c <print_stack_arm32>
/home/ssysarch/Desktop/nick/jetpack_5/Jetson_Linux_R35.4.1_aarch64/Linux_for_Tegra/sources/tegra/optee-src/nv-optee/optee/optee_os/ldelf/ta_elf.c:1573
    2d9c:	a8c77bfd 	ldp	x29, x30, [sp], #112
    2da0:	d65f03c0 	ret

0000000000002da4 <ta_elf_stack_trace_a64>:
ta_elf_stack_trace_a64():
/home/ssysarch/Desktop/nick/jetpack_5/Jetson_Linux_R35.4.1_aarch64/Linux_for_Tegra/sources/tegra/optee-src/nv-optee/optee/optee_os/ldelf/ta_elf.c:1576
    2da4:	a9bd7bfd 	stp	x29, x30, [sp, #-48]!
    2da8:	910003fd 	mov	x29, sp
/home/ssysarch/Desktop/nick/jetpack_5/Jetson_Linux_R35.4.1_aarch64/Linux_for_Tegra/sources/tegra/optee-src/nv-optee/optee/optee_os/ldelf/ta_elf.c:1577
    2dac:	a90187e0 	stp	x0, x1, [sp, #24]
    2db0:	f90017e2 	str	x2, [sp, #40]
/home/ssysarch/Desktop/nick/jetpack_5/Jetson_Linux_R35.4.1_aarch64/Linux_for_Tegra/sources/tegra/optee-src/nv-optee/optee/optee_os/ldelf/ta_elf.c:1579
    2db4:	d0000020 	adrp	x0, 8000 <_DYNAMIC>
    2db8:	f9410402 	ldr	x2, [x0, #520]
    2dbc:	d0000020 	adrp	x0, 8000 <_DYNAMIC>
    2dc0:	f9410001 	ldr	x1, [x0, #512]
    2dc4:	910063e0 	add	x0, sp, #0x18
    2dc8:	9400076f 	bl	4b84 <print_stack_arm64>
/home/ssysarch/Desktop/nick/jetpack_5/Jetson_Linux_R35.4.1_aarch64/Linux_for_Tegra/sources/tegra/optee-src/nv-optee/optee/optee_os/ldelf/ta_elf.c:1580
    2dcc:	a8c37bfd 	ldp	x29, x30, [sp], #48
    2dd0:	d65f03c0 	ret

0000000000002dd4 <ta_elf_set_init_fini_info_compat>:
ta_elf_set_init_fini_info_compat():
/home/ssysarch/Desktop/nick/jetpack_5/Jetson_Linux_R35.4.1_aarch64/Linux_for_Tegra/sources/tegra/optee-src/nv-optee/optee/optee_os/ldelf/ta_elf.c:1828
    2dd4:	a9b77bfd 	stp	x29, x30, [sp, #-144]!
/home/ssysarch/Desktop/nick/jetpack_5/Jetson_Linux_R35.4.1_aarch64/Linux_for_Tegra/sources/tegra/optee-src/nv-optee/optee/optee_os/ldelf/ta_elf.c:1835
    2dd8:	d2800003 	mov	x3, #0x0                   	// #0
    2ddc:	d2800002 	mov	x2, #0x0                   	// #0
/home/ssysarch/Desktop/nick/jetpack_5/Jetson_Linux_R35.4.1_aarch64/Linux_for_Tegra/sources/tegra/optee-src/nv-optee/optee/optee_os/ldelf/ta_elf.c:1828
    2de0:	910003fd 	mov	x29, sp
/home/ssysarch/Desktop/nick/jetpack_5/Jetson_Linux_R35.4.1_aarch64/Linux_for_Tegra/sources/tegra/optee-src/nv-optee/optee/optee_os/ldelf/ta_elf.c:1835
    2de4:	9101a3e1 	add	x1, sp, #0x68
/home/ssysarch/Desktop/nick/jetpack_5/Jetson_Linux_R35.4.1_aarch64/Linux_for_Tegra/sources/tegra/optee-src/nv-optee/optee/optee_os/ldelf/ta_elf.c:1828
    2de8:	a90153f3 	stp	x19, x20, [sp, #16]
    2dec:	a9025bf5 	stp	x21, x22, [sp, #32]
    2df0:	12001c16 	and	w22, w0, #0xff
/home/ssysarch/Desktop/nick/jetpack_5/Jetson_Linux_R35.4.1_aarch64/Linux_for_Tegra/sources/tegra/optee-src/nv-optee/optee/optee_os/ldelf/ta_elf.c:1835
    2df4:	b0000020 	adrp	x0, 7000 <trace_ext_prefix+0x509>
    2df8:	9107bc00 	add	x0, x0, #0x1ef
/home/ssysarch/Desktop/nick/jetpack_5/Jetson_Linux_R35.4.1_aarch64/Linux_for_Tegra/sources/tegra/optee-src/nv-optee/optee/optee_os/ldelf/ta_elf.c:1828
    2dfc:	a90363f7 	stp	x23, x24, [sp, #48]
    2e00:	a9046bf9 	stp	x25, x26, [sp, #64]
    2e04:	a90573fb 	stp	x27, x28, [sp, #80]
/home/ssysarch/Desktop/nick/jetpack_5/Jetson_Linux_R35.4.1_aarch64/Linux_for_Tegra/sources/tegra/optee-src/nv-optee/optee/optee_os/ldelf/ta_elf.c:1832
    2e08:	f90037ff 	str	xzr, [sp, #104]
/home/ssysarch/Desktop/nick/jetpack_5/Jetson_Linux_R35.4.1_aarch64/Linux_for_Tegra/sources/tegra/optee-src/nv-optee/optee/optee_os/ldelf/ta_elf.c:1835
    2e0c:	940002ef 	bl	39c8 <ta_elf_resolve_sym>
/home/ssysarch/Desktop/nick/jetpack_5/Jetson_Linux_R35.4.1_aarch64/Linux_for_Tegra/sources/tegra/optee-src/nv-optee/optee/optee_os/ldelf/ta_elf.c:1836
    2e10:	34000180 	cbz	w0, 2e40 <ta_elf_set_init_fini_info_compat+0x6c>
/home/ssysarch/Desktop/nick/jetpack_5/Jetson_Linux_R35.4.1_aarch64/Linux_for_Tegra/sources/tegra/optee-src/nv-optee/optee/optee_os/ldelf/ta_elf.c:1837
    2e14:	129ffee1 	mov	w1, #0xffff0008            	// #-65528
    2e18:	6b01001f 	cmp	w0, w1
    2e1c:	54000041 	b.ne	2e24 <ta_elf_set_init_fini_info_compat+0x50>  // b.any
/home/ssysarch/Desktop/nick/jetpack_5/Jetson_Linux_R35.4.1_aarch64/Linux_for_Tegra/sources/tegra/optee-src/nv-optee/optee/optee_os/ldelf/ta_elf.c:1842
    2e20:	52800000 	mov	w0, #0x0                   	// #0
/home/ssysarch/Desktop/nick/jetpack_5/Jetson_Linux_R35.4.1_aarch64/Linux_for_Tegra/sources/tegra/optee-src/nv-optee/optee/optee_os/ldelf/ta_elf.c:1872
    2e24:	a94153f3 	ldp	x19, x20, [sp, #16]
    2e28:	a9425bf5 	ldp	x21, x22, [sp, #32]
    2e2c:	a94363f7 	ldp	x23, x24, [sp, #48]
    2e30:	a9446bf9 	ldp	x25, x26, [sp, #64]
    2e34:	a94573fb 	ldp	x27, x28, [sp, #80]
    2e38:	a8c97bfd 	ldp	x29, x30, [sp], #144
    2e3c:	d65f03c0 	ret
/home/ssysarch/Desktop/nick/jetpack_5/Jetson_Linux_R35.4.1_aarch64/Linux_for_Tegra/sources/tegra/optee-src/nv-optee/optee/optee_os/ldelf/ta_elf.c:1846
    2e40:	f94037f3 	ldr	x19, [sp, #104]
    2e44:	b50000f3 	cbnz	x19, 2e60 <ta_elf_set_init_fini_info_compat+0x8c>
/home/ssysarch/Desktop/nick/jetpack_5/Jetson_Linux_R35.4.1_aarch64/Linux_for_Tegra/sources/tegra/optee-src/nv-optee/optee/optee_os/ldelf/ta_elf.c:1846 (discriminator 1)
    2e48:	b0000022 	adrp	x2, 7000 <trace_ext_prefix+0x509>
    2e4c:	91132442 	add	x2, x2, #0x4c9
    2e50:	b0000020 	adrp	x0, 7000 <trace_ext_prefix+0x509>
    2e54:	91080000 	add	x0, x0, #0x200
    2e58:	5280e6c1 	mov	w1, #0x736                 	// #1846
/home/ssysarch/Desktop/nick/jetpack_5/Jetson_Linux_R35.4.1_aarch64/Linux_for_Tegra/sources/tegra/optee-src/nv-optee/optee/optee_os/ldelf/ta_elf.c:1856 (discriminator 1)
    2e5c:	97fff7eb 	bl	e08 <_assert_trap.constprop.0>
/home/ssysarch/Desktop/nick/jetpack_5/Jetson_Linux_R35.4.1_aarch64/Linux_for_Tegra/sources/tegra/optee-src/nv-optee/optee/optee_os/ldelf/ta_elf.c:1849
    2e60:	b9400260 	ldr	w0, [x19]
    2e64:	35001060 	cbnz	w0, 3070 <ta_elf_set_init_fini_info_compat+0x29c>
/home/ssysarch/Desktop/nick/jetpack_5/Jetson_Linux_R35.4.1_aarch64/Linux_for_Tegra/sources/tegra/optee-src/nv-optee/optee/optee_os/ldelf/ta_elf.c:1852
    2e68:	d0000037 	adrp	x23, 8000 <_DYNAMIC>
    2e6c:	f940b2e0 	ldr	x0, [x23, #352]
/home/ssysarch/Desktop/nick/jetpack_5/Jetson_Linux_R35.4.1_aarch64/Linux_for_Tegra/sources/tegra/optee-src/nv-optee/optee/optee_os/ldelf/ta_elf.c:1833
    2e70:	d2800014 	mov	x20, #0x0                   	// #0
/home/ssysarch/Desktop/nick/jetpack_5/Jetson_Linux_R35.4.1_aarch64/Linux_for_Tegra/sources/tegra/optee-src/nv-optee/optee/optee_os/ldelf/ta_elf.c:1852 (discriminator 1)
    2e74:	b5000100 	cbnz	x0, 2e94 <ta_elf_set_init_fini_info_compat+0xc0>
/home/ssysarch/Desktop/nick/jetpack_5/Jetson_Linux_R35.4.1_aarch64/Linux_for_Tegra/sources/tegra/optee-src/nv-optee/optee/optee_os/ldelf/ta_elf.c:1856
    2e78:	b5000154 	cbnz	x20, 2ea0 <ta_elf_set_init_fini_info_compat+0xcc>
/home/ssysarch/Desktop/nick/jetpack_5/Jetson_Linux_R35.4.1_aarch64/Linux_for_Tegra/sources/tegra/optee-src/nv-optee/optee/optee_os/ldelf/ta_elf.c:1856 (discriminator 1)
    2e7c:	b0000022 	adrp	x2, 7000 <trace_ext_prefix+0x509>
    2e80:	91132442 	add	x2, x2, #0x4c9
    2e84:	b0000020 	adrp	x0, 7000 <trace_ext_prefix+0x509>
    2e88:	91082000 	add	x0, x0, #0x208
    2e8c:	5280e801 	mov	w1, #0x740                 	// #1856
    2e90:	17fffff3 	b	2e5c <ta_elf_set_init_fini_info_compat+0x88>
/home/ssysarch/Desktop/nick/jetpack_5/Jetson_Linux_R35.4.1_aarch64/Linux_for_Tegra/sources/tegra/optee-src/nv-optee/optee/optee_os/ldelf/ta_elf.c:1853 (discriminator 3)
    2e94:	91000694 	add	x20, x20, #0x1
/home/ssysarch/Desktop/nick/jetpack_5/Jetson_Linux_R35.4.1_aarch64/Linux_for_Tegra/sources/tegra/optee-src/nv-optee/optee/optee_os/ldelf/ta_elf.c:1852 (discriminator 3)
    2e98:	f9409000 	ldr	x0, [x0, #288]
    2e9c:	17fffff6 	b	2e74 <ta_elf_set_init_fini_info_compat+0xa0>
realloc_ifs():
/home/ssysarch/Desktop/nick/jetpack_5/Jetson_Linux_R35.4.1_aarch64/Linux_for_Tegra/sources/tegra/optee-src/nv-optee/optee/optee_os/ldelf/ta_elf.c:1747
    2ea0:	340004d6 	cbz	w22, 2f38 <ta_elf_set_init_fini_info_compat+0x164>
/home/ssysarch/Desktop/nick/jetpack_5/Jetson_Linux_R35.4.1_aarch64/Linux_for_Tegra/sources/tegra/optee-src/nv-optee/optee/optee_os/ldelf/ta_elf.c:1749
    2ea4:	b9400a60 	ldr	w0, [x19, #8]
    2ea8:	d37cee81 	lsl	x1, x20, #4
    2eac:	94000a31 	bl	5770 <realloc>
    2eb0:	aa0003f5 	mov	x21, x0
/home/ssysarch/Desktop/nick/jetpack_5/Jetson_Linux_R35.4.1_aarch64/Linux_for_Tegra/sources/tegra/optee-src/nv-optee/optee/optee_os/ldelf/ta_elf.c:1750
    2eb4:	b4000660 	cbz	x0, 2f80 <ta_elf_set_init_fini_info_compat+0x1ac>
/home/ssysarch/Desktop/nick/jetpack_5/Jetson_Linux_R35.4.1_aarch64/Linux_for_Tegra/sources/tegra/optee-src/nv-optee/optee/optee_os/ldelf/ta_elf.c:1753
    2eb8:	79400a62 	ldrh	w2, [x19, #4]
    2ebc:	79400a60 	ldrh	w0, [x19, #4]
/home/ssysarch/Desktop/nick/jetpack_5/Jetson_Linux_R35.4.1_aarch64/Linux_for_Tegra/sources/tegra/optee-src/nv-optee/optee/optee_os/ldelf/ta_elf.c:1754
    2ec0:	eb02029f 	cmp	x20, x2
    2ec4:	540000e9 	b.ls	2ee0 <ta_elf_set_init_fini_info_compat+0x10c>  // b.plast
/home/ssysarch/Desktop/nick/jetpack_5/Jetson_Linux_R35.4.1_aarch64/Linux_for_Tegra/sources/tegra/optee-src/nv-optee/optee/optee_os/ldelf/ta_elf.c:1756
    2ec8:	cb020282 	sub	x2, x20, x2
/home/ssysarch/Desktop/nick/jetpack_5/Jetson_Linux_R35.4.1_aarch64/Linux_for_Tegra/sources/tegra/optee-src/nv-optee/optee/optee_os/ldelf/ta_elf.c:1755
    2ecc:	d37c3c00 	ubfiz	x0, x0, #4, #16
    2ed0:	8b0002a0 	add	x0, x21, x0
    2ed4:	52800001 	mov	w1, #0x0                   	// #0
    2ed8:	d37cec42 	lsl	x2, x2, #4
    2edc:	94000aaa 	bl	5984 <memset>
/home/ssysarch/Desktop/nick/jetpack_5/Jetson_Linux_R35.4.1_aarch64/Linux_for_Tegra/sources/tegra/optee-src/nv-optee/optee/optee_os/ldelf/ta_elf.c:1757
    2ee0:	b9000a75 	str	w21, [x19, #8]
/home/ssysarch/Desktop/nick/jetpack_5/Jetson_Linux_R35.4.1_aarch64/Linux_for_Tegra/sources/tegra/optee-src/nv-optee/optee/optee_os/ldelf/ta_elf.c:1769
    2ee4:	79000a74 	strh	w20, [x19, #4]
fill_ifs():
/home/ssysarch/Desktop/nick/jetpack_5/Jetson_Linux_R35.4.1_aarch64/Linux_for_Tegra/sources/tegra/optee-src/nv-optee/optee/optee_os/ldelf/ta_elf.c:1810
    2ee8:	9101e3fa 	add	x26, sp, #0x78
ta_elf_set_init_fini_info_compat():
/home/ssysarch/Desktop/nick/jetpack_5/Jetson_Linux_R35.4.1_aarch64/Linux_for_Tegra/sources/tegra/optee-src/nv-optee/optee/optee_os/ldelf/ta_elf.c:1863
    2eec:	f940b2f4 	ldr	x20, [x23, #352]
fill_ifs():
/home/ssysarch/Desktop/nick/jetpack_5/Jetson_Linux_R35.4.1_aarch64/Linux_for_Tegra/sources/tegra/optee-src/nv-optee/optee/optee_os/ldelf/ta_elf.c:1810
    2ef0:	910223fb 	add	x27, sp, #0x88
    2ef4:	9101c3fc 	add	x28, sp, #0x70
    2ef8:	910203f9 	add	x25, sp, #0x80
ta_elf_set_init_fini_info_compat():
/home/ssysarch/Desktop/nick/jetpack_5/Jetson_Linux_R35.4.1_aarch64/Linux_for_Tegra/sources/tegra/optee-src/nv-optee/optee/optee_os/ldelf/ta_elf.c:1862
    2efc:	d2800013 	mov	x19, #0x0                   	// #0
/home/ssysarch/Desktop/nick/jetpack_5/Jetson_Linux_R35.4.1_aarch64/Linux_for_Tegra/sources/tegra/optee-src/nv-optee/optee/optee_os/ldelf/ta_elf.c:1863 (discriminator 1)
    2f00:	b4fff914 	cbz	x20, 2e20 <ta_elf_set_init_fini_info_compat+0x4c>
fill_ifs():
/home/ssysarch/Desktop/nick/jetpack_5/Jetson_Linux_R35.4.1_aarch64/Linux_for_Tegra/sources/tegra/optee-src/nv-optee/optee/optee_os/ldelf/ta_elf.c:1777 (discriminator 3)
    2f04:	f94037e0 	ldr	x0, [sp, #104]
/home/ssysarch/Desktop/nick/jetpack_5/Jetson_Linux_R35.4.1_aarch64/Linux_for_Tegra/sources/tegra/optee-src/nv-optee/optee/optee_os/ldelf/ta_elf.c:1781 (discriminator 3)
    2f08:	79400802 	ldrh	w2, [x0, #4]
/home/ssysarch/Desktop/nick/jetpack_5/Jetson_Linux_R35.4.1_aarch64/Linux_for_Tegra/sources/tegra/optee-src/nv-optee/optee/optee_os/ldelf/ta_elf.c:1782 (discriminator 3)
    2f0c:	a9077fff 	stp	xzr, xzr, [sp, #112]
/home/ssysarch/Desktop/nick/jetpack_5/Jetson_Linux_R35.4.1_aarch64/Linux_for_Tegra/sources/tegra/optee-src/nv-optee/optee/optee_os/ldelf/ta_elf.c:1787 (discriminator 3)
    2f10:	eb02027f 	cmp	x19, x2
/home/ssysarch/Desktop/nick/jetpack_5/Jetson_Linux_R35.4.1_aarch64/Linux_for_Tegra/sources/tegra/optee-src/nv-optee/optee/optee_os/ldelf/ta_elf.c:1784 (discriminator 3)
    2f14:	a9087fff 	stp	xzr, xzr, [sp, #128]
/home/ssysarch/Desktop/nick/jetpack_5/Jetson_Linux_R35.4.1_aarch64/Linux_for_Tegra/sources/tegra/optee-src/nv-optee/optee/optee_os/ldelf/ta_elf.c:1786 (discriminator 3)
    2f18:	340006f6 	cbz	w22, 2ff4 <ta_elf_set_init_fini_info_compat+0x220>
/home/ssysarch/Desktop/nick/jetpack_5/Jetson_Linux_R35.4.1_aarch64/Linux_for_Tegra/sources/tegra/optee-src/nv-optee/optee/optee_os/ldelf/ta_elf.c:1787
    2f1c:	540003a3 	b.cc	2f90 <ta_elf_set_init_fini_info_compat+0x1bc>  // b.lo, b.ul, b.last
    2f20:	b0000022 	adrp	x2, 7000 <trace_ext_prefix+0x509>
    2f24:	91130042 	add	x2, x2, #0x4c0
    2f28:	b0000020 	adrp	x0, 7000 <trace_ext_prefix+0x509>
    2f2c:	91083000 	add	x0, x0, #0x20c
    2f30:	5280df61 	mov	w1, #0x6fb                 	// #1787
    2f34:	17ffffca 	b	2e5c <ta_elf_set_init_fini_info_compat+0x88>
realloc_ifs():
/home/ssysarch/Desktop/nick/jetpack_5/Jetson_Linux_R35.4.1_aarch64/Linux_for_Tegra/sources/tegra/optee-src/nv-optee/optee/optee_os/ldelf/ta_elf.c:1760
    2f38:	d2800318 	mov	x24, #0x18                  	// #24
    2f3c:	f9400660 	ldr	x0, [x19, #8]
    2f40:	9b187e81 	mul	x1, x20, x24
    2f44:	94000a0b 	bl	5770 <realloc>
    2f48:	aa0003f5 	mov	x21, x0
/home/ssysarch/Desktop/nick/jetpack_5/Jetson_Linux_R35.4.1_aarch64/Linux_for_Tegra/sources/tegra/optee-src/nv-optee/optee/optee_os/ldelf/ta_elf.c:1761
    2f4c:	b40001a0 	cbz	x0, 2f80 <ta_elf_set_init_fini_info_compat+0x1ac>
/home/ssysarch/Desktop/nick/jetpack_5/Jetson_Linux_R35.4.1_aarch64/Linux_for_Tegra/sources/tegra/optee-src/nv-optee/optee/optee_os/ldelf/ta_elf.c:1764
    2f50:	79400a61 	ldrh	w1, [x19, #4]
    2f54:	79400a60 	ldrh	w0, [x19, #4]
/home/ssysarch/Desktop/nick/jetpack_5/Jetson_Linux_R35.4.1_aarch64/Linux_for_Tegra/sources/tegra/optee-src/nv-optee/optee/optee_os/ldelf/ta_elf.c:1765
    2f58:	eb01029f 	cmp	x20, x1
    2f5c:	540000e9 	b.ls	2f78 <ta_elf_set_init_fini_info_compat+0x1a4>  // b.plast
/home/ssysarch/Desktop/nick/jetpack_5/Jetson_Linux_R35.4.1_aarch64/Linux_for_Tegra/sources/tegra/optee-src/nv-optee/optee/optee_os/ldelf/ta_elf.c:1767
    2f60:	cb010281 	sub	x1, x20, x1
/home/ssysarch/Desktop/nick/jetpack_5/Jetson_Linux_R35.4.1_aarch64/Linux_for_Tegra/sources/tegra/optee-src/nv-optee/optee/optee_os/ldelf/ta_elf.c:1766
    2f64:	9bb87c00 	umull	x0, w0, w24
    2f68:	8b0002a0 	add	x0, x21, x0
    2f6c:	9b187c22 	mul	x2, x1, x24
    2f70:	52800001 	mov	w1, #0x0                   	// #0
    2f74:	94000a84 	bl	5984 <memset>
/home/ssysarch/Desktop/nick/jetpack_5/Jetson_Linux_R35.4.1_aarch64/Linux_for_Tegra/sources/tegra/optee-src/nv-optee/optee/optee_os/ldelf/ta_elf.c:1768
    2f78:	f9000675 	str	x21, [x19, #8]
    2f7c:	17ffffda 	b	2ee4 <ta_elf_set_init_fini_info_compat+0x110>
ta_elf_set_init_fini_info_compat():
/home/ssysarch/Desktop/nick/jetpack_5/Jetson_Linux_R35.4.1_aarch64/Linux_for_Tegra/sources/tegra/optee-src/nv-optee/optee/optee_os/ldelf/ta_elf.c:1870
    2f80:	aa1303e0 	mov	x0, x19
    2f84:	94000a01 	bl	5788 <free>
/home/ssysarch/Desktop/nick/jetpack_5/Jetson_Linux_R35.4.1_aarch64/Linux_for_Tegra/sources/tegra/optee-src/nv-optee/optee/optee_os/ldelf/ta_elf.c:1871
    2f88:	129ffe60 	mov	w0, #0xffff000c            	// #-65524
    2f8c:	17ffffa6 	b	2e24 <ta_elf_set_init_fini_info_compat+0x50>
fill_ifs():
/home/ssysarch/Desktop/nick/jetpack_5/Jetson_Linux_R35.4.1_aarch64/Linux_for_Tegra/sources/tegra/optee-src/nv-optee/optee/optee_os/ldelf/ta_elf.c:1788
    2f90:	b9400815 	ldr	w21, [x0, #8]
    2f94:	d37cee78 	lsl	x24, x19, #4
    2f98:	8b1312b7 	add	x23, x21, x19, lsl #4
/home/ssysarch/Desktop/nick/jetpack_5/Jetson_Linux_R35.4.1_aarch64/Linux_for_Tegra/sources/tegra/optee-src/nv-optee/optee/optee_os/ldelf/ta_elf.c:1790
    2f9c:	b8786aa0 	ldr	w0, [x21, x24]
    2fa0:	37000240 	tbnz	w0, #0, 2fe8 <ta_elf_set_init_fini_info_compat+0x214>
/home/ssysarch/Desktop/nick/jetpack_5/Jetson_Linux_R35.4.1_aarch64/Linux_for_Tegra/sources/tegra/optee-src/nv-optee/optee/optee_os/ldelf/ta_elf.c:1793
    2fa4:	aa1403e0 	mov	x0, x20
    2fa8:	aa1a03e4 	mov	x4, x26
    2fac:	aa1b03e3 	mov	x3, x27
    2fb0:	aa1c03e2 	mov	x2, x28
    2fb4:	aa1903e1 	mov	x1, x25
    2fb8:	97fff7e6 	bl	f50 <elf_get_init_fini_array>
/home/ssysarch/Desktop/nick/jetpack_5/Jetson_Linux_R35.4.1_aarch64/Linux_for_Tegra/sources/tegra/optee-src/nv-optee/optee/optee_os/ldelf/ta_elf.c:1796
    2fbc:	f94043e0 	ldr	x0, [sp, #128]
    2fc0:	b9000ae0 	str	w0, [x23, #8]
/home/ssysarch/Desktop/nick/jetpack_5/Jetson_Linux_R35.4.1_aarch64/Linux_for_Tegra/sources/tegra/optee-src/nv-optee/optee/optee_os/ldelf/ta_elf.c:1797
    2fc4:	f9403be0 	ldr	x0, [sp, #112]
    2fc8:	79000ae0 	strh	w0, [x23, #4]
/home/ssysarch/Desktop/nick/jetpack_5/Jetson_Linux_R35.4.1_aarch64/Linux_for_Tegra/sources/tegra/optee-src/nv-optee/optee/optee_os/ldelf/ta_elf.c:1799
    2fcc:	f94047e0 	ldr	x0, [sp, #136]
    2fd0:	b9000ee0 	str	w0, [x23, #12]
/home/ssysarch/Desktop/nick/jetpack_5/Jetson_Linux_R35.4.1_aarch64/Linux_for_Tegra/sources/tegra/optee-src/nv-optee/optee/optee_os/ldelf/ta_elf.c:1800
    2fd4:	f9403fe0 	ldr	x0, [sp, #120]
    2fd8:	79000ee0 	strh	w0, [x23, #6]
/home/ssysarch/Desktop/nick/jetpack_5/Jetson_Linux_R35.4.1_aarch64/Linux_for_Tegra/sources/tegra/optee-src/nv-optee/optee/optee_os/ldelf/ta_elf.c:1802
    2fdc:	b8786aa0 	ldr	w0, [x21, x24]
    2fe0:	32000000 	orr	w0, w0, #0x1
    2fe4:	b8386aa0 	str	w0, [x21, x24]
ta_elf_set_init_fini_info_compat():
/home/ssysarch/Desktop/nick/jetpack_5/Jetson_Linux_R35.4.1_aarch64/Linux_for_Tegra/sources/tegra/optee-src/nv-optee/optee/optee_os/ldelf/ta_elf.c:1865
    2fe8:	91000673 	add	x19, x19, #0x1
/home/ssysarch/Desktop/nick/jetpack_5/Jetson_Linux_R35.4.1_aarch64/Linux_for_Tegra/sources/tegra/optee-src/nv-optee/optee/optee_os/ldelf/ta_elf.c:1863
    2fec:	f9409294 	ldr	x20, [x20, #288]
    2ff0:	17ffffc4 	b	2f00 <ta_elf_set_init_fini_info_compat+0x12c>
fill_ifs():
/home/ssysarch/Desktop/nick/jetpack_5/Jetson_Linux_R35.4.1_aarch64/Linux_for_Tegra/sources/tegra/optee-src/nv-optee/optee/optee_os/ldelf/ta_elf.c:1804
    2ff4:	540000e3 	b.cc	3010 <ta_elf_set_init_fini_info_compat+0x23c>  // b.lo, b.ul, b.last
    2ff8:	b0000022 	adrp	x2, 7000 <trace_ext_prefix+0x509>
    2ffc:	91130042 	add	x2, x2, #0x4c0
    3000:	90000020 	adrp	x0, 7000 <trace_ext_prefix+0x509>
    3004:	91087c00 	add	x0, x0, #0x21f
    3008:	5280e181 	mov	w1, #0x70c                 	// #1804
    300c:	17ffff94 	b	2e5c <ta_elf_set_init_fini_info_compat+0x88>
/home/ssysarch/Desktop/nick/jetpack_5/Jetson_Linux_R35.4.1_aarch64/Linux_for_Tegra/sources/tegra/optee-src/nv-optee/optee/optee_os/ldelf/ta_elf.c:1805
    3010:	d2800301 	mov	x1, #0x18                  	// #24
    3014:	f9400417 	ldr	x23, [x0, #8]
    3018:	9b017e75 	mul	x21, x19, x1
    301c:	8b1502f8 	add	x24, x23, x21
/home/ssysarch/Desktop/nick/jetpack_5/Jetson_Linux_R35.4.1_aarch64/Linux_for_Tegra/sources/tegra/optee-src/nv-optee/optee/optee_os/ldelf/ta_elf.c:1807
    3020:	b8756ae0 	ldr	w0, [x23, x21]
    3024:	3707fe20 	tbnz	w0, #0, 2fe8 <ta_elf_set_init_fini_info_compat+0x214>
/home/ssysarch/Desktop/nick/jetpack_5/Jetson_Linux_R35.4.1_aarch64/Linux_for_Tegra/sources/tegra/optee-src/nv-optee/optee/optee_os/ldelf/ta_elf.c:1810
    3028:	aa1403e0 	mov	x0, x20
    302c:	aa1a03e4 	mov	x4, x26
    3030:	aa1b03e3 	mov	x3, x27
    3034:	aa1c03e2 	mov	x2, x28
    3038:	aa1903e1 	mov	x1, x25
    303c:	97fff7c5 	bl	f50 <elf_get_init_fini_array>
/home/ssysarch/Desktop/nick/jetpack_5/Jetson_Linux_R35.4.1_aarch64/Linux_for_Tegra/sources/tegra/optee-src/nv-optee/optee/optee_os/ldelf/ta_elf.c:1813
    3040:	f94043e0 	ldr	x0, [sp, #128]
    3044:	f9000700 	str	x0, [x24, #8]
/home/ssysarch/Desktop/nick/jetpack_5/Jetson_Linux_R35.4.1_aarch64/Linux_for_Tegra/sources/tegra/optee-src/nv-optee/optee/optee_os/ldelf/ta_elf.c:1814
    3048:	f9403be0 	ldr	x0, [sp, #112]
    304c:	79000b00 	strh	w0, [x24, #4]
/home/ssysarch/Desktop/nick/jetpack_5/Jetson_Linux_R35.4.1_aarch64/Linux_for_Tegra/sources/tegra/optee-src/nv-optee/optee/optee_os/ldelf/ta_elf.c:1816
    3050:	f94047e0 	ldr	x0, [sp, #136]
    3054:	f9000b00 	str	x0, [x24, #16]
/home/ssysarch/Desktop/nick/jetpack_5/Jetson_Linux_R35.4.1_aarch64/Linux_for_Tegra/sources/tegra/optee-src/nv-optee/optee/optee_os/ldelf/ta_elf.c:1817
    3058:	f9403fe0 	ldr	x0, [sp, #120]
    305c:	79000f00 	strh	w0, [x24, #6]
/home/ssysarch/Desktop/nick/jetpack_5/Jetson_Linux_R35.4.1_aarch64/Linux_for_Tegra/sources/tegra/optee-src/nv-optee/optee/optee_os/ldelf/ta_elf.c:1819
    3060:	b8756ae0 	ldr	w0, [x23, x21]
    3064:	32000000 	orr	w0, w0, #0x1
    3068:	b8356ae0 	str	w0, [x23, x21]
    306c:	17ffffdf 	b	2fe8 <ta_elf_set_init_fini_info_compat+0x214>
ta_elf_set_init_fini_info_compat():
/home/ssysarch/Desktop/nick/jetpack_5/Jetson_Linux_R35.4.1_aarch64/Linux_for_Tegra/sources/tegra/optee-src/nv-optee/optee/optee_os/ldelf/ta_elf.c:1850
    3070:	129ffea0 	mov	w0, #0xffff000a            	// #-65526
    3074:	17ffff6c 	b	2e24 <ta_elf_set_init_fini_info_compat+0x50>

0000000000003078 <ta_elf_set_elf_phdr_info>:
ta_elf_set_elf_phdr_info():
/home/ssysarch/Desktop/nick/jetpack_5/Jetson_Linux_R35.4.1_aarch64/Linux_for_Tegra/sources/tegra/optee-src/nv-optee/optee/optee_os/ldelf/ta_elf.c:1954
    3078:	a9bb7bfd 	stp	x29, x30, [sp, #-80]!
/home/ssysarch/Desktop/nick/jetpack_5/Jetson_Linux_R35.4.1_aarch64/Linux_for_Tegra/sources/tegra/optee-src/nv-optee/optee/optee_os/ldelf/ta_elf.c:1961
    307c:	d2800003 	mov	x3, #0x0                   	// #0
    3080:	d2800002 	mov	x2, #0x0                   	// #0
/home/ssysarch/Desktop/nick/jetpack_5/Jetson_Linux_R35.4.1_aarch64/Linux_for_Tegra/sources/tegra/optee-src/nv-optee/optee/optee_os/ldelf/ta_elf.c:1954
    3084:	910003fd 	mov	x29, sp
/home/ssysarch/Desktop/nick/jetpack_5/Jetson_Linux_R35.4.1_aarch64/Linux_for_Tegra/sources/tegra/optee-src/nv-optee/optee/optee_os/ldelf/ta_elf.c:1961
    3088:	910123e1 	add	x1, sp, #0x48
/home/ssysarch/Desktop/nick/jetpack_5/Jetson_Linux_R35.4.1_aarch64/Linux_for_Tegra/sources/tegra/optee-src/nv-optee/optee/optee_os/ldelf/ta_elf.c:1954
    308c:	a90153f3 	stp	x19, x20, [sp, #16]
    3090:	a9025bf5 	stp	x21, x22, [sp, #32]
    3094:	12001c16 	and	w22, w0, #0xff
/home/ssysarch/Desktop/nick/jetpack_5/Jetson_Linux_R35.4.1_aarch64/Linux_for_Tegra/sources/tegra/optee-src/nv-optee/optee/optee_os/ldelf/ta_elf.c:1961
    3098:	90000020 	adrp	x0, 7000 <trace_ext_prefix+0x509>
    309c:	9108c000 	add	x0, x0, #0x230
/home/ssysarch/Desktop/nick/jetpack_5/Jetson_Linux_R35.4.1_aarch64/Linux_for_Tegra/sources/tegra/optee-src/nv-optee/optee/optee_os/ldelf/ta_elf.c:1954
    30a0:	a90363f7 	stp	x23, x24, [sp, #48]
/home/ssysarch/Desktop/nick/jetpack_5/Jetson_Linux_R35.4.1_aarch64/Linux_for_Tegra/sources/tegra/optee-src/nv-optee/optee/optee_os/ldelf/ta_elf.c:1958
    30a4:	f90027ff 	str	xzr, [sp, #72]
/home/ssysarch/Desktop/nick/jetpack_5/Jetson_Linux_R35.4.1_aarch64/Linux_for_Tegra/sources/tegra/optee-src/nv-optee/optee/optee_os/ldelf/ta_elf.c:1961
    30a8:	94000248 	bl	39c8 <ta_elf_resolve_sym>
/home/ssysarch/Desktop/nick/jetpack_5/Jetson_Linux_R35.4.1_aarch64/Linux_for_Tegra/sources/tegra/optee-src/nv-optee/optee/optee_os/ldelf/ta_elf.c:1962
    30ac:	34000140 	cbz	w0, 30d4 <ta_elf_set_elf_phdr_info+0x5c>
/home/ssysarch/Desktop/nick/jetpack_5/Jetson_Linux_R35.4.1_aarch64/Linux_for_Tegra/sources/tegra/optee-src/nv-optee/optee/optee_os/ldelf/ta_elf.c:1963
    30b0:	129ffee1 	mov	w1, #0xffff0008            	// #-65528
    30b4:	6b01001f 	cmp	w0, w1
    30b8:	54000041 	b.ne	30c0 <ta_elf_set_elf_phdr_info+0x48>  // b.any
/home/ssysarch/Desktop/nick/jetpack_5/Jetson_Linux_R35.4.1_aarch64/Linux_for_Tegra/sources/tegra/optee-src/nv-optee/optee/optee_os/ldelf/ta_elf.c:1965
    30bc:	52800000 	mov	w0, #0x0                   	// #0
/home/ssysarch/Desktop/nick/jetpack_5/Jetson_Linux_R35.4.1_aarch64/Linux_for_Tegra/sources/tegra/optee-src/nv-optee/optee/optee_os/ldelf/ta_elf.c:1989
    30c0:	a94153f3 	ldp	x19, x20, [sp, #16]
    30c4:	a9425bf5 	ldp	x21, x22, [sp, #32]
    30c8:	a94363f7 	ldp	x23, x24, [sp, #48]
    30cc:	a8c57bfd 	ldp	x29, x30, [sp], #80
    30d0:	d65f03c0 	ret
/home/ssysarch/Desktop/nick/jetpack_5/Jetson_Linux_R35.4.1_aarch64/Linux_for_Tegra/sources/tegra/optee-src/nv-optee/optee/optee_os/ldelf/ta_elf.c:1969
    30d4:	f94027f3 	ldr	x19, [sp, #72]
    30d8:	b50000f3 	cbnz	x19, 30f4 <ta_elf_set_elf_phdr_info+0x7c>
/home/ssysarch/Desktop/nick/jetpack_5/Jetson_Linux_R35.4.1_aarch64/Linux_for_Tegra/sources/tegra/optee-src/nv-optee/optee/optee_os/ldelf/ta_elf.c:1969 (discriminator 1)
    30dc:	90000022 	adrp	x2, 7000 <trace_ext_prefix+0x509>
    30e0:	9113f442 	add	x2, x2, #0x4fd
    30e4:	90000020 	adrp	x0, 7000 <trace_ext_prefix+0x509>
    30e8:	91080000 	add	x0, x0, #0x200
    30ec:	5280f621 	mov	w1, #0x7b1                 	// #1969
fill_elf_phdr_info():
/home/ssysarch/Desktop/nick/jetpack_5/Jetson_Linux_R35.4.1_aarch64/Linux_for_Tegra/sources/tegra/optee-src/nv-optee/optee/optee_os/ldelf/ta_elf.c:1920
    30f0:	97fff746 	bl	e08 <_assert_trap.constprop.0>
ta_elf_set_elf_phdr_info():
/home/ssysarch/Desktop/nick/jetpack_5/Jetson_Linux_R35.4.1_aarch64/Linux_for_Tegra/sources/tegra/optee-src/nv-optee/optee/optee_os/ldelf/ta_elf.c:1972
    30f4:	b9400260 	ldr	w0, [x19]
    30f8:	35000dc0 	cbnz	w0, 32b0 <ta_elf_set_elf_phdr_info+0x238>
/home/ssysarch/Desktop/nick/jetpack_5/Jetson_Linux_R35.4.1_aarch64/Linux_for_Tegra/sources/tegra/optee-src/nv-optee/optee/optee_os/ldelf/ta_elf.c:1975
    30fc:	b0000037 	adrp	x23, 8000 <_DYNAMIC>
    3100:	f940b2e0 	ldr	x0, [x23, #352]
/home/ssysarch/Desktop/nick/jetpack_5/Jetson_Linux_R35.4.1_aarch64/Linux_for_Tegra/sources/tegra/optee-src/nv-optee/optee/optee_os/ldelf/ta_elf.c:1959
    3104:	d2800014 	mov	x20, #0x0                   	// #0
/home/ssysarch/Desktop/nick/jetpack_5/Jetson_Linux_R35.4.1_aarch64/Linux_for_Tegra/sources/tegra/optee-src/nv-optee/optee/optee_os/ldelf/ta_elf.c:1975 (discriminator 1)
    3108:	b5000140 	cbnz	x0, 3130 <ta_elf_set_elf_phdr_info+0xb8>
realloc_elf_phdr_info():
/home/ssysarch/Desktop/nick/jetpack_5/Jetson_Linux_R35.4.1_aarch64/Linux_for_Tegra/sources/tegra/optee-src/nv-optee/optee/optee_os/ldelf/ta_elf.c:1883
    310c:	34000536 	cbz	w22, 31b0 <ta_elf_set_elf_phdr_info+0x138>
/home/ssysarch/Desktop/nick/jetpack_5/Jetson_Linux_R35.4.1_aarch64/Linux_for_Tegra/sources/tegra/optee-src/nv-optee/optee/optee_os/ldelf/ta_elf.c:1885
    3110:	d2800518 	mov	x24, #0x28                  	// #40
    3114:	b9400a60 	ldr	w0, [x19, #8]
    3118:	9b187e81 	mul	x1, x20, x24
    311c:	94000995 	bl	5770 <realloc>
    3120:	aa0003f5 	mov	x21, x0
/home/ssysarch/Desktop/nick/jetpack_5/Jetson_Linux_R35.4.1_aarch64/Linux_for_Tegra/sources/tegra/optee-src/nv-optee/optee/optee_os/ldelf/ta_elf.c:1886
    3124:	b50000c0 	cbnz	x0, 313c <ta_elf_set_elf_phdr_info+0xc4>
/home/ssysarch/Desktop/nick/jetpack_5/Jetson_Linux_R35.4.1_aarch64/Linux_for_Tegra/sources/tegra/optee-src/nv-optee/optee/optee_os/ldelf/ta_elf.c:1887
    3128:	129ffe60 	mov	w0, #0xffff000c            	// #-65524
    312c:	17ffffe5 	b	30c0 <ta_elf_set_elf_phdr_info+0x48>
ta_elf_set_elf_phdr_info():
/home/ssysarch/Desktop/nick/jetpack_5/Jetson_Linux_R35.4.1_aarch64/Linux_for_Tegra/sources/tegra/optee-src/nv-optee/optee/optee_os/ldelf/ta_elf.c:1976 (discriminator 3)
    3130:	91000694 	add	x20, x20, #0x1
/home/ssysarch/Desktop/nick/jetpack_5/Jetson_Linux_R35.4.1_aarch64/Linux_for_Tegra/sources/tegra/optee-src/nv-optee/optee/optee_os/ldelf/ta_elf.c:1975 (discriminator 3)
    3134:	f9409000 	ldr	x0, [x0, #288]
    3138:	17fffff4 	b	3108 <ta_elf_set_elf_phdr_info+0x90>
realloc_elf_phdr_info():
/home/ssysarch/Desktop/nick/jetpack_5/Jetson_Linux_R35.4.1_aarch64/Linux_for_Tegra/sources/tegra/optee-src/nv-optee/optee/optee_os/ldelf/ta_elf.c:1889
    313c:	79400a61 	ldrh	w1, [x19, #4]
    3140:	79400a60 	ldrh	w0, [x19, #4]
/home/ssysarch/Desktop/nick/jetpack_5/Jetson_Linux_R35.4.1_aarch64/Linux_for_Tegra/sources/tegra/optee-src/nv-optee/optee/optee_os/ldelf/ta_elf.c:1890
    3144:	eb01029f 	cmp	x20, x1
    3148:	540000e9 	b.ls	3164 <ta_elf_set_elf_phdr_info+0xec>  // b.plast
/home/ssysarch/Desktop/nick/jetpack_5/Jetson_Linux_R35.4.1_aarch64/Linux_for_Tegra/sources/tegra/optee-src/nv-optee/optee/optee_os/ldelf/ta_elf.c:1892
    314c:	cb010281 	sub	x1, x20, x1
/home/ssysarch/Desktop/nick/jetpack_5/Jetson_Linux_R35.4.1_aarch64/Linux_for_Tegra/sources/tegra/optee-src/nv-optee/optee/optee_os/ldelf/ta_elf.c:1891
    3150:	9bb87c00 	umull	x0, w0, w24
    3154:	8b0002a0 	add	x0, x21, x0
    3158:	9b187c22 	mul	x2, x1, x24
    315c:	52800001 	mov	w1, #0x0                   	// #0
    3160:	94000a09 	bl	5984 <memset>
/home/ssysarch/Desktop/nick/jetpack_5/Jetson_Linux_R35.4.1_aarch64/Linux_for_Tegra/sources/tegra/optee-src/nv-optee/optee/optee_os/ldelf/ta_elf.c:1893
    3164:	b9000a75 	str	w21, [x19, #8]
fill_elf_phdr_info():
/home/ssysarch/Desktop/nick/jetpack_5/Jetson_Linux_R35.4.1_aarch64/Linux_for_Tegra/sources/tegra/optee-src/nv-optee/optee/optee_os/ldelf/ta_elf.c:1914
    3168:	f94027e3 	ldr	x3, [sp, #72]
ta_elf_set_elf_phdr_info():
/home/ssysarch/Desktop/nick/jetpack_5/Jetson_Linux_R35.4.1_aarch64/Linux_for_Tegra/sources/tegra/optee-src/nv-optee/optee/optee_os/ldelf/ta_elf.c:1982
    316c:	d2800001 	mov	x1, #0x0                   	// #0
/home/ssysarch/Desktop/nick/jetpack_5/Jetson_Linux_R35.4.1_aarch64/Linux_for_Tegra/sources/tegra/optee-src/nv-optee/optee/optee_os/ldelf/ta_elf.c:1983
    3170:	f940b2e0 	ldr	x0, [x23, #352]
fill_elf_phdr_info():
/home/ssysarch/Desktop/nick/jetpack_5/Jetson_Linux_R35.4.1_aarch64/Linux_for_Tegra/sources/tegra/optee-src/nv-optee/optee/optee_os/ldelf/ta_elf.c:1942
    3174:	91001c65 	add	x5, x3, #0x7
/home/ssysarch/Desktop/nick/jetpack_5/Jetson_Linux_R35.4.1_aarch64/Linux_for_Tegra/sources/tegra/optee-src/nv-optee/optee/optee_os/ldelf/ta_elf.c:1945
    3178:	d2800026 	mov	x6, #0x1                   	// #1
/home/ssysarch/Desktop/nick/jetpack_5/Jetson_Linux_R35.4.1_aarch64/Linux_for_Tegra/sources/tegra/optee-src/nv-optee/optee/optee_os/ldelf/ta_elf.c:1921
    317c:	d2800508 	mov	x8, #0x28                  	// #40
realloc_elf_phdr_info():
/home/ssysarch/Desktop/nick/jetpack_5/Jetson_Linux_R35.4.1_aarch64/Linux_for_Tegra/sources/tegra/optee-src/nv-optee/optee/optee_os/ldelf/ta_elf.c:1905
    3180:	79000a74 	strh	w20, [x19, #4]
ta_elf_set_elf_phdr_info():
/home/ssysarch/Desktop/nick/jetpack_5/Jetson_Linux_R35.4.1_aarch64/Linux_for_Tegra/sources/tegra/optee-src/nv-optee/optee/optee_os/ldelf/ta_elf.c:1983 (discriminator 1)
    3184:	b4fff9c0 	cbz	x0, 30bc <ta_elf_set_elf_phdr_info+0x44>
fill_elf_phdr_info():
/home/ssysarch/Desktop/nick/jetpack_5/Jetson_Linux_R35.4.1_aarch64/Linux_for_Tegra/sources/tegra/optee-src/nv-optee/optee/optee_os/ldelf/ta_elf.c:1919 (discriminator 3)
    3188:	79400862 	ldrh	w2, [x3, #4]
/home/ssysarch/Desktop/nick/jetpack_5/Jetson_Linux_R35.4.1_aarch64/Linux_for_Tegra/sources/tegra/optee-src/nv-optee/optee/optee_os/ldelf/ta_elf.c:1920 (discriminator 3)
    318c:	eb02003f 	cmp	x1, x2
/home/ssysarch/Desktop/nick/jetpack_5/Jetson_Linux_R35.4.1_aarch64/Linux_for_Tegra/sources/tegra/optee-src/nv-optee/optee/optee_os/ldelf/ta_elf.c:1919 (discriminator 3)
    3190:	340005d6 	cbz	w22, 3248 <ta_elf_set_elf_phdr_info+0x1d0>
/home/ssysarch/Desktop/nick/jetpack_5/Jetson_Linux_R35.4.1_aarch64/Linux_for_Tegra/sources/tegra/optee-src/nv-optee/optee/optee_os/ldelf/ta_elf.c:1920
    3194:	54000303 	b.cc	31f4 <ta_elf_set_elf_phdr_info+0x17c>  // b.lo, b.ul, b.last
    3198:	90000022 	adrp	x2, 7000 <trace_ext_prefix+0x509>
    319c:	9113a842 	add	x2, x2, #0x4ea
    31a0:	90000020 	adrp	x0, 7000 <trace_ext_prefix+0x509>
    31a4:	91090000 	add	x0, x0, #0x240
    31a8:	5280f001 	mov	w1, #0x780                 	// #1920
    31ac:	17ffffd1 	b	30f0 <ta_elf_set_elf_phdr_info+0x78>
realloc_elf_phdr_info():
/home/ssysarch/Desktop/nick/jetpack_5/Jetson_Linux_R35.4.1_aarch64/Linux_for_Tegra/sources/tegra/optee-src/nv-optee/optee/optee_os/ldelf/ta_elf.c:1896
    31b0:	f9400660 	ldr	x0, [x19, #8]
    31b4:	d37ae681 	lsl	x1, x20, #6
    31b8:	9400096e 	bl	5770 <realloc>
    31bc:	aa0003f5 	mov	x21, x0
/home/ssysarch/Desktop/nick/jetpack_5/Jetson_Linux_R35.4.1_aarch64/Linux_for_Tegra/sources/tegra/optee-src/nv-optee/optee/optee_os/ldelf/ta_elf.c:1897
    31c0:	b4fffb40 	cbz	x0, 3128 <ta_elf_set_elf_phdr_info+0xb0>
/home/ssysarch/Desktop/nick/jetpack_5/Jetson_Linux_R35.4.1_aarch64/Linux_for_Tegra/sources/tegra/optee-src/nv-optee/optee/optee_os/ldelf/ta_elf.c:1900
    31c4:	79400a62 	ldrh	w2, [x19, #4]
    31c8:	79400a60 	ldrh	w0, [x19, #4]
/home/ssysarch/Desktop/nick/jetpack_5/Jetson_Linux_R35.4.1_aarch64/Linux_for_Tegra/sources/tegra/optee-src/nv-optee/optee/optee_os/ldelf/ta_elf.c:1901
    31cc:	eb02029f 	cmp	x20, x2
    31d0:	540000e9 	b.ls	31ec <ta_elf_set_elf_phdr_info+0x174>  // b.plast
/home/ssysarch/Desktop/nick/jetpack_5/Jetson_Linux_R35.4.1_aarch64/Linux_for_Tegra/sources/tegra/optee-src/nv-optee/optee/optee_os/ldelf/ta_elf.c:1903
    31d4:	cb020282 	sub	x2, x20, x2
/home/ssysarch/Desktop/nick/jetpack_5/Jetson_Linux_R35.4.1_aarch64/Linux_for_Tegra/sources/tegra/optee-src/nv-optee/optee/optee_os/ldelf/ta_elf.c:1902
    31d8:	d37a3c00 	ubfiz	x0, x0, #6, #16
    31dc:	8b0002a0 	add	x0, x21, x0
    31e0:	52800001 	mov	w1, #0x0                   	// #0
    31e4:	d37ae442 	lsl	x2, x2, #6
    31e8:	940009e7 	bl	5984 <memset>
/home/ssysarch/Desktop/nick/jetpack_5/Jetson_Linux_R35.4.1_aarch64/Linux_for_Tegra/sources/tegra/optee-src/nv-optee/optee/optee_os/ldelf/ta_elf.c:1904
    31ec:	f9000675 	str	x21, [x19, #8]
    31f0:	17ffffde 	b	3168 <ta_elf_set_elf_phdr_info+0xf0>
fill_elf_phdr_info():
/home/ssysarch/Desktop/nick/jetpack_5/Jetson_Linux_R35.4.1_aarch64/Linux_for_Tegra/sources/tegra/optee-src/nv-optee/optee/optee_os/ldelf/ta_elf.c:1921
    31f4:	b9400867 	ldr	w7, [x3, #8]
    31f8:	9b087c24 	mul	x4, x1, x8
/home/ssysarch/Desktop/nick/jetpack_5/Jetson_Linux_R35.4.1_aarch64/Linux_for_Tegra/sources/tegra/optee-src/nv-optee/optee/optee_os/ldelf/ta_elf.c:1923
    31fc:	f9400409 	ldr	x9, [x0, #8]
/home/ssysarch/Desktop/nick/jetpack_5/Jetson_Linux_R35.4.1_aarch64/Linux_for_Tegra/sources/tegra/optee-src/nv-optee/optee/optee_os/ldelf/ta_elf.c:1921
    3200:	8b0400e2 	add	x2, x7, x4
/home/ssysarch/Desktop/nick/jetpack_5/Jetson_Linux_R35.4.1_aarch64/Linux_for_Tegra/sources/tegra/optee-src/nv-optee/optee/optee_os/ldelf/ta_elf.c:1923
    3204:	b82468e9 	str	w9, [x7, x4]
/home/ssysarch/Desktop/nick/jetpack_5/Jetson_Linux_R35.4.1_aarch64/Linux_for_Tegra/sources/tegra/optee-src/nv-optee/optee/optee_os/ldelf/ta_elf.c:1924
    3208:	f9404c04 	ldr	x4, [x0, #152]
/home/ssysarch/Desktop/nick/jetpack_5/Jetson_Linux_R35.4.1_aarch64/Linux_for_Tegra/sources/tegra/optee-src/nv-optee/optee/optee_os/ldelf/ta_elf.c:1925
    320c:	f100009f 	cmp	x4, #0x0
    3210:	9a8400a4 	csel	x4, x5, x4, eq  // eq = none
    3214:	b9000444 	str	w4, [x2, #4]
/home/ssysarch/Desktop/nick/jetpack_5/Jetson_Linux_R35.4.1_aarch64/Linux_for_Tegra/sources/tegra/optee-src/nv-optee/optee/optee_os/ldelf/ta_elf.c:1928
    3218:	f9402804 	ldr	x4, [x0, #80]
    321c:	b9000844 	str	w4, [x2, #8]
/home/ssysarch/Desktop/nick/jetpack_5/Jetson_Linux_R35.4.1_aarch64/Linux_for_Tegra/sources/tegra/optee-src/nv-optee/optee/optee_os/ldelf/ta_elf.c:1929
    3220:	b9404004 	ldr	w4, [x0, #64]
    3224:	79001844 	strh	w4, [x2, #12]
/home/ssysarch/Desktop/nick/jetpack_5/Jetson_Linux_R35.4.1_aarch64/Linux_for_Tegra/sources/tegra/optee-src/nv-optee/optee/optee_os/ldelf/ta_elf.c:1932
    3228:	f9406004 	ldr	x4, [x0, #192]
    322c:	b9002044 	str	w4, [x2, #32]
/home/ssysarch/Desktop/nick/jetpack_5/Jetson_Linux_R35.4.1_aarch64/Linux_for_Tegra/sources/tegra/optee-src/nv-optee/optee/optee_os/ldelf/ta_elf.c:1933
    3230:	f9406404 	ldr	x4, [x0, #200]
/home/ssysarch/Desktop/nick/jetpack_5/Jetson_Linux_R35.4.1_aarch64/Linux_for_Tegra/sources/tegra/optee-src/nv-optee/optee/optee_os/ldelf/ta_elf.c:1931
    3234:	a9017c46 	stp	x6, xzr, [x2, #16]
/home/ssysarch/Desktop/nick/jetpack_5/Jetson_Linux_R35.4.1_aarch64/Linux_for_Tegra/sources/tegra/optee-src/nv-optee/optee/optee_os/ldelf/ta_elf.c:1933
    3238:	b9002444 	str	w4, [x2, #36]
ta_elf_set_elf_phdr_info():
/home/ssysarch/Desktop/nick/jetpack_5/Jetson_Linux_R35.4.1_aarch64/Linux_for_Tegra/sources/tegra/optee-src/nv-optee/optee/optee_os/ldelf/ta_elf.c:1985
    323c:	91000421 	add	x1, x1, #0x1
/home/ssysarch/Desktop/nick/jetpack_5/Jetson_Linux_R35.4.1_aarch64/Linux_for_Tegra/sources/tegra/optee-src/nv-optee/optee/optee_os/ldelf/ta_elf.c:1983
    3240:	f9409000 	ldr	x0, [x0, #288]
    3244:	17ffffd0 	b	3184 <ta_elf_set_elf_phdr_info+0x10c>
fill_elf_phdr_info():
/home/ssysarch/Desktop/nick/jetpack_5/Jetson_Linux_R35.4.1_aarch64/Linux_for_Tegra/sources/tegra/optee-src/nv-optee/optee/optee_os/ldelf/ta_elf.c:1935
    3248:	540000e3 	b.cc	3264 <ta_elf_set_elf_phdr_info+0x1ec>  // b.lo, b.ul, b.last
    324c:	90000022 	adrp	x2, 7000 <trace_ext_prefix+0x509>
    3250:	9113a842 	add	x2, x2, #0x4ea
    3254:	90000020 	adrp	x0, 7000 <trace_ext_prefix+0x509>
    3258:	91095000 	add	x0, x0, #0x254
    325c:	5280f1e1 	mov	w1, #0x78f                 	// #1935
    3260:	17ffffa4 	b	30f0 <ta_elf_set_elf_phdr_info+0x78>
/home/ssysarch/Desktop/nick/jetpack_5/Jetson_Linux_R35.4.1_aarch64/Linux_for_Tegra/sources/tegra/optee-src/nv-optee/optee/optee_os/ldelf/ta_elf.c:1936
    3264:	f9400467 	ldr	x7, [x3, #8]
    3268:	d37ae424 	lsl	x4, x1, #6
/home/ssysarch/Desktop/nick/jetpack_5/Jetson_Linux_R35.4.1_aarch64/Linux_for_Tegra/sources/tegra/optee-src/nv-optee/optee/optee_os/ldelf/ta_elf.c:1938
    326c:	f9400409 	ldr	x9, [x0, #8]
    3270:	f82468e9 	str	x9, [x7, x4]
/home/ssysarch/Desktop/nick/jetpack_5/Jetson_Linux_R35.4.1_aarch64/Linux_for_Tegra/sources/tegra/optee-src/nv-optee/optee/optee_os/ldelf/ta_elf.c:1936
    3274:	8b0118e2 	add	x2, x7, x1, lsl #6
/home/ssysarch/Desktop/nick/jetpack_5/Jetson_Linux_R35.4.1_aarch64/Linux_for_Tegra/sources/tegra/optee-src/nv-optee/optee/optee_os/ldelf/ta_elf.c:1939
    3278:	f9404c04 	ldr	x4, [x0, #152]
/home/ssysarch/Desktop/nick/jetpack_5/Jetson_Linux_R35.4.1_aarch64/Linux_for_Tegra/sources/tegra/optee-src/nv-optee/optee/optee_os/ldelf/ta_elf.c:1942
    327c:	f100009f 	cmp	x4, #0x0
    3280:	9a851084 	csel	x4, x4, x5, ne  // ne = any
    3284:	f9000444 	str	x4, [x2, #8]
/home/ssysarch/Desktop/nick/jetpack_5/Jetson_Linux_R35.4.1_aarch64/Linux_for_Tegra/sources/tegra/optee-src/nv-optee/optee/optee_os/ldelf/ta_elf.c:1943
    3288:	f9402804 	ldr	x4, [x0, #80]
    328c:	f9000844 	str	x4, [x2, #16]
/home/ssysarch/Desktop/nick/jetpack_5/Jetson_Linux_R35.4.1_aarch64/Linux_for_Tegra/sources/tegra/optee-src/nv-optee/optee/optee_os/ldelf/ta_elf.c:1944
    3290:	b9404004 	ldr	w4, [x0, #64]
    3294:	79003044 	strh	w4, [x2, #24]
/home/ssysarch/Desktop/nick/jetpack_5/Jetson_Linux_R35.4.1_aarch64/Linux_for_Tegra/sources/tegra/optee-src/nv-optee/optee/optee_os/ldelf/ta_elf.c:1947
    3298:	f9406004 	ldr	x4, [x0, #192]
    329c:	f9001844 	str	x4, [x2, #48]
/home/ssysarch/Desktop/nick/jetpack_5/Jetson_Linux_R35.4.1_aarch64/Linux_for_Tegra/sources/tegra/optee-src/nv-optee/optee/optee_os/ldelf/ta_elf.c:1948
    32a0:	f9406404 	ldr	x4, [x0, #200]
/home/ssysarch/Desktop/nick/jetpack_5/Jetson_Linux_R35.4.1_aarch64/Linux_for_Tegra/sources/tegra/optee-src/nv-optee/optee/optee_os/ldelf/ta_elf.c:1946
    32a4:	a9027c46 	stp	x6, xzr, [x2, #32]
/home/ssysarch/Desktop/nick/jetpack_5/Jetson_Linux_R35.4.1_aarch64/Linux_for_Tegra/sources/tegra/optee-src/nv-optee/optee/optee_os/ldelf/ta_elf.c:1948
    32a8:	f9001c44 	str	x4, [x2, #56]
    32ac:	17ffffe4 	b	323c <ta_elf_set_elf_phdr_info+0x1c4>
ta_elf_set_elf_phdr_info():
/home/ssysarch/Desktop/nick/jetpack_5/Jetson_Linux_R35.4.1_aarch64/Linux_for_Tegra/sources/tegra/optee-src/nv-optee/optee/optee_os/ldelf/ta_elf.c:1973
    32b0:	129ffea0 	mov	w0, #0xffff000a            	// #-65526
    32b4:	17ffff83 	b	30c0 <ta_elf_set_elf_phdr_info+0x48>

00000000000032b8 <ta_elf_finalize_load_main>:
ta_elf_finalize_load_main():
/home/ssysarch/Desktop/nick/jetpack_5/Jetson_Linux_R35.4.1_aarch64/Linux_for_Tegra/sources/tegra/optee-src/nv-optee/optee/optee_os/ldelf/ta_elf.c:1278
    32b8:	a9bd7bfd 	stp	x29, x30, [sp, #-48]!
    32bc:	910003fd 	mov	x29, sp
    32c0:	a90153f3 	stp	x19, x20, [sp, #16]
    32c4:	a9025bf5 	stp	x21, x22, [sp, #32]
    32c8:	aa0003f6 	mov	x22, x0
/home/ssysarch/Desktop/nick/jetpack_5/Jetson_Linux_R35.4.1_aarch64/Linux_for_Tegra/sources/tegra/optee-src/nv-optee/optee/optee_os/ldelf/ta_elf.c:1279
    32cc:	b0000020 	adrp	x0, 8000 <_DYNAMIC>
    32d0:	f940b013 	ldr	x19, [x0, #352]
/home/ssysarch/Desktop/nick/jetpack_5/Jetson_Linux_R35.4.1_aarch64/Linux_for_Tegra/sources/tegra/optee-src/nv-optee/optee/optee_os/ldelf/ta_elf.c:1282
    32d4:	39400260 	ldrb	w0, [x19]
    32d8:	350000e0 	cbnz	w0, 32f4 <ta_elf_finalize_load_main+0x3c>
/home/ssysarch/Desktop/nick/jetpack_5/Jetson_Linux_R35.4.1_aarch64/Linux_for_Tegra/sources/tegra/optee-src/nv-optee/optee/optee_os/ldelf/ta_elf.c:1282 (discriminator 1)
    32dc:	90000022 	adrp	x2, 7000 <trace_ext_prefix+0x509>
    32e0:	91109c42 	add	x2, x2, #0x427
    32e4:	f0000000 	adrp	x0, 6000 <kprintf.constprop.0+0x4c8>
    32e8:	91296800 	add	x0, x0, #0xa5a
    32ec:	5280a041 	mov	w1, #0x502                 	// #1282
    32f0:	97fff6c6 	bl	e08 <_assert_trap.constprop.0>
/home/ssysarch/Desktop/nick/jetpack_5/Jetson_Linux_R35.4.1_aarch64/Linux_for_Tegra/sources/tegra/optee-src/nv-optee/optee/optee_os/ldelf/ta_elf.c:1284
    32f4:	39400660 	ldrb	w0, [x19, #1]
    32f8:	aa0103f5 	mov	x21, x1
    32fc:	97fffeb6 	bl	2dd4 <ta_elf_set_init_fini_info_compat>
    3300:	2a0003f4 	mov	w20, w0
/home/ssysarch/Desktop/nick/jetpack_5/Jetson_Linux_R35.4.1_aarch64/Linux_for_Tegra/sources/tegra/optee-src/nv-optee/optee/optee_os/ldelf/ta_elf.c:1285
    3304:	34000160 	cbz	w0, 3330 <ta_elf_finalize_load_main+0x78>
/home/ssysarch/Desktop/nick/jetpack_5/Jetson_Linux_R35.4.1_aarch64/Linux_for_Tegra/sources/tegra/optee-src/nv-optee/optee/optee_os/ldelf/ta_elf.c:1286
    3308:	90000024 	adrp	x4, 7000 <trace_ext_prefix+0x509>
    330c:	91099884 	add	x4, x4, #0x266
    3310:	52800023 	mov	w3, #0x1                   	// #1
    3314:	52800022 	mov	w2, #0x1                   	// #1
    3318:	5280a0c1 	mov	w1, #0x506                 	// #1286
/home/ssysarch/Desktop/nick/jetpack_5/Jetson_Linux_R35.4.1_aarch64/Linux_for_Tegra/sources/tegra/optee-src/nv-optee/optee/optee_os/ldelf/ta_elf.c:1289
    331c:	90000020 	adrp	x0, 7000 <trace_ext_prefix+0x509>
    3320:	91109c00 	add	x0, x0, #0x427
    3324:	94000d6a 	bl	68cc <trace_printf>
    3328:	2a1403e0 	mov	w0, w20
    332c:	97fff38f 	bl	168 <_ldelf_return>
/home/ssysarch/Desktop/nick/jetpack_5/Jetson_Linux_R35.4.1_aarch64/Linux_for_Tegra/sources/tegra/optee-src/nv-optee/optee/optee_os/ldelf/ta_elf.c:1287
    3330:	39400660 	ldrb	w0, [x19, #1]
    3334:	97ffff51 	bl	3078 <ta_elf_set_elf_phdr_info>
    3338:	2a0003f4 	mov	w20, w0
/home/ssysarch/Desktop/nick/jetpack_5/Jetson_Linux_R35.4.1_aarch64/Linux_for_Tegra/sources/tegra/optee-src/nv-optee/optee/optee_os/ldelf/ta_elf.c:1288
    333c:	340000e0 	cbz	w0, 3358 <ta_elf_finalize_load_main+0xa0>
/home/ssysarch/Desktop/nick/jetpack_5/Jetson_Linux_R35.4.1_aarch64/Linux_for_Tegra/sources/tegra/optee-src/nv-optee/optee/optee_os/ldelf/ta_elf.c:1289
    3340:	90000024 	adrp	x4, 7000 <trace_ext_prefix+0x509>
    3344:	910a1c84 	add	x4, x4, #0x287
    3348:	52800023 	mov	w3, #0x1                   	// #1
    334c:	52800022 	mov	w2, #0x1                   	// #1
    3350:	5280a121 	mov	w1, #0x509                 	// #1289
    3354:	17fffff2 	b	331c <ta_elf_finalize_load_main+0x64>
/home/ssysarch/Desktop/nick/jetpack_5/Jetson_Linux_R35.4.1_aarch64/Linux_for_Tegra/sources/tegra/optee-src/nv-optee/optee/optee_os/ldelf/ta_elf.c:1291
    3358:	39400a60 	ldrb	w0, [x19, #2]
    335c:	34000140 	cbz	w0, 3384 <ta_elf_finalize_load_main+0xcc>
/home/ssysarch/Desktop/nick/jetpack_5/Jetson_Linux_R35.4.1_aarch64/Linux_for_Tegra/sources/tegra/optee-src/nv-optee/optee/optee_os/ldelf/ta_elf.c:1292
    3360:	f9408660 	ldr	x0, [x19, #264]
    3364:	f9400c02 	ldr	x2, [x0, #24]
    3368:	f90002c2 	str	x2, [x22]
/home/ssysarch/Desktop/nick/jetpack_5/Jetson_Linux_R35.4.1_aarch64/Linux_for_Tegra/sources/tegra/optee-src/nv-optee/optee/optee_os/ldelf/ta_elf.c:1296
    336c:	f9400660 	ldr	x0, [x19, #8]
/home/ssysarch/Desktop/nick/jetpack_5/Jetson_Linux_R35.4.1_aarch64/Linux_for_Tegra/sources/tegra/optee-src/nv-optee/optee/optee_os/ldelf/ta_elf.c:1297
    3370:	a94153f3 	ldp	x19, x20, [sp, #16]
/home/ssysarch/Desktop/nick/jetpack_5/Jetson_Linux_R35.4.1_aarch64/Linux_for_Tegra/sources/tegra/optee-src/nv-optee/optee/optee_os/ldelf/ta_elf.c:1296
    3374:	f90002a0 	str	x0, [x21]
/home/ssysarch/Desktop/nick/jetpack_5/Jetson_Linux_R35.4.1_aarch64/Linux_for_Tegra/sources/tegra/optee-src/nv-optee/optee/optee_os/ldelf/ta_elf.c:1297
    3378:	a9425bf5 	ldp	x21, x22, [sp, #32]
    337c:	a8c37bfd 	ldp	x29, x30, [sp], #48
    3380:	d65f03c0 	ret
/home/ssysarch/Desktop/nick/jetpack_5/Jetson_Linux_R35.4.1_aarch64/Linux_for_Tegra/sources/tegra/optee-src/nv-optee/optee/optee_os/ldelf/ta_elf.c:1294
    3384:	f9400660 	ldr	x0, [x19, #8]
    3388:	f9401662 	ldr	x2, [x19, #40]
    338c:	8b000042 	add	x2, x2, x0
    3390:	17fffff6 	b	3368 <ta_elf_finalize_load_main+0xb0>

0000000000003394 <ta_elf_add_library>:
ta_elf_add_library():
/home/ssysarch/Desktop/nick/jetpack_5/Jetson_Linux_R35.4.1_aarch64/Linux_for_Tegra/sources/tegra/optee-src/nv-optee/optee/optee_os/ldelf/ta_elf.c:1584
    3394:	a9bd7bfd 	stp	x29, x30, [sp, #-48]!
    3398:	910003fd 	mov	x29, sp
    339c:	a90153f3 	stp	x19, x20, [sp, #16]
    33a0:	aa0003f3 	mov	x19, x0
    33a4:	a9025bf5 	stp	x21, x22, [sp, #32]
/home/ssysarch/Desktop/nick/jetpack_5/Jetson_Linux_R35.4.1_aarch64/Linux_for_Tegra/sources/tegra/optee-src/nv-optee/optee/optee_os/ldelf/ta_elf.c:1587
    33a8:	97fffb84 	bl	21b8 <ta_elf_find_elf>
/home/ssysarch/Desktop/nick/jetpack_5/Jetson_Linux_R35.4.1_aarch64/Linux_for_Tegra/sources/tegra/optee-src/nv-optee/optee/optee_os/ldelf/ta_elf.c:1590
    33ac:	b5000540 	cbnz	x0, 3454 <ta_elf_add_library+0xc0>
/home/ssysarch/Desktop/nick/jetpack_5/Jetson_Linux_R35.4.1_aarch64/Linux_for_Tegra/sources/tegra/optee-src/nv-optee/optee/optee_os/ldelf/ta_elf.c:1586
    33b0:	b0000020 	adrp	x0, 8000 <_DYNAMIC>
    33b4:	f940b015 	ldr	x21, [x0, #352]
/home/ssysarch/Desktop/nick/jetpack_5/Jetson_Linux_R35.4.1_aarch64/Linux_for_Tegra/sources/tegra/optee-src/nv-optee/optee/optee_os/ldelf/ta_elf.c:1593
    33b8:	aa1303e0 	mov	x0, x19
    33bc:	97fff4c6 	bl	6d4 <queue_elf_helper>
    33c0:	aa0003f3 	mov	x19, x0
/home/ssysarch/Desktop/nick/jetpack_5/Jetson_Linux_R35.4.1_aarch64/Linux_for_Tegra/sources/tegra/optee-src/nv-optee/optee/optee_os/ldelf/ta_elf.c:1594
    33c4:	b4000520 	cbz	x0, 3468 <ta_elf_add_library+0xd4>
    33c8:	aa0003f4 	mov	x20, x0
/home/ssysarch/Desktop/nick/jetpack_5/Jetson_Linux_R35.4.1_aarch64/Linux_for_Tegra/sources/tegra/optee-src/nv-optee/optee/optee_os/ldelf/ta_elf.c:1598 (discriminator 3)
    33cc:	394006a1 	ldrb	w1, [x21, #1]
    33d0:	aa1403e0 	mov	x0, x20
    33d4:	97fffd46 	bl	28ec <ta_elf_load_dependency>
/home/ssysarch/Desktop/nick/jetpack_5/Jetson_Linux_R35.4.1_aarch64/Linux_for_Tegra/sources/tegra/optee-src/nv-optee/optee/optee_os/ldelf/ta_elf.c:1597 (discriminator 3)
    33d8:	f9409294 	ldr	x20, [x20, #288]
    33dc:	b5ffff94 	cbnz	x20, 33cc <ta_elf_add_library+0x38>
    33e0:	aa1303f4 	mov	x20, x19
/home/ssysarch/Desktop/nick/jetpack_5/Jetson_Linux_R35.4.1_aarch64/Linux_for_Tegra/sources/tegra/optee-src/nv-optee/optee/optee_os/ldelf/ta_elf.c:1601 (discriminator 3)
    33e4:	aa1403e0 	mov	x0, x20
    33e8:	9400020c 	bl	3c18 <ta_elf_relocate>
/home/ssysarch/Desktop/nick/jetpack_5/Jetson_Linux_R35.4.1_aarch64/Linux_for_Tegra/sources/tegra/optee-src/nv-optee/optee/optee_os/ldelf/ta_elf.c:1602 (discriminator 3)
    33ec:	aa1403e0 	mov	x0, x20
    33f0:	97fffd7a 	bl	29d8 <ta_elf_finalize_mappings>
/home/ssysarch/Desktop/nick/jetpack_5/Jetson_Linux_R35.4.1_aarch64/Linux_for_Tegra/sources/tegra/optee-src/nv-optee/optee/optee_os/ldelf/ta_elf.c:1600 (discriminator 3)
    33f4:	f9409294 	ldr	x20, [x20, #288]
    33f8:	b5ffff74 	cbnz	x20, 33e4 <ta_elf_add_library+0x50>
/home/ssysarch/Desktop/nick/jetpack_5/Jetson_Linux_R35.4.1_aarch64/Linux_for_Tegra/sources/tegra/optee-src/nv-optee/optee/optee_os/ldelf/ta_elf.c:1606
    33fc:	f0000016 	adrp	x22, 6000 <kprintf.constprop.0+0x4c8>
    3400:	912abad6 	add	x22, x22, #0xaae
    3404:	90000034 	adrp	x20, 7000 <trace_ext_prefix+0x509>
    3408:	91126694 	add	x20, x20, #0x499
/home/ssysarch/Desktop/nick/jetpack_5/Jetson_Linux_R35.4.1_aarch64/Linux_for_Tegra/sources/tegra/optee-src/nv-optee/optee/optee_os/ldelf/ta_elf.c:1606 (discriminator 3)
    340c:	f9400666 	ldr	x6, [x19, #8]
    3410:	91044265 	add	x5, x19, #0x110
    3414:	aa1603e4 	mov	x4, x22
    3418:	aa1403e0 	mov	x0, x20
    341c:	52800023 	mov	w3, #0x1                   	// #1
    3420:	52800062 	mov	w2, #0x3                   	// #3
    3424:	5280c8c1 	mov	w1, #0x646                 	// #1606
    3428:	94000d29 	bl	68cc <trace_printf>
/home/ssysarch/Desktop/nick/jetpack_5/Jetson_Linux_R35.4.1_aarch64/Linux_for_Tegra/sources/tegra/optee-src/nv-optee/optee/optee_os/ldelf/ta_elf.c:1605 (discriminator 3)
    342c:	f9409273 	ldr	x19, [x19, #288]
    3430:	b5fffef3 	cbnz	x19, 340c <ta_elf_add_library+0x78>
/home/ssysarch/Desktop/nick/jetpack_5/Jetson_Linux_R35.4.1_aarch64/Linux_for_Tegra/sources/tegra/optee-src/nv-optee/optee/optee_os/ldelf/ta_elf.c:1609
    3434:	394006a0 	ldrb	w0, [x21, #1]
    3438:	97fffe67 	bl	2dd4 <ta_elf_set_init_fini_info_compat>
/home/ssysarch/Desktop/nick/jetpack_5/Jetson_Linux_R35.4.1_aarch64/Linux_for_Tegra/sources/tegra/optee-src/nv-optee/optee/optee_os/ldelf/ta_elf.c:1610
    343c:	350000e0 	cbnz	w0, 3458 <ta_elf_add_library+0xc4>
/home/ssysarch/Desktop/nick/jetpack_5/Jetson_Linux_R35.4.1_aarch64/Linux_for_Tegra/sources/tegra/optee-src/nv-optee/optee/optee_os/ldelf/ta_elf.c:1613
    3440:	394006a0 	ldrb	w0, [x21, #1]
/home/ssysarch/Desktop/nick/jetpack_5/Jetson_Linux_R35.4.1_aarch64/Linux_for_Tegra/sources/tegra/optee-src/nv-optee/optee/optee_os/ldelf/ta_elf.c:1614
    3444:	a94153f3 	ldp	x19, x20, [sp, #16]
    3448:	a9425bf5 	ldp	x21, x22, [sp, #32]
    344c:	a8c37bfd 	ldp	x29, x30, [sp], #48
/home/ssysarch/Desktop/nick/jetpack_5/Jetson_Linux_R35.4.1_aarch64/Linux_for_Tegra/sources/tegra/optee-src/nv-optee/optee/optee_os/ldelf/ta_elf.c:1613
    3450:	17ffff0a 	b	3078 <ta_elf_set_elf_phdr_info>
/home/ssysarch/Desktop/nick/jetpack_5/Jetson_Linux_R35.4.1_aarch64/Linux_for_Tegra/sources/tegra/optee-src/nv-optee/optee/optee_os/ldelf/ta_elf.c:1591
    3454:	52800000 	mov	w0, #0x0                   	// #0
/home/ssysarch/Desktop/nick/jetpack_5/Jetson_Linux_R35.4.1_aarch64/Linux_for_Tegra/sources/tegra/optee-src/nv-optee/optee/optee_os/ldelf/ta_elf.c:1614
    3458:	a94153f3 	ldp	x19, x20, [sp, #16]
    345c:	a9425bf5 	ldp	x21, x22, [sp, #32]
    3460:	a8c37bfd 	ldp	x29, x30, [sp], #48
    3464:	d65f03c0 	ret
/home/ssysarch/Desktop/nick/jetpack_5/Jetson_Linux_R35.4.1_aarch64/Linux_for_Tegra/sources/tegra/optee-src/nv-optee/optee/optee_os/ldelf/ta_elf.c:1595
    3468:	129ffe60 	mov	w0, #0xffff000c            	// #-65524
    346c:	17fffffb 	b	3458 <ta_elf_add_library+0xc4>

0000000000003470 <check_found_sym>:
check_found_sym():
/home/ssysarch/Desktop/nick/jetpack_5/Jetson_Linux_R35.4.1_aarch64/Linux_for_Tegra/sources/tegra/optee-src/nv-optee/optee/optee_os/ldelf/ta_elf_rel.c:94
    3470:	a9bb7bfd 	stp	x29, x30, [sp, #-80]!
    3474:	910003fd 	mov	x29, sp
    3478:	a90153f3 	stp	x19, x20, [sp, #16]
    347c:	aa0003f4 	mov	x20, x0
    3480:	aa0103e0 	mov	x0, x1
    3484:	a9025bf5 	stp	x21, x22, [sp, #32]
/home/ssysarch/Desktop/nick/jetpack_5/Jetson_Linux_R35.4.1_aarch64/Linux_for_Tegra/sources/tegra/optee-src/nv-optee/optee/optee_os/ldelf/ta_elf_rel.c:103
    3488:	f9403681 	ldr	x1, [x20, #104]
/home/ssysarch/Desktop/nick/jetpack_5/Jetson_Linux_R35.4.1_aarch64/Linux_for_Tegra/sources/tegra/optee-src/nv-optee/optee/optee_os/ldelf/ta_elf_rel.c:94
    348c:	a90363f7 	stp	x23, x24, [sp, #48]
    3490:	f90023f9 	str	x25, [sp, #64]
/home/ssysarch/Desktop/nick/jetpack_5/Jetson_Linux_R35.4.1_aarch64/Linux_for_Tegra/sources/tegra/optee-src/nv-optee/optee/optee_os/ldelf/ta_elf_rel.c:103
    3494:	eb04003f 	cmp	x1, x4
    3498:	54000168 	b.hi	34c4 <check_found_sym+0x54>  // b.pmore
/home/ssysarch/Desktop/nick/jetpack_5/Jetson_Linux_R35.4.1_aarch64/Linux_for_Tegra/sources/tegra/optee-src/nv-optee/optee/optee_os/ldelf/ta_elf_rel.c:104
    349c:	90000024 	adrp	x4, 7000 <trace_ext_prefix+0x509>
    34a0:	91145884 	add	x4, x4, #0x516
    34a4:	90000020 	adrp	x0, 7000 <trace_ext_prefix+0x509>
    34a8:	911ee800 	add	x0, x0, #0x7ba
    34ac:	52800023 	mov	w3, #0x1                   	// #1
    34b0:	52800022 	mov	w2, #0x1                   	// #1
    34b4:	52800d01 	mov	w1, #0x68                  	// #104
sym_compare():
/home/ssysarch/Desktop/nick/jetpack_5/Jetson_Linux_R35.4.1_aarch64/Linux_for_Tegra/sources/tegra/optee-src/nv-optee/optee/optee_os/ldelf/ta_elf_rel.c:56
    34b8:	94000d05 	bl	68cc <trace_printf>
    34bc:	129fff40 	mov	w0, #0xffff0005            	// #-65531
    34c0:	97fff32a 	bl	168 <_ldelf_return>
confine_array_index():
/home/ssysarch/Desktop/nick/jetpack_5/Jetson_Linux_R35.4.1_aarch64/Linux_for_Tegra/sources/tegra/optee-src/nv-optee/optee/optee_os/lib/libutils/ext/include/confine_array_index.h:76
    34c4:	eb01009f 	cmp	x4, x1
    34c8:	9a9f3084 	csel	x4, x4, xzr, cc  // cc = lo, ul, last
    34cc:	d503229f 	csdb
check_found_sym():
/home/ssysarch/Desktop/nick/jetpack_5/Jetson_Linux_R35.4.1_aarch64/Linux_for_Tegra/sources/tegra/optee-src/nv-optee/optee/optee_os/ldelf/ta_elf_rel.c:114
    34d0:	39400681 	ldrb	w1, [x20, #1]
    34d4:	aa0203f6 	mov	x22, x2
    34d8:	12001c73 	and	w19, w3, #0xff
    34dc:	f9403282 	ldr	x2, [x20, #96]
    34e0:	340002a1 	cbz	w1, 3534 <check_found_sym+0xc4>
/home/ssysarch/Desktop/nick/jetpack_5/Jetson_Linux_R35.4.1_aarch64/Linux_for_Tegra/sources/tegra/optee-src/nv-optee/optee/optee_os/ldelf/ta_elf_rel.c:116
    34e4:	d37cec81 	lsl	x1, x4, #4
    34e8:	8b041044 	add	x4, x2, x4, lsl #4
    34ec:	39403095 	ldrb	w21, [x4, #12]
/home/ssysarch/Desktop/nick/jetpack_5/Jetson_Linux_R35.4.1_aarch64/Linux_for_Tegra/sources/tegra/optee-src/nv-optee/optee/optee_os/ldelf/ta_elf_rel.c:118
    34f0:	79401c98 	ldrh	w24, [x4, #14]
/home/ssysarch/Desktop/nick/jetpack_5/Jetson_Linux_R35.4.1_aarch64/Linux_for_Tegra/sources/tegra/optee-src/nv-optee/optee/optee_os/ldelf/ta_elf_rel.c:119
    34f4:	b8616842 	ldr	w2, [x2, x1]
/home/ssysarch/Desktop/nick/jetpack_5/Jetson_Linux_R35.4.1_aarch64/Linux_for_Tegra/sources/tegra/optee-src/nv-optee/optee/optee_os/ldelf/ta_elf_rel.c:120
    34f8:	b9400497 	ldr	w23, [x4, #4]
/home/ssysarch/Desktop/nick/jetpack_5/Jetson_Linux_R35.4.1_aarch64/Linux_for_Tegra/sources/tegra/optee-src/nv-optee/optee/optee_os/ldelf/ta_elf_rel.c:116
    34fc:	53047eb9 	lsr	w25, w21, #4
/home/ssysarch/Desktop/nick/jetpack_5/Jetson_Linux_R35.4.1_aarch64/Linux_for_Tegra/sources/tegra/optee-src/nv-optee/optee/optee_os/ldelf/ta_elf_rel.c:117
    3500:	12000eb5 	and	w21, w21, #0xf
sym_compare():
/home/ssysarch/Desktop/nick/jetpack_5/Jetson_Linux_R35.4.1_aarch64/Linux_for_Tegra/sources/tegra/optee-src/nv-optee/optee/optee_os/ldelf/ta_elf_rel.c:53
    3504:	b40009e2 	cbz	x2, 3640 <check_found_sym+0x1d0>
/home/ssysarch/Desktop/nick/jetpack_5/Jetson_Linux_R35.4.1_aarch64/Linux_for_Tegra/sources/tegra/optee-src/nv-optee/optee/optee_os/ldelf/ta_elf_rel.c:55
    3508:	f9403e81 	ldr	x1, [x20, #120]
    350c:	eb01005f 	cmp	x2, x1
    3510:	54000269 	b.ls	355c <check_found_sym+0xec>  // b.plast
/home/ssysarch/Desktop/nick/jetpack_5/Jetson_Linux_R35.4.1_aarch64/Linux_for_Tegra/sources/tegra/optee-src/nv-optee/optee/optee_os/ldelf/ta_elf_rel.c:56
    3514:	90000024 	adrp	x4, 7000 <trace_ext_prefix+0x509>
    3518:	9114a484 	add	x4, x4, #0x529
    351c:	52800023 	mov	w3, #0x1                   	// #1
    3520:	52800022 	mov	w2, #0x1                   	// #1
    3524:	52800701 	mov	w1, #0x38                  	// #56
    3528:	90000020 	adrp	x0, 7000 <trace_ext_prefix+0x509>
    352c:	911eb800 	add	x0, x0, #0x7ae
    3530:	17ffffe2 	b	34b8 <check_found_sym+0x48>
check_found_sym():
/home/ssysarch/Desktop/nick/jetpack_5/Jetson_Linux_R35.4.1_aarch64/Linux_for_Tegra/sources/tegra/optee-src/nv-optee/optee/optee_os/ldelf/ta_elf_rel.c:123
    3534:	d2800301 	mov	x1, #0x18                  	// #24
    3538:	9b017c84 	mul	x4, x4, x1
    353c:	8b040041 	add	x1, x2, x4
/home/ssysarch/Desktop/nick/jetpack_5/Jetson_Linux_R35.4.1_aarch64/Linux_for_Tegra/sources/tegra/optee-src/nv-optee/optee/optee_os/ldelf/ta_elf_rel.c:126
    3540:	b8646842 	ldr	w2, [x2, x4]
/home/ssysarch/Desktop/nick/jetpack_5/Jetson_Linux_R35.4.1_aarch64/Linux_for_Tegra/sources/tegra/optee-src/nv-optee/optee/optee_os/ldelf/ta_elf_rel.c:123
    3544:	39401035 	ldrb	w21, [x1, #4]
/home/ssysarch/Desktop/nick/jetpack_5/Jetson_Linux_R35.4.1_aarch64/Linux_for_Tegra/sources/tegra/optee-src/nv-optee/optee/optee_os/ldelf/ta_elf_rel.c:125
    3548:	79400c38 	ldrh	w24, [x1, #6]
/home/ssysarch/Desktop/nick/jetpack_5/Jetson_Linux_R35.4.1_aarch64/Linux_for_Tegra/sources/tegra/optee-src/nv-optee/optee/optee_os/ldelf/ta_elf_rel.c:127
    354c:	f9400437 	ldr	x23, [x1, #8]
/home/ssysarch/Desktop/nick/jetpack_5/Jetson_Linux_R35.4.1_aarch64/Linux_for_Tegra/sources/tegra/optee-src/nv-optee/optee/optee_os/ldelf/ta_elf_rel.c:123
    3550:	53047eb9 	lsr	w25, w21, #4
/home/ssysarch/Desktop/nick/jetpack_5/Jetson_Linux_R35.4.1_aarch64/Linux_for_Tegra/sources/tegra/optee-src/nv-optee/optee/optee_os/ldelf/ta_elf_rel.c:124
    3554:	12000eb5 	and	w21, w21, #0xf
/home/ssysarch/Desktop/nick/jetpack_5/Jetson_Linux_R35.4.1_aarch64/Linux_for_Tegra/sources/tegra/optee-src/nv-optee/optee/optee_os/ldelf/ta_elf_rel.c:127
    3558:	17ffffeb 	b	3504 <check_found_sym+0x94>
sym_compare():
/home/ssysarch/Desktop/nick/jetpack_5/Jetson_Linux_R35.4.1_aarch64/Linux_for_Tegra/sources/tegra/optee-src/nv-optee/optee/optee_os/ldelf/ta_elf_rel.c:57
    355c:	f9403a81 	ldr	x1, [x20, #112]
    3560:	8b020021 	add	x1, x1, x2
    3564:	9400090f 	bl	59a0 <strcmp>
    3568:	350006c0 	cbnz	w0, 3640 <check_found_sym+0x1d0>
/home/ssysarch/Desktop/nick/jetpack_5/Jetson_Linux_R35.4.1_aarch64/Linux_for_Tegra/sources/tegra/optee-src/nv-optee/optee/optee_os/ldelf/ta_elf_rel.c:59
    356c:	71000b3f 	cmp	w25, #0x2
    3570:	1a9f17e1 	cset	w1, eq  // eq = none
    3574:	7100073f 	cmp	w25, #0x1
    3578:	54000060 	b.eq	3584 <check_found_sym+0x114>  // b.none
    357c:	6a010260 	ands	w0, w19, w1
    3580:	540000e0 	b.eq	359c <check_found_sym+0x12c>  // b.none
/home/ssysarch/Desktop/nick/jetpack_5/Jetson_Linux_R35.4.1_aarch64/Linux_for_Tegra/sources/tegra/optee-src/nv-optee/optee/optee_os/ldelf/ta_elf_rel.c:63
    3584:	f100031f 	cmp	x24, #0x0
    3588:	1a9f17e2 	cset	w2, eq  // eq = none
    358c:	1a9f0020 	csel	w0, w1, wzr, eq  // eq = none
    3590:	34000120 	cbz	w0, 35b4 <check_found_sym+0x144>
/home/ssysarch/Desktop/nick/jetpack_5/Jetson_Linux_R35.4.1_aarch64/Linux_for_Tegra/sources/tegra/optee-src/nv-optee/optee/optee_os/ldelf/ta_elf_rel.c:64
    3594:	b4000056 	cbz	x22, 359c <check_found_sym+0x12c>
/home/ssysarch/Desktop/nick/jetpack_5/Jetson_Linux_R35.4.1_aarch64/Linux_for_Tegra/sources/tegra/optee-src/nv-optee/optee/optee_os/ldelf/ta_elf_rel.c:65
    3598:	f90002df 	str	xzr, [x22]
check_found_sym():
/home/ssysarch/Desktop/nick/jetpack_5/Jetson_Linux_R35.4.1_aarch64/Linux_for_Tegra/sources/tegra/optee-src/nv-optee/optee/optee_os/ldelf/ta_elf_rel.c:132
    359c:	a94153f3 	ldp	x19, x20, [sp, #16]
    35a0:	a9425bf5 	ldp	x21, x22, [sp, #32]
    35a4:	a94363f7 	ldp	x23, x24, [sp, #48]
    35a8:	f94023f9 	ldr	x25, [sp, #64]
    35ac:	a8c57bfd 	ldp	x29, x30, [sp], #80
    35b0:	d65f03c0 	ret
sym_compare():
/home/ssysarch/Desktop/nick/jetpack_5/Jetson_Linux_R35.4.1_aarch64/Linux_for_Tegra/sources/tegra/optee-src/nv-optee/optee/optee_os/ldelf/ta_elf_rel.c:68
    35b4:	7100005f 	cmp	w2, #0x0
    35b8:	d29fffe1 	mov	x1, #0xffff                	// #65535
    35bc:	fa410304 	ccmp	x24, x1, #0x4, eq  // eq = none
    35c0:	54fffee0 	b.eq	359c <check_found_sym+0x12c>  // b.none
/home/ssysarch/Desktop/nick/jetpack_5/Jetson_Linux_R35.4.1_aarch64/Linux_for_Tegra/sources/tegra/optee-src/nv-optee/optee/optee_os/ldelf/ta_elf_rel.c:71
    35c4:	71000abf 	cmp	w21, #0x2
    35c8:	540001a9 	b.ls	35fc <check_found_sym+0x18c>  // b.plast
    35cc:	71001abf 	cmp	w21, #0x6
    35d0:	54000320 	b.eq	3634 <check_found_sym+0x1c4>  // b.none
/home/ssysarch/Desktop/nick/jetpack_5/Jetson_Linux_R35.4.1_aarch64/Linux_for_Tegra/sources/tegra/optee-src/nv-optee/optee/optee_os/ldelf/ta_elf_rel.c:86
    35d4:	90000024 	adrp	x4, 7000 <trace_ext_prefix+0x509>
    35d8:	91157c84 	add	x4, x4, #0x55f
    35dc:	52800023 	mov	w3, #0x1                   	// #1
    35e0:	52800022 	mov	w2, #0x1                   	// #1
    35e4:	52800ac1 	mov	w1, #0x56                  	// #86
    35e8:	90000020 	adrp	x0, 7000 <trace_ext_prefix+0x509>
    35ec:	911eb800 	add	x0, x0, #0x7ae
    35f0:	94000cb7 	bl	68cc <trace_printf>
    35f4:	129ffea0 	mov	w0, #0xffff000a            	// #-65526
    35f8:	17ffffb2 	b	34c0 <check_found_sym+0x50>
/home/ssysarch/Desktop/nick/jetpack_5/Jetson_Linux_R35.4.1_aarch64/Linux_for_Tegra/sources/tegra/optee-src/nv-optee/optee/optee_os/ldelf/ta_elf_rel.c:75
    35fc:	a9408281 	ldp	x1, x0, [x20, #8]
    3600:	cb010000 	sub	x0, x0, x1
    3604:	eb0002ff 	cmp	x23, x0
    3608:	540000e9 	b.ls	3624 <check_found_sym+0x1b4>  // b.plast
/home/ssysarch/Desktop/nick/jetpack_5/Jetson_Linux_R35.4.1_aarch64/Linux_for_Tegra/sources/tegra/optee-src/nv-optee/optee/optee_os/ldelf/ta_elf_rel.c:76
    360c:	90000024 	adrp	x4, 7000 <trace_ext_prefix+0x509>
    3610:	91150884 	add	x4, x4, #0x542
    3614:	52800023 	mov	w3, #0x1                   	// #1
    3618:	52800022 	mov	w2, #0x1                   	// #1
    361c:	52800981 	mov	w1, #0x4c                  	// #76
    3620:	17ffffc2 	b	3528 <check_found_sym+0xb8>
/home/ssysarch/Desktop/nick/jetpack_5/Jetson_Linux_R35.4.1_aarch64/Linux_for_Tegra/sources/tegra/optee-src/nv-optee/optee/optee_os/ldelf/ta_elf_rel.c:78
    3624:	b40000b6 	cbz	x22, 3638 <check_found_sym+0x1c8>
/home/ssysarch/Desktop/nick/jetpack_5/Jetson_Linux_R35.4.1_aarch64/Linux_for_Tegra/sources/tegra/optee-src/nv-optee/optee/optee_os/ldelf/ta_elf_rel.c:79
    3628:	8b0102f7 	add	x23, x23, x1
/home/ssysarch/Desktop/nick/jetpack_5/Jetson_Linux_R35.4.1_aarch64/Linux_for_Tegra/sources/tegra/optee-src/nv-optee/optee/optee_os/ldelf/ta_elf_rel.c:83
    362c:	f90002d7 	str	x23, [x22]
    3630:	14000002 	b	3638 <check_found_sym+0x1c8>
/home/ssysarch/Desktop/nick/jetpack_5/Jetson_Linux_R35.4.1_aarch64/Linux_for_Tegra/sources/tegra/optee-src/nv-optee/optee/optee_os/ldelf/ta_elf_rel.c:82
    3634:	b5ffffd6 	cbnz	x22, 362c <check_found_sym+0x1bc>
/home/ssysarch/Desktop/nick/jetpack_5/Jetson_Linux_R35.4.1_aarch64/Linux_for_Tegra/sources/tegra/optee-src/nv-optee/optee/optee_os/ldelf/ta_elf_rel.c:66
    3638:	52800020 	mov	w0, #0x1                   	// #1
    363c:	17ffffd8 	b	359c <check_found_sym+0x12c>
/home/ssysarch/Desktop/nick/jetpack_5/Jetson_Linux_R35.4.1_aarch64/Linux_for_Tegra/sources/tegra/optee-src/nv-optee/optee/optee_os/ldelf/ta_elf_rel.c:54
    3640:	52800000 	mov	w0, #0x0                   	// #0
    3644:	17ffffd6 	b	359c <check_found_sym+0x12c>

0000000000003648 <resolve_sym_helper>:
resolve_sym_helper():
/home/ssysarch/Desktop/nick/jetpack_5/Jetson_Linux_R35.4.1_aarch64/Linux_for_Tegra/sources/tegra/optee-src/nv-optee/optee/optee_os/ldelf/ta_elf_rel.c:136
    3648:	a9b97bfd 	stp	x29, x30, [sp, #-112]!
    364c:	910003fd 	mov	x29, sp
    3650:	a90363f7 	stp	x23, x24, [sp, #48]
    3654:	aa0003f8 	mov	x24, x0
/home/ssysarch/Desktop/nick/jetpack_5/Jetson_Linux_R35.4.1_aarch64/Linux_for_Tegra/sources/tegra/optee-src/nv-optee/optee/optee_os/ldelf/ta_elf_rel.c:140
    3658:	f9404457 	ldr	x23, [x2, #136]
/home/ssysarch/Desktop/nick/jetpack_5/Jetson_Linux_R35.4.1_aarch64/Linux_for_Tegra/sources/tegra/optee-src/nv-optee/optee/optee_os/ldelf/ta_elf_rel.c:136
    365c:	a90153f3 	stp	x19, x20, [sp, #16]
    3660:	12001c74 	and	w20, w3, #0xff
    3664:	a9025bf5 	stp	x21, x22, [sp, #32]
    3668:	aa0203f6 	mov	x22, x2
    366c:	a9046bf9 	stp	x25, x26, [sp, #64]
    3670:	aa0103fa 	mov	x26, x1
    3674:	a90573fb 	stp	x27, x28, [sp, #80]
/home/ssysarch/Desktop/nick/jetpack_5/Jetson_Linux_R35.4.1_aarch64/Linux_for_Tegra/sources/tegra/optee-src/nv-optee/optee/optee_os/ldelf/ta_elf_rel.c:140
    3678:	b50006b7 	cbnz	x23, 374c <resolve_sym_helper+0x104>
/home/ssysarch/Desktop/nick/jetpack_5/Jetson_Linux_R35.4.1_aarch64/Linux_for_Tegra/sources/tegra/optee-src/nv-optee/optee/optee_os/ldelf/ta_elf_rel.c:190
    367c:	f9404044 	ldr	x4, [x2, #128]
    3680:	b4000564 	cbz	x4, 372c <resolve_sym_helper+0xe4>
/home/ssysarch/Desktop/nick/jetpack_5/Jetson_Linux_R35.4.1_aarch64/Linux_for_Tegra/sources/tegra/optee-src/nv-optee/optee/optee_os/ldelf/ta_elf_rel.c:197
    3684:	29406481 	ldp	w1, w25, [x4]
/home/ssysarch/Desktop/nick/jetpack_5/Jetson_Linux_R35.4.1_aarch64/Linux_for_Tegra/sources/tegra/optee-src/nv-optee/optee/optee_os/ldelf/ta_elf_rel.c:198
    3688:	91002095 	add	x21, x4, #0x8
elf_hash():
/home/ssysarch/Desktop/nick/jetpack_5/Jetson_Linux_R35.4.1_aarch64/Linux_for_Tegra/sources/tegra/optee-src/nv-optee/optee/optee_os/ldelf/ta_elf_rel.c:22
    368c:	52800003 	mov	w3, #0x0                   	// #0
resolve_sym_helper():
/home/ssysarch/Desktop/nick/jetpack_5/Jetson_Linux_R35.4.1_aarch64/Linux_for_Tegra/sources/tegra/optee-src/nv-optee/optee/optee_os/ldelf/ta_elf_rel.c:199
    3690:	2a0103f7 	mov	w23, w1
elf_hash():
/home/ssysarch/Desktop/nick/jetpack_5/Jetson_Linux_R35.4.1_aarch64/Linux_for_Tegra/sources/tegra/optee-src/nv-optee/optee/optee_os/ldelf/ta_elf_rel.c:25
    3694:	39400002 	ldrb	w2, [x0]
    3698:	35000c42 	cbnz	w2, 3820 <resolve_sym_helper+0x1d8>
resolve_sym_helper():
/home/ssysarch/Desktop/nick/jetpack_5/Jetson_Linux_R35.4.1_aarch64/Linux_for_Tegra/sources/tegra/optee-src/nv-optee/optee/optee_os/ldelf/ta_elf_rel.c:203
    369c:	1ac10860 	udiv	w0, w3, w1
    36a0:	1b018c03 	msub	w3, w0, w1, w3
    36a4:	b8637aa4 	ldr	w4, [x21, x3, lsl #2]
/home/ssysarch/Desktop/nick/jetpack_5/Jetson_Linux_R35.4.1_aarch64/Linux_for_Tegra/sources/tegra/optee-src/nv-optee/optee/optee_os/ldelf/ta_elf_rel.c:203 (discriminator 1)
    36a8:	34000424 	cbz	w4, 372c <resolve_sym_helper+0xe4>
/home/ssysarch/Desktop/nick/jetpack_5/Jetson_Linux_R35.4.1_aarch64/Linux_for_Tegra/sources/tegra/optee-src/nv-optee/optee/optee_os/ldelf/ta_elf_rel.c:204
    36ac:	6b19009f 	cmp	w4, w25
    36b0:	54000c63 	b.cc	383c <resolve_sym_helper+0x1f4>  // b.lo, b.ul, b.last
/home/ssysarch/Desktop/nick/jetpack_5/Jetson_Linux_R35.4.1_aarch64/Linux_for_Tegra/sources/tegra/optee-src/nv-optee/optee/optee_os/ldelf/ta_elf_rel.c:205
    36b4:	90000024 	adrp	x4, 7000 <trace_ext_prefix+0x509>
    36b8:	91145884 	add	x4, x4, #0x516
    36bc:	52800023 	mov	w3, #0x1                   	// #1
    36c0:	52800022 	mov	w2, #0x1                   	// #1
    36c4:	528019a1 	mov	w1, #0xcd                  	// #205
    36c8:	90000020 	adrp	x0, 7000 <trace_ext_prefix+0x509>
    36cc:	911f2800 	add	x0, x0, #0x7ca
    36d0:	94000c7f 	bl	68cc <trace_printf>
    36d4:	129fff40 	mov	w0, #0xffff0005            	// #-65531
    36d8:	97fff2a4 	bl	168 <_ldelf_return>
gnu_hash():
/home/ssysarch/Desktop/nick/jetpack_5/Jetson_Linux_R35.4.1_aarch64/Linux_for_Tegra/sources/tegra/optee-src/nv-optee/optee/optee_os/ldelf/ta_elf_rel.c:41
    36dc:	0b031400 	add	w0, w0, w3, lsl #5
    36e0:	91000421 	add	x1, x1, #0x1
    36e4:	0b000063 	add	w3, w3, w0
/home/ssysarch/Desktop/nick/jetpack_5/Jetson_Linux_R35.4.1_aarch64/Linux_for_Tegra/sources/tegra/optee-src/nv-optee/optee/optee_os/ldelf/ta_elf_rel.c:40
    36e8:	39400020 	ldrb	w0, [x1]
    36ec:	35ffff80 	cbnz	w0, 36dc <resolve_sym_helper+0x94>
resolve_sym_helper():
/home/ssysarch/Desktop/nick/jetpack_5/Jetson_Linux_R35.4.1_aarch64/Linux_for_Tegra/sources/tegra/optee-src/nv-optee/optee/optee_os/ldelf/ta_elf_rel.c:150
    36f0:	294102e4 	ldp	w4, w0, [x23, #8]
    36f4:	910042f5 	add	x21, x23, #0x10
    36f8:	1ac02461 	lsr	w1, w3, w0
    36fc:	394006c0 	ldrb	w0, [x22, #1]
    3700:	34000600 	cbz	w0, 37c0 <resolve_sym_helper+0x178>
/home/ssysarch/Desktop/nick/jetpack_5/Jetson_Linux_R35.4.1_aarch64/Linux_for_Tegra/sources/tegra/optee-src/nv-optee/optee/optee_os/ldelf/ta_elf_rel.c:153
    3704:	52800020 	mov	w0, #0x1                   	// #1
    3708:	1ac32002 	lsl	w2, w0, w3
/home/ssysarch/Desktop/nick/jetpack_5/Jetson_Linux_R35.4.1_aarch64/Linux_for_Tegra/sources/tegra/optee-src/nv-optee/optee/optee_os/ldelf/ta_elf_rel.c:154
    370c:	1ac12000 	lsl	w0, w0, w1
/home/ssysarch/Desktop/nick/jetpack_5/Jetson_Linux_R35.4.1_aarch64/Linux_for_Tegra/sources/tegra/optee-src/nv-optee/optee/optee_os/ldelf/ta_elf_rel.c:153
    3710:	2a000040 	orr	w0, w2, w0
/home/ssysarch/Desktop/nick/jetpack_5/Jetson_Linux_R35.4.1_aarch64/Linux_for_Tegra/sources/tegra/optee-src/nv-optee/optee/optee_os/ldelf/ta_elf_rel.c:152
    3714:	53057c62 	lsr	w2, w3, #5
    3718:	1ac40841 	udiv	w1, w2, w4
    371c:	1b048821 	msub	w1, w1, w4, w2
/home/ssysarch/Desktop/nick/jetpack_5/Jetson_Linux_R35.4.1_aarch64/Linux_for_Tegra/sources/tegra/optee-src/nv-optee/optee/optee_os/ldelf/ta_elf_rel.c:156
    3720:	b8617aa1 	ldr	w1, [x21, x1, lsl #2]
    3724:	6a21001f 	bics	wzr, w0, w1
    3728:	54000180 	b.eq	3758 <resolve_sym_helper+0x110>  // b.none
/home/ssysarch/Desktop/nick/jetpack_5/Jetson_Linux_R35.4.1_aarch64/Linux_for_Tegra/sources/tegra/optee-src/nv-optee/optee/optee_os/ldelf/ta_elf_rel.c:157
    372c:	129ffee0 	mov	w0, #0xffff0008            	// #-65528
/home/ssysarch/Desktop/nick/jetpack_5/Jetson_Linux_R35.4.1_aarch64/Linux_for_Tegra/sources/tegra/optee-src/nv-optee/optee/optee_os/ldelf/ta_elf_rel.c:212
    3730:	a94153f3 	ldp	x19, x20, [sp, #16]
    3734:	a9425bf5 	ldp	x21, x22, [sp, #32]
    3738:	a94363f7 	ldp	x23, x24, [sp, #48]
    373c:	a9446bf9 	ldp	x25, x26, [sp, #64]
    3740:	a94573fb 	ldp	x27, x28, [sp, #80]
    3744:	a8c77bfd 	ldp	x29, x30, [sp], #112
    3748:	d65f03c0 	ret
gnu_hash():
/home/ssysarch/Desktop/nick/jetpack_5/Jetson_Linux_R35.4.1_aarch64/Linux_for_Tegra/sources/tegra/optee-src/nv-optee/optee/optee_os/ldelf/ta_elf_rel.c:37
    374c:	aa0003e1 	mov	x1, x0
/home/ssysarch/Desktop/nick/jetpack_5/Jetson_Linux_R35.4.1_aarch64/Linux_for_Tegra/sources/tegra/optee-src/nv-optee/optee/optee_os/ldelf/ta_elf_rel.c:38
    3750:	5282a0a3 	mov	w3, #0x1505                	// #5381
    3754:	17ffffe5 	b	36e8 <resolve_sym_helper+0xa0>
resolve_sym_helper():
/home/ssysarch/Desktop/nick/jetpack_5/Jetson_Linux_R35.4.1_aarch64/Linux_for_Tegra/sources/tegra/optee-src/nv-optee/optee/optee_os/ldelf/ta_elf_rel.c:158
    3758:	8b244ab5 	add	x21, x21, w4, uxtw #2
/home/ssysarch/Desktop/nick/jetpack_5/Jetson_Linux_R35.4.1_aarch64/Linux_for_Tegra/sources/tegra/optee-src/nv-optee/optee/optee_os/ldelf/ta_elf_rel.c:169
    375c:	b94002e1 	ldr	w1, [x23]
    3760:	2a0103e5 	mov	w5, w1
/home/ssysarch/Desktop/nick/jetpack_5/Jetson_Linux_R35.4.1_aarch64/Linux_for_Tegra/sources/tegra/optee-src/nv-optee/optee/optee_os/ldelf/ta_elf_rel.c:171
    3764:	1ac10860 	udiv	w0, w3, w1
    3768:	1b018c00 	msub	w0, w0, w1, w3
    376c:	b8607ab9 	ldr	w25, [x21, x0, lsl #2]
/home/ssysarch/Desktop/nick/jetpack_5/Jetson_Linux_R35.4.1_aarch64/Linux_for_Tegra/sources/tegra/optee-src/nv-optee/optee/optee_os/ldelf/ta_elf_rel.c:172
    3770:	b94006e0 	ldr	w0, [x23, #4]
    3774:	6b19001f 	cmp	w0, w25
    3778:	54fffda8 	b.hi	372c <resolve_sym_helper+0xe4>  // b.pmore
/home/ssysarch/Desktop/nick/jetpack_5/Jetson_Linux_R35.4.1_aarch64/Linux_for_Tegra/sources/tegra/optee-src/nv-optee/optee/optee_os/ldelf/ta_elf_rel.c:142
    377c:	f9404adb 	ldr	x27, [x22, #144]
/home/ssysarch/Desktop/nick/jetpack_5/Jetson_Linux_R35.4.1_aarch64/Linux_for_Tegra/sources/tegra/optee-src/nv-optee/optee/optee_os/ldelf/ta_elf_rel.c:175
    3780:	32000073 	orr	w19, w3, #0x1
/home/ssysarch/Desktop/nick/jetpack_5/Jetson_Linux_R35.4.1_aarch64/Linux_for_Tegra/sources/tegra/optee-src/nv-optee/optee/optee_os/ldelf/ta_elf_rel.c:142
    3784:	8b1b02fb 	add	x27, x23, x27
/home/ssysarch/Desktop/nick/jetpack_5/Jetson_Linux_R35.4.1_aarch64/Linux_for_Tegra/sources/tegra/optee-src/nv-optee/optee/optee_os/ldelf/ta_elf_rel.c:177
    3788:	b94006e3 	ldr	w3, [x23, #4]
    378c:	4b030323 	sub	w3, w25, w3
/home/ssysarch/Desktop/nick/jetpack_5/Jetson_Linux_R35.4.1_aarch64/Linux_for_Tegra/sources/tegra/optee-src/nv-optee/optee/optee_os/ldelf/ta_elf_rel.c:179
    3790:	8b050063 	add	x3, x3, x5
    3794:	d37ef460 	lsl	x0, x3, #2
    3798:	8b030aa3 	add	x3, x21, x3, lsl #2
    379c:	eb1b007f 	cmp	x3, x27
    37a0:	54fffc68 	b.hi	372c <resolve_sym_helper+0xe4>  // b.pmore
/home/ssysarch/Desktop/nick/jetpack_5/Jetson_Linux_R35.4.1_aarch64/Linux_for_Tegra/sources/tegra/optee-src/nv-optee/optee/optee_os/ldelf/ta_elf_rel.c:182
    37a4:	b8606abc 	ldr	w28, [x21, x0]
/home/ssysarch/Desktop/nick/jetpack_5/Jetson_Linux_R35.4.1_aarch64/Linux_for_Tegra/sources/tegra/optee-src/nv-optee/optee/optee_os/ldelf/ta_elf_rel.c:184
    37a8:	32000380 	orr	w0, w28, #0x1
    37ac:	6b13001f 	cmp	w0, w19
    37b0:	54000200 	b.eq	37f0 <resolve_sym_helper+0x1a8>  // b.none
/home/ssysarch/Desktop/nick/jetpack_5/Jetson_Linux_R35.4.1_aarch64/Linux_for_Tegra/sources/tegra/optee-src/nv-optee/optee/optee_os/ldelf/ta_elf_rel.c:188
    37b4:	11000739 	add	w25, w25, #0x1
/home/ssysarch/Desktop/nick/jetpack_5/Jetson_Linux_R35.4.1_aarch64/Linux_for_Tegra/sources/tegra/optee-src/nv-optee/optee/optee_os/ldelf/ta_elf_rel.c:189
    37b8:	3607fe9c 	tbz	w28, #0, 3788 <resolve_sym_helper+0x140>
    37bc:	17ffffdc 	b	372c <resolve_sym_helper+0xe4>
/home/ssysarch/Desktop/nick/jetpack_5/Jetson_Linux_R35.4.1_aarch64/Linux_for_Tegra/sources/tegra/optee-src/nv-optee/optee/optee_os/ldelf/ta_elf_rel.c:162
    37c0:	d2800020 	mov	x0, #0x1                   	// #1
    37c4:	9ac32002 	lsl	x2, x0, x3
/home/ssysarch/Desktop/nick/jetpack_5/Jetson_Linux_R35.4.1_aarch64/Linux_for_Tegra/sources/tegra/optee-src/nv-optee/optee/optee_os/ldelf/ta_elf_rel.c:163
    37c8:	9ac12000 	lsl	x0, x0, x1
/home/ssysarch/Desktop/nick/jetpack_5/Jetson_Linux_R35.4.1_aarch64/Linux_for_Tegra/sources/tegra/optee-src/nv-optee/optee/optee_os/ldelf/ta_elf_rel.c:162
    37cc:	aa000040 	orr	x0, x2, x0
/home/ssysarch/Desktop/nick/jetpack_5/Jetson_Linux_R35.4.1_aarch64/Linux_for_Tegra/sources/tegra/optee-src/nv-optee/optee/optee_os/ldelf/ta_elf_rel.c:161
    37d0:	53067c62 	lsr	w2, w3, #6
    37d4:	1ac40841 	udiv	w1, w2, w4
    37d8:	1b048821 	msub	w1, w1, w4, w2
/home/ssysarch/Desktop/nick/jetpack_5/Jetson_Linux_R35.4.1_aarch64/Linux_for_Tegra/sources/tegra/optee-src/nv-optee/optee/optee_os/ldelf/ta_elf_rel.c:165
    37dc:	f8617aa1 	ldr	x1, [x21, x1, lsl #3]
    37e0:	ea21001f 	bics	xzr, x0, x1
    37e4:	54fffa41 	b.ne	372c <resolve_sym_helper+0xe4>  // b.any
/home/ssysarch/Desktop/nick/jetpack_5/Jetson_Linux_R35.4.1_aarch64/Linux_for_Tegra/sources/tegra/optee-src/nv-optee/optee/optee_os/ldelf/ta_elf_rel.c:167
    37e8:	8b244eb5 	add	x21, x21, w4, uxtw #3
    37ec:	17ffffdc 	b	375c <resolve_sym_helper+0x114>
/home/ssysarch/Desktop/nick/jetpack_5/Jetson_Linux_R35.4.1_aarch64/Linux_for_Tegra/sources/tegra/optee-src/nv-optee/optee/optee_os/ldelf/ta_elf_rel.c:185 (discriminator 1)
    37f0:	2a1903e4 	mov	w4, w25
    37f4:	2a1403e3 	mov	w3, w20
    37f8:	aa1a03e2 	mov	x2, x26
    37fc:	aa1803e1 	mov	x1, x24
    3800:	aa1603e0 	mov	x0, x22
    3804:	f90037e5 	str	x5, [sp, #104]
    3808:	97ffff1a 	bl	3470 <check_found_sym>
/home/ssysarch/Desktop/nick/jetpack_5/Jetson_Linux_R35.4.1_aarch64/Linux_for_Tegra/sources/tegra/optee-src/nv-optee/optee/optee_os/ldelf/ta_elf_rel.c:184 (discriminator 1)
    380c:	72001c1f 	tst	w0, #0xff
    3810:	f94037e5 	ldr	x5, [sp, #104]
    3814:	54fffd00 	b.eq	37b4 <resolve_sym_helper+0x16c>  // b.none
/home/ssysarch/Desktop/nick/jetpack_5/Jetson_Linux_R35.4.1_aarch64/Linux_for_Tegra/sources/tegra/optee-src/nv-optee/optee/optee_os/ldelf/ta_elf_rel.c:186
    3818:	52800000 	mov	w0, #0x0                   	// #0
    381c:	17ffffc5 	b	3730 <resolve_sym_helper+0xe8>
elf_hash():
/home/ssysarch/Desktop/nick/jetpack_5/Jetson_Linux_R35.4.1_aarch64/Linux_for_Tegra/sources/tegra/optee-src/nv-optee/optee/optee_os/ldelf/ta_elf_rel.c:26
    3820:	0b031043 	add	w3, w2, w3, lsl #4
    3824:	91000400 	add	x0, x0, #0x1
/home/ssysarch/Desktop/nick/jetpack_5/Jetson_Linux_R35.4.1_aarch64/Linux_for_Tegra/sources/tegra/optee-src/nv-optee/optee/optee_os/ldelf/ta_elf_rel.c:28
    3828:	72040c62 	ands	w2, w3, #0xf0000000
    382c:	54000040 	b.eq	3834 <resolve_sym_helper+0x1ec>  // b.none
/home/ssysarch/Desktop/nick/jetpack_5/Jetson_Linux_R35.4.1_aarch64/Linux_for_Tegra/sources/tegra/optee-src/nv-optee/optee/optee_os/ldelf/ta_elf_rel.c:29
    3830:	4a426063 	eor	w3, w3, w2, lsr #24
/home/ssysarch/Desktop/nick/jetpack_5/Jetson_Linux_R35.4.1_aarch64/Linux_for_Tegra/sources/tegra/optee-src/nv-optee/optee/optee_os/ldelf/ta_elf_rel.c:30
    3834:	0a220063 	bic	w3, w3, w2
    3838:	17ffff97 	b	3694 <resolve_sym_helper+0x4c>
resolve_sym_helper():
/home/ssysarch/Desktop/nick/jetpack_5/Jetson_Linux_R35.4.1_aarch64/Linux_for_Tegra/sources/tegra/optee-src/nv-optee/optee/optee_os/ldelf/ta_elf_rel.c:206
    383c:	2a0403f3 	mov	w19, w4
    3840:	2a1403e3 	mov	w3, w20
    3844:	aa1303e4 	mov	x4, x19
    3848:	aa1a03e2 	mov	x2, x26
    384c:	aa1803e1 	mov	x1, x24
    3850:	aa1603e0 	mov	x0, x22
    3854:	97ffff07 	bl	3470 <check_found_sym>
    3858:	72001c1f 	tst	w0, #0xff
    385c:	54fffde1 	b.ne	3818 <resolve_sym_helper+0x1d0>  // b.any
/home/ssysarch/Desktop/nick/jetpack_5/Jetson_Linux_R35.4.1_aarch64/Linux_for_Tegra/sources/tegra/optee-src/nv-optee/optee/optee_os/ldelf/ta_elf_rel.c:203 (discriminator 2)
    3860:	8b1302e4 	add	x4, x23, x19
    3864:	b8647aa4 	ldr	w4, [x21, x4, lsl #2]
    3868:	17ffff90 	b	36a8 <resolve_sym_helper+0x60>

000000000000386c <e32_get_sym_name.isra.0>:
e32_get_sym_name():
/home/ssysarch/Desktop/nick/jetpack_5/Jetson_Linux_R35.4.1_aarch64/Linux_for_Tegra/sources/tegra/optee-src/nv-optee/optee/optee_os/ldelf/ta_elf_rel.c:250
    386c:	a9bf7bfd 	stp	x29, x30, [sp, #-16]!
/home/ssysarch/Desktop/nick/jetpack_5/Jetson_Linux_R35.4.1_aarch64/Linux_for_Tegra/sources/tegra/optee-src/nv-optee/optee/optee_os/ldelf/ta_elf_rel.c:258
    3870:	53087c84 	lsr	w4, w4, #8
/home/ssysarch/Desktop/nick/jetpack_5/Jetson_Linux_R35.4.1_aarch64/Linux_for_Tegra/sources/tegra/optee-src/nv-optee/optee/optee_os/ldelf/ta_elf_rel.c:259
    3874:	eb01009f 	cmp	x4, x1
/home/ssysarch/Desktop/nick/jetpack_5/Jetson_Linux_R35.4.1_aarch64/Linux_for_Tegra/sources/tegra/optee-src/nv-optee/optee/optee_os/ldelf/ta_elf_rel.c:250
    3878:	910003fd 	mov	x29, sp
/home/ssysarch/Desktop/nick/jetpack_5/Jetson_Linux_R35.4.1_aarch64/Linux_for_Tegra/sources/tegra/optee-src/nv-optee/optee/optee_os/ldelf/ta_elf_rel.c:259
    387c:	54000163 	b.cc	38a8 <e32_get_sym_name.isra.0+0x3c>  // b.lo, b.ul, b.last
/home/ssysarch/Desktop/nick/jetpack_5/Jetson_Linux_R35.4.1_aarch64/Linux_for_Tegra/sources/tegra/optee-src/nv-optee/optee/optee_os/ldelf/ta_elf_rel.c:260
    3880:	90000024 	adrp	x4, 7000 <trace_ext_prefix+0x509>
    3884:	9115e484 	add	x4, x4, #0x579
    3888:	52800023 	mov	w3, #0x1                   	// #1
    388c:	52800022 	mov	w2, #0x1                   	// #1
    3890:	52802081 	mov	w1, #0x104                 	// #260
/home/ssysarch/Desktop/nick/jetpack_5/Jetson_Linux_R35.4.1_aarch64/Linux_for_Tegra/sources/tegra/optee-src/nv-optee/optee/optee_os/ldelf/ta_elf_rel.c:265
    3894:	90000020 	adrp	x0, 7000 <trace_ext_prefix+0x509>
    3898:	911f7400 	add	x0, x0, #0x7dd
    389c:	94000c0c 	bl	68cc <trace_printf>
    38a0:	129fff40 	mov	w0, #0xffff0005            	// #-65531
    38a4:	97fff231 	bl	168 <_ldelf_return>
confine_array_index():
/home/ssysarch/Desktop/nick/jetpack_5/Jetson_Linux_R35.4.1_aarch64/Linux_for_Tegra/sources/tegra/optee-src/nv-optee/optee/optee_os/lib/libutils/ext/include/confine_array_index.h:76
    38a8:	eb01009f 	cmp	x4, x1
    38ac:	9a9f3081 	csel	x1, x4, xzr, cc  // cc = lo, ul, last
    38b0:	d503229f 	csdb
e32_get_sym_name():
/home/ssysarch/Desktop/nick/jetpack_5/Jetson_Linux_R35.4.1_aarch64/Linux_for_Tegra/sources/tegra/optee-src/nv-optee/optee/optee_os/ldelf/ta_elf_rel.c:263
    38b4:	d37cec24 	lsl	x4, x1, #4
    38b8:	8b011001 	add	x1, x0, x1, lsl #4
    38bc:	b8646800 	ldr	w0, [x0, x4]
/home/ssysarch/Desktop/nick/jetpack_5/Jetson_Linux_R35.4.1_aarch64/Linux_for_Tegra/sources/tegra/optee-src/nv-optee/optee/optee_os/ldelf/ta_elf_rel.c:264
    38c0:	eb03001f 	cmp	x0, x3
    38c4:	540000e3 	b.cc	38e0 <e32_get_sym_name.isra.0+0x74>  // b.lo, b.ul, b.last
/home/ssysarch/Desktop/nick/jetpack_5/Jetson_Linux_R35.4.1_aarch64/Linux_for_Tegra/sources/tegra/optee-src/nv-optee/optee/optee_os/ldelf/ta_elf_rel.c:265
    38c8:	90000024 	adrp	x4, 7000 <trace_ext_prefix+0x509>
    38cc:	91164c84 	add	x4, x4, #0x593
    38d0:	52800023 	mov	w3, #0x1                   	// #1
    38d4:	52800022 	mov	w2, #0x1                   	// #1
    38d8:	52802121 	mov	w1, #0x109                 	// #265
    38dc:	17ffffee 	b	3894 <e32_get_sym_name.isra.0+0x28>
/home/ssysarch/Desktop/nick/jetpack_5/Jetson_Linux_R35.4.1_aarch64/Linux_for_Tegra/sources/tegra/optee-src/nv-optee/optee/optee_os/ldelf/ta_elf_rel.c:266
    38e0:	8b000042 	add	x2, x2, x0
    38e4:	f90000a2 	str	x2, [x5]
/home/ssysarch/Desktop/nick/jetpack_5/Jetson_Linux_R35.4.1_aarch64/Linux_for_Tegra/sources/tegra/optee-src/nv-optee/optee/optee_os/ldelf/ta_elf_rel.c:268
    38e8:	b4000126 	cbz	x6, 390c <e32_get_sym_name.isra.0+0xa0>
/home/ssysarch/Desktop/nick/jetpack_5/Jetson_Linux_R35.4.1_aarch64/Linux_for_Tegra/sources/tegra/optee-src/nv-optee/optee/optee_os/ldelf/ta_elf_rel.c:270
    38ec:	79401c20 	ldrh	w0, [x1, #14]
    38f0:	35000120 	cbnz	w0, 3914 <e32_get_sym_name.isra.0+0xa8>
/home/ssysarch/Desktop/nick/jetpack_5/Jetson_Linux_R35.4.1_aarch64/Linux_for_Tegra/sources/tegra/optee-src/nv-optee/optee/optee_os/ldelf/ta_elf_rel.c:271
    38f4:	39403020 	ldrb	w0, [x1, #12]
/home/ssysarch/Desktop/nick/jetpack_5/Jetson_Linux_R35.4.1_aarch64/Linux_for_Tegra/sources/tegra/optee-src/nv-optee/optee/optee_os/ldelf/ta_elf_rel.c:270
    38f8:	53047c00 	lsr	w0, w0, #4
    38fc:	7100081f 	cmp	w0, #0x2
    3900:	540000a1 	b.ne	3914 <e32_get_sym_name.isra.0+0xa8>  // b.any
/home/ssysarch/Desktop/nick/jetpack_5/Jetson_Linux_R35.4.1_aarch64/Linux_for_Tegra/sources/tegra/optee-src/nv-optee/optee/optee_os/ldelf/ta_elf_rel.c:272
    3904:	52800020 	mov	w0, #0x1                   	// #1
    3908:	390000c0 	strb	w0, [x6]
/home/ssysarch/Desktop/nick/jetpack_5/Jetson_Linux_R35.4.1_aarch64/Linux_for_Tegra/sources/tegra/optee-src/nv-optee/optee/optee_os/ldelf/ta_elf_rel.c:275
    390c:	a8c17bfd 	ldp	x29, x30, [sp], #16
    3910:	d65f03c0 	ret
/home/ssysarch/Desktop/nick/jetpack_5/Jetson_Linux_R35.4.1_aarch64/Linux_for_Tegra/sources/tegra/optee-src/nv-optee/optee/optee_os/ldelf/ta_elf_rel.c:274
    3914:	390000df 	strb	wzr, [x6]
    3918:	17fffffd 	b	390c <e32_get_sym_name.isra.0+0xa0>

000000000000391c <e64_get_sym_name.isra.0>:
e64_get_sym_name():
/home/ssysarch/Desktop/nick/jetpack_5/Jetson_Linux_R35.4.1_aarch64/Linux_for_Tegra/sources/tegra/optee-src/nv-optee/optee/optee_os/ldelf/ta_elf_rel.c:482
    391c:	a9bf7bfd 	stp	x29, x30, [sp, #-16]!
/home/ssysarch/Desktop/nick/jetpack_5/Jetson_Linux_R35.4.1_aarch64/Linux_for_Tegra/sources/tegra/optee-src/nv-optee/optee/optee_os/ldelf/ta_elf_rel.c:491
    3920:	eb44803f 	cmp	x1, x4, lsr #32
/home/ssysarch/Desktop/nick/jetpack_5/Jetson_Linux_R35.4.1_aarch64/Linux_for_Tegra/sources/tegra/optee-src/nv-optee/optee/optee_os/ldelf/ta_elf_rel.c:482
    3924:	910003fd 	mov	x29, sp
/home/ssysarch/Desktop/nick/jetpack_5/Jetson_Linux_R35.4.1_aarch64/Linux_for_Tegra/sources/tegra/optee-src/nv-optee/optee/optee_os/ldelf/ta_elf_rel.c:491
    3928:	54000168 	b.hi	3954 <e64_get_sym_name.isra.0+0x38>  // b.pmore
/home/ssysarch/Desktop/nick/jetpack_5/Jetson_Linux_R35.4.1_aarch64/Linux_for_Tegra/sources/tegra/optee-src/nv-optee/optee/optee_os/ldelf/ta_elf_rel.c:492
    392c:	90000024 	adrp	x4, 7000 <trace_ext_prefix+0x509>
    3930:	9115e484 	add	x4, x4, #0x579
    3934:	52800023 	mov	w3, #0x1                   	// #1
    3938:	52800022 	mov	w2, #0x1                   	// #1
    393c:	52803d81 	mov	w1, #0x1ec                 	// #492
/home/ssysarch/Desktop/nick/jetpack_5/Jetson_Linux_R35.4.1_aarch64/Linux_for_Tegra/sources/tegra/optee-src/nv-optee/optee/optee_os/ldelf/ta_elf_rel.c:497
    3940:	90000020 	adrp	x0, 7000 <trace_ext_prefix+0x509>
    3944:	91206800 	add	x0, x0, #0x81a
    3948:	94000be1 	bl	68cc <trace_printf>
    394c:	129fff40 	mov	w0, #0xffff0005            	// #-65531
    3950:	97fff206 	bl	168 <_ldelf_return>
    3954:	d360fc87 	lsr	x7, x4, #32
/home/ssysarch/Desktop/nick/jetpack_5/Jetson_Linux_R35.4.1_aarch64/Linux_for_Tegra/sources/tegra/optee-src/nv-optee/optee/optee_os/ldelf/ta_elf_rel.c:495
    3958:	d2800304 	mov	x4, #0x18                  	// #24
confine_array_index():
/home/ssysarch/Desktop/nick/jetpack_5/Jetson_Linux_R35.4.1_aarch64/Linux_for_Tegra/sources/tegra/optee-src/nv-optee/optee/optee_os/lib/libutils/ext/include/confine_array_index.h:76
    395c:	eb0100ff 	cmp	x7, x1
    3960:	9a9f30e1 	csel	x1, x7, xzr, cc  // cc = lo, ul, last
    3964:	d503229f 	csdb
e64_get_sym_name():
/home/ssysarch/Desktop/nick/jetpack_5/Jetson_Linux_R35.4.1_aarch64/Linux_for_Tegra/sources/tegra/optee-src/nv-optee/optee/optee_os/ldelf/ta_elf_rel.c:495
    3968:	9b047c21 	mul	x1, x1, x4
    396c:	8b010004 	add	x4, x0, x1
    3970:	b8616800 	ldr	w0, [x0, x1]
/home/ssysarch/Desktop/nick/jetpack_5/Jetson_Linux_R35.4.1_aarch64/Linux_for_Tegra/sources/tegra/optee-src/nv-optee/optee/optee_os/ldelf/ta_elf_rel.c:496
    3974:	eb03001f 	cmp	x0, x3
    3978:	540000e3 	b.cc	3994 <e64_get_sym_name.isra.0+0x78>  // b.lo, b.ul, b.last
/home/ssysarch/Desktop/nick/jetpack_5/Jetson_Linux_R35.4.1_aarch64/Linux_for_Tegra/sources/tegra/optee-src/nv-optee/optee/optee_os/ldelf/ta_elf_rel.c:497
    397c:	90000024 	adrp	x4, 7000 <trace_ext_prefix+0x509>
    3980:	91164c84 	add	x4, x4, #0x593
    3984:	52800023 	mov	w3, #0x1                   	// #1
    3988:	52800022 	mov	w2, #0x1                   	// #1
    398c:	52803e21 	mov	w1, #0x1f1                 	// #497
    3990:	17ffffec 	b	3940 <e64_get_sym_name.isra.0+0x24>
/home/ssysarch/Desktop/nick/jetpack_5/Jetson_Linux_R35.4.1_aarch64/Linux_for_Tegra/sources/tegra/optee-src/nv-optee/optee/optee_os/ldelf/ta_elf_rel.c:498
    3994:	8b000042 	add	x2, x2, x0
/home/ssysarch/Desktop/nick/jetpack_5/Jetson_Linux_R35.4.1_aarch64/Linux_for_Tegra/sources/tegra/optee-src/nv-optee/optee/optee_os/ldelf/ta_elf_rel.c:500
    3998:	79400c80 	ldrh	w0, [x4, #6]
/home/ssysarch/Desktop/nick/jetpack_5/Jetson_Linux_R35.4.1_aarch64/Linux_for_Tegra/sources/tegra/optee-src/nv-optee/optee/optee_os/ldelf/ta_elf_rel.c:498
    399c:	f90000a2 	str	x2, [x5]
/home/ssysarch/Desktop/nick/jetpack_5/Jetson_Linux_R35.4.1_aarch64/Linux_for_Tegra/sources/tegra/optee-src/nv-optee/optee/optee_os/ldelf/ta_elf_rel.c:500
    39a0:	35000100 	cbnz	w0, 39c0 <e64_get_sym_name.isra.0+0xa4>
/home/ssysarch/Desktop/nick/jetpack_5/Jetson_Linux_R35.4.1_aarch64/Linux_for_Tegra/sources/tegra/optee-src/nv-optee/optee/optee_os/ldelf/ta_elf_rel.c:501
    39a4:	39401080 	ldrb	w0, [x4, #4]
/home/ssysarch/Desktop/nick/jetpack_5/Jetson_Linux_R35.4.1_aarch64/Linux_for_Tegra/sources/tegra/optee-src/nv-optee/optee/optee_os/ldelf/ta_elf_rel.c:500
    39a8:	53047c00 	lsr	w0, w0, #4
    39ac:	7100081f 	cmp	w0, #0x2
    39b0:	1a9f17e0 	cset	w0, eq  // eq = none
/home/ssysarch/Desktop/nick/jetpack_5/Jetson_Linux_R35.4.1_aarch64/Linux_for_Tegra/sources/tegra/optee-src/nv-optee/optee/optee_os/ldelf/ta_elf_rel.c:505
    39b4:	a8c17bfd 	ldp	x29, x30, [sp], #16
    39b8:	390000c0 	strb	w0, [x6]
    39bc:	d65f03c0 	ret
/home/ssysarch/Desktop/nick/jetpack_5/Jetson_Linux_R35.4.1_aarch64/Linux_for_Tegra/sources/tegra/optee-src/nv-optee/optee/optee_os/ldelf/ta_elf_rel.c:504
    39c0:	52800000 	mov	w0, #0x0                   	// #0
    39c4:	17fffffc 	b	39b4 <e64_get_sym_name.isra.0+0x98>

00000000000039c8 <ta_elf_resolve_sym>:
ta_elf_resolve_sym():
/home/ssysarch/Desktop/nick/jetpack_5/Jetson_Linux_R35.4.1_aarch64/Linux_for_Tegra/sources/tegra/optee-src/nv-optee/optee/optee_os/ldelf/ta_elf_rel.c:225
    39c8:	a9bd7bfd 	stp	x29, x30, [sp, #-48]!
    39cc:	910003fd 	mov	x29, sp
    39d0:	a90153f3 	stp	x19, x20, [sp, #16]
    39d4:	aa0003f4 	mov	x20, x0
    39d8:	a9025bf5 	stp	x21, x22, [sp, #32]
    39dc:	aa0103f5 	mov	x21, x1
    39e0:	aa0203f6 	mov	x22, x2
/home/ssysarch/Desktop/nick/jetpack_5/Jetson_Linux_R35.4.1_aarch64/Linux_for_Tegra/sources/tegra/optee-src/nv-optee/optee/optee_os/ldelf/ta_elf_rel.c:226
    39e4:	b5000143 	cbnz	x3, 3a0c <ta_elf_resolve_sym+0x44>
/home/ssysarch/Desktop/nick/jetpack_5/Jetson_Linux_R35.4.1_aarch64/Linux_for_Tegra/sources/tegra/optee-src/nv-optee/optee/optee_os/ldelf/ta_elf_rel.c:235
    39e8:	b0000020 	adrp	x0, 8000 <_DYNAMIC>
    39ec:	f9409800 	ldr	x0, [x0, #304]
    39f0:	f9400013 	ldr	x19, [x0]
/home/ssysarch/Desktop/nick/jetpack_5/Jetson_Linux_R35.4.1_aarch64/Linux_for_Tegra/sources/tegra/optee-src/nv-optee/optee/optee_os/ldelf/ta_elf_rel.c:235 (discriminator 1)
    39f4:	b50002b3 	cbnz	x19, 3a48 <ta_elf_resolve_sym+0x80>
/home/ssysarch/Desktop/nick/jetpack_5/Jetson_Linux_R35.4.1_aarch64/Linux_for_Tegra/sources/tegra/optee-src/nv-optee/optee/optee_os/ldelf/ta_elf_rel.c:242
    39f8:	129ffee0 	mov	w0, #0xffff0008            	// #-65528
/home/ssysarch/Desktop/nick/jetpack_5/Jetson_Linux_R35.4.1_aarch64/Linux_for_Tegra/sources/tegra/optee-src/nv-optee/optee/optee_os/ldelf/ta_elf_rel.c:248
    39fc:	a94153f3 	ldp	x19, x20, [sp, #16]
    3a00:	a9425bf5 	ldp	x21, x22, [sp, #32]
    3a04:	a8c37bfd 	ldp	x29, x30, [sp], #48
    3a08:	d65f03c0 	ret
    3a0c:	aa0303f3 	mov	x19, x3
/home/ssysarch/Desktop/nick/jetpack_5/Jetson_Linux_R35.4.1_aarch64/Linux_for_Tegra/sources/tegra/optee-src/nv-optee/optee/optee_os/ldelf/ta_elf_rel.c:228
    3a10:	52800003 	mov	w3, #0x0                   	// #0
    3a14:	aa1303e2 	mov	x2, x19
    3a18:	97ffff0c 	bl	3648 <resolve_sym_helper>
    3a1c:	340000e0 	cbz	w0, 3a38 <ta_elf_resolve_sym+0x70>
/home/ssysarch/Desktop/nick/jetpack_5/Jetson_Linux_R35.4.1_aarch64/Linux_for_Tegra/sources/tegra/optee-src/nv-optee/optee/optee_os/ldelf/ta_elf_rel.c:231
    3a20:	aa1303e2 	mov	x2, x19
    3a24:	aa1503e1 	mov	x1, x21
    3a28:	aa1403e0 	mov	x0, x20
    3a2c:	52800023 	mov	w3, #0x1                   	// #1
    3a30:	97ffff06 	bl	3648 <resolve_sym_helper>
    3a34:	35fffda0 	cbnz	w0, 39e8 <ta_elf_resolve_sym+0x20>
/home/ssysarch/Desktop/nick/jetpack_5/Jetson_Linux_R35.4.1_aarch64/Linux_for_Tegra/sources/tegra/optee-src/nv-optee/optee/optee_os/ldelf/ta_elf_rel.c:245
    3a38:	b4000056 	cbz	x22, 3a40 <ta_elf_resolve_sym+0x78>
/home/ssysarch/Desktop/nick/jetpack_5/Jetson_Linux_R35.4.1_aarch64/Linux_for_Tegra/sources/tegra/optee-src/nv-optee/optee/optee_os/ldelf/ta_elf_rel.c:246
    3a3c:	f90002d3 	str	x19, [x22]
/home/ssysarch/Desktop/nick/jetpack_5/Jetson_Linux_R35.4.1_aarch64/Linux_for_Tegra/sources/tegra/optee-src/nv-optee/optee/optee_os/ldelf/ta_elf_rel.c:247
    3a40:	52800000 	mov	w0, #0x0                   	// #0
    3a44:	17ffffee 	b	39fc <ta_elf_resolve_sym+0x34>
/home/ssysarch/Desktop/nick/jetpack_5/Jetson_Linux_R35.4.1_aarch64/Linux_for_Tegra/sources/tegra/optee-src/nv-optee/optee/optee_os/ldelf/ta_elf_rel.c:236
    3a48:	aa1303e2 	mov	x2, x19
    3a4c:	aa1503e1 	mov	x1, x21
    3a50:	aa1403e0 	mov	x0, x20
    3a54:	52800003 	mov	w3, #0x0                   	// #0
    3a58:	97fffefc 	bl	3648 <resolve_sym_helper>
    3a5c:	34fffee0 	cbz	w0, 3a38 <ta_elf_resolve_sym+0x70>
/home/ssysarch/Desktop/nick/jetpack_5/Jetson_Linux_R35.4.1_aarch64/Linux_for_Tegra/sources/tegra/optee-src/nv-optee/optee/optee_os/ldelf/ta_elf_rel.c:238
    3a60:	aa1303e2 	mov	x2, x19
    3a64:	aa1503e1 	mov	x1, x21
    3a68:	aa1403e0 	mov	x0, x20
    3a6c:	52800023 	mov	w3, #0x1                   	// #1
    3a70:	97fffef6 	bl	3648 <resolve_sym_helper>
    3a74:	34fffe20 	cbz	w0, 3a38 <ta_elf_resolve_sym+0x70>
/home/ssysarch/Desktop/nick/jetpack_5/Jetson_Linux_R35.4.1_aarch64/Linux_for_Tegra/sources/tegra/optee-src/nv-optee/optee/optee_os/ldelf/ta_elf_rel.c:235 (discriminator 2)
    3a78:	f9409273 	ldr	x19, [x19, #288]
    3a7c:	17ffffde 	b	39f4 <ta_elf_resolve_sym+0x2c>

0000000000003a80 <resolve_sym>:
resolve_sym():
/home/ssysarch/Desktop/nick/jetpack_5/Jetson_Linux_R35.4.1_aarch64/Linux_for_Tegra/sources/tegra/optee-src/nv-optee/optee/optee_os/ldelf/ta_elf_rel.c:279
    3a80:	a9bd7bfd 	stp	x29, x30, [sp, #-48]!
    3a84:	910003fd 	mov	x29, sp
    3a88:	a90153f3 	stp	x19, x20, [sp, #16]
    3a8c:	aa0103f4 	mov	x20, x1
    3a90:	a9025bf5 	stp	x21, x22, [sp, #32]
    3a94:	12001c76 	and	w22, w3, #0xff
    3a98:	aa0003f5 	mov	x21, x0
/home/ssysarch/Desktop/nick/jetpack_5/Jetson_Linux_R35.4.1_aarch64/Linux_for_Tegra/sources/tegra/optee-src/nv-optee/optee/optee_os/ldelf/ta_elf_rel.c:280
    3a9c:	d2800003 	mov	x3, #0x0                   	// #0
    3aa0:	97ffffca 	bl	39c8 <ta_elf_resolve_sym>
/home/ssysarch/Desktop/nick/jetpack_5/Jetson_Linux_R35.4.1_aarch64/Linux_for_Tegra/sources/tegra/optee-src/nv-optee/optee/optee_os/ldelf/ta_elf_rel.c:282
    3aa4:	340001e0 	cbz	w0, 3ae0 <resolve_sym+0x60>
/home/ssysarch/Desktop/nick/jetpack_5/Jetson_Linux_R35.4.1_aarch64/Linux_for_Tegra/sources/tegra/optee-src/nv-optee/optee/optee_os/ldelf/ta_elf_rel.c:283
    3aa8:	340001b6 	cbz	w22, 3adc <resolve_sym+0x5c>
/home/ssysarch/Desktop/nick/jetpack_5/Jetson_Linux_R35.4.1_aarch64/Linux_for_Tegra/sources/tegra/optee-src/nv-optee/optee/optee_os/ldelf/ta_elf_rel.c:284
    3aac:	aa1503e5 	mov	x5, x21
    3ab0:	90000024 	adrp	x4, 7000 <trace_ext_prefix+0x509>
    3ab4:	9116ac84 	add	x4, x4, #0x5ab
    3ab8:	52800023 	mov	w3, #0x1                   	// #1
    3abc:	52800022 	mov	w2, #0x1                   	// #1
    3ac0:	52802381 	mov	w1, #0x11c                 	// #284
    3ac4:	2a0003f3 	mov	w19, w0
    3ac8:	90000020 	adrp	x0, 7000 <trace_ext_prefix+0x509>
    3acc:	911fb800 	add	x0, x0, #0x7ee
    3ad0:	94000b7f 	bl	68cc <trace_printf>
    3ad4:	2a1303e0 	mov	w0, w19
    3ad8:	97fff1a4 	bl	168 <_ldelf_return>
/home/ssysarch/Desktop/nick/jetpack_5/Jetson_Linux_R35.4.1_aarch64/Linux_for_Tegra/sources/tegra/optee-src/nv-optee/optee/optee_os/ldelf/ta_elf_rel.c:286
    3adc:	f900029f 	str	xzr, [x20]
/home/ssysarch/Desktop/nick/jetpack_5/Jetson_Linux_R35.4.1_aarch64/Linux_for_Tegra/sources/tegra/optee-src/nv-optee/optee/optee_os/ldelf/ta_elf_rel.c:288
    3ae0:	a94153f3 	ldp	x19, x20, [sp, #16]
    3ae4:	a9425bf5 	ldp	x21, x22, [sp, #32]
    3ae8:	a8c37bfd 	ldp	x29, x30, [sp], #48
    3aec:	d65f03c0 	ret

0000000000003af0 <e32_process_dyn_rel>:
e32_process_dyn_rel():
/home/ssysarch/Desktop/nick/jetpack_5/Jetson_Linux_R35.4.1_aarch64/Linux_for_Tegra/sources/tegra/optee-src/nv-optee/optee/optee_os/ldelf/ta_elf_rel.c:293
    3af0:	a9bc7bfd 	stp	x29, x30, [sp, #-64]!
    3af4:	910003fd 	mov	x29, sp
/home/ssysarch/Desktop/nick/jetpack_5/Jetson_Linux_R35.4.1_aarch64/Linux_for_Tegra/sources/tegra/optee-src/nv-optee/optee/optee_os/ldelf/ta_elf_rel.c:298
    3af8:	b9400484 	ldr	w4, [x4, #4]
    3afc:	9100bfe6 	add	x6, sp, #0x2f
/home/ssysarch/Desktop/nick/jetpack_5/Jetson_Linux_R35.4.1_aarch64/Linux_for_Tegra/sources/tegra/optee-src/nv-optee/optee/optee_os/ldelf/ta_elf_rel.c:293
    3b00:	f9000bf3 	str	x19, [sp, #16]
    3b04:	aa0503f3 	mov	x19, x5
/home/ssysarch/Desktop/nick/jetpack_5/Jetson_Linux_R35.4.1_aarch64/Linux_for_Tegra/sources/tegra/optee-src/nv-optee/optee/optee_os/ldelf/ta_elf_rel.c:298
    3b08:	9100c3e5 	add	x5, sp, #0x30
/home/ssysarch/Desktop/nick/jetpack_5/Jetson_Linux_R35.4.1_aarch64/Linux_for_Tegra/sources/tegra/optee-src/nv-optee/optee/optee_os/ldelf/ta_elf_rel.c:296
    3b0c:	3900bfff 	strb	wzr, [sp, #47]
/home/ssysarch/Desktop/nick/jetpack_5/Jetson_Linux_R35.4.1_aarch64/Linux_for_Tegra/sources/tegra/optee-src/nv-optee/optee/optee_os/ldelf/ta_elf_rel.c:295
    3b10:	a9037fff 	stp	xzr, xzr, [sp, #48]
/home/ssysarch/Desktop/nick/jetpack_5/Jetson_Linux_R35.4.1_aarch64/Linux_for_Tegra/sources/tegra/optee-src/nv-optee/optee/optee_os/ldelf/ta_elf_rel.c:298
    3b14:	97ffff56 	bl	386c <e32_get_sym_name.isra.0>
/home/ssysarch/Desktop/nick/jetpack_5/Jetson_Linux_R35.4.1_aarch64/Linux_for_Tegra/sources/tegra/optee-src/nv-optee/optee/optee_os/ldelf/ta_elf_rel.c:300
    3b18:	f9401be0 	ldr	x0, [sp, #48]
    3b1c:	9100e3e1 	add	x1, sp, #0x38
    3b20:	3940bfe3 	ldrb	w3, [sp, #47]
    3b24:	d2800002 	mov	x2, #0x0                   	// #0
    3b28:	52000063 	eor	w3, w3, #0x1
    3b2c:	97ffffd5 	bl	3a80 <resolve_sym>
/home/ssysarch/Desktop/nick/jetpack_5/Jetson_Linux_R35.4.1_aarch64/Linux_for_Tegra/sources/tegra/optee-src/nv-optee/optee/optee_os/ldelf/ta_elf_rel.c:301
    3b30:	f9401fe0 	ldr	x0, [sp, #56]
    3b34:	b9000260 	str	w0, [x19]
/home/ssysarch/Desktop/nick/jetpack_5/Jetson_Linux_R35.4.1_aarch64/Linux_for_Tegra/sources/tegra/optee-src/nv-optee/optee/optee_os/ldelf/ta_elf_rel.c:302
    3b38:	f9400bf3 	ldr	x19, [sp, #16]
    3b3c:	a8c47bfd 	ldp	x29, x30, [sp], #64
    3b40:	d65f03c0 	ret

0000000000003b44 <e64_process_dyn_rela>:
e64_process_dyn_rela():
/home/ssysarch/Desktop/nick/jetpack_5/Jetson_Linux_R35.4.1_aarch64/Linux_for_Tegra/sources/tegra/optee-src/nv-optee/optee/optee_os/ldelf/ta_elf_rel.c:510
    3b44:	a9bc7bfd 	stp	x29, x30, [sp, #-64]!
    3b48:	910003fd 	mov	x29, sp
/home/ssysarch/Desktop/nick/jetpack_5/Jetson_Linux_R35.4.1_aarch64/Linux_for_Tegra/sources/tegra/optee-src/nv-optee/optee/optee_os/ldelf/ta_elf_rel.c:515
    3b4c:	f9400484 	ldr	x4, [x4, #8]
    3b50:	9100bfe6 	add	x6, sp, #0x2f
/home/ssysarch/Desktop/nick/jetpack_5/Jetson_Linux_R35.4.1_aarch64/Linux_for_Tegra/sources/tegra/optee-src/nv-optee/optee/optee_os/ldelf/ta_elf_rel.c:510
    3b54:	f9000bf3 	str	x19, [sp, #16]
    3b58:	aa0503f3 	mov	x19, x5
/home/ssysarch/Desktop/nick/jetpack_5/Jetson_Linux_R35.4.1_aarch64/Linux_for_Tegra/sources/tegra/optee-src/nv-optee/optee/optee_os/ldelf/ta_elf_rel.c:515
    3b5c:	9100c3e5 	add	x5, sp, #0x30
/home/ssysarch/Desktop/nick/jetpack_5/Jetson_Linux_R35.4.1_aarch64/Linux_for_Tegra/sources/tegra/optee-src/nv-optee/optee/optee_os/ldelf/ta_elf_rel.c:513
    3b60:	3900bfff 	strb	wzr, [sp, #47]
/home/ssysarch/Desktop/nick/jetpack_5/Jetson_Linux_R35.4.1_aarch64/Linux_for_Tegra/sources/tegra/optee-src/nv-optee/optee/optee_os/ldelf/ta_elf_rel.c:512
    3b64:	a9037fff 	stp	xzr, xzr, [sp, #48]
/home/ssysarch/Desktop/nick/jetpack_5/Jetson_Linux_R35.4.1_aarch64/Linux_for_Tegra/sources/tegra/optee-src/nv-optee/optee/optee_os/ldelf/ta_elf_rel.c:515
    3b68:	97ffff6d 	bl	391c <e64_get_sym_name.isra.0>
/home/ssysarch/Desktop/nick/jetpack_5/Jetson_Linux_R35.4.1_aarch64/Linux_for_Tegra/sources/tegra/optee-src/nv-optee/optee/optee_os/ldelf/ta_elf_rel.c:517
    3b6c:	3940bfe3 	ldrb	w3, [sp, #47]
    3b70:	f9401be0 	ldr	x0, [sp, #48]
    3b74:	9100e3e1 	add	x1, sp, #0x38
    3b78:	52000063 	eor	w3, w3, #0x1
    3b7c:	d2800002 	mov	x2, #0x0                   	// #0
    3b80:	97ffffc0 	bl	3a80 <resolve_sym>
/home/ssysarch/Desktop/nick/jetpack_5/Jetson_Linux_R35.4.1_aarch64/Linux_for_Tegra/sources/tegra/optee-src/nv-optee/optee/optee_os/ldelf/ta_elf_rel.c:518
    3b84:	f9401fe0 	ldr	x0, [sp, #56]
    3b88:	f9000260 	str	x0, [x19]
/home/ssysarch/Desktop/nick/jetpack_5/Jetson_Linux_R35.4.1_aarch64/Linux_for_Tegra/sources/tegra/optee-src/nv-optee/optee/optee_os/ldelf/ta_elf_rel.c:519
    3b8c:	f9400bf3 	ldr	x19, [sp, #16]
    3b90:	a8c47bfd 	ldp	x29, x30, [sp], #64
    3b94:	d65f03c0 	ret

0000000000003b98 <e64_process_tls_tprel_rela>:
e64_process_tls_tprel_rela():
/home/ssysarch/Desktop/nick/jetpack_5/Jetson_Linux_R35.4.1_aarch64/Linux_for_Tegra/sources/tegra/optee-src/nv-optee/optee/optee_os/ldelf/ta_elf_rel.c:526
    3b98:	a9bc7bfd 	stp	x29, x30, [sp, #-64]!
    3b9c:	910003fd 	mov	x29, sp
    3ba0:	a90153f3 	stp	x19, x20, [sp, #16]
    3ba4:	aa0403f3 	mov	x19, x4
    3ba8:	aa0503f4 	mov	x20, x5
/home/ssysarch/Desktop/nick/jetpack_5/Jetson_Linux_R35.4.1_aarch64/Linux_for_Tegra/sources/tegra/optee-src/nv-optee/optee/optee_os/ldelf/ta_elf_rel.c:533
    3bac:	f9400484 	ldr	x4, [x4, #8]
/home/ssysarch/Desktop/nick/jetpack_5/Jetson_Linux_R35.4.1_aarch64/Linux_for_Tegra/sources/tegra/optee-src/nv-optee/optee/optee_os/ldelf/ta_elf_rel.c:528
    3bb0:	39009fff 	strb	wzr, [sp, #39]
/home/ssysarch/Desktop/nick/jetpack_5/Jetson_Linux_R35.4.1_aarch64/Linux_for_Tegra/sources/tegra/optee-src/nv-optee/optee/optee_os/ldelf/ta_elf_rel.c:529
    3bb4:	a902ffff 	stp	xzr, xzr, [sp, #40]
/home/ssysarch/Desktop/nick/jetpack_5/Jetson_Linux_R35.4.1_aarch64/Linux_for_Tegra/sources/tegra/optee-src/nv-optee/optee/optee_os/ldelf/ta_elf_rel.c:531
    3bb8:	f9001fff 	str	xzr, [sp, #56]
/home/ssysarch/Desktop/nick/jetpack_5/Jetson_Linux_R35.4.1_aarch64/Linux_for_Tegra/sources/tegra/optee-src/nv-optee/optee/optee_os/ldelf/ta_elf_rel.c:534
    3bbc:	eb4483ff 	cmp	xzr, x4, lsr #32
    3bc0:	54000280 	b.eq	3c10 <e64_process_tls_tprel_rela+0x78>  // b.none
/home/ssysarch/Desktop/nick/jetpack_5/Jetson_Linux_R35.4.1_aarch64/Linux_for_Tegra/sources/tegra/optee-src/nv-optee/optee/optee_os/ldelf/ta_elf_rel.c:535
    3bc4:	91009fe6 	add	x6, sp, #0x27
    3bc8:	9100c3e5 	add	x5, sp, #0x30
    3bcc:	97ffff54 	bl	391c <e64_get_sym_name.isra.0>
/home/ssysarch/Desktop/nick/jetpack_5/Jetson_Linux_R35.4.1_aarch64/Linux_for_Tegra/sources/tegra/optee-src/nv-optee/optee/optee_os/ldelf/ta_elf_rel.c:537
    3bd0:	f9401be0 	ldr	x0, [sp, #48]
    3bd4:	9100a3e2 	add	x2, sp, #0x28
    3bd8:	39409fe3 	ldrb	w3, [sp, #39]
    3bdc:	9100e3e1 	add	x1, sp, #0x38
    3be0:	52000063 	eor	w3, w3, #0x1
    3be4:	97ffffa7 	bl	3a80 <resolve_sym>
/home/ssysarch/Desktop/nick/jetpack_5/Jetson_Linux_R35.4.1_aarch64/Linux_for_Tegra/sources/tegra/optee-src/nv-optee/optee/optee_os/ldelf/ta_elf_rel.c:541
    3be8:	f94017e0 	ldr	x0, [sp, #40]
    3bec:	f9401fe1 	ldr	x1, [sp, #56]
    3bf0:	f9407000 	ldr	x0, [x0, #224]
    3bf4:	8b010000 	add	x0, x0, x1
    3bf8:	f9400a61 	ldr	x1, [x19, #16]
    3bfc:	8b010000 	add	x0, x0, x1
    3c00:	f9000280 	str	x0, [x20]
/home/ssysarch/Desktop/nick/jetpack_5/Jetson_Linux_R35.4.1_aarch64/Linux_for_Tegra/sources/tegra/optee-src/nv-optee/optee/optee_os/ldelf/ta_elf_rel.c:542
    3c04:	a94153f3 	ldp	x19, x20, [sp, #16]
    3c08:	a8c47bfd 	ldp	x29, x30, [sp], #64
    3c0c:	d65f03c0 	ret
/home/ssysarch/Desktop/nick/jetpack_5/Jetson_Linux_R35.4.1_aarch64/Linux_for_Tegra/sources/tegra/optee-src/nv-optee/optee/optee_os/ldelf/ta_elf_rel.c:539
    3c10:	f90017e6 	str	x6, [sp, #40]
    3c14:	17fffff5 	b	3be8 <e64_process_tls_tprel_rela+0x50>

0000000000003c18 <ta_elf_relocate>:
ta_elf_relocate():
/home/ssysarch/Desktop/nick/jetpack_5/Jetson_Linux_R35.4.1_aarch64/Linux_for_Tegra/sources/tegra/optee-src/nv-optee/optee/optee_os/ldelf/ta_elf_rel.c:735
    3c18:	a9b57bfd 	stp	x29, x30, [sp, #-176]!
    3c1c:	910003fd 	mov	x29, sp
    3c20:	a90153f3 	stp	x19, x20, [sp, #16]
    3c24:	aa0003f3 	mov	x19, x0
    3c28:	f9402c00 	ldr	x0, [x0, #88]
    3c2c:	f90037e0 	str	x0, [sp, #104]
/home/ssysarch/Desktop/nick/jetpack_5/Jetson_Linux_R35.4.1_aarch64/Linux_for_Tegra/sources/tegra/optee-src/nv-optee/optee/optee_os/ldelf/ta_elf_rel.c:738
    3c30:	39400660 	ldrb	w0, [x19, #1]
/home/ssysarch/Desktop/nick/jetpack_5/Jetson_Linux_R35.4.1_aarch64/Linux_for_Tegra/sources/tegra/optee-src/nv-optee/optee/optee_os/ldelf/ta_elf_rel.c:735
    3c34:	a9025bf5 	stp	x21, x22, [sp, #32]
    3c38:	a90363f7 	stp	x23, x24, [sp, #48]
    3c3c:	a9046bf9 	stp	x25, x26, [sp, #64]
    3c40:	a90573fb 	stp	x27, x28, [sp, #80]
/home/ssysarch/Desktop/nick/jetpack_5/Jetson_Linux_R35.4.1_aarch64/Linux_for_Tegra/sources/tegra/optee-src/nv-optee/optee/optee_os/ldelf/ta_elf_rel.c:738
    3c44:	35002720 	cbnz	w0, 4128 <ta_elf_relocate+0x510>
e64_process_tlsdesc_rela():
/home/ssysarch/Desktop/nick/jetpack_5/Jetson_Linux_R35.4.1_aarch64/Linux_for_Tegra/sources/tegra/optee-src/nv-optee/optee/optee_os/ldelf/ta_elf_rel.c:570
    3c48:	b000003c 	adrp	x28, 8000 <_DYNAMIC>
    3c4c:	f000001b 	adrp	x27, 6000 <kprintf.constprop.0+0x4c8>
    3c50:	9126a377 	add	x23, x27, #0x9a8
ta_elf_relocate():
/home/ssysarch/Desktop/nick/jetpack_5/Jetson_Linux_R35.4.1_aarch64/Linux_for_Tegra/sources/tegra/optee-src/nv-optee/optee/optee_os/ldelf/ta_elf_rel.c:747
    3c54:	d280001a 	mov	x26, #0x0                   	// #0
e64_process_tlsdesc_rela():
/home/ssysarch/Desktop/nick/jetpack_5/Jetson_Linux_R35.4.1_aarch64/Linux_for_Tegra/sources/tegra/optee-src/nv-optee/optee/optee_os/ldelf/ta_elf_rel.c:570
    3c58:	f940a780 	ldr	x0, [x28, #328]
    3c5c:	f9003be0 	str	x0, [sp, #112]
ta_elf_relocate():
/home/ssysarch/Desktop/nick/jetpack_5/Jetson_Linux_R35.4.1_aarch64/Linux_for_Tegra/sources/tegra/optee-src/nv-optee/optee/optee_os/ldelf/ta_elf_rel.c:747 (discriminator 1)
    3c60:	b9404667 	ldr	w7, [x19, #68]
    3c64:	2a0703e4 	mov	w4, w7
    3c68:	eb27435f 	cmp	x26, w7, uxtw
    3c6c:	540002a2 	b.cs	3cc0 <ta_elf_relocate+0xa8>  // b.hs, b.nlast
/home/ssysarch/Desktop/nick/jetpack_5/Jetson_Linux_R35.4.1_aarch64/Linux_for_Tegra/sources/tegra/optee-src/nv-optee/optee/optee_os/ldelf/ta_elf_rel.c:748
    3c70:	f94037e0 	ldr	x0, [sp, #104]
    3c74:	d37ae745 	lsl	x5, x26, #6
    3c78:	91001000 	add	x0, x0, #0x4
    3c7c:	b8656800 	ldr	w0, [x0, x5]
    3c80:	7100101f 	cmp	w0, #0x4
    3c84:	540025e0 	b.eq	4140 <ta_elf_relocate+0x528>  // b.none
/home/ssysarch/Desktop/nick/jetpack_5/Jetson_Linux_R35.4.1_aarch64/Linux_for_Tegra/sources/tegra/optee-src/nv-optee/optee/optee_os/ldelf/ta_elf_rel.c:747
    3c88:	9100075a 	add	x26, x26, #0x1
    3c8c:	17fffff5 	b	3c60 <ta_elf_relocate+0x48>
/home/ssysarch/Desktop/nick/jetpack_5/Jetson_Linux_R35.4.1_aarch64/Linux_for_Tegra/sources/tegra/optee-src/nv-optee/optee/optee_os/ldelf/ta_elf_rel.c:742
    3c90:	d2800502 	mov	x2, #0x28                  	// #40
    3c94:	f94037e4 	ldr	x4, [sp, #104]
    3c98:	9b027ea0 	mul	x0, x21, x2
    3c9c:	91001084 	add	x4, x4, #0x4
    3ca0:	b8606884 	ldr	w4, [x4, x0]
    3ca4:	7100249f 	cmp	w4, #0x9
    3ca8:	540001a0 	b.eq	3cdc <ta_elf_relocate+0xc4>  // b.none
/home/ssysarch/Desktop/nick/jetpack_5/Jetson_Linux_R35.4.1_aarch64/Linux_for_Tegra/sources/tegra/optee-src/nv-optee/optee/optee_os/ldelf/ta_elf_rel.c:741
    3cac:	910006b5 	add	x21, x21, #0x1
/home/ssysarch/Desktop/nick/jetpack_5/Jetson_Linux_R35.4.1_aarch64/Linux_for_Tegra/sources/tegra/optee-src/nv-optee/optee/optee_os/ldelf/ta_elf_rel.c:741 (discriminator 1)
    3cb0:	b9404663 	ldr	w3, [x19, #68]
    3cb4:	2a0303e1 	mov	w1, w3
    3cb8:	eb2342bf 	cmp	x21, w3, uxtw
    3cbc:	54fffea3 	b.cc	3c90 <ta_elf_relocate+0x78>  // b.lo, b.ul, b.last
/home/ssysarch/Desktop/nick/jetpack_5/Jetson_Linux_R35.4.1_aarch64/Linux_for_Tegra/sources/tegra/optee-src/nv-optee/optee/optee_os/ldelf/ta_elf_rel.c:752
    3cc0:	a94153f3 	ldp	x19, x20, [sp, #16]
    3cc4:	a9425bf5 	ldp	x21, x22, [sp, #32]
    3cc8:	a94363f7 	ldp	x23, x24, [sp, #48]
    3ccc:	a9446bf9 	ldp	x25, x26, [sp, #64]
    3cd0:	a94573fb 	ldp	x27, x28, [sp, #80]
    3cd4:	a8cb7bfd 	ldp	x29, x30, [sp], #176
    3cd8:	d65f03c0 	ret
e32_relocate():
/home/ssysarch/Desktop/nick/jetpack_5/Jetson_Linux_R35.4.1_aarch64/Linux_for_Tegra/sources/tegra/optee-src/nv-optee/optee/optee_os/ldelf/ta_elf_rel.c:338
    3cdc:	f9402e65 	ldr	x5, [x19, #88]
/home/ssysarch/Desktop/nick/jetpack_5/Jetson_Linux_R35.4.1_aarch64/Linux_for_Tegra/sources/tegra/optee-src/nv-optee/optee/optee_os/ldelf/ta_elf_rel.c:348
    3ce0:	8b0000a0 	add	x0, x5, x0
    3ce4:	b9400404 	ldr	w4, [x0, #4]
    3ce8:	7100249f 	cmp	w4, #0x9
    3cec:	54000140 	b.eq	3d14 <ta_elf_relocate+0xfc>  // b.none
_assert_trap():
/home/ssysarch/Desktop/nick/jetpack_5/Jetson_Linux_R35.4.1_aarch64/Linux_for_Tegra/sources/tegra/optee-src/nv-optee/optee/optee_os/lib/libutils/isoc/include/assert.h:19
    3cf0:	90000023 	adrp	x3, 7000 <trace_ext_prefix+0x509>
    3cf4:	91203463 	add	x3, x3, #0x80d
    3cf8:	90000021 	adrp	x1, 7000 <trace_ext_prefix+0x509>
    3cfc:	9116fc21 	add	x1, x1, #0x5bf
    3d00:	90000020 	adrp	x0, 7000 <trace_ext_prefix+0x509>
    3d04:	91174800 	add	x0, x0, #0x5d2
    3d08:	52802b82 	mov	w2, #0x15c                 	// #348
    3d0c:	940003c2 	bl	4c14 <_assert_log>
/home/ssysarch/Desktop/nick/jetpack_5/Jetson_Linux_R35.4.1_aarch64/Linux_for_Tegra/sources/tegra/optee-src/nv-optee/optee/optee_os/lib/libutils/isoc/include/assert.h:20
    3d10:	940003d2 	bl	4c58 <_assert_break>
e32_relocate():
/home/ssysarch/Desktop/nick/jetpack_5/Jetson_Linux_R35.4.1_aarch64/Linux_for_Tegra/sources/tegra/optee-src/nv-optee/optee/optee_os/ldelf/ta_elf_rel.c:350
    3d14:	b9402404 	ldr	w4, [x0, #36]
    3d18:	7100209f 	cmp	w4, #0x8
    3d1c:	54000120 	b.eq	3d40 <ta_elf_relocate+0x128>  // b.none
_assert_trap():
/home/ssysarch/Desktop/nick/jetpack_5/Jetson_Linux_R35.4.1_aarch64/Linux_for_Tegra/sources/tegra/optee-src/nv-optee/optee/optee_os/lib/libutils/isoc/include/assert.h:19
    3d20:	90000023 	adrp	x3, 7000 <trace_ext_prefix+0x509>
    3d24:	91203463 	add	x3, x3, #0x80d
    3d28:	90000021 	adrp	x1, 7000 <trace_ext_prefix+0x509>
    3d2c:	9116fc21 	add	x1, x1, #0x5bf
    3d30:	90000020 	adrp	x0, 7000 <trace_ext_prefix+0x509>
    3d34:	9117d000 	add	x0, x0, #0x5f4
    3d38:	52802bc2 	mov	w2, #0x15e                 	// #350
    3d3c:	17fffff4 	b	3d0c <ta_elf_relocate+0xf4>
e32_relocate():
/home/ssysarch/Desktop/nick/jetpack_5/Jetson_Linux_R35.4.1_aarch64/Linux_for_Tegra/sources/tegra/optee-src/nv-optee/optee/optee_os/ldelf/ta_elf_rel.c:352
    3d40:	b9401804 	ldr	w4, [x0, #24]
    3d44:	2a0403fc 	mov	w28, w4
/home/ssysarch/Desktop/nick/jetpack_5/Jetson_Linux_R35.4.1_aarch64/Linux_for_Tegra/sources/tegra/optee-src/nv-optee/optee/optee_os/ldelf/ta_elf_rel.c:353
    3d48:	34000a64 	cbz	w4, 3e94 <ta_elf_relocate+0x27c>
/home/ssysarch/Desktop/nick/jetpack_5/Jetson_Linux_R35.4.1_aarch64/Linux_for_Tegra/sources/tegra/optee-src/nv-optee/optee/optee_os/ldelf/ta_elf_rel.c:356
    3d4c:	6b04007f 	cmp	w3, w4
    3d50:	54000148 	b.hi	3d78 <ta_elf_relocate+0x160>  // b.pmore
/home/ssysarch/Desktop/nick/jetpack_5/Jetson_Linux_R35.4.1_aarch64/Linux_for_Tegra/sources/tegra/optee-src/nv-optee/optee/optee_os/ldelf/ta_elf_rel.c:357
    3d54:	90000024 	adrp	x4, 7000 <trace_ext_prefix+0x509>
    3d58:	91188c84 	add	x4, x4, #0x623
    3d5c:	52800023 	mov	w3, #0x1                   	// #1
    3d60:	52800022 	mov	w2, #0x1                   	// #1
    3d64:	52802ca1 	mov	w1, #0x165                 	// #357
/home/ssysarch/Desktop/nick/jetpack_5/Jetson_Linux_R35.4.1_aarch64/Linux_for_Tegra/sources/tegra/optee-src/nv-optee/optee/optee_os/ldelf/ta_elf_rel.c:367
    3d68:	90000020 	adrp	x0, 7000 <trace_ext_prefix+0x509>
    3d6c:	91203400 	add	x0, x0, #0x80d
e64_relocate():
/home/ssysarch/Desktop/nick/jetpack_5/Jetson_Linux_R35.4.1_aarch64/Linux_for_Tegra/sources/tegra/optee-src/nv-optee/optee/optee_os/ldelf/ta_elf_rel.c:668
    3d70:	94000ad7 	bl	68cc <trace_printf>
    3d74:	140000eb 	b	4120 <ta_elf_relocate+0x508>
confine_array_index():
/home/ssysarch/Desktop/nick/jetpack_5/Jetson_Linux_R35.4.1_aarch64/Linux_for_Tegra/sources/tegra/optee-src/nv-optee/optee/optee_os/lib/libutils/ext/include/confine_array_index.h:76
    3d78:	eb01039f 	cmp	x28, x1
    3d7c:	9a9f339c 	csel	x28, x28, xzr, cc  // cc = lo, ul, last
    3d80:	d503229f 	csdb
e32_relocate():
/home/ssysarch/Desktop/nick/jetpack_5/Jetson_Linux_R35.4.1_aarch64/Linux_for_Tegra/sources/tegra/optee-src/nv-optee/optee/optee_os/ldelf/ta_elf_rel.c:360
    3d84:	9b021782 	madd	x2, x28, x2, x5
    3d88:	b9402444 	ldr	w4, [x2, #36]
    3d8c:	7100409f 	cmp	w4, #0x10
    3d90:	54000120 	b.eq	3db4 <ta_elf_relocate+0x19c>  // b.none
_assert_trap():
/home/ssysarch/Desktop/nick/jetpack_5/Jetson_Linux_R35.4.1_aarch64/Linux_for_Tegra/sources/tegra/optee-src/nv-optee/optee/optee_os/lib/libutils/isoc/include/assert.h:19
    3d94:	90000023 	adrp	x3, 7000 <trace_ext_prefix+0x509>
    3d98:	91203463 	add	x3, x3, #0x80d
    3d9c:	90000021 	adrp	x1, 7000 <trace_ext_prefix+0x509>
    3da0:	9116fc21 	add	x1, x1, #0x5bf
    3da4:	90000020 	adrp	x0, 7000 <trace_ext_prefix+0x509>
    3da8:	9118f400 	add	x0, x0, #0x63d
    3dac:	52802d02 	mov	w2, #0x168                 	// #360
    3db0:	17ffffd7 	b	3d0c <ta_elf_relocate+0xf4>
e32_relocate():
/home/ssysarch/Desktop/nick/jetpack_5/Jetson_Linux_R35.4.1_aarch64/Linux_for_Tegra/sources/tegra/optee-src/nv-optee/optee/optee_os/ldelf/ta_elf_rel.c:366
    3db4:	a9409269 	ldp	x9, x4, [x19, #8]
/home/ssysarch/Desktop/nick/jetpack_5/Jetson_Linux_R35.4.1_aarch64/Linux_for_Tegra/sources/tegra/optee-src/nv-optee/optee/optee_os/ldelf/ta_elf_rel.c:363
    3db8:	b9400c5b 	ldr	w27, [x2, #12]
    3dbc:	b940145c 	ldr	w28, [x2, #20]
/home/ssysarch/Desktop/nick/jetpack_5/Jetson_Linux_R35.4.1_aarch64/Linux_for_Tegra/sources/tegra/optee-src/nv-optee/optee/optee_os/ldelf/ta_elf_rel.c:366
    3dc0:	cb090084 	sub	x4, x4, x9
/home/ssysarch/Desktop/nick/jetpack_5/Jetson_Linux_R35.4.1_aarch64/Linux_for_Tegra/sources/tegra/optee-src/nv-optee/optee/optee_os/ldelf/ta_elf_rel.c:363
    3dc4:	8b3c4366 	add	x6, x27, w28, uxtw
/home/ssysarch/Desktop/nick/jetpack_5/Jetson_Linux_R35.4.1_aarch64/Linux_for_Tegra/sources/tegra/optee-src/nv-optee/optee/optee_os/ldelf/ta_elf_rel.c:366
    3dc8:	eb0400df 	cmp	x6, x4
    3dcc:	540000e3 	b.cc	3de8 <ta_elf_relocate+0x1d0>  // b.lo, b.ul, b.last
/home/ssysarch/Desktop/nick/jetpack_5/Jetson_Linux_R35.4.1_aarch64/Linux_for_Tegra/sources/tegra/optee-src/nv-optee/optee/optee_os/ldelf/ta_elf_rel.c:367
    3dd0:	90000024 	adrp	x4, 7000 <trace_ext_prefix+0x509>
    3dd4:	9119bc84 	add	x4, x4, #0x66f
    3dd8:	52800023 	mov	w3, #0x1                   	// #1
    3ddc:	52800022 	mov	w2, #0x1                   	// #1
    3de0:	52802de1 	mov	w1, #0x16f                 	// #367
    3de4:	17ffffe1 	b	3d68 <ta_elf_relocate+0x150>
/home/ssysarch/Desktop/nick/jetpack_5/Jetson_Linux_R35.4.1_aarch64/Linux_for_Tegra/sources/tegra/optee-src/nv-optee/optee/optee_os/ldelf/ta_elf_rel.c:374
    3de8:	b9401842 	ldr	w2, [x2, #24]
/home/ssysarch/Desktop/nick/jetpack_5/Jetson_Linux_R35.4.1_aarch64/Linux_for_Tegra/sources/tegra/optee-src/nv-optee/optee/optee_os/ldelf/ta_elf_rel.c:369
    3dec:	8b09037b 	add	x27, x27, x9
/home/ssysarch/Desktop/nick/jetpack_5/Jetson_Linux_R35.4.1_aarch64/Linux_for_Tegra/sources/tegra/optee-src/nv-optee/optee/optee_os/ldelf/ta_elf_rel.c:372
    3df0:	53047f9c 	lsr	w28, w28, #4
/home/ssysarch/Desktop/nick/jetpack_5/Jetson_Linux_R35.4.1_aarch64/Linux_for_Tegra/sources/tegra/optee-src/nv-optee/optee/optee_os/ldelf/ta_elf_rel.c:374
    3df4:	2a0203f9 	mov	w25, w2
/home/ssysarch/Desktop/nick/jetpack_5/Jetson_Linux_R35.4.1_aarch64/Linux_for_Tegra/sources/tegra/optee-src/nv-optee/optee/optee_os/ldelf/ta_elf_rel.c:375
    3df8:	34000562 	cbz	w2, 3ea4 <ta_elf_relocate+0x28c>
/home/ssysarch/Desktop/nick/jetpack_5/Jetson_Linux_R35.4.1_aarch64/Linux_for_Tegra/sources/tegra/optee-src/nv-optee/optee/optee_os/ldelf/ta_elf_rel.c:376
    3dfc:	6b02007f 	cmp	w3, w2
    3e00:	540000e8 	b.hi	3e1c <ta_elf_relocate+0x204>  // b.pmore
/home/ssysarch/Desktop/nick/jetpack_5/Jetson_Linux_R35.4.1_aarch64/Linux_for_Tegra/sources/tegra/optee-src/nv-optee/optee/optee_os/ldelf/ta_elf_rel.c:377
    3e04:	90000024 	adrp	x4, 7000 <trace_ext_prefix+0x509>
    3e08:	911a0c84 	add	x4, x4, #0x683
    3e0c:	52800023 	mov	w3, #0x1                   	// #1
    3e10:	52800022 	mov	w2, #0x1                   	// #1
    3e14:	52802f21 	mov	w1, #0x179                 	// #377
    3e18:	17ffffd4 	b	3d68 <ta_elf_relocate+0x150>
confine_array_index():
/home/ssysarch/Desktop/nick/jetpack_5/Jetson_Linux_R35.4.1_aarch64/Linux_for_Tegra/sources/tegra/optee-src/nv-optee/optee/optee_os/lib/libutils/ext/include/confine_array_index.h:76
    3e1c:	eb01033f 	cmp	x25, x1
    3e20:	9a9f332b 	csel	x11, x25, xzr, cc  // cc = lo, ul, last
    3e24:	d503229f 	csdb
e32_relocate():
/home/ssysarch/Desktop/nick/jetpack_5/Jetson_Linux_R35.4.1_aarch64/Linux_for_Tegra/sources/tegra/optee-src/nv-optee/optee/optee_os/ldelf/ta_elf_rel.c:383
    3e28:	d2800501 	mov	x1, #0x28                  	// #40
    3e2c:	9b01156b 	madd	x11, x11, x1, x5
    3e30:	b9400d61 	ldr	w1, [x11, #12]
    3e34:	b9401579 	ldr	w25, [x11, #20]
    3e38:	8b190022 	add	x2, x1, x25
/home/ssysarch/Desktop/nick/jetpack_5/Jetson_Linux_R35.4.1_aarch64/Linux_for_Tegra/sources/tegra/optee-src/nv-optee/optee/optee_os/ldelf/ta_elf_rel.c:386
    3e3c:	eb02009f 	cmp	x4, x2
    3e40:	540000e8 	b.hi	3e5c <ta_elf_relocate+0x244>  // b.pmore
/home/ssysarch/Desktop/nick/jetpack_5/Jetson_Linux_R35.4.1_aarch64/Linux_for_Tegra/sources/tegra/optee-src/nv-optee/optee/optee_os/ldelf/ta_elf_rel.c:387
    3e44:	90000024 	adrp	x4, 7000 <trace_ext_prefix+0x509>
    3e48:	91041c84 	add	x4, x4, #0x107
    3e4c:	52800023 	mov	w3, #0x1                   	// #1
    3e50:	52800022 	mov	w2, #0x1                   	// #1
    3e54:	52803061 	mov	w1, #0x183                 	// #387
    3e58:	17ffffc4 	b	3d68 <ta_elf_relocate+0x150>
/home/ssysarch/Desktop/nick/jetpack_5/Jetson_Linux_R35.4.1_aarch64/Linux_for_Tegra/sources/tegra/optee-src/nv-optee/optee/optee_os/ldelf/ta_elf_rel.c:390
    3e5c:	8b01013a 	add	x26, x9, x1
/home/ssysarch/Desktop/nick/jetpack_5/Jetson_Linux_R35.4.1_aarch64/Linux_for_Tegra/sources/tegra/optee-src/nv-optee/optee/optee_os/ldelf/ta_elf_rel.c:397
    3e60:	b9400c08 	ldr	w8, [x0, #12]
    3e64:	b9401414 	ldr	w20, [x0, #20]
/home/ssysarch/Desktop/nick/jetpack_5/Jetson_Linux_R35.4.1_aarch64/Linux_for_Tegra/sources/tegra/optee-src/nv-optee/optee/optee_os/ldelf/ta_elf_rel.c:400
    3e68:	a9408261 	ldp	x1, x0, [x19, #8]
/home/ssysarch/Desktop/nick/jetpack_5/Jetson_Linux_R35.4.1_aarch64/Linux_for_Tegra/sources/tegra/optee-src/nv-optee/optee/optee_os/ldelf/ta_elf_rel.c:397
    3e6c:	8b344102 	add	x2, x8, w20, uxtw
/home/ssysarch/Desktop/nick/jetpack_5/Jetson_Linux_R35.4.1_aarch64/Linux_for_Tegra/sources/tegra/optee-src/nv-optee/optee/optee_os/ldelf/ta_elf_rel.c:400
    3e70:	cb010000 	sub	x0, x0, x1
    3e74:	eb00005f 	cmp	x2, x0
    3e78:	540001a3 	b.cc	3eac <ta_elf_relocate+0x294>  // b.lo, b.ul, b.last
/home/ssysarch/Desktop/nick/jetpack_5/Jetson_Linux_R35.4.1_aarch64/Linux_for_Tegra/sources/tegra/optee-src/nv-optee/optee/optee_os/ldelf/ta_elf_rel.c:401
    3e7c:	90000024 	adrp	x4, 7000 <trace_ext_prefix+0x509>
    3e80:	911a7484 	add	x4, x4, #0x69d
    3e84:	52800023 	mov	w3, #0x1                   	// #1
    3e88:	52800022 	mov	w2, #0x1                   	// #1
    3e8c:	52803221 	mov	w1, #0x191                 	// #401
    3e90:	17ffffb6 	b	3d68 <ta_elf_relocate+0x150>
/home/ssysarch/Desktop/nick/jetpack_5/Jetson_Linux_R35.4.1_aarch64/Linux_for_Tegra/sources/tegra/optee-src/nv-optee/optee/optee_os/ldelf/ta_elf_rel.c:346
    3e94:	d2800019 	mov	x25, #0x0                   	// #0
/home/ssysarch/Desktop/nick/jetpack_5/Jetson_Linux_R35.4.1_aarch64/Linux_for_Tegra/sources/tegra/optee-src/nv-optee/optee/optee_os/ldelf/ta_elf_rel.c:345
    3e98:	d280001a 	mov	x26, #0x0                   	// #0
/home/ssysarch/Desktop/nick/jetpack_5/Jetson_Linux_R35.4.1_aarch64/Linux_for_Tegra/sources/tegra/optee-src/nv-optee/optee/optee_os/ldelf/ta_elf_rel.c:342
    3e9c:	d280001b 	mov	x27, #0x0                   	// #0
    3ea0:	17fffff0 	b	3e60 <ta_elf_relocate+0x248>
/home/ssysarch/Desktop/nick/jetpack_5/Jetson_Linux_R35.4.1_aarch64/Linux_for_Tegra/sources/tegra/optee-src/nv-optee/optee/optee_os/ldelf/ta_elf_rel.c:345
    3ea4:	d280001a 	mov	x26, #0x0                   	// #0
    3ea8:	17ffffee 	b	3e60 <ta_elf_relocate+0x248>
/home/ssysarch/Desktop/nick/jetpack_5/Jetson_Linux_R35.4.1_aarch64/Linux_for_Tegra/sources/tegra/optee-src/nv-optee/optee/optee_os/ldelf/ta_elf_rel.c:402
    3eac:	8b010116 	add	x22, x8, x1
/home/ssysarch/Desktop/nick/jetpack_5/Jetson_Linux_R35.4.1_aarch64/Linux_for_Tegra/sources/tegra/optee-src/nv-optee/optee/optee_os/ldelf/ta_elf_rel.c:404
    3eb0:	927d7294 	and	x20, x20, #0xfffffff8
    3eb4:	8b1402c0 	add	x0, x22, x20
    3eb8:	f9003be0 	str	x0, [sp, #112]
e32_tls_resolve():
/home/ssysarch/Desktop/nick/jetpack_5/Jetson_Linux_R35.4.1_aarch64/Linux_for_Tegra/sources/tegra/optee-src/nv-optee/optee/optee_os/ldelf/ta_elf_rel.c:333
    3ebc:	910283e0 	add	x0, sp, #0xa0
    3ec0:	f9003fe0 	str	x0, [sp, #120]
e32_tls_get_module():
/home/ssysarch/Desktop/nick/jetpack_5/Jetson_Linux_R35.4.1_aarch64/Linux_for_Tegra/sources/tegra/optee-src/nv-optee/optee/optee_os/ldelf/ta_elf_rel.c:322
    3ec4:	910263e0 	add	x0, sp, #0x98
    3ec8:	f90043e0 	str	x0, [sp, #128]
e32_relocate():
/home/ssysarch/Desktop/nick/jetpack_5/Jetson_Linux_R35.4.1_aarch64/Linux_for_Tegra/sources/tegra/optee-src/nv-optee/optee/optee_os/ldelf/ta_elf_rel.c:405
    3ecc:	f9403be0 	ldr	x0, [sp, #112]
    3ed0:	eb16001f 	cmp	x0, x22
    3ed4:	54ffeec9 	b.ls	3cac <ta_elf_relocate+0x94>  // b.plast
/home/ssysarch/Desktop/nick/jetpack_5/Jetson_Linux_R35.4.1_aarch64/Linux_for_Tegra/sources/tegra/optee-src/nv-optee/optee/optee_os/ldelf/ta_elf_rel.c:412
    3ed8:	a9408274 	ldp	x20, x0, [x19, #8]
    3edc:	b94002c1 	ldr	w1, [x22]
/home/ssysarch/Desktop/nick/jetpack_5/Jetson_Linux_R35.4.1_aarch64/Linux_for_Tegra/sources/tegra/optee-src/nv-optee/optee/optee_os/ldelf/ta_elf_rel.c:409
    3ee0:	a909ffff 	stp	xzr, xzr, [sp, #152]
/home/ssysarch/Desktop/nick/jetpack_5/Jetson_Linux_R35.4.1_aarch64/Linux_for_Tegra/sources/tegra/optee-src/nv-optee/optee/optee_os/ldelf/ta_elf_rel.c:412
    3ee4:	2a0103f7 	mov	w23, w1
    3ee8:	cb140000 	sub	x0, x0, x20
    3eec:	eb21401f 	cmp	x0, w1, uxtw
    3ef0:	540000e8 	b.hi	3f0c <ta_elf_relocate+0x2f4>  // b.pmore
/home/ssysarch/Desktop/nick/jetpack_5/Jetson_Linux_R35.4.1_aarch64/Linux_for_Tegra/sources/tegra/optee-src/nv-optee/optee/optee_os/ldelf/ta_elf_rel.c:413
    3ef4:	90000024 	adrp	x4, 7000 <trace_ext_prefix+0x509>
    3ef8:	911ad484 	add	x4, x4, #0x6b5
    3efc:	52800023 	mov	w3, #0x1                   	// #1
    3f00:	52800022 	mov	w2, #0x1                   	// #1
    3f04:	528033a1 	mov	w1, #0x19d                 	// #413
    3f08:	17ffff98 	b	3d68 <ta_elf_relocate+0x150>
/home/ssysarch/Desktop/nick/jetpack_5/Jetson_Linux_R35.4.1_aarch64/Linux_for_Tegra/sources/tegra/optee-src/nv-optee/optee/optee_os/ldelf/ta_elf_rel.c:417
    3f0c:	b94006c4 	ldr	w4, [x22, #4]
/home/ssysarch/Desktop/nick/jetpack_5/Jetson_Linux_R35.4.1_aarch64/Linux_for_Tegra/sources/tegra/optee-src/nv-optee/optee/optee_os/ldelf/ta_elf_rel.c:415
    3f10:	8b1402e5 	add	x5, x23, x20
/home/ssysarch/Desktop/nick/jetpack_5/Jetson_Linux_R35.4.1_aarch64/Linux_for_Tegra/sources/tegra/optee-src/nv-optee/optee/optee_os/ldelf/ta_elf_rel.c:417
    3f14:	12001c80 	and	w0, w4, #0xff
    3f18:	71005c1f 	cmp	w0, #0x17
    3f1c:	54000f08 	b.hi	40fc <ta_elf_relocate+0x4e4>  // b.pmore
    3f20:	f94047e2 	ldr	x2, [sp, #136]
    3f24:	38604842 	ldrb	w2, [x2, w0, uxtw]
    3f28:	10000063 	adr	x3, 3f34 <ta_elf_relocate+0x31c>
    3f2c:	8b228862 	add	x2, x3, w2, sxtb #2
    3f30:	d61f0040 	br	x2
/home/ssysarch/Desktop/nick/jetpack_5/Jetson_Linux_R35.4.1_aarch64/Linux_for_Tegra/sources/tegra/optee-src/nv-optee/optee/optee_os/ldelf/ta_elf_rel.c:426
    3f34:	53087c84 	lsr	w4, w4, #8
/home/ssysarch/Desktop/nick/jetpack_5/Jetson_Linux_R35.4.1_aarch64/Linux_for_Tegra/sources/tegra/optee-src/nv-optee/optee/optee_os/ldelf/ta_elf_rel.c:427
    3f38:	eb1c009f 	cmp	x4, x28
    3f3c:	540000e3 	b.cc	3f58 <ta_elf_relocate+0x340>  // b.lo, b.ul, b.last
/home/ssysarch/Desktop/nick/jetpack_5/Jetson_Linux_R35.4.1_aarch64/Linux_for_Tegra/sources/tegra/optee-src/nv-optee/optee/optee_os/ldelf/ta_elf_rel.c:428
    3f40:	90000024 	adrp	x4, 7000 <trace_ext_prefix+0x509>
    3f44:	9115e484 	add	x4, x4, #0x579
    3f48:	52800023 	mov	w3, #0x1                   	// #1
    3f4c:	52800022 	mov	w2, #0x1                   	// #1
    3f50:	52803581 	mov	w1, #0x1ac                 	// #428
    3f54:	17ffff85 	b	3d68 <ta_elf_relocate+0x150>
/home/ssysarch/Desktop/nick/jetpack_5/Jetson_Linux_R35.4.1_aarch64/Linux_for_Tegra/sources/tegra/optee-src/nv-optee/optee/optee_os/ldelf/ta_elf_rel.c:430
    3f58:	8b041364 	add	x4, x27, x4, lsl #4
    3f5c:	79401c80 	ldrh	w0, [x4, #14]
    3f60:	35000120 	cbnz	w0, 3f84 <ta_elf_relocate+0x36c>
/home/ssysarch/Desktop/nick/jetpack_5/Jetson_Linux_R35.4.1_aarch64/Linux_for_Tegra/sources/tegra/optee-src/nv-optee/optee/optee_os/ldelf/ta_elf_rel.c:454
    3f64:	aa1603e4 	mov	x4, x22
    3f68:	aa1903e3 	mov	x3, x25
    3f6c:	aa1a03e2 	mov	x2, x26
    3f70:	aa1c03e1 	mov	x1, x28
    3f74:	aa1b03e0 	mov	x0, x27
    3f78:	97fffede 	bl	3af0 <e32_process_dyn_rel>
/home/ssysarch/Desktop/nick/jetpack_5/Jetson_Linux_R35.4.1_aarch64/Linux_for_Tegra/sources/tegra/optee-src/nv-optee/optee/optee_os/ldelf/ta_elf_rel.c:405
    3f7c:	910022d6 	add	x22, x22, #0x8
    3f80:	17ffffd3 	b	3ecc <ta_elf_relocate+0x2b4>
/home/ssysarch/Desktop/nick/jetpack_5/Jetson_Linux_R35.4.1_aarch64/Linux_for_Tegra/sources/tegra/optee-src/nv-optee/optee/optee_os/ldelf/ta_elf_rel.c:435
    3f84:	b8746ae0 	ldr	w0, [x23, x20]
    3f88:	b9400481 	ldr	w1, [x4, #4]
    3f8c:	0b140000 	add	w0, w0, w20
/home/ssysarch/Desktop/nick/jetpack_5/Jetson_Linux_R35.4.1_aarch64/Linux_for_Tegra/sources/tegra/optee-src/nv-optee/optee/optee_os/ldelf/ta_elf_rel.c:444
    3f90:	0b010000 	add	w0, w0, w1
/home/ssysarch/Desktop/nick/jetpack_5/Jetson_Linux_R35.4.1_aarch64/Linux_for_Tegra/sources/tegra/optee-src/nv-optee/optee/optee_os/ldelf/ta_elf_rel.c:472
    3f94:	b8346ae0 	str	w0, [x23, x20]
/home/ssysarch/Desktop/nick/jetpack_5/Jetson_Linux_R35.4.1_aarch64/Linux_for_Tegra/sources/tegra/optee-src/nv-optee/optee/optee_os/ldelf/ta_elf_rel.c:473
    3f98:	17fffff9 	b	3f7c <ta_elf_relocate+0x364>
/home/ssysarch/Desktop/nick/jetpack_5/Jetson_Linux_R35.4.1_aarch64/Linux_for_Tegra/sources/tegra/optee-src/nv-optee/optee/optee_os/ldelf/ta_elf_rel.c:440
    3f9c:	53087c84 	lsr	w4, w4, #8
/home/ssysarch/Desktop/nick/jetpack_5/Jetson_Linux_R35.4.1_aarch64/Linux_for_Tegra/sources/tegra/optee-src/nv-optee/optee/optee_os/ldelf/ta_elf_rel.c:441
    3fa0:	eb04039f 	cmp	x28, x4
    3fa4:	540000e8 	b.hi	3fc0 <ta_elf_relocate+0x3a8>  // b.pmore
/home/ssysarch/Desktop/nick/jetpack_5/Jetson_Linux_R35.4.1_aarch64/Linux_for_Tegra/sources/tegra/optee-src/nv-optee/optee/optee_os/ldelf/ta_elf_rel.c:442
    3fa8:	90000024 	adrp	x4, 7000 <trace_ext_prefix+0x509>
    3fac:	9115e484 	add	x4, x4, #0x579
    3fb0:	52800023 	mov	w3, #0x1                   	// #1
    3fb4:	52800022 	mov	w2, #0x1                   	// #1
    3fb8:	52803741 	mov	w1, #0x1ba                 	// #442
    3fbc:	17ffff6b 	b	3d68 <ta_elf_relocate+0x150>
/home/ssysarch/Desktop/nick/jetpack_5/Jetson_Linux_R35.4.1_aarch64/Linux_for_Tegra/sources/tegra/optee-src/nv-optee/optee/optee_os/ldelf/ta_elf_rel.c:444
    3fc0:	8b041364 	add	x4, x27, x4, lsl #4
    3fc4:	b8746ae0 	ldr	w0, [x23, x20]
    3fc8:	4b010001 	sub	w1, w0, w1
    3fcc:	b9400480 	ldr	w0, [x4, #4]
    3fd0:	17fffff0 	b	3f90 <ta_elf_relocate+0x378>
/home/ssysarch/Desktop/nick/jetpack_5/Jetson_Linux_R35.4.1_aarch64/Linux_for_Tegra/sources/tegra/optee-src/nv-optee/optee/optee_os/ldelf/ta_elf_rel.c:447
    3fd4:	b8746ae0 	ldr	w0, [x23, x20]
    3fd8:	0b140000 	add	w0, w0, w20
    3fdc:	17ffffee 	b	3f94 <ta_elf_relocate+0x37c>
/home/ssysarch/Desktop/nick/jetpack_5/Jetson_Linux_R35.4.1_aarch64/Linux_for_Tegra/sources/tegra/optee-src/nv-optee/optee/optee_os/ldelf/ta_elf_rel.c:451
    3fe0:	b5fffc3b 	cbnz	x27, 3f64 <ta_elf_relocate+0x34c>
/home/ssysarch/Desktop/nick/jetpack_5/Jetson_Linux_R35.4.1_aarch64/Linux_for_Tegra/sources/tegra/optee-src/nv-optee/optee/optee_os/ldelf/ta_elf_rel.c:452
    3fe4:	90000024 	adrp	x4, 7000 <trace_ext_prefix+0x509>
    3fe8:	911b5084 	add	x4, x4, #0x6d4
    3fec:	52800023 	mov	w3, #0x1                   	// #1
    3ff0:	52800022 	mov	w2, #0x1                   	// #1
    3ff4:	52803881 	mov	w1, #0x1c4                 	// #452
    3ff8:	17ffff5c 	b	3d68 <ta_elf_relocate+0x150>
/home/ssysarch/Desktop/nick/jetpack_5/Jetson_Linux_R35.4.1_aarch64/Linux_for_Tegra/sources/tegra/optee-src/nv-optee/optee/optee_os/ldelf/ta_elf_rel.c:458
    3ffc:	b50000fb 	cbnz	x27, 4018 <ta_elf_relocate+0x400>
/home/ssysarch/Desktop/nick/jetpack_5/Jetson_Linux_R35.4.1_aarch64/Linux_for_Tegra/sources/tegra/optee-src/nv-optee/optee/optee_os/ldelf/ta_elf_rel.c:459
    4000:	f0000004 	adrp	x4, 7000 <trace_ext_prefix+0x509>
    4004:	911b5084 	add	x4, x4, #0x6d4
    4008:	52800023 	mov	w3, #0x1                   	// #1
    400c:	52800022 	mov	w2, #0x1                   	// #1
    4010:	52803961 	mov	w1, #0x1cb                 	// #459
    4014:	17ffff55 	b	3d68 <ta_elf_relocate+0x150>
/home/ssysarch/Desktop/nick/jetpack_5/Jetson_Linux_R35.4.1_aarch64/Linux_for_Tegra/sources/tegra/optee-src/nv-optee/optee/optee_os/ldelf/ta_elf_rel.c:461
    4018:	f9004ff3 	str	x19, [sp, #152]
e32_tls_get_module():
/home/ssysarch/Desktop/nick/jetpack_5/Jetson_Linux_R35.4.1_aarch64/Linux_for_Tegra/sources/tegra/optee-src/nv-optee/optee/optee_os/ldelf/ta_elf_rel.c:311
    401c:	53087c80 	lsr	w0, w4, #8
/home/ssysarch/Desktop/nick/jetpack_5/Jetson_Linux_R35.4.1_aarch64/Linux_for_Tegra/sources/tegra/optee-src/nv-optee/optee/optee_os/ldelf/ta_elf_rel.c:308
    4020:	f90057ff 	str	xzr, [sp, #168]
/home/ssysarch/Desktop/nick/jetpack_5/Jetson_Linux_R35.4.1_aarch64/Linux_for_Tegra/sources/tegra/optee-src/nv-optee/optee/optee_os/ldelf/ta_elf_rel.c:312
    4024:	eb00039f 	cmp	x28, x0
    4028:	54000128 	b.hi	404c <ta_elf_relocate+0x434>  // b.pmore
/home/ssysarch/Desktop/nick/jetpack_5/Jetson_Linux_R35.4.1_aarch64/Linux_for_Tegra/sources/tegra/optee-src/nv-optee/optee/optee_os/ldelf/ta_elf_rel.c:313
    402c:	f0000004 	adrp	x4, 7000 <trace_ext_prefix+0x509>
    4030:	9115e484 	add	x4, x4, #0x579
    4034:	f0000000 	adrp	x0, 7000 <trace_ext_prefix+0x509>
    4038:	911fe800 	add	x0, x0, #0x7fa
    403c:	52800023 	mov	w3, #0x1                   	// #1
    4040:	52800022 	mov	w2, #0x1                   	// #1
    4044:	52802721 	mov	w1, #0x139                 	// #313
    4048:	17ffff4a 	b	3d70 <ta_elf_relocate+0x158>
confine_array_index():
/home/ssysarch/Desktop/nick/jetpack_5/Jetson_Linux_R35.4.1_aarch64/Linux_for_Tegra/sources/tegra/optee-src/nv-optee/optee/optee_os/lib/libutils/ext/include/confine_array_index.h:76
    404c:	eb1c001f 	cmp	x0, x28
    4050:	9a9f3000 	csel	x0, x0, xzr, cc  // cc = lo, ul, last
    4054:	d503229f 	csdb
e32_tls_get_module():
/home/ssysarch/Desktop/nick/jetpack_5/Jetson_Linux_R35.4.1_aarch64/Linux_for_Tegra/sources/tegra/optee-src/nv-optee/optee/optee_os/ldelf/ta_elf_rel.c:315
    4058:	b4000200 	cbz	x0, 4098 <ta_elf_relocate+0x480>
    405c:	8b001360 	add	x0, x27, x0, lsl #4
    4060:	79401c00 	ldrh	w0, [x0, #14]
    4064:	350001a0 	cbnz	w0, 4098 <ta_elf_relocate+0x480>
/home/ssysarch/Desktop/nick/jetpack_5/Jetson_Linux_R35.4.1_aarch64/Linux_for_Tegra/sources/tegra/optee-src/nv-optee/optee/optee_os/ldelf/ta_elf_rel.c:320
    4068:	aa1903e3 	mov	x3, x25
    406c:	aa1a03e2 	mov	x2, x26
    4070:	aa1c03e1 	mov	x1, x28
    4074:	aa1b03e0 	mov	x0, x27
    4078:	aa1803e5 	mov	x5, x24
    407c:	d2800006 	mov	x6, #0x0                   	// #0
    4080:	97fffdfb 	bl	386c <e32_get_sym_name.isra.0>
/home/ssysarch/Desktop/nick/jetpack_5/Jetson_Linux_R35.4.1_aarch64/Linux_for_Tegra/sources/tegra/optee-src/nv-optee/optee/optee_os/ldelf/ta_elf_rel.c:322
    4084:	f94043e2 	ldr	x2, [sp, #128]
    4088:	52800003 	mov	w3, #0x0                   	// #0
    408c:	f94057e0 	ldr	x0, [sp, #168]
    4090:	d2800001 	mov	x1, #0x0                   	// #0
    4094:	97fffe7b 	bl	3a80 <resolve_sym>
e32_relocate():
/home/ssysarch/Desktop/nick/jetpack_5/Jetson_Linux_R35.4.1_aarch64/Linux_for_Tegra/sources/tegra/optee-src/nv-optee/optee/optee_os/ldelf/ta_elf_rel.c:464
    4098:	f9404fe0 	ldr	x0, [sp, #152]
    409c:	f9406000 	ldr	x0, [x0, #192]
    40a0:	17ffffbd 	b	3f94 <ta_elf_relocate+0x37c>
/home/ssysarch/Desktop/nick/jetpack_5/Jetson_Linux_R35.4.1_aarch64/Linux_for_Tegra/sources/tegra/optee-src/nv-optee/optee/optee_os/ldelf/ta_elf_rel.c:467
    40a4:	b50000fb 	cbnz	x27, 40c0 <ta_elf_relocate+0x4a8>
/home/ssysarch/Desktop/nick/jetpack_5/Jetson_Linux_R35.4.1_aarch64/Linux_for_Tegra/sources/tegra/optee-src/nv-optee/optee/optee_os/ldelf/ta_elf_rel.c:468
    40a8:	f0000004 	adrp	x4, 7000 <trace_ext_prefix+0x509>
    40ac:	911b5084 	add	x4, x4, #0x6d4
    40b0:	52800023 	mov	w3, #0x1                   	// #1
    40b4:	52800022 	mov	w2, #0x1                   	// #1
    40b8:	52803a81 	mov	w1, #0x1d4                 	// #468
    40bc:	17ffff2b 	b	3d68 <ta_elf_relocate+0x150>
e32_tls_resolve():
/home/ssysarch/Desktop/nick/jetpack_5/Jetson_Linux_R35.4.1_aarch64/Linux_for_Tegra/sources/tegra/optee-src/nv-optee/optee/optee_os/ldelf/ta_elf_rel.c:331
    40c0:	aa1803e5 	mov	x5, x24
    40c4:	aa1903e3 	mov	x3, x25
    40c8:	aa1a03e2 	mov	x2, x26
    40cc:	aa1c03e1 	mov	x1, x28
    40d0:	aa1b03e0 	mov	x0, x27
    40d4:	d2800006 	mov	x6, #0x0                   	// #0
/home/ssysarch/Desktop/nick/jetpack_5/Jetson_Linux_R35.4.1_aarch64/Linux_for_Tegra/sources/tegra/optee-src/nv-optee/optee/optee_os/ldelf/ta_elf_rel.c:329
    40d8:	f90057ff 	str	xzr, [sp, #168]
/home/ssysarch/Desktop/nick/jetpack_5/Jetson_Linux_R35.4.1_aarch64/Linux_for_Tegra/sources/tegra/optee-src/nv-optee/optee/optee_os/ldelf/ta_elf_rel.c:331
    40dc:	97fffde4 	bl	386c <e32_get_sym_name.isra.0>
/home/ssysarch/Desktop/nick/jetpack_5/Jetson_Linux_R35.4.1_aarch64/Linux_for_Tegra/sources/tegra/optee-src/nv-optee/optee/optee_os/ldelf/ta_elf_rel.c:333
    40e0:	f9403fe1 	ldr	x1, [sp, #120]
    40e4:	52800003 	mov	w3, #0x0                   	// #0
    40e8:	f94057e0 	ldr	x0, [sp, #168]
    40ec:	d2800002 	mov	x2, #0x0                   	// #0
    40f0:	97fffe64 	bl	3a80 <resolve_sym>
e32_relocate():
/home/ssysarch/Desktop/nick/jetpack_5/Jetson_Linux_R35.4.1_aarch64/Linux_for_Tegra/sources/tegra/optee-src/nv-optee/optee/optee_os/ldelf/ta_elf_rel.c:472
    40f4:	f94053e0 	ldr	x0, [sp, #160]
    40f8:	17ffffa7 	b	3f94 <ta_elf_relocate+0x37c>
/home/ssysarch/Desktop/nick/jetpack_5/Jetson_Linux_R35.4.1_aarch64/Linux_for_Tegra/sources/tegra/optee-src/nv-optee/optee/optee_os/ldelf/ta_elf_rel.c:475
    40fc:	2a0003e5 	mov	w5, w0
    4100:	f0000004 	adrp	x4, 7000 <trace_ext_prefix+0x509>
    4104:	911ba484 	add	x4, x4, #0x6e9
    4108:	f0000000 	adrp	x0, 7000 <trace_ext_prefix+0x509>
    410c:	91203400 	add	x0, x0, #0x80d
    4110:	52800023 	mov	w3, #0x1                   	// #1
    4114:	52800022 	mov	w2, #0x1                   	// #1
    4118:	52803b61 	mov	w1, #0x1db                 	// #475
    411c:	940009ec 	bl	68cc <trace_printf>
e64_relocate():
/home/ssysarch/Desktop/nick/jetpack_5/Jetson_Linux_R35.4.1_aarch64/Linux_for_Tegra/sources/tegra/optee-src/nv-optee/optee/optee_os/ldelf/ta_elf_rel.c:721
    4120:	129fff40 	mov	w0, #0xffff0005            	// #-65531
    4124:	97fff011 	bl	168 <_ldelf_return>
    4128:	d0000016 	adrp	x22, 6000 <kprintf.constprop.0+0x4c8>
    412c:	912642c0 	add	x0, x22, #0x990
e32_tls_resolve():
/home/ssysarch/Desktop/nick/jetpack_5/Jetson_Linux_R35.4.1_aarch64/Linux_for_Tegra/sources/tegra/optee-src/nv-optee/optee/optee_os/ldelf/ta_elf_rel.c:331
    4130:	9102a3f8 	add	x24, sp, #0xa8
ta_elf_relocate():
/home/ssysarch/Desktop/nick/jetpack_5/Jetson_Linux_R35.4.1_aarch64/Linux_for_Tegra/sources/tegra/optee-src/nv-optee/optee/optee_os/ldelf/ta_elf_rel.c:741
    4134:	d2800015 	mov	x21, #0x0                   	// #0
    4138:	f90047e0 	str	x0, [sp, #136]
    413c:	17fffedd 	b	3cb0 <ta_elf_relocate+0x98>
e64_relocate():
/home/ssysarch/Desktop/nick/jetpack_5/Jetson_Linux_R35.4.1_aarch64/Linux_for_Tegra/sources/tegra/optee-src/nv-optee/optee/optee_os/ldelf/ta_elf_rel.c:578
    4140:	f9402e62 	ldr	x2, [x19, #88]
/home/ssysarch/Desktop/nick/jetpack_5/Jetson_Linux_R35.4.1_aarch64/Linux_for_Tegra/sources/tegra/optee-src/nv-optee/optee/optee_os/ldelf/ta_elf_rel.c:588
    4144:	8b050045 	add	x5, x2, x5
    4148:	b94004a0 	ldr	w0, [x5, #4]
    414c:	7100101f 	cmp	w0, #0x4
    4150:	54000120 	b.eq	4174 <ta_elf_relocate+0x55c>  // b.none
_assert_trap():
/home/ssysarch/Desktop/nick/jetpack_5/Jetson_Linux_R35.4.1_aarch64/Linux_for_Tegra/sources/tegra/optee-src/nv-optee/optee/optee_os/lib/libutils/isoc/include/assert.h:19
    4154:	f0000003 	adrp	x3, 7000 <trace_ext_prefix+0x509>
    4158:	9120ac63 	add	x3, x3, #0x82b
    415c:	f0000001 	adrp	x1, 7000 <trace_ext_prefix+0x509>
    4160:	9116fc21 	add	x1, x1, #0x5bf
    4164:	f0000000 	adrp	x0, 7000 <trace_ext_prefix+0x509>
    4168:	911c1000 	add	x0, x0, #0x704
    416c:	52804982 	mov	w2, #0x24c                 	// #588
    4170:	17fffee7 	b	3d0c <ta_elf_relocate+0xf4>
e64_relocate():
/home/ssysarch/Desktop/nick/jetpack_5/Jetson_Linux_R35.4.1_aarch64/Linux_for_Tegra/sources/tegra/optee-src/nv-optee/optee/optee_os/ldelf/ta_elf_rel.c:590
    4174:	f9401ca0 	ldr	x0, [x5, #56]
    4178:	f100601f 	cmp	x0, #0x18
    417c:	54000120 	b.eq	41a0 <ta_elf_relocate+0x588>  // b.none
_assert_trap():
/home/ssysarch/Desktop/nick/jetpack_5/Jetson_Linux_R35.4.1_aarch64/Linux_for_Tegra/sources/tegra/optee-src/nv-optee/optee/optee_os/lib/libutils/isoc/include/assert.h:19
    4180:	f0000003 	adrp	x3, 7000 <trace_ext_prefix+0x509>
    4184:	9120ac63 	add	x3, x3, #0x82b
    4188:	f0000001 	adrp	x1, 7000 <trace_ext_prefix+0x509>
    418c:	9116fc21 	add	x1, x1, #0x5bf
    4190:	f0000000 	adrp	x0, 7000 <trace_ext_prefix+0x509>
    4194:	911c9c00 	add	x0, x0, #0x727
    4198:	528049c2 	mov	w2, #0x24e                 	// #590
    419c:	17fffedc 	b	3d0c <ta_elf_relocate+0xf4>
e64_relocate():
/home/ssysarch/Desktop/nick/jetpack_5/Jetson_Linux_R35.4.1_aarch64/Linux_for_Tegra/sources/tegra/optee-src/nv-optee/optee/optee_os/ldelf/ta_elf_rel.c:592
    41a0:	b94028a0 	ldr	w0, [x5, #40]
    41a4:	2a0003f5 	mov	w21, w0
/home/ssysarch/Desktop/nick/jetpack_5/Jetson_Linux_R35.4.1_aarch64/Linux_for_Tegra/sources/tegra/optee-src/nv-optee/optee/optee_os/ldelf/ta_elf_rel.c:593
    41a8:	34000c00 	cbz	w0, 4328 <ta_elf_relocate+0x710>
/home/ssysarch/Desktop/nick/jetpack_5/Jetson_Linux_R35.4.1_aarch64/Linux_for_Tegra/sources/tegra/optee-src/nv-optee/optee/optee_os/ldelf/ta_elf_rel.c:596
    41ac:	6b0000ff 	cmp	w7, w0
    41b0:	54000128 	b.hi	41d4 <ta_elf_relocate+0x5bc>  // b.pmore
/home/ssysarch/Desktop/nick/jetpack_5/Jetson_Linux_R35.4.1_aarch64/Linux_for_Tegra/sources/tegra/optee-src/nv-optee/optee/optee_os/ldelf/ta_elf_rel.c:597
    41b4:	f0000004 	adrp	x4, 7000 <trace_ext_prefix+0x509>
    41b8:	91188c84 	add	x4, x4, #0x623
    41bc:	52800023 	mov	w3, #0x1                   	// #1
    41c0:	52800022 	mov	w2, #0x1                   	// #1
    41c4:	52804aa1 	mov	w1, #0x255                 	// #597
/home/ssysarch/Desktop/nick/jetpack_5/Jetson_Linux_R35.4.1_aarch64/Linux_for_Tegra/sources/tegra/optee-src/nv-optee/optee/optee_os/ldelf/ta_elf_rel.c:668
    41c8:	f0000000 	adrp	x0, 7000 <trace_ext_prefix+0x509>
    41cc:	9120ac00 	add	x0, x0, #0x82b
    41d0:	17fffee8 	b	3d70 <ta_elf_relocate+0x158>
confine_array_index():
/home/ssysarch/Desktop/nick/jetpack_5/Jetson_Linux_R35.4.1_aarch64/Linux_for_Tegra/sources/tegra/optee-src/nv-optee/optee/optee_os/lib/libutils/ext/include/confine_array_index.h:76
    41d4:	eb0402bf 	cmp	x21, x4
    41d8:	9a9f32b5 	csel	x21, x21, xzr, cc  // cc = lo, ul, last
    41dc:	d503229f 	csdb
e64_relocate():
/home/ssysarch/Desktop/nick/jetpack_5/Jetson_Linux_R35.4.1_aarch64/Linux_for_Tegra/sources/tegra/optee-src/nv-optee/optee/optee_os/ldelf/ta_elf_rel.c:600
    41e0:	8b151846 	add	x6, x2, x21, lsl #6
    41e4:	f9401cc1 	ldr	x1, [x6, #56]
    41e8:	f100603f 	cmp	x1, #0x18
    41ec:	54000120 	b.eq	4210 <ta_elf_relocate+0x5f8>  // b.none
_assert_trap():
/home/ssysarch/Desktop/nick/jetpack_5/Jetson_Linux_R35.4.1_aarch64/Linux_for_Tegra/sources/tegra/optee-src/nv-optee/optee/optee_os/lib/libutils/isoc/include/assert.h:19
    41f0:	f0000003 	adrp	x3, 7000 <trace_ext_prefix+0x509>
    41f4:	9120ac63 	add	x3, x3, #0x82b
    41f8:	f0000001 	adrp	x1, 7000 <trace_ext_prefix+0x509>
    41fc:	9116fc21 	add	x1, x1, #0x5bf
    4200:	f0000000 	adrp	x0, 7000 <trace_ext_prefix+0x509>
    4204:	911d5c00 	add	x0, x0, #0x757
    4208:	52804b02 	mov	w2, #0x258                 	// #600
    420c:	17fffec0 	b	3d0c <ta_elf_relocate+0xf4>
e64_relocate():
/home/ssysarch/Desktop/nick/jetpack_5/Jetson_Linux_R35.4.1_aarch64/Linux_for_Tegra/sources/tegra/optee-src/nv-optee/optee/optee_os/ldelf/ta_elf_rel.c:603
    4210:	f94008d6 	ldr	x22, [x6, #16]
    4214:	f94010d5 	ldr	x21, [x6, #32]
    4218:	ab1502c3 	adds	x3, x22, x21
    421c:	54000162 	b.cs	4248 <ta_elf_relocate+0x630>  // b.hs, b.nlast
/home/ssysarch/Desktop/nick/jetpack_5/Jetson_Linux_R35.4.1_aarch64/Linux_for_Tegra/sources/tegra/optee-src/nv-optee/optee/optee_os/ldelf/ta_elf_rel.c:606
    4220:	a940a260 	ldp	x0, x8, [x19, #8]
    4224:	cb000108 	sub	x8, x8, x0
    4228:	eb08007f 	cmp	x3, x8
    422c:	540001a3 	b.cc	4260 <ta_elf_relocate+0x648>  // b.lo, b.ul, b.last
/home/ssysarch/Desktop/nick/jetpack_5/Jetson_Linux_R35.4.1_aarch64/Linux_for_Tegra/sources/tegra/optee-src/nv-optee/optee/optee_os/ldelf/ta_elf_rel.c:607
    4230:	f0000004 	adrp	x4, 7000 <trace_ext_prefix+0x509>
    4234:	9119bc84 	add	x4, x4, #0x66f
    4238:	52800023 	mov	w3, #0x1                   	// #1
    423c:	52800022 	mov	w2, #0x1                   	// #1
    4240:	52804be1 	mov	w1, #0x25f                 	// #607
    4244:	17ffffe1 	b	41c8 <ta_elf_relocate+0x5b0>
/home/ssysarch/Desktop/nick/jetpack_5/Jetson_Linux_R35.4.1_aarch64/Linux_for_Tegra/sources/tegra/optee-src/nv-optee/optee/optee_os/ldelf/ta_elf_rel.c:605
    4248:	f0000004 	adrp	x4, 7000 <trace_ext_prefix+0x509>
    424c:	911e2484 	add	x4, x4, #0x789
    4250:	52800023 	mov	w3, #0x1                   	// #1
    4254:	52800022 	mov	w2, #0x1                   	// #1
    4258:	52804ba1 	mov	w1, #0x25d                 	// #605
    425c:	17ffffdb 	b	41c8 <ta_elf_relocate+0x5b0>
/home/ssysarch/Desktop/nick/jetpack_5/Jetson_Linux_R35.4.1_aarch64/Linux_for_Tegra/sources/tegra/optee-src/nv-optee/optee/optee_os/ldelf/ta_elf_rel.c:612
    4260:	9ac10ab5 	udiv	x21, x21, x1
/home/ssysarch/Desktop/nick/jetpack_5/Jetson_Linux_R35.4.1_aarch64/Linux_for_Tegra/sources/tegra/optee-src/nv-optee/optee/optee_os/ldelf/ta_elf_rel.c:614
    4264:	b94028c1 	ldr	w1, [x6, #40]
/home/ssysarch/Desktop/nick/jetpack_5/Jetson_Linux_R35.4.1_aarch64/Linux_for_Tegra/sources/tegra/optee-src/nv-optee/optee/optee_os/ldelf/ta_elf_rel.c:609
    4268:	8b0002d6 	add	x22, x22, x0
/home/ssysarch/Desktop/nick/jetpack_5/Jetson_Linux_R35.4.1_aarch64/Linux_for_Tegra/sources/tegra/optee-src/nv-optee/optee/optee_os/ldelf/ta_elf_rel.c:614
    426c:	2a0103fb 	mov	w27, w1
/home/ssysarch/Desktop/nick/jetpack_5/Jetson_Linux_R35.4.1_aarch64/Linux_for_Tegra/sources/tegra/optee-src/nv-optee/optee/optee_os/ldelf/ta_elf_rel.c:615
    4270:	34000641 	cbz	w1, 4338 <ta_elf_relocate+0x720>
/home/ssysarch/Desktop/nick/jetpack_5/Jetson_Linux_R35.4.1_aarch64/Linux_for_Tegra/sources/tegra/optee-src/nv-optee/optee/optee_os/ldelf/ta_elf_rel.c:616
    4274:	6b0100ff 	cmp	w7, w1
    4278:	540000e8 	b.hi	4294 <ta_elf_relocate+0x67c>  // b.pmore
/home/ssysarch/Desktop/nick/jetpack_5/Jetson_Linux_R35.4.1_aarch64/Linux_for_Tegra/sources/tegra/optee-src/nv-optee/optee/optee_os/ldelf/ta_elf_rel.c:617
    427c:	f0000004 	adrp	x4, 7000 <trace_ext_prefix+0x509>
    4280:	911a0c84 	add	x4, x4, #0x683
    4284:	52800023 	mov	w3, #0x1                   	// #1
    4288:	52800022 	mov	w2, #0x1                   	// #1
    428c:	52804d21 	mov	w1, #0x269                 	// #617
    4290:	17ffffce 	b	41c8 <ta_elf_relocate+0x5b0>
confine_array_index():
/home/ssysarch/Desktop/nick/jetpack_5/Jetson_Linux_R35.4.1_aarch64/Linux_for_Tegra/sources/tegra/optee-src/nv-optee/optee/optee_os/lib/libutils/ext/include/confine_array_index.h:76
    4294:	eb04037f 	cmp	x27, x4
    4298:	9a9f3363 	csel	x3, x27, xzr, cc  // cc = lo, ul, last
    429c:	d503229f 	csdb
e64_relocate():
/home/ssysarch/Desktop/nick/jetpack_5/Jetson_Linux_R35.4.1_aarch64/Linux_for_Tegra/sources/tegra/optee-src/nv-optee/optee/optee_os/ldelf/ta_elf_rel.c:623
    42a0:	8b031843 	add	x3, x2, x3, lsl #6
    42a4:	f9400862 	ldr	x2, [x3, #16]
    42a8:	f940107b 	ldr	x27, [x3, #32]
    42ac:	ab1b0041 	adds	x1, x2, x27
    42b0:	54000122 	b.cs	42d4 <ta_elf_relocate+0x6bc>  // b.hs, b.nlast
/home/ssysarch/Desktop/nick/jetpack_5/Jetson_Linux_R35.4.1_aarch64/Linux_for_Tegra/sources/tegra/optee-src/nv-optee/optee/optee_os/ldelf/ta_elf_rel.c:626
    42b4:	eb01011f 	cmp	x8, x1
    42b8:	540001a8 	b.hi	42ec <ta_elf_relocate+0x6d4>  // b.pmore
/home/ssysarch/Desktop/nick/jetpack_5/Jetson_Linux_R35.4.1_aarch64/Linux_for_Tegra/sources/tegra/optee-src/nv-optee/optee/optee_os/ldelf/ta_elf_rel.c:627
    42bc:	f0000004 	adrp	x4, 7000 <trace_ext_prefix+0x509>
    42c0:	91041c84 	add	x4, x4, #0x107
    42c4:	52800023 	mov	w3, #0x1                   	// #1
    42c8:	52800022 	mov	w2, #0x1                   	// #1
    42cc:	52804e61 	mov	w1, #0x273                 	// #627
    42d0:	17ffffbe 	b	41c8 <ta_elf_relocate+0x5b0>
/home/ssysarch/Desktop/nick/jetpack_5/Jetson_Linux_R35.4.1_aarch64/Linux_for_Tegra/sources/tegra/optee-src/nv-optee/optee/optee_os/ldelf/ta_elf_rel.c:625
    42d4:	f0000004 	adrp	x4, 7000 <trace_ext_prefix+0x509>
    42d8:	911e2484 	add	x4, x4, #0x789
    42dc:	52800023 	mov	w3, #0x1                   	// #1
    42e0:	52800022 	mov	w2, #0x1                   	// #1
    42e4:	52804e21 	mov	w1, #0x271                 	// #625
    42e8:	17ffffb8 	b	41c8 <ta_elf_relocate+0x5b0>
/home/ssysarch/Desktop/nick/jetpack_5/Jetson_Linux_R35.4.1_aarch64/Linux_for_Tegra/sources/tegra/optee-src/nv-optee/optee/optee_os/ldelf/ta_elf_rel.c:630
    42ec:	8b02001c 	add	x28, x0, x2
/home/ssysarch/Desktop/nick/jetpack_5/Jetson_Linux_R35.4.1_aarch64/Linux_for_Tegra/sources/tegra/optee-src/nv-optee/optee/optee_os/ldelf/ta_elf_rel.c:637
    42f0:	f94008b4 	ldr	x20, [x5, #16]
    42f4:	f94010b8 	ldr	x24, [x5, #32]
    42f8:	ab180281 	adds	x1, x20, x24
    42fc:	54000222 	b.cs	4340 <ta_elf_relocate+0x728>  // b.hs, b.nlast
/home/ssysarch/Desktop/nick/jetpack_5/Jetson_Linux_R35.4.1_aarch64/Linux_for_Tegra/sources/tegra/optee-src/nv-optee/optee/optee_os/ldelf/ta_elf_rel.c:640
    4300:	a9408264 	ldp	x4, x0, [x19, #8]
    4304:	cb040000 	sub	x0, x0, x4
    4308:	eb00003f 	cmp	x1, x0
    430c:	54000263 	b.cc	4358 <ta_elf_relocate+0x740>  // b.lo, b.ul, b.last
/home/ssysarch/Desktop/nick/jetpack_5/Jetson_Linux_R35.4.1_aarch64/Linux_for_Tegra/sources/tegra/optee-src/nv-optee/optee/optee_os/ldelf/ta_elf_rel.c:641
    4310:	f0000004 	adrp	x4, 7000 <trace_ext_prefix+0x509>
    4314:	911a7484 	add	x4, x4, #0x69d
    4318:	52800023 	mov	w3, #0x1                   	// #1
    431c:	52800022 	mov	w2, #0x1                   	// #1
    4320:	52805021 	mov	w1, #0x281                 	// #641
    4324:	17ffffa9 	b	41c8 <ta_elf_relocate+0x5b0>
/home/ssysarch/Desktop/nick/jetpack_5/Jetson_Linux_R35.4.1_aarch64/Linux_for_Tegra/sources/tegra/optee-src/nv-optee/optee/optee_os/ldelf/ta_elf_rel.c:586
    4328:	d280001b 	mov	x27, #0x0                   	// #0
/home/ssysarch/Desktop/nick/jetpack_5/Jetson_Linux_R35.4.1_aarch64/Linux_for_Tegra/sources/tegra/optee-src/nv-optee/optee/optee_os/ldelf/ta_elf_rel.c:585
    432c:	d280001c 	mov	x28, #0x0                   	// #0
/home/ssysarch/Desktop/nick/jetpack_5/Jetson_Linux_R35.4.1_aarch64/Linux_for_Tegra/sources/tegra/optee-src/nv-optee/optee/optee_os/ldelf/ta_elf_rel.c:582
    4330:	d2800016 	mov	x22, #0x0                   	// #0
    4334:	17ffffef 	b	42f0 <ta_elf_relocate+0x6d8>
/home/ssysarch/Desktop/nick/jetpack_5/Jetson_Linux_R35.4.1_aarch64/Linux_for_Tegra/sources/tegra/optee-src/nv-optee/optee/optee_os/ldelf/ta_elf_rel.c:585
    4338:	d280001c 	mov	x28, #0x0                   	// #0
    433c:	17ffffed 	b	42f0 <ta_elf_relocate+0x6d8>
/home/ssysarch/Desktop/nick/jetpack_5/Jetson_Linux_R35.4.1_aarch64/Linux_for_Tegra/sources/tegra/optee-src/nv-optee/optee/optee_os/ldelf/ta_elf_rel.c:639
    4340:	f0000004 	adrp	x4, 7000 <trace_ext_prefix+0x509>
    4344:	911e2484 	add	x4, x4, #0x789
    4348:	52800023 	mov	w3, #0x1                   	// #1
    434c:	52800022 	mov	w2, #0x1                   	// #1
    4350:	52804fe1 	mov	w1, #0x27f                 	// #639
    4354:	17ffff9d 	b	41c8 <ta_elf_relocate+0x5b0>
/home/ssysarch/Desktop/nick/jetpack_5/Jetson_Linux_R35.4.1_aarch64/Linux_for_Tegra/sources/tegra/optee-src/nv-optee/optee/optee_os/ldelf/ta_elf_rel.c:644
    4358:	d2800319 	mov	x25, #0x18                  	// #24
/home/ssysarch/Desktop/nick/jetpack_5/Jetson_Linux_R35.4.1_aarch64/Linux_for_Tegra/sources/tegra/optee-src/nv-optee/optee/optee_os/ldelf/ta_elf_rel.c:642
    435c:	8b040294 	add	x20, x20, x4
/home/ssysarch/Desktop/nick/jetpack_5/Jetson_Linux_R35.4.1_aarch64/Linux_for_Tegra/sources/tegra/optee-src/nv-optee/optee/optee_os/ldelf/ta_elf_rel.c:644
    4360:	9ad90b18 	udiv	x24, x24, x25
    4364:	9b195318 	madd	x24, x24, x25, x20
/home/ssysarch/Desktop/nick/jetpack_5/Jetson_Linux_R35.4.1_aarch64/Linux_for_Tegra/sources/tegra/optee-src/nv-optee/optee/optee_os/ldelf/ta_elf_rel.c:645
    4368:	eb14031f 	cmp	x24, x20
    436c:	54ffc8e9 	b.ls	3c88 <ta_elf_relocate+0x70>  // b.plast
/home/ssysarch/Desktop/nick/jetpack_5/Jetson_Linux_R35.4.1_aarch64/Linux_for_Tegra/sources/tegra/optee-src/nv-optee/optee/optee_os/ldelf/ta_elf_rel.c:650
    4370:	a9408660 	ldp	x0, x1, [x19, #8]
    4374:	f9400284 	ldr	x4, [x20]
    4378:	cb000021 	sub	x1, x1, x0
    437c:	eb01009f 	cmp	x4, x1
    4380:	540000e3 	b.cc	439c <ta_elf_relocate+0x784>  // b.lo, b.ul, b.last
/home/ssysarch/Desktop/nick/jetpack_5/Jetson_Linux_R35.4.1_aarch64/Linux_for_Tegra/sources/tegra/optee-src/nv-optee/optee/optee_os/ldelf/ta_elf_rel.c:651
    4384:	f0000004 	adrp	x4, 7000 <trace_ext_prefix+0x509>
    4388:	911ad484 	add	x4, x4, #0x6b5
    438c:	52800023 	mov	w3, #0x1                   	// #1
    4390:	52800022 	mov	w2, #0x1                   	// #1
    4394:	52805161 	mov	w1, #0x28b                 	// #651
    4398:	17ffff8c 	b	41c8 <ta_elf_relocate+0x5b0>
/home/ssysarch/Desktop/nick/jetpack_5/Jetson_Linux_R35.4.1_aarch64/Linux_for_Tegra/sources/tegra/optee-src/nv-optee/optee/optee_os/ldelf/ta_elf_rel.c:656
    439c:	f9400686 	ldr	x6, [x20, #8]
/home/ssysarch/Desktop/nick/jetpack_5/Jetson_Linux_R35.4.1_aarch64/Linux_for_Tegra/sources/tegra/optee-src/nv-optee/optee/optee_os/ldelf/ta_elf_rel.c:654
    43a0:	8b000085 	add	x5, x4, x0
/home/ssysarch/Desktop/nick/jetpack_5/Jetson_Linux_R35.4.1_aarch64/Linux_for_Tegra/sources/tegra/optee-src/nv-optee/optee/optee_os/ldelf/ta_elf_rel.c:656
    43a4:	92407cc1 	and	x1, x6, #0xffffffff
    43a8:	71101cdf 	cmp	w6, #0x407
    43ac:	540000c8 	b.hi	43c4 <ta_elf_relocate+0x7ac>  // b.pmore
    43b0:	f110003f 	cmp	x1, #0x400
    43b4:	540001c8 	b.hi	43ec <ta_elf_relocate+0x7d4>  // b.pmore
    43b8:	b4000621 	cbz	x1, 447c <ta_elf_relocate+0x864>
    43bc:	f104043f 	cmp	x1, #0x101
    43c0:	54000280 	b.eq	4410 <ta_elf_relocate+0x7f8>  // b.none
/home/ssysarch/Desktop/nick/jetpack_5/Jetson_Linux_R35.4.1_aarch64/Linux_for_Tegra/sources/tegra/optee-src/nv-optee/optee/optee_os/ldelf/ta_elf_rel.c:721
    43c4:	aa0103e5 	mov	x5, x1
    43c8:	f0000004 	adrp	x4, 7000 <trace_ext_prefix+0x509>
    43cc:	911e4884 	add	x4, x4, #0x792
    43d0:	52800023 	mov	w3, #0x1                   	// #1
    43d4:	52800022 	mov	w2, #0x1                   	// #1
    43d8:	52805a21 	mov	w1, #0x2d1                 	// #721
    43dc:	f0000000 	adrp	x0, 7000 <trace_ext_prefix+0x509>
    43e0:	9120ac00 	add	x0, x0, #0x82b
    43e4:	9400093a 	bl	68cc <trace_printf>
    43e8:	17ffff4e 	b	4120 <ta_elf_relocate+0x508>
    43ec:	d1100426 	sub	x6, x1, #0x401
    43f0:	f10018df 	cmp	x6, #0x6
    43f4:	54fffe88 	b.hi	43c4 <ta_elf_relocate+0x7ac>  // b.pmore
    43f8:	710018df 	cmp	w6, #0x6
    43fc:	54fffe48 	b.hi	43c4 <ta_elf_relocate+0x7ac>  // b.pmore
    4400:	38664ae2 	ldrb	w2, [x23, w6, uxtw]
    4404:	10000063 	adr	x3, 4410 <ta_elf_relocate+0x7f8>
    4408:	8b228862 	add	x2, x3, w2, sxtb #2
    440c:	d61f0040 	br	x2
/home/ssysarch/Desktop/nick/jetpack_5/Jetson_Linux_R35.4.1_aarch64/Linux_for_Tegra/sources/tegra/optee-src/nv-optee/optee/optee_os/ldelf/ta_elf_rel.c:666
    4410:	d360fcc1 	lsr	x1, x6, #32
/home/ssysarch/Desktop/nick/jetpack_5/Jetson_Linux_R35.4.1_aarch64/Linux_for_Tegra/sources/tegra/optee-src/nv-optee/optee/optee_os/ldelf/ta_elf_rel.c:667
    4414:	eb4682bf 	cmp	x21, x6, lsr #32
    4418:	540000e8 	b.hi	4434 <ta_elf_relocate+0x81c>  // b.pmore
/home/ssysarch/Desktop/nick/jetpack_5/Jetson_Linux_R35.4.1_aarch64/Linux_for_Tegra/sources/tegra/optee-src/nv-optee/optee/optee_os/ldelf/ta_elf_rel.c:668
    441c:	f0000004 	adrp	x4, 7000 <trace_ext_prefix+0x509>
    4420:	9115e484 	add	x4, x4, #0x579
    4424:	52800023 	mov	w3, #0x1                   	// #1
    4428:	52800022 	mov	w2, #0x1                   	// #1
    442c:	52805381 	mov	w1, #0x29c                 	// #668
    4430:	17ffff66 	b	41c8 <ta_elf_relocate+0x5b0>
confine_array_index():
/home/ssysarch/Desktop/nick/jetpack_5/Jetson_Linux_R35.4.1_aarch64/Linux_for_Tegra/sources/tegra/optee-src/nv-optee/optee/optee_os/lib/libutils/ext/include/confine_array_index.h:76
    4434:	eb15003f 	cmp	x1, x21
    4438:	9a9f3021 	csel	x1, x1, xzr, cc  // cc = lo, ul, last
    443c:	d503229f 	csdb
e64_relocate():
/home/ssysarch/Desktop/nick/jetpack_5/Jetson_Linux_R35.4.1_aarch64/Linux_for_Tegra/sources/tegra/optee-src/nv-optee/optee/optee_os/ldelf/ta_elf_rel.c:671
    4440:	9b195821 	madd	x1, x1, x25, x22
    4444:	79400c26 	ldrh	w6, [x1, #6]
    4448:	35000106 	cbnz	w6, 4468 <ta_elf_relocate+0x850>
/home/ssysarch/Desktop/nick/jetpack_5/Jetson_Linux_R35.4.1_aarch64/Linux_for_Tegra/sources/tegra/optee-src/nv-optee/optee/optee_os/ldelf/ta_elf_rel.c:685
    444c:	aa1403e4 	mov	x4, x20
    4450:	aa1b03e3 	mov	x3, x27
    4454:	aa1c03e2 	mov	x2, x28
    4458:	aa1503e1 	mov	x1, x21
    445c:	aa1603e0 	mov	x0, x22
    4460:	97fffdb9 	bl	3b44 <e64_process_dyn_rela>
/home/ssysarch/Desktop/nick/jetpack_5/Jetson_Linux_R35.4.1_aarch64/Linux_for_Tegra/sources/tegra/optee-src/nv-optee/optee/optee_os/ldelf/ta_elf_rel.c:687
    4464:	14000006 	b	447c <ta_elf_relocate+0x864>
/home/ssysarch/Desktop/nick/jetpack_5/Jetson_Linux_R35.4.1_aarch64/Linux_for_Tegra/sources/tegra/optee-src/nv-optee/optee/optee_os/ldelf/ta_elf_rel.c:676
    4468:	f9400a85 	ldr	x5, [x20, #16]
    446c:	f9400421 	ldr	x1, [x1, #8]
    4470:	8b050005 	add	x5, x0, x5
    4474:	8b0100a1 	add	x1, x5, x1
/home/ssysarch/Desktop/nick/jetpack_5/Jetson_Linux_R35.4.1_aarch64/Linux_for_Tegra/sources/tegra/optee-src/nv-optee/optee/optee_os/ldelf/ta_elf_rel.c:681
    4478:	f8206881 	str	x1, [x4, x0]
/home/ssysarch/Desktop/nick/jetpack_5/Jetson_Linux_R35.4.1_aarch64/Linux_for_Tegra/sources/tegra/optee-src/nv-optee/optee/optee_os/ldelf/ta_elf_rel.c:645
    447c:	91006294 	add	x20, x20, #0x18
    4480:	17ffffba 	b	4368 <ta_elf_relocate+0x750>
/home/ssysarch/Desktop/nick/jetpack_5/Jetson_Linux_R35.4.1_aarch64/Linux_for_Tegra/sources/tegra/optee-src/nv-optee/optee/optee_os/ldelf/ta_elf_rel.c:681
    4484:	f9400a81 	ldr	x1, [x20, #16]
    4488:	8b000021 	add	x1, x1, x0
    448c:	17fffffb 	b	4478 <ta_elf_relocate+0x860>
/home/ssysarch/Desktop/nick/jetpack_5/Jetson_Linux_R35.4.1_aarch64/Linux_for_Tegra/sources/tegra/optee-src/nv-optee/optee/optee_os/ldelf/ta_elf_rel.c:689
    4490:	aa1303e6 	mov	x6, x19
e64_process_tlsdesc_rela():
/home/ssysarch/Desktop/nick/jetpack_5/Jetson_Linux_R35.4.1_aarch64/Linux_for_Tegra/sources/tegra/optee-src/nv-optee/optee/optee_os/ldelf/ta_elf_rel.c:571
    4494:	aa1403e4 	mov	x4, x20
    4498:	aa1b03e3 	mov	x3, x27
    449c:	aa1c03e2 	mov	x2, x28
    44a0:	aa1503e1 	mov	x1, x21
    44a4:	aa1603e0 	mov	x0, x22
    44a8:	97fffdbc 	bl	3b98 <e64_process_tls_tprel_rela>
/home/ssysarch/Desktop/nick/jetpack_5/Jetson_Linux_R35.4.1_aarch64/Linux_for_Tegra/sources/tegra/optee-src/nv-optee/optee/optee_os/ldelf/ta_elf_rel.c:573
    44ac:	17fffff4 	b	447c <ta_elf_relocate+0x864>
/home/ssysarch/Desktop/nick/jetpack_5/Jetson_Linux_R35.4.1_aarch64/Linux_for_Tegra/sources/tegra/optee-src/nv-optee/optee/optee_os/ldelf/ta_elf_rel.c:570
    44b0:	f9403be1 	ldr	x1, [sp, #112]
/home/ssysarch/Desktop/nick/jetpack_5/Jetson_Linux_R35.4.1_aarch64/Linux_for_Tegra/sources/tegra/optee-src/nv-optee/optee/optee_os/ldelf/ta_elf_rel.c:571
    44b4:	aa1303e6 	mov	x6, x19
    44b8:	910020a5 	add	x5, x5, #0x8
/home/ssysarch/Desktop/nick/jetpack_5/Jetson_Linux_R35.4.1_aarch64/Linux_for_Tegra/sources/tegra/optee-src/nv-optee/optee/optee_os/ldelf/ta_elf_rel.c:570
    44bc:	f8206881 	str	x1, [x4, x0]
/home/ssysarch/Desktop/nick/jetpack_5/Jetson_Linux_R35.4.1_aarch64/Linux_for_Tegra/sources/tegra/optee-src/nv-optee/optee/optee_os/ldelf/ta_elf_rel.c:571
    44c0:	17fffff5 	b	4494 <ta_elf_relocate+0x87c>

00000000000044c4 <pop_vsp>:
pop_vsp():
/home/ssysarch/Desktop/nick/jetpack_5/Jetson_Linux_R35.4.1_aarch64/Linux_for_Tegra/sources/tegra/optee-src/nv-optee/optee/optee_os/lib/libunw/unwind_arm32.c:178
    44c4:	a9be7bfd 	stp	x29, x30, [sp, #-32]!
    44c8:	910003fd 	mov	x29, sp
    44cc:	f9000bf3 	str	x19, [sp, #16]
    44d0:	aa0103f3 	mov	x19, x1
/home/ssysarch/Desktop/nick/jetpack_5/Jetson_Linux_R35.4.1_aarch64/Linux_for_Tegra/sources/tegra/optee-src/nv-optee/optee/optee_os/lib/libunw/unwind_arm32.c:179
    44d4:	f9400021 	ldr	x1, [x1]
    44d8:	eb02003f 	cmp	x1, x2
    44dc:	540001e3 	b.cc	4518 <pop_vsp+0x54>  // b.lo, b.ul, b.last
    44e0:	aa0303e4 	mov	x4, x3
/home/ssysarch/Desktop/nick/jetpack_5/Jetson_Linux_R35.4.1_aarch64/Linux_for_Tegra/sources/tegra/optee-src/nv-optee/optee/optee_os/lib/libunw/unwind_arm32.c:181
    44e4:	91001023 	add	x3, x1, #0x4
    44e8:	8b040042 	add	x2, x2, x4
    44ec:	eb02007f 	cmp	x3, x2
    44f0:	54000148 	b.hi	4518 <pop_vsp+0x54>  // b.pmore
copy_in():
/home/ssysarch/Desktop/nick/jetpack_5/Jetson_Linux_R35.4.1_aarch64/Linux_for_Tegra/sources/tegra/optee-src/nv-optee/optee/optee_os/lib/libunw/unwind_arm32.c:101
    44f4:	d2800082 	mov	x2, #0x4                   	// #4
    44f8:	97ffeede 	bl	70 <memcpy>
pop_vsp():
/home/ssysarch/Desktop/nick/jetpack_5/Jetson_Linux_R35.4.1_aarch64/Linux_for_Tegra/sources/tegra/optee-src/nv-optee/optee/optee_os/lib/libunw/unwind_arm32.c:186
    44fc:	f9400260 	ldr	x0, [x19]
    4500:	91001000 	add	x0, x0, #0x4
    4504:	f9000260 	str	x0, [x19]
/home/ssysarch/Desktop/nick/jetpack_5/Jetson_Linux_R35.4.1_aarch64/Linux_for_Tegra/sources/tegra/optee-src/nv-optee/optee/optee_os/lib/libunw/unwind_arm32.c:187
    4508:	52800020 	mov	w0, #0x1                   	// #1
/home/ssysarch/Desktop/nick/jetpack_5/Jetson_Linux_R35.4.1_aarch64/Linux_for_Tegra/sources/tegra/optee-src/nv-optee/optee/optee_os/lib/libunw/unwind_arm32.c:188
    450c:	f9400bf3 	ldr	x19, [sp, #16]
    4510:	a8c27bfd 	ldp	x29, x30, [sp], #32
    4514:	d65f03c0 	ret
/home/ssysarch/Desktop/nick/jetpack_5/Jetson_Linux_R35.4.1_aarch64/Linux_for_Tegra/sources/tegra/optee-src/nv-optee/optee/optee_os/lib/libunw/unwind_arm32.c:180
    4518:	52800000 	mov	w0, #0x0                   	// #0
    451c:	17fffffc 	b	450c <pop_vsp+0x48>

0000000000004520 <unwind_exec_read_byte>:
unwind_exec_read_byte():
/home/ssysarch/Desktop/nick/jetpack_5/Jetson_Linux_R35.4.1_aarch64/Linux_for_Tegra/sources/tegra/optee-src/nv-optee/optee/optee_os/lib/libunw/unwind_arm32.c:155
    4520:	a9bc7bfd 	stp	x29, x30, [sp, #-64]!
copy_in():
/home/ssysarch/Desktop/nick/jetpack_5/Jetson_Linux_R35.4.1_aarch64/Linux_for_Tegra/sources/tegra/optee-src/nv-optee/optee/optee_os/lib/libunw/unwind_arm32.c:101
    4524:	d2800082 	mov	x2, #0x4                   	// #4
unwind_exec_read_byte():
/home/ssysarch/Desktop/nick/jetpack_5/Jetson_Linux_R35.4.1_aarch64/Linux_for_Tegra/sources/tegra/optee-src/nv-optee/optee/optee_os/lib/libunw/unwind_arm32.c:155
    4528:	910003fd 	mov	x29, sp
    452c:	a90153f3 	stp	x19, x20, [sp, #16]
    4530:	aa0003f3 	mov	x19, x0
/home/ssysarch/Desktop/nick/jetpack_5/Jetson_Linux_R35.4.1_aarch64/Linux_for_Tegra/sources/tegra/optee-src/nv-optee/optee/optee_os/lib/libunw/unwind_arm32.c:158
    4534:	f9402414 	ldr	x20, [x0, #72]
copy_in():
/home/ssysarch/Desktop/nick/jetpack_5/Jetson_Linux_R35.4.1_aarch64/Linux_for_Tegra/sources/tegra/optee-src/nv-optee/optee/optee_os/lib/libunw/unwind_arm32.c:101
    4538:	9100f3e0 	add	x0, sp, #0x3c
unwind_exec_read_byte():
/home/ssysarch/Desktop/nick/jetpack_5/Jetson_Linux_R35.4.1_aarch64/Linux_for_Tegra/sources/tegra/optee-src/nv-optee/optee/optee_os/lib/libunw/unwind_arm32.c:155
    453c:	f90013f5 	str	x21, [sp, #32]
    4540:	aa0103f5 	mov	x21, x1
copy_in():
/home/ssysarch/Desktop/nick/jetpack_5/Jetson_Linux_R35.4.1_aarch64/Linux_for_Tegra/sources/tegra/optee-src/nv-optee/optee/optee_os/lib/libunw/unwind_arm32.c:101
    4544:	aa1403e1 	mov	x1, x20
    4548:	97ffeeca 	bl	70 <memcpy>
unwind_exec_read_byte():
/home/ssysarch/Desktop/nick/jetpack_5/Jetson_Linux_R35.4.1_aarch64/Linux_for_Tegra/sources/tegra/optee-src/nv-optee/optee/optee_os/lib/libunw/unwind_arm32.c:162
    454c:	b9405660 	ldr	w0, [x19, #84]
    4550:	531d7001 	lsl	w1, w0, #3
    4554:	b9403fe0 	ldr	w0, [sp, #60]
    4558:	1ac12400 	lsr	w0, w0, w1
    455c:	12001c00 	and	w0, w0, #0xff
    4560:	b90002a0 	str	w0, [x21]
/home/ssysarch/Desktop/nick/jetpack_5/Jetson_Linux_R35.4.1_aarch64/Linux_for_Tegra/sources/tegra/optee-src/nv-optee/optee/optee_os/lib/libunw/unwind_arm32.c:165
    4564:	b9405660 	ldr	w0, [x19, #84]
    4568:	350001a0 	cbnz	w0, 459c <unwind_exec_read_byte+0x7c>
/home/ssysarch/Desktop/nick/jetpack_5/Jetson_Linux_R35.4.1_aarch64/Linux_for_Tegra/sources/tegra/optee-src/nv-optee/optee/optee_os/lib/libunw/unwind_arm32.c:166
    456c:	52800060 	mov	w0, #0x3                   	// #3
    4570:	b9005660 	str	w0, [x19, #84]
/home/ssysarch/Desktop/nick/jetpack_5/Jetson_Linux_R35.4.1_aarch64/Linux_for_Tegra/sources/tegra/optee-src/nv-optee/optee/optee_os/lib/libunw/unwind_arm32.c:168
    4574:	b9405260 	ldr	w0, [x19, #80]
/home/ssysarch/Desktop/nick/jetpack_5/Jetson_Linux_R35.4.1_aarch64/Linux_for_Tegra/sources/tegra/optee-src/nv-optee/optee/optee_os/lib/libunw/unwind_arm32.c:167
    4578:	91001294 	add	x20, x20, #0x4
    457c:	f9002674 	str	x20, [x19, #72]
/home/ssysarch/Desktop/nick/jetpack_5/Jetson_Linux_R35.4.1_aarch64/Linux_for_Tegra/sources/tegra/optee-src/nv-optee/optee/optee_os/lib/libunw/unwind_arm32.c:168
    4580:	51000400 	sub	w0, w0, #0x1
    4584:	b9005260 	str	w0, [x19, #80]
/home/ssysarch/Desktop/nick/jetpack_5/Jetson_Linux_R35.4.1_aarch64/Linux_for_Tegra/sources/tegra/optee-src/nv-optee/optee/optee_os/lib/libunw/unwind_arm32.c:174
    4588:	52800020 	mov	w0, #0x1                   	// #1
    458c:	a94153f3 	ldp	x19, x20, [sp, #16]
    4590:	f94013f5 	ldr	x21, [sp, #32]
    4594:	a8c47bfd 	ldp	x29, x30, [sp], #64
    4598:	d65f03c0 	ret
/home/ssysarch/Desktop/nick/jetpack_5/Jetson_Linux_R35.4.1_aarch64/Linux_for_Tegra/sources/tegra/optee-src/nv-optee/optee/optee_os/lib/libunw/unwind_arm32.c:170
    459c:	51000400 	sub	w0, w0, #0x1
    45a0:	b9005660 	str	w0, [x19, #84]
    45a4:	17fffff9 	b	4588 <unwind_exec_read_byte+0x68>

00000000000045a8 <unwind_stack_arm32>:
unwind_stack_arm32():
/home/ssysarch/Desktop/nick/jetpack_5/Jetson_Linux_R35.4.1_aarch64/Linux_for_Tegra/sources/tegra/optee-src/nv-optee/optee/optee_os/lib/libunw/unwind_arm32.c:368
    45a8:	a9b77bfd 	stp	x29, x30, [sp, #-144]!
    45ac:	910003fd 	mov	x29, sp
    45b0:	a90153f3 	stp	x19, x20, [sp, #16]
    45b4:	aa0003f3 	mov	x19, x0
    45b8:	a9025bf5 	stp	x21, x22, [sp, #32]
    45bc:	a90363f7 	stp	x23, x24, [sp, #48]
    45c0:	aa0103f7 	mov	x23, x1
    45c4:	aa0203f8 	mov	x24, x2
    45c8:	a9046bf9 	stp	x25, x26, [sp, #64]
find_index():
/home/ssysarch/Desktop/nick/jetpack_5/Jetson_Linux_R35.4.1_aarch64/Linux_for_Tegra/sources/tegra/optee-src/nv-optee/optee/optee_os/lib/libunw/unwind_arm32.c:127
    45cc:	910223f9 	add	x25, sp, #0x88
    45d0:	910203fa 	add	x26, sp, #0x80
unwind_stack_arm32():
/home/ssysarch/Desktop/nick/jetpack_5/Jetson_Linux_R35.4.1_aarch64/Linux_for_Tegra/sources/tegra/optee-src/nv-optee/optee/optee_os/lib/libunw/unwind_arm32.c:368
    45d4:	a90573fb 	stp	x27, x28, [sp, #80]
find_index():
/home/ssysarch/Desktop/nick/jetpack_5/Jetson_Linux_R35.4.1_aarch64/Linux_for_Tegra/sources/tegra/optee-src/nv-optee/optee/optee_os/lib/libunw/unwind_arm32.c:127
    45d8:	aa1903e2 	mov	x2, x25
unwind_stack_arm32():
/home/ssysarch/Desktop/nick/jetpack_5/Jetson_Linux_R35.4.1_aarch64/Linux_for_Tegra/sources/tegra/optee-src/nv-optee/optee/optee_os/lib/libunw/unwind_arm32.c:376
    45dc:	b9403c1b 	ldr	w27, [x0, #60]
    45e0:	b900401b 	str	w27, [x0, #64]
find_index():
/home/ssysarch/Desktop/nick/jetpack_5/Jetson_Linux_R35.4.1_aarch64/Linux_for_Tegra/sources/tegra/optee-src/nv-optee/optee/optee_os/lib/libunw/unwind_arm32.c:127
    45e4:	aa1a03e1 	mov	x1, x26
unwind_stack_arm32():
/home/ssysarch/Desktop/nick/jetpack_5/Jetson_Linux_R35.4.1_aarch64/Linux_for_Tegra/sources/tegra/optee-src/nv-optee/optee/optee_os/lib/libunw/unwind_arm32.c:373
    45e8:	7900b01f 	strh	wzr, [x0, #88]
find_index():
/home/ssysarch/Desktop/nick/jetpack_5/Jetson_Linux_R35.4.1_aarch64/Linux_for_Tegra/sources/tegra/optee-src/nv-optee/optee/optee_os/lib/libunw/unwind_arm32.c:127
    45ec:	51000b7b 	sub	w27, w27, #0x2
    45f0:	aa1b03e0 	mov	x0, x27
/home/ssysarch/Desktop/nick/jetpack_5/Jetson_Linux_R35.4.1_aarch64/Linux_for_Tegra/sources/tegra/optee-src/nv-optee/optee/optee_os/lib/libunw/unwind_arm32.c:118
    45f4:	a9087fff 	stp	xzr, xzr, [sp, #128]
/home/ssysarch/Desktop/nick/jetpack_5/Jetson_Linux_R35.4.1_aarch64/Linux_for_Tegra/sources/tegra/optee-src/nv-optee/optee/optee_os/lib/libunw/unwind_arm32.c:127
    45f8:	97fff9b8 	bl	2cd8 <find_exidx>
    45fc:	72001c16 	ands	w22, w0, #0xff
    4600:	54000200 	b.eq	4640 <unwind_stack_arm32+0x98>  // b.none
/home/ssysarch/Desktop/nick/jetpack_5/Jetson_Linux_R35.4.1_aarch64/Linux_for_Tegra/sources/tegra/optee-src/nv-optee/optee/optee_os/lib/libunw/unwind_arm32.c:133
    4604:	a94803e3 	ldp	x3, x0, [sp, #128]
/home/ssysarch/Desktop/nick/jetpack_5/Jetson_Linux_R35.4.1_aarch64/Linux_for_Tegra/sources/tegra/optee-src/nv-optee/optee/optee_os/lib/libunw/unwind_arm32.c:132
    4608:	52800015 	mov	w21, #0x0                   	// #0
/home/ssysarch/Desktop/nick/jetpack_5/Jetson_Linux_R35.4.1_aarch64/Linux_for_Tegra/sources/tegra/optee-src/nv-optee/optee/optee_os/lib/libunw/unwind_arm32.c:133
    460c:	cb030000 	sub	x0, x0, x3
    4610:	d3438800 	ubfx	x0, x0, #3, #32
/home/ssysarch/Desktop/nick/jetpack_5/Jetson_Linux_R35.4.1_aarch64/Linux_for_Tegra/sources/tegra/optee-src/nv-optee/optee/optee_os/lib/libunw/unwind_arm32.c:136
    4614:	11000406 	add	w6, w0, #0x1
/home/ssysarch/Desktop/nick/jetpack_5/Jetson_Linux_R35.4.1_aarch64/Linux_for_Tegra/sources/tegra/optee-src/nv-optee/optee/optee_os/lib/libunw/unwind_arm32.c:135
    4618:	6b0002bf 	cmp	w21, w0
    461c:	54000221 	b.ne	4660 <unwind_stack_arm32+0xb8>  // b.any
/home/ssysarch/Desktop/nick/jetpack_5/Jetson_Linux_R35.4.1_aarch64/Linux_for_Tegra/sources/tegra/optee-src/nv-optee/optee/optee_os/lib/libunw/unwind_arm32.c:149
    4620:	8b354c75 	add	x21, x3, w21, uxtw #3
unwind_stack_arm32():
/home/ssysarch/Desktop/nick/jetpack_5/Jetson_Linux_R35.4.1_aarch64/Linux_for_Tegra/sources/tegra/optee-src/nv-optee/optee/optee_os/lib/libunw/unwind_arm32.c:385
    4624:	b4002195 	cbz	x21, 4a54 <unwind_stack_arm32+0x4ac>
/home/ssysarch/Desktop/nick/jetpack_5/Jetson_Linux_R35.4.1_aarch64/Linux_for_Tegra/sources/tegra/optee-src/nv-optee/optee/optee_os/lib/libunw/unwind_arm32.c:389
    4628:	b94006a2 	ldr	w2, [x21, #4]
    462c:	7100045f 	cmp	w2, #0x1
    4630:	54000381 	b.ne	46a0 <unwind_stack_arm32+0xf8>  // b.any
/home/ssysarch/Desktop/nick/jetpack_5/Jetson_Linux_R35.4.1_aarch64/Linux_for_Tegra/sources/tegra/optee-src/nv-optee/optee/optee_os/lib/libunw/unwind_arm32.c:405
    4634:	2a1603f4 	mov	w20, w22
/home/ssysarch/Desktop/nick/jetpack_5/Jetson_Linux_R35.4.1_aarch64/Linux_for_Tegra/sources/tegra/optee-src/nv-optee/optee/optee_os/lib/libunw/unwind_arm32.c:407
    4638:	52000294 	eor	w20, w20, #0x1
    463c:	12001e96 	and	w22, w20, #0xff
/home/ssysarch/Desktop/nick/jetpack_5/Jetson_Linux_R35.4.1_aarch64/Linux_for_Tegra/sources/tegra/optee-src/nv-optee/optee/optee_os/lib/libunw/unwind_arm32.c:408
    4640:	2a1603e0 	mov	w0, w22
    4644:	a94153f3 	ldp	x19, x20, [sp, #16]
    4648:	a9425bf5 	ldp	x21, x22, [sp, #32]
    464c:	a94363f7 	ldp	x23, x24, [sp, #48]
    4650:	a9446bf9 	ldp	x25, x26, [sp, #64]
    4654:	a94573fb 	ldp	x27, x28, [sp, #80]
    4658:	a8c97bfd 	ldp	x29, x30, [sp], #144
    465c:	d65f03c0 	ret
find_index():
/home/ssysarch/Desktop/nick/jetpack_5/Jetson_Linux_R35.4.1_aarch64/Linux_for_Tegra/sources/tegra/optee-src/nv-optee/optee/optee_os/lib/libunw/unwind_arm32.c:136
    4660:	4b1500c1 	sub	w1, w6, w21
    4664:	0b4106a4 	add	w4, w21, w1, lsr #1
/home/ssysarch/Desktop/nick/jetpack_5/Jetson_Linux_R35.4.1_aarch64/Linux_for_Tegra/sources/tegra/optee-src/nv-optee/optee/optee_os/lib/libunw/unwind_arm32.c:138
    4668:	0b4106a1 	add	w1, w21, w1, lsr #1
    466c:	d37df025 	lsl	x5, x1, #3
    4670:	8b010c62 	add	x2, x3, x1, lsl #3
/home/ssysarch/Desktop/nick/jetpack_5/Jetson_Linux_R35.4.1_aarch64/Linux_for_Tegra/sources/tegra/optee-src/nv-optee/optee/optee_os/lib/libunw/unwind_arm32.c:140
    4674:	b8656865 	ldr	w5, [x3, x5]
expand_prel31():
/home/ssysarch/Desktop/nick/jetpack_5/Jetson_Linux_R35.4.1_aarch64/Linux_for_Tegra/sources/tegra/optee-src/nv-optee/optee/optee_os/lib/libunw/unwind_arm32.c:108
    4678:	531f78a1 	lsl	w1, w5, #1
    467c:	12010021 	and	w1, w1, #0x80000000
    4680:	2a050021 	orr	w1, w1, w5
find_index():
/home/ssysarch/Desktop/nick/jetpack_5/Jetson_Linux_R35.4.1_aarch64/Linux_for_Tegra/sources/tegra/optee-src/nv-optee/optee/optee_os/lib/libunw/unwind_arm32.c:141
    4684:	8b21c041 	add	x1, x2, w1, sxtw
/home/ssysarch/Desktop/nick/jetpack_5/Jetson_Linux_R35.4.1_aarch64/Linux_for_Tegra/sources/tegra/optee-src/nv-optee/optee/optee_os/lib/libunw/unwind_arm32.c:143
    4688:	eb01037f 	cmp	x27, x1
    468c:	54000062 	b.cs	4698 <unwind_stack_arm32+0xf0>  // b.hs, b.nlast
/home/ssysarch/Desktop/nick/jetpack_5/Jetson_Linux_R35.4.1_aarch64/Linux_for_Tegra/sources/tegra/optee-src/nv-optee/optee/optee_os/lib/libunw/unwind_arm32.c:146
    4690:	51000480 	sub	w0, w4, #0x1
    4694:	17ffffe0 	b	4614 <unwind_stack_arm32+0x6c>
/home/ssysarch/Desktop/nick/jetpack_5/Jetson_Linux_R35.4.1_aarch64/Linux_for_Tegra/sources/tegra/optee-src/nv-optee/optee/optee_os/lib/libunw/unwind_arm32.c:136
    4698:	2a0403f5 	mov	w21, w4
    469c:	17ffffdf 	b	4618 <unwind_stack_arm32+0x70>
unwind_stack_arm32():
/home/ssysarch/Desktop/nick/jetpack_5/Jetson_Linux_R35.4.1_aarch64/Linux_for_Tegra/sources/tegra/optee-src/nv-optee/optee/optee_os/lib/libunw/unwind_arm32.c:390
    46a0:	910012a1 	add	x1, x21, #0x4
    46a4:	37f800a2 	tbnz	w2, #31, 46b8 <unwind_stack_arm32+0x110>
expand_prel31():
/home/ssysarch/Desktop/nick/jetpack_5/Jetson_Linux_R35.4.1_aarch64/Linux_for_Tegra/sources/tegra/optee-src/nv-optee/optee/optee_os/lib/libunw/unwind_arm32.c:108
    46a8:	531f7840 	lsl	w0, w2, #1
    46ac:	12010000 	and	w0, w0, #0x80000000
    46b0:	2a020000 	orr	w0, w0, w2
unwind_stack_arm32():
/home/ssysarch/Desktop/nick/jetpack_5/Jetson_Linux_R35.4.1_aarch64/Linux_for_Tegra/sources/tegra/optee-src/nv-optee/optee/optee_os/lib/libunw/unwind_arm32.c:395
    46b4:	8b20c021 	add	x1, x1, w0, sxtw
unwind_tab():
/home/ssysarch/Desktop/nick/jetpack_5/Jetson_Linux_R35.4.1_aarch64/Linux_for_Tegra/sources/tegra/optee-src/nv-optee/optee/optee_os/lib/libunw/unwind_arm32.c:324
    46b8:	b9003e7f 	str	wzr, [x19, #60]
copy_in():
/home/ssysarch/Desktop/nick/jetpack_5/Jetson_Linux_R35.4.1_aarch64/Linux_for_Tegra/sources/tegra/optee-src/nv-optee/optee/optee_os/lib/libunw/unwind_arm32.c:101
    46bc:	9101e3e0 	add	x0, sp, #0x78
    46c0:	f9002661 	str	x1, [x19, #72]
    46c4:	d2800082 	mov	x2, #0x4                   	// #4
    46c8:	97ffee6a 	bl	70 <memcpy>
unwind_tab():
/home/ssysarch/Desktop/nick/jetpack_5/Jetson_Linux_R35.4.1_aarch64/Linux_for_Tegra/sources/tegra/optee-src/nv-optee/optee/optee_os/lib/libunw/unwind_arm32.c:332
    46cc:	b9407be0 	ldr	w0, [sp, #120]
/home/ssysarch/Desktop/nick/jetpack_5/Jetson_Linux_R35.4.1_aarch64/Linux_for_Tegra/sources/tegra/optee-src/nv-optee/optee/optee_os/lib/libunw/unwind_arm32.c:334
    46d0:	52b00001 	mov	w1, #0x80000000            	// #-2147483648
/home/ssysarch/Desktop/nick/jetpack_5/Jetson_Linux_R35.4.1_aarch64/Linux_for_Tegra/sources/tegra/optee-src/nv-optee/optee/optee_os/lib/libunw/unwind_arm32.c:332
    46d4:	12081c05 	and	w5, w0, #0xff000000
/home/ssysarch/Desktop/nick/jetpack_5/Jetson_Linux_R35.4.1_aarch64/Linux_for_Tegra/sources/tegra/optee-src/nv-optee/optee/optee_os/lib/libunw/unwind_arm32.c:334
    46d8:	6b0100bf 	cmp	w5, w1
    46dc:	54000181 	b.ne	470c <unwind_stack_arm32+0x164>  // b.any
/home/ssysarch/Desktop/nick/jetpack_5/Jetson_Linux_R35.4.1_aarch64/Linux_for_Tegra/sources/tegra/optee-src/nv-optee/optee/optee_os/lib/libunw/unwind_arm32.c:336
    46e0:	d2800020 	mov	x0, #0x1                   	// #1
    46e4:	f2c00040 	movk	x0, #0x2, lsl #32
    46e8:	f9002a60 	str	x0, [x19, #80]
unwind_exec_insn():
/home/ssysarch/Desktop/nick/jetpack_5/Jetson_Linux_R35.4.1_aarch64/Linux_for_Tegra/sources/tegra/optee-src/nv-optee/optee/optee_os/lib/libunw/unwind_arm32.c:199
    46ec:	9101f3fc 	add	x28, sp, #0x7c
/home/ssysarch/Desktop/nick/jetpack_5/Jetson_Linux_R35.4.1_aarch64/Linux_for_Tegra/sources/tegra/optee-src/nv-optee/optee/optee_os/lib/libunw/unwind_arm32.c:291
    46f0:	5280003b 	mov	w27, #0x1                   	// #1
unwind_tab():
/home/ssysarch/Desktop/nick/jetpack_5/Jetson_Linux_R35.4.1_aarch64/Linux_for_Tegra/sources/tegra/optee-src/nv-optee/optee/optee_os/lib/libunw/unwind_arm32.c:345
    46f4:	b9405260 	ldr	w0, [x19, #80]
    46f8:	350002e0 	cbnz	w0, 4754 <unwind_stack_arm32+0x1ac>
/home/ssysarch/Desktop/nick/jetpack_5/Jetson_Linux_R35.4.1_aarch64/Linux_for_Tegra/sources/tegra/optee-src/nv-optee/optee/optee_os/lib/libunw/unwind_arm32.c:353
    46fc:	b9403e60 	ldr	w0, [x19, #60]
    4700:	34001980 	cbz	w0, 4a30 <unwind_stack_arm32+0x488>
/home/ssysarch/Desktop/nick/jetpack_5/Jetson_Linux_R35.4.1_aarch64/Linux_for_Tegra/sources/tegra/optee-src/nv-optee/optee/optee_os/lib/libunw/unwind_arm32.c:363
    4704:	52800014 	mov	w20, #0x0                   	// #0
    4708:	140000c6 	b	4a20 <unwind_stack_arm32+0x478>
/home/ssysarch/Desktop/nick/jetpack_5/Jetson_Linux_R35.4.1_aarch64/Linux_for_Tegra/sources/tegra/optee-src/nv-optee/optee/optee_os/lib/libunw/unwind_arm32.c:337
    470c:	52b02001 	mov	w1, #0x81000000            	// #-2130706432
    4710:	6b0100bf 	cmp	w5, w1
    4714:	540000c1 	b.ne	472c <unwind_stack_arm32+0x184>  // b.any
/home/ssysarch/Desktop/nick/jetpack_5/Jetson_Linux_R35.4.1_aarch64/Linux_for_Tegra/sources/tegra/optee-src/nv-optee/optee/optee_os/lib/libunw/unwind_arm32.c:339
    4718:	d3505c00 	ubfx	x0, x0, #16, #8
/home/ssysarch/Desktop/nick/jetpack_5/Jetson_Linux_R35.4.1_aarch64/Linux_for_Tegra/sources/tegra/optee-src/nv-optee/optee/optee_os/lib/libunw/unwind_arm32.c:338
    471c:	52800021 	mov	w1, #0x1                   	// #1
/home/ssysarch/Desktop/nick/jetpack_5/Jetson_Linux_R35.4.1_aarch64/Linux_for_Tegra/sources/tegra/optee-src/nv-optee/optee/optee_os/lib/libunw/unwind_arm32.c:339
    4720:	0b010000 	add	w0, w0, w1
/home/ssysarch/Desktop/nick/jetpack_5/Jetson_Linux_R35.4.1_aarch64/Linux_for_Tegra/sources/tegra/optee-src/nv-optee/optee/optee_os/lib/libunw/unwind_arm32.c:338
    4724:	290a0660 	stp	w0, w1, [x19, #80]
/home/ssysarch/Desktop/nick/jetpack_5/Jetson_Linux_R35.4.1_aarch64/Linux_for_Tegra/sources/tegra/optee-src/nv-optee/optee/optee_os/lib/libunw/unwind_arm32.c:339
    4728:	17fffff1 	b	46ec <unwind_stack_arm32+0x144>
/home/ssysarch/Desktop/nick/jetpack_5/Jetson_Linux_R35.4.1_aarch64/Linux_for_Tegra/sources/tegra/optee-src/nv-optee/optee/optee_os/lib/libunw/unwind_arm32.c:341
    472c:	f0000004 	adrp	x4, 7000 <trace_ext_prefix+0x509>
    4730:	9120e084 	add	x4, x4, #0x838
    4734:	f0000000 	adrp	x0, 7000 <trace_ext_prefix+0x509>
    4738:	91222800 	add	x0, x0, #0x88a
    473c:	52800023 	mov	w3, #0x1                   	// #1
    4740:	52800062 	mov	w2, #0x3                   	// #3
    4744:	52802aa1 	mov	w1, #0x155                 	// #341
    4748:	94000861 	bl	68cc <trace_printf>
/home/ssysarch/Desktop/nick/jetpack_5/Jetson_Linux_R35.4.1_aarch64/Linux_for_Tegra/sources/tegra/optee-src/nv-optee/optee/optee_os/lib/libunw/unwind_arm32.c:347
    474c:	2a1603f4 	mov	w20, w22
    4750:	140000b4 	b	4a20 <unwind_stack_arm32+0x478>
unwind_exec_insn():
/home/ssysarch/Desktop/nick/jetpack_5/Jetson_Linux_R35.4.1_aarch64/Linux_for_Tegra/sources/tegra/optee-src/nv-optee/optee/optee_os/lib/libunw/unwind_arm32.c:195
    4754:	b9403660 	ldr	w0, [x19, #52]
/home/ssysarch/Desktop/nick/jetpack_5/Jetson_Linux_R35.4.1_aarch64/Linux_for_Tegra/sources/tegra/optee-src/nv-optee/optee/optee_os/lib/libunw/unwind_arm32.c:199
    4758:	aa1c03e1 	mov	x1, x28
/home/ssysarch/Desktop/nick/jetpack_5/Jetson_Linux_R35.4.1_aarch64/Linux_for_Tegra/sources/tegra/optee-src/nv-optee/optee/optee_os/lib/libunw/unwind_arm32.c:195
    475c:	f90047e0 	str	x0, [sp, #136]
/home/ssysarch/Desktop/nick/jetpack_5/Jetson_Linux_R35.4.1_aarch64/Linux_for_Tegra/sources/tegra/optee-src/nv-optee/optee/optee_os/lib/libunw/unwind_arm32.c:199
    4760:	aa1303e0 	mov	x0, x19
    4764:	97ffff6f 	bl	4520 <unwind_exec_read_byte>
    4768:	72001c14 	ands	w20, w0, #0xff
    476c:	54ffff00 	b.eq	474c <unwind_stack_arm32+0x1a4>  // b.none
/home/ssysarch/Desktop/nick/jetpack_5/Jetson_Linux_R35.4.1_aarch64/Linux_for_Tegra/sources/tegra/optee-src/nv-optee/optee/optee_os/lib/libunw/unwind_arm32.c:202
    4770:	b9407fe5 	ldr	w5, [sp, #124]
    4774:	721a04a0 	ands	w0, w5, #0xc0
    4778:	540000e1 	b.ne	4794 <unwind_stack_arm32+0x1ec>  // b.any
/home/ssysarch/Desktop/nick/jetpack_5/Jetson_Linux_R35.4.1_aarch64/Linux_for_Tegra/sources/tegra/optee-src/nv-optee/optee/optee_os/lib/libunw/unwind_arm32.c:203
    477c:	531e14a5 	ubfiz	w5, w5, #2, #6
    4780:	b9403660 	ldr	w0, [x19, #52]
    4784:	110010a5 	add	w5, w5, #0x4
/home/ssysarch/Desktop/nick/jetpack_5/Jetson_Linux_R35.4.1_aarch64/Linux_for_Tegra/sources/tegra/optee-src/nv-optee/optee/optee_os/lib/libunw/unwind_arm32.c:206
    4788:	0b0000a5 	add	w5, w5, w0
    478c:	b9003665 	str	w5, [x19, #52]
/home/ssysarch/Desktop/nick/jetpack_5/Jetson_Linux_R35.4.1_aarch64/Linux_for_Tegra/sources/tegra/optee-src/nv-optee/optee/optee_os/lib/libunw/unwind_arm32.c:310
    4790:	17ffffd9 	b	46f4 <unwind_stack_arm32+0x14c>
/home/ssysarch/Desktop/nick/jetpack_5/Jetson_Linux_R35.4.1_aarch64/Linux_for_Tegra/sources/tegra/optee-src/nv-optee/optee/optee_os/lib/libunw/unwind_arm32.c:205
    4794:	7101001f 	cmp	w0, #0x40
    4798:	540000c1 	b.ne	47b0 <unwind_stack_arm32+0x208>  // b.any
/home/ssysarch/Desktop/nick/jetpack_5/Jetson_Linux_R35.4.1_aarch64/Linux_for_Tegra/sources/tegra/optee-src/nv-optee/optee/optee_os/lib/libunw/unwind_arm32.c:206
    479c:	531e14a5 	ubfiz	w5, w5, #2, #6
    47a0:	12800060 	mov	w0, #0xfffffffc            	// #-4
    47a4:	4b050000 	sub	w0, w0, w5
    47a8:	b9403665 	ldr	w5, [x19, #52]
    47ac:	17fffff7 	b	4788 <unwind_stack_arm32+0x1e0>
/home/ssysarch/Desktop/nick/jetpack_5/Jetson_Linux_R35.4.1_aarch64/Linux_for_Tegra/sources/tegra/optee-src/nv-optee/optee/optee_os/lib/libunw/unwind_arm32.c:208
    47b0:	121c0ca0 	and	w0, w5, #0xf0
    47b4:	7102001f 	cmp	w0, #0x80
    47b8:	540005a1 	b.ne	486c <unwind_stack_arm32+0x2c4>  // b.any
/home/ssysarch/Desktop/nick/jetpack_5/Jetson_Linux_R35.4.1_aarch64/Linux_for_Tegra/sources/tegra/optee-src/nv-optee/optee/optee_os/lib/libunw/unwind_arm32.c:213
    47bc:	aa1a03e1 	mov	x1, x26
    47c0:	aa1303e0 	mov	x0, x19
    47c4:	97ffff57 	bl	4520 <unwind_exec_read_byte>
    47c8:	72001c1f 	tst	w0, #0xff
    47cc:	540012a0 	b.eq	4a20 <unwind_stack_arm32+0x478>  // b.none
/home/ssysarch/Desktop/nick/jetpack_5/Jetson_Linux_R35.4.1_aarch64/Linux_for_Tegra/sources/tegra/optee-src/nv-optee/optee/optee_os/lib/libunw/unwind_arm32.c:215
    47d0:	294f87e0 	ldp	w0, w1, [sp, #124]
    47d4:	53180c00 	ubfiz	w0, w0, #8, #4
    47d8:	2a010000 	orr	w0, w0, w1
    47dc:	b90083e0 	str	w0, [sp, #128]
/home/ssysarch/Desktop/nick/jetpack_5/Jetson_Linux_R35.4.1_aarch64/Linux_for_Tegra/sources/tegra/optee-src/nv-optee/optee/optee_os/lib/libunw/unwind_arm32.c:218
    47e0:	34001200 	cbz	w0, 4a20 <unwind_stack_arm32+0x478>
    47e4:	91004266 	add	x6, x19, #0x10
/home/ssysarch/Desktop/nick/jetpack_5/Jetson_Linux_R35.4.1_aarch64/Linux_for_Tegra/sources/tegra/optee-src/nv-optee/optee/optee_os/lib/libunw/unwind_arm32.c:225
    47e8:	52800084 	mov	w4, #0x4                   	// #4
/home/ssysarch/Desktop/nick/jetpack_5/Jetson_Linux_R35.4.1_aarch64/Linux_for_Tegra/sources/tegra/optee-src/nv-optee/optee/optee_os/lib/libunw/unwind_arm32.c:222
    47ec:	52800025 	mov	w5, #0x1                   	// #1
/home/ssysarch/Desktop/nick/jetpack_5/Jetson_Linux_R35.4.1_aarch64/Linux_for_Tegra/sources/tegra/optee-src/nv-optee/optee/optee_os/lib/libunw/unwind_arm32.c:225
    47f0:	b94083e0 	ldr	w0, [sp, #128]
    47f4:	34000060 	cbz	w0, 4800 <unwind_stack_arm32+0x258>
    47f8:	7100409f 	cmp	w4, #0x10
    47fc:	54000081 	b.ne	480c <unwind_stack_arm32+0x264>  // b.any
/home/ssysarch/Desktop/nick/jetpack_5/Jetson_Linux_R35.4.1_aarch64/Linux_for_Tegra/sources/tegra/optee-src/nv-optee/optee/optee_os/lib/libunw/unwind_arm32.c:310
    4800:	34fff7a5 	cbz	w5, 46f4 <unwind_stack_arm32+0x14c>
/home/ssysarch/Desktop/nick/jetpack_5/Jetson_Linux_R35.4.1_aarch64/Linux_for_Tegra/sources/tegra/optee-src/nv-optee/optee/optee_os/lib/libunw/unwind_arm32.c:311
    4804:	f94047e0 	ldr	x0, [sp, #136]
    4808:	14000021 	b	488c <unwind_stack_arm32+0x2e4>
/home/ssysarch/Desktop/nick/jetpack_5/Jetson_Linux_R35.4.1_aarch64/Linux_for_Tegra/sources/tegra/optee-src/nv-optee/optee/optee_os/lib/libunw/unwind_arm32.c:226
    480c:	36000240 	tbz	w0, #0, 4854 <unwind_stack_arm32+0x2ac>
/home/ssysarch/Desktop/nick/jetpack_5/Jetson_Linux_R35.4.1_aarch64/Linux_for_Tegra/sources/tegra/optee-src/nv-optee/optee/optee_os/lib/libunw/unwind_arm32.c:227
    4810:	aa1803e3 	mov	x3, x24
    4814:	aa1703e2 	mov	x2, x23
    4818:	aa1903e1 	mov	x1, x25
    481c:	aa0603e0 	mov	x0, x6
    4820:	f90033e6 	str	x6, [sp, #96]
    4824:	290d17e4 	stp	w4, w5, [sp, #104]
    4828:	97ffff27 	bl	44c4 <pop_vsp>
    482c:	72001c1f 	tst	w0, #0xff
    4830:	54000f80 	b.eq	4a20 <unwind_stack_arm32+0x478>  // b.none
/home/ssysarch/Desktop/nick/jetpack_5/Jetson_Linux_R35.4.1_aarch64/Linux_for_Tegra/sources/tegra/optee-src/nv-optee/optee/optee_os/lib/libunw/unwind_arm32.c:234
    4834:	294d17e4 	ldp	w4, w5, [sp, #104]
/home/ssysarch/Desktop/nick/jetpack_5/Jetson_Linux_R35.4.1_aarch64/Linux_for_Tegra/sources/tegra/optee-src/nv-optee/optee/optee_os/lib/libunw/unwind_arm32.c:230
    4838:	7940b261 	ldrh	w1, [x19, #88]
/home/ssysarch/Desktop/nick/jetpack_5/Jetson_Linux_R35.4.1_aarch64/Linux_for_Tegra/sources/tegra/optee-src/nv-optee/optee/optee_os/lib/libunw/unwind_arm32.c:234
    483c:	7100349f 	cmp	w4, #0xd
    4840:	f94033e6 	ldr	x6, [sp, #96]
    4844:	1a9f10a5 	csel	w5, w5, wzr, ne  // ne = any
/home/ssysarch/Desktop/nick/jetpack_5/Jetson_Linux_R35.4.1_aarch64/Linux_for_Tegra/sources/tegra/optee-src/nv-optee/optee/optee_os/lib/libunw/unwind_arm32.c:230
    4848:	1ac42360 	lsl	w0, w27, w4
    484c:	2a010000 	orr	w0, w0, w1
    4850:	7900b260 	strh	w0, [x19, #88]
/home/ssysarch/Desktop/nick/jetpack_5/Jetson_Linux_R35.4.1_aarch64/Linux_for_Tegra/sources/tegra/optee-src/nv-optee/optee/optee_os/lib/libunw/unwind_arm32.c:225
    4854:	b94083e0 	ldr	w0, [sp, #128]
    4858:	11000484 	add	w4, w4, #0x1
    485c:	910010c6 	add	x6, x6, #0x4
    4860:	53017c00 	lsr	w0, w0, #1
    4864:	b90083e0 	str	w0, [sp, #128]
    4868:	17ffffe2 	b	47f0 <unwind_stack_arm32+0x248>
/home/ssysarch/Desktop/nick/jetpack_5/Jetson_Linux_R35.4.1_aarch64/Linux_for_Tegra/sources/tegra/optee-src/nv-optee/optee/optee_os/lib/libunw/unwind_arm32.c:238
    486c:	7102401f 	cmp	w0, #0x90
    4870:	54000121 	b.ne	4894 <unwind_stack_arm32+0x2ec>  // b.any
    4874:	528001a0 	mov	w0, #0xd                   	// #13
    4878:	0a0000a0 	and	w0, w5, w0
    487c:	7100341f 	cmp	w0, #0xd
    4880:	54000500 	b.eq	4920 <unwind_stack_arm32+0x378>  // b.none
/home/ssysarch/Desktop/nick/jetpack_5/Jetson_Linux_R35.4.1_aarch64/Linux_for_Tegra/sources/tegra/optee-src/nv-optee/optee/optee_os/lib/libunw/unwind_arm32.c:243
    4884:	92400ca5 	and	x5, x5, #0xf
    4888:	b8657a60 	ldr	w0, [x19, x5, lsl #2]
/home/ssysarch/Desktop/nick/jetpack_5/Jetson_Linux_R35.4.1_aarch64/Linux_for_Tegra/sources/tegra/optee-src/nv-optee/optee/optee_os/lib/libunw/unwind_arm32.c:311
    488c:	b9003660 	str	w0, [x19, #52]
    4890:	17ffff99 	b	46f4 <unwind_stack_arm32+0x14c>
/home/ssysarch/Desktop/nick/jetpack_5/Jetson_Linux_R35.4.1_aarch64/Linux_for_Tegra/sources/tegra/optee-src/nv-optee/optee/optee_os/lib/libunw/unwind_arm32.c:245
    4894:	7102801f 	cmp	w0, #0xa0
    4898:	54000441 	b.ne	4920 <unwind_stack_arm32+0x378>  // b.any
/home/ssysarch/Desktop/nick/jetpack_5/Jetson_Linux_R35.4.1_aarch64/Linux_for_Tegra/sources/tegra/optee-src/nv-optee/optee/optee_os/lib/libunw/unwind_arm32.c:249
    489c:	120008a5 	and	w5, w5, #0x7
/home/ssysarch/Desktop/nick/jetpack_5/Jetson_Linux_R35.4.1_aarch64/Linux_for_Tegra/sources/tegra/optee-src/nv-optee/optee/optee_os/lib/libunw/unwind_arm32.c:255
    48a0:	52800084 	mov	w4, #0x4                   	// #4
    48a4:	91004266 	add	x6, x19, #0x10
    48a8:	0b0400b4 	add	w20, w5, w4
/home/ssysarch/Desktop/nick/jetpack_5/Jetson_Linux_R35.4.1_aarch64/Linux_for_Tegra/sources/tegra/optee-src/nv-optee/optee/optee_os/lib/libunw/unwind_arm32.c:256
    48ac:	aa1803e3 	mov	x3, x24
    48b0:	aa1703e2 	mov	x2, x23
    48b4:	aa1903e1 	mov	x1, x25
    48b8:	aa0603e0 	mov	x0, x6
    48bc:	f90033e6 	str	x6, [sp, #96]
    48c0:	b9006be4 	str	w4, [sp, #104]
    48c4:	97ffff00 	bl	44c4 <pop_vsp>
    48c8:	72001c1f 	tst	w0, #0xff
    48cc:	54fff400 	b.eq	474c <unwind_stack_arm32+0x1a4>  // b.none
/home/ssysarch/Desktop/nick/jetpack_5/Jetson_Linux_R35.4.1_aarch64/Linux_for_Tegra/sources/tegra/optee-src/nv-optee/optee/optee_os/lib/libunw/unwind_arm32.c:259
    48d0:	b9406be4 	ldr	w4, [sp, #104]
    48d4:	7940b261 	ldrh	w1, [x19, #88]
    48d8:	f94033e6 	ldr	x6, [sp, #96]
    48dc:	1ac42360 	lsl	w0, w27, w4
    48e0:	2a010000 	orr	w0, w0, w1
    48e4:	7900b260 	strh	w0, [x19, #88]
/home/ssysarch/Desktop/nick/jetpack_5/Jetson_Linux_R35.4.1_aarch64/Linux_for_Tegra/sources/tegra/optee-src/nv-optee/optee/optee_os/lib/libunw/unwind_arm32.c:255
    48e8:	11000484 	add	w4, w4, #0x1
    48ec:	910010c6 	add	x6, x6, #0x4
    48f0:	6b14009f 	cmp	w4, w20
    48f4:	54fffdc9 	b.ls	48ac <unwind_stack_arm32+0x304>  // b.plast
/home/ssysarch/Desktop/nick/jetpack_5/Jetson_Linux_R35.4.1_aarch64/Linux_for_Tegra/sources/tegra/optee-src/nv-optee/optee/optee_os/lib/libunw/unwind_arm32.c:263
    48f8:	b9407fe0 	ldr	w0, [sp, #124]
    48fc:	361ff840 	tbz	w0, #3, 4804 <unwind_stack_arm32+0x25c>
/home/ssysarch/Desktop/nick/jetpack_5/Jetson_Linux_R35.4.1_aarch64/Linux_for_Tegra/sources/tegra/optee-src/nv-optee/optee/optee_os/lib/libunw/unwind_arm32.c:264
    4900:	aa1803e3 	mov	x3, x24
    4904:	aa1703e2 	mov	x2, x23
    4908:	aa1903e1 	mov	x1, x25
    490c:	9100e260 	add	x0, x19, #0x38
    4910:	97fffeed 	bl	44c4 <pop_vsp>
    4914:	72001c1f 	tst	w0, #0xff
    4918:	54fff761 	b.ne	4804 <unwind_stack_arm32+0x25c>  // b.any
    491c:	17ffff8c 	b	474c <unwind_stack_arm32+0x1a4>
/home/ssysarch/Desktop/nick/jetpack_5/Jetson_Linux_R35.4.1_aarch64/Linux_for_Tegra/sources/tegra/optee-src/nv-optee/optee/optee_os/lib/libunw/unwind_arm32.c:269
    4920:	7102c0bf 	cmp	w5, #0xb0
    4924:	54000061 	b.ne	4930 <unwind_stack_arm32+0x388>  // b.any
/home/ssysarch/Desktop/nick/jetpack_5/Jetson_Linux_R35.4.1_aarch64/Linux_for_Tegra/sources/tegra/optee-src/nv-optee/optee/optee_os/lib/libunw/unwind_arm32.c:271
    4928:	b900527f 	str	wzr, [x19, #80]
/home/ssysarch/Desktop/nick/jetpack_5/Jetson_Linux_R35.4.1_aarch64/Linux_for_Tegra/sources/tegra/optee-src/nv-optee/optee/optee_os/lib/libunw/unwind_arm32.c:310
    492c:	17ffff72 	b	46f4 <unwind_stack_arm32+0x14c>
/home/ssysarch/Desktop/nick/jetpack_5/Jetson_Linux_R35.4.1_aarch64/Linux_for_Tegra/sources/tegra/optee-src/nv-optee/optee/optee_os/lib/libunw/unwind_arm32.c:273
    4930:	7102c4bf 	cmp	w5, #0xb1
    4934:	540004a1 	b.ne	49c8 <unwind_stack_arm32+0x420>  // b.any
/home/ssysarch/Desktop/nick/jetpack_5/Jetson_Linux_R35.4.1_aarch64/Linux_for_Tegra/sources/tegra/optee-src/nv-optee/optee/optee_os/lib/libunw/unwind_arm32.c:277
    4938:	aa1a03e1 	mov	x1, x26
    493c:	aa1303e0 	mov	x0, x19
    4940:	97fffef8 	bl	4520 <unwind_exec_read_byte>
    4944:	72001c1f 	tst	w0, #0xff
    4948:	540006c0 	b.eq	4a20 <unwind_stack_arm32+0x478>  // b.none
/home/ssysarch/Desktop/nick/jetpack_5/Jetson_Linux_R35.4.1_aarch64/Linux_for_Tegra/sources/tegra/optee-src/nv-optee/optee/optee_os/lib/libunw/unwind_arm32.c:279
    494c:	b94083e0 	ldr	w0, [sp, #128]
    4950:	34000680 	cbz	w0, 4a20 <unwind_stack_arm32+0x478>
    4954:	721c0c1f 	tst	w0, #0xf0
    4958:	54000641 	b.ne	4a20 <unwind_stack_arm32+0x478>  // b.any
    495c:	d2800004 	mov	x4, #0x0                   	// #0
/home/ssysarch/Desktop/nick/jetpack_5/Jetson_Linux_R35.4.1_aarch64/Linux_for_Tegra/sources/tegra/optee-src/nv-optee/optee/optee_os/lib/libunw/unwind_arm32.c:286
    4960:	b94083e0 	ldr	w0, [sp, #128]
    4964:	2a0403e5 	mov	w5, w4
    4968:	34fff4e0 	cbz	w0, 4804 <unwind_stack_arm32+0x25c>
    496c:	f100109f 	cmp	x4, #0x4
    4970:	54fff4a0 	b.eq	4804 <unwind_stack_arm32+0x25c>  // b.none
/home/ssysarch/Desktop/nick/jetpack_5/Jetson_Linux_R35.4.1_aarch64/Linux_for_Tegra/sources/tegra/optee-src/nv-optee/optee/optee_os/lib/libunw/unwind_arm32.c:287
    4974:	36000200 	tbz	w0, #0, 49b4 <unwind_stack_arm32+0x40c>
/home/ssysarch/Desktop/nick/jetpack_5/Jetson_Linux_R35.4.1_aarch64/Linux_for_Tegra/sources/tegra/optee-src/nv-optee/optee/optee_os/lib/libunw/unwind_arm32.c:288
    4978:	aa1803e3 	mov	x3, x24
    497c:	aa1703e2 	mov	x2, x23
    4980:	aa1903e1 	mov	x1, x25
    4984:	8b040a60 	add	x0, x19, x4, lsl #2
    4988:	f90033e4 	str	x4, [sp, #96]
    498c:	b9006be5 	str	w5, [sp, #104]
    4990:	97fffecd 	bl	44c4 <pop_vsp>
    4994:	72001c1f 	tst	w0, #0xff
    4998:	54000440 	b.eq	4a20 <unwind_stack_arm32+0x478>  // b.none
/home/ssysarch/Desktop/nick/jetpack_5/Jetson_Linux_R35.4.1_aarch64/Linux_for_Tegra/sources/tegra/optee-src/nv-optee/optee/optee_os/lib/libunw/unwind_arm32.c:291
    499c:	b9406be5 	ldr	w5, [sp, #104]
    49a0:	7940b260 	ldrh	w0, [x19, #88]
    49a4:	f94033e4 	ldr	x4, [sp, #96]
    49a8:	1ac52365 	lsl	w5, w27, w5
    49ac:	2a0000a5 	orr	w5, w5, w0
    49b0:	7900b265 	strh	w5, [x19, #88]
/home/ssysarch/Desktop/nick/jetpack_5/Jetson_Linux_R35.4.1_aarch64/Linux_for_Tegra/sources/tegra/optee-src/nv-optee/optee/optee_os/lib/libunw/unwind_arm32.c:286
    49b4:	b94083e0 	ldr	w0, [sp, #128]
    49b8:	91000484 	add	x4, x4, #0x1
    49bc:	53017c00 	lsr	w0, w0, #1
    49c0:	b90083e0 	str	w0, [sp, #128]
    49c4:	17ffffe7 	b	4960 <unwind_stack_arm32+0x3b8>
/home/ssysarch/Desktop/nick/jetpack_5/Jetson_Linux_R35.4.1_aarch64/Linux_for_Tegra/sources/tegra/optee-src/nv-optee/optee/optee_os/lib/libunw/unwind_arm32.c:295
    49c8:	12001ca0 	and	w0, w5, #0xff
    49cc:	7102c81f 	cmp	w0, #0xb2
    49d0:	54000181 	b.ne	4a00 <unwind_stack_arm32+0x458>  // b.any
/home/ssysarch/Desktop/nick/jetpack_5/Jetson_Linux_R35.4.1_aarch64/Linux_for_Tegra/sources/tegra/optee-src/nv-optee/optee/optee_os/lib/libunw/unwind_arm32.c:299
    49d4:	aa1a03e1 	mov	x1, x26
    49d8:	aa1303e0 	mov	x0, x19
    49dc:	97fffed1 	bl	4520 <unwind_exec_read_byte>
    49e0:	72001c1f 	tst	w0, #0xff
    49e4:	540001e0 	b.eq	4a20 <unwind_stack_arm32+0x478>  // b.none
/home/ssysarch/Desktop/nick/jetpack_5/Jetson_Linux_R35.4.1_aarch64/Linux_for_Tegra/sources/tegra/optee-src/nv-optee/optee/optee_os/lib/libunw/unwind_arm32.c:302
    49e8:	b94083e0 	ldr	w0, [sp, #128]
    49ec:	b9403661 	ldr	w1, [x19, #52]
    49f0:	531e7400 	lsl	w0, w0, #2
    49f4:	11081000 	add	w0, w0, #0x204
    49f8:	0b000020 	add	w0, w1, w0
    49fc:	17ffffa4 	b	488c <unwind_stack_arm32+0x2e4>
/home/ssysarch/Desktop/nick/jetpack_5/Jetson_Linux_R35.4.1_aarch64/Linux_for_Tegra/sources/tegra/optee-src/nv-optee/optee/optee_os/lib/libunw/unwind_arm32.c:306
    4a00:	f0000004 	adrp	x4, 7000 <trace_ext_prefix+0x509>
    4a04:	91212884 	add	x4, x4, #0x84a
    4a08:	f0000000 	adrp	x0, 7000 <trace_ext_prefix+0x509>
    4a0c:	9121e400 	add	x0, x0, #0x879
    4a10:	52800023 	mov	w3, #0x1                   	// #1
    4a14:	52800062 	mov	w2, #0x3                   	// #3
    4a18:	52802641 	mov	w1, #0x132                 	// #306
    4a1c:	940007ac 	bl	68cc <trace_printf>
unwind_stack_arm32():
/home/ssysarch/Desktop/nick/jetpack_5/Jetson_Linux_R35.4.1_aarch64/Linux_for_Tegra/sources/tegra/optee-src/nv-optee/optee/optee_os/lib/libunw/unwind_arm32.c:404
    4a20:	b94006a0 	ldr	w0, [x21, #4]
    4a24:	7100041f 	cmp	w0, #0x1
    4a28:	54ffe081 	b.ne	4638 <unwind_stack_arm32+0x90>  // b.any
    4a2c:	17ffff02 	b	4634 <unwind_stack_arm32+0x8c>
unwind_tab():
/home/ssysarch/Desktop/nick/jetpack_5/Jetson_Linux_R35.4.1_aarch64/Linux_for_Tegra/sources/tegra/optee-src/nv-optee/optee/optee_os/lib/libunw/unwind_arm32.c:354
    4a30:	b9403a60 	ldr	w0, [x19, #56]
/home/ssysarch/Desktop/nick/jetpack_5/Jetson_Linux_R35.4.1_aarch64/Linux_for_Tegra/sources/tegra/optee-src/nv-optee/optee/optee_os/lib/libunw/unwind_arm32.c:359
    4a34:	b9404261 	ldr	w1, [x19, #64]
/home/ssysarch/Desktop/nick/jetpack_5/Jetson_Linux_R35.4.1_aarch64/Linux_for_Tegra/sources/tegra/optee-src/nv-optee/optee/optee_os/lib/libunw/unwind_arm32.c:354
    4a38:	b9003e60 	str	w0, [x19, #60]
/home/ssysarch/Desktop/nick/jetpack_5/Jetson_Linux_R35.4.1_aarch64/Linux_for_Tegra/sources/tegra/optee-src/nv-optee/optee/optee_os/lib/libunw/unwind_arm32.c:359
    4a3c:	6b01001f 	cmp	w0, w1
    4a40:	54ffe620 	b.eq	4704 <unwind_stack_arm32+0x15c>  // b.none
/home/ssysarch/Desktop/nick/jetpack_5/Jetson_Linux_R35.4.1_aarch64/Linux_for_Tegra/sources/tegra/optee-src/nv-optee/optee/optee_os/lib/libunw/unwind_arm32.c:360
    4a44:	7940b260 	ldrh	w0, [x19, #88]
    4a48:	32114000 	orr	w0, w0, #0xffff8000
    4a4c:	7900b260 	strh	w0, [x19, #88]
    4a50:	17ffff2d 	b	4704 <unwind_stack_arm32+0x15c>
unwind_stack_arm32():
/home/ssysarch/Desktop/nick/jetpack_5/Jetson_Linux_R35.4.1_aarch64/Linux_for_Tegra/sources/tegra/optee-src/nv-optee/optee/optee_os/lib/libunw/unwind_arm32.c:386
    4a54:	52800016 	mov	w22, #0x0                   	// #0
    4a58:	17fffefa 	b	4640 <unwind_stack_arm32+0x98>

0000000000004a5c <print_stack_arm32>:
print_stack_arm32():
/home/ssysarch/Desktop/nick/jetpack_5/Jetson_Linux_R35.4.1_aarch64/Linux_for_Tegra/sources/tegra/optee-src/nv-optee/optee/optee_os/lib/libunw/unwind_arm32.c:412
    4a5c:	a9bd7bfd 	stp	x29, x30, [sp, #-48]!
/home/ssysarch/Desktop/nick/jetpack_5/Jetson_Linux_R35.4.1_aarch64/Linux_for_Tegra/sources/tegra/optee-src/nv-optee/optee/optee_os/lib/libunw/unwind_arm32.c:413
    4a60:	f0000004 	adrp	x4, 7000 <trace_ext_prefix+0x509>
    4a64:	91219484 	add	x4, x4, #0x865
/home/ssysarch/Desktop/nick/jetpack_5/Jetson_Linux_R35.4.1_aarch64/Linux_for_Tegra/sources/tegra/optee-src/nv-optee/optee/optee_os/lib/libunw/unwind_arm32.c:412
    4a68:	910003fd 	mov	x29, sp
    4a6c:	a9025bf5 	stp	x21, x22, [sp, #32]
/home/ssysarch/Desktop/nick/jetpack_5/Jetson_Linux_R35.4.1_aarch64/Linux_for_Tegra/sources/tegra/optee-src/nv-optee/optee/optee_os/lib/libunw/unwind_arm32.c:415
    4a70:	f0000016 	adrp	x22, 7000 <trace_ext_prefix+0x509>
    4a74:	9121c6d6 	add	x22, x22, #0x871
/home/ssysarch/Desktop/nick/jetpack_5/Jetson_Linux_R35.4.1_aarch64/Linux_for_Tegra/sources/tegra/optee-src/nv-optee/optee/optee_os/lib/libunw/unwind_arm32.c:412
    4a78:	aa0203f5 	mov	x21, x2
/home/ssysarch/Desktop/nick/jetpack_5/Jetson_Linux_R35.4.1_aarch64/Linux_for_Tegra/sources/tegra/optee-src/nv-optee/optee/optee_os/lib/libunw/unwind_arm32.c:413
    4a7c:	52800023 	mov	w3, #0x1                   	// #1
    4a80:	52800022 	mov	w2, #0x1                   	// #1
/home/ssysarch/Desktop/nick/jetpack_5/Jetson_Linux_R35.4.1_aarch64/Linux_for_Tegra/sources/tegra/optee-src/nv-optee/optee/optee_os/lib/libunw/unwind_arm32.c:412
    4a84:	a90153f3 	stp	x19, x20, [sp, #16]
    4a88:	aa0003f3 	mov	x19, x0
    4a8c:	aa0103f4 	mov	x20, x1
/home/ssysarch/Desktop/nick/jetpack_5/Jetson_Linux_R35.4.1_aarch64/Linux_for_Tegra/sources/tegra/optee-src/nv-optee/optee/optee_os/lib/libunw/unwind_arm32.c:413
    4a90:	d2800000 	mov	x0, #0x0                   	// #0
    4a94:	52800001 	mov	w1, #0x0                   	// #0
    4a98:	9400078d 	bl	68cc <trace_printf>
/home/ssysarch/Desktop/nick/jetpack_5/Jetson_Linux_R35.4.1_aarch64/Linux_for_Tegra/sources/tegra/optee-src/nv-optee/optee/optee_os/lib/libunw/unwind_arm32.c:415 (discriminator 1)
    4a9c:	b9403e65 	ldr	w5, [x19, #60]
    4aa0:	aa1603e4 	mov	x4, x22
    4aa4:	52800023 	mov	w3, #0x1                   	// #1
    4aa8:	52800022 	mov	w2, #0x1                   	// #1
    4aac:	52800001 	mov	w1, #0x0                   	// #0
    4ab0:	d2800000 	mov	x0, #0x0                   	// #0
    4ab4:	94000786 	bl	68cc <trace_printf>
/home/ssysarch/Desktop/nick/jetpack_5/Jetson_Linux_R35.4.1_aarch64/Linux_for_Tegra/sources/tegra/optee-src/nv-optee/optee/optee_os/lib/libunw/unwind_arm32.c:417 (discriminator 1)
    4ab8:	aa1503e2 	mov	x2, x21
    4abc:	aa1403e1 	mov	x1, x20
    4ac0:	aa1303e0 	mov	x0, x19
    4ac4:	97fffeb9 	bl	45a8 <unwind_stack_arm32>
    4ac8:	72001c1f 	tst	w0, #0xff
    4acc:	54fffe81 	b.ne	4a9c <print_stack_arm32+0x40>  // b.any
/home/ssysarch/Desktop/nick/jetpack_5/Jetson_Linux_R35.4.1_aarch64/Linux_for_Tegra/sources/tegra/optee-src/nv-optee/optee/optee_os/lib/libunw/unwind_arm32.c:418
    4ad0:	a94153f3 	ldp	x19, x20, [sp, #16]
    4ad4:	a9425bf5 	ldp	x21, x22, [sp, #32]
    4ad8:	a8c37bfd 	ldp	x29, x30, [sp], #48
    4adc:	d65f03c0 	ret

0000000000004ae0 <ftrace_map_lr>:
ftrace_map_lr():
/home/ssysarch/Desktop/nick/jetpack_5/Jetson_Linux_R35.4.1_aarch64/Linux_for_Tegra/sources/tegra/optee-src/nv-optee/optee/optee_os/lib/libunw/unwind_arm64.c:40
    4ae0:	d65f03c0 	ret

0000000000004ae4 <pauth_strip_pac>:
pauth_strip_pac():
    4ae4:	d65f03c0 	ret

0000000000004ae8 <unwind_stack_arm64>:
unwind_stack_arm64():
/home/ssysarch/Desktop/nick/jetpack_5/Jetson_Linux_R35.4.1_aarch64/Linux_for_Tegra/sources/tegra/optee-src/nv-optee/optee/optee_os/lib/libunw/unwind_arm64.c:53
    4ae8:	a9bd7bfd 	stp	x29, x30, [sp, #-48]!
    4aec:	910003fd 	mov	x29, sp
    4af0:	a90153f3 	stp	x19, x20, [sp, #16]
/home/ssysarch/Desktop/nick/jetpack_5/Jetson_Linux_R35.4.1_aarch64/Linux_for_Tegra/sources/tegra/optee-src/nv-optee/optee/optee_os/lib/libunw/unwind_arm64.c:54
    4af4:	f9400014 	ldr	x20, [x0]
/home/ssysarch/Desktop/nick/jetpack_5/Jetson_Linux_R35.4.1_aarch64/Linux_for_Tegra/sources/tegra/optee-src/nv-optee/optee/optee_os/lib/libunw/unwind_arm64.c:53
    4af8:	f90013f5 	str	x21, [sp, #32]
/home/ssysarch/Desktop/nick/jetpack_5/Jetson_Linux_R35.4.1_aarch64/Linux_for_Tegra/sources/tegra/optee-src/nv-optee/optee/optee_os/lib/libunw/unwind_arm64.c:56
    4afc:	eb01029f 	cmp	x20, x1
    4b00:	540000c2 	b.cs	4b18 <unwind_stack_arm64+0x30>  // b.hs, b.nlast
/home/ssysarch/Desktop/nick/jetpack_5/Jetson_Linux_R35.4.1_aarch64/Linux_for_Tegra/sources/tegra/optee-src/nv-optee/optee/optee_os/lib/libunw/unwind_arm64.c:57
    4b04:	52800000 	mov	w0, #0x0                   	// #0
/home/ssysarch/Desktop/nick/jetpack_5/Jetson_Linux_R35.4.1_aarch64/Linux_for_Tegra/sources/tegra/optee-src/nv-optee/optee/optee_os/lib/libunw/unwind_arm64.c:78
    4b08:	a94153f3 	ldp	x19, x20, [sp, #16]
    4b0c:	f94013f5 	ldr	x21, [sp, #32]
    4b10:	a8c37bfd 	ldp	x29, x30, [sp], #48
    4b14:	d65f03c0 	ret
    4b18:	aa0103e3 	mov	x3, x1
/home/ssysarch/Desktop/nick/jetpack_5/Jetson_Linux_R35.4.1_aarch64/Linux_for_Tegra/sources/tegra/optee-src/nv-optee/optee/optee_os/lib/libunw/unwind_arm64.c:58
    4b1c:	91006281 	add	x1, x20, #0x18
    4b20:	8b020063 	add	x3, x3, x2
    4b24:	eb03003f 	cmp	x1, x3
    4b28:	54fffee8 	b.hi	4b04 <unwind_stack_arm64+0x1c>  // b.pmore
    4b2c:	aa0003f3 	mov	x19, x0
/home/ssysarch/Desktop/nick/jetpack_5/Jetson_Linux_R35.4.1_aarch64/Linux_for_Tegra/sources/tegra/optee-src/nv-optee/optee/optee_os/lib/libunw/unwind_arm64.c:61
    4b30:	91004281 	add	x1, x20, #0x10
    4b34:	f9000401 	str	x1, [x0, #8]
copy_in_reg():
/home/ssysarch/Desktop/nick/jetpack_5/Jetson_Linux_R35.4.1_aarch64/Linux_for_Tegra/sources/tegra/optee-src/nv-optee/optee/optee_os/lib/libunw/unwind_arm64.c:47
    4b38:	d2800102 	mov	x2, #0x8                   	// #8
    4b3c:	aa1403e1 	mov	x1, x20
    4b40:	97ffed4c 	bl	70 <memcpy>
unwind_stack_arm64():
/home/ssysarch/Desktop/nick/jetpack_5/Jetson_Linux_R35.4.1_aarch64/Linux_for_Tegra/sources/tegra/optee-src/nv-optee/optee/optee_os/lib/libunw/unwind_arm64.c:65
    4b44:	f9400260 	ldr	x0, [x19]
    4b48:	b4fffde0 	cbz	x0, 4b04 <unwind_stack_arm64+0x1c>
copy_in_reg():
/home/ssysarch/Desktop/nick/jetpack_5/Jetson_Linux_R35.4.1_aarch64/Linux_for_Tegra/sources/tegra/optee-src/nv-optee/optee/optee_os/lib/libunw/unwind_arm64.c:47
    4b4c:	d2800102 	mov	x2, #0x8                   	// #8
    4b50:	8b020281 	add	x1, x20, x2
unwind_stack_arm64():
/home/ssysarch/Desktop/nick/jetpack_5/Jetson_Linux_R35.4.1_aarch64/Linux_for_Tegra/sources/tegra/optee-src/nv-optee/optee/optee_os/lib/libunw/unwind_arm64.c:68
    4b54:	91004275 	add	x21, x19, #0x10
copy_in_reg():
/home/ssysarch/Desktop/nick/jetpack_5/Jetson_Linux_R35.4.1_aarch64/Linux_for_Tegra/sources/tegra/optee-src/nv-optee/optee/optee_os/lib/libunw/unwind_arm64.c:47
    4b58:	aa1503e0 	mov	x0, x21
    4b5c:	97ffed45 	bl	70 <memcpy>
unwind_stack_arm64():
/home/ssysarch/Desktop/nick/jetpack_5/Jetson_Linux_R35.4.1_aarch64/Linux_for_Tegra/sources/tegra/optee-src/nv-optee/optee/optee_os/lib/libunw/unwind_arm64.c:71
    4b60:	aa1503e0 	mov	x0, x21
    4b64:	97ffffe0 	bl	4ae4 <pauth_strip_pac>
/home/ssysarch/Desktop/nick/jetpack_5/Jetson_Linux_R35.4.1_aarch64/Linux_for_Tegra/sources/tegra/optee-src/nv-optee/optee/optee_os/lib/libunw/unwind_arm64.c:73
    4b68:	aa1503e0 	mov	x0, x21
    4b6c:	97ffffdd 	bl	4ae0 <ftrace_map_lr>
/home/ssysarch/Desktop/nick/jetpack_5/Jetson_Linux_R35.4.1_aarch64/Linux_for_Tegra/sources/tegra/optee-src/nv-optee/optee/optee_os/lib/libunw/unwind_arm64.c:75
    4b70:	f9400a60 	ldr	x0, [x19, #16]
    4b74:	d1001000 	sub	x0, x0, #0x4
    4b78:	f9000a60 	str	x0, [x19, #16]
/home/ssysarch/Desktop/nick/jetpack_5/Jetson_Linux_R35.4.1_aarch64/Linux_for_Tegra/sources/tegra/optee-src/nv-optee/optee/optee_os/lib/libunw/unwind_arm64.c:77
    4b7c:	52800020 	mov	w0, #0x1                   	// #1
    4b80:	17ffffe2 	b	4b08 <unwind_stack_arm64+0x20>

0000000000004b84 <print_stack_arm64>:
print_stack_arm64():
/home/ssysarch/Desktop/nick/jetpack_5/Jetson_Linux_R35.4.1_aarch64/Linux_for_Tegra/sources/tegra/optee-src/nv-optee/optee/optee_os/lib/libunw/unwind_arm64.c:82
    4b84:	a9bd7bfd 	stp	x29, x30, [sp, #-48]!
/home/ssysarch/Desktop/nick/jetpack_5/Jetson_Linux_R35.4.1_aarch64/Linux_for_Tegra/sources/tegra/optee-src/nv-optee/optee/optee_os/lib/libunw/unwind_arm64.c:85
    4b88:	f0000004 	adrp	x4, 7000 <trace_ext_prefix+0x509>
    4b8c:	91219484 	add	x4, x4, #0x865
/home/ssysarch/Desktop/nick/jetpack_5/Jetson_Linux_R35.4.1_aarch64/Linux_for_Tegra/sources/tegra/optee-src/nv-optee/optee/optee_os/lib/libunw/unwind_arm64.c:82
    4b90:	910003fd 	mov	x29, sp
    4b94:	a9025bf5 	stp	x21, x22, [sp, #32]
/home/ssysarch/Desktop/nick/jetpack_5/Jetson_Linux_R35.4.1_aarch64/Linux_for_Tegra/sources/tegra/optee-src/nv-optee/optee/optee_os/lib/libunw/unwind_arm64.c:89
    4b98:	f0000016 	adrp	x22, 7000 <trace_ext_prefix+0x509>
    4b9c:	912256d6 	add	x22, x22, #0x895
/home/ssysarch/Desktop/nick/jetpack_5/Jetson_Linux_R35.4.1_aarch64/Linux_for_Tegra/sources/tegra/optee-src/nv-optee/optee/optee_os/lib/libunw/unwind_arm64.c:85
    4ba0:	52800023 	mov	w3, #0x1                   	// #1
/home/ssysarch/Desktop/nick/jetpack_5/Jetson_Linux_R35.4.1_aarch64/Linux_for_Tegra/sources/tegra/optee-src/nv-optee/optee/optee_os/lib/libunw/unwind_arm64.c:82
    4ba4:	aa0203f5 	mov	x21, x2
/home/ssysarch/Desktop/nick/jetpack_5/Jetson_Linux_R35.4.1_aarch64/Linux_for_Tegra/sources/tegra/optee-src/nv-optee/optee/optee_os/lib/libunw/unwind_arm64.c:85
    4ba8:	52800022 	mov	w2, #0x1                   	// #1
/home/ssysarch/Desktop/nick/jetpack_5/Jetson_Linux_R35.4.1_aarch64/Linux_for_Tegra/sources/tegra/optee-src/nv-optee/optee/optee_os/lib/libunw/unwind_arm64.c:82
    4bac:	a90153f3 	stp	x19, x20, [sp, #16]
    4bb0:	aa0103f4 	mov	x20, x1
/home/ssysarch/Desktop/nick/jetpack_5/Jetson_Linux_R35.4.1_aarch64/Linux_for_Tegra/sources/tegra/optee-src/nv-optee/optee/optee_os/lib/libunw/unwind_arm64.c:85
    4bb4:	52800001 	mov	w1, #0x0                   	// #0
/home/ssysarch/Desktop/nick/jetpack_5/Jetson_Linux_R35.4.1_aarch64/Linux_for_Tegra/sources/tegra/optee-src/nv-optee/optee/optee_os/lib/libunw/unwind_arm64.c:82
    4bb8:	aa0003f3 	mov	x19, x0
/home/ssysarch/Desktop/nick/jetpack_5/Jetson_Linux_R35.4.1_aarch64/Linux_for_Tegra/sources/tegra/optee-src/nv-optee/optee/optee_os/lib/libunw/unwind_arm64.c:85
    4bbc:	d2800000 	mov	x0, #0x0                   	// #0
    4bc0:	94000743 	bl	68cc <trace_printf>
/home/ssysarch/Desktop/nick/jetpack_5/Jetson_Linux_R35.4.1_aarch64/Linux_for_Tegra/sources/tegra/optee-src/nv-optee/optee/optee_os/lib/libunw/unwind_arm64.c:87
    4bc4:	91004260 	add	x0, x19, #0x10
    4bc8:	97ffffc6 	bl	4ae0 <ftrace_map_lr>
/home/ssysarch/Desktop/nick/jetpack_5/Jetson_Linux_R35.4.1_aarch64/Linux_for_Tegra/sources/tegra/optee-src/nv-optee/optee/optee_os/lib/libunw/unwind_arm64.c:89 (discriminator 1)
    4bcc:	f9400a66 	ldr	x6, [x19, #16]
    4bd0:	aa1603e4 	mov	x4, x22
    4bd4:	52800105 	mov	w5, #0x8                   	// #8
    4bd8:	52800023 	mov	w3, #0x1                   	// #1
    4bdc:	52800022 	mov	w2, #0x1                   	// #1
    4be0:	52800001 	mov	w1, #0x0                   	// #0
    4be4:	d2800000 	mov	x0, #0x0                   	// #0
    4be8:	94000739 	bl	68cc <trace_printf>
/home/ssysarch/Desktop/nick/jetpack_5/Jetson_Linux_R35.4.1_aarch64/Linux_for_Tegra/sources/tegra/optee-src/nv-optee/optee/optee_os/lib/libunw/unwind_arm64.c:91 (discriminator 1)
    4bec:	aa1503e2 	mov	x2, x21
    4bf0:	aa1403e1 	mov	x1, x20
    4bf4:	aa1303e0 	mov	x0, x19
    4bf8:	97ffffbc 	bl	4ae8 <unwind_stack_arm64>
    4bfc:	72001c1f 	tst	w0, #0xff
    4c00:	54fffe61 	b.ne	4bcc <print_stack_arm64+0x48>  // b.any
/home/ssysarch/Desktop/nick/jetpack_5/Jetson_Linux_R35.4.1_aarch64/Linux_for_Tegra/sources/tegra/optee-src/nv-optee/optee/optee_os/lib/libunw/unwind_arm64.c:92
    4c04:	a94153f3 	ldp	x19, x20, [sp, #16]
    4c08:	a9425bf5 	ldp	x21, x22, [sp, #32]
    4c0c:	a8c37bfd 	ldp	x29, x30, [sp], #48
    4c10:	d65f03c0 	ret

0000000000004c14 <_assert_log>:
_assert_log():
/home/ssysarch/Desktop/nick/jetpack_5/Jetson_Linux_R35.4.1_aarch64/Linux_for_Tegra/sources/tegra/optee-src/nv-optee/optee/optee_os/lib/libutee/assert.c:17
    4c14:	d10083ff 	sub	sp, sp, #0x20
/home/ssysarch/Desktop/nick/jetpack_5/Jetson_Linux_R35.4.1_aarch64/Linux_for_Tegra/sources/tegra/optee-src/nv-optee/optee/optee_os/lib/libutee/assert.c:18
    4c18:	2a0203e7 	mov	w7, w2
    4c1c:	aa0103e6 	mov	x6, x1
    4c20:	aa0003e5 	mov	x5, x0
    4c24:	52800022 	mov	w2, #0x1                   	// #1
    4c28:	52800001 	mov	w1, #0x0                   	// #0
/home/ssysarch/Desktop/nick/jetpack_5/Jetson_Linux_R35.4.1_aarch64/Linux_for_Tegra/sources/tegra/optee-src/nv-optee/optee/optee_os/lib/libutee/assert.c:17
    4c2c:	a9017bfd 	stp	x29, x30, [sp, #16]
    4c30:	910043fd 	add	x29, sp, #0x10
/home/ssysarch/Desktop/nick/jetpack_5/Jetson_Linux_R35.4.1_aarch64/Linux_for_Tegra/sources/tegra/optee-src/nv-optee/optee/optee_os/lib/libutee/assert.c:18
    4c34:	d2800000 	mov	x0, #0x0                   	// #0
    4c38:	f0000004 	adrp	x4, 7000 <trace_ext_prefix+0x509>
    4c3c:	91227884 	add	x4, x4, #0x89e
    4c40:	f90003e3 	str	x3, [sp]
    4c44:	52800023 	mov	w3, #0x1                   	// #1
    4c48:	94000721 	bl	68cc <trace_printf>
/home/ssysarch/Desktop/nick/jetpack_5/Jetson_Linux_R35.4.1_aarch64/Linux_for_Tegra/sources/tegra/optee-src/nv-optee/optee/optee_os/lib/libutee/assert.c:20
    4c4c:	a9417bfd 	ldp	x29, x30, [sp, #16]
    4c50:	910083ff 	add	sp, sp, #0x20
    4c54:	d65f03c0 	ret

0000000000004c58 <_assert_break>:
_assert_break():
/home/ssysarch/Desktop/nick/jetpack_5/Jetson_Linux_R35.4.1_aarch64/Linux_for_Tegra/sources/tegra/optee-src/nv-optee/optee/optee_os/lib/libutee/assert.c:23
    4c58:	a9bf7bfd 	stp	x29, x30, [sp, #-16]!
/home/ssysarch/Desktop/nick/jetpack_5/Jetson_Linux_R35.4.1_aarch64/Linux_for_Tegra/sources/tegra/optee-src/nv-optee/optee/optee_os/lib/libutee/assert.c:24
    4c5c:	d2bfffe0 	mov	x0, #0xffff0000            	// #4294901760
/home/ssysarch/Desktop/nick/jetpack_5/Jetson_Linux_R35.4.1_aarch64/Linux_for_Tegra/sources/tegra/optee-src/nv-optee/optee/optee_os/lib/libutee/assert.c:23
    4c60:	910003fd 	mov	x29, sp
/home/ssysarch/Desktop/nick/jetpack_5/Jetson_Linux_R35.4.1_aarch64/Linux_for_Tegra/sources/tegra/optee-src/nv-optee/optee/optee_os/lib/libutee/assert.c:24
    4c64:	94000079 	bl	4e48 <_utee_panic>
/home/ssysarch/Desktop/nick/jetpack_5/Jetson_Linux_R35.4.1_aarch64/Linux_for_Tegra/sources/tegra/optee-src/nv-optee/optee/optee_os/lib/libutee/assert.c:26 (discriminator 1)
    4c68:	14000000 	b	4c68 <_assert_break+0x10>

0000000000004c6c <parse_hex>:
parse_hex():
/home/ssysarch/Desktop/nick/jetpack_5/Jetson_Linux_R35.4.1_aarch64/Linux_for_Tegra/sources/tegra/optee-src/nv-optee/optee/optee_os/lib/libutee/tee_uuid_from_str.c:24
    4c6c:	a9bc7bfd 	stp	x29, x30, [sp, #-64]!
    4c70:	910003fd 	mov	x29, sp
    4c74:	a90153f3 	stp	x19, x20, [sp, #16]
    4c78:	aa0003f3 	mov	x19, x0
    4c7c:	a9025bf5 	stp	x21, x22, [sp, #32]
    4c80:	aa0203f5 	mov	x21, x2
/home/ssysarch/Desktop/nick/jetpack_5/Jetson_Linux_R35.4.1_aarch64/Linux_for_Tegra/sources/tegra/optee-src/nv-optee/optee/optee_os/lib/libutee/tee_uuid_from_str.c:25
    4c84:	52800016 	mov	w22, #0x0                   	// #0
/home/ssysarch/Desktop/nick/jetpack_5/Jetson_Linux_R35.4.1_aarch64/Linux_for_Tegra/sources/tegra/optee-src/nv-optee/optee/optee_os/lib/libutee/tee_uuid_from_str.c:24
    4c88:	f9001bf7 	str	x23, [sp, #48]
    4c8c:	8b010017 	add	x23, x0, x1
hex():
/home/ssysarch/Desktop/nick/jetpack_5/Jetson_Linux_R35.4.1_aarch64/Linux_for_Tegra/sources/tegra/optee-src/nv-optee/optee/optee_os/lib/libutee/tee_uuid_from_str.c:14
    4c90:	39400260 	ldrb	w0, [x19]
    4c94:	9400032a 	bl	593c <tolower>
/home/ssysarch/Desktop/nick/jetpack_5/Jetson_Linux_R35.4.1_aarch64/Linux_for_Tegra/sources/tegra/optee-src/nv-optee/optee/optee_os/lib/libutee/tee_uuid_from_str.c:16
    4c98:	12001c14 	and	w20, w0, #0xff
    4c9c:	5100c280 	sub	w0, w20, #0x30
    4ca0:	7100241f 	cmp	w0, #0x9
    4ca4:	540001e9 	b.ls	4ce0 <parse_hex+0x74>  // b.plast
/home/ssysarch/Desktop/nick/jetpack_5/Jetson_Linux_R35.4.1_aarch64/Linux_for_Tegra/sources/tegra/optee-src/nv-optee/optee/optee_os/lib/libutee/tee_uuid_from_str.c:18
    4ca8:	2a1403e0 	mov	w0, w20
    4cac:	94000305 	bl	58c0 <isxdigit>
    4cb0:	35000120 	cbnz	w0, 4cd4 <parse_hex+0x68>
parse_hex():
/home/ssysarch/Desktop/nick/jetpack_5/Jetson_Linux_R35.4.1_aarch64/Linux_for_Tegra/sources/tegra/optee-src/nv-optee/optee/optee_os/lib/libutee/tee_uuid_from_str.c:32
    4cb4:	129fff40 	mov	w0, #0xffff0005            	// #-65531
    4cb8:	b90002a0 	str	w0, [x21]
/home/ssysarch/Desktop/nick/jetpack_5/Jetson_Linux_R35.4.1_aarch64/Linux_for_Tegra/sources/tegra/optee-src/nv-optee/optee/optee_os/lib/libutee/tee_uuid_from_str.c:40
    4cbc:	2a1603e0 	mov	w0, w22
    4cc0:	a94153f3 	ldp	x19, x20, [sp, #16]
    4cc4:	a9425bf5 	ldp	x21, x22, [sp, #32]
    4cc8:	f9401bf7 	ldr	x23, [sp, #48]
    4ccc:	a8c47bfd 	ldp	x29, x30, [sp], #64
    4cd0:	d65f03c0 	ret
hex():
/home/ssysarch/Desktop/nick/jetpack_5/Jetson_Linux_R35.4.1_aarch64/Linux_for_Tegra/sources/tegra/optee-src/nv-optee/optee/optee_os/lib/libutee/tee_uuid_from_str.c:19
    4cd4:	51015e80 	sub	w0, w20, #0x57
parse_hex():
/home/ssysarch/Desktop/nick/jetpack_5/Jetson_Linux_R35.4.1_aarch64/Linux_for_Tegra/sources/tegra/optee-src/nv-optee/optee/optee_os/lib/libutee/tee_uuid_from_str.c:31
    4cd8:	71015a9f 	cmp	w20, #0x56
    4cdc:	54fffec0 	b.eq	4cb4 <parse_hex+0x48>  // b.none
/home/ssysarch/Desktop/nick/jetpack_5/Jetson_Linux_R35.4.1_aarch64/Linux_for_Tegra/sources/tegra/optee-src/nv-optee/optee/optee_os/lib/libutee/tee_uuid_from_str.c:35 (discriminator 2)
    4ce0:	91000673 	add	x19, x19, #0x1
    4ce4:	0b161016 	add	w22, w0, w22, lsl #4
/home/ssysarch/Desktop/nick/jetpack_5/Jetson_Linux_R35.4.1_aarch64/Linux_for_Tegra/sources/tegra/optee-src/nv-optee/optee/optee_os/lib/libutee/tee_uuid_from_str.c:29 (discriminator 2)
    4ce8:	eb1302ff 	cmp	x23, x19
    4cec:	54fffd21 	b.ne	4c90 <parse_hex+0x24>  // b.any
/home/ssysarch/Desktop/nick/jetpack_5/Jetson_Linux_R35.4.1_aarch64/Linux_for_Tegra/sources/tegra/optee-src/nv-optee/optee/optee_os/lib/libutee/tee_uuid_from_str.c:37
    4cf0:	b90002bf 	str	wzr, [x21]
/home/ssysarch/Desktop/nick/jetpack_5/Jetson_Linux_R35.4.1_aarch64/Linux_for_Tegra/sources/tegra/optee-src/nv-optee/optee/optee_os/lib/libutee/tee_uuid_from_str.c:39
    4cf4:	17fffff2 	b	4cbc <parse_hex+0x50>

0000000000004cf8 <tee_uuid_from_str>:
tee_uuid_from_str():
/home/ssysarch/Desktop/nick/jetpack_5/Jetson_Linux_R35.4.1_aarch64/Linux_for_Tegra/sources/tegra/optee-src/nv-optee/optee/optee_os/lib/libutee/tee_uuid_from_str.c:43
    4cf8:	a9b97bfd 	stp	x29, x30, [sp, #-112]!
    4cfc:	910003fd 	mov	x29, sp
    4d00:	a90153f3 	stp	x19, x20, [sp, #16]
    4d04:	a9025bf5 	stp	x21, x22, [sp, #32]
    4d08:	a90363f7 	stp	x23, x24, [sp, #48]
    4d0c:	a9046bf9 	stp	x25, x26, [sp, #64]
/home/ssysarch/Desktop/nick/jetpack_5/Jetson_Linux_R35.4.1_aarch64/Linux_for_Tegra/sources/tegra/optee-src/nv-optee/optee/optee_os/lib/libutee/tee_uuid_from_str.c:44
    4d10:	b9005fff 	str	wzr, [sp, #92]
/home/ssysarch/Desktop/nick/jetpack_5/Jetson_Linux_R35.4.1_aarch64/Linux_for_Tegra/sources/tegra/optee-src/nv-optee/optee/optee_os/lib/libutee/tee_uuid_from_str.c:45
    4d14:	a9067fff 	stp	xzr, xzr, [sp, #96]
/home/ssysarch/Desktop/nick/jetpack_5/Jetson_Linux_R35.4.1_aarch64/Linux_for_Tegra/sources/tegra/optee-src/nv-optee/optee/optee_os/lib/libutee/tee_uuid_from_str.c:49
    4d18:	b4000941 	cbz	x1, 4e40 <tee_uuid_from_str+0x148>
    4d1c:	aa0103f3 	mov	x19, x1
    4d20:	aa0003f6 	mov	x22, x0
/home/ssysarch/Desktop/nick/jetpack_5/Jetson_Linux_R35.4.1_aarch64/Linux_for_Tegra/sources/tegra/optee-src/nv-optee/optee/optee_os/lib/libutee/tee_uuid_from_str.c:49 (discriminator 1)
    4d24:	d28004a1 	mov	x1, #0x25                  	// #37
    4d28:	aa1303e0 	mov	x0, x19
    4d2c:	9400032c 	bl	59dc <strnlen>
    4d30:	f100901f 	cmp	x0, #0x24
    4d34:	54000861 	b.ne	4e40 <tee_uuid_from_str+0x148>  // b.any
/home/ssysarch/Desktop/nick/jetpack_5/Jetson_Linux_R35.4.1_aarch64/Linux_for_Tegra/sources/tegra/optee-src/nv-optee/optee/optee_os/lib/libutee/tee_uuid_from_str.c:51
    4d38:	39402260 	ldrb	w0, [x19, #8]
    4d3c:	7100b41f 	cmp	w0, #0x2d
    4d40:	54000801 	b.ne	4e40 <tee_uuid_from_str+0x148>  // b.any
/home/ssysarch/Desktop/nick/jetpack_5/Jetson_Linux_R35.4.1_aarch64/Linux_for_Tegra/sources/tegra/optee-src/nv-optee/optee/optee_os/lib/libutee/tee_uuid_from_str.c:51 (discriminator 1)
    4d44:	39403660 	ldrb	w0, [x19, #13]
    4d48:	7100b41f 	cmp	w0, #0x2d
    4d4c:	540007a1 	b.ne	4e40 <tee_uuid_from_str+0x148>  // b.any
/home/ssysarch/Desktop/nick/jetpack_5/Jetson_Linux_R35.4.1_aarch64/Linux_for_Tegra/sources/tegra/optee-src/nv-optee/optee/optee_os/lib/libutee/tee_uuid_from_str.c:51 (discriminator 2)
    4d50:	39404a60 	ldrb	w0, [x19, #18]
    4d54:	7100b41f 	cmp	w0, #0x2d
    4d58:	54000741 	b.ne	4e40 <tee_uuid_from_str+0x148>  // b.any
/home/ssysarch/Desktop/nick/jetpack_5/Jetson_Linux_R35.4.1_aarch64/Linux_for_Tegra/sources/tegra/optee-src/nv-optee/optee/optee_os/lib/libutee/tee_uuid_from_str.c:51 (discriminator 3)
    4d5c:	39405e60 	ldrb	w0, [x19, #23]
    4d60:	7100b41f 	cmp	w0, #0x2d
    4d64:	540006e1 	b.ne	4e40 <tee_uuid_from_str+0x148>  // b.any
/home/ssysarch/Desktop/nick/jetpack_5/Jetson_Linux_R35.4.1_aarch64/Linux_for_Tegra/sources/tegra/optee-src/nv-optee/optee/optee_os/lib/libutee/tee_uuid_from_str.c:54
    4d68:	910173f5 	add	x21, sp, #0x5c
    4d6c:	aa1303e0 	mov	x0, x19
    4d70:	aa1503e2 	mov	x2, x21
    4d74:	d2800101 	mov	x1, #0x8                   	// #8
    4d78:	97ffffbd 	bl	4c6c <parse_hex>
    4d7c:	2a0003f9 	mov	w25, w0
/home/ssysarch/Desktop/nick/jetpack_5/Jetson_Linux_R35.4.1_aarch64/Linux_for_Tegra/sources/tegra/optee-src/nv-optee/optee/optee_os/lib/libutee/tee_uuid_from_str.c:55
    4d80:	b9405fe0 	ldr	w0, [sp, #92]
    4d84:	35000500 	cbnz	w0, 4e24 <tee_uuid_from_str+0x12c>
/home/ssysarch/Desktop/nick/jetpack_5/Jetson_Linux_R35.4.1_aarch64/Linux_for_Tegra/sources/tegra/optee-src/nv-optee/optee/optee_os/lib/libutee/tee_uuid_from_str.c:58
    4d88:	aa1503e2 	mov	x2, x21
    4d8c:	91002660 	add	x0, x19, #0x9
    4d90:	d2800081 	mov	x1, #0x4                   	// #4
    4d94:	97ffffb6 	bl	4c6c <parse_hex>
    4d98:	2a0003f8 	mov	w24, w0
/home/ssysarch/Desktop/nick/jetpack_5/Jetson_Linux_R35.4.1_aarch64/Linux_for_Tegra/sources/tegra/optee-src/nv-optee/optee/optee_os/lib/libutee/tee_uuid_from_str.c:59
    4d9c:	b9405fe0 	ldr	w0, [sp, #92]
    4da0:	35000420 	cbnz	w0, 4e24 <tee_uuid_from_str+0x12c>
/home/ssysarch/Desktop/nick/jetpack_5/Jetson_Linux_R35.4.1_aarch64/Linux_for_Tegra/sources/tegra/optee-src/nv-optee/optee/optee_os/lib/libutee/tee_uuid_from_str.c:62
    4da4:	aa1503e2 	mov	x2, x21
    4da8:	91003a60 	add	x0, x19, #0xe
    4dac:	d2800081 	mov	x1, #0x4                   	// #4
    4db0:	97ffffaf 	bl	4c6c <parse_hex>
    4db4:	2a0003f7 	mov	w23, w0
/home/ssysarch/Desktop/nick/jetpack_5/Jetson_Linux_R35.4.1_aarch64/Linux_for_Tegra/sources/tegra/optee-src/nv-optee/optee/optee_os/lib/libutee/tee_uuid_from_str.c:63
    4db8:	b9405fe0 	ldr	w0, [sp, #92]
    4dbc:	35000340 	cbnz	w0, 4e24 <tee_uuid_from_str+0x12c>
/home/ssysarch/Desktop/nick/jetpack_5/Jetson_Linux_R35.4.1_aarch64/Linux_for_Tegra/sources/tegra/optee-src/nv-optee/optee/optee_os/lib/libutee/tee_uuid_from_str.c:65
    4dc0:	91004e73 	add	x19, x19, #0x13
/home/ssysarch/Desktop/nick/jetpack_5/Jetson_Linux_R35.4.1_aarch64/Linux_for_Tegra/sources/tegra/optee-src/nv-optee/optee/optee_os/lib/libutee/tee_uuid_from_str.c:67
    4dc4:	910183fa 	add	x26, sp, #0x60
/home/ssysarch/Desktop/nick/jetpack_5/Jetson_Linux_R35.4.1_aarch64/Linux_for_Tegra/sources/tegra/optee-src/nv-optee/optee/optee_os/lib/libutee/tee_uuid_from_str.c:66
    4dc8:	d2800014 	mov	x20, #0x0                   	// #0
/home/ssysarch/Desktop/nick/jetpack_5/Jetson_Linux_R35.4.1_aarch64/Linux_for_Tegra/sources/tegra/optee-src/nv-optee/optee/optee_os/lib/libutee/tee_uuid_from_str.c:67
    4dcc:	d2800041 	mov	x1, #0x2                   	// #2
    4dd0:	aa1503e2 	mov	x2, x21
    4dd4:	aa1303e0 	mov	x0, x19
    4dd8:	97ffffa5 	bl	4c6c <parse_hex>
    4ddc:	8b1a0281 	add	x1, x20, x26
    4de0:	39002020 	strb	w0, [x1, #8]
/home/ssysarch/Desktop/nick/jetpack_5/Jetson_Linux_R35.4.1_aarch64/Linux_for_Tegra/sources/tegra/optee-src/nv-optee/optee/optee_os/lib/libutee/tee_uuid_from_str.c:68
    4de4:	b9405fe0 	ldr	w0, [sp, #92]
    4de8:	350001e0 	cbnz	w0, 4e24 <tee_uuid_from_str+0x12c>
/home/ssysarch/Desktop/nick/jetpack_5/Jetson_Linux_R35.4.1_aarch64/Linux_for_Tegra/sources/tegra/optee-src/nv-optee/optee/optee_os/lib/libutee/tee_uuid_from_str.c:71
    4dec:	f100069f 	cmp	x20, #0x1
    4df0:	91000e60 	add	x0, x19, #0x3
/home/ssysarch/Desktop/nick/jetpack_5/Jetson_Linux_R35.4.1_aarch64/Linux_for_Tegra/sources/tegra/optee-src/nv-optee/optee/optee_os/lib/libutee/tee_uuid_from_str.c:66
    4df4:	91000694 	add	x20, x20, #0x1
/home/ssysarch/Desktop/nick/jetpack_5/Jetson_Linux_R35.4.1_aarch64/Linux_for_Tegra/sources/tegra/optee-src/nv-optee/optee/optee_os/lib/libutee/tee_uuid_from_str.c:71
    4df8:	91000a73 	add	x19, x19, #0x2
    4dfc:	9a801273 	csel	x19, x19, x0, ne  // ne = any
/home/ssysarch/Desktop/nick/jetpack_5/Jetson_Linux_R35.4.1_aarch64/Linux_for_Tegra/sources/tegra/optee-src/nv-optee/optee/optee_os/lib/libutee/tee_uuid_from_str.c:66
    4e00:	f100229f 	cmp	x20, #0x8
    4e04:	54fffe41 	b.ne	4dcc <tee_uuid_from_str+0xd4>  // b.any
/home/ssysarch/Desktop/nick/jetpack_5/Jetson_Linux_R35.4.1_aarch64/Linux_for_Tegra/sources/tegra/optee-src/nv-optee/optee/optee_os/lib/libutee/tee_uuid_from_str.c:75
    4e08:	aa1a03e1 	mov	x1, x26
    4e0c:	aa1603e0 	mov	x0, x22
    4e10:	d2800202 	mov	x2, #0x10                  	// #16
    4e14:	b90063f9 	str	w25, [sp, #96]
/home/ssysarch/Desktop/nick/jetpack_5/Jetson_Linux_R35.4.1_aarch64/Linux_for_Tegra/sources/tegra/optee-src/nv-optee/optee/optee_os/lib/libutee/tee_uuid_from_str.c:58
    4e18:	7900cbf8 	strh	w24, [sp, #100]
/home/ssysarch/Desktop/nick/jetpack_5/Jetson_Linux_R35.4.1_aarch64/Linux_for_Tegra/sources/tegra/optee-src/nv-optee/optee/optee_os/lib/libutee/tee_uuid_from_str.c:62
    4e1c:	7900cff7 	strh	w23, [sp, #102]
/home/ssysarch/Desktop/nick/jetpack_5/Jetson_Linux_R35.4.1_aarch64/Linux_for_Tegra/sources/tegra/optee-src/nv-optee/optee/optee_os/lib/libutee/tee_uuid_from_str.c:75
    4e20:	97ffec94 	bl	70 <memcpy>
/home/ssysarch/Desktop/nick/jetpack_5/Jetson_Linux_R35.4.1_aarch64/Linux_for_Tegra/sources/tegra/optee-src/nv-optee/optee/optee_os/lib/libutee/tee_uuid_from_str.c:77
    4e24:	b9405fe0 	ldr	w0, [sp, #92]
/home/ssysarch/Desktop/nick/jetpack_5/Jetson_Linux_R35.4.1_aarch64/Linux_for_Tegra/sources/tegra/optee-src/nv-optee/optee/optee_os/lib/libutee/tee_uuid_from_str.c:78
    4e28:	a94153f3 	ldp	x19, x20, [sp, #16]
    4e2c:	a9425bf5 	ldp	x21, x22, [sp, #32]
    4e30:	a94363f7 	ldp	x23, x24, [sp, #48]
    4e34:	a9446bf9 	ldp	x25, x26, [sp, #64]
    4e38:	a8c77bfd 	ldp	x29, x30, [sp], #112
    4e3c:	d65f03c0 	ret
/home/ssysarch/Desktop/nick/jetpack_5/Jetson_Linux_R35.4.1_aarch64/Linux_for_Tegra/sources/tegra/optee-src/nv-optee/optee/optee_os/lib/libutee/tee_uuid_from_str.c:50
    4e40:	129fff40 	mov	w0, #0xffff0005            	// #-65531
    4e44:	17fffff9 	b	4e28 <tee_uuid_from_str+0x130>

0000000000004e48 <_utee_panic>:
_utee_panic():
/home/ssysarch/Desktop/nick/jetpack_5/Jetson_Linux_R35.4.1_aarch64/Linux_for_Tegra/sources/tegra/optee-src/nv-optee/optee/optee_os/lib/libutee/arch/arm/utee_syscalls_a64.S:41
    4e48:	a9bf7bfd 	stp	x29, x30, [sp, #-16]!
/home/ssysarch/Desktop/nick/jetpack_5/Jetson_Linux_R35.4.1_aarch64/Linux_for_Tegra/sources/tegra/optee-src/nv-optee/optee/optee_os/lib/libutee/arch/arm/utee_syscalls_a64.S:42
    4e4c:	910003e1 	mov	x1, sp
/home/ssysarch/Desktop/nick/jetpack_5/Jetson_Linux_R35.4.1_aarch64/Linux_for_Tegra/sources/tegra/optee-src/nv-optee/optee/optee_os/lib/libutee/arch/arm/utee_syscalls_a64.S:43
    4e50:	94000001 	bl	4e54 <__utee_panic>

0000000000004e54 <__utee_panic>:
__utee_panic():
/home/ssysarch/Desktop/nick/jetpack_5/Jetson_Linux_R35.4.1_aarch64/Linux_for_Tegra/sources/tegra/optee-src/nv-optee/optee/optee_os/lib/libutee/include/utee_syscalls_asm.S:12
    4e54:	d2800048 	mov	x8, #0x2                   	// #2
    4e58:	d4000001 	svc	#0x0
    4e5c:	d65f03c0 	ret

0000000000004e60 <_assert_trap>:
_assert_trap():
/home/ssysarch/Desktop/nick/jetpack_5/Jetson_Linux_R35.4.1_aarch64/Linux_for_Tegra/sources/tegra/optee-src/nv-optee/optee/optee_os/lib/libutils/isoc/include/assert.h:18
    4e60:	a9bf7bfd 	stp	x29, x30, [sp, #-16]!
    4e64:	910003fd 	mov	x29, sp
/home/ssysarch/Desktop/nick/jetpack_5/Jetson_Linux_R35.4.1_aarch64/Linux_for_Tegra/sources/tegra/optee-src/nv-optee/optee/optee_os/lib/libutils/isoc/include/assert.h:19
    4e68:	97ffff6b 	bl	4c14 <_assert_log>
/home/ssysarch/Desktop/nick/jetpack_5/Jetson_Linux_R35.4.1_aarch64/Linux_for_Tegra/sources/tegra/optee-src/nv-optee/optee/optee_os/lib/libutils/isoc/include/assert.h:20
    4e6c:	97ffff7b 	bl	4c58 <_assert_break>

0000000000004e70 <raw_malloc_return_hook.isra.0>:
raw_malloc_return_hook():
/home/ssysarch/Desktop/nick/jetpack_5/Jetson_Linux_R35.4.1_aarch64/Linux_for_Tegra/sources/tegra/optee-src/nv-optee/optee/optee_os/lib/libutils/isoc/bget_malloc.c:278
    4e70:	f9401043 	ldr	x3, [x2, #32]
    4e74:	b9406c44 	ldr	w4, [x2, #108]
    4e78:	eb04007f 	cmp	x3, x4
    4e7c:	5400004d 	b.le	4e84 <raw_malloc_return_hook.isra.0+0x14>
/home/ssysarch/Desktop/nick/jetpack_5/Jetson_Linux_R35.4.1_aarch64/Linux_for_Tegra/sources/tegra/optee-src/nv-optee/optee/optee_os/lib/libutils/isoc/bget_malloc.c:279
    4e80:	b9006c43 	str	w3, [x2, #108]
/home/ssysarch/Desktop/nick/jetpack_5/Jetson_Linux_R35.4.1_aarch64/Linux_for_Tegra/sources/tegra/optee-src/nv-optee/optee/optee_os/lib/libutils/isoc/bget_malloc.c:281
    4e84:	b5000100 	cbnz	x0, 4ea4 <raw_malloc_return_hook.isra.0+0x34>
/home/ssysarch/Desktop/nick/jetpack_5/Jetson_Linux_R35.4.1_aarch64/Linux_for_Tegra/sources/tegra/optee-src/nv-optee/optee/optee_os/lib/libutils/isoc/bget_malloc.c:282
    4e88:	b9407444 	ldr	w4, [x2, #116]
    4e8c:	11000484 	add	w4, w4, #0x1
    4e90:	b9007444 	str	w4, [x2, #116]
/home/ssysarch/Desktop/nick/jetpack_5/Jetson_Linux_R35.4.1_aarch64/Linux_for_Tegra/sources/tegra/optee-src/nv-optee/optee/optee_os/lib/libutils/isoc/bget_malloc.c:284
    4e94:	b9407844 	ldr	w4, [x2, #120]
    4e98:	eb01009f 	cmp	x4, x1
    4e9c:	54000042 	b.cs	4ea4 <raw_malloc_return_hook.isra.0+0x34>  // b.hs, b.nlast
/home/ssysarch/Desktop/nick/jetpack_5/Jetson_Linux_R35.4.1_aarch64/Linux_for_Tegra/sources/tegra/optee-src/nv-optee/optee/optee_os/lib/libutils/isoc/bget_malloc.c:286
    4ea0:	290f0c41 	stp	w1, w3, [x2, #120]
/home/ssysarch/Desktop/nick/jetpack_5/Jetson_Linux_R35.4.1_aarch64/Linux_for_Tegra/sources/tegra/optee-src/nv-optee/optee/optee_os/lib/libutils/isoc/bget_malloc.c:292
    4ea4:	d65f03c0 	ret

0000000000004ea8 <bget_buf_size.part.0>:
bget_buf_size():
/home/ssysarch/Desktop/nick/jetpack_5/Jetson_Linux_R35.4.1_aarch64/Linux_for_Tegra/sources/tegra/optee-src/nv-optee/optee/optee_os/lib/libutils/isoc/bget_malloc.c:191
    4ea8:	a9bf7bfd 	stp	x29, x30, [sp, #-16]!
/home/ssysarch/Desktop/nick/jetpack_5/Jetson_Linux_R35.4.1_aarch64/Linux_for_Tegra/sources/tegra/optee-src/nv-optee/optee/optee_os/lib/libutils/isoc/bget_malloc.c:208
    4eac:	f0000003 	adrp	x3, 7000 <trace_ext_prefix+0x509>
    4eb0:	912ee863 	add	x3, x3, #0xbba
/home/ssysarch/Desktop/nick/jetpack_5/Jetson_Linux_R35.4.1_aarch64/Linux_for_Tegra/sources/tegra/optee-src/nv-optee/optee/optee_os/lib/libutils/isoc/bget_malloc.c:191
    4eb4:	910003fd 	mov	x29, sp
/home/ssysarch/Desktop/nick/jetpack_5/Jetson_Linux_R35.4.1_aarch64/Linux_for_Tegra/sources/tegra/optee-src/nv-optee/optee/optee_os/lib/libutils/isoc/bget_malloc.c:208
    4eb8:	f0000001 	adrp	x1, 7000 <trace_ext_prefix+0x509>
    4ebc:	91231421 	add	x1, x1, #0x8c5
    4ec0:	f0000000 	adrp	x0, 7000 <trace_ext_prefix+0x509>
    4ec4:	91239400 	add	x0, x0, #0x8e5
    4ec8:	52801a02 	mov	w2, #0xd0                  	// #208
    4ecc:	97ffffe5 	bl	4e60 <_assert_trap>

0000000000004ed0 <bget>:
bget():
/home/ssysarch/Desktop/nick/jetpack_5/Jetson_Linux_R35.4.1_aarch64/Linux_for_Tegra/sources/tegra/optee-src/nv-optee/optee/optee_os/lib/libutils/isoc/bget.c:612
    4ed0:	a9bf7bfd 	stp	x29, x30, [sp, #-16]!
/home/ssysarch/Desktop/nick/jetpack_5/Jetson_Linux_R35.4.1_aarch64/Linux_for_Tegra/sources/tegra/optee-src/nv-optee/optee/optee_os/lib/libutils/isoc/bget.c:625
    4ed4:	f100005f 	cmp	x2, #0x0
/home/ssysarch/Desktop/nick/jetpack_5/Jetson_Linux_R35.4.1_aarch64/Linux_for_Tegra/sources/tegra/optee-src/nv-optee/optee/optee_os/lib/libutils/isoc/bget.c:612
    4ed8:	910003fd 	mov	x29, sp
/home/ssysarch/Desktop/nick/jetpack_5/Jetson_Linux_R35.4.1_aarch64/Linux_for_Tegra/sources/tegra/optee-src/nv-optee/optee/optee_os/lib/libutils/isoc/bget.c:625
    4edc:	5400012c 	b.gt	4f00 <bget+0x30>
/home/ssysarch/Desktop/nick/jetpack_5/Jetson_Linux_R35.4.1_aarch64/Linux_for_Tegra/sources/tegra/optee-src/nv-optee/optee/optee_os/lib/libutils/isoc/bget.c:625 (discriminator 1)
    4ee0:	f0000003 	adrp	x3, 7000 <trace_ext_prefix+0x509>
    4ee4:	912e9063 	add	x3, x3, #0xba4
    4ee8:	f0000001 	adrp	x1, 7000 <trace_ext_prefix+0x509>
    4eec:	9123bc21 	add	x1, x1, #0x8ef
    4ef0:	f0000000 	adrp	x0, 7000 <trace_ext_prefix+0x509>
    4ef4:	91239800 	add	x0, x0, #0x8e6
    4ef8:	52804e22 	mov	w2, #0x271                 	// #625
/home/ssysarch/Desktop/nick/jetpack_5/Jetson_Linux_R35.4.1_aarch64/Linux_for_Tegra/sources/tegra/optee-src/nv-optee/optee/optee_os/lib/libutils/isoc/bget.c:690
    4efc:	97ffffd9 	bl	4e60 <_assert_trap>
/home/ssysarch/Desktop/nick/jetpack_5/Jetson_Linux_R35.4.1_aarch64/Linux_for_Tegra/sources/tegra/optee-src/nv-optee/optee/optee_os/lib/libutils/isoc/bget.c:628 (discriminator 2)
    4f00:	f100001f 	cmp	x0, #0x0
    4f04:	5400024b 	b.lt	4f4c <bget+0x7c>  // b.tstop
/home/ssysarch/Desktop/nick/jetpack_5/Jetson_Linux_R35.4.1_aarch64/Linux_for_Tegra/sources/tegra/optee-src/nv-optee/optee/optee_os/lib/libutils/isoc/bget.c:628 (discriminator 1)
    4f08:	54000080 	b.eq	4f18 <bget+0x48>  // b.none
/home/ssysarch/Desktop/nick/jetpack_5/Jetson_Linux_R35.4.1_aarch64/Linux_for_Tegra/sources/tegra/optee-src/nv-optee/optee/optee_os/lib/libutils/isoc/bget.c:628 (discriminator 3)
    4f0c:	cb0003e4 	neg	x4, x0
    4f10:	ea24001f 	bics	xzr, x0, x4
    4f14:	540001c1 	b.ne	4f4c <bget+0x7c>  // b.any
/home/ssysarch/Desktop/nick/jetpack_5/Jetson_Linux_R35.4.1_aarch64/Linux_for_Tegra/sources/tegra/optee-src/nv-optee/optee/optee_os/lib/libutils/isoc/bget.c:630
    4f18:	91004028 	add	x8, x1, #0x10
    4f1c:	f2400c3f 	tst	x1, #0xf
    4f20:	54000161 	b.ne	4f4c <bget+0x7c>  // b.any
/home/ssysarch/Desktop/nick/jetpack_5/Jetson_Linux_R35.4.1_aarch64/Linux_for_Tegra/sources/tegra/optee-src/nv-optee/optee/optee_os/lib/libutils/isoc/bget.c:640
    4f24:	d2800206 	mov	x6, #0x10                  	// #16
    4f28:	eb06005f 	cmp	x2, x6
    4f2c:	9a86a042 	csel	x2, x2, x6, ge  // ge = tcont
    4f30:	b1003c44 	adds	x4, x2, #0xf
    4f34:	540000c4 	b.mi	4f4c <bget+0x7c>  // b.first
    4f38:	eb02009f 	cmp	x4, x2
    4f3c:	54000083 	b.cc	4f4c <bget+0x7c>  // b.lo, b.ul, b.last
/home/ssysarch/Desktop/nick/jetpack_5/Jetson_Linux_R35.4.1_aarch64/Linux_for_Tegra/sources/tegra/optee-src/nv-optee/optee/optee_os/lib/libutils/isoc/bget.c:643
    4f40:	927cec84 	and	x4, x4, #0xfffffffffffffff0
/home/ssysarch/Desktop/nick/jetpack_5/Jetson_Linux_R35.4.1_aarch64/Linux_for_Tegra/sources/tegra/optee-src/nv-optee/optee/optee_os/lib/libutils/isoc/bget.c:648
    4f44:	b1004084 	adds	x4, x4, #0x10
    4f48:	54000067 	b.vc	4f54 <bget+0x84>
/home/ssysarch/Desktop/nick/jetpack_5/Jetson_Linux_R35.4.1_aarch64/Linux_for_Tegra/sources/tegra/optee-src/nv-optee/optee/optee_os/lib/libutils/isoc/bget.c:629
    4f4c:	d2800000 	mov	x0, #0x0                   	// #0
    4f50:	1400008d 	b	5184 <bget+0x2b4>
/home/ssysarch/Desktop/nick/jetpack_5/Jetson_Linux_R35.4.1_aarch64/Linux_for_Tegra/sources/tegra/optee-src/nv-optee/optee/optee_os/lib/libutils/isoc/bget.c:650
    4f54:	ab010084 	adds	x4, x4, x1
    4f58:	54ffffa6 	b.vs	4f4c <bget+0x7c>
    4f5c:	f100401f 	cmp	x0, #0x10
buf_get_pos():
/home/ssysarch/Desktop/nick/jetpack_5/Jetson_Linux_R35.4.1_aarch64/Linux_for_Tegra/sources/tegra/optee-src/nv-optee/optee/optee_os/lib/libutils/isoc/bget.c:599
    4f60:	b27be7e9 	mov	x9, #0x7fffffffffffffe0    	// #9223372036854775776
    4f64:	9a86a000 	csel	x0, x0, x6, ge  // ge = tcont
bget():
/home/ssysarch/Desktop/nick/jetpack_5/Jetson_Linux_R35.4.1_aarch64/Linux_for_Tegra/sources/tegra/optee-src/nv-optee/optee/optee_os/lib/libutils/isoc/bget.c:660
    4f68:	f9400862 	ldr	x2, [x3, #16]
buf_get_pos():
/home/ssysarch/Desktop/nick/jetpack_5/Jetson_Linux_R35.4.1_aarch64/Linux_for_Tegra/sources/tegra/optee-src/nv-optee/optee/optee_os/lib/libutils/isoc/bget.c:594
    4f6c:	cb0003e6 	neg	x6, x0
bget():
/home/ssysarch/Desktop/nick/jetpack_5/Jetson_Linux_R35.4.1_aarch64/Linux_for_Tegra/sources/tegra/optee-src/nv-optee/optee/optee_os/lib/libutils/isoc/bget.c:684
    4f70:	eb03005f 	cmp	x2, x3
    4f74:	54fffec0 	b.eq	4f4c <bget+0x7c>  // b.none
buf_get_pos():
/home/ssysarch/Desktop/nick/jetpack_5/Jetson_Linux_R35.4.1_aarch64/Linux_for_Tegra/sources/tegra/optee-src/nv-optee/optee/optee_os/lib/libutils/isoc/bget.c:585
    4f78:	f9400445 	ldr	x5, [x2, #8]
    4f7c:	eb05009f 	cmp	x4, x5
    4f80:	5400106c 	b.gt	518c <bget+0x2bc>
/home/ssysarch/Desktop/nick/jetpack_5/Jetson_Linux_R35.4.1_aarch64/Linux_for_Tegra/sources/tegra/optee-src/nv-optee/optee/optee_os/lib/libutils/isoc/bget.c:592
    4f84:	cb040040 	sub	x0, x2, x4
/home/ssysarch/Desktop/nick/jetpack_5/Jetson_Linux_R35.4.1_aarch64/Linux_for_Tegra/sources/tegra/optee-src/nv-optee/optee/optee_os/lib/libutils/isoc/bget.c:595
    4f88:	8b010047 	add	x7, x2, x1
/home/ssysarch/Desktop/nick/jetpack_5/Jetson_Linux_R35.4.1_aarch64/Linux_for_Tegra/sources/tegra/optee-src/nv-optee/optee/optee_os/lib/libutils/isoc/bget.c:592
    4f8c:	8b080000 	add	x0, x0, x8
    4f90:	8b050000 	add	x0, x0, x5
/home/ssysarch/Desktop/nick/jetpack_5/Jetson_Linux_R35.4.1_aarch64/Linux_for_Tegra/sources/tegra/optee-src/nv-optee/optee/optee_os/lib/libutils/isoc/bget.c:594
    4f94:	8a0000c0 	and	x0, x6, x0
/home/ssysarch/Desktop/nick/jetpack_5/Jetson_Linux_R35.4.1_aarch64/Linux_for_Tegra/sources/tegra/optee-src/nv-optee/optee/optee_os/lib/libutils/isoc/bget.c:595
    4f98:	cb070000 	sub	x0, x0, x7
/home/ssysarch/Desktop/nick/jetpack_5/Jetson_Linux_R35.4.1_aarch64/Linux_for_Tegra/sources/tegra/optee-src/nv-optee/optee/optee_os/lib/libutils/isoc/bget.c:597
    4f9c:	f1004007 	subs	x7, x0, #0x10
    4fa0:	54000080 	b.eq	4fb0 <bget+0xe0>  // b.none
/home/ssysarch/Desktop/nick/jetpack_5/Jetson_Linux_R35.4.1_aarch64/Linux_for_Tegra/sources/tegra/optee-src/nv-optee/optee/optee_os/lib/libutils/isoc/bget.c:599
    4fa4:	d100c000 	sub	x0, x0, #0x30
    4fa8:	eb09001f 	cmp	x0, x9
    4fac:	54000f02 	b.cs	518c <bget+0x2bc>  // b.hs, b.nlast
bget():
/home/ssysarch/Desktop/nick/jetpack_5/Jetson_Linux_R35.4.1_aarch64/Linux_for_Tegra/sources/tegra/optee-src/nv-optee/optee/optee_os/lib/libutils/isoc/bget.c:690
    4fb0:	f8656841 	ldr	x1, [x2, x5]
/home/ssysarch/Desktop/nick/jetpack_5/Jetson_Linux_R35.4.1_aarch64/Linux_for_Tegra/sources/tegra/optee-src/nv-optee/optee/optee_os/lib/libutils/isoc/bget.c:687
    4fb4:	8b070040 	add	x0, x2, x7
/home/ssysarch/Desktop/nick/jetpack_5/Jetson_Linux_R35.4.1_aarch64/Linux_for_Tegra/sources/tegra/optee-src/nv-optee/optee/optee_os/lib/libutils/isoc/bget.c:688
    4fb8:	8b050046 	add	x6, x2, x5
/home/ssysarch/Desktop/nick/jetpack_5/Jetson_Linux_R35.4.1_aarch64/Linux_for_Tegra/sources/tegra/optee-src/nv-optee/optee/optee_os/lib/libutils/isoc/bget.c:690
    4fbc:	eb05003f 	cmp	x1, x5
    4fc0:	54000120 	b.eq	4fe4 <bget+0x114>  // b.none
    4fc4:	f0000003 	adrp	x3, 7000 <trace_ext_prefix+0x509>
    4fc8:	912e9063 	add	x3, x3, #0xba4
    4fcc:	f0000001 	adrp	x1, 7000 <trace_ext_prefix+0x509>
    4fd0:	9123bc21 	add	x1, x1, #0x8ef
    4fd4:	f0000000 	adrp	x0, 7000 <trace_ext_prefix+0x509>
    4fd8:	91242000 	add	x0, x0, #0x908
    4fdc:	52805642 	mov	w2, #0x2b2                 	// #690
    4fe0:	17ffffc7 	b	4efc <bget+0x2c>
/home/ssysarch/Desktop/nick/jetpack_5/Jetson_Linux_R35.4.1_aarch64/Linux_for_Tegra/sources/tegra/optee-src/nv-optee/optee/optee_os/lib/libutils/isoc/bget.c:698
    4fe4:	f9400c41 	ldr	x1, [x2, #24]
/home/ssysarch/Desktop/nick/jetpack_5/Jetson_Linux_R35.4.1_aarch64/Linux_for_Tegra/sources/tegra/optee-src/nv-optee/optee/optee_os/lib/libutils/isoc/bget.c:696
    4fe8:	f825685f 	str	xzr, [x2, x5]
/home/ssysarch/Desktop/nick/jetpack_5/Jetson_Linux_R35.4.1_aarch64/Linux_for_Tegra/sources/tegra/optee-src/nv-optee/optee/optee_os/lib/libutils/isoc/bget.c:698
    4fec:	f9400828 	ldr	x8, [x1, #16]
    4ff0:	eb08005f 	cmp	x2, x8
    4ff4:	54000120 	b.eq	5018 <bget+0x148>  // b.none
    4ff8:	f0000003 	adrp	x3, 7000 <trace_ext_prefix+0x509>
    4ffc:	912e9063 	add	x3, x3, #0xba4
    5000:	d0000001 	adrp	x1, 7000 <trace_ext_prefix+0x509>
    5004:	9123bc21 	add	x1, x1, #0x8ef
    5008:	d0000000 	adrp	x0, 7000 <trace_ext_prefix+0x509>
    500c:	9124a000 	add	x0, x0, #0x928
    5010:	52805742 	mov	w2, #0x2ba                 	// #698
    5014:	17ffffba 	b	4efc <bget+0x2c>
/home/ssysarch/Desktop/nick/jetpack_5/Jetson_Linux_R35.4.1_aarch64/Linux_for_Tegra/sources/tegra/optee-src/nv-optee/optee/optee_os/lib/libutils/isoc/bget.c:699
    5018:	f9400848 	ldr	x8, [x2, #16]
    501c:	f9400d09 	ldr	x9, [x8, #24]
    5020:	eb09005f 	cmp	x2, x9
    5024:	54000120 	b.eq	5048 <bget+0x178>  // b.none
    5028:	d0000003 	adrp	x3, 7000 <trace_ext_prefix+0x509>
    502c:	912e9063 	add	x3, x3, #0xba4
    5030:	d0000001 	adrp	x1, 7000 <trace_ext_prefix+0x509>
    5034:	9123bc21 	add	x1, x1, #0x8ef
    5038:	d0000000 	adrp	x0, 7000 <trace_ext_prefix+0x509>
    503c:	91250c00 	add	x0, x0, #0x943
    5040:	52805762 	mov	w2, #0x2bb                 	// #699
    5044:	17ffffae 	b	4efc <bget+0x2c>
/home/ssysarch/Desktop/nick/jetpack_5/Jetson_Linux_R35.4.1_aarch64/Linux_for_Tegra/sources/tegra/optee-src/nv-optee/optee/optee_os/lib/libutils/isoc/bget.c:701
    5048:	b5000207 	cbnz	x7, 5088 <bget+0x1b8>
/home/ssysarch/Desktop/nick/jetpack_5/Jetson_Linux_R35.4.1_aarch64/Linux_for_Tegra/sources/tegra/optee-src/nv-optee/optee/optee_os/lib/libutils/isoc/bget.c:706
    504c:	f9000828 	str	x8, [x1, #16]
/home/ssysarch/Desktop/nick/jetpack_5/Jetson_Linux_R35.4.1_aarch64/Linux_for_Tegra/sources/tegra/optee-src/nv-optee/optee/optee_os/lib/libutils/isoc/bget.c:710
    5050:	cb0503e5 	neg	x5, x5
/home/ssysarch/Desktop/nick/jetpack_5/Jetson_Linux_R35.4.1_aarch64/Linux_for_Tegra/sources/tegra/optee-src/nv-optee/optee/optee_os/lib/libutils/isoc/bget.c:707
    5054:	f9400847 	ldr	x7, [x2, #16]
    5058:	f9000ce1 	str	x1, [x7, #24]
/home/ssysarch/Desktop/nick/jetpack_5/Jetson_Linux_R35.4.1_aarch64/Linux_for_Tegra/sources/tegra/optee-src/nv-optee/optee/optee_os/lib/libutils/isoc/bget.c:710
    505c:	f9000445 	str	x5, [x2, #8]
/home/ssysarch/Desktop/nick/jetpack_5/Jetson_Linux_R35.4.1_aarch64/Linux_for_Tegra/sources/tegra/optee-src/nv-optee/optee/optee_os/lib/libutils/isoc/bget.c:721
    5060:	f9400402 	ldr	x2, [x0, #8]
    5064:	b7f801a2 	tbnz	x2, #63, 5098 <bget+0x1c8>
    5068:	d0000003 	adrp	x3, 7000 <trace_ext_prefix+0x509>
    506c:	912e9063 	add	x3, x3, #0xba4
    5070:	d0000001 	adrp	x1, 7000 <trace_ext_prefix+0x509>
    5074:	9123bc21 	add	x1, x1, #0x8ef
    5078:	d0000000 	adrp	x0, 7000 <trace_ext_prefix+0x509>
    507c:	91257800 	add	x0, x0, #0x95e
    5080:	52805a22 	mov	w2, #0x2d1                 	// #721
    5084:	17ffff9e 	b	4efc <bget+0x2c>
/home/ssysarch/Desktop/nick/jetpack_5/Jetson_Linux_R35.4.1_aarch64/Linux_for_Tegra/sources/tegra/optee-src/nv-optee/optee/optee_os/lib/libutils/isoc/bget.c:716
    5088:	cb0500e5 	sub	x5, x7, x5
    508c:	a9001407 	stp	x7, x5, [x0]
/home/ssysarch/Desktop/nick/jetpack_5/Jetson_Linux_R35.4.1_aarch64/Linux_for_Tegra/sources/tegra/optee-src/nv-optee/optee/optee_os/lib/libutils/isoc/bget.c:718
    5090:	f9000447 	str	x7, [x2, #8]
    5094:	17fffff3 	b	5060 <bget+0x190>
/home/ssysarch/Desktop/nick/jetpack_5/Jetson_Linux_R35.4.1_aarch64/Linux_for_Tegra/sources/tegra/optee-src/nv-optee/optee/optee_os/lib/libutils/isoc/bget.c:727
    5098:	cb0203e2 	neg	x2, x2
    509c:	cb040042 	sub	x2, x2, x4
    50a0:	f100805f 	cmp	x2, #0x20
    50a4:	54000609 	b.ls	5164 <bget+0x294>  // b.plast
/home/ssysarch/Desktop/nick/jetpack_5/Jetson_Linux_R35.4.1_aarch64/Linux_for_Tegra/sources/tegra/optee-src/nv-optee/optee/optee_os/lib/libutils/isoc/bget.c:733
    50a8:	8b040001 	add	x1, x0, x4
/home/ssysarch/Desktop/nick/jetpack_5/Jetson_Linux_R35.4.1_aarch64/Linux_for_Tegra/sources/tegra/optee-src/nv-optee/optee/optee_os/lib/libutils/isoc/bget.c:734
    50ac:	f9000422 	str	x2, [x1, #8]
/home/ssysarch/Desktop/nick/jetpack_5/Jetson_Linux_R35.4.1_aarch64/Linux_for_Tegra/sources/tegra/optee-src/nv-optee/optee/optee_os/lib/libutils/isoc/bget.c:735
    50b0:	f824681f 	str	xzr, [x0, x4]
/home/ssysarch/Desktop/nick/jetpack_5/Jetson_Linux_R35.4.1_aarch64/Linux_for_Tegra/sources/tegra/optee-src/nv-optee/optee/optee_os/lib/libutils/isoc/bget.c:736
    50b4:	f9400404 	ldr	x4, [x0, #8]
    50b8:	8b020082 	add	x2, x4, x2
    50bc:	f9000402 	str	x2, [x0, #8]
/home/ssysarch/Desktop/nick/jetpack_5/Jetson_Linux_R35.4.1_aarch64/Linux_for_Tegra/sources/tegra/optee-src/nv-optee/optee/optee_os/lib/libutils/isoc/bget.c:738
    50c0:	f9400c62 	ldr	x2, [x3, #24]
    50c4:	f9400844 	ldr	x4, [x2, #16]
    50c8:	eb03009f 	cmp	x4, x3
    50cc:	54000120 	b.eq	50f0 <bget+0x220>  // b.none
    50d0:	d0000003 	adrp	x3, 7000 <trace_ext_prefix+0x509>
    50d4:	912e9063 	add	x3, x3, #0xba4
    50d8:	d0000001 	adrp	x1, 7000 <trace_ext_prefix+0x509>
    50dc:	9123bc21 	add	x1, x1, #0x8ef
    50e0:	d0000000 	adrp	x0, 7000 <trace_ext_prefix+0x509>
    50e4:	9125c400 	add	x0, x0, #0x971
    50e8:	52805c42 	mov	w2, #0x2e2                 	// #738
    50ec:	17ffff84 	b	4efc <bget+0x2c>
/home/ssysarch/Desktop/nick/jetpack_5/Jetson_Linux_R35.4.1_aarch64/Linux_for_Tegra/sources/tegra/optee-src/nv-optee/optee/optee_os/lib/libutils/isoc/bget.c:740
    50f0:	f9400864 	ldr	x4, [x3, #16]
    50f4:	f9400c84 	ldr	x4, [x4, #24]
    50f8:	eb03009f 	cmp	x4, x3
    50fc:	54000120 	b.eq	5120 <bget+0x250>  // b.none
    5100:	d0000003 	adrp	x3, 7000 <trace_ext_prefix+0x509>
    5104:	912e9063 	add	x3, x3, #0xba4
    5108:	d0000001 	adrp	x1, 7000 <trace_ext_prefix+0x509>
    510c:	9123bc21 	add	x1, x1, #0x8ef
    5110:	d0000000 	adrp	x0, 7000 <trace_ext_prefix+0x509>
    5114:	9126b000 	add	x0, x0, #0x9ac
    5118:	52805c82 	mov	w2, #0x2e4                 	// #740
    511c:	17ffff78 	b	4efc <bget+0x2c>
/home/ssysarch/Desktop/nick/jetpack_5/Jetson_Linux_R35.4.1_aarch64/Linux_for_Tegra/sources/tegra/optee-src/nv-optee/optee/optee_os/lib/libutils/isoc/bget.c:743
    5120:	a9010823 	stp	x3, x2, [x1, #16]
/home/ssysarch/Desktop/nick/jetpack_5/Jetson_Linux_R35.4.1_aarch64/Linux_for_Tegra/sources/tegra/optee-src/nv-optee/optee/optee_os/lib/libutils/isoc/bget.c:744
    5124:	f9000c61 	str	x1, [x3, #24]
/home/ssysarch/Desktop/nick/jetpack_5/Jetson_Linux_R35.4.1_aarch64/Linux_for_Tegra/sources/tegra/optee-src/nv-optee/optee/optee_os/lib/libutils/isoc/bget.c:745
    5128:	f9400c22 	ldr	x2, [x1, #24]
    512c:	f9000841 	str	x1, [x2, #16]
/home/ssysarch/Desktop/nick/jetpack_5/Jetson_Linux_R35.4.1_aarch64/Linux_for_Tegra/sources/tegra/optee-src/nv-optee/optee/optee_os/lib/libutils/isoc/bget.c:747
    5130:	f9400422 	ldr	x2, [x1, #8]
    5134:	8b020021 	add	x1, x1, x2
    5138:	eb0100df 	cmp	x6, x1
    513c:	54000120 	b.eq	5160 <bget+0x290>  // b.none
    5140:	d0000003 	adrp	x3, 7000 <trace_ext_prefix+0x509>
    5144:	912e9063 	add	x3, x3, #0xba4
    5148:	d0000001 	adrp	x1, 7000 <trace_ext_prefix+0x509>
    514c:	9123bc21 	add	x1, x1, #0x8ef
    5150:	d0000000 	adrp	x0, 7000 <trace_ext_prefix+0x509>
    5154:	91279c00 	add	x0, x0, #0x9e7
    5158:	52805d62 	mov	w2, #0x2eb                 	// #747
    515c:	17ffff68 	b	4efc <bget+0x2c>
/home/ssysarch/Desktop/nick/jetpack_5/Jetson_Linux_R35.4.1_aarch64/Linux_for_Tegra/sources/tegra/optee-src/nv-optee/optee/optee_os/lib/libutils/isoc/bget.c:748
    5160:	f90000c2 	str	x2, [x6]
/home/ssysarch/Desktop/nick/jetpack_5/Jetson_Linux_R35.4.1_aarch64/Linux_for_Tegra/sources/tegra/optee-src/nv-optee/optee/optee_os/lib/libutils/isoc/bget.c:752
    5164:	f9400402 	ldr	x2, [x0, #8]
/home/ssysarch/Desktop/nick/jetpack_5/Jetson_Linux_R35.4.1_aarch64/Linux_for_Tegra/sources/tegra/optee-src/nv-optee/optee/optee_os/lib/libutils/isoc/bget.c:755
    5168:	91004000 	add	x0, x0, #0x10
/home/ssysarch/Desktop/nick/jetpack_5/Jetson_Linux_R35.4.1_aarch64/Linux_for_Tegra/sources/tegra/optee-src/nv-optee/optee/optee_os/lib/libutils/isoc/bget.c:752
    516c:	f9401061 	ldr	x1, [x3, #32]
    5170:	cb020021 	sub	x1, x1, x2
    5174:	f9001061 	str	x1, [x3, #32]
/home/ssysarch/Desktop/nick/jetpack_5/Jetson_Linux_R35.4.1_aarch64/Linux_for_Tegra/sources/tegra/optee-src/nv-optee/optee/optee_os/lib/libutils/isoc/bget.c:753
    5178:	f9401461 	ldr	x1, [x3, #40]
    517c:	91000421 	add	x1, x1, #0x1
    5180:	f9001461 	str	x1, [x3, #40]
/home/ssysarch/Desktop/nick/jetpack_5/Jetson_Linux_R35.4.1_aarch64/Linux_for_Tegra/sources/tegra/optee-src/nv-optee/optee/optee_os/lib/libutils/isoc/bget.c:837
    5184:	a8c17bfd 	ldp	x29, x30, [sp], #16
    5188:	d65f03c0 	ret
/home/ssysarch/Desktop/nick/jetpack_5/Jetson_Linux_R35.4.1_aarch64/Linux_for_Tegra/sources/tegra/optee-src/nv-optee/optee/optee_os/lib/libutils/isoc/bget.c:758
    518c:	f9400842 	ldr	x2, [x2, #16]
    5190:	17ffff78 	b	4f70 <bget+0xa0>

0000000000005194 <bgetz>:
bgetz():
/home/ssysarch/Desktop/nick/jetpack_5/Jetson_Linux_R35.4.1_aarch64/Linux_for_Tegra/sources/tegra/optee-src/nv-optee/optee/optee_os/lib/libutils/isoc/bget.c:848
    5194:	a9be7bfd 	stp	x29, x30, [sp, #-32]!
    5198:	910003fd 	mov	x29, sp
    519c:	f9000bf3 	str	x19, [sp, #16]
    51a0:	aa0203f3 	mov	x19, x2
/home/ssysarch/Desktop/nick/jetpack_5/Jetson_Linux_R35.4.1_aarch64/Linux_for_Tegra/sources/tegra/optee-src/nv-optee/optee/optee_os/lib/libutils/isoc/bget.c:849
    51a4:	97ffff4b 	bl	4ed0 <bget>
    51a8:	aa0003e3 	mov	x3, x0
/home/ssysarch/Desktop/nick/jetpack_5/Jetson_Linux_R35.4.1_aarch64/Linux_for_Tegra/sources/tegra/optee-src/nv-optee/optee/optee_os/lib/libutils/isoc/bget.c:851
    51ac:	b40002e0 	cbz	x0, 5208 <bgetz+0x74>
/home/ssysarch/Desktop/nick/jetpack_5/Jetson_Linux_R35.4.1_aarch64/Linux_for_Tegra/sources/tegra/optee-src/nv-optee/optee/optee_os/lib/libutils/isoc/bget.c:856
    51b0:	f85f8002 	ldur	x2, [x0, #-8]
/home/ssysarch/Desktop/nick/jetpack_5/Jetson_Linux_R35.4.1_aarch64/Linux_for_Tegra/sources/tegra/optee-src/nv-optee/optee/optee_os/lib/libutils/isoc/bget.c:857
    51b4:	b50001c2 	cbnz	x2, 51ec <bgetz+0x58>
/home/ssysarch/Desktop/nick/jetpack_5/Jetson_Linux_R35.4.1_aarch64/Linux_for_Tegra/sources/tegra/optee-src/nv-optee/optee/optee_os/lib/libutils/isoc/bget.c:861
    51b8:	a97e0801 	ldp	x1, x2, [x0, #-32]
    51bc:	d1008021 	sub	x1, x1, #0x20
/home/ssysarch/Desktop/nick/jetpack_5/Jetson_Linux_R35.4.1_aarch64/Linux_for_Tegra/sources/tegra/optee-src/nv-optee/optee/optee_os/lib/libutils/isoc/bget.c:863
    51c0:	cb020022 	sub	x2, x1, x2
/home/ssysarch/Desktop/nick/jetpack_5/Jetson_Linux_R35.4.1_aarch64/Linux_for_Tegra/sources/tegra/optee-src/nv-optee/optee/optee_os/lib/libutils/isoc/bget.c:865
    51c4:	eb13005f 	cmp	x2, x19
    51c8:	5400016a 	b.ge	51f4 <bgetz+0x60>  // b.tcont
    51cc:	d0000003 	adrp	x3, 7000 <trace_ext_prefix+0x509>
    51d0:	912ea463 	add	x3, x3, #0xba9
    51d4:	d0000001 	adrp	x1, 7000 <trace_ext_prefix+0x509>
    51d8:	9123bc21 	add	x1, x1, #0x8ef
    51dc:	d0000000 	adrp	x0, 7000 <trace_ext_prefix+0x509>
    51e0:	91283400 	add	x0, x0, #0xa0d
    51e4:	52806c22 	mov	w2, #0x361                 	// #865
    51e8:	97ffff1e 	bl	4e60 <_assert_trap>
/home/ssysarch/Desktop/nick/jetpack_5/Jetson_Linux_R35.4.1_aarch64/Linux_for_Tegra/sources/tegra/optee-src/nv-optee/optee/optee_os/lib/libutils/isoc/bget.c:863
    51ec:	928001e1 	mov	x1, #0xfffffffffffffff0    	// #-16
    51f0:	17fffff4 	b	51c0 <bgetz+0x2c>
memset_unchecked():
/home/ssysarch/Desktop/nick/jetpack_5/Jetson_Linux_R35.4.1_aarch64/Linux_for_Tegra/sources/tegra/optee-src/nv-optee/optee/optee_os/lib/libutils/isoc/bget_malloc.c:115
    51f4:	aa0303e0 	mov	x0, x3
    51f8:	93407c42 	sxtw	x2, w2
    51fc:	52800001 	mov	w1, #0x0                   	// #0
    5200:	940001e1 	bl	5984 <memset>
    5204:	aa0003e3 	mov	x3, x0
bgetz():
/home/ssysarch/Desktop/nick/jetpack_5/Jetson_Linux_R35.4.1_aarch64/Linux_for_Tegra/sources/tegra/optee-src/nv-optee/optee/optee_os/lib/libutils/isoc/bget.c:869
    5208:	aa0303e0 	mov	x0, x3
    520c:	f9400bf3 	ldr	x19, [sp, #16]
    5210:	a8c27bfd 	ldp	x29, x30, [sp], #32
    5214:	d65f03c0 	ret

0000000000005218 <brel>:
brel():
/home/ssysarch/Desktop/nick/jetpack_5/Jetson_Linux_R35.4.1_aarch64/Linux_for_Tegra/sources/tegra/optee-src/nv-optee/optee/optee_os/lib/libutils/isoc/bget.c:923
    5218:	a9be7bfd 	stp	x29, x30, [sp, #-32]!
    521c:	2a0203e6 	mov	w6, w2
    5220:	aa0003e3 	mov	x3, x0
    5224:	910003fd 	mov	x29, sp
/home/ssysarch/Desktop/nick/jetpack_5/Jetson_Linux_R35.4.1_aarch64/Linux_for_Tegra/sources/tegra/optee-src/nv-optee/optee/optee_os/lib/libutils/isoc/bget.c:930
    5228:	f9401822 	ldr	x2, [x1, #48]
/home/ssysarch/Desktop/nick/jetpack_5/Jetson_Linux_R35.4.1_aarch64/Linux_for_Tegra/sources/tegra/optee-src/nv-optee/optee/optee_os/lib/libutils/isoc/bget.c:923
    522c:	a90153f3 	stp	x19, x20, [sp, #16]
/home/ssysarch/Desktop/nick/jetpack_5/Jetson_Linux_R35.4.1_aarch64/Linux_for_Tegra/sources/tegra/optee-src/nv-optee/optee/optee_os/lib/libutils/isoc/bget.c:930
    5230:	91000442 	add	x2, x2, #0x1
    5234:	f9001822 	str	x2, [x1, #48]
/home/ssysarch/Desktop/nick/jetpack_5/Jetson_Linux_R35.4.1_aarch64/Linux_for_Tegra/sources/tegra/optee-src/nv-optee/optee/optee_os/lib/libutils/isoc/bget.c:932
    5238:	b5000120 	cbnz	x0, 525c <brel+0x44>
/home/ssysarch/Desktop/nick/jetpack_5/Jetson_Linux_R35.4.1_aarch64/Linux_for_Tegra/sources/tegra/optee-src/nv-optee/optee/optee_os/lib/libutils/isoc/bget.c:932 (discriminator 1)
    523c:	d0000003 	adrp	x3, 7000 <trace_ext_prefix+0x509>
    5240:	912ebc63 	add	x3, x3, #0xbaf
    5244:	d0000001 	adrp	x1, 7000 <trace_ext_prefix+0x509>
    5248:	9123bc21 	add	x1, x1, #0x8ef
    524c:	d0000000 	adrp	x0, 7000 <trace_ext_prefix+0x509>
    5250:	91286c00 	add	x0, x0, #0xa1b
    5254:	52807482 	mov	w2, #0x3a4                 	// #932
/home/ssysarch/Desktop/nick/jetpack_5/Jetson_Linux_R35.4.1_aarch64/Linux_for_Tegra/sources/tegra/optee-src/nv-optee/optee/optee_os/lib/libutils/isoc/bget.c:965 (discriminator 1)
    5258:	97ffff02 	bl	4e60 <_assert_trap>
/home/ssysarch/Desktop/nick/jetpack_5/Jetson_Linux_R35.4.1_aarch64/Linux_for_Tegra/sources/tegra/optee-src/nv-optee/optee/optee_os/lib/libutils/isoc/bget.c:962
    525c:	f85f8004 	ldur	x4, [x0, #-8]
/home/ssysarch/Desktop/nick/jetpack_5/Jetson_Linux_R35.4.1_aarch64/Linux_for_Tegra/sources/tegra/optee-src/nv-optee/optee/optee_os/lib/libutils/isoc/bget.c:965
    5260:	b7f80124 	tbnz	x4, #63, 5284 <brel+0x6c>
/home/ssysarch/Desktop/nick/jetpack_5/Jetson_Linux_R35.4.1_aarch64/Linux_for_Tegra/sources/tegra/optee-src/nv-optee/optee/optee_os/lib/libutils/isoc/bget.c:965 (discriminator 1)
    5264:	d0000003 	adrp	x3, 7000 <trace_ext_prefix+0x509>
    5268:	912ebc63 	add	x3, x3, #0xbaf
    526c:	d0000001 	adrp	x1, 7000 <trace_ext_prefix+0x509>
    5270:	9123bc21 	add	x1, x1, #0x8ef
    5274:	d0000000 	adrp	x0, 7000 <trace_ext_prefix+0x509>
    5278:	91289c00 	add	x0, x0, #0xa27
    527c:	528078a2 	mov	w2, #0x3c5                 	// #965
    5280:	17fffff6 	b	5258 <brel+0x40>
    5284:	d1004000 	sub	x0, x0, #0x10
/home/ssysarch/Desktop/nick/jetpack_5/Jetson_Linux_R35.4.1_aarch64/Linux_for_Tegra/sources/tegra/optee-src/nv-optee/optee/optee_os/lib/libutils/isoc/bget.c:970
    5288:	cb040002 	sub	x2, x0, x4
    528c:	f9400042 	ldr	x2, [x2]
    5290:	b4000122 	cbz	x2, 52b4 <brel+0x9c>
/home/ssysarch/Desktop/nick/jetpack_5/Jetson_Linux_R35.4.1_aarch64/Linux_for_Tegra/sources/tegra/optee-src/nv-optee/optee/optee_os/lib/libutils/isoc/bget.c:970 (discriminator 1)
    5294:	d0000003 	adrp	x3, 7000 <trace_ext_prefix+0x509>
    5298:	912ebc63 	add	x3, x3, #0xbaf
    529c:	d0000001 	adrp	x1, 7000 <trace_ext_prefix+0x509>
    52a0:	9123bc21 	add	x1, x1, #0x8ef
    52a4:	d0000000 	adrp	x0, 7000 <trace_ext_prefix+0x509>
    52a8:	9128dc00 	add	x0, x0, #0xa37
    52ac:	52807942 	mov	w2, #0x3ca                 	// #970
    52b0:	17ffffea 	b	5258 <brel+0x40>
/home/ssysarch/Desktop/nick/jetpack_5/Jetson_Linux_R35.4.1_aarch64/Linux_for_Tegra/sources/tegra/optee-src/nv-optee/optee/optee_os/lib/libutils/isoc/bget.c:973
    52b4:	f9401025 	ldr	x5, [x1, #32]
    52b8:	8b050085 	add	x5, x4, x5
    52bc:	f9001025 	str	x5, [x1, #32]
/home/ssysarch/Desktop/nick/jetpack_5/Jetson_Linux_R35.4.1_aarch64/Linux_for_Tegra/sources/tegra/optee-src/nv-optee/optee/optee_os/lib/libutils/isoc/bget.c:974
    52c0:	b6f80125 	tbz	x5, #63, 52e4 <brel+0xcc>
/home/ssysarch/Desktop/nick/jetpack_5/Jetson_Linux_R35.4.1_aarch64/Linux_for_Tegra/sources/tegra/optee-src/nv-optee/optee/optee_os/lib/libutils/isoc/bget.c:974 (discriminator 1)
    52c4:	d0000003 	adrp	x3, 7000 <trace_ext_prefix+0x509>
    52c8:	912ebc63 	add	x3, x3, #0xbaf
    52cc:	d0000001 	adrp	x1, 7000 <trace_ext_prefix+0x509>
    52d0:	9123bc21 	add	x1, x1, #0x8ef
    52d4:	d0000000 	adrp	x0, 7000 <trace_ext_prefix+0x509>
    52d8:	91298c00 	add	x0, x0, #0xa63
    52dc:	528079c2 	mov	w2, #0x3ce                 	// #974
    52e0:	17ffffde 	b	5258 <brel+0x40>
/home/ssysarch/Desktop/nick/jetpack_5/Jetson_Linux_R35.4.1_aarch64/Linux_for_Tegra/sources/tegra/optee-src/nv-optee/optee/optee_os/lib/libutils/isoc/bget.c:979
    52e4:	f85f0065 	ldur	x5, [x3, #-16]
    52e8:	cb0403e2 	neg	x2, x4
    52ec:	b40003e5 	cbz	x5, 5368 <brel+0x150>
/home/ssysarch/Desktop/nick/jetpack_5/Jetson_Linux_R35.4.1_aarch64/Linux_for_Tegra/sources/tegra/optee-src/nv-optee/optee/optee_os/lib/libutils/isoc/bget.c:994
    52f0:	cb050013 	sub	x19, x0, x5
    52f4:	f9400661 	ldr	x1, [x19, #8]
    52f8:	eb0100bf 	cmp	x5, x1
    52fc:	54000120 	b.eq	5320 <brel+0x108>  // b.none
/home/ssysarch/Desktop/nick/jetpack_5/Jetson_Linux_R35.4.1_aarch64/Linux_for_Tegra/sources/tegra/optee-src/nv-optee/optee/optee_os/lib/libutils/isoc/bget.c:994 (discriminator 1)
    5300:	d0000003 	adrp	x3, 7000 <trace_ext_prefix+0x509>
    5304:	912ebc63 	add	x3, x3, #0xbaf
    5308:	d0000001 	adrp	x1, 7000 <trace_ext_prefix+0x509>
    530c:	9123bc21 	add	x1, x1, #0x8ef
    5310:	d0000000 	adrp	x0, 7000 <trace_ext_prefix+0x509>
    5314:	9129e800 	add	x0, x0, #0xa7a
    5318:	52807c42 	mov	w2, #0x3e2                 	// #994
    531c:	17ffffcf 	b	5258 <brel+0x40>
/home/ssysarch/Desktop/nick/jetpack_5/Jetson_Linux_R35.4.1_aarch64/Linux_for_Tegra/sources/tegra/optee-src/nv-optee/optee/optee_os/lib/libutils/isoc/bget.c:996
    5320:	cb0400a4 	sub	x4, x5, x4
    5324:	f9000664 	str	x4, [x19, #8]
/home/ssysarch/Desktop/nick/jetpack_5/Jetson_Linux_R35.4.1_aarch64/Linux_for_Tegra/sources/tegra/optee-src/nv-optee/optee/optee_os/lib/libutils/isoc/bget.c:1019
    5328:	f9400661 	ldr	x1, [x19, #8]
    532c:	8b010274 	add	x20, x19, x1
/home/ssysarch/Desktop/nick/jetpack_5/Jetson_Linux_R35.4.1_aarch64/Linux_for_Tegra/sources/tegra/optee-src/nv-optee/optee/optee_os/lib/libutils/isoc/bget.c:1020
    5330:	f9400683 	ldr	x3, [x20, #8]
    5334:	f100007f 	cmp	x3, #0x0
    5338:	5400098d 	b.le	5468 <brel+0x250>
/home/ssysarch/Desktop/nick/jetpack_5/Jetson_Linux_R35.4.1_aarch64/Linux_for_Tegra/sources/tegra/optee-src/nv-optee/optee/optee_os/lib/libutils/isoc/bget.c:1025
    533c:	f8636a84 	ldr	x4, [x20, x3]
    5340:	eb04007f 	cmp	x3, x4
    5344:	54000560 	b.eq	53f0 <brel+0x1d8>  // b.none
/home/ssysarch/Desktop/nick/jetpack_5/Jetson_Linux_R35.4.1_aarch64/Linux_for_Tegra/sources/tegra/optee-src/nv-optee/optee/optee_os/lib/libutils/isoc/bget.c:1025 (discriminator 1)
    5348:	d0000003 	adrp	x3, 7000 <trace_ext_prefix+0x509>
    534c:	912ebc63 	add	x3, x3, #0xbaf
    5350:	d0000001 	adrp	x1, 7000 <trace_ext_prefix+0x509>
    5354:	9123bc21 	add	x1, x1, #0x8ef
    5358:	d0000000 	adrp	x0, 7000 <trace_ext_prefix+0x509>
    535c:	912acc00 	add	x0, x0, #0xab3
    5360:	52808022 	mov	w2, #0x401                 	// #1025
    5364:	17ffffbd 	b	5258 <brel+0x40>
/home/ssysarch/Desktop/nick/jetpack_5/Jetson_Linux_R35.4.1_aarch64/Linux_for_Tegra/sources/tegra/optee-src/nv-optee/optee/optee_os/lib/libutils/isoc/bget.c:1002
    5368:	f9400c27 	ldr	x7, [x1, #24]
    536c:	f94008e5 	ldr	x5, [x7, #16]
    5370:	eb0100bf 	cmp	x5, x1
    5374:	54000120 	b.eq	5398 <brel+0x180>  // b.none
/home/ssysarch/Desktop/nick/jetpack_5/Jetson_Linux_R35.4.1_aarch64/Linux_for_Tegra/sources/tegra/optee-src/nv-optee/optee/optee_os/lib/libutils/isoc/bget.c:1002 (discriminator 1)
    5378:	d0000003 	adrp	x3, 7000 <trace_ext_prefix+0x509>
    537c:	912ebc63 	add	x3, x3, #0xbaf
    5380:	d0000001 	adrp	x1, 7000 <trace_ext_prefix+0x509>
    5384:	9123bc21 	add	x1, x1, #0x8ef
    5388:	d0000000 	adrp	x0, 7000 <trace_ext_prefix+0x509>
    538c:	9125c400 	add	x0, x0, #0x971
    5390:	52807d42 	mov	w2, #0x3ea                 	// #1002
    5394:	17ffffb1 	b	5258 <brel+0x40>
/home/ssysarch/Desktop/nick/jetpack_5/Jetson_Linux_R35.4.1_aarch64/Linux_for_Tegra/sources/tegra/optee-src/nv-optee/optee/optee_os/lib/libutils/isoc/bget.c:1003
    5398:	f94008a1 	ldr	x1, [x5, #16]
    539c:	f9400c21 	ldr	x1, [x1, #24]
    53a0:	eb0100bf 	cmp	x5, x1
    53a4:	54000120 	b.eq	53c8 <brel+0x1b0>  // b.none
/home/ssysarch/Desktop/nick/jetpack_5/Jetson_Linux_R35.4.1_aarch64/Linux_for_Tegra/sources/tegra/optee-src/nv-optee/optee/optee_os/lib/libutils/isoc/bget.c:1003 (discriminator 1)
    53a8:	d0000003 	adrp	x3, 7000 <trace_ext_prefix+0x509>
    53ac:	912ebc63 	add	x3, x3, #0xbaf
    53b0:	d0000001 	adrp	x1, 7000 <trace_ext_prefix+0x509>
    53b4:	9123bc21 	add	x1, x1, #0x8ef
    53b8:	d0000000 	adrp	x0, 7000 <trace_ext_prefix+0x509>
    53bc:	9126b000 	add	x0, x0, #0x9ac
    53c0:	52807d62 	mov	w2, #0x3eb                 	// #1003
    53c4:	17ffffa5 	b	5258 <brel+0x40>
/home/ssysarch/Desktop/nick/jetpack_5/Jetson_Linux_R35.4.1_aarch64/Linux_for_Tegra/sources/tegra/optee-src/nv-optee/optee/optee_os/lib/libutils/isoc/bget.c:1005
    53c8:	a9011c05 	stp	x5, x7, [x0, #16]
/home/ssysarch/Desktop/nick/jetpack_5/Jetson_Linux_R35.4.1_aarch64/Linux_for_Tegra/sources/tegra/optee-src/nv-optee/optee/optee_os/lib/libutils/isoc/bget.c:928
    53cc:	aa0003f3 	mov	x19, x0
/home/ssysarch/Desktop/nick/jetpack_5/Jetson_Linux_R35.4.1_aarch64/Linux_for_Tegra/sources/tegra/optee-src/nv-optee/optee/optee_os/lib/libutils/isoc/bget.c:1006
    53d0:	f9000ca0 	str	x0, [x5, #24]
/home/ssysarch/Desktop/nick/jetpack_5/Jetson_Linux_R35.4.1_aarch64/Linux_for_Tegra/sources/tegra/optee-src/nv-optee/optee/optee_os/lib/libutils/isoc/bget.c:1007
    53d4:	f9400c01 	ldr	x1, [x0, #24]
    53d8:	f9000820 	str	x0, [x1, #16]
/home/ssysarch/Desktop/nick/jetpack_5/Jetson_Linux_R35.4.1_aarch64/Linux_for_Tegra/sources/tegra/optee-src/nv-optee/optee/optee_os/lib/libutils/isoc/bget.c:1011
    53dc:	928003e1 	mov	x1, #0xffffffffffffffe0    	// #-32
/home/ssysarch/Desktop/nick/jetpack_5/Jetson_Linux_R35.4.1_aarch64/Linux_for_Tegra/sources/tegra/optee-src/nv-optee/optee/optee_os/lib/libutils/isoc/bget.c:1010
    53e0:	91004060 	add	x0, x3, #0x10
/home/ssysarch/Desktop/nick/jetpack_5/Jetson_Linux_R35.4.1_aarch64/Linux_for_Tegra/sources/tegra/optee-src/nv-optee/optee/optee_os/lib/libutils/isoc/bget.c:1008
    53e4:	f81f8062 	stur	x2, [x3, #-8]
/home/ssysarch/Desktop/nick/jetpack_5/Jetson_Linux_R35.4.1_aarch64/Linux_for_Tegra/sources/tegra/optee-src/nv-optee/optee/optee_os/lib/libutils/isoc/bget.c:1011
    53e8:	cb040022 	sub	x2, x1, x4
    53ec:	17ffffcf 	b	5328 <brel+0x110>
/home/ssysarch/Desktop/nick/jetpack_5/Jetson_Linux_R35.4.1_aarch64/Linux_for_Tegra/sources/tegra/optee-src/nv-optee/optee/optee_os/lib/libutils/isoc/bget.c:1026
    53f0:	f9400e85 	ldr	x5, [x20, #24]
    53f4:	f94008a7 	ldr	x7, [x5, #16]
    53f8:	eb1400ff 	cmp	x7, x20
    53fc:	54000120 	b.eq	5420 <brel+0x208>  // b.none
/home/ssysarch/Desktop/nick/jetpack_5/Jetson_Linux_R35.4.1_aarch64/Linux_for_Tegra/sources/tegra/optee-src/nv-optee/optee/optee_os/lib/libutils/isoc/bget.c:1026 (discriminator 1)
    5400:	d0000003 	adrp	x3, 7000 <trace_ext_prefix+0x509>
    5404:	912ebc63 	add	x3, x3, #0xbaf
    5408:	d0000001 	adrp	x1, 7000 <trace_ext_prefix+0x509>
    540c:	9123bc21 	add	x1, x1, #0x8ef
    5410:	d0000000 	adrp	x0, 7000 <trace_ext_prefix+0x509>
    5414:	912bb000 	add	x0, x0, #0xaec
    5418:	52808042 	mov	w2, #0x402                 	// #1026
    541c:	17ffff8f 	b	5258 <brel+0x40>
/home/ssysarch/Desktop/nick/jetpack_5/Jetson_Linux_R35.4.1_aarch64/Linux_for_Tegra/sources/tegra/optee-src/nv-optee/optee/optee_os/lib/libutils/isoc/bget.c:1027
    5420:	f94008e4 	ldr	x4, [x7, #16]
    5424:	f9400c88 	ldr	x8, [x4, #24]
    5428:	eb07011f 	cmp	x8, x7
    542c:	54000120 	b.eq	5450 <brel+0x238>  // b.none
/home/ssysarch/Desktop/nick/jetpack_5/Jetson_Linux_R35.4.1_aarch64/Linux_for_Tegra/sources/tegra/optee-src/nv-optee/optee/optee_os/lib/libutils/isoc/bget.c:1027 (discriminator 1)
    5430:	d0000003 	adrp	x3, 7000 <trace_ext_prefix+0x509>
    5434:	912ebc63 	add	x3, x3, #0xbaf
    5438:	d0000001 	adrp	x1, 7000 <trace_ext_prefix+0x509>
    543c:	9123bc21 	add	x1, x1, #0x8ef
    5440:	d0000000 	adrp	x0, 7000 <trace_ext_prefix+0x509>
    5444:	912c2400 	add	x0, x0, #0xb09
    5448:	52808062 	mov	w2, #0x403                 	// #1027
    544c:	17ffff83 	b	5258 <brel+0x40>
/home/ssysarch/Desktop/nick/jetpack_5/Jetson_Linux_R35.4.1_aarch64/Linux_for_Tegra/sources/tegra/optee-src/nv-optee/optee/optee_os/lib/libutils/isoc/bget.c:1028
    5450:	f90008a4 	str	x4, [x5, #16]
/home/ssysarch/Desktop/nick/jetpack_5/Jetson_Linux_R35.4.1_aarch64/Linux_for_Tegra/sources/tegra/optee-src/nv-optee/optee/optee_os/lib/libutils/isoc/bget.c:1030
    5454:	8b030034 	add	x20, x1, x3
/home/ssysarch/Desktop/nick/jetpack_5/Jetson_Linux_R35.4.1_aarch64/Linux_for_Tegra/sources/tegra/optee-src/nv-optee/optee/optee_os/lib/libutils/isoc/bget.c:1029
    5458:	f9000c85 	str	x5, [x4, #24]
/home/ssysarch/Desktop/nick/jetpack_5/Jetson_Linux_R35.4.1_aarch64/Linux_for_Tegra/sources/tegra/optee-src/nv-optee/optee/optee_os/lib/libutils/isoc/bget.c:1041
    545c:	91008042 	add	x2, x2, #0x20
/home/ssysarch/Desktop/nick/jetpack_5/Jetson_Linux_R35.4.1_aarch64/Linux_for_Tegra/sources/tegra/optee-src/nv-optee/optee/optee_os/lib/libutils/isoc/bget.c:1030
    5460:	f9000674 	str	x20, [x19, #8]
/home/ssysarch/Desktop/nick/jetpack_5/Jetson_Linux_R35.4.1_aarch64/Linux_for_Tegra/sources/tegra/optee-src/nv-optee/optee/optee_os/lib/libutils/isoc/bget.c:1039
    5464:	8b140274 	add	x20, x19, x20
/home/ssysarch/Desktop/nick/jetpack_5/Jetson_Linux_R35.4.1_aarch64/Linux_for_Tegra/sources/tegra/optee-src/nv-optee/optee/optee_os/lib/libutils/isoc/bget.c:1043
    5468:	34000066 	cbz	w6, 5474 <brel+0x25c>
memset_unchecked():
/home/ssysarch/Desktop/nick/jetpack_5/Jetson_Linux_R35.4.1_aarch64/Linux_for_Tegra/sources/tegra/optee-src/nv-optee/optee/optee_os/lib/libutils/isoc/bget_malloc.c:115
    546c:	52800aa1 	mov	w1, #0x55                  	// #85
    5470:	94000145 	bl	5984 <memset>
brel():
/home/ssysarch/Desktop/nick/jetpack_5/Jetson_Linux_R35.4.1_aarch64/Linux_for_Tegra/sources/tegra/optee-src/nv-optee/optee/optee_os/lib/libutils/isoc/bget.c:1046
    5474:	f9400680 	ldr	x0, [x20, #8]
    5478:	b7f80120 	tbnz	x0, #63, 549c <brel+0x284>
/home/ssysarch/Desktop/nick/jetpack_5/Jetson_Linux_R35.4.1_aarch64/Linux_for_Tegra/sources/tegra/optee-src/nv-optee/optee/optee_os/lib/libutils/isoc/bget.c:1046 (discriminator 1)
    547c:	d0000003 	adrp	x3, 7000 <trace_ext_prefix+0x509>
    5480:	912ebc63 	add	x3, x3, #0xbaf
    5484:	d0000001 	adrp	x1, 7000 <trace_ext_prefix+0x509>
    5488:	9123bc21 	add	x1, x1, #0x8ef
    548c:	d0000000 	adrp	x0, 7000 <trace_ext_prefix+0x509>
    5490:	912c9800 	add	x0, x0, #0xb26
    5494:	528082c2 	mov	w2, #0x416                 	// #1046
    5498:	17ffff70 	b	5258 <brel+0x40>
/home/ssysarch/Desktop/nick/jetpack_5/Jetson_Linux_R35.4.1_aarch64/Linux_for_Tegra/sources/tegra/optee-src/nv-optee/optee/optee_os/lib/libutils/isoc/bget.c:1051
    549c:	f9400660 	ldr	x0, [x19, #8]
    54a0:	f9000280 	str	x0, [x20]
/home/ssysarch/Desktop/nick/jetpack_5/Jetson_Linux_R35.4.1_aarch64/Linux_for_Tegra/sources/tegra/optee-src/nv-optee/optee/optee_os/lib/libutils/isoc/bget.c:1078
    54a4:	a94153f3 	ldp	x19, x20, [sp, #16]
    54a8:	a8c27bfd 	ldp	x29, x30, [sp], #32
    54ac:	d65f03c0 	ret

00000000000054b0 <bpool>:
bpool():
/home/ssysarch/Desktop/nick/jetpack_5/Jetson_Linux_R35.4.1_aarch64/Linux_for_Tegra/sources/tegra/optee-src/nv-optee/optee/optee_os/lib/libutils/isoc/bget.c:1104
    54b0:	a9bf7bfd 	stp	x29, x30, [sp, #-16]!
/home/ssysarch/Desktop/nick/jetpack_5/Jetson_Linux_R35.4.1_aarch64/Linux_for_Tegra/sources/tegra/optee-src/nv-optee/optee/optee_os/lib/libutils/isoc/bget.c:1109
    54b4:	927cec21 	and	x1, x1, #0xfffffffffffffff0
/home/ssysarch/Desktop/nick/jetpack_5/Jetson_Linux_R35.4.1_aarch64/Linux_for_Tegra/sources/tegra/optee-src/nv-optee/optee/optee_os/lib/libutils/isoc/bget.c:1128
    54b8:	f1004021 	subs	x1, x1, #0x10
/home/ssysarch/Desktop/nick/jetpack_5/Jetson_Linux_R35.4.1_aarch64/Linux_for_Tegra/sources/tegra/optee-src/nv-optee/optee/optee_os/lib/libutils/isoc/bget.c:1104
    54bc:	910003fd 	mov	x29, sp
/home/ssysarch/Desktop/nick/jetpack_5/Jetson_Linux_R35.4.1_aarch64/Linux_for_Tegra/sources/tegra/optee-src/nv-optee/optee/optee_os/lib/libutils/isoc/bget.c:1128
    54c0:	54000125 	b.pl	54e4 <bpool+0x34>  // b.nfrst
/home/ssysarch/Desktop/nick/jetpack_5/Jetson_Linux_R35.4.1_aarch64/Linux_for_Tegra/sources/tegra/optee-src/nv-optee/optee/optee_os/lib/libutils/isoc/bget.c:1128 (discriminator 1)
    54c4:	d0000003 	adrp	x3, 7000 <trace_ext_prefix+0x509>
    54c8:	912ed063 	add	x3, x3, #0xbb4
    54cc:	d0000001 	adrp	x1, 7000 <trace_ext_prefix+0x509>
    54d0:	9123bc21 	add	x1, x1, #0x8ef
    54d4:	d0000000 	adrp	x0, 7000 <trace_ext_prefix+0x509>
    54d8:	912cdc00 	add	x0, x0, #0xb37
    54dc:	52808d02 	mov	w2, #0x468                 	// #1128
/home/ssysarch/Desktop/nick/jetpack_5/Jetson_Linux_R35.4.1_aarch64/Linux_for_Tegra/sources/tegra/optee-src/nv-optee/optee/optee_os/lib/libutils/isoc/bget.c:1138 (discriminator 1)
    54e0:	97fffe60 	bl	4e60 <_assert_trap>
/home/ssysarch/Desktop/nick/jetpack_5/Jetson_Linux_R35.4.1_aarch64/Linux_for_Tegra/sources/tegra/optee-src/nv-optee/optee/optee_os/lib/libutils/isoc/bget.c:1138
    54e4:	f9400c44 	ldr	x4, [x2, #24]
    54e8:	f9400883 	ldr	x3, [x4, #16]
/home/ssysarch/Desktop/nick/jetpack_5/Jetson_Linux_R35.4.1_aarch64/Linux_for_Tegra/sources/tegra/optee-src/nv-optee/optee/optee_os/lib/libutils/isoc/bget.c:1134
    54ec:	f900001f 	str	xzr, [x0]
/home/ssysarch/Desktop/nick/jetpack_5/Jetson_Linux_R35.4.1_aarch64/Linux_for_Tegra/sources/tegra/optee-src/nv-optee/optee/optee_os/lib/libutils/isoc/bget.c:1138
    54f0:	eb02007f 	cmp	x3, x2
    54f4:	54000120 	b.eq	5518 <bpool+0x68>  // b.none
/home/ssysarch/Desktop/nick/jetpack_5/Jetson_Linux_R35.4.1_aarch64/Linux_for_Tegra/sources/tegra/optee-src/nv-optee/optee/optee_os/lib/libutils/isoc/bget.c:1138 (discriminator 1)
    54f8:	d0000003 	adrp	x3, 7000 <trace_ext_prefix+0x509>
    54fc:	912ed063 	add	x3, x3, #0xbb4
    5500:	d0000001 	adrp	x1, 7000 <trace_ext_prefix+0x509>
    5504:	9123bc21 	add	x1, x1, #0x8ef
    5508:	d0000000 	adrp	x0, 7000 <trace_ext_prefix+0x509>
    550c:	9125c400 	add	x0, x0, #0x971
    5510:	52808e42 	mov	w2, #0x472                 	// #1138
    5514:	17fffff3 	b	54e0 <bpool+0x30>
/home/ssysarch/Desktop/nick/jetpack_5/Jetson_Linux_R35.4.1_aarch64/Linux_for_Tegra/sources/tegra/optee-src/nv-optee/optee/optee_os/lib/libutils/isoc/bget.c:1139
    5518:	f9400862 	ldr	x2, [x3, #16]
    551c:	f9400c42 	ldr	x2, [x2, #24]
    5520:	eb02007f 	cmp	x3, x2
    5524:	54000120 	b.eq	5548 <bpool+0x98>  // b.none
    5528:	d0000003 	adrp	x3, 7000 <trace_ext_prefix+0x509>
    552c:	912ed063 	add	x3, x3, #0xbb4
    5530:	d0000001 	adrp	x1, 7000 <trace_ext_prefix+0x509>
    5534:	9123bc21 	add	x1, x1, #0x8ef
    5538:	d0000000 	adrp	x0, 7000 <trace_ext_prefix+0x509>
    553c:	9126b000 	add	x0, x0, #0x9ac
    5540:	52808e62 	mov	w2, #0x473                 	// #1139
    5544:	17ffffe7 	b	54e0 <bpool+0x30>
/home/ssysarch/Desktop/nick/jetpack_5/Jetson_Linux_R35.4.1_aarch64/Linux_for_Tegra/sources/tegra/optee-src/nv-optee/optee/optee_os/lib/libutils/isoc/bget.c:1141
    5548:	a9011003 	stp	x3, x4, [x0, #16]
/home/ssysarch/Desktop/nick/jetpack_5/Jetson_Linux_R35.4.1_aarch64/Linux_for_Tegra/sources/tegra/optee-src/nv-optee/optee/optee_os/lib/libutils/isoc/bget.c:1142
    554c:	f9000c60 	str	x0, [x3, #24]
/home/ssysarch/Desktop/nick/jetpack_5/Jetson_Linux_R35.4.1_aarch64/Linux_for_Tegra/sources/tegra/optee-src/nv-optee/optee/optee_os/lib/libutils/isoc/bget.c:1143
    5550:	f9400c02 	ldr	x2, [x0, #24]
    5554:	f9000840 	str	x0, [x2, #16]
/home/ssysarch/Desktop/nick/jetpack_5/Jetson_Linux_R35.4.1_aarch64/Linux_for_Tegra/sources/tegra/optee-src/nv-optee/optee/optee_os/lib/libutils/isoc/bget.c:1159
    5558:	8b010002 	add	x2, x0, x1
/home/ssysarch/Desktop/nick/jetpack_5/Jetson_Linux_R35.4.1_aarch64/Linux_for_Tegra/sources/tegra/optee-src/nv-optee/optee/optee_os/lib/libutils/isoc/bget.c:1154
    555c:	f9000401 	str	x1, [x0, #8]
/home/ssysarch/Desktop/nick/jetpack_5/Jetson_Linux_R35.4.1_aarch64/Linux_for_Tegra/sources/tegra/optee-src/nv-optee/optee/optee_os/lib/libutils/isoc/bget.c:1160
    5560:	f8216801 	str	x1, [x0, x1]
/home/ssysarch/Desktop/nick/jetpack_5/Jetson_Linux_R35.4.1_aarch64/Linux_for_Tegra/sources/tegra/optee-src/nv-optee/optee/optee_os/lib/libutils/isoc/bget.c:1163
    5564:	d2f00000 	mov	x0, #0x8000000000000000    	// #-9223372036854775808
    5568:	f9000440 	str	x0, [x2, #8]
/home/ssysarch/Desktop/nick/jetpack_5/Jetson_Linux_R35.4.1_aarch64/Linux_for_Tegra/sources/tegra/optee-src/nv-optee/optee/optee_os/lib/libutils/isoc/bget.c:1164
    556c:	a8c17bfd 	ldp	x29, x30, [sp], #16
    5570:	d65f03c0 	ret

0000000000005574 <raw_malloc>:
raw_malloc():
/home/ssysarch/Desktop/nick/jetpack_5/Jetson_Linux_R35.4.1_aarch64/Linux_for_Tegra/sources/tegra/optee-src/nv-optee/optee/optee_os/lib/libutils/isoc/bget_malloc.c:446
    5574:	a9be7bfd 	stp	x29, x30, [sp, #-32]!
    5578:	910003fd 	mov	x29, sp
    557c:	a90153f3 	stp	x19, x20, [sp, #16]
    5580:	aa0203f3 	mov	x19, x2
    5584:	aa0303f4 	mov	x20, x3
raw_memalign():
/home/ssysarch/Desktop/nick/jetpack_5/Jetson_Linux_R35.4.1_aarch64/Linux_for_Tegra/sources/tegra/optee-src/nv-optee/optee/optee_os/lib/libutils/isoc/bget_malloc.c:432
    5588:	ab010042 	adds	x2, x2, x1
    558c:	540001a4 	b.mi	55c0 <raw_malloc+0x4c>  // b.first
    5590:	eb01005f 	cmp	x2, x1
    5594:	54000163 	b.cc	55c0 <raw_malloc+0x4c>  // b.lo, b.ul, b.last
/home/ssysarch/Desktop/nick/jetpack_5/Jetson_Linux_R35.4.1_aarch64/Linux_for_Tegra/sources/tegra/optee-src/nv-optee/optee/optee_os/lib/libutils/isoc/bget_malloc.c:437
    5598:	f100005f 	cmp	x2, #0x0
/home/ssysarch/Desktop/nick/jetpack_5/Jetson_Linux_R35.4.1_aarch64/Linux_for_Tegra/sources/tegra/optee-src/nv-optee/optee/optee_os/lib/libutils/isoc/bget_malloc.c:439
    559c:	aa0003e1 	mov	x1, x0
    55a0:	9a9f1442 	csinc	x2, x2, xzr, ne  // ne = any
    55a4:	d2800200 	mov	x0, #0x10                  	// #16
    55a8:	97fffe4a 	bl	4ed0 <bget>
/home/ssysarch/Desktop/nick/jetpack_5/Jetson_Linux_R35.4.1_aarch64/Linux_for_Tegra/sources/tegra/optee-src/nv-optee/optee/optee_os/lib/libutils/isoc/bget_malloc.c:441
    55ac:	aa1403e2 	mov	x2, x20
    55b0:	aa1303e1 	mov	x1, x19
raw_malloc():
/home/ssysarch/Desktop/nick/jetpack_5/Jetson_Linux_R35.4.1_aarch64/Linux_for_Tegra/sources/tegra/optee-src/nv-optee/optee/optee_os/lib/libutils/isoc/bget_malloc.c:452
    55b4:	a94153f3 	ldp	x19, x20, [sp, #16]
    55b8:	a8c27bfd 	ldp	x29, x30, [sp], #32
raw_memalign():
/home/ssysarch/Desktop/nick/jetpack_5/Jetson_Linux_R35.4.1_aarch64/Linux_for_Tegra/sources/tegra/optee-src/nv-optee/optee/optee_os/lib/libutils/isoc/bget_malloc.c:441
    55bc:	17fffe2d 	b	4e70 <raw_malloc_return_hook.isra.0>
/home/ssysarch/Desktop/nick/jetpack_5/Jetson_Linux_R35.4.1_aarch64/Linux_for_Tegra/sources/tegra/optee-src/nv-optee/optee/optee_os/lib/libutils/isoc/bget_malloc.c:423
    55c0:	d2800000 	mov	x0, #0x0                   	// #0
    55c4:	17fffffa 	b	55ac <raw_malloc+0x38>

00000000000055c8 <raw_free>:
raw_free():
/home/ssysarch/Desktop/nick/jetpack_5/Jetson_Linux_R35.4.1_aarch64/Linux_for_Tegra/sources/tegra/optee-src/nv-optee/optee/optee_os/lib/libutils/isoc/bget_malloc.c:455
    55c8:	12001c42 	and	w2, w2, #0xff
/home/ssysarch/Desktop/nick/jetpack_5/Jetson_Linux_R35.4.1_aarch64/Linux_for_Tegra/sources/tegra/optee-src/nv-optee/optee/optee_os/lib/libutils/isoc/bget_malloc.c:458
    55cc:	b4000040 	cbz	x0, 55d4 <raw_free+0xc>
/home/ssysarch/Desktop/nick/jetpack_5/Jetson_Linux_R35.4.1_aarch64/Linux_for_Tegra/sources/tegra/optee-src/nv-optee/optee/optee_os/lib/libutils/isoc/bget_malloc.c:459
    55d0:	17ffff12 	b	5218 <brel>
/home/ssysarch/Desktop/nick/jetpack_5/Jetson_Linux_R35.4.1_aarch64/Linux_for_Tegra/sources/tegra/optee-src/nv-optee/optee/optee_os/lib/libutils/isoc/bget_malloc.c:460
    55d4:	d65f03c0 	ret

00000000000055d8 <raw_calloc>:
raw_calloc():
/home/ssysarch/Desktop/nick/jetpack_5/Jetson_Linux_R35.4.1_aarch64/Linux_for_Tegra/sources/tegra/optee-src/nv-optee/optee/optee_os/lib/libutils/isoc/bget_malloc.c:464
    55d8:	a9be7bfd 	stp	x29, x30, [sp, #-32]!
    55dc:	910003fd 	mov	x29, sp
    55e0:	a90153f3 	stp	x19, x20, [sp, #16]
/home/ssysarch/Desktop/nick/jetpack_5/Jetson_Linux_R35.4.1_aarch64/Linux_for_Tegra/sources/tegra/optee-src/nv-optee/optee/optee_os/lib/libutils/isoc/bget_malloc.c:471
    55e4:	9b037c54 	mul	x20, x2, x3
    55e8:	9bc37c42 	umulh	x2, x2, x3
/home/ssysarch/Desktop/nick/jetpack_5/Jetson_Linux_R35.4.1_aarch64/Linux_for_Tegra/sources/tegra/optee-src/nv-optee/optee/optee_os/lib/libutils/isoc/bget_malloc.c:464
    55ec:	aa0403f3 	mov	x19, x4
/home/ssysarch/Desktop/nick/jetpack_5/Jetson_Linux_R35.4.1_aarch64/Linux_for_Tegra/sources/tegra/optee-src/nv-optee/optee/optee_os/lib/libutils/isoc/bget_malloc.c:471
    55f0:	f100005f 	cmp	x2, #0x0
    55f4:	9a9f07e2 	cset	x2, ne  // ne = any
    55f8:	b7f80254 	tbnz	x20, #63, 5640 <raw_calloc+0x68>
    55fc:	b5000222 	cbnz	x2, 5640 <raw_calloc+0x68>
/home/ssysarch/Desktop/nick/jetpack_5/Jetson_Linux_R35.4.1_aarch64/Linux_for_Tegra/sources/tegra/optee-src/nv-optee/optee/optee_os/lib/libutils/isoc/bget_malloc.c:473
    5600:	8b010282 	add	x2, x20, x1
    5604:	d2f00003 	mov	x3, #0x8000000000000000    	// #-9223372036854775808
    5608:	8b030043 	add	x3, x2, x3
    560c:	eb01007f 	cmp	x3, x1
    5610:	54000183 	b.cc	5640 <raw_calloc+0x68>  // b.lo, b.ul, b.last
/home/ssysarch/Desktop/nick/jetpack_5/Jetson_Linux_R35.4.1_aarch64/Linux_for_Tegra/sources/tegra/optee-src/nv-optee/optee/optee_os/lib/libutils/isoc/bget_malloc.c:478
    5614:	f100005f 	cmp	x2, #0x0
/home/ssysarch/Desktop/nick/jetpack_5/Jetson_Linux_R35.4.1_aarch64/Linux_for_Tegra/sources/tegra/optee-src/nv-optee/optee/optee_os/lib/libutils/isoc/bget_malloc.c:480
    5618:	aa0003e1 	mov	x1, x0
    561c:	aa0403e3 	mov	x3, x4
    5620:	9a9f1442 	csinc	x2, x2, xzr, ne  // ne = any
    5624:	d2800000 	mov	x0, #0x0                   	// #0
    5628:	97fffedb 	bl	5194 <bgetz>
/home/ssysarch/Desktop/nick/jetpack_5/Jetson_Linux_R35.4.1_aarch64/Linux_for_Tegra/sources/tegra/optee-src/nv-optee/optee/optee_os/lib/libutils/isoc/bget_malloc.c:482
    562c:	aa1303e2 	mov	x2, x19
    5630:	aa1403e1 	mov	x1, x20
/home/ssysarch/Desktop/nick/jetpack_5/Jetson_Linux_R35.4.1_aarch64/Linux_for_Tegra/sources/tegra/optee-src/nv-optee/optee/optee_os/lib/libutils/isoc/bget_malloc.c:483
    5634:	a94153f3 	ldp	x19, x20, [sp, #16]
    5638:	a8c27bfd 	ldp	x29, x30, [sp], #32
/home/ssysarch/Desktop/nick/jetpack_5/Jetson_Linux_R35.4.1_aarch64/Linux_for_Tegra/sources/tegra/optee-src/nv-optee/optee/optee_os/lib/libutils/isoc/bget_malloc.c:482
    563c:	17fffe0d 	b	4e70 <raw_malloc_return_hook.isra.0>
/home/ssysarch/Desktop/nick/jetpack_5/Jetson_Linux_R35.4.1_aarch64/Linux_for_Tegra/sources/tegra/optee-src/nv-optee/optee/optee_os/lib/libutils/isoc/bget_malloc.c:465
    5640:	d2800000 	mov	x0, #0x0                   	// #0
    5644:	17fffffa 	b	562c <raw_calloc+0x54>

0000000000005648 <raw_realloc>:
raw_realloc():
/home/ssysarch/Desktop/nick/jetpack_5/Jetson_Linux_R35.4.1_aarch64/Linux_for_Tegra/sources/tegra/optee-src/nv-optee/optee/optee_os/lib/libutils/isoc/bget_malloc.c:487
    5648:	a9bc7bfd 	stp	x29, x30, [sp, #-64]!
    564c:	910003fd 	mov	x29, sp
    5650:	a90153f3 	stp	x19, x20, [sp, #16]
/home/ssysarch/Desktop/nick/jetpack_5/Jetson_Linux_R35.4.1_aarch64/Linux_for_Tegra/sources/tegra/optee-src/nv-optee/optee/optee_os/lib/libutils/isoc/bget_malloc.c:492
    5654:	ab010073 	adds	x19, x3, x1
/home/ssysarch/Desktop/nick/jetpack_5/Jetson_Linux_R35.4.1_aarch64/Linux_for_Tegra/sources/tegra/optee-src/nv-optee/optee/optee_os/lib/libutils/isoc/bget_malloc.c:487
    5658:	a9025bf5 	stp	x21, x22, [sp, #32]
    565c:	a90363f7 	stp	x23, x24, [sp, #48]
    5660:	aa0303f7 	mov	x23, x3
    5664:	aa0403f8 	mov	x24, x4
/home/ssysarch/Desktop/nick/jetpack_5/Jetson_Linux_R35.4.1_aarch64/Linux_for_Tegra/sources/tegra/optee-src/nv-optee/optee/optee_os/lib/libutils/isoc/bget_malloc.c:492
    5668:	54000124 	b.mi	568c <raw_realloc+0x44>  // b.first
    566c:	eb01027f 	cmp	x19, x1
    5670:	540000e3 	b.cc	568c <raw_realloc+0x44>  // b.lo, b.ul, b.last
/home/ssysarch/Desktop/nick/jetpack_5/Jetson_Linux_R35.4.1_aarch64/Linux_for_Tegra/sources/tegra/optee-src/nv-optee/optee/optee_os/lib/libutils/isoc/bget_malloc.c:494
    5674:	8b020273 	add	x19, x19, x2
    5678:	aa0003f5 	mov	x21, x0
    567c:	d2f00000 	mov	x0, #0x8000000000000000    	// #-9223372036854775808
    5680:	8b000260 	add	x0, x19, x0
    5684:	eb02001f 	cmp	x0, x2
    5688:	54000142 	b.cs	56b0 <raw_realloc+0x68>  // b.hs, b.nlast
/home/ssysarch/Desktop/nick/jetpack_5/Jetson_Linux_R35.4.1_aarch64/Linux_for_Tegra/sources/tegra/optee-src/nv-optee/optee/optee_os/lib/libutils/isoc/bget_malloc.c:488
    568c:	d2800014 	mov	x20, #0x0                   	// #0
/home/ssysarch/Desktop/nick/jetpack_5/Jetson_Linux_R35.4.1_aarch64/Linux_for_Tegra/sources/tegra/optee-src/nv-optee/optee/optee_os/lib/libutils/isoc/bget_malloc.c:522
    5690:	aa1803e2 	mov	x2, x24
    5694:	aa1703e1 	mov	x1, x23
    5698:	aa1403e0 	mov	x0, x20
/home/ssysarch/Desktop/nick/jetpack_5/Jetson_Linux_R35.4.1_aarch64/Linux_for_Tegra/sources/tegra/optee-src/nv-optee/optee/optee_os/lib/libutils/isoc/bget_malloc.c:523
    569c:	a94153f3 	ldp	x19, x20, [sp, #16]
    56a0:	a9425bf5 	ldp	x21, x22, [sp, #32]
    56a4:	a94363f7 	ldp	x23, x24, [sp, #48]
    56a8:	a8c47bfd 	ldp	x29, x30, [sp], #64
/home/ssysarch/Desktop/nick/jetpack_5/Jetson_Linux_R35.4.1_aarch64/Linux_for_Tegra/sources/tegra/optee-src/nv-optee/optee/optee_os/lib/libutils/isoc/bget_malloc.c:522
    56ac:	17fffdf1 	b	4e70 <raw_malloc_return_hook.isra.0>
/home/ssysarch/Desktop/nick/jetpack_5/Jetson_Linux_R35.4.1_aarch64/Linux_for_Tegra/sources/tegra/optee-src/nv-optee/optee/optee_os/lib/libutils/isoc/bget_malloc.c:501
    56b0:	f100027f 	cmp	x19, #0x0
/home/ssysarch/Desktop/nick/jetpack_5/Jetson_Linux_R35.4.1_aarch64/Linux_for_Tegra/sources/tegra/optee-src/nv-optee/optee/optee_os/lib/libutils/isoc/bget_malloc.c:503
    56b4:	aa0403e3 	mov	x3, x4
/home/ssysarch/Desktop/nick/jetpack_5/Jetson_Linux_R35.4.1_aarch64/Linux_for_Tegra/sources/tegra/optee-src/nv-optee/optee/optee_os/lib/libutils/isoc/bget_malloc.c:501
    56b8:	9a9f1673 	csinc	x19, x19, xzr, ne  // ne = any
/home/ssysarch/Desktop/nick/jetpack_5/Jetson_Linux_R35.4.1_aarch64/Linux_for_Tegra/sources/tegra/optee-src/nv-optee/optee/optee_os/lib/libutils/isoc/bget_malloc.c:503
    56bc:	d2800001 	mov	x1, #0x0                   	// #0
    56c0:	aa1303e2 	mov	x2, x19
    56c4:	d2800000 	mov	x0, #0x0                   	// #0
    56c8:	97fffe02 	bl	4ed0 <bget>
/home/ssysarch/Desktop/nick/jetpack_5/Jetson_Linux_R35.4.1_aarch64/Linux_for_Tegra/sources/tegra/optee-src/nv-optee/optee/optee_os/lib/libutils/isoc/bget_malloc.c:505
    56cc:	f100001f 	cmp	x0, #0x0
/home/ssysarch/Desktop/nick/jetpack_5/Jetson_Linux_R35.4.1_aarch64/Linux_for_Tegra/sources/tegra/optee-src/nv-optee/optee/optee_os/lib/libutils/isoc/bget_malloc.c:503
    56d0:	aa0003f4 	mov	x20, x0
/home/ssysarch/Desktop/nick/jetpack_5/Jetson_Linux_R35.4.1_aarch64/Linux_for_Tegra/sources/tegra/optee-src/nv-optee/optee/optee_os/lib/libutils/isoc/bget_malloc.c:505
    56d4:	fa401aa4 	ccmp	x21, #0x0, #0x4, ne  // ne = any
    56d8:	54fffdc0 	b.eq	5690 <raw_realloc+0x48>  // b.none
bget_buf_size():
/home/ssysarch/Desktop/nick/jetpack_5/Jetson_Linux_R35.4.1_aarch64/Linux_for_Tegra/sources/tegra/optee-src/nv-optee/optee/optee_os/lib/libutils/isoc/bget_malloc.c:207
    56dc:	f85f82a1 	ldur	x1, [x21, #-8]
    56e0:	928001f6 	mov	x22, #0xfffffffffffffff0    	// #-16
    56e4:	cb0102d6 	sub	x22, x22, x1
/home/ssysarch/Desktop/nick/jetpack_5/Jetson_Linux_R35.4.1_aarch64/Linux_for_Tegra/sources/tegra/optee-src/nv-optee/optee/optee_os/lib/libutils/isoc/bget_malloc.c:208
    56e8:	f10002df 	cmp	x22, #0x0
    56ec:	5400004c 	b.gt	56f4 <raw_realloc+0xac>
    56f0:	97fffdee 	bl	4ea8 <bget_buf_size.part.0>
raw_realloc():
/home/ssysarch/Desktop/nick/jetpack_5/Jetson_Linux_R35.4.1_aarch64/Linux_for_Tegra/sources/tegra/optee-src/nv-optee/optee/optee_os/lib/libutils/isoc/bget_malloc.c:509
    56f4:	eb16027f 	cmp	x19, x22
    56f8:	540001ad 	b.le	572c <raw_realloc+0xe4>
/home/ssysarch/Desktop/nick/jetpack_5/Jetson_Linux_R35.4.1_aarch64/Linux_for_Tegra/sources/tegra/optee-src/nv-optee/optee/optee_os/lib/libutils/isoc/bget_malloc.c:510
    56fc:	aa1603e2 	mov	x2, x22
    5700:	aa1503e1 	mov	x1, x21
    5704:	97ffea5b 	bl	70 <memcpy>
/home/ssysarch/Desktop/nick/jetpack_5/Jetson_Linux_R35.4.1_aarch64/Linux_for_Tegra/sources/tegra/optee-src/nv-optee/optee/optee_os/lib/libutils/isoc/bget_malloc.c:513
    5708:	cb160262 	sub	x2, x19, x22
    570c:	8b160280 	add	x0, x20, x22
    5710:	52800001 	mov	w1, #0x0                   	// #0
    5714:	9400009c 	bl	5984 <memset>
/home/ssysarch/Desktop/nick/jetpack_5/Jetson_Linux_R35.4.1_aarch64/Linux_for_Tegra/sources/tegra/optee-src/nv-optee/optee/optee_os/lib/libutils/isoc/bget_malloc.c:519
    5718:	aa1803e1 	mov	x1, x24
    571c:	aa1503e0 	mov	x0, x21
    5720:	52800002 	mov	w2, #0x0                   	// #0
    5724:	97fffebd 	bl	5218 <brel>
    5728:	17ffffda 	b	5690 <raw_realloc+0x48>
/home/ssysarch/Desktop/nick/jetpack_5/Jetson_Linux_R35.4.1_aarch64/Linux_for_Tegra/sources/tegra/optee-src/nv-optee/optee/optee_os/lib/libutils/isoc/bget_malloc.c:516
    572c:	aa1303e2 	mov	x2, x19
    5730:	aa1503e1 	mov	x1, x21
    5734:	97ffea4f 	bl	70 <memcpy>
    5738:	17fffff8 	b	5718 <raw_realloc+0xd0>

000000000000573c <malloc>:
malloc():
/home/ssysarch/Desktop/nick/jetpack_5/Jetson_Linux_R35.4.1_aarch64/Linux_for_Tegra/sources/tegra/optee-src/nv-optee/optee/optee_os/lib/libutils/isoc/bget_malloc.c:790
    573c:	aa0003e2 	mov	x2, x0
    5740:	f0000003 	adrp	x3, 8000 <_DYNAMIC>
    5744:	9105c063 	add	x3, x3, #0x170
    5748:	d2800001 	mov	x1, #0x0                   	// #0
    574c:	d2800000 	mov	x0, #0x0                   	// #0
    5750:	17ffff89 	b	5574 <raw_malloc>

0000000000005754 <calloc>:
calloc():
/home/ssysarch/Desktop/nick/jetpack_5/Jetson_Linux_R35.4.1_aarch64/Linux_for_Tegra/sources/tegra/optee-src/nv-optee/optee/optee_os/lib/libutils/isoc/bget_malloc.c:808
    5754:	aa0103e3 	mov	x3, x1
    5758:	aa0003e2 	mov	x2, x0
    575c:	f0000004 	adrp	x4, 8000 <_DYNAMIC>
    5760:	9105c084 	add	x4, x4, #0x170
    5764:	d2800001 	mov	x1, #0x0                   	// #0
    5768:	d2800000 	mov	x0, #0x0                   	// #0
    576c:	17ffff9b 	b	55d8 <raw_calloc>

0000000000005770 <realloc>:
realloc_unlocked():
/home/ssysarch/Desktop/nick/jetpack_5/Jetson_Linux_R35.4.1_aarch64/Linux_for_Tegra/sources/tegra/optee-src/nv-optee/optee/optee_os/lib/libutils/isoc/bget_malloc.c:816
    5770:	aa0103e3 	mov	x3, x1
    5774:	f0000004 	adrp	x4, 8000 <_DYNAMIC>
    5778:	9105c084 	add	x4, x4, #0x170
    577c:	d2800002 	mov	x2, #0x0                   	// #0
    5780:	d2800001 	mov	x1, #0x0                   	// #0
    5784:	17ffffb1 	b	5648 <raw_realloc>

0000000000005788 <free>:
free_helper():
/home/ssysarch/Desktop/nick/jetpack_5/Jetson_Linux_R35.4.1_aarch64/Linux_for_Tegra/sources/tegra/optee-src/nv-optee/optee/optee_os/lib/libutils/isoc/bget_malloc.c:799
    5788:	52800002 	mov	w2, #0x0                   	// #0
    578c:	f0000001 	adrp	x1, 8000 <_DYNAMIC>
    5790:	9105c021 	add	x1, x1, #0x170
    5794:	17ffff8d 	b	55c8 <raw_free>

0000000000005798 <raw_malloc_add_pool>:
raw_malloc_add_pool():
/home/ssysarch/Desktop/nick/jetpack_5/Jetson_Linux_R35.4.1_aarch64/Linux_for_Tegra/sources/tegra/optee-src/nv-optee/optee/optee_os/lib/libutils/isoc/bget_malloc.c:911
    5798:	a9bd7bfd 	stp	x29, x30, [sp, #-48]!
    579c:	910003fd 	mov	x29, sp
    57a0:	a90153f3 	stp	x19, x20, [sp, #16]
/home/ssysarch/Desktop/nick/jetpack_5/Jetson_Linux_R35.4.1_aarch64/Linux_for_Tegra/sources/tegra/optee-src/nv-optee/optee/optee_os/lib/libutils/isoc/bget_malloc.c:914
    57a4:	8b020034 	add	x20, x1, x2
/home/ssysarch/Desktop/nick/jetpack_5/Jetson_Linux_R35.4.1_aarch64/Linux_for_Tegra/sources/tegra/optee-src/nv-optee/optee/optee_os/lib/libutils/isoc/bget_malloc.c:918
    57a8:	91003c21 	add	x1, x1, #0xf
/home/ssysarch/Desktop/nick/jetpack_5/Jetson_Linux_R35.4.1_aarch64/Linux_for_Tegra/sources/tegra/optee-src/nv-optee/optee/optee_os/lib/libutils/isoc/bget_malloc.c:911
    57ac:	a9025bf5 	stp	x21, x22, [sp, #32]
/home/ssysarch/Desktop/nick/jetpack_5/Jetson_Linux_R35.4.1_aarch64/Linux_for_Tegra/sources/tegra/optee-src/nv-optee/optee/optee_os/lib/libutils/isoc/bget_malloc.c:919
    57b0:	927cee94 	and	x20, x20, #0xfffffffffffffff0
/home/ssysarch/Desktop/nick/jetpack_5/Jetson_Linux_R35.4.1_aarch64/Linux_for_Tegra/sources/tegra/optee-src/nv-optee/optee/optee_os/lib/libutils/isoc/bget_malloc.c:918
    57b4:	927cec35 	and	x21, x1, #0xfffffffffffffff0
/home/ssysarch/Desktop/nick/jetpack_5/Jetson_Linux_R35.4.1_aarch64/Linux_for_Tegra/sources/tegra/optee-src/nv-optee/optee/optee_os/lib/libutils/isoc/bget_malloc.c:921
    57b8:	eb1402bf 	cmp	x21, x20
    57bc:	54000088 	b.hi	57cc <raw_malloc_add_pool+0x34>  // b.pmore
/home/ssysarch/Desktop/nick/jetpack_5/Jetson_Linux_R35.4.1_aarch64/Linux_for_Tegra/sources/tegra/optee-src/nv-optee/optee/optee_os/lib/libutils/isoc/bget_malloc.c:921 (discriminator 1)
    57c0:	cb150294 	sub	x20, x20, x21
    57c4:	f100be9f 	cmp	x20, #0x2f
    57c8:	54000188 	b.hi	57f8 <raw_malloc_add_pool+0x60>  // b.pmore
/home/ssysarch/Desktop/nick/jetpack_5/Jetson_Linux_R35.4.1_aarch64/Linux_for_Tegra/sources/tegra/optee-src/nv-optee/optee/optee_os/lib/libutils/isoc/bget_malloc.c:922
    57cc:	d0000004 	adrp	x4, 7000 <trace_ext_prefix+0x509>
    57d0:	912db084 	add	x4, x4, #0xb6c
    57d4:	52800023 	mov	w3, #0x1                   	// #1
    57d8:	52800062 	mov	w2, #0x3                   	// #3
    57dc:	52807341 	mov	w1, #0x39a                 	// #922
/home/ssysarch/Desktop/nick/jetpack_5/Jetson_Linux_R35.4.1_aarch64/Linux_for_Tegra/sources/tegra/optee-src/nv-optee/optee/optee_os/lib/libutils/isoc/bget_malloc.c:944
    57e0:	a94153f3 	ldp	x19, x20, [sp, #16]
/home/ssysarch/Desktop/nick/jetpack_5/Jetson_Linux_R35.4.1_aarch64/Linux_for_Tegra/sources/tegra/optee-src/nv-optee/optee/optee_os/lib/libutils/isoc/bget_malloc.c:928
    57e4:	d0000000 	adrp	x0, 7000 <trace_ext_prefix+0x509>
    57e8:	912f2000 	add	x0, x0, #0xbc8
/home/ssysarch/Desktop/nick/jetpack_5/Jetson_Linux_R35.4.1_aarch64/Linux_for_Tegra/sources/tegra/optee-src/nv-optee/optee/optee_os/lib/libutils/isoc/bget_malloc.c:944
    57ec:	a9425bf5 	ldp	x21, x22, [sp, #32]
    57f0:	a8c37bfd 	ldp	x29, x30, [sp], #48
/home/ssysarch/Desktop/nick/jetpack_5/Jetson_Linux_R35.4.1_aarch64/Linux_for_Tegra/sources/tegra/optee-src/nv-optee/optee/optee_os/lib/libutils/isoc/bget_malloc.c:928
    57f4:	14000436 	b	68cc <trace_printf>
    57f8:	aa0003f3 	mov	x19, x0
/home/ssysarch/Desktop/nick/jetpack_5/Jetson_Linux_R35.4.1_aarch64/Linux_for_Tegra/sources/tegra/optee-src/nv-optee/optee/optee_os/lib/libutils/isoc/bget_malloc.c:927
    57fc:	f9402000 	ldr	x0, [x0, #64]
    5800:	b5000120 	cbnz	x0, 5824 <raw_malloc_add_pool+0x8c>
/home/ssysarch/Desktop/nick/jetpack_5/Jetson_Linux_R35.4.1_aarch64/Linux_for_Tegra/sources/tegra/optee-src/nv-optee/optee/optee_os/lib/libutils/isoc/bget_malloc.c:927 (discriminator 1)
    5804:	f10ffe9f 	cmp	x20, #0x3ff
    5808:	540000e8 	b.hi	5824 <raw_malloc_add_pool+0x8c>  // b.pmore
/home/ssysarch/Desktop/nick/jetpack_5/Jetson_Linux_R35.4.1_aarch64/Linux_for_Tegra/sources/tegra/optee-src/nv-optee/optee/optee_os/lib/libutils/isoc/bget_malloc.c:928
    580c:	d0000004 	adrp	x4, 7000 <trace_ext_prefix+0x509>
    5810:	912e1084 	add	x4, x4, #0xb84
    5814:	52800023 	mov	w3, #0x1                   	// #1
    5818:	52800062 	mov	w2, #0x3                   	// #3
    581c:	52807401 	mov	w1, #0x3a0                 	// #928
    5820:	17fffff0 	b	57e0 <raw_malloc_add_pool+0x48>
/home/ssysarch/Desktop/nick/jetpack_5/Jetson_Linux_R35.4.1_aarch64/Linux_for_Tegra/sources/tegra/optee-src/nv-optee/optee/optee_os/lib/libutils/isoc/bget_malloc.c:933
    5824:	aa1303e2 	mov	x2, x19
    5828:	aa1403e1 	mov	x1, x20
    582c:	aa1503e0 	mov	x0, x21
    5830:	97ffff20 	bl	54b0 <bpool>
/home/ssysarch/Desktop/nick/jetpack_5/Jetson_Linux_R35.4.1_aarch64/Linux_for_Tegra/sources/tegra/optee-src/nv-optee/optee/optee_os/lib/libutils/isoc/bget_malloc.c:934
    5834:	a943da60 	ldp	x0, x22, [x19, #56]
realloc_unlocked():
/home/ssysarch/Desktop/nick/jetpack_5/Jetson_Linux_R35.4.1_aarch64/Linux_for_Tegra/sources/tegra/optee-src/nv-optee/optee/optee_os/lib/libutils/isoc/bget_malloc.c:816
    5838:	aa1303e4 	mov	x4, x19
    583c:	d2800002 	mov	x2, #0x0                   	// #0
    5840:	d2800001 	mov	x1, #0x0                   	// #0
raw_malloc_add_pool():
/home/ssysarch/Desktop/nick/jetpack_5/Jetson_Linux_R35.4.1_aarch64/Linux_for_Tegra/sources/tegra/optee-src/nv-optee/optee/optee_os/lib/libutils/isoc/bget_malloc.c:934
    5844:	910006d6 	add	x22, x22, #0x1
realloc_unlocked():
/home/ssysarch/Desktop/nick/jetpack_5/Jetson_Linux_R35.4.1_aarch64/Linux_for_Tegra/sources/tegra/optee-src/nv-optee/optee/optee_os/lib/libutils/isoc/bget_malloc.c:816
    5848:	d37ceec3 	lsl	x3, x22, #4
    584c:	97ffff7f 	bl	5648 <raw_realloc>
raw_malloc_add_pool():
/home/ssysarch/Desktop/nick/jetpack_5/Jetson_Linux_R35.4.1_aarch64/Linux_for_Tegra/sources/tegra/optee-src/nv-optee/optee/optee_os/lib/libutils/isoc/bget_malloc.c:936
    5850:	b5000120 	cbnz	x0, 5874 <raw_malloc_add_pool+0xdc>
/home/ssysarch/Desktop/nick/jetpack_5/Jetson_Linux_R35.4.1_aarch64/Linux_for_Tegra/sources/tegra/optee-src/nv-optee/optee/optee_os/lib/libutils/isoc/bget_malloc.c:936 (discriminator 1)
    5854:	d0000003 	adrp	x3, 7000 <trace_ext_prefix+0x509>
    5858:	912f2063 	add	x3, x3, #0xbc8
    585c:	d0000001 	adrp	x1, 7000 <trace_ext_prefix+0x509>
    5860:	91231421 	add	x1, x1, #0x8c5
    5864:	b0000000 	adrp	x0, 6000 <kprintf.constprop.0+0x4c8>
    5868:	912fe000 	add	x0, x0, #0xbf8
    586c:	52807502 	mov	w2, #0x3a8                 	// #936
    5870:	97fffd7c 	bl	4e60 <_assert_trap>
/home/ssysarch/Desktop/nick/jetpack_5/Jetson_Linux_R35.4.1_aarch64/Linux_for_Tegra/sources/tegra/optee-src/nv-optee/optee/optee_os/lib/libutils/isoc/bget_malloc.c:938
    5874:	f9402261 	ldr	x1, [x19, #64]
/home/ssysarch/Desktop/nick/jetpack_5/Jetson_Linux_R35.4.1_aarch64/Linux_for_Tegra/sources/tegra/optee-src/nv-optee/optee/optee_os/lib/libutils/isoc/bget_malloc.c:937
    5878:	f9001e60 	str	x0, [x19, #56]
/home/ssysarch/Desktop/nick/jetpack_5/Jetson_Linux_R35.4.1_aarch64/Linux_for_Tegra/sources/tegra/optee-src/nv-optee/optee/optee_os/lib/libutils/isoc/bget_malloc.c:938
    587c:	d37cec22 	lsl	x2, x1, #4
    5880:	8b011001 	add	x1, x0, x1, lsl #4
    5884:	f8226815 	str	x21, [x0, x2]
/home/ssysarch/Desktop/nick/jetpack_5/Jetson_Linux_R35.4.1_aarch64/Linux_for_Tegra/sources/tegra/optee-src/nv-optee/optee/optee_os/lib/libutils/isoc/bget_malloc.c:941
    5888:	b9407260 	ldr	w0, [x19, #112]
/home/ssysarch/Desktop/nick/jetpack_5/Jetson_Linux_R35.4.1_aarch64/Linux_for_Tegra/sources/tegra/optee-src/nv-optee/optee/optee_os/lib/libutils/isoc/bget_malloc.c:939
    588c:	f9000434 	str	x20, [x1, #8]
/home/ssysarch/Desktop/nick/jetpack_5/Jetson_Linux_R35.4.1_aarch64/Linux_for_Tegra/sources/tegra/optee-src/nv-optee/optee/optee_os/lib/libutils/isoc/bget_malloc.c:941
    5890:	0b140014 	add	w20, w0, w20
/home/ssysarch/Desktop/nick/jetpack_5/Jetson_Linux_R35.4.1_aarch64/Linux_for_Tegra/sources/tegra/optee-src/nv-optee/optee/optee_os/lib/libutils/isoc/bget_malloc.c:943
    5894:	f9002276 	str	x22, [x19, #64]
/home/ssysarch/Desktop/nick/jetpack_5/Jetson_Linux_R35.4.1_aarch64/Linux_for_Tegra/sources/tegra/optee-src/nv-optee/optee/optee_os/lib/libutils/isoc/bget_malloc.c:941
    5898:	b9007274 	str	w20, [x19, #112]
/home/ssysarch/Desktop/nick/jetpack_5/Jetson_Linux_R35.4.1_aarch64/Linux_for_Tegra/sources/tegra/optee-src/nv-optee/optee/optee_os/lib/libutils/isoc/bget_malloc.c:944
    589c:	a94153f3 	ldp	x19, x20, [sp, #16]
    58a0:	a9425bf5 	ldp	x21, x22, [sp, #32]
    58a4:	a8c37bfd 	ldp	x29, x30, [sp], #48
    58a8:	d65f03c0 	ret

00000000000058ac <malloc_add_pool>:
gen_malloc_add_pool():
/home/ssysarch/Desktop/nick/jetpack_5/Jetson_Linux_R35.4.1_aarch64/Linux_for_Tegra/sources/tegra/optee-src/nv-optee/optee/optee_os/lib/libutils/isoc/bget_malloc.c:871
    58ac:	aa0103e2 	mov	x2, x1
    58b0:	aa0003e1 	mov	x1, x0
    58b4:	f0000000 	adrp	x0, 8000 <_DYNAMIC>
    58b8:	9105c000 	add	x0, x0, #0x170
    58bc:	17ffffb7 	b	5798 <raw_malloc_add_pool>

00000000000058c0 <isxdigit>:
isxdigit():
/home/ssysarch/Desktop/nick/jetpack_5/Jetson_Linux_R35.4.1_aarch64/Linux_for_Tegra/sources/tegra/optee-src/nv-optee/optee/optee_os/lib/libutils/isoc/isxdigit.c:9
    58c0:	5100c001 	sub	w1, w0, #0x30
    58c4:	7100243f 	cmp	w1, #0x9
    58c8:	540000c9 	b.ls	58e0 <isxdigit+0x20>  // b.plast
/home/ssysarch/Desktop/nick/jetpack_5/Jetson_Linux_R35.4.1_aarch64/Linux_for_Tegra/sources/tegra/optee-src/nv-optee/optee/optee_os/lib/libutils/isoc/isxdigit.c:11
    58cc:	121a7800 	and	w0, w0, #0xffffffdf
    58d0:	51010400 	sub	w0, w0, #0x41
    58d4:	7100141f 	cmp	w0, #0x5
    58d8:	1a9f87e0 	cset	w0, ls  // ls = plast
/home/ssysarch/Desktop/nick/jetpack_5/Jetson_Linux_R35.4.1_aarch64/Linux_for_Tegra/sources/tegra/optee-src/nv-optee/optee/optee_os/lib/libutils/isoc/isxdigit.c:16
    58dc:	d65f03c0 	ret
/home/ssysarch/Desktop/nick/jetpack_5/Jetson_Linux_R35.4.1_aarch64/Linux_for_Tegra/sources/tegra/optee-src/nv-optee/optee/optee_os/lib/libutils/isoc/isxdigit.c:12
    58e0:	52800020 	mov	w0, #0x1                   	// #1
    58e4:	17fffffe 	b	58dc <isxdigit+0x1c>

00000000000058e8 <snprintf>:
snprintf():
/home/ssysarch/Desktop/nick/jetpack_5/Jetson_Linux_R35.4.1_aarch64/Linux_for_Tegra/sources/tegra/optee-src/nv-optee/optee/optee_os/lib/libutils/isoc/snprintf.c:10
    58e8:	a9b87bfd 	stp	x29, x30, [sp, #-128]!
    58ec:	910003fd 	mov	x29, sp
    58f0:	a90593e3 	stp	x3, x4, [sp, #88]
/home/ssysarch/Desktop/nick/jetpack_5/Jetson_Linux_R35.4.1_aarch64/Linux_for_Tegra/sources/tegra/optee-src/nv-optee/optee/optee_os/lib/libutils/isoc/snprintf.c:14
    58f4:	910203e3 	add	x3, sp, #0x80
    58f8:	a9030fe3 	stp	x3, x3, [sp, #48]
    58fc:	910143e3 	add	x3, sp, #0x50
    5900:	f90023e3 	str	x3, [sp, #64]
    5904:	128004e3 	mov	w3, #0xffffffd8            	// #-40
    5908:	b9004be3 	str	w3, [sp, #72]
/home/ssysarch/Desktop/nick/jetpack_5/Jetson_Linux_R35.4.1_aarch64/Linux_for_Tegra/sources/tegra/optee-src/nv-optee/optee/optee_os/lib/libutils/isoc/snprintf.c:15
    590c:	910043e3 	add	x3, sp, #0x10
/home/ssysarch/Desktop/nick/jetpack_5/Jetson_Linux_R35.4.1_aarch64/Linux_for_Tegra/sources/tegra/optee-src/nv-optee/optee/optee_os/lib/libutils/isoc/snprintf.c:14
    5910:	b9004fff 	str	wzr, [sp, #76]
/home/ssysarch/Desktop/nick/jetpack_5/Jetson_Linux_R35.4.1_aarch64/Linux_for_Tegra/sources/tegra/optee-src/nv-optee/optee/optee_os/lib/libutils/isoc/snprintf.c:10
    5914:	a9069be5 	stp	x5, x6, [sp, #104]
/home/ssysarch/Desktop/nick/jetpack_5/Jetson_Linux_R35.4.1_aarch64/Linux_for_Tegra/sources/tegra/optee-src/nv-optee/optee/optee_os/lib/libutils/isoc/snprintf.c:15
    5918:	a94317e4 	ldp	x4, x5, [sp, #48]
    591c:	a90117e4 	stp	x4, x5, [sp, #16]
    5920:	a94417e4 	ldp	x4, x5, [sp, #64]
    5924:	a90217e4 	stp	x4, x5, [sp, #32]
/home/ssysarch/Desktop/nick/jetpack_5/Jetson_Linux_R35.4.1_aarch64/Linux_for_Tegra/sources/tegra/optee-src/nv-optee/optee/optee_os/lib/libutils/isoc/snprintf.c:10
    5928:	f9003fe7 	str	x7, [sp, #120]
/home/ssysarch/Desktop/nick/jetpack_5/Jetson_Linux_R35.4.1_aarch64/Linux_for_Tegra/sources/tegra/optee-src/nv-optee/optee/optee_os/lib/libutils/isoc/snprintf.c:15
    592c:	52800004 	mov	w4, #0x0                   	// #0
    5930:	94000035 	bl	5a04 <__vsnprintf>
/home/ssysarch/Desktop/nick/jetpack_5/Jetson_Linux_R35.4.1_aarch64/Linux_for_Tegra/sources/tegra/optee-src/nv-optee/optee/optee_os/lib/libutils/isoc/snprintf.c:19
    5934:	a8c87bfd 	ldp	x29, x30, [sp], #128
    5938:	d65f03c0 	ret

000000000000593c <tolower>:
tolower():
/home/ssysarch/Desktop/nick/jetpack_5/Jetson_Linux_R35.4.1_aarch64/Linux_for_Tegra/sources/tegra/optee-src/nv-optee/optee/optee_os/lib/libutils/isoc/tolower.c:9
    593c:	51010401 	sub	w1, w0, #0x41
    5940:	7100643f 	cmp	w1, #0x19
    5944:	54000048 	b.hi	594c <tolower+0x10>  // b.pmore
/home/ssysarch/Desktop/nick/jetpack_5/Jetson_Linux_R35.4.1_aarch64/Linux_for_Tegra/sources/tegra/optee-src/nv-optee/optee/optee_os/lib/libutils/isoc/tolower.c:10
    5948:	11008000 	add	w0, w0, #0x20
/home/ssysarch/Desktop/nick/jetpack_5/Jetson_Linux_R35.4.1_aarch64/Linux_for_Tegra/sources/tegra/optee-src/nv-optee/optee/optee_os/lib/libutils/isoc/tolower.c:12
    594c:	d65f03c0 	ret

0000000000005950 <memcmp>:
memcmp():
/home/ssysarch/Desktop/nick/jetpack_5/Jetson_Linux_R35.4.1_aarch64/Linux_for_Tegra/sources/tegra/optee-src/nv-optee/optee/optee_os/lib/libutils/isoc/newlib/memcmp.c:91
    5950:	d1000421 	sub	x1, x1, #0x1
/home/ssysarch/Desktop/nick/jetpack_5/Jetson_Linux_R35.4.1_aarch64/Linux_for_Tegra/sources/tegra/optee-src/nv-optee/optee/optee_os/lib/libutils/isoc/newlib/memcmp.c:90
    5954:	d2800004 	mov	x4, #0x0                   	// #0
    5958:	eb04005f 	cmp	x2, x4
    595c:	54000061 	b.ne	5968 <memcmp+0x18>  // b.any
/home/ssysarch/Desktop/nick/jetpack_5/Jetson_Linux_R35.4.1_aarch64/Linux_for_Tegra/sources/tegra/optee-src/nv-optee/optee/optee_os/lib/libutils/isoc/newlib/memcmp.c:96
    5960:	52800000 	mov	w0, #0x0                   	// #0
    5964:	14000007 	b	5980 <memcmp+0x30>
/home/ssysarch/Desktop/nick/jetpack_5/Jetson_Linux_R35.4.1_aarch64/Linux_for_Tegra/sources/tegra/optee-src/nv-optee/optee/optee_os/lib/libutils/isoc/newlib/memcmp.c:91
    5968:	38646803 	ldrb	w3, [x0, x4]
    596c:	91000484 	add	x4, x4, #0x1
    5970:	38646825 	ldrb	w5, [x1, x4]
    5974:	6b05007f 	cmp	w3, w5
    5978:	54ffff00 	b.eq	5958 <memcmp+0x8>  // b.none
/home/ssysarch/Desktop/nick/jetpack_5/Jetson_Linux_R35.4.1_aarch64/Linux_for_Tegra/sources/tegra/optee-src/nv-optee/optee/optee_os/lib/libutils/isoc/newlib/memcmp.c:92
    597c:	4b050060 	sub	w0, w3, w5
/home/ssysarch/Desktop/nick/jetpack_5/Jetson_Linux_R35.4.1_aarch64/Linux_for_Tegra/sources/tegra/optee-src/nv-optee/optee/optee_os/lib/libutils/isoc/newlib/memcmp.c:136
    5980:	d65f03c0 	ret

0000000000005984 <memset>:
memset():
/home/ssysarch/Desktop/nick/jetpack_5/Jetson_Linux_R35.4.1_aarch64/Linux_for_Tegra/sources/tegra/optee-src/nv-optee/optee/optee_os/lib/libutils/isoc/newlib/memset.c:125
    5984:	d2800003 	mov	x3, #0x0                   	// #0
    5988:	eb03005f 	cmp	x2, x3
    598c:	54000041 	b.ne	5994 <memset+0x10>  // b.any
/home/ssysarch/Desktop/nick/jetpack_5/Jetson_Linux_R35.4.1_aarch64/Linux_for_Tegra/sources/tegra/optee-src/nv-optee/optee/optee_os/lib/libutils/isoc/newlib/memset.c:129
    5990:	d65f03c0 	ret
/home/ssysarch/Desktop/nick/jetpack_5/Jetson_Linux_R35.4.1_aarch64/Linux_for_Tegra/sources/tegra/optee-src/nv-optee/optee/optee_os/lib/libutils/isoc/newlib/memset.c:126
    5994:	38236801 	strb	w1, [x0, x3]
    5998:	91000463 	add	x3, x3, #0x1
    599c:	17fffffb 	b	5988 <memset+0x4>

00000000000059a0 <strcmp>:
strcmp():
/home/ssysarch/Desktop/nick/jetpack_5/Jetson_Linux_R35.4.1_aarch64/Linux_for_Tegra/sources/tegra/optee-src/nv-optee/optee/optee_os/lib/libutils/isoc/newlib/strcmp.c:99
    59a0:	d2800002 	mov	x2, #0x0                   	// #0
    59a4:	38626803 	ldrb	w3, [x0, x2]
    59a8:	38626824 	ldrb	w4, [x1, x2]
    59ac:	34000083 	cbz	w3, 59bc <strcmp+0x1c>
    59b0:	91000442 	add	x2, x2, #0x1
/home/ssysarch/Desktop/nick/jetpack_5/Jetson_Linux_R35.4.1_aarch64/Linux_for_Tegra/sources/tegra/optee-src/nv-optee/optee/optee_os/lib/libutils/isoc/newlib/strcmp.c:99 (discriminator 1)
    59b4:	6b04007f 	cmp	w3, w4
    59b8:	54ffff60 	b.eq	59a4 <strcmp+0x4>  // b.none
/home/ssysarch/Desktop/nick/jetpack_5/Jetson_Linux_R35.4.1_aarch64/Linux_for_Tegra/sources/tegra/optee-src/nv-optee/optee/optee_os/lib/libutils/isoc/newlib/strcmp.c:142
    59bc:	4b040060 	sub	w0, w3, w4
    59c0:	d65f03c0 	ret

00000000000059c4 <strcpy>:
strcpy():
/home/ssysarch/Desktop/nick/jetpack_5/Jetson_Linux_R35.4.1_aarch64/Linux_for_Tegra/sources/tegra/optee-src/nv-optee/optee/optee_os/lib/libutils/isoc/newlib/strcpy.c:101
    59c4:	d2800002 	mov	x2, #0x0                   	// #0
/home/ssysarch/Desktop/nick/jetpack_5/Jetson_Linux_R35.4.1_aarch64/Linux_for_Tegra/sources/tegra/optee-src/nv-optee/optee/optee_os/lib/libutils/isoc/newlib/strcpy.c:101 (discriminator 1)
    59c8:	38626823 	ldrb	w3, [x1, x2]
    59cc:	38226803 	strb	w3, [x0, x2]
    59d0:	91000442 	add	x2, x2, #0x1
    59d4:	35ffffa3 	cbnz	w3, 59c8 <strcpy+0x4>
/home/ssysarch/Desktop/nick/jetpack_5/Jetson_Linux_R35.4.1_aarch64/Linux_for_Tegra/sources/tegra/optee-src/nv-optee/optee/optee_os/lib/libutils/isoc/newlib/strcpy.c:132
    59d8:	d65f03c0 	ret

00000000000059dc <strnlen>:
strnlen():
/home/ssysarch/Desktop/nick/jetpack_5/Jetson_Linux_R35.4.1_aarch64/Linux_for_Tegra/sources/tegra/optee-src/nv-optee/optee/optee_os/lib/libutils/isoc/newlib/strnlen.c:77
    59dc:	8b010001 	add	x1, x0, x1
    59e0:	aa0003e2 	mov	x2, x0
    59e4:	eb01005f 	cmp	x2, x1
    59e8:	54000061 	b.ne	59f4 <strnlen+0x18>  // b.any
/home/ssysarch/Desktop/nick/jetpack_5/Jetson_Linux_R35.4.1_aarch64/Linux_for_Tegra/sources/tegra/optee-src/nv-optee/optee/optee_os/lib/libutils/isoc/newlib/strnlen.c:80
    59ec:	cb000040 	sub	x0, x2, x0
/home/ssysarch/Desktop/nick/jetpack_5/Jetson_Linux_R35.4.1_aarch64/Linux_for_Tegra/sources/tegra/optee-src/nv-optee/optee/optee_os/lib/libutils/isoc/newlib/strnlen.c:81
    59f0:	d65f03c0 	ret
/home/ssysarch/Desktop/nick/jetpack_5/Jetson_Linux_R35.4.1_aarch64/Linux_for_Tegra/sources/tegra/optee-src/nv-optee/optee/optee_os/lib/libutils/isoc/newlib/strnlen.c:77 (discriminator 1)
    59f4:	39400043 	ldrb	w3, [x2]
    59f8:	34ffffa3 	cbz	w3, 59ec <strnlen+0x10>
/home/ssysarch/Desktop/nick/jetpack_5/Jetson_Linux_R35.4.1_aarch64/Linux_for_Tegra/sources/tegra/optee-src/nv-optee/optee/optee_os/lib/libutils/isoc/newlib/strnlen.c:78
    59fc:	91000442 	add	x2, x2, #0x1
    5a00:	17fffff9 	b	59e4 <strnlen+0x8>

0000000000005a04 <__vsnprintf>:
__vsnprintf():
/home/ssysarch/Desktop/nick/jetpack_5/Jetson_Linux_R35.4.1_aarch64/Linux_for_Tegra/sources/tegra/optee-src/nv-optee/optee/optee_os/lib/libutils/ext/snprintk.c:138
    5a04:	a9b97bfd 	stp	x29, x30, [sp, #-112]!
    5a08:	910003fd 	mov	x29, sp
    5a0c:	a90153f3 	stp	x19, x20, [sp, #16]
    5a10:	aa0103f4 	mov	x20, x1
    5a14:	aa0003f3 	mov	x19, x0
    5a18:	aa0303e1 	mov	x1, x3
    5a1c:	a9025bf5 	stp	x21, x22, [sp, #32]
    5a20:	aa0203f5 	mov	x21, x2
/home/ssysarch/Desktop/nick/jetpack_5/Jetson_Linux_R35.4.1_aarch64/Linux_for_Tegra/sources/tegra/optee-src/nv-optee/optee/optee_os/lib/libutils/ext/snprintk.c:142
    5a24:	8b140016 	add	x22, x0, x20
/home/ssysarch/Desktop/nick/jetpack_5/Jetson_Linux_R35.4.1_aarch64/Linux_for_Tegra/sources/tegra/optee-src/nv-optee/optee/optee_os/lib/libutils/ext/snprintk.c:143
    5a28:	d2800402 	mov	x2, #0x20                  	// #32
    5a2c:	910103e0 	add	x0, sp, #0x40
/home/ssysarch/Desktop/nick/jetpack_5/Jetson_Linux_R35.4.1_aarch64/Linux_for_Tegra/sources/tegra/optee-src/nv-optee/optee/optee_os/lib/libutils/ext/snprintk.c:138
    5a30:	f9001bf7 	str	x23, [sp, #48]
    5a34:	12001c97 	and	w23, w4, #0xff
/home/ssysarch/Desktop/nick/jetpack_5/Jetson_Linux_R35.4.1_aarch64/Linux_for_Tegra/sources/tegra/optee-src/nv-optee/optee/optee_os/lib/libutils/ext/snprintk.c:142
    5a38:	f90037f6 	str	x22, [sp, #104]
/home/ssysarch/Desktop/nick/jetpack_5/Jetson_Linux_R35.4.1_aarch64/Linux_for_Tegra/sources/tegra/optee-src/nv-optee/optee/optee_os/lib/libutils/ext/snprintk.c:143
    5a3c:	97ffe98d 	bl	70 <memcpy>
    5a40:	aa0003e3 	mov	x3, x0
    5a44:	2a1703e4 	mov	w4, w23
    5a48:	aa1303e2 	mov	x2, x19
    5a4c:	9101a3e1 	add	x1, sp, #0x68
    5a50:	aa1503e0 	mov	x0, x21
    5a54:	94000039 	bl	5b38 <kprintf.constprop.0>
/home/ssysarch/Desktop/nick/jetpack_5/Jetson_Linux_R35.4.1_aarch64/Linux_for_Tegra/sources/tegra/optee-src/nv-optee/optee/optee_os/lib/libutils/ext/snprintk.c:144
    5a58:	f100027f 	cmp	x19, #0x0
    5a5c:	fa401a84 	ccmp	x20, #0x0, #0x4, ne  // ne = any
    5a60:	540000a0 	b.eq	5a74 <__vsnprintf+0x70>  // b.none
/home/ssysarch/Desktop/nick/jetpack_5/Jetson_Linux_R35.4.1_aarch64/Linux_for_Tegra/sources/tegra/optee-src/nv-optee/optee/optee_os/lib/libutils/ext/snprintk.c:146
    5a64:	93407c01 	sxtw	x1, w0
    5a68:	eb20c29f 	cmp	x20, w0, sxtw
    5a6c:	540000e8 	b.hi	5a88 <__vsnprintf+0x84>  // b.pmore
/home/ssysarch/Desktop/nick/jetpack_5/Jetson_Linux_R35.4.1_aarch64/Linux_for_Tegra/sources/tegra/optee-src/nv-optee/optee/optee_os/lib/libutils/ext/snprintk.c:147
    5a70:	381ff2df 	sturb	wzr, [x22, #-1]
/home/ssysarch/Desktop/nick/jetpack_5/Jetson_Linux_R35.4.1_aarch64/Linux_for_Tegra/sources/tegra/optee-src/nv-optee/optee/optee_os/lib/libutils/ext/snprintk.c:152
    5a74:	a94153f3 	ldp	x19, x20, [sp, #16]
    5a78:	a9425bf5 	ldp	x21, x22, [sp, #32]
    5a7c:	f9401bf7 	ldr	x23, [sp, #48]
    5a80:	a8c77bfd 	ldp	x29, x30, [sp], #112
    5a84:	d65f03c0 	ret
/home/ssysarch/Desktop/nick/jetpack_5/Jetson_Linux_R35.4.1_aarch64/Linux_for_Tegra/sources/tegra/optee-src/nv-optee/optee/optee_os/lib/libutils/ext/snprintk.c:149
    5a88:	38216a7f 	strb	wzr, [x19, x1]
/home/ssysarch/Desktop/nick/jetpack_5/Jetson_Linux_R35.4.1_aarch64/Linux_for_Tegra/sources/tegra/optee-src/nv-optee/optee/optee_os/lib/libutils/ext/snprintk.c:151
    5a8c:	17fffffa 	b	5a74 <__vsnprintf+0x70>

0000000000005a90 <vsnprintk>:
vsnprintk():
/home/ssysarch/Desktop/nick/jetpack_5/Jetson_Linux_R35.4.1_aarch64/Linux_for_Tegra/sources/tegra/optee-src/nv-optee/optee/optee_os/lib/libutils/ext/snprintk.c:130
    5a90:	a9bb7bfd 	stp	x29, x30, [sp, #-80]!
/home/ssysarch/Desktop/nick/jetpack_5/Jetson_Linux_R35.4.1_aarch64/Linux_for_Tegra/sources/tegra/optee-src/nv-optee/optee/optee_os/lib/libutils/ext/snprintk.c:131
    5a94:	9100c3e4 	add	x4, sp, #0x30
/home/ssysarch/Desktop/nick/jetpack_5/Jetson_Linux_R35.4.1_aarch64/Linux_for_Tegra/sources/tegra/optee-src/nv-optee/optee/optee_os/lib/libutils/ext/snprintk.c:130
    5a98:	910003fd 	mov	x29, sp
    5a9c:	a90153f3 	stp	x19, x20, [sp, #16]
    5aa0:	aa0003f3 	mov	x19, x0
    5aa4:	aa0103f4 	mov	x20, x1
/home/ssysarch/Desktop/nick/jetpack_5/Jetson_Linux_R35.4.1_aarch64/Linux_for_Tegra/sources/tegra/optee-src/nv-optee/optee/optee_os/lib/libutils/ext/snprintk.c:131
    5aa8:	aa0403e0 	mov	x0, x4
/home/ssysarch/Desktop/nick/jetpack_5/Jetson_Linux_R35.4.1_aarch64/Linux_for_Tegra/sources/tegra/optee-src/nv-optee/optee/optee_os/lib/libutils/ext/snprintk.c:130
    5aac:	aa0303e1 	mov	x1, x3
    5ab0:	f90013f5 	str	x21, [sp, #32]
    5ab4:	aa0203f5 	mov	x21, x2
/home/ssysarch/Desktop/nick/jetpack_5/Jetson_Linux_R35.4.1_aarch64/Linux_for_Tegra/sources/tegra/optee-src/nv-optee/optee/optee_os/lib/libutils/ext/snprintk.c:131
    5ab8:	d2800402 	mov	x2, #0x20                  	// #32
    5abc:	97ffe96d 	bl	70 <memcpy>
    5ac0:	aa1503e2 	mov	x2, x21
    5ac4:	aa0003e3 	mov	x3, x0
    5ac8:	aa1403e1 	mov	x1, x20
    5acc:	aa1303e0 	mov	x0, x19
    5ad0:	52800024 	mov	w4, #0x1                   	// #1
    5ad4:	97ffffcc 	bl	5a04 <__vsnprintf>
/home/ssysarch/Desktop/nick/jetpack_5/Jetson_Linux_R35.4.1_aarch64/Linux_for_Tegra/sources/tegra/optee-src/nv-optee/optee/optee_os/lib/libutils/ext/snprintk.c:132
    5ad8:	a94153f3 	ldp	x19, x20, [sp, #16]
    5adc:	f94013f5 	ldr	x21, [sp, #32]
    5ae0:	a8c57bfd 	ldp	x29, x30, [sp], #80
    5ae4:	d65f03c0 	ret

0000000000005ae8 <snprintk>:
snprintk():
/home/ssysarch/Desktop/nick/jetpack_5/Jetson_Linux_R35.4.1_aarch64/Linux_for_Tegra/sources/tegra/optee-src/nv-optee/optee/optee_os/lib/libutils/ext/snprintk.c:113
    5ae8:	a9b87bfd 	stp	x29, x30, [sp, #-128]!
    5aec:	910003fd 	mov	x29, sp
    5af0:	a90593e3 	stp	x3, x4, [sp, #88]
/home/ssysarch/Desktop/nick/jetpack_5/Jetson_Linux_R35.4.1_aarch64/Linux_for_Tegra/sources/tegra/optee-src/nv-optee/optee/optee_os/lib/libutils/ext/snprintk.c:117
    5af4:	910203e3 	add	x3, sp, #0x80
    5af8:	a9030fe3 	stp	x3, x3, [sp, #48]
    5afc:	910143e3 	add	x3, sp, #0x50
    5b00:	f90023e3 	str	x3, [sp, #64]
    5b04:	128004e3 	mov	w3, #0xffffffd8            	// #-40
    5b08:	b9004be3 	str	w3, [sp, #72]
/home/ssysarch/Desktop/nick/jetpack_5/Jetson_Linux_R35.4.1_aarch64/Linux_for_Tegra/sources/tegra/optee-src/nv-optee/optee/optee_os/lib/libutils/ext/snprintk.c:118
    5b0c:	910043e3 	add	x3, sp, #0x10
/home/ssysarch/Desktop/nick/jetpack_5/Jetson_Linux_R35.4.1_aarch64/Linux_for_Tegra/sources/tegra/optee-src/nv-optee/optee/optee_os/lib/libutils/ext/snprintk.c:117
    5b10:	b9004fff 	str	wzr, [sp, #76]
/home/ssysarch/Desktop/nick/jetpack_5/Jetson_Linux_R35.4.1_aarch64/Linux_for_Tegra/sources/tegra/optee-src/nv-optee/optee/optee_os/lib/libutils/ext/snprintk.c:113
    5b14:	a9069be5 	stp	x5, x6, [sp, #104]
/home/ssysarch/Desktop/nick/jetpack_5/Jetson_Linux_R35.4.1_aarch64/Linux_for_Tegra/sources/tegra/optee-src/nv-optee/optee/optee_os/lib/libutils/ext/snprintk.c:118
    5b18:	a94317e4 	ldp	x4, x5, [sp, #48]
    5b1c:	a90117e4 	stp	x4, x5, [sp, #16]
    5b20:	a94417e4 	ldp	x4, x5, [sp, #64]
    5b24:	a90217e4 	stp	x4, x5, [sp, #32]
/home/ssysarch/Desktop/nick/jetpack_5/Jetson_Linux_R35.4.1_aarch64/Linux_for_Tegra/sources/tegra/optee-src/nv-optee/optee/optee_os/lib/libutils/ext/snprintk.c:113
    5b28:	f9003fe7 	str	x7, [sp, #120]
/home/ssysarch/Desktop/nick/jetpack_5/Jetson_Linux_R35.4.1_aarch64/Linux_for_Tegra/sources/tegra/optee-src/nv-optee/optee/optee_os/lib/libutils/ext/snprintk.c:118
    5b2c:	97ffffd9 	bl	5a90 <vsnprintk>
/home/ssysarch/Desktop/nick/jetpack_5/Jetson_Linux_R35.4.1_aarch64/Linux_for_Tegra/sources/tegra/optee-src/nv-optee/optee/optee_os/lib/libutils/ext/snprintk.c:122
    5b30:	a8c87bfd 	ldp	x29, x30, [sp], #128
    5b34:	d65f03c0 	ret

0000000000005b38 <kprintf.constprop.0>:
kprintf():
/home/ssysarch/Desktop/nick/jetpack_5/Jetson_Linux_R35.4.1_aarch64/Linux_for_Tegra/sources/tegra/optee-src/nv-optee/optee/optee_os/lib/libutils/ext/snprintk.c:242
    5b38:	d103c3ff 	sub	sp, sp, #0xf0
    5b3c:	aa0103e8 	mov	x8, x1
    5b40:	a9037bfd 	stp	x29, x30, [sp, #48]
    5b44:	9100c3fd 	add	x29, sp, #0x30
    5b48:	a90453f3 	stp	x19, x20, [sp, #64]
    5b4c:	b9401874 	ldr	w20, [x3, #24]
    5b50:	a9055bf5 	stp	x21, x22, [sp, #80]
    5b54:	aa0203f6 	mov	x22, x2
    5b58:	a90663f7 	stp	x23, x24, [sp, #96]
    5b5c:	a9076bf9 	stp	x25, x26, [sp, #112]
    5b60:	a90873fb 	stp	x27, x28, [sp, #128]
    5b64:	aa0003fb 	mov	x27, x0
    5b68:	12001c80 	and	w0, w4, #0xff
    5b6c:	b900a3e0 	str	w0, [sp, #160]
    5b70:	a9406873 	ldp	x19, x26, [x3]
/home/ssysarch/Desktop/nick/jetpack_5/Jetson_Linux_R35.4.1_aarch64/Linux_for_Tegra/sources/tegra/optee-src/nv-optee/optee/optee_os/lib/libutils/ext/snprintk.c:264
    5b74:	b40004c1 	cbz	x1, 5c0c <kprintf.constprop.0+0xd4>
/home/ssysarch/Desktop/nick/jetpack_5/Jetson_Linux_R35.4.1_aarch64/Linux_for_Tegra/sources/tegra/optee-src/nv-optee/optee/optee_os/lib/libutils/ext/snprintk.c:265
    5b78:	f9400038 	ldr	x24, [x1]
/home/ssysarch/Desktop/nick/jetpack_5/Jetson_Linux_R35.4.1_aarch64/Linux_for_Tegra/sources/tegra/optee-src/nv-optee/optee/optee_os/lib/libutils/ext/snprintk.c:543
    5b7c:	910323ec 	add	x12, sp, #0xc8
    5b80:	b0000000 	adrp	x0, 6000 <kprintf.constprop.0+0x4c8>
    5b84:	9126c000 	add	x0, x0, #0x9b0
/home/ssysarch/Desktop/nick/jetpack_5/Jetson_Linux_R35.4.1_aarch64/Linux_for_Tegra/sources/tegra/optee-src/nv-optee/optee/optee_os/lib/libutils/ext/snprintk.c:275
    5b88:	d2800017 	mov	x23, #0x0                   	// #0
/home/ssysarch/Desktop/nick/jetpack_5/Jetson_Linux_R35.4.1_aarch64/Linux_for_Tegra/sources/tegra/optee-src/nv-optee/optee/optee_os/lib/libutils/ext/snprintk.c:273
    5b8c:	52800019 	mov	w25, #0x0                   	// #0
    5b90:	f9004be0 	str	x0, [sp, #144]
/home/ssysarch/Desktop/nick/jetpack_5/Jetson_Linux_R35.4.1_aarch64/Linux_for_Tegra/sources/tegra/optee-src/nv-optee/optee/optee_os/lib/libutils/ext/snprintk.c:281
    5b94:	39400360 	ldrb	w0, [x27]
    5b98:	7100941f 	cmp	w0, #0x25
    5b9c:	7a401804 	ccmp	w0, #0x0, #0x4, ne  // ne = any
    5ba0:	540003a1 	b.ne	5c14 <kprintf.constprop.0+0xdc>  // b.any
/home/ssysarch/Desktop/nick/jetpack_5/Jetson_Linux_R35.4.1_aarch64/Linux_for_Tegra/sources/tegra/optee-src/nv-optee/optee/optee_os/lib/libutils/ext/snprintk.c:285
    5ba4:	34005220 	cbz	w0, 65e8 <kprintf.constprop.0+0xab0>
/home/ssysarch/Desktop/nick/jetpack_5/Jetson_Linux_R35.4.1_aarch64/Linux_for_Tegra/sources/tegra/optee-src/nv-optee/optee/optee_os/lib/libutils/ext/snprintk.c:293
    5ba8:	12800005 	mov	w5, #0xffffffff            	// #-1
    5bac:	b0000006 	adrp	x6, 6000 <kprintf.constprop.0+0x4c8>
    5bb0:	912730c6 	add	x6, x6, #0x9cc
/home/ssysarch/Desktop/nick/jetpack_5/Jetson_Linux_R35.4.1_aarch64/Linux_for_Tegra/sources/tegra/optee-src/nv-optee/optee/optee_os/lib/libutils/ext/snprintk.c:288
    5bb4:	9100077b 	add	x27, x27, #0x1
    5bb8:	2a1403e4 	mov	w4, w20
    5bbc:	aa1303e3 	mov	x3, x19
/home/ssysarch/Desktop/nick/jetpack_5/Jetson_Linux_R35.4.1_aarch64/Linux_for_Tegra/sources/tegra/optee-src/nv-optee/optee/optee_os/lib/libutils/ext/snprintk.c:330
    5bc0:	2a0503ee 	mov	w14, w5
/home/ssysarch/Desktop/nick/jetpack_5/Jetson_Linux_R35.4.1_aarch64/Linux_for_Tegra/sources/tegra/optee-src/nv-optee/optee/optee_os/lib/libutils/ext/snprintk.c:294
    5bc4:	52800001 	mov	w1, #0x0                   	// #0
/home/ssysarch/Desktop/nick/jetpack_5/Jetson_Linux_R35.4.1_aarch64/Linux_for_Tegra/sources/tegra/optee-src/nv-optee/optee/optee_os/lib/libutils/ext/snprintk.c:292
    5bc8:	5280000a 	mov	w10, #0x0                   	// #0
/home/ssysarch/Desktop/nick/jetpack_5/Jetson_Linux_R35.4.1_aarch64/Linux_for_Tegra/sources/tegra/optee-src/nv-optee/optee/optee_os/lib/libutils/ext/snprintk.c:290
    5bcc:	52800015 	mov	w21, #0x0                   	// #0
/home/ssysarch/Desktop/nick/jetpack_5/Jetson_Linux_R35.4.1_aarch64/Linux_for_Tegra/sources/tegra/optee-src/nv-optee/optee/optee_os/lib/libutils/ext/snprintk.c:352
    5bd0:	5280014d 	mov	w13, #0xa                   	// #10
/home/ssysarch/Desktop/nick/jetpack_5/Jetson_Linux_R35.4.1_aarch64/Linux_for_Tegra/sources/tegra/optee-src/nv-optee/optee/optee_os/lib/libutils/ext/snprintk.c:305
    5bd4:	5280040f 	mov	w15, #0x20                  	// #32
/home/ssysarch/Desktop/nick/jetpack_5/Jetson_Linux_R35.4.1_aarch64/Linux_for_Tegra/sources/tegra/optee-src/nv-optee/optee/optee_os/lib/libutils/ext/snprintk.c:296
    5bd8:	3840177c 	ldrb	w28, [x27], #1
/home/ssysarch/Desktop/nick/jetpack_5/Jetson_Linux_R35.4.1_aarch64/Linux_for_Tegra/sources/tegra/optee-src/nv-optee/optee/optee_os/lib/libutils/ext/snprintk.c:297
    5bdc:	7100e79f 	cmp	w28, #0x39
    5be0:	5400052c 	b.gt	5c84 <kprintf.constprop.0+0x14c>
    5be4:	71007f9f 	cmp	w28, #0x1f
    5be8:	54004fed 	b.le	65e4 <kprintf.constprop.0+0xaac>
    5bec:	51008380 	sub	w0, w28, #0x20
    5bf0:	7100641f 	cmp	w0, #0x19
    5bf4:	540004e8 	b.hi	5c90 <kprintf.constprop.0+0x158>  // b.pmore
    5bf8:	f9404be2 	ldr	x2, [sp, #144]
    5bfc:	38604840 	ldrb	w0, [x2, w0, uxtw]
    5c00:	10000062 	adr	x2, 5c0c <kprintf.constprop.0+0xd4>
    5c04:	8b208840 	add	x0, x2, w0, sxtb #2
    5c08:	d61f0000 	br	x0
/home/ssysarch/Desktop/nick/jetpack_5/Jetson_Linux_R35.4.1_aarch64/Linux_for_Tegra/sources/tegra/optee-src/nv-optee/optee/optee_os/lib/libutils/ext/snprintk.c:267
    5c0c:	d2800018 	mov	x24, #0x0                   	// #0
    5c10:	17ffffdb 	b	5b7c <kprintf.constprop.0+0x44>
/home/ssysarch/Desktop/nick/jetpack_5/Jetson_Linux_R35.4.1_aarch64/Linux_for_Tegra/sources/tegra/optee-src/nv-optee/optee/optee_os/lib/libutils/ext/snprintk.c:282
    5c14:	11000739 	add	w25, w25, #0x1
/home/ssysarch/Desktop/nick/jetpack_5/Jetson_Linux_R35.4.1_aarch64/Linux_for_Tegra/sources/tegra/optee-src/nv-optee/optee/optee_os/lib/libutils/ext/snprintk.c:283
    5c18:	b40000b6 	cbz	x22, 5c2c <kprintf.constprop.0+0xf4>
    5c1c:	f100011f 	cmp	x8, #0x0
    5c20:	fa5812c0 	ccmp	x22, x24, #0x0, ne  // ne = any
    5c24:	54000042 	b.cs	5c2c <kprintf.constprop.0+0xf4>  // b.hs, b.nlast
    5c28:	380016c0 	strb	w0, [x22], #1
/home/ssysarch/Desktop/nick/jetpack_5/Jetson_Linux_R35.4.1_aarch64/Linux_for_Tegra/sources/tegra/optee-src/nv-optee/optee/optee_os/lib/libutils/ext/snprintk.c:281
    5c2c:	9100077b 	add	x27, x27, #0x1
    5c30:	17ffffd9 	b	5b94 <kprintf.constprop.0+0x5c>
/home/ssysarch/Desktop/nick/jetpack_5/Jetson_Linux_R35.4.1_aarch64/Linux_for_Tegra/sources/tegra/optee-src/nv-optee/optee/optee_os/lib/libutils/ext/snprintk.c:325
    5c34:	52800561 	mov	w1, #0x2b                  	// #43
    5c38:	17ffffe8 	b	5bd8 <kprintf.constprop.0+0xa0>
    5c3c:	786058c0 	ldrh	w0, [x6, w0, uxtw #1]
    5c40:	10000062 	adr	x2, 5c4c <kprintf.constprop.0+0x114>
    5c44:	8b20a840 	add	x0, x2, w0, sxth #2
    5c48:	d61f0000 	br	x0
/home/ssysarch/Desktop/nick/jetpack_5/Jetson_Linux_R35.4.1_aarch64/Linux_for_Tegra/sources/tegra/optee-src/nv-optee/optee/optee_os/lib/libutils/ext/snprintk.c:480
    5c4c:	d0000017 	adrp	x23, 7000 <trace_ext_prefix+0x509>
    5c50:	913096f7 	add	x23, x23, #0xc25
/home/ssysarch/Desktop/nick/jetpack_5/Jetson_Linux_R35.4.1_aarch64/Linux_for_Tegra/sources/tegra/optee-src/nv-optee/optee/optee_os/lib/libutils/ext/snprintk.c:481
    5c54:	363844f5 	tbz	w21, #7, 64f0 <kprintf.constprop.0+0x9b8>
    5c58:	37f84624 	tbnz	w4, #31, 651c <kprintf.constprop.0+0x9e4>
    5c5c:	91003c73 	add	x19, x3, #0xf
    5c60:	2a0403f4 	mov	w20, w4
    5c64:	927df273 	and	x19, x19, #0xfffffffffffffff8
    5c68:	f9400062 	ldr	x2, [x3]
/home/ssysarch/Desktop/nick/jetpack_5/Jetson_Linux_R35.4.1_aarch64/Linux_for_Tegra/sources/tegra/optee-src/nv-optee/optee/optee_os/lib/libutils/ext/snprintk.c:484
    5c6c:	36003455 	tbz	w21, #0, 62f4 <kprintf.constprop.0+0x7bc>
    5c70:	b4003422 	cbz	x2, 62f4 <kprintf.constprop.0+0x7bc>
/home/ssysarch/Desktop/nick/jetpack_5/Jetson_Linux_R35.4.1_aarch64/Linux_for_Tegra/sources/tegra/optee-src/nv-optee/optee/optee_os/lib/libutils/ext/snprintk.c:485
    5c74:	321f02b5 	orr	w21, w21, #0x2
/home/ssysarch/Desktop/nick/jetpack_5/Jetson_Linux_R35.4.1_aarch64/Linux_for_Tegra/sources/tegra/optee-src/nv-optee/optee/optee_os/lib/libutils/ext/snprintk.c:482
    5c78:	52800040 	mov	w0, #0x2                   	// #2
/home/ssysarch/Desktop/nick/jetpack_5/Jetson_Linux_R35.4.1_aarch64/Linux_for_Tegra/sources/tegra/optee-src/nv-optee/optee/optee_os/lib/libutils/ext/snprintk.c:488
    5c7c:	52800001 	mov	w1, #0x0                   	// #0
    5c80:	14000078 	b	5e60 <kprintf.constprop.0+0x328>
/home/ssysarch/Desktop/nick/jetpack_5/Jetson_Linux_R35.4.1_aarch64/Linux_for_Tegra/sources/tegra/optee-src/nv-optee/optee/optee_os/lib/libutils/ext/snprintk.c:297
    5c84:	51011380 	sub	w0, w28, #0x44
    5c88:	7100d81f 	cmp	w0, #0x36
    5c8c:	54fffd89 	b.ls	5c3c <kprintf.constprop.0+0x104>  // b.plast
/home/ssysarch/Desktop/nick/jetpack_5/Jetson_Linux_R35.4.1_aarch64/Linux_for_Tegra/sources/tegra/optee-src/nv-optee/optee/optee_os/lib/libutils/ext/snprintk.c:554
    5c90:	2a0403f4 	mov	w20, w4
    5c94:	aa0303f3 	mov	x19, x3
/home/ssysarch/Desktop/nick/jetpack_5/Jetson_Linux_R35.4.1_aarch64/Linux_for_Tegra/sources/tegra/optee-src/nv-optee/optee/optee_os/lib/libutils/ext/snprintk.c:551
    5c98:	390323fc 	strb	w28, [sp, #200]
/home/ssysarch/Desktop/nick/jetpack_5/Jetson_Linux_R35.4.1_aarch64/Linux_for_Tegra/sources/tegra/optee-src/nv-optee/optee/optee_os/lib/libutils/ext/snprintk.c:554
    5c9c:	14000058 	b	5dfc <kprintf.constprop.0+0x2c4>
/home/ssysarch/Desktop/nick/jetpack_5/Jetson_Linux_R35.4.1_aarch64/Linux_for_Tegra/sources/tegra/optee-src/nv-optee/optee/optee_os/lib/libutils/ext/snprintk.c:305
    5ca0:	7100003f 	cmp	w1, #0x0
    5ca4:	1a8f1021 	csel	w1, w1, w15, ne  // ne = any
    5ca8:	17ffffcc 	b	5bd8 <kprintf.constprop.0+0xa0>
/home/ssysarch/Desktop/nick/jetpack_5/Jetson_Linux_R35.4.1_aarch64/Linux_for_Tegra/sources/tegra/optee-src/nv-optee/optee/optee_os/lib/libutils/ext/snprintk.c:308
    5cac:	320002b5 	orr	w21, w21, #0x1
/home/ssysarch/Desktop/nick/jetpack_5/Jetson_Linux_R35.4.1_aarch64/Linux_for_Tegra/sources/tegra/optee-src/nv-optee/optee/optee_os/lib/libutils/ext/snprintk.c:309
    5cb0:	17ffffca 	b	5bd8 <kprintf.constprop.0+0xa0>
/home/ssysarch/Desktop/nick/jetpack_5/Jetson_Linux_R35.4.1_aarch64/Linux_for_Tegra/sources/tegra/optee-src/nv-optee/optee/optee_os/lib/libutils/ext/snprintk.c:317
    5cb4:	37f80124 	tbnz	w4, #31, 5cd8 <kprintf.constprop.0+0x1a0>
    5cb8:	91002c62 	add	x2, x3, #0xb
    5cbc:	aa0303e0 	mov	x0, x3
    5cc0:	927df043 	and	x3, x2, #0xfffffffffffffff8
    5cc4:	b940000a 	ldr	w10, [x0]
    5cc8:	36fff88a 	tbz	w10, #31, 5bd8 <kprintf.constprop.0+0xa0>
/home/ssysarch/Desktop/nick/jetpack_5/Jetson_Linux_R35.4.1_aarch64/Linux_for_Tegra/sources/tegra/optee-src/nv-optee/optee/optee_os/lib/libutils/ext/snprintk.c:319
    5ccc:	4b0a03ea 	neg	w10, w10
/home/ssysarch/Desktop/nick/jetpack_5/Jetson_Linux_R35.4.1_aarch64/Linux_for_Tegra/sources/tegra/optee-src/nv-optee/optee/optee_os/lib/libutils/ext/snprintk.c:322
    5cd0:	321e02b5 	orr	w21, w21, #0x4
/home/ssysarch/Desktop/nick/jetpack_5/Jetson_Linux_R35.4.1_aarch64/Linux_for_Tegra/sources/tegra/optee-src/nv-optee/optee/optee_os/lib/libutils/ext/snprintk.c:323
    5cd4:	17ffffc1 	b	5bd8 <kprintf.constprop.0+0xa0>
/home/ssysarch/Desktop/nick/jetpack_5/Jetson_Linux_R35.4.1_aarch64/Linux_for_Tegra/sources/tegra/optee-src/nv-optee/optee/optee_os/lib/libutils/ext/snprintk.c:317
    5cd8:	11002082 	add	w2, w4, #0x8
    5cdc:	7100005f 	cmp	w2, #0x0
    5ce0:	540000cd 	b.le	5cf8 <kprintf.constprop.0+0x1c0>
    5ce4:	91002c67 	add	x7, x3, #0xb
    5ce8:	aa0303e0 	mov	x0, x3
    5cec:	2a0203e4 	mov	w4, w2
    5cf0:	927df0e3 	and	x3, x7, #0xfffffffffffffff8
    5cf4:	17fffff4 	b	5cc4 <kprintf.constprop.0+0x18c>
    5cf8:	8b24c340 	add	x0, x26, w4, sxtw
    5cfc:	2a0203e4 	mov	w4, w2
    5d00:	17fffff1 	b	5cc4 <kprintf.constprop.0+0x18c>
/home/ssysarch/Desktop/nick/jetpack_5/Jetson_Linux_R35.4.1_aarch64/Linux_for_Tegra/sources/tegra/optee-src/nv-optee/optee/optee_os/lib/libutils/ext/snprintk.c:328
    5d04:	3840177c 	ldrb	w28, [x27], #1
    5d08:	7100ab9f 	cmp	w28, #0x2a
    5d0c:	54000341 	b.ne	5d74 <kprintf.constprop.0+0x23c>  // b.any
/home/ssysarch/Desktop/nick/jetpack_5/Jetson_Linux_R35.4.1_aarch64/Linux_for_Tegra/sources/tegra/optee-src/nv-optee/optee/optee_os/lib/libutils/ext/snprintk.c:329
    5d10:	37f80144 	tbnz	w4, #31, 5d38 <kprintf.constprop.0+0x200>
    5d14:	91002c62 	add	x2, x3, #0xb
    5d18:	2a0403e7 	mov	w7, w4
    5d1c:	927df042 	and	x2, x2, #0xfffffffffffffff8
/home/ssysarch/Desktop/nick/jetpack_5/Jetson_Linux_R35.4.1_aarch64/Linux_for_Tegra/sources/tegra/optee-src/nv-optee/optee/optee_os/lib/libutils/ext/snprintk.c:330
    5d20:	b9400065 	ldr	w5, [x3]
/home/ssysarch/Desktop/nick/jetpack_5/Jetson_Linux_R35.4.1_aarch64/Linux_for_Tegra/sources/tegra/optee-src/nv-optee/optee/optee_os/lib/libutils/ext/snprintk.c:331
    5d24:	2a0703e4 	mov	w4, w7
    5d28:	aa0203e3 	mov	x3, x2
/home/ssysarch/Desktop/nick/jetpack_5/Jetson_Linux_R35.4.1_aarch64/Linux_for_Tegra/sources/tegra/optee-src/nv-optee/optee/optee_os/lib/libutils/ext/snprintk.c:330
    5d2c:	710000bf 	cmp	w5, #0x0
    5d30:	1a8ea0a5 	csel	w5, w5, w14, ge  // ge = tcont
/home/ssysarch/Desktop/nick/jetpack_5/Jetson_Linux_R35.4.1_aarch64/Linux_for_Tegra/sources/tegra/optee-src/nv-optee/optee/optee_os/lib/libutils/ext/snprintk.c:331
    5d34:	17ffffa9 	b	5bd8 <kprintf.constprop.0+0xa0>
/home/ssysarch/Desktop/nick/jetpack_5/Jetson_Linux_R35.4.1_aarch64/Linux_for_Tegra/sources/tegra/optee-src/nv-optee/optee/optee_os/lib/libutils/ext/snprintk.c:329
    5d38:	11002087 	add	w7, w4, #0x8
    5d3c:	710000ff 	cmp	w7, #0x0
    5d40:	5400008d 	b.le	5d50 <kprintf.constprop.0+0x218>
    5d44:	91002c62 	add	x2, x3, #0xb
    5d48:	927df042 	and	x2, x2, #0xfffffffffffffff8
    5d4c:	17fffff5 	b	5d20 <kprintf.constprop.0+0x1e8>
    5d50:	aa0303e2 	mov	x2, x3
    5d54:	8b24c343 	add	x3, x26, w4, sxtw
    5d58:	17fffff2 	b	5d20 <kprintf.constprop.0+0x1e8>
/home/ssysarch/Desktop/nick/jetpack_5/Jetson_Linux_R35.4.1_aarch64/Linux_for_Tegra/sources/tegra/optee-src/nv-optee/optee/optee_os/lib/libutils/ext/snprintk.c:335
    5d5c:	1b0d00a5 	madd	w5, w5, w13, w0
/home/ssysarch/Desktop/nick/jetpack_5/Jetson_Linux_R35.4.1_aarch64/Linux_for_Tegra/sources/tegra/optee-src/nv-optee/optee/optee_os/lib/libutils/ext/snprintk.c:336
    5d60:	3840177c 	ldrb	w28, [x27], #1
/home/ssysarch/Desktop/nick/jetpack_5/Jetson_Linux_R35.4.1_aarch64/Linux_for_Tegra/sources/tegra/optee-src/nv-optee/optee/optee_os/lib/libutils/ext/snprintk.c:334
    5d64:	5100c380 	sub	w0, w28, #0x30
    5d68:	7100241f 	cmp	w0, #0x9
    5d6c:	54ffff89 	b.ls	5d5c <kprintf.constprop.0+0x224>  // b.plast
    5d70:	17ffff9b 	b	5bdc <kprintf.constprop.0+0xa4>
/home/ssysarch/Desktop/nick/jetpack_5/Jetson_Linux_R35.4.1_aarch64/Linux_for_Tegra/sources/tegra/optee-src/nv-optee/optee/optee_os/lib/libutils/ext/snprintk.c:333
    5d74:	52800005 	mov	w5, #0x0                   	// #0
    5d78:	17fffffb 	b	5d64 <kprintf.constprop.0+0x22c>
/home/ssysarch/Desktop/nick/jetpack_5/Jetson_Linux_R35.4.1_aarch64/Linux_for_Tegra/sources/tegra/optee-src/nv-optee/optee/optee_os/lib/libutils/ext/snprintk.c:346
    5d7c:	321602b5 	orr	w21, w21, #0x400
/home/ssysarch/Desktop/nick/jetpack_5/Jetson_Linux_R35.4.1_aarch64/Linux_for_Tegra/sources/tegra/optee-src/nv-optee/optee/optee_os/lib/libutils/ext/snprintk.c:347
    5d80:	17ffff96 	b	5bd8 <kprintf.constprop.0+0xa0>
/home/ssysarch/Desktop/nick/jetpack_5/Jetson_Linux_R35.4.1_aarch64/Linux_for_Tegra/sources/tegra/optee-src/nv-optee/optee/optee_os/lib/libutils/ext/snprintk.c:297
    5d84:	5280000a 	mov	w10, #0x0                   	// #0
/home/ssysarch/Desktop/nick/jetpack_5/Jetson_Linux_R35.4.1_aarch64/Linux_for_Tegra/sources/tegra/optee-src/nv-optee/optee/optee_os/lib/libutils/ext/snprintk.c:352
    5d88:	5100c39c 	sub	w28, w28, #0x30
    5d8c:	1b0d714a 	madd	w10, w10, w13, w28
/home/ssysarch/Desktop/nick/jetpack_5/Jetson_Linux_R35.4.1_aarch64/Linux_for_Tegra/sources/tegra/optee-src/nv-optee/optee/optee_os/lib/libutils/ext/snprintk.c:353
    5d90:	3840177c 	ldrb	w28, [x27], #1
/home/ssysarch/Desktop/nick/jetpack_5/Jetson_Linux_R35.4.1_aarch64/Linux_for_Tegra/sources/tegra/optee-src/nv-optee/optee/optee_os/lib/libutils/ext/snprintk.c:354
    5d94:	5100c380 	sub	w0, w28, #0x30
    5d98:	7100241f 	cmp	w0, #0x9
    5d9c:	54ffff69 	b.ls	5d88 <kprintf.constprop.0+0x250>  // b.plast
    5da0:	17ffff8f 	b	5bdc <kprintf.constprop.0+0xa4>
/home/ssysarch/Desktop/nick/jetpack_5/Jetson_Linux_R35.4.1_aarch64/Linux_for_Tegra/sources/tegra/optee-src/nv-optee/optee/optee_os/lib/libutils/ext/snprintk.c:358
    5da4:	321a02b5 	orr	w21, w21, #0x40
/home/ssysarch/Desktop/nick/jetpack_5/Jetson_Linux_R35.4.1_aarch64/Linux_for_Tegra/sources/tegra/optee-src/nv-optee/optee/optee_os/lib/libutils/ext/snprintk.c:359
    5da8:	17ffff8c 	b	5bd8 <kprintf.constprop.0+0xa0>
/home/ssysarch/Desktop/nick/jetpack_5/Jetson_Linux_R35.4.1_aarch64/Linux_for_Tegra/sources/tegra/optee-src/nv-optee/optee/optee_os/lib/libutils/ext/snprintk.c:361
    5dac:	321902b5 	orr	w21, w21, #0x80
/home/ssysarch/Desktop/nick/jetpack_5/Jetson_Linux_R35.4.1_aarch64/Linux_for_Tegra/sources/tegra/optee-src/nv-optee/optee/optee_os/lib/libutils/ext/snprintk.c:362
    5db0:	17ffff8a 	b	5bd8 <kprintf.constprop.0+0xa0>
/home/ssysarch/Desktop/nick/jetpack_5/Jetson_Linux_R35.4.1_aarch64/Linux_for_Tegra/sources/tegra/optee-src/nv-optee/optee/optee_os/lib/libutils/ext/snprintk.c:364
    5db4:	39400360 	ldrb	w0, [x27]
    5db8:	7101b01f 	cmp	w0, #0x6c
    5dbc:	54000081 	b.ne	5dcc <kprintf.constprop.0+0x294>  // b.any
    5dc0:	9100077b 	add	x27, x27, #0x1
/home/ssysarch/Desktop/nick/jetpack_5/Jetson_Linux_R35.4.1_aarch64/Linux_for_Tegra/sources/tegra/optee-src/nv-optee/optee/optee_os/lib/libutils/ext/snprintk.c:372
    5dc4:	321b02b5 	orr	w21, w21, #0x20
/home/ssysarch/Desktop/nick/jetpack_5/Jetson_Linux_R35.4.1_aarch64/Linux_for_Tegra/sources/tegra/optee-src/nv-optee/optee/optee_os/lib/libutils/ext/snprintk.c:373
    5dc8:	17ffff84 	b	5bd8 <kprintf.constprop.0+0xa0>
/home/ssysarch/Desktop/nick/jetpack_5/Jetson_Linux_R35.4.1_aarch64/Linux_for_Tegra/sources/tegra/optee-src/nv-optee/optee/optee_os/lib/libutils/ext/snprintk.c:368
    5dcc:	321c02b5 	orr	w21, w21, #0x10
    5dd0:	17ffff82 	b	5bd8 <kprintf.constprop.0+0xa0>
/home/ssysarch/Desktop/nick/jetpack_5/Jetson_Linux_R35.4.1_aarch64/Linux_for_Tegra/sources/tegra/optee-src/nv-optee/optee/optee_os/lib/libutils/ext/snprintk.c:375
    5dd4:	321802b5 	orr	w21, w21, #0x100
/home/ssysarch/Desktop/nick/jetpack_5/Jetson_Linux_R35.4.1_aarch64/Linux_for_Tegra/sources/tegra/optee-src/nv-optee/optee/optee_os/lib/libutils/ext/snprintk.c:376
    5dd8:	17ffff80 	b	5bd8 <kprintf.constprop.0+0xa0>
/home/ssysarch/Desktop/nick/jetpack_5/Jetson_Linux_R35.4.1_aarch64/Linux_for_Tegra/sources/tegra/optee-src/nv-optee/optee/optee_os/lib/libutils/ext/snprintk.c:378
    5ddc:	321702b5 	orr	w21, w21, #0x200
/home/ssysarch/Desktop/nick/jetpack_5/Jetson_Linux_R35.4.1_aarch64/Linux_for_Tegra/sources/tegra/optee-src/nv-optee/optee/optee_os/lib/libutils/ext/snprintk.c:379
    5de0:	17ffff7e 	b	5bd8 <kprintf.constprop.0+0xa0>
/home/ssysarch/Desktop/nick/jetpack_5/Jetson_Linux_R35.4.1_aarch64/Linux_for_Tegra/sources/tegra/optee-src/nv-optee/optee/optee_os/lib/libutils/ext/snprintk.c:381
    5de4:	37f80164 	tbnz	w4, #31, 5e10 <kprintf.constprop.0+0x2d8>
    5de8:	91002c73 	add	x19, x3, #0xb
    5dec:	2a0403f4 	mov	w20, w4
    5df0:	927df273 	and	x19, x19, #0xfffffffffffffff8
    5df4:	b9400060 	ldr	w0, [x3]
    5df8:	390323e0 	strb	w0, [sp, #200]
/home/ssysarch/Desktop/nick/jetpack_5/Jetson_Linux_R35.4.1_aarch64/Linux_for_Tegra/sources/tegra/optee-src/nv-optee/optee/optee_os/lib/libutils/ext/snprintk.c:550
    5dfc:	910323e3 	add	x3, sp, #0xc8
/home/ssysarch/Desktop/nick/jetpack_5/Jetson_Linux_R35.4.1_aarch64/Linux_for_Tegra/sources/tegra/optee-src/nv-optee/optee/optee_os/lib/libutils/ext/snprintk.c:552
    5e00:	52800025 	mov	w5, #0x1                   	// #1
/home/ssysarch/Desktop/nick/jetpack_5/Jetson_Linux_R35.4.1_aarch64/Linux_for_Tegra/sources/tegra/optee-src/nv-optee/optee/optee_os/lib/libutils/ext/snprintk.c:291
    5e04:	52800006 	mov	w6, #0x0                   	// #0
/home/ssysarch/Desktop/nick/jetpack_5/Jetson_Linux_R35.4.1_aarch64/Linux_for_Tegra/sources/tegra/optee-src/nv-optee/optee/optee_os/lib/libutils/ext/snprintk.c:553
    5e08:	52800001 	mov	w1, #0x0                   	// #0
/home/ssysarch/Desktop/nick/jetpack_5/Jetson_Linux_R35.4.1_aarch64/Linux_for_Tegra/sources/tegra/optee-src/nv-optee/optee/optee_os/lib/libutils/ext/snprintk.c:554
    5e0c:	140000fa 	b	61f4 <kprintf.constprop.0+0x6bc>
/home/ssysarch/Desktop/nick/jetpack_5/Jetson_Linux_R35.4.1_aarch64/Linux_for_Tegra/sources/tegra/optee-src/nv-optee/optee/optee_os/lib/libutils/ext/snprintk.c:381
    5e10:	11002094 	add	w20, w4, #0x8
    5e14:	7100029f 	cmp	w20, #0x0
    5e18:	5400008d 	b.le	5e28 <kprintf.constprop.0+0x2f0>
    5e1c:	91002c73 	add	x19, x3, #0xb
    5e20:	927df273 	and	x19, x19, #0xfffffffffffffff8
    5e24:	17fffff4 	b	5df4 <kprintf.constprop.0+0x2bc>
    5e28:	aa0303f3 	mov	x19, x3
    5e2c:	8b24c343 	add	x3, x26, w4, sxtw
    5e30:	17fffff1 	b	5df4 <kprintf.constprop.0+0x2bc>
/home/ssysarch/Desktop/nick/jetpack_5/Jetson_Linux_R35.4.1_aarch64/Linux_for_Tegra/sources/tegra/optee-src/nv-optee/optee/optee_os/lib/libutils/ext/snprintk.c:386
    5e34:	321c02b5 	orr	w21, w21, #0x10
/home/ssysarch/Desktop/nick/jetpack_5/Jetson_Linux_R35.4.1_aarch64/Linux_for_Tegra/sources/tegra/optee-src/nv-optee/optee/optee_os/lib/libutils/ext/snprintk.c:390
    5e38:	363802f5 	tbz	w21, #7, 5e94 <kprintf.constprop.0+0x35c>
    5e3c:	37f80424 	tbnz	w4, #31, 5ec0 <kprintf.constprop.0+0x388>
    5e40:	91003c73 	add	x19, x3, #0xf
    5e44:	2a0403f4 	mov	w20, w4
    5e48:	927df273 	and	x19, x19, #0xfffffffffffffff8
    5e4c:	f9400062 	ldr	x2, [x3]
/home/ssysarch/Desktop/nick/jetpack_5/Jetson_Linux_R35.4.1_aarch64/Linux_for_Tegra/sources/tegra/optee-src/nv-optee/optee/optee_os/lib/libutils/ext/snprintk.c:391
    5e50:	b6f82de2 	tbz	x2, #63, 640c <kprintf.constprop.0+0x8d4>
/home/ssysarch/Desktop/nick/jetpack_5/Jetson_Linux_R35.4.1_aarch64/Linux_for_Tegra/sources/tegra/optee-src/nv-optee/optee/optee_os/lib/libutils/ext/snprintk.c:392
    5e54:	cb0203e2 	neg	x2, x2
/home/ssysarch/Desktop/nick/jetpack_5/Jetson_Linux_R35.4.1_aarch64/Linux_for_Tegra/sources/tegra/optee-src/nv-optee/optee/optee_os/lib/libutils/ext/snprintk.c:395
    5e58:	52800020 	mov	w0, #0x1                   	// #1
/home/ssysarch/Desktop/nick/jetpack_5/Jetson_Linux_R35.4.1_aarch64/Linux_for_Tegra/sources/tegra/optee-src/nv-optee/optee/optee_os/lib/libutils/ext/snprintk.c:393
    5e5c:	528005a1 	mov	w1, #0x2d                  	// #45
/home/ssysarch/Desktop/nick/jetpack_5/Jetson_Linux_R35.4.1_aarch64/Linux_for_Tegra/sources/tegra/optee-src/nv-optee/optee/optee_os/lib/libutils/ext/snprintk.c:494
    5e60:	310004bf 	cmn	w5, #0x1
    5e64:	54003a01 	b.ne	65a4 <kprintf.constprop.0+0xa6c>  // b.any
/home/ssysarch/Desktop/nick/jetpack_5/Jetson_Linux_R35.4.1_aarch64/Linux_for_Tegra/sources/tegra/optee-src/nv-optee/optee/optee_os/lib/libutils/ext/snprintk.c:509
    5e68:	7100041f 	cmp	w0, #0x1
    5e6c:	54002d40 	b.eq	6414 <kprintf.constprop.0+0x8dc>  // b.none
    5e70:	7100081f 	cmp	w0, #0x2
    5e74:	54000ea1 	b.ne	6048 <kprintf.constprop.0+0x510>  // b.any
/home/ssysarch/Desktop/nick/jetpack_5/Jetson_Linux_R35.4.1_aarch64/Linux_for_Tegra/sources/tegra/optee-src/nv-optee/optee/optee_os/lib/libutils/ext/snprintk.c:502
    5e78:	91009583 	add	x3, x12, #0x25
/home/ssysarch/Desktop/nick/jetpack_5/Jetson_Linux_R35.4.1_aarch64/Linux_for_Tegra/sources/tegra/optee-src/nv-optee/optee/optee_os/lib/libutils/ext/snprintk.c:531
    5e7c:	92400c40 	and	x0, x2, #0xf
/home/ssysarch/Desktop/nick/jetpack_5/Jetson_Linux_R35.4.1_aarch64/Linux_for_Tegra/sources/tegra/optee-src/nv-optee/optee/optee_os/lib/libutils/ext/snprintk.c:532
    5e80:	d344fc42 	lsr	x2, x2, #4
/home/ssysarch/Desktop/nick/jetpack_5/Jetson_Linux_R35.4.1_aarch64/Linux_for_Tegra/sources/tegra/optee-src/nv-optee/optee/optee_os/lib/libutils/ext/snprintk.c:531
    5e84:	38606ae0 	ldrb	w0, [x23, x0]
    5e88:	381ffc60 	strb	w0, [x3, #-1]!
/home/ssysarch/Desktop/nick/jetpack_5/Jetson_Linux_R35.4.1_aarch64/Linux_for_Tegra/sources/tegra/optee-src/nv-optee/optee/optee_os/lib/libutils/ext/snprintk.c:533
    5e8c:	b5ffff82 	cbnz	x2, 5e7c <kprintf.constprop.0+0x344>
    5e90:	1400007b 	b	607c <kprintf.constprop.0+0x544>
/home/ssysarch/Desktop/nick/jetpack_5/Jetson_Linux_R35.4.1_aarch64/Linux_for_Tegra/sources/tegra/optee-src/nv-optee/optee/optee_os/lib/libutils/ext/snprintk.c:390
    5e94:	3747fd55 	tbnz	w21, #8, 5e3c <kprintf.constprop.0+0x304>
    5e98:	374ffd35 	tbnz	w21, #9, 5e3c <kprintf.constprop.0+0x304>
    5e9c:	372ffd15 	tbnz	w21, #5, 5e3c <kprintf.constprop.0+0x304>
    5ea0:	3727fcf5 	tbnz	w21, #4, 5e3c <kprintf.constprop.0+0x304>
    5ea4:	36300335 	tbz	w21, #6, 5f08 <kprintf.constprop.0+0x3d0>
    5ea8:	37f801e4 	tbnz	w4, #31, 5ee4 <kprintf.constprop.0+0x3ac>
    5eac:	91002c73 	add	x19, x3, #0xb
    5eb0:	2a0403f4 	mov	w20, w4
    5eb4:	927df273 	and	x19, x19, #0xfffffffffffffff8
    5eb8:	79800062 	ldrsh	x2, [x3]
    5ebc:	17ffffe5 	b	5e50 <kprintf.constprop.0+0x318>
    5ec0:	11002094 	add	w20, w4, #0x8
    5ec4:	7100029f 	cmp	w20, #0x0
    5ec8:	5400008d 	b.le	5ed8 <kprintf.constprop.0+0x3a0>
    5ecc:	91003c73 	add	x19, x3, #0xf
    5ed0:	927df273 	and	x19, x19, #0xfffffffffffffff8
    5ed4:	17ffffde 	b	5e4c <kprintf.constprop.0+0x314>
    5ed8:	aa0303f3 	mov	x19, x3
    5edc:	8b24c343 	add	x3, x26, w4, sxtw
    5ee0:	17ffffdb 	b	5e4c <kprintf.constprop.0+0x314>
    5ee4:	11002094 	add	w20, w4, #0x8
    5ee8:	7100029f 	cmp	w20, #0x0
    5eec:	5400008d 	b.le	5efc <kprintf.constprop.0+0x3c4>
    5ef0:	91002c73 	add	x19, x3, #0xb
    5ef4:	927df273 	and	x19, x19, #0xfffffffffffffff8
    5ef8:	17fffff0 	b	5eb8 <kprintf.constprop.0+0x380>
    5efc:	aa0303f3 	mov	x19, x3
    5f00:	8b24c343 	add	x3, x26, w4, sxtw
    5f04:	17ffffed 	b	5eb8 <kprintf.constprop.0+0x380>
    5f08:	37f800c4 	tbnz	w4, #31, 5f20 <kprintf.constprop.0+0x3e8>
    5f0c:	91002c73 	add	x19, x3, #0xb
    5f10:	2a0403f4 	mov	w20, w4
    5f14:	927df273 	and	x19, x19, #0xfffffffffffffff8
    5f18:	b9800062 	ldrsw	x2, [x3]
    5f1c:	17ffffcd 	b	5e50 <kprintf.constprop.0+0x318>
    5f20:	11002094 	add	w20, w4, #0x8
    5f24:	7100029f 	cmp	w20, #0x0
    5f28:	5400008d 	b.le	5f38 <kprintf.constprop.0+0x400>
    5f2c:	91002c73 	add	x19, x3, #0xb
    5f30:	927df273 	and	x19, x19, #0xfffffffffffffff8
    5f34:	17fffff9 	b	5f18 <kprintf.constprop.0+0x3e0>
    5f38:	aa0303f3 	mov	x19, x3
    5f3c:	8b24c343 	add	x3, x26, w4, sxtw
    5f40:	17fffff6 	b	5f18 <kprintf.constprop.0+0x3e0>
/home/ssysarch/Desktop/nick/jetpack_5/Jetson_Linux_R35.4.1_aarch64/Linux_for_Tegra/sources/tegra/optee-src/nv-optee/optee/optee_os/lib/libutils/ext/snprintk.c:398
    5f44:	36380135 	tbz	w21, #7, 5f68 <kprintf.constprop.0+0x430>
/home/ssysarch/Desktop/nick/jetpack_5/Jetson_Linux_R35.4.1_aarch64/Linux_for_Tegra/sources/tegra/optee-src/nv-optee/optee/optee_os/lib/libutils/ext/snprintk.c:407
    5f48:	37f80284 	tbnz	w4, #31, 5f98 <kprintf.constprop.0+0x460>
    5f4c:	91003c73 	add	x19, x3, #0xf
    5f50:	2a0403f4 	mov	w20, w4
    5f54:	927df273 	and	x19, x19, #0xfffffffffffffff8
    5f58:	f9400060 	ldr	x0, [x3]
    5f5c:	93407f21 	sxtw	x1, w25
    5f60:	f9000001 	str	x1, [x0]
    5f64:	17ffff0c 	b	5b94 <kprintf.constprop.0+0x5c>
/home/ssysarch/Desktop/nick/jetpack_5/Jetson_Linux_R35.4.1_aarch64/Linux_for_Tegra/sources/tegra/optee-src/nv-optee/optee/optee_os/lib/libutils/ext/snprintk.c:400
    5f68:	3747ff15 	tbnz	w21, #8, 5f48 <kprintf.constprop.0+0x410>
/home/ssysarch/Desktop/nick/jetpack_5/Jetson_Linux_R35.4.1_aarch64/Linux_for_Tegra/sources/tegra/optee-src/nv-optee/optee/optee_os/lib/libutils/ext/snprintk.c:402
    5f6c:	374ffef5 	tbnz	w21, #9, 5f48 <kprintf.constprop.0+0x410>
/home/ssysarch/Desktop/nick/jetpack_5/Jetson_Linux_R35.4.1_aarch64/Linux_for_Tegra/sources/tegra/optee-src/nv-optee/optee/optee_os/lib/libutils/ext/snprintk.c:404
    5f70:	372ffed5 	tbnz	w21, #5, 5f48 <kprintf.constprop.0+0x410>
/home/ssysarch/Desktop/nick/jetpack_5/Jetson_Linux_R35.4.1_aarch64/Linux_for_Tegra/sources/tegra/optee-src/nv-optee/optee/optee_os/lib/libutils/ext/snprintk.c:406
    5f74:	3727feb5 	tbnz	w21, #4, 5f48 <kprintf.constprop.0+0x410>
/home/ssysarch/Desktop/nick/jetpack_5/Jetson_Linux_R35.4.1_aarch64/Linux_for_Tegra/sources/tegra/optee-src/nv-optee/optee/optee_os/lib/libutils/ext/snprintk.c:408
    5f78:	36300355 	tbz	w21, #6, 5fe0 <kprintf.constprop.0+0x4a8>
/home/ssysarch/Desktop/nick/jetpack_5/Jetson_Linux_R35.4.1_aarch64/Linux_for_Tegra/sources/tegra/optee-src/nv-optee/optee/optee_os/lib/libutils/ext/snprintk.c:409
    5f7c:	37f80204 	tbnz	w4, #31, 5fbc <kprintf.constprop.0+0x484>
    5f80:	91003c73 	add	x19, x3, #0xf
    5f84:	2a0403f4 	mov	w20, w4
    5f88:	927df273 	and	x19, x19, #0xfffffffffffffff8
    5f8c:	f9400060 	ldr	x0, [x3]
    5f90:	79000019 	strh	w25, [x0]
    5f94:	17ffff00 	b	5b94 <kprintf.constprop.0+0x5c>
/home/ssysarch/Desktop/nick/jetpack_5/Jetson_Linux_R35.4.1_aarch64/Linux_for_Tegra/sources/tegra/optee-src/nv-optee/optee/optee_os/lib/libutils/ext/snprintk.c:407
    5f98:	11002094 	add	w20, w4, #0x8
    5f9c:	7100029f 	cmp	w20, #0x0
    5fa0:	5400008d 	b.le	5fb0 <kprintf.constprop.0+0x478>
    5fa4:	91003c73 	add	x19, x3, #0xf
    5fa8:	927df273 	and	x19, x19, #0xfffffffffffffff8
    5fac:	17ffffeb 	b	5f58 <kprintf.constprop.0+0x420>
    5fb0:	aa0303f3 	mov	x19, x3
    5fb4:	8b24c343 	add	x3, x26, w4, sxtw
    5fb8:	17ffffe8 	b	5f58 <kprintf.constprop.0+0x420>
/home/ssysarch/Desktop/nick/jetpack_5/Jetson_Linux_R35.4.1_aarch64/Linux_for_Tegra/sources/tegra/optee-src/nv-optee/optee/optee_os/lib/libutils/ext/snprintk.c:409
    5fbc:	11002094 	add	w20, w4, #0x8
    5fc0:	7100029f 	cmp	w20, #0x0
    5fc4:	5400008d 	b.le	5fd4 <kprintf.constprop.0+0x49c>
    5fc8:	91003c73 	add	x19, x3, #0xf
    5fcc:	927df273 	and	x19, x19, #0xfffffffffffffff8
    5fd0:	17ffffef 	b	5f8c <kprintf.constprop.0+0x454>
    5fd4:	aa0303f3 	mov	x19, x3
    5fd8:	8b24c343 	add	x3, x26, w4, sxtw
    5fdc:	17ffffec 	b	5f8c <kprintf.constprop.0+0x454>
/home/ssysarch/Desktop/nick/jetpack_5/Jetson_Linux_R35.4.1_aarch64/Linux_for_Tegra/sources/tegra/optee-src/nv-optee/optee/optee_os/lib/libutils/ext/snprintk.c:411
    5fe0:	37f800e4 	tbnz	w4, #31, 5ffc <kprintf.constprop.0+0x4c4>
    5fe4:	91003c73 	add	x19, x3, #0xf
    5fe8:	2a0403f4 	mov	w20, w4
    5fec:	927df273 	and	x19, x19, #0xfffffffffffffff8
    5ff0:	f9400060 	ldr	x0, [x3]
    5ff4:	b9000019 	str	w25, [x0]
    5ff8:	17fffee7 	b	5b94 <kprintf.constprop.0+0x5c>
    5ffc:	11002094 	add	w20, w4, #0x8
    6000:	7100029f 	cmp	w20, #0x0
    6004:	5400008d 	b.le	6014 <kprintf.constprop.0+0x4dc>
    6008:	91003c73 	add	x19, x3, #0xf
    600c:	927df273 	and	x19, x19, #0xfffffffffffffff8
    6010:	17fffff8 	b	5ff0 <kprintf.constprop.0+0x4b8>
    6014:	aa0303f3 	mov	x19, x3
    6018:	8b24c343 	add	x3, x26, w4, sxtw
    601c:	17fffff5 	b	5ff0 <kprintf.constprop.0+0x4b8>
/home/ssysarch/Desktop/nick/jetpack_5/Jetson_Linux_R35.4.1_aarch64/Linux_for_Tegra/sources/tegra/optee-src/nv-optee/optee/optee_os/lib/libutils/ext/snprintk.c:414
    6020:	321c02b5 	orr	w21, w21, #0x10
/home/ssysarch/Desktop/nick/jetpack_5/Jetson_Linux_R35.4.1_aarch64/Linux_for_Tegra/sources/tegra/optee-src/nv-optee/optee/optee_os/lib/libutils/ext/snprintk.c:417
    6024:	36380355 	tbz	w21, #7, 608c <kprintf.constprop.0+0x554>
    6028:	37f80484 	tbnz	w4, #31, 60b8 <kprintf.constprop.0+0x580>
    602c:	91003c73 	add	x19, x3, #0xf
    6030:	2a0403f4 	mov	w20, w4
    6034:	927df273 	and	x19, x19, #0xfffffffffffffff8
    6038:	f9400062 	ldr	x2, [x3]
/home/ssysarch/Desktop/nick/jetpack_5/Jetson_Linux_R35.4.1_aarch64/Linux_for_Tegra/sources/tegra/optee-src/nv-optee/optee/optee_os/lib/libutils/ext/snprintk.c:494
    603c:	310004bf 	cmn	w5, #0x1
    6040:	52800001 	mov	w1, #0x0                   	// #0
    6044:	54002ae1 	b.ne	65a0 <kprintf.constprop.0+0xa68>  // b.any
/home/ssysarch/Desktop/nick/jetpack_5/Jetson_Linux_R35.4.1_aarch64/Linux_for_Tegra/sources/tegra/optee-src/nv-optee/optee/optee_os/lib/libutils/ext/snprintk.c:502
    6048:	91009583 	add	x3, x12, #0x25
/home/ssysarch/Desktop/nick/jetpack_5/Jetson_Linux_R35.4.1_aarch64/Linux_for_Tegra/sources/tegra/optee-src/nv-optee/optee/optee_os/lib/libutils/ext/snprintk.c:512
    604c:	12000840 	and	w0, w2, #0x7
    6050:	aa0303e4 	mov	x4, x3
    6054:	1100c000 	add	w0, w0, #0x30
    6058:	381ffc60 	strb	w0, [x3, #-1]!
/home/ssysarch/Desktop/nick/jetpack_5/Jetson_Linux_R35.4.1_aarch64/Linux_for_Tegra/sources/tegra/optee-src/nv-optee/optee/optee_os/lib/libutils/ext/snprintk.c:513
    605c:	d343fc42 	lsr	x2, x2, #3
/home/ssysarch/Desktop/nick/jetpack_5/Jetson_Linux_R35.4.1_aarch64/Linux_for_Tegra/sources/tegra/optee-src/nv-optee/optee/optee_os/lib/libutils/ext/snprintk.c:514
    6060:	b5ffff62 	cbnz	x2, 604c <kprintf.constprop.0+0x514>
/home/ssysarch/Desktop/nick/jetpack_5/Jetson_Linux_R35.4.1_aarch64/Linux_for_Tegra/sources/tegra/optee-src/nv-optee/optee/optee_os/lib/libutils/ext/snprintk.c:516
    6064:	360000d5 	tbz	w21, #0, 607c <kprintf.constprop.0+0x544>
    6068:	7100c01f 	cmp	w0, #0x30
    606c:	54000080 	b.eq	607c <kprintf.constprop.0+0x544>  // b.none
/home/ssysarch/Desktop/nick/jetpack_5/Jetson_Linux_R35.4.1_aarch64/Linux_for_Tegra/sources/tegra/optee-src/nv-optee/optee/optee_os/lib/libutils/ext/snprintk.c:517
    6070:	52800600 	mov	w0, #0x30                  	// #48
    6074:	381ff060 	sturb	w0, [x3, #-1]
    6078:	d1000883 	sub	x3, x4, #0x2
/home/ssysarch/Desktop/nick/jetpack_5/Jetson_Linux_R35.4.1_aarch64/Linux_for_Tegra/sources/tegra/optee-src/nv-optee/optee/optee_os/lib/libutils/ext/snprintk.c:543
    607c:	91009580 	add	x0, x12, #0x25
    6080:	2a0503e6 	mov	w6, w5
    6084:	4b030005 	sub	w5, w0, w3
    6088:	1400005b 	b	61f4 <kprintf.constprop.0+0x6bc>
/home/ssysarch/Desktop/nick/jetpack_5/Jetson_Linux_R35.4.1_aarch64/Linux_for_Tegra/sources/tegra/optee-src/nv-optee/optee/optee_os/lib/libutils/ext/snprintk.c:417
    608c:	3747fcf5 	tbnz	w21, #8, 6028 <kprintf.constprop.0+0x4f0>
    6090:	374ffcd5 	tbnz	w21, #9, 6028 <kprintf.constprop.0+0x4f0>
    6094:	372ffcb5 	tbnz	w21, #5, 6028 <kprintf.constprop.0+0x4f0>
    6098:	3727fc95 	tbnz	w21, #4, 6028 <kprintf.constprop.0+0x4f0>
    609c:	36300335 	tbz	w21, #6, 6100 <kprintf.constprop.0+0x5c8>
    60a0:	37f801e4 	tbnz	w4, #31, 60dc <kprintf.constprop.0+0x5a4>
    60a4:	91002c73 	add	x19, x3, #0xb
    60a8:	2a0403f4 	mov	w20, w4
    60ac:	927df273 	and	x19, x19, #0xfffffffffffffff8
    60b0:	79400062 	ldrh	w2, [x3]
    60b4:	17ffffe2 	b	603c <kprintf.constprop.0+0x504>
    60b8:	11002094 	add	w20, w4, #0x8
    60bc:	7100029f 	cmp	w20, #0x0
    60c0:	5400008d 	b.le	60d0 <kprintf.constprop.0+0x598>
    60c4:	91003c73 	add	x19, x3, #0xf
    60c8:	927df273 	and	x19, x19, #0xfffffffffffffff8
    60cc:	17ffffdb 	b	6038 <kprintf.constprop.0+0x500>
    60d0:	aa0303f3 	mov	x19, x3
    60d4:	8b24c343 	add	x3, x26, w4, sxtw
    60d8:	17ffffd8 	b	6038 <kprintf.constprop.0+0x500>
    60dc:	11002094 	add	w20, w4, #0x8
    60e0:	7100029f 	cmp	w20, #0x0
    60e4:	5400008d 	b.le	60f4 <kprintf.constprop.0+0x5bc>
    60e8:	91002c73 	add	x19, x3, #0xb
    60ec:	927df273 	and	x19, x19, #0xfffffffffffffff8
    60f0:	17fffff0 	b	60b0 <kprintf.constprop.0+0x578>
    60f4:	aa0303f3 	mov	x19, x3
    60f8:	8b24c343 	add	x3, x26, w4, sxtw
    60fc:	17ffffed 	b	60b0 <kprintf.constprop.0+0x578>
    6100:	37f800c4 	tbnz	w4, #31, 6118 <kprintf.constprop.0+0x5e0>
    6104:	91002c73 	add	x19, x3, #0xb
    6108:	2a0403f4 	mov	w20, w4
    610c:	927df273 	and	x19, x19, #0xfffffffffffffff8
    6110:	b9400062 	ldr	w2, [x3]
    6114:	17ffffca 	b	603c <kprintf.constprop.0+0x504>
    6118:	11002094 	add	w20, w4, #0x8
    611c:	7100029f 	cmp	w20, #0x0
    6120:	5400008d 	b.le	6130 <kprintf.constprop.0+0x5f8>
    6124:	91002c73 	add	x19, x3, #0xb
    6128:	927df273 	and	x19, x19, #0xfffffffffffffff8
    612c:	17fffff9 	b	6110 <kprintf.constprop.0+0x5d8>
    6130:	aa0303f3 	mov	x19, x3
    6134:	8b24c343 	add	x3, x26, w4, sxtw
    6138:	17fffff6 	b	6110 <kprintf.constprop.0+0x5d8>
/home/ssysarch/Desktop/nick/jetpack_5/Jetson_Linux_R35.4.1_aarch64/Linux_for_Tegra/sources/tegra/optee-src/nv-optee/optee/optee_os/lib/libutils/ext/snprintk.c:421
    613c:	b940a3e0 	ldr	w0, [sp, #160]
    6140:	34000c80 	cbz	w0, 62d0 <kprintf.constprop.0+0x798>
    6144:	39400360 	ldrb	w0, [x27]
    6148:	7101541f 	cmp	w0, #0x55
    614c:	54000c21 	b.ne	62d0 <kprintf.constprop.0+0x798>  // b.any
    6150:	39400760 	ldrb	w0, [x27, #1]
    6154:	7101b01f 	cmp	w0, #0x6c
    6158:	54000bc1 	b.ne	62d0 <kprintf.constprop.0+0x798>  // b.any
/home/ssysarch/Desktop/nick/jetpack_5/Jetson_Linux_R35.4.1_aarch64/Linux_for_Tegra/sources/tegra/optee-src/nv-optee/optee/optee_os/lib/libutils/ext/snprintk.c:426
    615c:	91000b7b 	add	x27, x27, #0x2
/home/ssysarch/Desktop/nick/jetpack_5/Jetson_Linux_R35.4.1_aarch64/Linux_for_Tegra/sources/tegra/optee-src/nv-optee/optee/optee_os/lib/libutils/ext/snprintk.c:427
    6160:	37f80a64 	tbnz	w4, #31, 62ac <kprintf.constprop.0+0x774>
    6164:	91003c73 	add	x19, x3, #0xf
    6168:	2a0403f4 	mov	w20, w4
    616c:	927df273 	and	x19, x19, #0xfffffffffffffff8
    6170:	f9400060 	ldr	x0, [x3]
uuid2str():
/home/ssysarch/Desktop/nick/jetpack_5/Jetson_Linux_R35.4.1_aarch64/Linux_for_Tegra/sources/tegra/optee-src/nv-optee/optee/optee_os/lib/libutils/ext/snprintk.c:229
    6174:	b0000002 	adrp	x2, 7000 <trace_ext_prefix+0x509>
    6178:	912f8c42 	add	x2, x2, #0xbe3
    617c:	f9004fec 	str	x12, [sp, #152]
    6180:	b900a7ea 	str	w10, [sp, #164]
    6184:	39403c01 	ldrb	w1, [x0, #15]
    6188:	39402006 	ldrb	w6, [x0, #8]
    618c:	79400c05 	ldrh	w5, [x0, #6]
    6190:	39402407 	ldrb	w7, [x0, #9]
    6194:	79400804 	ldrh	w4, [x0, #4]
    6198:	b9002be1 	str	w1, [sp, #40]
    619c:	f90057e8 	str	x8, [sp, #168]
    61a0:	39403801 	ldrb	w1, [x0, #14]
    61a4:	b90023e1 	str	w1, [sp, #32]
    61a8:	39403401 	ldrb	w1, [x0, #13]
    61ac:	b9001be1 	str	w1, [sp, #24]
    61b0:	39403001 	ldrb	w1, [x0, #12]
    61b4:	b90013e1 	str	w1, [sp, #16]
    61b8:	39402c01 	ldrb	w1, [x0, #11]
    61bc:	b9000be1 	str	w1, [sp, #8]
    61c0:	39402801 	ldrb	w1, [x0, #10]
    61c4:	b90003e1 	str	w1, [sp]
    61c8:	d28004a1 	mov	x1, #0x25                  	// #37
    61cc:	b9400003 	ldr	w3, [x0]
    61d0:	aa0c03e0 	mov	x0, x12
    61d4:	97fffe45 	bl	5ae8 <snprintk>
    61d8:	2a0003e5 	mov	w5, w0
kprintf():
/home/ssysarch/Desktop/nick/jetpack_5/Jetson_Linux_R35.4.1_aarch64/Linux_for_Tegra/sources/tegra/optee-src/nv-optee/optee/optee_os/lib/libutils/ext/snprintk.c:429
    61dc:	f9404fec 	ldr	x12, [sp, #152]
/home/ssysarch/Desktop/nick/jetpack_5/Jetson_Linux_R35.4.1_aarch64/Linux_for_Tegra/sources/tegra/optee-src/nv-optee/optee/optee_os/lib/libutils/ext/snprintk.c:291
    61e0:	52800006 	mov	w6, #0x0                   	// #0
/home/ssysarch/Desktop/nick/jetpack_5/Jetson_Linux_R35.4.1_aarch64/Linux_for_Tegra/sources/tegra/optee-src/nv-optee/optee/optee_os/lib/libutils/ext/snprintk.c:431
    61e4:	b940a7ea 	ldr	w10, [sp, #164]
/home/ssysarch/Desktop/nick/jetpack_5/Jetson_Linux_R35.4.1_aarch64/Linux_for_Tegra/sources/tegra/optee-src/nv-optee/optee/optee_os/lib/libutils/ext/snprintk.c:430
    61e8:	52800001 	mov	w1, #0x0                   	// #0
/home/ssysarch/Desktop/nick/jetpack_5/Jetson_Linux_R35.4.1_aarch64/Linux_for_Tegra/sources/tegra/optee-src/nv-optee/optee/optee_os/lib/libutils/ext/snprintk.c:431
    61ec:	f94057e8 	ldr	x8, [sp, #168]
/home/ssysarch/Desktop/nick/jetpack_5/Jetson_Linux_R35.4.1_aarch64/Linux_for_Tegra/sources/tegra/optee-src/nv-optee/optee/optee_os/lib/libutils/ext/snprintk.c:429
    61f0:	aa0c03e3 	mov	x3, x12
/home/ssysarch/Desktop/nick/jetpack_5/Jetson_Linux_R35.4.1_aarch64/Linux_for_Tegra/sources/tegra/optee-src/nv-optee/optee/optee_os/lib/libutils/ext/snprintk.c:571
    61f4:	6b0500df 	cmp	w6, w5
    61f8:	1a85a0c4 	csel	w4, w6, w5, ge  // ge = tcont
/home/ssysarch/Desktop/nick/jetpack_5/Jetson_Linux_R35.4.1_aarch64/Linux_for_Tegra/sources/tegra/optee-src/nv-optee/optee/optee_os/lib/libutils/ext/snprintk.c:572
    61fc:	340020c1 	cbz	w1, 6614 <kprintf.constprop.0+0xadc>
/home/ssysarch/Desktop/nick/jetpack_5/Jetson_Linux_R35.4.1_aarch64/Linux_for_Tegra/sources/tegra/optee-src/nv-optee/optee/optee_os/lib/libutils/ext/snprintk.c:573
    6200:	11000484 	add	w4, w4, #0x1
/home/ssysarch/Desktop/nick/jetpack_5/Jetson_Linux_R35.4.1_aarch64/Linux_for_Tegra/sources/tegra/optee-src/nv-optee/optee/optee_os/lib/libutils/ext/snprintk.c:578
    6204:	6b0a009f 	cmp	w4, w10
    6208:	1a8aa080 	csel	w0, w4, w10, ge  // ge = tcont
    620c:	0b000339 	add	w25, w25, w0
/home/ssysarch/Desktop/nick/jetpack_5/Jetson_Linux_R35.4.1_aarch64/Linux_for_Tegra/sources/tegra/optee-src/nv-optee/optee/optee_os/lib/libutils/ext/snprintk.c:581
    6210:	52808080 	mov	w0, #0x404                 	// #1028
    6214:	6a0002a0 	ands	w0, w21, w0
    6218:	540000a1 	b.ne	622c <kprintf.constprop.0+0x6f4>  // b.any
/home/ssysarch/Desktop/nick/jetpack_5/Jetson_Linux_R35.4.1_aarch64/Linux_for_Tegra/sources/tegra/optee-src/nv-optee/optee/optee_os/lib/libutils/ext/snprintk.c:582
    621c:	4b040147 	sub	w7, w10, w4
/home/ssysarch/Desktop/nick/jetpack_5/Jetson_Linux_R35.4.1_aarch64/Linux_for_Tegra/sources/tegra/optee-src/nv-optee/optee/optee_os/lib/libutils/ext/snprintk.c:584
    6220:	52800402 	mov	w2, #0x20                  	// #32
/home/ssysarch/Desktop/nick/jetpack_5/Jetson_Linux_R35.4.1_aarch64/Linux_for_Tegra/sources/tegra/optee-src/nv-optee/optee/optee_os/lib/libutils/ext/snprintk.c:583
    6224:	710000ff 	cmp	w7, #0x0
    6228:	54001fcc 	b.gt	6620 <kprintf.constprop.0+0xae8>
/home/ssysarch/Desktop/nick/jetpack_5/Jetson_Linux_R35.4.1_aarch64/Linux_for_Tegra/sources/tegra/optee-src/nv-optee/optee/optee_os/lib/libutils/ext/snprintk.c:588
    622c:	34002081 	cbz	w1, 663c <kprintf.constprop.0+0xb04>
/home/ssysarch/Desktop/nick/jetpack_5/Jetson_Linux_R35.4.1_aarch64/Linux_for_Tegra/sources/tegra/optee-src/nv-optee/optee/optee_os/lib/libutils/ext/snprintk.c:589
    6230:	b40000b6 	cbz	x22, 6244 <kprintf.constprop.0+0x70c>
    6234:	f100011f 	cmp	x8, #0x0
    6238:	fa561302 	ccmp	x24, x22, #0x2, ne  // ne = any
    623c:	54000049 	b.ls	6244 <kprintf.constprop.0+0x70c>  // b.plast
    6240:	380016c1 	strb	w1, [x22], #1
/home/ssysarch/Desktop/nick/jetpack_5/Jetson_Linux_R35.4.1_aarch64/Linux_for_Tegra/sources/tegra/optee-src/nv-optee/optee/optee_os/lib/libutils/ext/snprintk.c:596
    6244:	7110001f 	cmp	w0, #0x400
    6248:	540000a1 	b.ne	625c <kprintf.constprop.0+0x724>  // b.any
/home/ssysarch/Desktop/nick/jetpack_5/Jetson_Linux_R35.4.1_aarch64/Linux_for_Tegra/sources/tegra/optee-src/nv-optee/optee/optee_os/lib/libutils/ext/snprintk.c:597
    624c:	4b040140 	sub	w0, w10, w4
/home/ssysarch/Desktop/nick/jetpack_5/Jetson_Linux_R35.4.1_aarch64/Linux_for_Tegra/sources/tegra/optee-src/nv-optee/optee/optee_os/lib/libutils/ext/snprintk.c:599
    6250:	52800601 	mov	w1, #0x30                  	// #48
/home/ssysarch/Desktop/nick/jetpack_5/Jetson_Linux_R35.4.1_aarch64/Linux_for_Tegra/sources/tegra/optee-src/nv-optee/optee/optee_os/lib/libutils/ext/snprintk.c:598
    6254:	7100001f 	cmp	w0, #0x0
    6258:	5400216c 	b.gt	6684 <kprintf.constprop.0+0xb4c>
/home/ssysarch/Desktop/nick/jetpack_5/Jetson_Linux_R35.4.1_aarch64/Linux_for_Tegra/sources/tegra/optee-src/nv-optee/optee/optee_os/lib/libutils/ext/snprintk.c:603
    625c:	4b0500c6 	sub	w6, w6, w5
/home/ssysarch/Desktop/nick/jetpack_5/Jetson_Linux_R35.4.1_aarch64/Linux_for_Tegra/sources/tegra/optee-src/nv-optee/optee/optee_os/lib/libutils/ext/snprintk.c:605
    6260:	52800600 	mov	w0, #0x30                  	// #48
/home/ssysarch/Desktop/nick/jetpack_5/Jetson_Linux_R35.4.1_aarch64/Linux_for_Tegra/sources/tegra/optee-src/nv-optee/optee/optee_os/lib/libutils/ext/snprintk.c:604
    6264:	710000df 	cmp	w6, #0x0
    6268:	540021cc 	b.gt	66a0 <kprintf.constprop.0+0xb68>
    626c:	2a0503e5 	mov	w5, w5
    6270:	d2800001 	mov	x1, #0x0                   	// #0
/home/ssysarch/Desktop/nick/jetpack_5/Jetson_Linux_R35.4.1_aarch64/Linux_for_Tegra/sources/tegra/optee-src/nv-optee/optee/optee_os/lib/libutils/ext/snprintk.c:608
    6274:	eb05003f 	cmp	x1, x5
    6278:	54002221 	b.ne	66bc <kprintf.constprop.0+0xb84>  // b.any
/home/ssysarch/Desktop/nick/jetpack_5/Jetson_Linux_R35.4.1_aarch64/Linux_for_Tegra/sources/tegra/optee-src/nv-optee/optee/optee_os/lib/libutils/ext/snprintk.c:611
    627c:	3617c8d5 	tbz	w21, #2, 5b94 <kprintf.constprop.0+0x5c>
/home/ssysarch/Desktop/nick/jetpack_5/Jetson_Linux_R35.4.1_aarch64/Linux_for_Tegra/sources/tegra/optee-src/nv-optee/optee/optee_os/lib/libutils/ext/snprintk.c:612
    6280:	4b04014a 	sub	w10, w10, w4
/home/ssysarch/Desktop/nick/jetpack_5/Jetson_Linux_R35.4.1_aarch64/Linux_for_Tegra/sources/tegra/optee-src/nv-optee/optee/optee_os/lib/libutils/ext/snprintk.c:614
    6284:	52800400 	mov	w0, #0x20                  	// #32
/home/ssysarch/Desktop/nick/jetpack_5/Jetson_Linux_R35.4.1_aarch64/Linux_for_Tegra/sources/tegra/optee-src/nv-optee/optee/optee_os/lib/libutils/ext/snprintk.c:613
    6288:	7100015f 	cmp	w10, #0x0
    628c:	54ffc84d 	b.le	5b94 <kprintf.constprop.0+0x5c>
/home/ssysarch/Desktop/nick/jetpack_5/Jetson_Linux_R35.4.1_aarch64/Linux_for_Tegra/sources/tegra/optee-src/nv-optee/optee/optee_os/lib/libutils/ext/snprintk.c:614
    6290:	b40000b6 	cbz	x22, 62a4 <kprintf.constprop.0+0x76c>
    6294:	f100011f 	cmp	x8, #0x0
    6298:	fa561302 	ccmp	x24, x22, #0x2, ne  // ne = any
    629c:	54000049 	b.ls	62a4 <kprintf.constprop.0+0x76c>  // b.plast
    62a0:	380016c0 	strb	w0, [x22], #1
    62a4:	5100054a 	sub	w10, w10, #0x1
    62a8:	17fffff8 	b	6288 <kprintf.constprop.0+0x750>
/home/ssysarch/Desktop/nick/jetpack_5/Jetson_Linux_R35.4.1_aarch64/Linux_for_Tegra/sources/tegra/optee-src/nv-optee/optee/optee_os/lib/libutils/ext/snprintk.c:427
    62ac:	11002094 	add	w20, w4, #0x8
    62b0:	7100029f 	cmp	w20, #0x0
    62b4:	5400008d 	b.le	62c4 <kprintf.constprop.0+0x78c>
    62b8:	91003c73 	add	x19, x3, #0xf
    62bc:	927df273 	and	x19, x19, #0xfffffffffffffff8
    62c0:	17ffffac 	b	6170 <kprintf.constprop.0+0x638>
    62c4:	aa0303f3 	mov	x19, x3
    62c8:	8b24c343 	add	x3, x26, w4, sxtw
    62cc:	17ffffa9 	b	6170 <kprintf.constprop.0+0x638>
/home/ssysarch/Desktop/nick/jetpack_5/Jetson_Linux_R35.4.1_aarch64/Linux_for_Tegra/sources/tegra/optee-src/nv-optee/optee/optee_os/lib/libutils/ext/snprintk.c:441
    62d0:	37f801c4 	tbnz	w4, #31, 6308 <kprintf.constprop.0+0x7d0>
    62d4:	91003c73 	add	x19, x3, #0xf
    62d8:	2a0403f4 	mov	w20, w4
    62dc:	927df273 	and	x19, x19, #0xfffffffffffffff8
    62e0:	f9400062 	ldr	x2, [x3]
/home/ssysarch/Desktop/nick/jetpack_5/Jetson_Linux_R35.4.1_aarch64/Linux_for_Tegra/sources/tegra/optee-src/nv-optee/optee/optee_os/lib/libutils/ext/snprintk.c:443
    62e4:	b0000017 	adrp	x23, 7000 <trace_ext_prefix+0x509>
    62e8:	913096f7 	add	x23, x23, #0xc25
/home/ssysarch/Desktop/nick/jetpack_5/Jetson_Linux_R35.4.1_aarch64/Linux_for_Tegra/sources/tegra/optee-src/nv-optee/optee/optee_os/lib/libutils/ext/snprintk.c:444
    62ec:	321f02b5 	orr	w21, w21, #0x2
/home/ssysarch/Desktop/nick/jetpack_5/Jetson_Linux_R35.4.1_aarch64/Linux_for_Tegra/sources/tegra/optee-src/nv-optee/optee/optee_os/lib/libutils/ext/snprintk.c:445
    62f0:	52800f1c 	mov	w28, #0x78                  	// #120
/home/ssysarch/Desktop/nick/jetpack_5/Jetson_Linux_R35.4.1_aarch64/Linux_for_Tegra/sources/tegra/optee-src/nv-optee/optee/optee_os/lib/libutils/ext/snprintk.c:494
    62f4:	310004bf 	cmn	w5, #0x1
    62f8:	52800001 	mov	w1, #0x0                   	// #0
    62fc:	54ffdbe0 	b.eq	5e78 <kprintf.constprop.0+0x340>  // b.none
    6300:	52800040 	mov	w0, #0x2                   	// #2
    6304:	140000a8 	b	65a4 <kprintf.constprop.0+0xa6c>
/home/ssysarch/Desktop/nick/jetpack_5/Jetson_Linux_R35.4.1_aarch64/Linux_for_Tegra/sources/tegra/optee-src/nv-optee/optee/optee_os/lib/libutils/ext/snprintk.c:441
    6308:	11002094 	add	w20, w4, #0x8
    630c:	7100029f 	cmp	w20, #0x0
    6310:	5400008d 	b.le	6320 <kprintf.constprop.0+0x7e8>
    6314:	91003c73 	add	x19, x3, #0xf
    6318:	927df273 	and	x19, x19, #0xfffffffffffffff8
    631c:	17fffff1 	b	62e0 <kprintf.constprop.0+0x7a8>
    6320:	aa0303f3 	mov	x19, x3
    6324:	8b24c343 	add	x3, x26, w4, sxtw
    6328:	17ffffee 	b	62e0 <kprintf.constprop.0+0x7a8>
/home/ssysarch/Desktop/nick/jetpack_5/Jetson_Linux_R35.4.1_aarch64/Linux_for_Tegra/sources/tegra/optee-src/nv-optee/optee/optee_os/lib/libutils/ext/snprintk.c:448
    632c:	37f80364 	tbnz	w4, #31, 6398 <kprintf.constprop.0+0x860>
    6330:	91003c73 	add	x19, x3, #0xf
    6334:	2a0403f4 	mov	w20, w4
    6338:	927df273 	and	x19, x19, #0xfffffffffffffff8
    633c:	f9400063 	ldr	x3, [x3]
    6340:	b5000063 	cbnz	x3, 634c <kprintf.constprop.0+0x814>
/home/ssysarch/Desktop/nick/jetpack_5/Jetson_Linux_R35.4.1_aarch64/Linux_for_Tegra/sources/tegra/optee-src/nv-optee/optee/optee_os/lib/libutils/ext/snprintk.c:450
    6344:	b0000003 	adrp	x3, 7000 <trace_ext_prefix+0x509>
    6348:	912f7063 	add	x3, x3, #0xbdc
/home/ssysarch/Desktop/nick/jetpack_5/Jetson_Linux_R35.4.1_aarch64/Linux_for_Tegra/sources/tegra/optee-src/nv-optee/optee/optee_os/lib/libutils/ext/snprintk.c:451
    634c:	310004bf 	cmn	w5, #0x1
    6350:	54000360 	b.eq	63bc <kprintf.constprop.0+0x884>  // b.none
/home/ssysarch/Desktop/nick/jetpack_5/Jetson_Linux_R35.4.1_aarch64/Linux_for_Tegra/sources/tegra/optee-src/nv-optee/optee/optee_os/lib/libutils/ext/snprintk.c:457
    6354:	93407ca2 	sxtw	x2, w5
    6358:	aa0303e0 	mov	x0, x3
    635c:	52800001 	mov	w1, #0x0                   	// #0
    6360:	f9004fe3 	str	x3, [sp, #152]
    6364:	2914abe5 	stp	w5, w10, [sp, #164]
    6368:	a90b33e8 	stp	x8, x12, [sp, #176]
    636c:	9400016b 	bl	6918 <memchr>
/home/ssysarch/Desktop/nick/jetpack_5/Jetson_Linux_R35.4.1_aarch64/Linux_for_Tegra/sources/tegra/optee-src/nv-optee/optee/optee_os/lib/libutils/ext/snprintk.c:459
    6370:	2954abe5 	ldp	w5, w10, [sp, #164]
    6374:	f9404fe3 	ldr	x3, [sp, #152]
    6378:	a94b33e8 	ldp	x8, x12, [sp, #176]
    637c:	b4000080 	cbz	x0, 638c <kprintf.constprop.0+0x854>
/home/ssysarch/Desktop/nick/jetpack_5/Jetson_Linux_R35.4.1_aarch64/Linux_for_Tegra/sources/tegra/optee-src/nv-optee/optee/optee_os/lib/libutils/ext/snprintk.c:460
    6380:	cb030000 	sub	x0, x0, x3
    6384:	6b0000bf 	cmp	w5, w0
    6388:	1a80d0a5 	csel	w5, w5, w0, le
/home/ssysarch/Desktop/nick/jetpack_5/Jetson_Linux_R35.4.1_aarch64/Linux_for_Tegra/sources/tegra/optee-src/nv-optee/optee/optee_os/lib/libutils/ext/snprintk.c:291
    638c:	52800006 	mov	w6, #0x0                   	// #0
/home/ssysarch/Desktop/nick/jetpack_5/Jetson_Linux_R35.4.1_aarch64/Linux_for_Tegra/sources/tegra/optee-src/nv-optee/optee/optee_os/lib/libutils/ext/snprintk.c:467
    6390:	52800001 	mov	w1, #0x0                   	// #0
    6394:	17ffff98 	b	61f4 <kprintf.constprop.0+0x6bc>
/home/ssysarch/Desktop/nick/jetpack_5/Jetson_Linux_R35.4.1_aarch64/Linux_for_Tegra/sources/tegra/optee-src/nv-optee/optee/optee_os/lib/libutils/ext/snprintk.c:448
    6398:	11002094 	add	w20, w4, #0x8
    639c:	7100029f 	cmp	w20, #0x0
    63a0:	5400008d 	b.le	63b0 <kprintf.constprop.0+0x878>
    63a4:	91003c73 	add	x19, x3, #0xf
    63a8:	927df273 	and	x19, x19, #0xfffffffffffffff8
    63ac:	17ffffe4 	b	633c <kprintf.constprop.0+0x804>
    63b0:	aa0303f3 	mov	x19, x3
    63b4:	8b24c343 	add	x3, x26, w4, sxtw
    63b8:	17ffffe1 	b	633c <kprintf.constprop.0+0x804>
/home/ssysarch/Desktop/nick/jetpack_5/Jetson_Linux_R35.4.1_aarch64/Linux_for_Tegra/sources/tegra/optee-src/nv-optee/optee/optee_os/lib/libutils/ext/snprintk.c:466
    63bc:	aa0303e0 	mov	x0, x3
    63c0:	f9004fe3 	str	x3, [sp, #152]
    63c4:	b900a7ea 	str	w10, [sp, #164]
    63c8:	a90ab3e8 	stp	x8, x12, [sp, #168]
    63cc:	9400015e 	bl	6944 <strlen>
    63d0:	b940a7ea 	ldr	w10, [sp, #164]
    63d4:	2a0003e5 	mov	w5, w0
/home/ssysarch/Desktop/nick/jetpack_5/Jetson_Linux_R35.4.1_aarch64/Linux_for_Tegra/sources/tegra/optee-src/nv-optee/optee/optee_os/lib/libutils/ext/snprintk.c:291
    63d8:	52800006 	mov	w6, #0x0                   	// #0
/home/ssysarch/Desktop/nick/jetpack_5/Jetson_Linux_R35.4.1_aarch64/Linux_for_Tegra/sources/tegra/optee-src/nv-optee/optee/optee_os/lib/libutils/ext/snprintk.c:467
    63dc:	52800001 	mov	w1, #0x0                   	// #0
    63e0:	f9404fe3 	ldr	x3, [sp, #152]
    63e4:	a94ab3e8 	ldp	x8, x12, [sp, #168]
    63e8:	17ffff83 	b	61f4 <kprintf.constprop.0+0x6bc>
/home/ssysarch/Desktop/nick/jetpack_5/Jetson_Linux_R35.4.1_aarch64/Linux_for_Tegra/sources/tegra/optee-src/nv-optee/optee/optee_os/lib/libutils/ext/snprintk.c:470
    63ec:	321c02b5 	orr	w21, w21, #0x10
/home/ssysarch/Desktop/nick/jetpack_5/Jetson_Linux_R35.4.1_aarch64/Linux_for_Tegra/sources/tegra/optee-src/nv-optee/optee/optee_os/lib/libutils/ext/snprintk.c:473
    63f0:	36380235 	tbz	w21, #7, 6434 <kprintf.constprop.0+0x8fc>
    63f4:	37f80364 	tbnz	w4, #31, 6460 <kprintf.constprop.0+0x928>
    63f8:	91003c73 	add	x19, x3, #0xf
    63fc:	2a0403f4 	mov	w20, w4
    6400:	927df273 	and	x19, x19, #0xfffffffffffffff8
    6404:	f9400062 	ldr	x2, [x3]
/home/ssysarch/Desktop/nick/jetpack_5/Jetson_Linux_R35.4.1_aarch64/Linux_for_Tegra/sources/tegra/optee-src/nv-optee/optee/optee_os/lib/libutils/ext/snprintk.c:488
    6408:	52800001 	mov	w1, #0x0                   	// #0
/home/ssysarch/Desktop/nick/jetpack_5/Jetson_Linux_R35.4.1_aarch64/Linux_for_Tegra/sources/tegra/optee-src/nv-optee/optee/optee_os/lib/libutils/ext/snprintk.c:494
    640c:	310004bf 	cmn	w5, #0x1
    6410:	54000d81 	b.ne	65c0 <kprintf.constprop.0+0xa88>  // b.any
/home/ssysarch/Desktop/nick/jetpack_5/Jetson_Linux_R35.4.1_aarch64/Linux_for_Tegra/sources/tegra/optee-src/nv-optee/optee/optee_os/lib/libutils/ext/snprintk.c:502
    6414:	91009580 	add	x0, x12, #0x25
/home/ssysarch/Desktop/nick/jetpack_5/Jetson_Linux_R35.4.1_aarch64/Linux_for_Tegra/sources/tegra/optee-src/nv-optee/optee/optee_os/lib/libutils/ext/snprintk.c:523
    6418:	d2800144 	mov	x4, #0xa                   	// #10
/home/ssysarch/Desktop/nick/jetpack_5/Jetson_Linux_R35.4.1_aarch64/Linux_for_Tegra/sources/tegra/optee-src/nv-optee/optee/optee_os/lib/libutils/ext/snprintk.c:522
    641c:	d1000403 	sub	x3, x0, #0x1
    6420:	f100245f 	cmp	x2, #0x9
    6424:	54000d28 	b.hi	65c8 <kprintf.constprop.0+0xa90>  // b.pmore
/home/ssysarch/Desktop/nick/jetpack_5/Jetson_Linux_R35.4.1_aarch64/Linux_for_Tegra/sources/tegra/optee-src/nv-optee/optee/optee_os/lib/libutils/ext/snprintk.c:526
    6428:	1100c042 	add	w2, w2, #0x30
    642c:	381ff002 	sturb	w2, [x0, #-1]
/home/ssysarch/Desktop/nick/jetpack_5/Jetson_Linux_R35.4.1_aarch64/Linux_for_Tegra/sources/tegra/optee-src/nv-optee/optee/optee_os/lib/libutils/ext/snprintk.c:527
    6430:	17ffff13 	b	607c <kprintf.constprop.0+0x544>
/home/ssysarch/Desktop/nick/jetpack_5/Jetson_Linux_R35.4.1_aarch64/Linux_for_Tegra/sources/tegra/optee-src/nv-optee/optee/optee_os/lib/libutils/ext/snprintk.c:473
    6434:	3747fe15 	tbnz	w21, #8, 63f4 <kprintf.constprop.0+0x8bc>
    6438:	374ffdf5 	tbnz	w21, #9, 63f4 <kprintf.constprop.0+0x8bc>
    643c:	372ffdd5 	tbnz	w21, #5, 63f4 <kprintf.constprop.0+0x8bc>
    6440:	3727fdb5 	tbnz	w21, #4, 63f4 <kprintf.constprop.0+0x8bc>
    6444:	36300335 	tbz	w21, #6, 64a8 <kprintf.constprop.0+0x970>
    6448:	37f801e4 	tbnz	w4, #31, 6484 <kprintf.constprop.0+0x94c>
    644c:	91002c73 	add	x19, x3, #0xb
    6450:	2a0403f4 	mov	w20, w4
    6454:	927df273 	and	x19, x19, #0xfffffffffffffff8
    6458:	79400062 	ldrh	w2, [x3]
    645c:	17ffffeb 	b	6408 <kprintf.constprop.0+0x8d0>
    6460:	11002094 	add	w20, w4, #0x8
    6464:	7100029f 	cmp	w20, #0x0
    6468:	5400008d 	b.le	6478 <kprintf.constprop.0+0x940>
    646c:	91003c73 	add	x19, x3, #0xf
    6470:	927df273 	and	x19, x19, #0xfffffffffffffff8
    6474:	17ffffe4 	b	6404 <kprintf.constprop.0+0x8cc>
    6478:	aa0303f3 	mov	x19, x3
    647c:	8b24c343 	add	x3, x26, w4, sxtw
    6480:	17ffffe1 	b	6404 <kprintf.constprop.0+0x8cc>
    6484:	11002094 	add	w20, w4, #0x8
    6488:	7100029f 	cmp	w20, #0x0
    648c:	5400008d 	b.le	649c <kprintf.constprop.0+0x964>
    6490:	91002c73 	add	x19, x3, #0xb
    6494:	927df273 	and	x19, x19, #0xfffffffffffffff8
    6498:	17fffff0 	b	6458 <kprintf.constprop.0+0x920>
    649c:	aa0303f3 	mov	x19, x3
    64a0:	8b24c343 	add	x3, x26, w4, sxtw
    64a4:	17ffffed 	b	6458 <kprintf.constprop.0+0x920>
    64a8:	37f800c4 	tbnz	w4, #31, 64c0 <kprintf.constprop.0+0x988>
    64ac:	91002c73 	add	x19, x3, #0xb
    64b0:	2a0403f4 	mov	w20, w4
    64b4:	927df273 	and	x19, x19, #0xfffffffffffffff8
    64b8:	b9400062 	ldr	w2, [x3]
    64bc:	17ffffd3 	b	6408 <kprintf.constprop.0+0x8d0>
    64c0:	11002094 	add	w20, w4, #0x8
    64c4:	7100029f 	cmp	w20, #0x0
    64c8:	5400008d 	b.le	64d8 <kprintf.constprop.0+0x9a0>
    64cc:	91002c73 	add	x19, x3, #0xb
    64d0:	927df273 	and	x19, x19, #0xfffffffffffffff8
    64d4:	17fffff9 	b	64b8 <kprintf.constprop.0+0x980>
    64d8:	aa0303f3 	mov	x19, x3
    64dc:	8b24c343 	add	x3, x26, w4, sxtw
    64e0:	17fffff6 	b	64b8 <kprintf.constprop.0+0x980>
/home/ssysarch/Desktop/nick/jetpack_5/Jetson_Linux_R35.4.1_aarch64/Linux_for_Tegra/sources/tegra/optee-src/nv-optee/optee/optee_os/lib/libutils/ext/snprintk.c:477
    64e4:	b0000017 	adrp	x23, 7000 <trace_ext_prefix+0x509>
    64e8:	913052f7 	add	x23, x23, #0xc14
    64ec:	17fffdda 	b	5c54 <kprintf.constprop.0+0x11c>
/home/ssysarch/Desktop/nick/jetpack_5/Jetson_Linux_R35.4.1_aarch64/Linux_for_Tegra/sources/tegra/optee-src/nv-optee/optee/optee_os/lib/libutils/ext/snprintk.c:481
    64f0:	3747bb55 	tbnz	w21, #8, 5c58 <kprintf.constprop.0+0x120>
    64f4:	374fbb35 	tbnz	w21, #9, 5c58 <kprintf.constprop.0+0x120>
    64f8:	372fbb15 	tbnz	w21, #5, 5c58 <kprintf.constprop.0+0x120>
    64fc:	3727baf5 	tbnz	w21, #4, 5c58 <kprintf.constprop.0+0x120>
    6500:	36300335 	tbz	w21, #6, 6564 <kprintf.constprop.0+0xa2c>
    6504:	37f801e4 	tbnz	w4, #31, 6540 <kprintf.constprop.0+0xa08>
    6508:	91002c73 	add	x19, x3, #0xb
    650c:	2a0403f4 	mov	w20, w4
    6510:	927df273 	and	x19, x19, #0xfffffffffffffff8
    6514:	79400062 	ldrh	w2, [x3]
    6518:	17fffdd5 	b	5c6c <kprintf.constprop.0+0x134>
    651c:	11002094 	add	w20, w4, #0x8
    6520:	7100029f 	cmp	w20, #0x0
    6524:	5400008d 	b.le	6534 <kprintf.constprop.0+0x9fc>
    6528:	91003c73 	add	x19, x3, #0xf
    652c:	927df273 	and	x19, x19, #0xfffffffffffffff8
    6530:	17fffdce 	b	5c68 <kprintf.constprop.0+0x130>
    6534:	aa0303f3 	mov	x19, x3
    6538:	8b24c343 	add	x3, x26, w4, sxtw
    653c:	17fffdcb 	b	5c68 <kprintf.constprop.0+0x130>
    6540:	11002094 	add	w20, w4, #0x8
    6544:	7100029f 	cmp	w20, #0x0
    6548:	5400008d 	b.le	6558 <kprintf.constprop.0+0xa20>
    654c:	91002c73 	add	x19, x3, #0xb
    6550:	927df273 	and	x19, x19, #0xfffffffffffffff8
    6554:	17fffff0 	b	6514 <kprintf.constprop.0+0x9dc>
    6558:	aa0303f3 	mov	x19, x3
    655c:	8b24c343 	add	x3, x26, w4, sxtw
    6560:	17ffffed 	b	6514 <kprintf.constprop.0+0x9dc>
    6564:	37f800c4 	tbnz	w4, #31, 657c <kprintf.constprop.0+0xa44>
    6568:	91002c73 	add	x19, x3, #0xb
    656c:	2a0403f4 	mov	w20, w4
    6570:	927df273 	and	x19, x19, #0xfffffffffffffff8
    6574:	b9400062 	ldr	w2, [x3]
    6578:	17fffdbd 	b	5c6c <kprintf.constprop.0+0x134>
    657c:	11002094 	add	w20, w4, #0x8
    6580:	7100029f 	cmp	w20, #0x0
    6584:	5400008d 	b.le	6594 <kprintf.constprop.0+0xa5c>
    6588:	91002c73 	add	x19, x3, #0xb
    658c:	927df273 	and	x19, x19, #0xfffffffffffffff8
    6590:	17fffff9 	b	6574 <kprintf.constprop.0+0xa3c>
    6594:	aa0303f3 	mov	x19, x3
    6598:	8b24c343 	add	x3, x26, w4, sxtw
    659c:	17fffff6 	b	6574 <kprintf.constprop.0+0xa3c>
/home/ssysarch/Desktop/nick/jetpack_5/Jetson_Linux_R35.4.1_aarch64/Linux_for_Tegra/sources/tegra/optee-src/nv-optee/optee/optee_os/lib/libutils/ext/snprintk.c:494
    65a0:	52800000 	mov	w0, #0x0                   	// #0
/home/ssysarch/Desktop/nick/jetpack_5/Jetson_Linux_R35.4.1_aarch64/Linux_for_Tegra/sources/tegra/optee-src/nv-optee/optee/optee_os/lib/libutils/ext/snprintk.c:503
    65a4:	f100005f 	cmp	x2, #0x0
/home/ssysarch/Desktop/nick/jetpack_5/Jetson_Linux_R35.4.1_aarch64/Linux_for_Tegra/sources/tegra/optee-src/nv-optee/optee/optee_os/lib/libutils/ext/snprintk.c:495
    65a8:	12157ab5 	and	w21, w21, #0xfffffbff
/home/ssysarch/Desktop/nick/jetpack_5/Jetson_Linux_R35.4.1_aarch64/Linux_for_Tegra/sources/tegra/optee-src/nv-optee/optee/optee_os/lib/libutils/ext/snprintk.c:503
    65ac:	7a4008a0 	ccmp	w5, #0x0, #0x0, eq  // eq = none
    65b0:	54ffc5c1 	b.ne	5e68 <kprintf.constprop.0+0x330>  // b.any
/home/ssysarch/Desktop/nick/jetpack_5/Jetson_Linux_R35.4.1_aarch64/Linux_for_Tegra/sources/tegra/optee-src/nv-optee/optee/optee_os/lib/libutils/ext/snprintk.c:502
    65b4:	91009583 	add	x3, x12, #0x25
/home/ssysarch/Desktop/nick/jetpack_5/Jetson_Linux_R35.4.1_aarch64/Linux_for_Tegra/sources/tegra/optee-src/nv-optee/optee/optee_os/lib/libutils/ext/snprintk.c:542
    65b8:	52800005 	mov	w5, #0x0                   	// #0
    65bc:	17fffeb0 	b	607c <kprintf.constprop.0+0x544>
/home/ssysarch/Desktop/nick/jetpack_5/Jetson_Linux_R35.4.1_aarch64/Linux_for_Tegra/sources/tegra/optee-src/nv-optee/optee/optee_os/lib/libutils/ext/snprintk.c:494
    65c0:	52800020 	mov	w0, #0x1                   	// #1
    65c4:	17fffff8 	b	65a4 <kprintf.constprop.0+0xa6c>
/home/ssysarch/Desktop/nick/jetpack_5/Jetson_Linux_R35.4.1_aarch64/Linux_for_Tegra/sources/tegra/optee-src/nv-optee/optee/optee_os/lib/libutils/ext/snprintk.c:523
    65c8:	9ac40846 	udiv	x6, x2, x4
    65cc:	9b0488c2 	msub	x2, x6, x4, x2
    65d0:	1100c042 	add	w2, w2, #0x30
    65d4:	381ff002 	sturb	w2, [x0, #-1]
/home/ssysarch/Desktop/nick/jetpack_5/Jetson_Linux_R35.4.1_aarch64/Linux_for_Tegra/sources/tegra/optee-src/nv-optee/optee/optee_os/lib/libutils/ext/snprintk.c:524
    65d8:	aa0603e2 	mov	x2, x6
    65dc:	aa0303e0 	mov	x0, x3
    65e0:	17ffff8f 	b	641c <kprintf.constprop.0+0x8e4>
/home/ssysarch/Desktop/nick/jetpack_5/Jetson_Linux_R35.4.1_aarch64/Linux_for_Tegra/sources/tegra/optee-src/nv-optee/optee/optee_os/lib/libutils/ext/snprintk.c:547
    65e4:	35ffb57c 	cbnz	w28, 5c90 <kprintf.constprop.0+0x158>
/home/ssysarch/Desktop/nick/jetpack_5/Jetson_Linux_R35.4.1_aarch64/Linux_for_Tegra/sources/tegra/optee-src/nv-optee/optee/optee_os/lib/libutils/ext/snprintk.c:619
    65e8:	b4000048 	cbz	x8, 65f0 <kprintf.constprop.0+0xab8>
/home/ssysarch/Desktop/nick/jetpack_5/Jetson_Linux_R35.4.1_aarch64/Linux_for_Tegra/sources/tegra/optee-src/nv-optee/optee/optee_os/lib/libutils/ext/snprintk.c:620
    65ec:	f9000116 	str	x22, [x8]
/home/ssysarch/Desktop/nick/jetpack_5/Jetson_Linux_R35.4.1_aarch64/Linux_for_Tegra/sources/tegra/optee-src/nv-optee/optee/optee_os/lib/libutils/ext/snprintk.c:622
    65f0:	2a1903e0 	mov	w0, w25
    65f4:	a9437bfd 	ldp	x29, x30, [sp, #48]
    65f8:	a94453f3 	ldp	x19, x20, [sp, #64]
    65fc:	a9455bf5 	ldp	x21, x22, [sp, #80]
    6600:	a94663f7 	ldp	x23, x24, [sp, #96]
    6604:	a9476bf9 	ldp	x25, x26, [sp, #112]
    6608:	a94873fb 	ldp	x27, x28, [sp, #128]
    660c:	9103c3ff 	add	sp, sp, #0xf0
    6610:	d65f03c0 	ret
/home/ssysarch/Desktop/nick/jetpack_5/Jetson_Linux_R35.4.1_aarch64/Linux_for_Tegra/sources/tegra/optee-src/nv-optee/optee/optee_os/lib/libutils/ext/snprintk.c:574
    6614:	360fdf95 	tbz	w21, #1, 6204 <kprintf.constprop.0+0x6cc>
/home/ssysarch/Desktop/nick/jetpack_5/Jetson_Linux_R35.4.1_aarch64/Linux_for_Tegra/sources/tegra/optee-src/nv-optee/optee/optee_os/lib/libutils/ext/snprintk.c:575
    6618:	11000884 	add	w4, w4, #0x2
    661c:	17fffefa 	b	6204 <kprintf.constprop.0+0x6cc>
/home/ssysarch/Desktop/nick/jetpack_5/Jetson_Linux_R35.4.1_aarch64/Linux_for_Tegra/sources/tegra/optee-src/nv-optee/optee/optee_os/lib/libutils/ext/snprintk.c:584
    6620:	b40000b6 	cbz	x22, 6634 <kprintf.constprop.0+0xafc>
    6624:	f100011f 	cmp	x8, #0x0
    6628:	fa561302 	ccmp	x24, x22, #0x2, ne  // ne = any
    662c:	54000049 	b.ls	6634 <kprintf.constprop.0+0xafc>  // b.plast
    6630:	380016c2 	strb	w2, [x22], #1
    6634:	510004e7 	sub	w7, w7, #0x1
    6638:	17fffefb 	b	6224 <kprintf.constprop.0+0x6ec>
/home/ssysarch/Desktop/nick/jetpack_5/Jetson_Linux_R35.4.1_aarch64/Linux_for_Tegra/sources/tegra/optee-src/nv-optee/optee/optee_os/lib/libutils/ext/snprintk.c:590
    663c:	360fe055 	tbz	w21, #1, 6244 <kprintf.constprop.0+0x70c>
/home/ssysarch/Desktop/nick/jetpack_5/Jetson_Linux_R35.4.1_aarch64/Linux_for_Tegra/sources/tegra/optee-src/nv-optee/optee/optee_os/lib/libutils/ext/snprintk.c:591
    6640:	b4ffe036 	cbz	x22, 6244 <kprintf.constprop.0+0x70c>
    6644:	f100011f 	cmp	x8, #0x0
    6648:	1a9f17e2 	cset	w2, eq  // eq = none
    664c:	7100005f 	cmp	w2, #0x0
    6650:	fa560302 	ccmp	x24, x22, #0x2, eq  // eq = none
    6654:	54ffdf89 	b.ls	6244 <kprintf.constprop.0+0x70c>  // b.plast
    6658:	aa1603e1 	mov	x1, x22
    665c:	52800607 	mov	w7, #0x30                  	// #48
/home/ssysarch/Desktop/nick/jetpack_5/Jetson_Linux_R35.4.1_aarch64/Linux_for_Tegra/sources/tegra/optee-src/nv-optee/optee/optee_os/lib/libutils/ext/snprintk.c:592
    6660:	7100005f 	cmp	w2, #0x0
/home/ssysarch/Desktop/nick/jetpack_5/Jetson_Linux_R35.4.1_aarch64/Linux_for_Tegra/sources/tegra/optee-src/nv-optee/optee/optee_os/lib/libutils/ext/snprintk.c:591
    6664:	38001427 	strb	w7, [x1], #1
/home/ssysarch/Desktop/nick/jetpack_5/Jetson_Linux_R35.4.1_aarch64/Linux_for_Tegra/sources/tegra/optee-src/nv-optee/optee/optee_os/lib/libutils/ext/snprintk.c:592
    6668:	fa410302 	ccmp	x24, x1, #0x2, eq  // eq = none
    666c:	54000089 	b.ls	667c <kprintf.constprop.0+0xb44>  // b.plast
    6670:	91000ad6 	add	x22, x22, #0x2
    6674:	381ff2dc 	sturb	w28, [x22, #-1]
    6678:	17fffef3 	b	6244 <kprintf.constprop.0+0x70c>
    667c:	aa0103f6 	mov	x22, x1
    6680:	17fffef1 	b	6244 <kprintf.constprop.0+0x70c>
/home/ssysarch/Desktop/nick/jetpack_5/Jetson_Linux_R35.4.1_aarch64/Linux_for_Tegra/sources/tegra/optee-src/nv-optee/optee/optee_os/lib/libutils/ext/snprintk.c:599
    6684:	b40000b6 	cbz	x22, 6698 <kprintf.constprop.0+0xb60>
    6688:	f100011f 	cmp	x8, #0x0
    668c:	fa561302 	ccmp	x24, x22, #0x2, ne  // ne = any
    6690:	54000049 	b.ls	6698 <kprintf.constprop.0+0xb60>  // b.plast
    6694:	380016c1 	strb	w1, [x22], #1
    6698:	51000400 	sub	w0, w0, #0x1
    669c:	17fffeee 	b	6254 <kprintf.constprop.0+0x71c>
/home/ssysarch/Desktop/nick/jetpack_5/Jetson_Linux_R35.4.1_aarch64/Linux_for_Tegra/sources/tegra/optee-src/nv-optee/optee/optee_os/lib/libutils/ext/snprintk.c:605
    66a0:	b40000b6 	cbz	x22, 66b4 <kprintf.constprop.0+0xb7c>
    66a4:	f100011f 	cmp	x8, #0x0
    66a8:	fa561302 	ccmp	x24, x22, #0x2, ne  // ne = any
    66ac:	54000049 	b.ls	66b4 <kprintf.constprop.0+0xb7c>  // b.plast
    66b0:	380016c0 	strb	w0, [x22], #1
    66b4:	510004c6 	sub	w6, w6, #0x1
    66b8:	17fffeeb 	b	6264 <kprintf.constprop.0+0x72c>
/home/ssysarch/Desktop/nick/jetpack_5/Jetson_Linux_R35.4.1_aarch64/Linux_for_Tegra/sources/tegra/optee-src/nv-optee/optee/optee_os/lib/libutils/ext/snprintk.c:609
    66bc:	b40000d6 	cbz	x22, 66d4 <kprintf.constprop.0+0xb9c>
    66c0:	f100011f 	cmp	x8, #0x0
    66c4:	fa561302 	ccmp	x24, x22, #0x2, ne  // ne = any
    66c8:	54000069 	b.ls	66d4 <kprintf.constprop.0+0xb9c>  // b.plast
    66cc:	38616860 	ldrb	w0, [x3, x1]
    66d0:	380016c0 	strb	w0, [x22], #1
/home/ssysarch/Desktop/nick/jetpack_5/Jetson_Linux_R35.4.1_aarch64/Linux_for_Tegra/sources/tegra/optee-src/nv-optee/optee/optee_os/lib/libutils/ext/snprintk.c:608
    66d4:	91000421 	add	x1, x1, #0x1
    66d8:	17fffee7 	b	6274 <kprintf.constprop.0+0x73c>

00000000000066dc <trace_vprintf>:
trace_vprintf():
/home/ssysarch/Desktop/nick/jetpack_5/Jetson_Linux_R35.4.1_aarch64/Linux_for_Tegra/sources/tegra/optee-src/nv-optee/optee/optee_os/lib/libutils/ext/trace.c:113
    66dc:	a9a87bfd 	stp	x29, x30, [sp, #-384]!
    66e0:	910003fd 	mov	x29, sp
    66e4:	a90153f3 	stp	x19, x20, [sp, #16]
    66e8:	2a0203f3 	mov	w19, w2
    66ec:	a9025bf5 	stp	x21, x22, [sp, #32]
    66f0:	aa0003f6 	mov	x22, x0
    66f4:	a90363f7 	stp	x23, x24, [sp, #48]
    66f8:	aa0403f7 	mov	x23, x4
    66fc:	aa0503f8 	mov	x24, x5
    6700:	a9046bf9 	stp	x25, x26, [sp, #64]
    6704:	2a0103f9 	mov	w25, w1
/home/ssysarch/Desktop/nick/jetpack_5/Jetson_Linux_R35.4.1_aarch64/Linux_for_Tegra/sources/tegra/optee-src/nv-optee/optee/optee_os/lib/libutils/ext/trace.c:118
    6708:	72001c7a 	ands	w26, w3, #0xff
/home/ssysarch/Desktop/nick/jetpack_5/Jetson_Linux_R35.4.1_aarch64/Linux_for_Tegra/sources/tegra/optee-src/nv-optee/optee/optee_os/lib/libutils/ext/trace.c:113
    670c:	f9002bfb 	str	x27, [sp, #80]
/home/ssysarch/Desktop/nick/jetpack_5/Jetson_Linux_R35.4.1_aarch64/Linux_for_Tegra/sources/tegra/optee-src/nv-optee/optee/optee_os/lib/libutils/ext/trace.c:118
    6710:	54000b60 	b.eq	687c <trace_vprintf+0x1a0>  // b.none
/home/ssysarch/Desktop/nick/jetpack_5/Jetson_Linux_R35.4.1_aarch64/Linux_for_Tegra/sources/tegra/optee-src/nv-optee/optee/optee_os/lib/libutils/ext/trace.c:118 (discriminator 1)
    6714:	d0000003 	adrp	x3, 8000 <_DYNAMIC>
    6718:	f9409c63 	ldr	x3, [x3, #312]
    671c:	b9400060 	ldr	w0, [x3]
    6720:	6b02001f 	cmp	w0, w2
    6724:	540009eb 	b.lt	6860 <trace_vprintf+0x184>  // b.tstop
trace_level_to_string():
/home/ssysarch/Desktop/nick/jetpack_5/Jetson_Linux_R35.4.1_aarch64/Linux_for_Tegra/sources/tegra/optee-src/nv-optee/optee/optee_os/lib/libutils/ext/trace.c:51
    6728:	7100105f 	cmp	w2, #0x4
/home/ssysarch/Desktop/nick/jetpack_5/Jetson_Linux_R35.4.1_aarch64/Linux_for_Tegra/sources/tegra/optee-src/nv-optee/optee/optee_os/lib/libutils/ext/trace.c:54
    672c:	b0000000 	adrp	x0, 7000 <trace_ext_prefix+0x509>
    6730:	91314000 	add	x0, x0, #0xc50
/home/ssysarch/Desktop/nick/jetpack_5/Jetson_Linux_R35.4.1_aarch64/Linux_for_Tegra/sources/tegra/optee-src/nv-optee/optee/optee_os/lib/libutils/ext/trace.c:51
    6734:	1a9f9041 	csel	w1, w2, wzr, ls  // ls = plast
/home/ssysarch/Desktop/nick/jetpack_5/Jetson_Linux_R35.4.1_aarch64/Linux_for_Tegra/sources/tegra/optee-src/nv-optee/optee/optee_os/lib/libutils/ext/trace.c:54
    6738:	3861c803 	ldrb	w3, [x0, w1, sxtw]
trace_vprintf():
/home/ssysarch/Desktop/nick/jetpack_5/Jetson_Linux_R35.4.1_aarch64/Linux_for_Tegra/sources/tegra/optee-src/nv-optee/optee/optee_os/lib/libutils/ext/trace.c:122
    673c:	910203f5 	add	x21, sp, #0x80
    6740:	b0000002 	adrp	x2, 7000 <trace_ext_prefix+0x509>
    6744:	9130d842 	add	x2, x2, #0xc36
    6748:	aa1503e0 	mov	x0, x21
    674c:	d2802001 	mov	x1, #0x100                 	// #256
    6750:	97fffce6 	bl	5ae8 <snprintk>
/home/ssysarch/Desktop/nick/jetpack_5/Jetson_Linux_R35.4.1_aarch64/Linux_for_Tegra/sources/tegra/optee-src/nv-optee/optee/optee_os/lib/libutils/ext/trace.c:124
    6754:	37f80860 	tbnz	w0, #31, 6860 <trace_vprintf+0x184>
/home/ssysarch/Desktop/nick/jetpack_5/Jetson_Linux_R35.4.1_aarch64/Linux_for_Tegra/sources/tegra/optee-src/nv-optee/optee/optee_os/lib/libutils/ext/trace.c:129
    6758:	d0000003 	adrp	x3, 8000 <_DYNAMIC>
    675c:	d280201b 	mov	x27, #0x100                 	// #256
/home/ssysarch/Desktop/nick/jetpack_5/Jetson_Linux_R35.4.1_aarch64/Linux_for_Tegra/sources/tegra/optee-src/nv-optee/optee/optee_os/lib/libutils/ext/trace.c:126
    6760:	93407c14 	sxtw	x20, w0
/home/ssysarch/Desktop/nick/jetpack_5/Jetson_Linux_R35.4.1_aarch64/Linux_for_Tegra/sources/tegra/optee-src/nv-optee/optee/optee_os/lib/libutils/ext/trace.c:129
    6764:	cb20c361 	sub	x1, x27, w0, sxtw
    6768:	f940a063 	ldr	x3, [x3, #320]
    676c:	b0000002 	adrp	x2, 7000 <trace_ext_prefix+0x509>
    6770:	9130e842 	add	x2, x2, #0xc3a
    6774:	8b20c2a0 	add	x0, x21, w0, sxtw
    6778:	97fffcdc 	bl	5ae8 <snprintk>
/home/ssysarch/Desktop/nick/jetpack_5/Jetson_Linux_R35.4.1_aarch64/Linux_for_Tegra/sources/tegra/optee-src/nv-optee/optee/optee_os/lib/libutils/ext/trace.c:131
    677c:	37f80720 	tbnz	w0, #31, 6860 <trace_vprintf+0x184>
/home/ssysarch/Desktop/nick/jetpack_5/Jetson_Linux_R35.4.1_aarch64/Linux_for_Tegra/sources/tegra/optee-src/nv-optee/optee/optee_os/lib/libutils/ext/trace.c:133
    6780:	8b20c294 	add	x20, x20, w0, sxtw
/home/ssysarch/Desktop/nick/jetpack_5/Jetson_Linux_R35.4.1_aarch64/Linux_for_Tegra/sources/tegra/optee-src/nv-optee/optee/optee_os/lib/libutils/ext/trace.c:135
    6784:	3400093a 	cbz	w26, 68a8 <trace_vprintf+0x1cc>
/home/ssysarch/Desktop/nick/jetpack_5/Jetson_Linux_R35.4.1_aarch64/Linux_for_Tegra/sources/tegra/optee-src/nv-optee/optee/optee_os/lib/libutils/ext/trace.c:135 (discriminator 1)
    6788:	52800342 	mov	w2, #0x1a                  	// #26
    678c:	1ad32453 	lsr	w19, w2, w19
    6790:	360008d3 	tbz	w19, #0, 68a8 <trace_vprintf+0x1cc>
print_thread_id():
/home/ssysarch/Desktop/nick/jetpack_5/Jetson_Linux_R35.4.1_aarch64/Linux_for_Tegra/sources/tegra/optee-src/nv-optee/optee/optee_os/lib/libutils/ext/trace.c:66
    6794:	9400007d 	bl	6988 <trace_ext_get_thread_id>
trace_vprintf():
/home/ssysarch/Desktop/nick/jetpack_5/Jetson_Linux_R35.4.1_aarch64/Linux_for_Tegra/sources/tegra/optee-src/nv-optee/optee/optee_os/lib/libutils/ext/trace.c:137
    6798:	8b1402ba 	add	x26, x21, x20
    679c:	cb14037b 	sub	x27, x27, x20
print_thread_id():
/home/ssysarch/Desktop/nick/jetpack_5/Jetson_Linux_R35.4.1_aarch64/Linux_for_Tegra/sources/tegra/optee-src/nv-optee/optee/optee_os/lib/libutils/ext/trace.c:66
    67a0:	2a0003e4 	mov	w4, w0
/home/ssysarch/Desktop/nick/jetpack_5/Jetson_Linux_R35.4.1_aarch64/Linux_for_Tegra/sources/tegra/optee-src/nv-optee/optee/optee_os/lib/libutils/ext/trace.c:68
    67a4:	37f80700 	tbnz	w0, #31, 6884 <trace_vprintf+0x1a8>
/home/ssysarch/Desktop/nick/jetpack_5/Jetson_Linux_R35.4.1_aarch64/Linux_for_Tegra/sources/tegra/optee-src/nv-optee/optee/optee_os/lib/libutils/ext/trace.c:69
    67a8:	b0000002 	adrp	x2, 7000 <trace_ext_prefix+0x509>
    67ac:	9130f842 	add	x2, x2, #0xc3e
    67b0:	aa1b03e1 	mov	x1, x27
    67b4:	aa1a03e0 	mov	x0, x26
    67b8:	52800043 	mov	w3, #0x2                   	// #2
    67bc:	97fffccb 	bl	5ae8 <snprintk>
trace_vprintf():
/home/ssysarch/Desktop/nick/jetpack_5/Jetson_Linux_R35.4.1_aarch64/Linux_for_Tegra/sources/tegra/optee-src/nv-optee/optee/optee_os/lib/libutils/ext/trace.c:144
    67c0:	37f80500 	tbnz	w0, #31, 6860 <trace_vprintf+0x184>
/home/ssysarch/Desktop/nick/jetpack_5/Jetson_Linux_R35.4.1_aarch64/Linux_for_Tegra/sources/tegra/optee-src/nv-optee/optee/optee_os/lib/libutils/ext/trace.c:146
    67c4:	8b20c293 	add	x19, x20, w0, sxtw
/home/ssysarch/Desktop/nick/jetpack_5/Jetson_Linux_R35.4.1_aarch64/Linux_for_Tegra/sources/tegra/optee-src/nv-optee/optee/optee_os/lib/libutils/ext/trace.c:148
    67c8:	b4000176 	cbz	x22, 67f4 <trace_vprintf+0x118>
/home/ssysarch/Desktop/nick/jetpack_5/Jetson_Linux_R35.4.1_aarch64/Linux_for_Tegra/sources/tegra/optee-src/nv-optee/optee/optee_os/lib/libutils/ext/trace.c:149
    67cc:	b0000002 	adrp	x2, 7000 <trace_ext_prefix+0x509>
    67d0:	91312442 	add	x2, x2, #0xc49
    67d4:	d2802001 	mov	x1, #0x100                 	// #256
    67d8:	2a1903e4 	mov	w4, w25
    67dc:	aa1603e3 	mov	x3, x22
    67e0:	cb130021 	sub	x1, x1, x19
    67e4:	8b1302a0 	add	x0, x21, x19
    67e8:	97fffcc0 	bl	5ae8 <snprintk>
/home/ssysarch/Desktop/nick/jetpack_5/Jetson_Linux_R35.4.1_aarch64/Linux_for_Tegra/sources/tegra/optee-src/nv-optee/optee/optee_os/lib/libutils/ext/trace.c:151
    67ec:	37f803a0 	tbnz	w0, #31, 6860 <trace_vprintf+0x184>
/home/ssysarch/Desktop/nick/jetpack_5/Jetson_Linux_R35.4.1_aarch64/Linux_for_Tegra/sources/tegra/optee-src/nv-optee/optee/optee_os/lib/libutils/ext/trace.c:153
    67f0:	8b20c273 	add	x19, x19, w0, sxtw
/home/ssysarch/Desktop/nick/jetpack_5/Jetson_Linux_R35.4.1_aarch64/Linux_for_Tegra/sources/tegra/optee-src/nv-optee/optee/optee_os/lib/libutils/ext/trace.c:163
    67f4:	910183e3 	add	x3, sp, #0x60
    67f8:	aa1803e1 	mov	x1, x24
    67fc:	aa0303e0 	mov	x0, x3
    6800:	d2800402 	mov	x2, #0x20                  	// #32
    6804:	97ffe61b 	bl	70 <memcpy>
    6808:	aa0003e3 	mov	x3, x0
    680c:	aa1703e2 	mov	x2, x23
    6810:	8b1302a0 	add	x0, x21, x19
    6814:	d2802001 	mov	x1, #0x100                 	// #256
    6818:	cb130021 	sub	x1, x1, x19
    681c:	97fffc9d 	bl	5a90 <vsnprintk>
/home/ssysarch/Desktop/nick/jetpack_5/Jetson_Linux_R35.4.1_aarch64/Linux_for_Tegra/sources/tegra/optee-src/nv-optee/optee/optee_os/lib/libutils/ext/trace.c:164
    6820:	7100001f 	cmp	w0, #0x0
    6824:	5400004d 	b.le	682c <trace_vprintf+0x150>
/home/ssysarch/Desktop/nick/jetpack_5/Jetson_Linux_R35.4.1_aarch64/Linux_for_Tegra/sources/tegra/optee-src/nv-optee/optee/optee_os/lib/libutils/ext/trace.c:165
    6828:	8b20c273 	add	x19, x19, w0, sxtw
/home/ssysarch/Desktop/nick/jetpack_5/Jetson_Linux_R35.4.1_aarch64/Linux_for_Tegra/sources/tegra/optee-src/nv-optee/optee/optee_os/lib/libutils/ext/trace.c:167
    682c:	f103fa7f 	cmp	x19, #0xfe
    6830:	d2801fc0 	mov	x0, #0xfe                  	// #254
    6834:	9a809273 	csel	x19, x19, x0, ls  // ls = plast
/home/ssysarch/Desktop/nick/jetpack_5/Jetson_Linux_R35.4.1_aarch64/Linux_for_Tegra/sources/tegra/optee-src/nv-optee/optee/optee_os/lib/libutils/ext/trace.c:170
    6838:	52800140 	mov	w0, #0xa                   	// #10
    683c:	38336aa0 	strb	w0, [x21, x19]
/home/ssysarch/Desktop/nick/jetpack_5/Jetson_Linux_R35.4.1_aarch64/Linux_for_Tegra/sources/tegra/optee-src/nv-optee/optee/optee_os/lib/libutils/ext/trace.c:171
    6840:	b4000093 	cbz	x19, 6850 <trace_vprintf+0x174>
/home/ssysarch/Desktop/nick/jetpack_5/Jetson_Linux_R35.4.1_aarch64/Linux_for_Tegra/sources/tegra/optee-src/nv-optee/optee/optee_os/lib/libutils/ext/trace.c:171 (discriminator 1)
    6844:	38736aa0 	ldrb	w0, [x21, x19]
    6848:	7100281f 	cmp	w0, #0xa
    684c:	540003c0 	b.eq	68c4 <trace_vprintf+0x1e8>  // b.none
/home/ssysarch/Desktop/nick/jetpack_5/Jetson_Linux_R35.4.1_aarch64/Linux_for_Tegra/sources/tegra/optee-src/nv-optee/optee/optee_os/lib/libutils/ext/trace.c:174
    6850:	91020be0 	add	x0, sp, #0x82
    6854:	3833681f 	strb	wzr, [x0, x19]
/home/ssysarch/Desktop/nick/jetpack_5/Jetson_Linux_R35.4.1_aarch64/Linux_for_Tegra/sources/tegra/optee-src/nv-optee/optee/optee_os/lib/libutils/ext/trace.c:176
    6858:	aa1503e0 	mov	x0, x21
    685c:	94000041 	bl	6960 <trace_ext_puts>
/home/ssysarch/Desktop/nick/jetpack_5/Jetson_Linux_R35.4.1_aarch64/Linux_for_Tegra/sources/tegra/optee-src/nv-optee/optee/optee_os/lib/libutils/ext/trace.c:177
    6860:	a94153f3 	ldp	x19, x20, [sp, #16]
    6864:	a9425bf5 	ldp	x21, x22, [sp, #32]
    6868:	a94363f7 	ldp	x23, x24, [sp, #48]
    686c:	a9446bf9 	ldp	x25, x26, [sp, #64]
    6870:	f9402bfb 	ldr	x27, [sp, #80]
    6874:	a8d87bfd 	ldp	x29, x30, [sp], #384
    6878:	d65f03c0 	ret
trace_level_to_string():
/home/ssysarch/Desktop/nick/jetpack_5/Jetson_Linux_R35.4.1_aarch64/Linux_for_Tegra/sources/tegra/optee-src/nv-optee/optee/optee_os/lib/libutils/ext/trace.c:49
    687c:	528009a3 	mov	w3, #0x4d                  	// #77
    6880:	17ffffaf 	b	673c <trace_vprintf+0x60>
print_thread_id():
/home/ssysarch/Desktop/nick/jetpack_5/Jetson_Linux_R35.4.1_aarch64/Linux_for_Tegra/sources/tegra/optee-src/nv-optee/optee/optee_os/lib/libutils/ext/trace.c:71
    6884:	aa1b03e1 	mov	x1, x27
    6888:	aa1a03e0 	mov	x0, x26
    688c:	90000004 	adrp	x4, 6000 <kprintf.constprop.0+0x4c8>
    6890:	9133cc84 	add	x4, x4, #0xcf3
    6894:	52800043 	mov	w3, #0x2                   	// #2
    6898:	b0000002 	adrp	x2, 7000 <trace_ext_prefix+0x509>
    689c:	91311042 	add	x2, x2, #0xc44
    68a0:	97fffc92 	bl	5ae8 <snprintk>
    68a4:	17ffffc7 	b	67c0 <trace_vprintf+0xe4>
trace_vprintf():
/home/ssysarch/Desktop/nick/jetpack_5/Jetson_Linux_R35.4.1_aarch64/Linux_for_Tegra/sources/tegra/optee-src/nv-optee/optee/optee_os/lib/libutils/ext/trace.c:157
    68a8:	f103fa9f 	cmp	x20, #0xfe
    68ac:	54fffda8 	b.hi	6860 <trace_vprintf+0x184>  // b.pmore
/home/ssysarch/Desktop/nick/jetpack_5/Jetson_Linux_R35.4.1_aarch64/Linux_for_Tegra/sources/tegra/optee-src/nv-optee/optee/optee_os/lib/libutils/ext/trace.c:159
    68b0:	91000693 	add	x19, x20, #0x1
    68b4:	52800400 	mov	w0, #0x20                  	// #32
    68b8:	38346aa0 	strb	w0, [x21, x20]
/home/ssysarch/Desktop/nick/jetpack_5/Jetson_Linux_R35.4.1_aarch64/Linux_for_Tegra/sources/tegra/optee-src/nv-optee/optee/optee_os/lib/libutils/ext/trace.c:160
    68bc:	38336abf 	strb	wzr, [x21, x19]
    68c0:	17ffffcd 	b	67f4 <trace_vprintf+0x118>
/home/ssysarch/Desktop/nick/jetpack_5/Jetson_Linux_R35.4.1_aarch64/Linux_for_Tegra/sources/tegra/optee-src/nv-optee/optee/optee_os/lib/libutils/ext/trace.c:172
    68c4:	d1000673 	sub	x19, x19, #0x1
    68c8:	17ffffde 	b	6840 <trace_vprintf+0x164>

00000000000068cc <trace_printf>:
trace_printf():
/home/ssysarch/Desktop/nick/jetpack_5/Jetson_Linux_R35.4.1_aarch64/Linux_for_Tegra/sources/tegra/optee-src/nv-optee/optee/optee_os/lib/libutils/ext/trace.c:104
    68cc:	a9b97bfd 	stp	x29, x30, [sp, #-112]!
    68d0:	910003fd 	mov	x29, sp
    68d4:	a9059be5 	stp	x5, x6, [sp, #88]
/home/ssysarch/Desktop/nick/jetpack_5/Jetson_Linux_R35.4.1_aarch64/Linux_for_Tegra/sources/tegra/optee-src/nv-optee/optee/optee_os/lib/libutils/ext/trace.c:107
    68d8:	9101c3e5 	add	x5, sp, #0x70
    68dc:	a90317e5 	stp	x5, x5, [sp, #48]
    68e0:	910143e5 	add	x5, sp, #0x50
    68e4:	f90023e5 	str	x5, [sp, #64]
    68e8:	128002e5 	mov	w5, #0xffffffe8            	// #-24
    68ec:	b9004be5 	str	w5, [sp, #72]
/home/ssysarch/Desktop/nick/jetpack_5/Jetson_Linux_R35.4.1_aarch64/Linux_for_Tegra/sources/tegra/optee-src/nv-optee/optee/optee_os/lib/libutils/ext/trace.c:108
    68f0:	910043e5 	add	x5, sp, #0x10
/home/ssysarch/Desktop/nick/jetpack_5/Jetson_Linux_R35.4.1_aarch64/Linux_for_Tegra/sources/tegra/optee-src/nv-optee/optee/optee_os/lib/libutils/ext/trace.c:107
    68f4:	b9004fff 	str	wzr, [sp, #76]
/home/ssysarch/Desktop/nick/jetpack_5/Jetson_Linux_R35.4.1_aarch64/Linux_for_Tegra/sources/tegra/optee-src/nv-optee/optee/optee_os/lib/libutils/ext/trace.c:104
    68f8:	f90037e7 	str	x7, [sp, #104]
/home/ssysarch/Desktop/nick/jetpack_5/Jetson_Linux_R35.4.1_aarch64/Linux_for_Tegra/sources/tegra/optee-src/nv-optee/optee/optee_os/lib/libutils/ext/trace.c:108
    68fc:	a9431fe6 	ldp	x6, x7, [sp, #48]
    6900:	a9011fe6 	stp	x6, x7, [sp, #16]
    6904:	a9441fe6 	ldp	x6, x7, [sp, #64]
    6908:	a9021fe6 	stp	x6, x7, [sp, #32]
    690c:	97ffff74 	bl	66dc <trace_vprintf>
/home/ssysarch/Desktop/nick/jetpack_5/Jetson_Linux_R35.4.1_aarch64/Linux_for_Tegra/sources/tegra/optee-src/nv-optee/optee/optee_os/lib/libutils/ext/trace.c:110
    6910:	a8c77bfd 	ldp	x29, x30, [sp], #112
    6914:	d65f03c0 	ret

0000000000006918 <memchr>:
memchr():
/home/ssysarch/Desktop/nick/jetpack_5/Jetson_Linux_R35.4.1_aarch64/Linux_for_Tegra/sources/tegra/optee-src/nv-optee/optee/optee_os/lib/libutils/isoc/newlib/memchr.c:109
    6918:	12001c21 	and	w1, w1, #0xff
/home/ssysarch/Desktop/nick/jetpack_5/Jetson_Linux_R35.4.1_aarch64/Linux_for_Tegra/sources/tegra/optee-src/nv-optee/optee/optee_os/lib/libutils/isoc/newlib/memchr.c:153
    691c:	8b020002 	add	x2, x0, x2
    6920:	eb02001f 	cmp	x0, x2
    6924:	54000061 	b.ne	6930 <memchr+0x18>  // b.any
/home/ssysarch/Desktop/nick/jetpack_5/Jetson_Linux_R35.4.1_aarch64/Linux_for_Tegra/sources/tegra/optee-src/nv-optee/optee/optee_os/lib/libutils/isoc/newlib/memchr.c:159
    6928:	d2800000 	mov	x0, #0x0                   	// #0
/home/ssysarch/Desktop/nick/jetpack_5/Jetson_Linux_R35.4.1_aarch64/Linux_for_Tegra/sources/tegra/optee-src/nv-optee/optee/optee_os/lib/libutils/isoc/newlib/memchr.c:160
    692c:	d65f03c0 	ret
/home/ssysarch/Desktop/nick/jetpack_5/Jetson_Linux_R35.4.1_aarch64/Linux_for_Tegra/sources/tegra/optee-src/nv-optee/optee/optee_os/lib/libutils/isoc/newlib/memchr.c:154
    6930:	39400003 	ldrb	w3, [x0]
    6934:	6b01007f 	cmp	w3, w1
    6938:	54ffffa0 	b.eq	692c <memchr+0x14>  // b.none
/home/ssysarch/Desktop/nick/jetpack_5/Jetson_Linux_R35.4.1_aarch64/Linux_for_Tegra/sources/tegra/optee-src/nv-optee/optee/optee_os/lib/libutils/isoc/newlib/memchr.c:156
    693c:	91000400 	add	x0, x0, #0x1
    6940:	17fffff8 	b	6920 <memchr+0x8>

0000000000006944 <strlen>:
strlen():
/home/ssysarch/Desktop/nick/jetpack_5/Jetson_Linux_R35.4.1_aarch64/Linux_for_Tegra/sources/tegra/optee-src/nv-optee/optee/optee_os/lib/libutils/isoc/newlib/strlen.c:117
    6944:	aa0003e1 	mov	x1, x0
    6948:	39400022 	ldrb	w2, [x1]
    694c:	35000062 	cbnz	w2, 6958 <strlen+0x14>
/home/ssysarch/Desktop/nick/jetpack_5/Jetson_Linux_R35.4.1_aarch64/Linux_for_Tegra/sources/tegra/optee-src/nv-optee/optee/optee_os/lib/libutils/isoc/newlib/strlen.c:120
    6950:	cb000020 	sub	x0, x1, x0
    6954:	d65f03c0 	ret
/home/ssysarch/Desktop/nick/jetpack_5/Jetson_Linux_R35.4.1_aarch64/Linux_for_Tegra/sources/tegra/optee-src/nv-optee/optee/optee_os/lib/libutils/isoc/newlib/strlen.c:118
    6958:	91000421 	add	x1, x1, #0x1
    695c:	17fffffb 	b	6948 <strlen+0x4>

0000000000006960 <trace_ext_puts>:
trace_ext_puts():
/home/ssysarch/Desktop/nick/jetpack_5/Jetson_Linux_R35.4.1_aarch64/Linux_for_Tegra/sources/tegra/optee-src/nv-optee/optee/optee_os/lib/libutee/trace_ext.c:22
    6960:	a9be7bfd 	stp	x29, x30, [sp, #-32]!
    6964:	910003fd 	mov	x29, sp
    6968:	f9000bf3 	str	x19, [sp, #16]
    696c:	aa0003f3 	mov	x19, x0
/home/ssysarch/Desktop/nick/jetpack_5/Jetson_Linux_R35.4.1_aarch64/Linux_for_Tegra/sources/tegra/optee-src/nv-optee/optee/optee_os/lib/libutee/trace_ext.c:24
    6970:	97fffff5 	bl	6944 <strlen>
    6974:	aa0003e1 	mov	x1, x0
    6978:	aa1303e0 	mov	x0, x19
/home/ssysarch/Desktop/nick/jetpack_5/Jetson_Linux_R35.4.1_aarch64/Linux_for_Tegra/sources/tegra/optee-src/nv-optee/optee/optee_os/lib/libutee/trace_ext.c:28
    697c:	f9400bf3 	ldr	x19, [sp, #16]
    6980:	a8c27bfd 	ldp	x29, x30, [sp], #32
/home/ssysarch/Desktop/nick/jetpack_5/Jetson_Linux_R35.4.1_aarch64/Linux_for_Tegra/sources/tegra/optee-src/nv-optee/optee/optee_os/lib/libutee/trace_ext.c:24
    6984:	17ffe5fc 	b	174 <_ldelf_log>

0000000000006988 <trace_ext_get_thread_id>:
trace_ext_get_thread_id():
/home/ssysarch/Desktop/nick/jetpack_5/Jetson_Linux_R35.4.1_aarch64/Linux_for_Tegra/sources/tegra/optee-src/nv-optee/optee/optee_os/lib/libutee/trace_ext.c:33
    6988:	12800000 	mov	w0, #0xffffffff            	// #-1
    698c:	d65f03c0 	ret
