
/home/ssysarch/Desktop/nick/jetpack_5/Jetson_Linux_R35.4.1_aarch64/Linux_for_Tegra/sources/tegra/optee-src/nv-optee/optee/build/t234//ldelf/ldelf.elf:     file format elf64-littleaarch64
/home/ssysarch/Desktop/nick/jetpack_5/Jetson_Linux_R35.4.1_aarch64/Linux_for_Tegra/sources/tegra/optee-src/nv-optee/optee/build/t234//ldelf/ldelf.elf
architecture: aarch64, flags 0x00000150:
HAS_SYMS, DYNAMIC, D_PAGED
start address 0x0000000000000000

Program Header:
    LOAD off    0x0000000000001000 vaddr 0x0000000000000000 paddr 0x0000000000000000 align 2**12
         filesz 0x0000000000007d88 memsz 0x0000000000007d88 flags r-x
    LOAD off    0x0000000000009000 vaddr 0x0000000000008000 paddr 0x0000000000008000 align 2**12
         filesz 0x00000000000001f4 memsz 0x0000000000000210 flags rw-
 DYNAMIC off    0x0000000000009000 vaddr 0x0000000000008000 paddr 0x0000000000008000 align 2**3
         filesz 0x0000000000000110 memsz 0x0000000000000110 flags rw-
   STACK off    0x0000000000000000 vaddr 0x0000000000000000 paddr 0x0000000000000000 align 2**4
         filesz 0x0000000000000000 memsz 0x0000000000000000 flags rw-

Dynamic Section:
  HASH                 0x0000000000007cc8
  GNU_HASH             0x0000000000007c58
  STRTAB               0x0000000000007cc0
  SYMTAB               0x0000000000007c78
  STRSZ                0x0000000000000001
  SYMENT               0x0000000000000018
  DEBUG                0x0000000000000000
  RELA                 0x0000000000007ce0
  RELASZ               0x00000000000000a8
  RELAENT              0x0000000000000018
  FLAGS_1              0x0000000008000000
  RELACOUNT            0x0000000000000003
private flags = 0:

Sections:
Idx Name          Size      VMA               LMA               File off  Algn
  0 .text         00006990  0000000000000000  0000000000000000  00001000  2**4
                  CONTENTS, ALLOC, LOAD, READONLY, CODE
  1 .rodata       000012c5  0000000000006990  0000000000006990  00007990  2**2
                  CONTENTS, ALLOC, LOAD, READONLY, DATA
  2 .gnu.hash     0000001c  0000000000007c58  0000000000007c58  00008c58  2**3
                  CONTENTS, ALLOC, LOAD, READONLY, DATA
  3 .dynsym       00000048  0000000000007c78  0000000000007c78  00008c78  2**3
                  CONTENTS, ALLOC, LOAD, READONLY, DATA
  4 .dynstr       00000001  0000000000007cc0  0000000000007cc0  00008cc0  2**0
                  CONTENTS, ALLOC, LOAD, READONLY, DATA
  5 .hash         00000018  0000000000007cc8  0000000000007cc8  00008cc8  2**3
                  CONTENTS, ALLOC, LOAD, READONLY, DATA
  6 .rela.got     00000060  0000000000007ce0  0000000000007ce0  00008ce0  2**3
                  CONTENTS, ALLOC, LOAD, READONLY, DATA
  7 .dynamic      00000110  0000000000008000  0000000000008000  00009000  2**3
                  CONTENTS, ALLOC, LOAD, DATA
  8 .got          00000040  0000000000008110  0000000000008110  00009110  2**3
                  CONTENTS, ALLOC, LOAD, DATA
  9 .data         000000a4  0000000000008150  0000000000008150  00009150  2**3
                  CONTENTS, ALLOC, LOAD, DATA
 10 .bss          00000018  00000000000081f8  00000000000081f8  000091f4  2**3
                  ALLOC
 11 .debug_line   00009c3e  0000000000000000  0000000000000000  000091f4  2**0
                  CONTENTS, READONLY, DEBUGGING
 12 .debug_info   00011169  0000000000000000  0000000000000000  00012e32  2**0
                  CONTENTS, READONLY, DEBUGGING
 13 .debug_abbrev 00002c08  0000000000000000  0000000000000000  00023f9b  2**0
                  CONTENTS, READONLY, DEBUGGING
 14 .debug_aranges 00001060  0000000000000000  0000000000000000  00026bb0  2**4
                  CONTENTS, READONLY, DEBUGGING
 15 .debug_str    000163ec  0000000000000000  0000000000000000  00027c10  2**0
                  CONTENTS, READONLY, DEBUGGING
 16 .rela.dyn     00000048  0000000000007d40  0000000000007d40  00008d40  2**3
                  CONTENTS, ALLOC, LOAD, READONLY, DATA
 17 .debug_ranges 00002cd0  0000000000000000  0000000000000000  0003e000  2**4
                  CONTENTS, READONLY, DEBUGGING
 18 .debug_loc    00017e66  0000000000000000  0000000000000000  00040cd0  2**0
                  CONTENTS, READONLY, DEBUGGING
 19 .debug_macro  00012a20  0000000000000000  0000000000000000  00058b36  2**0
                  CONTENTS, READONLY, DEBUGGING
 20 .comment      0000001f  0000000000000000  0000000000000000  0006b556  2**0
                  CONTENTS, READONLY
SYMBOL TABLE:
0000000000000000 l    d  .text	0000000000000000 .text
0000000000006990 l    d  .rodata	0000000000000000 .rodata
0000000000007c58 l    d  .gnu.hash	0000000000000000 .gnu.hash
0000000000007c78 l    d  .dynsym	0000000000000000 .dynsym
0000000000007cc0 l    d  .dynstr	0000000000000000 .dynstr
0000000000007cc8 l    d  .hash	0000000000000000 .hash
0000000000007ce0 l    d  .rela.got	0000000000000000 .rela.got
0000000000008000 l    d  .dynamic	0000000000000000 .dynamic
0000000000008110 l    d  .got	0000000000000000 .got
0000000000008150 l    d  .data	0000000000000000 .data
00000000000081f8 l    d  .bss	0000000000000000 .bss
0000000000000000 l    d  .debug_line	0000000000000000 .debug_line
0000000000000000 l    d  .debug_info	0000000000000000 .debug_info
0000000000000000 l    d  .debug_abbrev	0000000000000000 .debug_abbrev
0000000000000000 l    d  .debug_aranges	0000000000000000 .debug_aranges
0000000000000000 l    d  .debug_str	0000000000000000 .debug_str
0000000000007d40 l    d  .rela.dyn	0000000000000000 .rela.dyn
0000000000000000 l    d  .debug_ranges	0000000000000000 .debug_ranges
0000000000000000 l    d  .debug_loc	0000000000000000 .debug_loc
0000000000000000 l    d  .debug_macro	0000000000000000 .debug_macro
0000000000000000 l    d  .comment	0000000000000000 .comment
0000000000000000 l    df *ABS*	0000000000000000 /home/ssysarch/Desktop/nick/jetpack_5/Jetson_Linux_R35.4.1_aarch64/Linux_for_Tegra/sources/tegra/optee-src/nv-optee/optee/build/t234//ldelf/start_a64.o
000000000000005c l       .text	0000000000000000 reloc_begin_rel
0000000000000060 l       .text	0000000000000000 reloc_end_rel
0000000000000000 l    df *ABS*	0000000000000000 memcpy.c
0000000000000000 l    df *ABS*	0000000000000000 /home/ssysarch/Desktop/nick/jetpack_5/Jetson_Linux_R35.4.1_aarch64/Linux_for_Tegra/sources/tegra/optee-src/nv-optee/optee/build/t234//ldelf/syscalls_a64.o
0000000000000000 l    df *ABS*	0000000000000000 /home/ssysarch/Desktop/nick/jetpack_5/Jetson_Linux_R35.4.1_aarch64/Linux_for_Tegra/sources/tegra/optee-src/nv-optee/optee/build/t234//ldelf/tlsdesc_rel_a64.o
0000000000000000 l    df *ABS*	0000000000000000 dl.c
0000000000000000 l    df *ABS*	0000000000000000 main.c
00000000000002c8 l     F .text	000000000000003c dl_entry
0000000000000304 l     F .text	000000000000004c print_to_console
0000000000000350 l     F .text	00000000000000f0 dump_ta_state
00000000000081f8 l     O .bss	0000000000000008 mpool_base
0000000000006ac1 l     O .rodata	000000000000000e __func__.2303
0000000000006acf l     O .rodata	0000000000000006 __func__.2318
0000000000000000 l    df *ABS*	0000000000000000 sys.c
0000000000000000 l    df *ABS*	0000000000000000 ta_elf.c
00000000000006d4 l     F .text	0000000000000068 queue_elf_helper
000000000000073c l     F .text	0000000000000058 get_pad_begin
0000000000000794 l     F .text	0000000000000084 ta_elf_add_bti
0000000000000818 l     F .text	00000000000002b0 init_elf
0000000000000ac8 l     F .text	0000000000000058 print_wrapper
0000000000000b20 l     F .text	0000000000000044 read_dyn
0000000000000b64 l     F .text	00000000000000a8 check_range
0000000000000c0c l     F .text	0000000000000058 check_hashtab
0000000000000c64 l     F .text	00000000000000d4 add_segment.isra.0
0000000000000d38 l     F .text	000000000000005c close_handle.isra.0
0000000000000d94 l     F .text	0000000000000074 check_phdr_in_range.constprop.0
0000000000000e08 l     F .text	0000000000000020 _assert_trap.constprop.0
0000000000000e28 l     F .text	0000000000000128 get_init_fini_array.constprop.0
0000000000000f50 l     F .text	000000000000008c elf_get_init_fini_array
0000000000000fdc l     F .text	000000000000013c print_seg
0000000000001118 l     F .text	0000000000000114 copy_section_headers
000000000000122c l     F .text	00000000000004a4 populate_segments
00000000000016d0 l     F .text	00000000000000d4 get_next_in_order.isra.0
00000000000017a4 l     F .text	00000000000000ec save_soname_from_segment
0000000000001890 l     F .text	000000000000044c save_symtab
0000000000001cdc l     F .text	00000000000004dc map_segments
0000000000002200 l     F .text	000000000000005c queue_elf
000000000000225c l     F .text	00000000000001a0 add_deps_from_segment
00000000000023fc l     F .text	0000000000000080 add_dependencies
0000000000008200 l     O .bss	0000000000000008 ta_stack
0000000000008208 l     O .bss	0000000000000008 ta_stack_size
0000000000008150 l     O .data	0000000000000008 last_tls_mod_id.2749
0000000000008158 l     O .data	0000000000000008 next_offs.3110
00000000000072a0 l     O .rodata	0000000000000012 __func__.2750
00000000000072b2 l     O .rodata	000000000000000a __func__.2759
00000000000072bc l     O .rodata	0000000000000014 __func__.2782
00000000000072d0 l     O .rodata	000000000000000c __func__.2799
00000000000072dc l     O .rodata	000000000000000e __func__.2810
00000000000072ea l     O .rodata	0000000000000012 __func__.2821
00000000000072fc l     O .rodata	0000000000000019 __func__.2849
0000000000007315 l     O .rodata	0000000000000010 __func__.2876
0000000000007325 l     O .rodata	0000000000000010 __func__.2885
0000000000007335 l     O .rodata	0000000000000009 __func__.2905
000000000000733e l     O .rodata	000000000000000c __func__.2922
000000000000734a l     O .rodata	0000000000000011 __func__.2947
000000000000735b l     O .rodata	0000000000000010 __func__.2957
000000000000736b l     O .rodata	0000000000000019 __func__.2970
0000000000007384 l     O .rodata	000000000000000e __func__.2989
0000000000007392 l     O .rodata	0000000000000012 __func__.2997
00000000000073a4 l     O .rodata	000000000000000f __func__.3018
00000000000073b3 l     O .rodata	000000000000000d __func__.3046
00000000000073c0 l     O .rodata	0000000000000016 __func__.3061
00000000000073d6 l     O .rodata	0000000000000015 __func__.3087
00000000000073eb l     O .rodata	000000000000000d __func__.3095
00000000000073f8 l     O .rodata	0000000000000014 __func__.3100
000000000000740c l     O .rodata	000000000000000a __func__.3114
0000000000007416 l     O .rodata	0000000000000011 __func__.3124
0000000000007427 l     O .rodata	000000000000001a __func__.3131
0000000000007441 l     O .rodata	0000000000000017 __func__.3136
0000000000007458 l     O .rodata	0000000000000019 __func__.3144
0000000000007471 l     O .rodata	0000000000000012 __func__.3181
0000000000007483 l     O .rodata	0000000000000016 __func__.3206
0000000000007499 l     O .rodata	0000000000000013 __func__.3253
00000000000074ac l     O .rodata	0000000000000014 __func__.3273
00000000000074c0 l     O .rodata	0000000000000009 __func__.3342
00000000000074c9 l     O .rodata	0000000000000021 __func__.3353
00000000000074ea l     O .rodata	0000000000000013 __func__.3382
00000000000074fd l     O .rodata	0000000000000019 __func__.3391
0000000000000000 l    df *ABS*	0000000000000000 ta_elf_rel.c
0000000000003470 l     F .text	00000000000001d8 check_found_sym
0000000000003648 l     F .text	0000000000000224 resolve_sym_helper
000000000000386c l     F .text	00000000000000b0 e32_get_sym_name.isra.0
000000000000391c l     F .text	00000000000000ac e64_get_sym_name.isra.0
0000000000003a80 l     F .text	0000000000000070 resolve_sym
0000000000003af0 l     F .text	0000000000000054 e32_process_dyn_rel
0000000000003b44 l     F .text	0000000000000054 e64_process_dyn_rela
0000000000003b98 l     F .text	0000000000000080 e64_process_tls_tprel_rela
00000000000077ae l     O .rodata	000000000000000c __func__.2470
00000000000077ba l     O .rodata	0000000000000010 __func__.2491
00000000000077ca l     O .rodata	0000000000000013 __func__.2519
00000000000077dd l     O .rodata	0000000000000011 __func__.2544
00000000000077ee l     O .rodata	000000000000000c __func__.2552
00000000000077fa l     O .rodata	0000000000000013 __func__.2574
000000000000780d l     O .rodata	000000000000000d __func__.2597
000000000000781a l     O .rodata	0000000000000011 __func__.2627
000000000000782b l     O .rodata	000000000000000d __func__.2681
0000000000000000 l    df *ABS*	0000000000000000 unwind_arm32.c
00000000000044c4 l     F .text	000000000000005c pop_vsp
0000000000004520 l     F .text	0000000000000088 unwind_exec_read_byte
0000000000007879 l     O .rodata	0000000000000011 __func__.1817
000000000000788a l     O .rodata	000000000000000b __func__.1825
0000000000000000 l    df *ABS*	0000000000000000 unwind_arm64.c
0000000000000000 l    df *ABS*	0000000000000000 assert.c
0000000000000000 l    df *ABS*	0000000000000000 tee_uuid_from_str.c
0000000000004c6c l     F .text	000000000000008c parse_hex
0000000000000000 l    df *ABS*	0000000000000000 utee_syscalls_a64.o
0000000000000000 l    df *ABS*	0000000000000000 bget_malloc.c
0000000000004e60 l     F .text	0000000000000010 _assert_trap
0000000000004e70 l     F .text	0000000000000038 raw_malloc_return_hook.isra.0
0000000000004ea8 l     F .text	0000000000000028 bget_buf_size.part.0
0000000000008170 l     O .data	0000000000000080 malloc_ctx
0000000000007ba4 l     O .rodata	0000000000000005 __func__.2063
0000000000007ba9 l     O .rodata	0000000000000006 __func__.2083
0000000000007baf l     O .rodata	0000000000000005 __func__.2104
0000000000007bb4 l     O .rodata	0000000000000006 __func__.2113
0000000000007bba l     O .rodata	000000000000000e __func__.2151
0000000000007bc8 l     O .rodata	0000000000000014 __func__.2352
0000000000000000 l    df *ABS*	0000000000000000 isxdigit.c
0000000000000000 l    df *ABS*	0000000000000000 snprintf.c
0000000000000000 l    df *ABS*	0000000000000000 tolower.c
0000000000000000 l    df *ABS*	0000000000000000 memcmp.c
0000000000000000 l    df *ABS*	0000000000000000 memset.c
0000000000000000 l    df *ABS*	0000000000000000 strcmp.c
0000000000000000 l    df *ABS*	0000000000000000 strcpy.c
0000000000000000 l    df *ABS*	0000000000000000 strnlen.c
0000000000000000 l    df *ABS*	0000000000000000 snprintk.c
0000000000005b38 l     F .text	0000000000000ba4 kprintf.constprop.0
0000000000007c14 l     O .rodata	0000000000000011 HEXDIGITS
0000000000007c25 l     O .rodata	0000000000000011 hexdigits
0000000000000000 l    df *ABS*	0000000000000000 trace.c
0000000000007c50 l     O .rodata	0000000000000005 lvl_strs.1750
0000000000000000 l    df *ABS*	0000000000000000 memchr.c
0000000000000000 l    df *ABS*	0000000000000000 strlen.c
0000000000000000 l    df *ABS*	0000000000000000 trace_ext.c
0000000000000000 l    df *ABS*	0000000000000000 
00000000000059c4 l     F .text	0000000000000018 strcpy
0000000000005798 l     F .text	0000000000000114 raw_malloc_add_pool
00000000000055c8 l     F .text	0000000000000010 raw_free
00000000000039c8 l     F .text	00000000000000b8 ta_elf_resolve_sym
0000000000004cf8 l     F .text	0000000000000150 tee_uuid_from_str
0000000000005a90 l     F .text	0000000000000058 vsnprintk
00000000000058e8 l     F .text	0000000000000054 snprintf
0000000000008000 l     O *ABS*	0000000000000000 _DYNAMIC
0000000000003c18 l     F .text	00000000000008ac ta_elf_relocate
00000000000021b8 l     F .text	0000000000000048 ta_elf_find_elf
00000000000068cc l     F .text	000000000000004c trace_printf
0000000000000070 l     F .text	00000000000000ec memcpy
0000000000000650 l     F .text	0000000000000010 sys_return_cleanup
000000000000593c l     F .text	0000000000000014 tolower
000000000000573c l     F .text	0000000000000018 malloc
0000000000004b84 l     F .text	0000000000000090 print_stack_arm64
00000000000006cc l     F .text	0000000000000004 sys_remap
0000000000002a68 l     F .text	0000000000000270 ta_elf_print_mappings
0000000000005574 l     F .text	0000000000000054 raw_malloc
0000000000005194 l     F .text	0000000000000084 bgetz
00000000000005b4 l     F .text	000000000000009c __panic
00000000000066dc l     F .text	00000000000001f0 trace_vprintf
0000000000004c14 l     F .text	0000000000000044 _assert_log
00000000000058c0 l     F .text	0000000000000028 isxdigit
00000000000059dc l     F .text	0000000000000028 strnlen
0000000000002d5c l     F .text	0000000000000048 ta_elf_stack_trace_a32
0000000000005754 l     F .text	000000000000001c calloc
0000000000000200 l     F .text	0000000000000060 dlopen_entry
000000000000067c l     F .text	0000000000000004 sys_unmap
0000000000006918 l     F .text	000000000000002c memchr
0000000000003078 l     F .text	0000000000000240 ta_elf_set_elf_phdr_info
0000000000004ae0 l     F .text	0000000000000004 ftrace_map_lr
00000000000029d8 l     F .text	0000000000000090 ta_elf_finalize_mappings
0000000000003394 l     F .text	00000000000000dc ta_elf_add_library
0000000000005770 l     F .text	0000000000000018 realloc
0000000000000260 l     F .text	0000000000000068 dlsym_entry
0000000000005950 l     F .text	0000000000000034 memcmp
00000000000058ac l     F .text	0000000000000014 malloc_add_pool
0000000000005648 l     F .text	00000000000000f4 raw_realloc
00000000000032b8 l     F .text	00000000000000dc ta_elf_finalize_load_main
00000000000054b0 l     F .text	00000000000000c4 bpool
0000000000000680 l     F .text	000000000000000c sys_open_ta_bin
0000000000004ae4 l     F .text	0000000000000004 pauth_strip_pac
0000000000005984 l     F .text	000000000000001c memset
0000000000002cd8 l     F .text	0000000000000084 find_exidx
00000000000059a0 l     F .text	0000000000000024 strcmp
000000000000068c l     F .text	0000000000000008 sys_close_ta_bin
0000000000004a5c l     F .text	0000000000000084 print_stack_arm32
0000000000002da4 l     F .text	0000000000000030 ta_elf_stack_trace_a64
0000000000005ae8 l     F .text	0000000000000050 snprintk
00000000000045a8 l     F .text	00000000000004b4 unwind_stack_arm32
0000000000004ed0 l     F .text	00000000000002c4 bget
0000000000000660 l     F .text	000000000000001c sys_map_zi
0000000000000694 l     F .text	000000000000001c sys_map_ta_bin
0000000000000440 l     F .text	0000000000000174 ldelf
0000000000004c58 l     F .text	0000000000000014 _assert_break
0000000000008128 l     O *ABS*	0000000000000000 _GLOBAL_OFFSET_TABLE_
00000000000028ec l     F .text	00000000000000ec ta_elf_load_dependency
0000000000005a04 l     F .text	000000000000008c __vsnprintf
00000000000006d0 l     F .text	0000000000000004 sys_gen_random_num
0000000000006960 l     F .text	0000000000000028 trace_ext_puts
0000000000006988 l     F .text	0000000000000008 trace_ext_get_thread_id
00000000000006c4 l     F .text	0000000000000008 sys_set_prot
00000000000055d8 l     F .text	0000000000000070 raw_calloc
0000000000004ae8 l     F .text	000000000000009c unwind_stack_arm64
0000000000006944 l     F .text	000000000000001c strlen
0000000000005218 l     F .text	0000000000000298 brel
000000000000247c l     F .text	0000000000000470 ta_elf_load_main
0000000000002dd4 l     F .text	00000000000002a4 ta_elf_set_init_fini_info_compat
00000000000006b0 l     F .text	0000000000000014 sys_copy_from_ta_bin
0000000000005788 l     F .text	0000000000000010 free
0000000000007ce0 g       .rela.got	0000000000000000 __reloc_begin
00000000000001e0 g     F .text	000000000000000c _ldelf_remap
0000000000008160 g     O .data	0000000000000010 .hidden main_elf_queue
0000000000000000 g       .text	0000000000000000 __text_start
00000000000001c8 g     F .text	000000000000000c _ldelf_cp_from_bin
0000000000000168 g     F .text	000000000000000c _ldelf_return
000000000000015c g     F .text	000000000000000c _ldelf_panic
00000000000081f0 g     O .data	0000000000000004 .hidden trace_level
0000000000006af7 g     O .rodata	0000000000000003 .hidden trace_ext_prefix
0000000000000174 g     F .text	000000000000000c _ldelf_log
00000000000001bc g     F .text	000000000000000c _ldelf_map_bin
0000000000004e54 g     F .text	000000000000000c __utee_panic
0000000000004e48 g     F .text	000000000000000c _utee_panic
0000000000007d88 g       .rela.dyn	0000000000000000 __reloc_end
00000000000001ec g     F .text	000000000000000c _ldelf_gen_rnd_num
0000000000000000 g     F .text	0000000000000064 _ldelf_start
00000000000001b0 g     F .text	000000000000000c _ldelf_close_bin
0000000000006990 g       .text	0000000000000000 __text_end
0000000000000198 g     F .text	000000000000000c _ldelf_unmap
00000000000001f8 g     F .text	0000000000000008 tlsdesc_resolve
00000000000001a4 g     F .text	000000000000000c _ldelf_open_bin
00000000000001d4 g     F .text	000000000000000c _ldelf_set_prot
000000000000018c g     F .text	000000000000000c _ldelf_map_zi
0000000000000180 g     F .text	000000000000000c __ldelf_panic



Disassembly of section .text:

0000000000000000 <_ldelf_start>:
_ldelf_start():
/home/ssysarch/Desktop/nick/jetpack_5/Jetson_Linux_R35.4.1_aarch64/Linux_for_Tegra/sources/tegra/optee-src/nv-optee/optee/optee_os/ldelf/start_a64.S:24
       0:	100002e4 	adr	x4, 5c <reloc_begin_rel>
/home/ssysarch/Desktop/nick/jetpack_5/Jetson_Linux_R35.4.1_aarch64/Linux_for_Tegra/sources/tegra/optee-src/nv-optee/optee/optee_os/ldelf/start_a64.S:25
       4:	180002c5 	ldr	w5, 5c <reloc_begin_rel>
/home/ssysarch/Desktop/nick/jetpack_5/Jetson_Linux_R35.4.1_aarch64/Linux_for_Tegra/sources/tegra/optee-src/nv-optee/optee/optee_os/ldelf/start_a64.S:26
       8:	180002c6 	ldr	w6, 60 <reloc_end_rel>
/home/ssysarch/Desktop/nick/jetpack_5/Jetson_Linux_R35.4.1_aarch64/Linux_for_Tegra/sources/tegra/optee-src/nv-optee/optee/optee_os/ldelf/start_a64.S:27
       c:	8b0400a5 	add	x5, x5, x4
/home/ssysarch/Desktop/nick/jetpack_5/Jetson_Linux_R35.4.1_aarch64/Linux_for_Tegra/sources/tegra/optee-src/nv-optee/optee/optee_os/ldelf/start_a64.S:28
      10:	8b0400c6 	add	x6, x6, x4
/home/ssysarch/Desktop/nick/jetpack_5/Jetson_Linux_R35.4.1_aarch64/Linux_for_Tegra/sources/tegra/optee-src/nv-optee/optee/optee_os/ldelf/start_a64.S:29
      14:	eb0600bf 	cmp	x5, x6
/home/ssysarch/Desktop/nick/jetpack_5/Jetson_Linux_R35.4.1_aarch64/Linux_for_Tegra/sources/tegra/optee-src/nv-optee/optee/optee_os/ldelf/start_a64.S:30
      18:	54000180 	b.eq	48 <_ldelf_start+0x48>  // b.none
/home/ssysarch/Desktop/nick/jetpack_5/Jetson_Linux_R35.4.1_aarch64/Linux_for_Tegra/sources/tegra/optee-src/nv-optee/optee/optee_os/ldelf/start_a64.S:32
      1c:	10ffff24 	adr	x4, 0 <_ldelf_start>
/home/ssysarch/Desktop/nick/jetpack_5/Jetson_Linux_R35.4.1_aarch64/Linux_for_Tegra/sources/tegra/optee-src/nv-optee/optee/optee_os/ldelf/start_a64.S:35
      20:	a8c120a7 	ldp	x7, x8, [x5], #16
/home/ssysarch/Desktop/nick/jetpack_5/Jetson_Linux_R35.4.1_aarch64/Linux_for_Tegra/sources/tegra/optee-src/nv-optee/optee/optee_os/ldelf/start_a64.S:36
      24:	f84084a9 	ldr	x9, [x5], #8
/home/ssysarch/Desktop/nick/jetpack_5/Jetson_Linux_R35.4.1_aarch64/Linux_for_Tegra/sources/tegra/optee-src/nv-optee/optee/optee_os/ldelf/start_a64.S:37
      28:	92407d08 	and	x8, x8, #0xffffffff
/home/ssysarch/Desktop/nick/jetpack_5/Jetson_Linux_R35.4.1_aarch64/Linux_for_Tegra/sources/tegra/optee-src/nv-optee/optee/optee_os/ldelf/start_a64.S:38
      2c:	f1100d1f 	cmp	x8, #0x403
/home/ssysarch/Desktop/nick/jetpack_5/Jetson_Linux_R35.4.1_aarch64/Linux_for_Tegra/sources/tegra/optee-src/nv-optee/optee/optee_os/ldelf/start_a64.S:40
      30:	54000121 	b.ne	54 <_ldelf_start+0x54>  // b.any
/home/ssysarch/Desktop/nick/jetpack_5/Jetson_Linux_R35.4.1_aarch64/Linux_for_Tegra/sources/tegra/optee-src/nv-optee/optee/optee_os/ldelf/start_a64.S:46
      34:	8b0400e7 	add	x7, x7, x4
/home/ssysarch/Desktop/nick/jetpack_5/Jetson_Linux_R35.4.1_aarch64/Linux_for_Tegra/sources/tegra/optee-src/nv-optee/optee/optee_os/ldelf/start_a64.S:47
      38:	8b040129 	add	x9, x9, x4
/home/ssysarch/Desktop/nick/jetpack_5/Jetson_Linux_R35.4.1_aarch64/Linux_for_Tegra/sources/tegra/optee-src/nv-optee/optee/optee_os/ldelf/start_a64.S:48
      3c:	f90000e9 	str	x9, [x7]
/home/ssysarch/Desktop/nick/jetpack_5/Jetson_Linux_R35.4.1_aarch64/Linux_for_Tegra/sources/tegra/optee-src/nv-optee/optee/optee_os/ldelf/start_a64.S:50
      40:	eb0600bf 	cmp	x5, x6
/home/ssysarch/Desktop/nick/jetpack_5/Jetson_Linux_R35.4.1_aarch64/Linux_for_Tegra/sources/tegra/optee-src/nv-optee/optee/optee_os/ldelf/start_a64.S:51
      44:	54fffee3 	b.cc	20 <_ldelf_start+0x20>  // b.lo, b.ul, b.last
/home/ssysarch/Desktop/nick/jetpack_5/Jetson_Linux_R35.4.1_aarch64/Linux_for_Tegra/sources/tegra/optee-src/nv-optee/optee/optee_os/ldelf/start_a64.S:53
      48:	940000fe 	bl	440 <ldelf>
/home/ssysarch/Desktop/nick/jetpack_5/Jetson_Linux_R35.4.1_aarch64/Linux_for_Tegra/sources/tegra/optee-src/nv-optee/optee/optee_os/ldelf/start_a64.S:54
      4c:	d2800000 	mov	x0, #0x0                   	// #0
/home/ssysarch/Desktop/nick/jetpack_5/Jetson_Linux_R35.4.1_aarch64/Linux_for_Tegra/sources/tegra/optee-src/nv-optee/optee/optee_os/ldelf/start_a64.S:55
      50:	94000046 	bl	168 <_ldelf_return>
/home/ssysarch/Desktop/nick/jetpack_5/Jetson_Linux_R35.4.1_aarch64/Linux_for_Tegra/sources/tegra/optee-src/nv-optee/optee/optee_os/ldelf/start_a64.S:56
      54:	d2800000 	mov	x0, #0x0                   	// #0
/home/ssysarch/Desktop/nick/jetpack_5/Jetson_Linux_R35.4.1_aarch64/Linux_for_Tegra/sources/tegra/optee-src/nv-optee/optee/optee_os/ldelf/start_a64.S:57
      58:	94000041 	bl	15c <_ldelf_panic>

000000000000005c <reloc_begin_rel>:
reloc_begin_rel():
/home/ssysarch/Desktop/nick/jetpack_5/Jetson_Linux_R35.4.1_aarch64/Linux_for_Tegra/sources/tegra/optee-src/nv-optee/optee/optee_os/ldelf/start_a64.S:57
      5c:	00007c84 	.word	0x00007c84

0000000000000060 <reloc_end_rel>:
reloc_end_rel():
/home/ssysarch/Desktop/nick/jetpack_5/Jetson_Linux_R35.4.1_aarch64/Linux_for_Tegra/sources/tegra/optee-src/nv-optee/optee/optee_os/ldelf/start_a64.S:57
      60:	00007d28 	.word	0x00007d28
	...

0000000000000070 <memcpy>:
memcpy():
/home/ssysarch/Desktop/nick/jetpack_5/Jetson_Linux_R35.4.1_aarch64/Linux_for_Tegra/sources/tegra/optee-src/nv-optee/optee/optee_os/lib/libutils/isoc/newlib/memcpy.c:106
      70:	f1007c5f 	cmp	x2, #0x1f
      74:	54000629 	b.ls	138 <memcpy+0xc8>  // b.plast
/home/ssysarch/Desktop/nick/jetpack_5/Jetson_Linux_R35.4.1_aarch64/Linux_for_Tegra/sources/tegra/optee-src/nv-optee/optee/optee_os/lib/libutils/isoc/newlib/memcpy.c:106 (discriminator 1)
      78:	aa000025 	orr	x5, x1, x0
      7c:	f24008a5 	ands	x5, x5, #0x7
      80:	54000641 	b.ne	148 <memcpy+0xd8>  // b.any
      84:	d1008048 	sub	x8, x2, #0x20
/home/ssysarch/Desktop/nick/jetpack_5/Jetson_Linux_R35.4.1_aarch64/Linux_for_Tegra/sources/tegra/optee-src/nv-optee/optee/optee_os/lib/libutils/isoc/newlib/memcpy.c:108
      88:	aa0103e4 	mov	x4, x1
      8c:	927be908 	and	x8, x8, #0xffffffffffffffe0
/home/ssysarch/Desktop/nick/jetpack_5/Jetson_Linux_R35.4.1_aarch64/Linux_for_Tegra/sources/tegra/optee-src/nv-optee/optee/optee_os/lib/libutils/isoc/newlib/memcpy.c:107
      90:	aa0003e3 	mov	x3, x0
      94:	91008108 	add	x8, x8, #0x20
      98:	8b080007 	add	x7, x0, x8
      9c:	d503201f 	nop
/home/ssysarch/Desktop/nick/jetpack_5/Jetson_Linux_R35.4.1_aarch64/Linux_for_Tegra/sources/tegra/optee-src/nv-optee/optee/optee_os/lib/libutils/isoc/newlib/memcpy.c:112
      a0:	f9400086 	ldr	x6, [x4]
      a4:	f9000066 	str	x6, [x3]
/home/ssysarch/Desktop/nick/jetpack_5/Jetson_Linux_R35.4.1_aarch64/Linux_for_Tegra/sources/tegra/optee-src/nv-optee/optee/optee_os/lib/libutils/isoc/newlib/memcpy.c:113
      a8:	91008084 	add	x4, x4, #0x20
      ac:	91008063 	add	x3, x3, #0x20
      b0:	f85e8086 	ldur	x6, [x4, #-24]
      b4:	f81e8066 	stur	x6, [x3, #-24]
/home/ssysarch/Desktop/nick/jetpack_5/Jetson_Linux_R35.4.1_aarch64/Linux_for_Tegra/sources/tegra/optee-src/nv-optee/optee/optee_os/lib/libutils/isoc/newlib/memcpy.c:114
      b8:	f85f0086 	ldur	x6, [x4, #-16]
      bc:	f81f0066 	stur	x6, [x3, #-16]
/home/ssysarch/Desktop/nick/jetpack_5/Jetson_Linux_R35.4.1_aarch64/Linux_for_Tegra/sources/tegra/optee-src/nv-optee/optee/optee_os/lib/libutils/isoc/newlib/memcpy.c:111
      c0:	eb0300ff 	cmp	x7, x3
/home/ssysarch/Desktop/nick/jetpack_5/Jetson_Linux_R35.4.1_aarch64/Linux_for_Tegra/sources/tegra/optee-src/nv-optee/optee/optee_os/lib/libutils/isoc/newlib/memcpy.c:115
      c4:	f85f8086 	ldur	x6, [x4, #-8]
      c8:	f81f8066 	stur	x6, [x3, #-8]
/home/ssysarch/Desktop/nick/jetpack_5/Jetson_Linux_R35.4.1_aarch64/Linux_for_Tegra/sources/tegra/optee-src/nv-optee/optee/optee_os/lib/libutils/isoc/newlib/memcpy.c:111
      cc:	54fffea1 	b.ne	a0 <memcpy+0x30>  // b.any
      d0:	8b080021 	add	x1, x1, x8
/home/ssysarch/Desktop/nick/jetpack_5/Jetson_Linux_R35.4.1_aarch64/Linux_for_Tegra/sources/tegra/optee-src/nv-optee/optee/optee_os/lib/libutils/isoc/newlib/memcpy.c:120
      d4:	f27d045f 	tst	x2, #0x18
      d8:	92401044 	and	x4, x2, #0x1f
      dc:	540003c0 	b.eq	154 <memcpy+0xe4>  // b.none
/home/ssysarch/Desktop/nick/jetpack_5/Jetson_Linux_R35.4.1_aarch64/Linux_for_Tegra/sources/tegra/optee-src/nv-optee/optee/optee_os/lib/libutils/isoc/newlib/memcpy.c:121
      e0:	f8656826 	ldr	x6, [x1, x5]
      e4:	f8256866 	str	x6, [x3, x5]
/home/ssysarch/Desktop/nick/jetpack_5/Jetson_Linux_R35.4.1_aarch64/Linux_for_Tegra/sources/tegra/optee-src/nv-optee/optee/optee_os/lib/libutils/isoc/newlib/memcpy.c:120
      e8:	910020a5 	add	x5, x5, #0x8
      ec:	cb050086 	sub	x6, x4, x5
      f0:	f1001cdf 	cmp	x6, #0x7
      f4:	54ffff68 	b.hi	e0 <memcpy+0x70>  // b.pmore
      f8:	d1002084 	sub	x4, x4, #0x8
      fc:	92400842 	and	x2, x2, #0x7
     100:	927df084 	and	x4, x4, #0xfffffffffffffff8
/home/ssysarch/Desktop/nick/jetpack_5/Jetson_Linux_R35.4.1_aarch64/Linux_for_Tegra/sources/tegra/optee-src/nv-optee/optee/optee_os/lib/libutils/isoc/newlib/memcpy.c:130
     104:	d1000446 	sub	x6, x2, #0x1
     108:	91002084 	add	x4, x4, #0x8
     10c:	8b040063 	add	x3, x3, x4
     110:	8b040021 	add	x1, x1, x4
     114:	b4000102 	cbz	x2, 134 <memcpy+0xc4>
/home/ssysarch/Desktop/nick/jetpack_5/Jetson_Linux_R35.4.1_aarch64/Linux_for_Tegra/sources/tegra/optee-src/nv-optee/optee/optee_os/lib/libutils/isoc/newlib/memcpy.c:99
     118:	d2800002 	mov	x2, #0x0                   	// #0
     11c:	d503201f 	nop
/home/ssysarch/Desktop/nick/jetpack_5/Jetson_Linux_R35.4.1_aarch64/Linux_for_Tegra/sources/tegra/optee-src/nv-optee/optee/optee_os/lib/libutils/isoc/newlib/memcpy.c:131
     120:	38626825 	ldrb	w5, [x1, x2]
/home/ssysarch/Desktop/nick/jetpack_5/Jetson_Linux_R35.4.1_aarch64/Linux_for_Tegra/sources/tegra/optee-src/nv-optee/optee/optee_os/lib/libutils/isoc/newlib/memcpy.c:130
     124:	eb0200df 	cmp	x6, x2
/home/ssysarch/Desktop/nick/jetpack_5/Jetson_Linux_R35.4.1_aarch64/Linux_for_Tegra/sources/tegra/optee-src/nv-optee/optee/optee_os/lib/libutils/isoc/newlib/memcpy.c:131
     128:	38226865 	strb	w5, [x3, x2]
/home/ssysarch/Desktop/nick/jetpack_5/Jetson_Linux_R35.4.1_aarch64/Linux_for_Tegra/sources/tegra/optee-src/nv-optee/optee/optee_os/lib/libutils/isoc/newlib/memcpy.c:130
     12c:	91000442 	add	x2, x2, #0x1
     130:	54ffff81 	b.ne	120 <memcpy+0xb0>  // b.any
/home/ssysarch/Desktop/nick/jetpack_5/Jetson_Linux_R35.4.1_aarch64/Linux_for_Tegra/sources/tegra/optee-src/nv-optee/optee/optee_os/lib/libutils/isoc/newlib/memcpy.c:135
     134:	d65f03c0 	ret
/home/ssysarch/Desktop/nick/jetpack_5/Jetson_Linux_R35.4.1_aarch64/Linux_for_Tegra/sources/tegra/optee-src/nv-optee/optee/optee_os/lib/libutils/isoc/newlib/memcpy.c:99
     138:	aa0003e3 	mov	x3, x0
/home/ssysarch/Desktop/nick/jetpack_5/Jetson_Linux_R35.4.1_aarch64/Linux_for_Tegra/sources/tegra/optee-src/nv-optee/optee/optee_os/lib/libutils/isoc/newlib/memcpy.c:130
     13c:	d1000446 	sub	x6, x2, #0x1
     140:	b5fffec2 	cbnz	x2, 118 <memcpy+0xa8>
/home/ssysarch/Desktop/nick/jetpack_5/Jetson_Linux_R35.4.1_aarch64/Linux_for_Tegra/sources/tegra/optee-src/nv-optee/optee/optee_os/lib/libutils/isoc/newlib/memcpy.c:135
     144:	d65f03c0 	ret
/home/ssysarch/Desktop/nick/jetpack_5/Jetson_Linux_R35.4.1_aarch64/Linux_for_Tegra/sources/tegra/optee-src/nv-optee/optee/optee_os/lib/libutils/isoc/newlib/memcpy.c:130
     148:	d1000446 	sub	x6, x2, #0x1
/home/ssysarch/Desktop/nick/jetpack_5/Jetson_Linux_R35.4.1_aarch64/Linux_for_Tegra/sources/tegra/optee-src/nv-optee/optee/optee_os/lib/libutils/isoc/newlib/memcpy.c:99
     14c:	aa0003e3 	mov	x3, x0
     150:	17fffff2 	b	118 <memcpy+0xa8>
/home/ssysarch/Desktop/nick/jetpack_5/Jetson_Linux_R35.4.1_aarch64/Linux_for_Tegra/sources/tegra/optee-src/nv-optee/optee/optee_os/lib/libutils/isoc/newlib/memcpy.c:120
     154:	aa0403e2 	mov	x2, x4
     158:	17fffff9 	b	13c <memcpy+0xcc>

000000000000015c <_ldelf_panic>:
_ldelf_panic():
/home/ssysarch/Desktop/nick/jetpack_5/Jetson_Linux_R35.4.1_aarch64/Linux_for_Tegra/sources/tegra/optee-src/nv-optee/optee/optee_os/ldelf/syscalls_a64.S:25
     15c:	a9bf7bfd 	stp	x29, x30, [sp, #-16]!
/home/ssysarch/Desktop/nick/jetpack_5/Jetson_Linux_R35.4.1_aarch64/Linux_for_Tegra/sources/tegra/optee-src/nv-optee/optee/optee_os/ldelf/syscalls_a64.S:26
     160:	910003e1 	mov	x1, sp
/home/ssysarch/Desktop/nick/jetpack_5/Jetson_Linux_R35.4.1_aarch64/Linux_for_Tegra/sources/tegra/optee-src/nv-optee/optee/optee_os/ldelf/syscalls_a64.S:27
     164:	94000007 	bl	180 <__ldelf_panic>

0000000000000168 <_ldelf_return>:
_ldelf_return():
/home/ssysarch/Desktop/nick/jetpack_5/Jetson_Linux_R35.4.1_aarch64/Linux_for_Tegra/sources/tegra/optee-src/nv-optee/optee/optee_os/ldelf/syscalls_asm.S:9
     168:	d2800008 	mov	x8, #0x0                   	// #0
     16c:	d4000001 	svc	#0x0
     170:	d65f03c0 	ret

0000000000000174 <_ldelf_log>:
_ldelf_log():
/home/ssysarch/Desktop/nick/jetpack_5/Jetson_Linux_R35.4.1_aarch64/Linux_for_Tegra/sources/tegra/optee-src/nv-optee/optee/optee_os/ldelf/syscalls_asm.S:10
     174:	d2800028 	mov	x8, #0x1                   	// #1
     178:	d4000001 	svc	#0x0
     17c:	d65f03c0 	ret

0000000000000180 <__ldelf_panic>:
__ldelf_panic():
/home/ssysarch/Desktop/nick/jetpack_5/Jetson_Linux_R35.4.1_aarch64/Linux_for_Tegra/sources/tegra/optee-src/nv-optee/optee/optee_os/ldelf/syscalls_asm.S:11
     180:	d2800048 	mov	x8, #0x2                   	// #2
     184:	d4000001 	svc	#0x0
     188:	d65f03c0 	ret

000000000000018c <_ldelf_map_zi>:
_ldelf_map_zi():
/home/ssysarch/Desktop/nick/jetpack_5/Jetson_Linux_R35.4.1_aarch64/Linux_for_Tegra/sources/tegra/optee-src/nv-optee/optee/optee_os/ldelf/syscalls_asm.S:12
     18c:	d2800068 	mov	x8, #0x3                   	// #3
     190:	d4000001 	svc	#0x0
     194:	d65f03c0 	ret

0000000000000198 <_ldelf_unmap>:
_ldelf_unmap():
/home/ssysarch/Desktop/nick/jetpack_5/Jetson_Linux_R35.4.1_aarch64/Linux_for_Tegra/sources/tegra/optee-src/nv-optee/optee/optee_os/ldelf/syscalls_asm.S:13
     198:	d2800088 	mov	x8, #0x4                   	// #4
     19c:	d4000001 	svc	#0x0
     1a0:	d65f03c0 	ret

00000000000001a4 <_ldelf_open_bin>:
_ldelf_open_bin():
/home/ssysarch/Desktop/nick/jetpack_5/Jetson_Linux_R35.4.1_aarch64/Linux_for_Tegra/sources/tegra/optee-src/nv-optee/optee/optee_os/ldelf/syscalls_asm.S:14
     1a4:	d28000a8 	mov	x8, #0x5                   	// #5
     1a8:	d4000001 	svc	#0x0
     1ac:	d65f03c0 	ret

00000000000001b0 <_ldelf_close_bin>:
_ldelf_close_bin():
/home/ssysarch/Desktop/nick/jetpack_5/Jetson_Linux_R35.4.1_aarch64/Linux_for_Tegra/sources/tegra/optee-src/nv-optee/optee/optee_os/ldelf/syscalls_asm.S:15
     1b0:	d28000c8 	mov	x8, #0x6                   	// #6
     1b4:	d4000001 	svc	#0x0
     1b8:	d65f03c0 	ret

00000000000001bc <_ldelf_map_bin>:
_ldelf_map_bin():
/home/ssysarch/Desktop/nick/jetpack_5/Jetson_Linux_R35.4.1_aarch64/Linux_for_Tegra/sources/tegra/optee-src/nv-optee/optee/optee_os/ldelf/syscalls_asm.S:16
     1bc:	d28000e8 	mov	x8, #0x7                   	// #7
     1c0:	d4000001 	svc	#0x0
     1c4:	d65f03c0 	ret

00000000000001c8 <_ldelf_cp_from_bin>:
_ldelf_cp_from_bin():
/home/ssysarch/Desktop/nick/jetpack_5/Jetson_Linux_R35.4.1_aarch64/Linux_for_Tegra/sources/tegra/optee-src/nv-optee/optee/optee_os/ldelf/syscalls_asm.S:17
     1c8:	d2800108 	mov	x8, #0x8                   	// #8
     1cc:	d4000001 	svc	#0x0
     1d0:	d65f03c0 	ret

00000000000001d4 <_ldelf_set_prot>:
_ldelf_set_prot():
/home/ssysarch/Desktop/nick/jetpack_5/Jetson_Linux_R35.4.1_aarch64/Linux_for_Tegra/sources/tegra/optee-src/nv-optee/optee/optee_os/ldelf/syscalls_asm.S:18
     1d4:	d2800128 	mov	x8, #0x9                   	// #9
     1d8:	d4000001 	svc	#0x0
     1dc:	d65f03c0 	ret

00000000000001e0 <_ldelf_remap>:
_ldelf_remap():
/home/ssysarch/Desktop/nick/jetpack_5/Jetson_Linux_R35.4.1_aarch64/Linux_for_Tegra/sources/tegra/optee-src/nv-optee/optee/optee_os/ldelf/syscalls_asm.S:19
     1e0:	d2800148 	mov	x8, #0xa                   	// #10
     1e4:	d4000001 	svc	#0x0
     1e8:	d65f03c0 	ret

00000000000001ec <_ldelf_gen_rnd_num>:
_ldelf_gen_rnd_num():
/home/ssysarch/Desktop/nick/jetpack_5/Jetson_Linux_R35.4.1_aarch64/Linux_for_Tegra/sources/tegra/optee-src/nv-optee/optee/optee_os/ldelf/syscalls_asm.S:20
     1ec:	d2800168 	mov	x8, #0xb                   	// #11
     1f0:	d4000001 	svc	#0x0
     1f4:	d65f03c0 	ret

00000000000001f8 <tlsdesc_resolve>:
tlsdesc_resolve():
/home/ssysarch/Desktop/nick/jetpack_5/Jetson_Linux_R35.4.1_aarch64/Linux_for_Tegra/sources/tegra/optee-src/nv-optee/optee/optee_os/ldelf/tlsdesc_rel_a64.S:17
     1f8:	f9400400 	ldr	x0, [x0, #8]
/home/ssysarch/Desktop/nick/jetpack_5/Jetson_Linux_R35.4.1_aarch64/Linux_for_Tegra/sources/tegra/optee-src/nv-optee/optee/optee_os/ldelf/tlsdesc_rel_a64.S:18
     1fc:	d65f03c0 	ret

0000000000000200 <dlopen_entry>:
dlopen_entry():
/home/ssysarch/Desktop/nick/jetpack_5/Jetson_Linux_R35.4.1_aarch64/Linux_for_Tegra/sources/tegra/optee-src/nv-optee/optee/optee_os/ldelf/dl.c:12
     200:	a9bd7bfd 	stp	x29, x30, [sp, #-48]!
/home/ssysarch/Desktop/nick/jetpack_5/Jetson_Linux_R35.4.1_aarch64/Linux_for_Tegra/sources/tegra/optee-src/nv-optee/optee/optee_os/ldelf/dl.c:15
     204:	52822041 	mov	w1, #0x1102                	// #4354
/home/ssysarch/Desktop/nick/jetpack_5/Jetson_Linux_R35.4.1_aarch64/Linux_for_Tegra/sources/tegra/optee-src/nv-optee/optee/optee_os/ldelf/dl.c:12
     208:	910003fd 	mov	x29, sp
/home/ssysarch/Desktop/nick/jetpack_5/Jetson_Linux_R35.4.1_aarch64/Linux_for_Tegra/sources/tegra/optee-src/nv-optee/optee/optee_os/ldelf/dl.c:15
     20c:	b9401802 	ldr	w2, [x0, #24]
/home/ssysarch/Desktop/nick/jetpack_5/Jetson_Linux_R35.4.1_aarch64/Linux_for_Tegra/sources/tegra/optee-src/nv-optee/optee/optee_os/ldelf/dl.c:12
     210:	f9000bf3 	str	x19, [sp, #16]
/home/ssysarch/Desktop/nick/jetpack_5/Jetson_Linux_R35.4.1_aarch64/Linux_for_Tegra/sources/tegra/optee-src/nv-optee/optee/optee_os/ldelf/dl.c:13
     214:	a9027fff 	stp	xzr, xzr, [sp, #32]
/home/ssysarch/Desktop/nick/jetpack_5/Jetson_Linux_R35.4.1_aarch64/Linux_for_Tegra/sources/tegra/optee-src/nv-optee/optee/optee_os/ldelf/dl.c:15
     218:	6b01005f 	cmp	w2, w1
     21c:	54000161 	b.ne	248 <dlopen_entry+0x48>  // b.any
/home/ssysarch/Desktop/nick/jetpack_5/Jetson_Linux_R35.4.1_aarch64/Linux_for_Tegra/sources/tegra/optee-src/nv-optee/optee/optee_os/ldelf/dl.c:18
     220:	91002013 	add	x19, x0, #0x8
     224:	910083e1 	add	x1, sp, #0x20
     228:	aa1303e0 	mov	x0, x19
     22c:	d2800202 	mov	x2, #0x10                  	// #16
     230:	940015c8 	bl	5950 <memcmp>
     234:	34000120 	cbz	w0, 258 <dlopen_entry+0x58>
/home/ssysarch/Desktop/nick/jetpack_5/Jetson_Linux_R35.4.1_aarch64/Linux_for_Tegra/sources/tegra/optee-src/nv-optee/optee/optee_os/ldelf/dl.c:21
     238:	aa1303e0 	mov	x0, x19
/home/ssysarch/Desktop/nick/jetpack_5/Jetson_Linux_R35.4.1_aarch64/Linux_for_Tegra/sources/tegra/optee-src/nv-optee/optee/optee_os/ldelf/dl.c:22
     23c:	f9400bf3 	ldr	x19, [sp, #16]
     240:	a8c37bfd 	ldp	x29, x30, [sp], #48
/home/ssysarch/Desktop/nick/jetpack_5/Jetson_Linux_R35.4.1_aarch64/Linux_for_Tegra/sources/tegra/optee-src/nv-optee/optee/optee_os/ldelf/dl.c:21
     244:	14000c54 	b	3394 <ta_elf_add_library>
/home/ssysarch/Desktop/nick/jetpack_5/Jetson_Linux_R35.4.1_aarch64/Linux_for_Tegra/sources/tegra/optee-src/nv-optee/optee/optee_os/ldelf/dl.c:16
     248:	129fff20 	mov	w0, #0xffff0006            	// #-65530
/home/ssysarch/Desktop/nick/jetpack_5/Jetson_Linux_R35.4.1_aarch64/Linux_for_Tegra/sources/tegra/optee-src/nv-optee/optee/optee_os/ldelf/dl.c:22
     24c:	f9400bf3 	ldr	x19, [sp, #16]
     250:	a8c37bfd 	ldp	x29, x30, [sp], #48
     254:	d65f03c0 	ret
/home/ssysarch/Desktop/nick/jetpack_5/Jetson_Linux_R35.4.1_aarch64/Linux_for_Tegra/sources/tegra/optee-src/nv-optee/optee/optee_os/ldelf/dl.c:19
     258:	52800000 	mov	w0, #0x0                   	// #0
     25c:	17fffffc 	b	24c <dlopen_entry+0x4c>

0000000000000260 <dlsym_entry>:
dlsym_entry():
/home/ssysarch/Desktop/nick/jetpack_5/Jetson_Linux_R35.4.1_aarch64/Linux_for_Tegra/sources/tegra/optee-src/nv-optee/optee/optee_os/ldelf/dl.c:25
     260:	a9bd7bfd 	stp	x29, x30, [sp, #-48]!
/home/ssysarch/Desktop/nick/jetpack_5/Jetson_Linux_R35.4.1_aarch64/Linux_for_Tegra/sources/tegra/optee-src/nv-optee/optee/optee_os/ldelf/dl.c:29
     264:	d2800202 	mov	x2, #0x10                  	// #16
/home/ssysarch/Desktop/nick/jetpack_5/Jetson_Linux_R35.4.1_aarch64/Linux_for_Tegra/sources/tegra/optee-src/nv-optee/optee/optee_os/ldelf/dl.c:25
     268:	910003fd 	mov	x29, sp
     26c:	a90153f3 	stp	x19, x20, [sp, #16]
/home/ssysarch/Desktop/nick/jetpack_5/Jetson_Linux_R35.4.1_aarch64/Linux_for_Tegra/sources/tegra/optee-src/nv-optee/optee/optee_os/ldelf/dl.c:29
     270:	91002014 	add	x20, x0, #0x8
/home/ssysarch/Desktop/nick/jetpack_5/Jetson_Linux_R35.4.1_aarch64/Linux_for_Tegra/sources/tegra/optee-src/nv-optee/optee/optee_os/ldelf/dl.c:25
     274:	aa0003f3 	mov	x19, x0
/home/ssysarch/Desktop/nick/jetpack_5/Jetson_Linux_R35.4.1_aarch64/Linux_for_Tegra/sources/tegra/optee-src/nv-optee/optee/optee_os/ldelf/dl.c:29
     278:	910083e1 	add	x1, sp, #0x20
     27c:	aa1403e0 	mov	x0, x20
/home/ssysarch/Desktop/nick/jetpack_5/Jetson_Linux_R35.4.1_aarch64/Linux_for_Tegra/sources/tegra/optee-src/nv-optee/optee/optee_os/ldelf/dl.c:27
     280:	a9027fff 	stp	xzr, xzr, [sp, #32]
/home/ssysarch/Desktop/nick/jetpack_5/Jetson_Linux_R35.4.1_aarch64/Linux_for_Tegra/sources/tegra/optee-src/nv-optee/optee/optee_os/ldelf/dl.c:29
     284:	940015b3 	bl	5950 <memcmp>
     288:	34000120 	cbz	w0, 2ac <dlsym_entry+0x4c>
/home/ssysarch/Desktop/nick/jetpack_5/Jetson_Linux_R35.4.1_aarch64/Linux_for_Tegra/sources/tegra/optee-src/nv-optee/optee/optee_os/ldelf/dl.c:30
     28c:	aa1403e0 	mov	x0, x20
     290:	940007ca 	bl	21b8 <ta_elf_find_elf>
     294:	aa0003e3 	mov	x3, x0
/home/ssysarch/Desktop/nick/jetpack_5/Jetson_Linux_R35.4.1_aarch64/Linux_for_Tegra/sources/tegra/optee-src/nv-optee/optee/optee_os/ldelf/dl.c:31
     298:	b50000c0 	cbnz	x0, 2b0 <dlsym_entry+0x50>
/home/ssysarch/Desktop/nick/jetpack_5/Jetson_Linux_R35.4.1_aarch64/Linux_for_Tegra/sources/tegra/optee-src/nv-optee/optee/optee_os/ldelf/dl.c:37
     29c:	129ffee0 	mov	w0, #0xffff0008            	// #-65528
     2a0:	a94153f3 	ldp	x19, x20, [sp, #16]
     2a4:	a8c37bfd 	ldp	x29, x30, [sp], #48
     2a8:	d65f03c0 	ret
/home/ssysarch/Desktop/nick/jetpack_5/Jetson_Linux_R35.4.1_aarch64/Linux_for_Tegra/sources/tegra/optee-src/nv-optee/optee/optee_os/ldelf/dl.c:26
     2ac:	d2800003 	mov	x3, #0x0                   	// #0
/home/ssysarch/Desktop/nick/jetpack_5/Jetson_Linux_R35.4.1_aarch64/Linux_for_Tegra/sources/tegra/optee-src/nv-optee/optee/optee_os/ldelf/dl.c:35
     2b0:	91006261 	add	x1, x19, #0x18
     2b4:	91008260 	add	x0, x19, #0x20
/home/ssysarch/Desktop/nick/jetpack_5/Jetson_Linux_R35.4.1_aarch64/Linux_for_Tegra/sources/tegra/optee-src/nv-optee/optee/optee_os/ldelf/dl.c:37
     2b8:	a94153f3 	ldp	x19, x20, [sp, #16]
/home/ssysarch/Desktop/nick/jetpack_5/Jetson_Linux_R35.4.1_aarch64/Linux_for_Tegra/sources/tegra/optee-src/nv-optee/optee/optee_os/ldelf/dl.c:35
     2bc:	d2800002 	mov	x2, #0x0                   	// #0
/home/ssysarch/Desktop/nick/jetpack_5/Jetson_Linux_R35.4.1_aarch64/Linux_for_Tegra/sources/tegra/optee-src/nv-optee/optee/optee_os/ldelf/dl.c:37
     2c0:	a8c37bfd 	ldp	x29, x30, [sp], #48
/home/ssysarch/Desktop/nick/jetpack_5/Jetson_Linux_R35.4.1_aarch64/Linux_for_Tegra/sources/tegra/optee-src/nv-optee/optee/optee_os/ldelf/dl.c:35
     2c4:	14000dc1 	b	39c8 <ta_elf_resolve_sym>

00000000000002c8 <dl_entry>:
dl_entry():
/home/ssysarch/Desktop/nick/jetpack_5/Jetson_Linux_R35.4.1_aarch64/Linux_for_Tegra/sources/tegra/optee-src/nv-optee/optee/optee_os/ldelf/main.c:108
     2c8:	a9be7bfd 	stp	x29, x30, [sp, #-32]!
     2cc:	910003fd 	mov	x29, sp
/home/ssysarch/Desktop/nick/jetpack_5/Jetson_Linux_R35.4.1_aarch64/Linux_for_Tegra/sources/tegra/optee-src/nv-optee/optee/optee_os/ldelf/main.c:109
     2d0:	b9400001 	ldr	w1, [x0]
/home/ssysarch/Desktop/nick/jetpack_5/Jetson_Linux_R35.4.1_aarch64/Linux_for_Tegra/sources/tegra/optee-src/nv-optee/optee/optee_os/ldelf/main.c:108
     2d4:	f9000bf3 	str	x19, [sp, #16]
     2d8:	aa0003f3 	mov	x19, x0
/home/ssysarch/Desktop/nick/jetpack_5/Jetson_Linux_R35.4.1_aarch64/Linux_for_Tegra/sources/tegra/optee-src/nv-optee/optee/optee_os/ldelf/main.c:109
     2dc:	340000a1 	cbz	w1, 2f0 <dl_entry+0x28>
     2e0:	7100043f 	cmp	w1, #0x1
     2e4:	540000c0 	b.eq	2fc <dl_entry+0x34>  // b.none
/home/ssysarch/Desktop/nick/jetpack_5/Jetson_Linux_R35.4.1_aarch64/Linux_for_Tegra/sources/tegra/optee-src/nv-optee/optee/optee_os/ldelf/main.c:117
     2e8:	129ffea0 	mov	w0, #0xffff000a            	// #-65526
     2ec:	14000002 	b	2f4 <dl_entry+0x2c>
/home/ssysarch/Desktop/nick/jetpack_5/Jetson_Linux_R35.4.1_aarch64/Linux_for_Tegra/sources/tegra/optee-src/nv-optee/optee/optee_os/ldelf/main.c:111
     2f0:	97ffffc4 	bl	200 <dlopen_entry>
/home/ssysarch/Desktop/nick/jetpack_5/Jetson_Linux_R35.4.1_aarch64/Linux_for_Tegra/sources/tegra/optee-src/nv-optee/optee/optee_os/ldelf/main.c:117
     2f4:	b9000660 	str	w0, [x19, #4]
/home/ssysarch/Desktop/nick/jetpack_5/Jetson_Linux_R35.4.1_aarch64/Linux_for_Tegra/sources/tegra/optee-src/nv-optee/optee/optee_os/ldelf/main.c:120
     2f8:	940000d6 	bl	650 <sys_return_cleanup>
/home/ssysarch/Desktop/nick/jetpack_5/Jetson_Linux_R35.4.1_aarch64/Linux_for_Tegra/sources/tegra/optee-src/nv-optee/optee/optee_os/ldelf/main.c:114
     2fc:	97ffffd9 	bl	260 <dlsym_entry>
     300:	17fffffd 	b	2f4 <dl_entry+0x2c>

0000000000000304 <print_to_console>:
print_to_console():
/home/ssysarch/Desktop/nick/jetpack_5/Jetson_Linux_R35.4.1_aarch64/Linux_for_Tegra/sources/tegra/optee-src/nv-optee/optee/optee_os/ldelf/main.c:28
     304:	a9bc7bfd 	stp	x29, x30, [sp, #-64]!
/home/ssysarch/Desktop/nick/jetpack_5/Jetson_Linux_R35.4.1_aarch64/Linux_for_Tegra/sources/tegra/optee-src/nv-optee/optee/optee_os/ldelf/main.c:29
     308:	910083e5 	add	x5, sp, #0x20
/home/ssysarch/Desktop/nick/jetpack_5/Jetson_Linux_R35.4.1_aarch64/Linux_for_Tegra/sources/tegra/optee-src/nv-optee/optee/optee_os/ldelf/main.c:28
     30c:	910003fd 	mov	x29, sp
/home/ssysarch/Desktop/nick/jetpack_5/Jetson_Linux_R35.4.1_aarch64/Linux_for_Tegra/sources/tegra/optee-src/nv-optee/optee/optee_os/ldelf/main.c:29
     310:	aa0503e0 	mov	x0, x5
/home/ssysarch/Desktop/nick/jetpack_5/Jetson_Linux_R35.4.1_aarch64/Linux_for_Tegra/sources/tegra/optee-src/nv-optee/optee/optee_os/ldelf/main.c:28
     314:	f9000bf3 	str	x19, [sp, #16]
     318:	aa0103f3 	mov	x19, x1
     31c:	aa0203e1 	mov	x1, x2
/home/ssysarch/Desktop/nick/jetpack_5/Jetson_Linux_R35.4.1_aarch64/Linux_for_Tegra/sources/tegra/optee-src/nv-optee/optee/optee_os/ldelf/main.c:29
     320:	d2800402 	mov	x2, #0x20                  	// #32
     324:	97ffff53 	bl	70 <memcpy>
     328:	aa0003e5 	mov	x5, x0
     32c:	aa1303e4 	mov	x4, x19
     330:	52800023 	mov	w3, #0x1                   	// #1
     334:	52800022 	mov	w2, #0x1                   	// #1
     338:	52800001 	mov	w1, #0x0                   	// #0
     33c:	d2800000 	mov	x0, #0x0                   	// #0
     340:	940018e7 	bl	66dc <trace_vprintf>
/home/ssysarch/Desktop/nick/jetpack_5/Jetson_Linux_R35.4.1_aarch64/Linux_for_Tegra/sources/tegra/optee-src/nv-optee/optee/optee_os/ldelf/main.c:30
     344:	f9400bf3 	ldr	x19, [sp, #16]
     348:	a8c47bfd 	ldp	x29, x30, [sp], #64
     34c:	d65f03c0 	ret

0000000000000350 <dump_ta_state>:
dump_ta_state():
/home/ssysarch/Desktop/nick/jetpack_5/Jetson_Linux_R35.4.1_aarch64/Linux_for_Tegra/sources/tegra/optee-src/nv-optee/optee/optee_os/ldelf/main.c:33
     350:	a9bd7bfd 	stp	x29, x30, [sp, #-48]!
     354:	910003fd 	mov	x29, sp
     358:	a90153f3 	stp	x19, x20, [sp, #16]
/home/ssysarch/Desktop/nick/jetpack_5/Jetson_Linux_R35.4.1_aarch64/Linux_for_Tegra/sources/tegra/optee-src/nv-optee/optee/optee_os/ldelf/main.c:34
     35c:	90000054 	adrp	x20, 8000 <_DYNAMIC>
     360:	f9409a94 	ldr	x20, [x20, #304]
/home/ssysarch/Desktop/nick/jetpack_5/Jetson_Linux_R35.4.1_aarch64/Linux_for_Tegra/sources/tegra/optee-src/nv-optee/optee/optee_os/ldelf/main.c:33
     364:	f90013f5 	str	x21, [sp, #32]
/home/ssysarch/Desktop/nick/jetpack_5/Jetson_Linux_R35.4.1_aarch64/Linux_for_Tegra/sources/tegra/optee-src/nv-optee/optee/optee_os/ldelf/main.c:34
     368:	f9400295 	ldr	x21, [x20]
/home/ssysarch/Desktop/nick/jetpack_5/Jetson_Linux_R35.4.1_aarch64/Linux_for_Tegra/sources/tegra/optee-src/nv-optee/optee/optee_os/ldelf/main.c:36
     36c:	b4000095 	cbz	x21, 37c <dump_ta_state+0x2c>
     370:	aa0003f3 	mov	x19, x0
/home/ssysarch/Desktop/nick/jetpack_5/Jetson_Linux_R35.4.1_aarch64/Linux_for_Tegra/sources/tegra/optee-src/nv-optee/optee/optee_os/ldelf/main.c:36 (discriminator 2)
     374:	394002a0 	ldrb	w0, [x21]
     378:	35000140 	cbnz	w0, 3a0 <dump_ta_state+0x50>
_assert_trap():
/home/ssysarch/Desktop/nick/jetpack_5/Jetson_Linux_R35.4.1_aarch64/Linux_for_Tegra/sources/tegra/optee-src/nv-optee/optee/optee_os/lib/libutils/isoc/include/assert.h:19
     37c:	d0000023 	adrp	x3, 6000 <kprintf.constprop.0+0x4c8>
     380:	912b0463 	add	x3, x3, #0xac1
     384:	d0000021 	adrp	x1, 6000 <kprintf.constprop.0+0x4c8>
     388:	91291821 	add	x1, x1, #0xa46
     38c:	d0000020 	adrp	x0, 6000 <kprintf.constprop.0+0x4c8>
     390:	91294c00 	add	x0, x0, #0xa53
     394:	52800482 	mov	w2, #0x24                  	// #36
     398:	9400121f 	bl	4c14 <_assert_log>
/home/ssysarch/Desktop/nick/jetpack_5/Jetson_Linux_R35.4.1_aarch64/Linux_for_Tegra/sources/tegra/optee-src/nv-optee/optee/optee_os/lib/libutils/isoc/include/assert.h:20
     39c:	9400122f 	bl	4c58 <_assert_break>
dump_ta_state():
/home/ssysarch/Desktop/nick/jetpack_5/Jetson_Linux_R35.4.1_aarch64/Linux_for_Tegra/sources/tegra/optee-src/nv-optee/optee/optee_os/ldelf/main.c:37
     3a0:	910442a5 	add	x5, x21, #0x110
     3a4:	52800023 	mov	w3, #0x1                   	// #1
     3a8:	52800022 	mov	w2, #0x1                   	// #1
     3ac:	52800001 	mov	w1, #0x0                   	// #0
     3b0:	d2800000 	mov	x0, #0x0                   	// #0
     3b4:	d0000024 	adrp	x4, 6000 <kprintf.constprop.0+0x4c8>
     3b8:	91299c84 	add	x4, x4, #0xa67
     3bc:	94001944 	bl	68cc <trace_printf>
/home/ssysarch/Desktop/nick/jetpack_5/Jetson_Linux_R35.4.1_aarch64/Linux_for_Tegra/sources/tegra/optee-src/nv-optee/optee/optee_os/ldelf/main.c:38
     3c0:	394006a1 	ldrb	w1, [x21, #1]
     3c4:	d0000020 	adrp	x0, 6000 <kprintf.constprop.0+0x4c8>
     3c8:	d0000025 	adrp	x5, 6000 <kprintf.constprop.0+0x4c8>
     3cc:	9128f800 	add	x0, x0, #0xa3e
     3d0:	7100003f 	cmp	w1, #0x0
     3d4:	9128e8a5 	add	x5, x5, #0xa3a
     3d8:	9a8010a5 	csel	x5, x5, x0, ne  // ne = any
     3dc:	52800023 	mov	w3, #0x1                   	// #1
     3e0:	52800022 	mov	w2, #0x1                   	// #1
     3e4:	52800001 	mov	w1, #0x0                   	// #0
     3e8:	d2800000 	mov	x0, #0x0                   	// #0
     3ec:	d0000024 	adrp	x4, 6000 <kprintf.constprop.0+0x4c8>
     3f0:	9129e484 	add	x4, x4, #0xa79
     3f4:	94001936 	bl	68cc <trace_printf>
/home/ssysarch/Desktop/nick/jetpack_5/Jetson_Linux_R35.4.1_aarch64/Linux_for_Tegra/sources/tegra/optee-src/nv-optee/optee/optee_os/ldelf/main.c:41
     3f8:	90000040 	adrp	x0, 8000 <_DYNAMIC>
     3fc:	f940fc05 	ldr	x5, [x0, #504]
     400:	91014264 	add	x4, x19, #0x50
     404:	f9402663 	ldr	x3, [x19, #72]
     408:	d2800000 	mov	x0, #0x0                   	// #0
     40c:	aa1403e2 	mov	x2, x20
     410:	90000001 	adrp	x1, 0 <_ldelf_start>
     414:	910c1021 	add	x1, x1, #0x304
     418:	94000994 	bl	2a68 <ta_elf_print_mappings>
/home/ssysarch/Desktop/nick/jetpack_5/Jetson_Linux_R35.4.1_aarch64/Linux_for_Tegra/sources/tegra/optee-src/nv-optee/optee/optee_os/ldelf/main.c:44
     41c:	39410260 	ldrb	w0, [x19, #64]
     420:	34000080 	cbz	w0, 430 <dump_ta_state+0xe0>
/home/ssysarch/Desktop/nick/jetpack_5/Jetson_Linux_R35.4.1_aarch64/Linux_for_Tegra/sources/tegra/optee-src/nv-optee/optee/optee_os/ldelf/main.c:45
     424:	aa1303e0 	mov	x0, x19
     428:	94000a4d 	bl	2d5c <ta_elf_stack_trace_a32>
/home/ssysarch/Desktop/nick/jetpack_5/Jetson_Linux_R35.4.1_aarch64/Linux_for_Tegra/sources/tegra/optee-src/nv-optee/optee/optee_os/ldelf/main.c:50
     42c:	94000089 	bl	650 <sys_return_cleanup>
/home/ssysarch/Desktop/nick/jetpack_5/Jetson_Linux_R35.4.1_aarch64/Linux_for_Tegra/sources/tegra/optee-src/nv-optee/optee/optee_os/ldelf/main.c:47
     430:	a9400660 	ldp	x0, x1, [x19]
     434:	f9400a62 	ldr	x2, [x19, #16]
     438:	94000a5b 	bl	2da4 <ta_elf_stack_trace_a64>
     43c:	17fffffc 	b	42c <dump_ta_state+0xdc>

0000000000000440 <ldelf>:
ldelf():
/home/ssysarch/Desktop/nick/jetpack_5/Jetson_Linux_R35.4.1_aarch64/Linux_for_Tegra/sources/tegra/optee-src/nv-optee/optee/optee_os/ldelf/main.c:131
     440:	a9bd7bfd 	stp	x29, x30, [sp, #-48]!
/home/ssysarch/Desktop/nick/jetpack_5/Jetson_Linux_R35.4.1_aarch64/Linux_for_Tegra/sources/tegra/optee-src/nv-optee/optee/optee_os/ldelf/main.c:135
     444:	aa0003e5 	mov	x5, x0
     448:	52800023 	mov	w3, #0x1                   	// #1
/home/ssysarch/Desktop/nick/jetpack_5/Jetson_Linux_R35.4.1_aarch64/Linux_for_Tegra/sources/tegra/optee-src/nv-optee/optee/optee_os/ldelf/main.c:131
     44c:	910003fd 	mov	x29, sp
     450:	a90153f3 	stp	x19, x20, [sp, #16]
/home/ssysarch/Desktop/nick/jetpack_5/Jetson_Linux_R35.4.1_aarch64/Linux_for_Tegra/sources/tegra/optee-src/nv-optee/optee/optee_os/ldelf/main.c:135
     454:	52800062 	mov	w2, #0x3                   	// #3
     458:	528010e1 	mov	w1, #0x87                  	// #135
/home/ssysarch/Desktop/nick/jetpack_5/Jetson_Linux_R35.4.1_aarch64/Linux_for_Tegra/sources/tegra/optee-src/nv-optee/optee/optee_os/ldelf/main.c:131
     45c:	a9025bf5 	stp	x21, x22, [sp, #32]
/home/ssysarch/Desktop/nick/jetpack_5/Jetson_Linux_R35.4.1_aarch64/Linux_for_Tegra/sources/tegra/optee-src/nv-optee/optee/optee_os/ldelf/main.c:135
     460:	d0000034 	adrp	x20, 6000 <kprintf.constprop.0+0x4c8>
     464:	912b3e95 	add	x21, x20, #0xacf
/home/ssysarch/Desktop/nick/jetpack_5/Jetson_Linux_R35.4.1_aarch64/Linux_for_Tegra/sources/tegra/optee-src/nv-optee/optee/optee_os/ldelf/main.c:131
     468:	aa0003f3 	mov	x19, x0
/home/ssysarch/Desktop/nick/jetpack_5/Jetson_Linux_R35.4.1_aarch64/Linux_for_Tegra/sources/tegra/optee-src/nv-optee/optee/optee_os/ldelf/main.c:135
     46c:	d0000024 	adrp	x4, 6000 <kprintf.constprop.0+0x4c8>
     470:	912a0c84 	add	x4, x4, #0xa83
     474:	aa1503e0 	mov	x0, x21
     478:	94001915 	bl	68cc <trace_printf>
/home/ssysarch/Desktop/nick/jetpack_5/Jetson_Linux_R35.4.1_aarch64/Linux_for_Tegra/sources/tegra/optee-src/nv-optee/optee/optee_os/ldelf/main.c:136
     47c:	90000056 	adrp	x22, 8000 <_DYNAMIC>
     480:	d2800004 	mov	x4, #0x0                   	// #0
     484:	9107e2c2 	add	x2, x22, #0x1f8
     488:	d2800003 	mov	x3, #0x0                   	// #0
     48c:	52800001 	mov	w1, #0x0                   	// #0
     490:	d2880000 	mov	x0, #0x4000                	// #16384
     494:	94000073 	bl	660 <sys_map_zi>
/home/ssysarch/Desktop/nick/jetpack_5/Jetson_Linux_R35.4.1_aarch64/Linux_for_Tegra/sources/tegra/optee-src/nv-optee/optee/optee_os/ldelf/main.c:137
     498:	340001e0 	cbz	w0, 4d4 <ldelf+0x94>
     49c:	2a0003e6 	mov	w6, w0
/home/ssysarch/Desktop/nick/jetpack_5/Jetson_Linux_R35.4.1_aarch64/Linux_for_Tegra/sources/tegra/optee-src/nv-optee/optee/optee_os/ldelf/main.c:138
     4a0:	d0000024 	adrp	x4, 6000 <kprintf.constprop.0+0x4c8>
     4a4:	912a4c84 	add	x4, x4, #0xa93
     4a8:	d2880005 	mov	x5, #0x4000                	// #16384
     4ac:	52800023 	mov	w3, #0x1                   	// #1
     4b0:	aa1503e0 	mov	x0, x21
     4b4:	52800022 	mov	w2, #0x1                   	// #1
     4b8:	52801141 	mov	w1, #0x8a                  	// #138
     4bc:	94001904 	bl	68cc <trace_printf>
/home/ssysarch/Desktop/nick/jetpack_5/Jetson_Linux_R35.4.1_aarch64/Linux_for_Tegra/sources/tegra/optee-src/nv-optee/optee/optee_os/ldelf/main.c:139
     4c0:	d0000020 	adrp	x0, 6000 <kprintf.constprop.0+0x4c8>
     4c4:	91291800 	add	x0, x0, #0xa46
     4c8:	aa1503e2 	mov	x2, x21
     4cc:	52801161 	mov	w1, #0x8b                  	// #139
     4d0:	94000039 	bl	5b4 <__panic>
/home/ssysarch/Desktop/nick/jetpack_5/Jetson_Linux_R35.4.1_aarch64/Linux_for_Tegra/sources/tegra/optee-src/nv-optee/optee/optee_os/ldelf/main.c:141
     4d4:	f940fec0 	ldr	x0, [x22, #504]
     4d8:	d2880001 	mov	x1, #0x4000                	// #16384
     4dc:	940014f4 	bl	58ac <malloc_add_pool>
/home/ssysarch/Desktop/nick/jetpack_5/Jetson_Linux_R35.4.1_aarch64/Linux_for_Tegra/sources/tegra/optee-src/nv-optee/optee/optee_os/ldelf/main.c:144
     4e0:	91004261 	add	x1, x19, #0x10
     4e4:	aa1303e0 	mov	x0, x19
     4e8:	91005263 	add	x3, x19, #0x14
     4ec:	9100a262 	add	x2, x19, #0x28
     4f0:	940007e3 	bl	247c <ta_elf_load_main>
/home/ssysarch/Desktop/nick/jetpack_5/Jetson_Linux_R35.4.1_aarch64/Linux_for_Tegra/sources/tegra/optee-src/nv-optee/optee/optee_os/ldelf/main.c:152
     4f4:	90000041 	adrp	x1, 8000 <_DYNAMIC>
     4f8:	aa0103f6 	mov	x22, x1
     4fc:	f9409820 	ldr	x0, [x1, #304]
     500:	f9400015 	ldr	x21, [x0]
/home/ssysarch/Desktop/nick/jetpack_5/Jetson_Linux_R35.4.1_aarch64/Linux_for_Tegra/sources/tegra/optee-src/nv-optee/optee/optee_os/ldelf/main.c:152 (discriminator 1)
     504:	b50002b5 	cbnz	x21, 558 <ldelf+0x118>
/home/ssysarch/Desktop/nick/jetpack_5/Jetson_Linux_R35.4.1_aarch64/Linux_for_Tegra/sources/tegra/optee-src/nv-optee/optee/optee_os/ldelf/main.c:155
     508:	f9409ac0 	ldr	x0, [x22, #304]
     50c:	f9400015 	ldr	x21, [x0]
/home/ssysarch/Desktop/nick/jetpack_5/Jetson_Linux_R35.4.1_aarch64/Linux_for_Tegra/sources/tegra/optee-src/nv-optee/optee/optee_os/ldelf/main.c:155 (discriminator 1)
     510:	b5000335 	cbnz	x21, 574 <ldelf+0x134>
/home/ssysarch/Desktop/nick/jetpack_5/Jetson_Linux_R35.4.1_aarch64/Linux_for_Tegra/sources/tegra/optee-src/nv-optee/optee/optee_os/ldelf/main.c:160
     514:	91008261 	add	x1, x19, #0x20
     518:	91006260 	add	x0, x19, #0x18
     51c:	94000b67 	bl	32b8 <ta_elf_finalize_load_main>
/home/ssysarch/Desktop/nick/jetpack_5/Jetson_Linux_R35.4.1_aarch64/Linux_for_Tegra/sources/tegra/optee-src/nv-optee/optee/optee_os/ldelf/main.c:169
     520:	912b3e94 	add	x20, x20, #0xacf
/home/ssysarch/Desktop/nick/jetpack_5/Jetson_Linux_R35.4.1_aarch64/Linux_for_Tegra/sources/tegra/optee-src/nv-optee/optee/optee_os/ldelf/main.c:168
     524:	f9409ad6 	ldr	x22, [x22, #304]
/home/ssysarch/Desktop/nick/jetpack_5/Jetson_Linux_R35.4.1_aarch64/Linux_for_Tegra/sources/tegra/optee-src/nv-optee/optee/optee_os/ldelf/main.c:162
     528:	f9001e7f 	str	xzr, [x19, #56]
/home/ssysarch/Desktop/nick/jetpack_5/Jetson_Linux_R35.4.1_aarch64/Linux_for_Tegra/sources/tegra/optee-src/nv-optee/optee/optee_os/ldelf/main.c:168
     52c:	f94002d5 	ldr	x21, [x22]
/home/ssysarch/Desktop/nick/jetpack_5/Jetson_Linux_R35.4.1_aarch64/Linux_for_Tegra/sources/tegra/optee-src/nv-optee/optee/optee_os/ldelf/main.c:169
     530:	d0000036 	adrp	x22, 6000 <kprintf.constprop.0+0x4c8>
     534:	912abad6 	add	x22, x22, #0xaae
/home/ssysarch/Desktop/nick/jetpack_5/Jetson_Linux_R35.4.1_aarch64/Linux_for_Tegra/sources/tegra/optee-src/nv-optee/optee/optee_os/ldelf/main.c:168 (discriminator 1)
     538:	b50002b5 	cbnz	x21, 58c <ldelf+0x14c>
/home/ssysarch/Desktop/nick/jetpack_5/Jetson_Linux_R35.4.1_aarch64/Linux_for_Tegra/sources/tegra/optee-src/nv-optee/optee/optee_os/ldelf/main.c:173
     53c:	90000000 	adrp	x0, 0 <_ldelf_start>
     540:	910d4000 	add	x0, x0, #0x350
     544:	f9001a60 	str	x0, [x19, #48]
/home/ssysarch/Desktop/nick/jetpack_5/Jetson_Linux_R35.4.1_aarch64/Linux_for_Tegra/sources/tegra/optee-src/nv-optee/optee/optee_os/ldelf/main.c:177
     548:	90000000 	adrp	x0, 0 <_ldelf_start>
     54c:	910b2000 	add	x0, x0, #0x2c8
     550:	f9002260 	str	x0, [x19, #64]
/home/ssysarch/Desktop/nick/jetpack_5/Jetson_Linux_R35.4.1_aarch64/Linux_for_Tegra/sources/tegra/optee-src/nv-optee/optee/optee_os/ldelf/main.c:179
     554:	9400003f 	bl	650 <sys_return_cleanup>
/home/ssysarch/Desktop/nick/jetpack_5/Jetson_Linux_R35.4.1_aarch64/Linux_for_Tegra/sources/tegra/optee-src/nv-optee/optee/optee_os/ldelf/main.c:153 (discriminator 3)
     558:	b9401260 	ldr	w0, [x19, #16]
     55c:	7100001f 	cmp	w0, #0x0
     560:	aa1503e0 	mov	x0, x21
     564:	1a9f07e1 	cset	w1, ne  // ne = any
     568:	940008e1 	bl	28ec <ta_elf_load_dependency>
/home/ssysarch/Desktop/nick/jetpack_5/Jetson_Linux_R35.4.1_aarch64/Linux_for_Tegra/sources/tegra/optee-src/nv-optee/optee/optee_os/ldelf/main.c:152 (discriminator 3)
     56c:	f94092b5 	ldr	x21, [x21, #288]
     570:	17ffffe5 	b	504 <ldelf+0xc4>
/home/ssysarch/Desktop/nick/jetpack_5/Jetson_Linux_R35.4.1_aarch64/Linux_for_Tegra/sources/tegra/optee-src/nv-optee/optee/optee_os/ldelf/main.c:156 (discriminator 3)
     574:	aa1503e0 	mov	x0, x21
     578:	94000da8 	bl	3c18 <ta_elf_relocate>
/home/ssysarch/Desktop/nick/jetpack_5/Jetson_Linux_R35.4.1_aarch64/Linux_for_Tegra/sources/tegra/optee-src/nv-optee/optee/optee_os/ldelf/main.c:157 (discriminator 3)
     57c:	aa1503e0 	mov	x0, x21
     580:	94000916 	bl	29d8 <ta_elf_finalize_mappings>
/home/ssysarch/Desktop/nick/jetpack_5/Jetson_Linux_R35.4.1_aarch64/Linux_for_Tegra/sources/tegra/optee-src/nv-optee/optee/optee_os/ldelf/main.c:155 (discriminator 3)
     584:	f94092b5 	ldr	x21, [x21, #288]
     588:	17ffffe2 	b	510 <ldelf+0xd0>
/home/ssysarch/Desktop/nick/jetpack_5/Jetson_Linux_R35.4.1_aarch64/Linux_for_Tegra/sources/tegra/optee-src/nv-optee/optee/optee_os/ldelf/main.c:169 (discriminator 3)
     58c:	f94006a6 	ldr	x6, [x21, #8]
     590:	910442a5 	add	x5, x21, #0x110
     594:	aa1603e4 	mov	x4, x22
     598:	aa1403e0 	mov	x0, x20
     59c:	52800023 	mov	w3, #0x1                   	// #1
     5a0:	52800062 	mov	w2, #0x3                   	// #3
     5a4:	52801521 	mov	w1, #0xa9                  	// #169
     5a8:	940018c9 	bl	68cc <trace_printf>
/home/ssysarch/Desktop/nick/jetpack_5/Jetson_Linux_R35.4.1_aarch64/Linux_for_Tegra/sources/tegra/optee-src/nv-optee/optee/optee_os/ldelf/main.c:168 (discriminator 3)
     5ac:	f94092b5 	ldr	x21, [x21, #288]
     5b0:	17ffffe2 	b	538 <ldelf+0xf8>

00000000000005b4 <__panic>:
__panic():
/home/ssysarch/Desktop/nick/jetpack_5/Jetson_Linux_R35.4.1_aarch64/Linux_for_Tegra/sources/tegra/optee-src/nv-optee/optee/optee_os/ldelf/sys.c:17
     5b4:	d10083ff 	sub	sp, sp, #0x20
     5b8:	aa0003e5 	mov	x5, x0
/home/ssysarch/Desktop/nick/jetpack_5/Jetson_Linux_R35.4.1_aarch64/Linux_for_Tegra/sources/tegra/optee-src/nv-optee/optee/optee_os/ldelf/sys.c:18
     5bc:	aa020000 	orr	x0, x0, x2
/home/ssysarch/Desktop/nick/jetpack_5/Jetson_Linux_R35.4.1_aarch64/Linux_for_Tegra/sources/tegra/optee-src/nv-optee/optee/optee_os/ldelf/sys.c:17
     5c0:	a9017bfd 	stp	x29, x30, [sp, #16]
     5c4:	910043fd 	add	x29, sp, #0x10
/home/ssysarch/Desktop/nick/jetpack_5/Jetson_Linux_R35.4.1_aarch64/Linux_for_Tegra/sources/tegra/optee-src/nv-optee/optee/optee_os/ldelf/sys.c:18
     5c8:	b5000140 	cbnz	x0, 5f0 <__panic+0x3c>
/home/ssysarch/Desktop/nick/jetpack_5/Jetson_Linux_R35.4.1_aarch64/Linux_for_Tegra/sources/tegra/optee-src/nv-optee/optee/optee_os/ldelf/sys.c:19
     5cc:	d0000024 	adrp	x4, 6000 <kprintf.constprop.0+0x4c8>
     5d0:	912b6c84 	add	x4, x4, #0xadb
     5d4:	52800023 	mov	w3, #0x1                   	// #1
     5d8:	52800022 	mov	w2, #0x1                   	// #1
     5dc:	52800001 	mov	w1, #0x0                   	// #0
     5e0:	940018bb 	bl	68cc <trace_printf>
/home/ssysarch/Desktop/nick/jetpack_5/Jetson_Linux_R35.4.1_aarch64/Linux_for_Tegra/sources/tegra/optee-src/nv-optee/optee/optee_os/ldelf/sys.c:25
     5e4:	d2800020 	mov	x0, #0x1                   	// #1
     5e8:	97fffedd 	bl	15c <_ldelf_panic>
/home/ssysarch/Desktop/nick/jetpack_5/Jetson_Linux_R35.4.1_aarch64/Linux_for_Tegra/sources/tegra/optee-src/nv-optee/optee/optee_os/ldelf/sys.c:27 (discriminator 1)
     5ec:	14000000 	b	5ec <__panic+0x38>
     5f0:	2a0103e6 	mov	w6, w1
/home/ssysarch/Desktop/nick/jetpack_5/Jetson_Linux_R35.4.1_aarch64/Linux_for_Tegra/sources/tegra/optee-src/nv-optee/optee/optee_os/ldelf/sys.c:21
     5f4:	b5000085 	cbnz	x5, 604 <__panic+0x50>
     5f8:	d0000025 	adrp	x5, 6000 <kprintf.constprop.0+0x4c8>
     5fc:	912b54a5 	add	x5, x5, #0xad5
     600:	52800006 	mov	w6, #0x0                   	// #0
/home/ssysarch/Desktop/nick/jetpack_5/Jetson_Linux_R35.4.1_aarch64/Linux_for_Tegra/sources/tegra/optee-src/nv-optee/optee/optee_os/ldelf/sys.c:21 (discriminator 8)
     604:	b50001c2 	cbnz	x2, 63c <__panic+0x88>
/home/ssysarch/Desktop/nick/jetpack_5/Jetson_Linux_R35.4.1_aarch64/Linux_for_Tegra/sources/tegra/optee-src/nv-optee/optee/optee_os/ldelf/sys.c:21
     608:	d0000022 	adrp	x2, 6000 <kprintf.constprop.0+0x4c8>
     60c:	9133cc42 	add	x2, x2, #0xcf3
     610:	aa0203e7 	mov	x7, x2
     614:	aa0203e0 	mov	x0, x2
/home/ssysarch/Desktop/nick/jetpack_5/Jetson_Linux_R35.4.1_aarch64/Linux_for_Tegra/sources/tegra/optee-src/nv-optee/optee/optee_os/ldelf/sys.c:21 (discriminator 20)
     618:	a90003e2 	stp	x2, x0, [sp]
     61c:	d0000024 	adrp	x4, 6000 <kprintf.constprop.0+0x4c8>
     620:	912b8484 	add	x4, x4, #0xae1
     624:	52800023 	mov	w3, #0x1                   	// #1
     628:	52800001 	mov	w1, #0x0                   	// #0
     62c:	52800022 	mov	w2, #0x1                   	// #1
     630:	d2800000 	mov	x0, #0x0                   	// #0
     634:	940018a6 	bl	68cc <trace_printf>
     638:	17ffffeb 	b	5e4 <__panic+0x30>
/home/ssysarch/Desktop/nick/jetpack_5/Jetson_Linux_R35.4.1_aarch64/Linux_for_Tegra/sources/tegra/optee-src/nv-optee/optee/optee_os/ldelf/sys.c:21
     63c:	d0000027 	adrp	x7, 6000 <kprintf.constprop.0+0x4c8>
     640:	912b5ce7 	add	x7, x7, #0xad7
     644:	d0000020 	adrp	x0, 6000 <kprintf.constprop.0+0x4c8>
     648:	912b6400 	add	x0, x0, #0xad9
     64c:	17fffff3 	b	618 <__panic+0x64>

0000000000000650 <sys_return_cleanup>:
sys_return_cleanup():
/home/ssysarch/Desktop/nick/jetpack_5/Jetson_Linux_R35.4.1_aarch64/Linux_for_Tegra/sources/tegra/optee-src/nv-optee/optee/optee_os/ldelf/sys.c:32
     650:	a9bf7bfd 	stp	x29, x30, [sp, #-16]!
/home/ssysarch/Desktop/nick/jetpack_5/Jetson_Linux_R35.4.1_aarch64/Linux_for_Tegra/sources/tegra/optee-src/nv-optee/optee/optee_os/ldelf/sys.c:33
     654:	d2800000 	mov	x0, #0x0                   	// #0
/home/ssysarch/Desktop/nick/jetpack_5/Jetson_Linux_R35.4.1_aarch64/Linux_for_Tegra/sources/tegra/optee-src/nv-optee/optee/optee_os/ldelf/sys.c:32
     658:	910003fd 	mov	x29, sp
/home/ssysarch/Desktop/nick/jetpack_5/Jetson_Linux_R35.4.1_aarch64/Linux_for_Tegra/sources/tegra/optee-src/nv-optee/optee/optee_os/ldelf/sys.c:33
     65c:	97fffec3 	bl	168 <_ldelf_return>

0000000000000660 <sys_map_zi>:
sys_map_zi():
/home/ssysarch/Desktop/nick/jetpack_5/Jetson_Linux_R35.4.1_aarch64/Linux_for_Tegra/sources/tegra/optee-src/nv-optee/optee/optee_os/ldelf/sys.c:41
     660:	aa0003e5 	mov	x5, x0
     664:	aa0203e0 	mov	x0, x2
     668:	aa0303e2 	mov	x2, x3
     66c:	aa0403e3 	mov	x3, x4
/home/ssysarch/Desktop/nick/jetpack_5/Jetson_Linux_R35.4.1_aarch64/Linux_for_Tegra/sources/tegra/optee-src/nv-optee/optee/optee_os/ldelf/sys.c:42
     670:	2a0103e4 	mov	w4, w1
     674:	aa0503e1 	mov	x1, x5
     678:	17fffec5 	b	18c <_ldelf_map_zi>

000000000000067c <sys_unmap>:
sys_unmap():
/home/ssysarch/Desktop/nick/jetpack_5/Jetson_Linux_R35.4.1_aarch64/Linux_for_Tegra/sources/tegra/optee-src/nv-optee/optee/optee_os/ldelf/sys.c:47
     67c:	17fffec7 	b	198 <_ldelf_unmap>

0000000000000680 <sys_open_ta_bin>:
sys_open_ta_bin():
/home/ssysarch/Desktop/nick/jetpack_5/Jetson_Linux_R35.4.1_aarch64/Linux_for_Tegra/sources/tegra/optee-src/nv-optee/optee/optee_os/ldelf/sys.c:52
     680:	aa0103e2 	mov	x2, x1
     684:	d2800201 	mov	x1, #0x10                  	// #16
     688:	17fffec7 	b	1a4 <_ldelf_open_bin>

000000000000068c <sys_close_ta_bin>:
sys_close_ta_bin():
/home/ssysarch/Desktop/nick/jetpack_5/Jetson_Linux_R35.4.1_aarch64/Linux_for_Tegra/sources/tegra/optee-src/nv-optee/optee/optee_os/ldelf/sys.c:57
     68c:	2a0003e0 	mov	w0, w0
     690:	17fffec8 	b	1b0 <_ldelf_close_bin>

0000000000000694 <sys_map_ta_bin>:
sys_map_ta_bin():
/home/ssysarch/Desktop/nick/jetpack_5/Jetson_Linux_R35.4.1_aarch64/Linux_for_Tegra/sources/tegra/optee-src/nv-optee/optee/optee_os/ldelf/sys.c:63
     694:	2a0303e7 	mov	w7, w3
     698:	aa0403e3 	mov	x3, x4
     69c:	aa0503e4 	mov	x4, x5
     6a0:	aa0603e5 	mov	x5, x6
/home/ssysarch/Desktop/nick/jetpack_5/Jetson_Linux_R35.4.1_aarch64/Linux_for_Tegra/sources/tegra/optee-src/nv-optee/optee/optee_os/ldelf/sys.c:64
     6a4:	2a0203e6 	mov	w6, w2
     6a8:	2a0703e2 	mov	w2, w7
     6ac:	17fffec4 	b	1bc <_ldelf_map_bin>

00000000000006b0 <sys_copy_from_ta_bin>:
sys_copy_from_ta_bin():
/home/ssysarch/Desktop/nick/jetpack_5/Jetson_Linux_R35.4.1_aarch64/Linux_for_Tegra/sources/tegra/optee-src/nv-optee/optee/optee_os/ldelf/sys.c:71
     6b0:	aa0103e4 	mov	x4, x1
     6b4:	aa0303e1 	mov	x1, x3
/home/ssysarch/Desktop/nick/jetpack_5/Jetson_Linux_R35.4.1_aarch64/Linux_for_Tegra/sources/tegra/optee-src/nv-optee/optee/optee_os/ldelf/sys.c:72
     6b8:	2a0203e3 	mov	w3, w2
     6bc:	aa0403e2 	mov	x2, x4
     6c0:	17fffec2 	b	1c8 <_ldelf_cp_from_bin>

00000000000006c4 <sys_set_prot>:
sys_set_prot():
/home/ssysarch/Desktop/nick/jetpack_5/Jetson_Linux_R35.4.1_aarch64/Linux_for_Tegra/sources/tegra/optee-src/nv-optee/optee/optee_os/ldelf/sys.c:77
     6c4:	2a0203e2 	mov	w2, w2
     6c8:	17fffec3 	b	1d4 <_ldelf_set_prot>

00000000000006cc <sys_remap>:
sys_remap():
/home/ssysarch/Desktop/nick/jetpack_5/Jetson_Linux_R35.4.1_aarch64/Linux_for_Tegra/sources/tegra/optee-src/nv-optee/optee/optee_os/ldelf/sys.c:83
     6cc:	17fffec5 	b	1e0 <_ldelf_remap>

00000000000006d0 <sys_gen_random_num>:
sys_gen_random_num():
/home/ssysarch/Desktop/nick/jetpack_5/Jetson_Linux_R35.4.1_aarch64/Linux_for_Tegra/sources/tegra/optee-src/nv-optee/optee/optee_os/ldelf/sys.c:88
     6d0:	17fffec7 	b	1ec <_ldelf_gen_rnd_num>

00000000000006d4 <queue_elf_helper>:
queue_elf_helper():
/home/ssysarch/Desktop/nick/jetpack_5/Jetson_Linux_R35.4.1_aarch64/Linux_for_Tegra/sources/tegra/optee-src/nv-optee/optee/optee_os/ldelf/ta_elf.c:63
     6d4:	a9be7bfd 	stp	x29, x30, [sp, #-32]!
/home/ssysarch/Desktop/nick/jetpack_5/Jetson_Linux_R35.4.1_aarch64/Linux_for_Tegra/sources/tegra/optee-src/nv-optee/optee/optee_os/ldelf/ta_elf.c:64
     6d8:	d2802601 	mov	x1, #0x130                 	// #304
/home/ssysarch/Desktop/nick/jetpack_5/Jetson_Linux_R35.4.1_aarch64/Linux_for_Tegra/sources/tegra/optee-src/nv-optee/optee/optee_os/ldelf/ta_elf.c:63
     6dc:	910003fd 	mov	x29, sp
     6e0:	a90153f3 	stp	x19, x20, [sp, #16]
     6e4:	aa0003f4 	mov	x20, x0
/home/ssysarch/Desktop/nick/jetpack_5/Jetson_Linux_R35.4.1_aarch64/Linux_for_Tegra/sources/tegra/optee-src/nv-optee/optee/optee_os/ldelf/ta_elf.c:64
     6e8:	d2800020 	mov	x0, #0x1                   	// #1
     6ec:	9400141a 	bl	5754 <calloc>
     6f0:	aa0003f3 	mov	x19, x0
/home/ssysarch/Desktop/nick/jetpack_5/Jetson_Linux_R35.4.1_aarch64/Linux_for_Tegra/sources/tegra/optee-src/nv-optee/optee/optee_os/ldelf/ta_elf.c:66
     6f4:	b40001c0 	cbz	x0, 72c <queue_elf_helper+0x58>
/home/ssysarch/Desktop/nick/jetpack_5/Jetson_Linux_R35.4.1_aarch64/Linux_for_Tegra/sources/tegra/optee-src/nv-optee/optee/optee_os/ldelf/ta_elf.c:69
     6f8:	f80a0c1f 	str	xzr, [x0, #160]!
/home/ssysarch/Desktop/nick/jetpack_5/Jetson_Linux_R35.4.1_aarch64/Linux_for_Tegra/sources/tegra/optee-src/nv-optee/optee/optee_os/ldelf/ta_elf.c:71
     6fc:	aa1403e1 	mov	x1, x20
     700:	d2800202 	mov	x2, #0x10                  	// #16
/home/ssysarch/Desktop/nick/jetpack_5/Jetson_Linux_R35.4.1_aarch64/Linux_for_Tegra/sources/tegra/optee-src/nv-optee/optee/optee_os/ldelf/ta_elf.c:69
     704:	f9005660 	str	x0, [x19, #168]
/home/ssysarch/Desktop/nick/jetpack_5/Jetson_Linux_R35.4.1_aarch64/Linux_for_Tegra/sources/tegra/optee-src/nv-optee/optee/optee_os/ldelf/ta_elf.c:71
     708:	91044260 	add	x0, x19, #0x110
     70c:	97fffe59 	bl	70 <memcpy>
/home/ssysarch/Desktop/nick/jetpack_5/Jetson_Linux_R35.4.1_aarch64/Linux_for_Tegra/sources/tegra/optee-src/nv-optee/optee/optee_os/ldelf/ta_elf.c:72
     710:	90000040 	adrp	x0, 8000 <_DYNAMIC>
     714:	91058000 	add	x0, x0, #0x160
     718:	f9400401 	ldr	x1, [x0, #8]
     71c:	a912067f 	stp	xzr, x1, [x19, #288]
     720:	f9000033 	str	x19, [x1]
     724:	91048261 	add	x1, x19, #0x120
     728:	f9000401 	str	x1, [x0, #8]
/home/ssysarch/Desktop/nick/jetpack_5/Jetson_Linux_R35.4.1_aarch64/Linux_for_Tegra/sources/tegra/optee-src/nv-optee/optee/optee_os/ldelf/ta_elf.c:74
     72c:	aa1303e0 	mov	x0, x19
     730:	a94153f3 	ldp	x19, x20, [sp, #16]
     734:	a8c27bfd 	ldp	x29, x30, [sp], #32
     738:	d65f03c0 	ret

000000000000073c <get_pad_begin>:
get_pad_begin():
/home/ssysarch/Desktop/nick/jetpack_5/Jetson_Linux_R35.4.1_aarch64/Linux_for_Tegra/sources/tegra/optee-src/nv-optee/optee/optee_os/ldelf/ta_elf.c:755
     73c:	a9be7bfd 	stp	x29, x30, [sp, #-32]!
/home/ssysarch/Desktop/nick/jetpack_5/Jetson_Linux_R35.4.1_aarch64/Linux_for_Tegra/sources/tegra/optee-src/nv-optee/optee/optee_os/ldelf/ta_elf.c:766
     740:	d2800081 	mov	x1, #0x4                   	// #4
/home/ssysarch/Desktop/nick/jetpack_5/Jetson_Linux_R35.4.1_aarch64/Linux_for_Tegra/sources/tegra/optee-src/nv-optee/optee/optee_os/ldelf/ta_elf.c:755
     744:	910003fd 	mov	x29, sp
/home/ssysarch/Desktop/nick/jetpack_5/Jetson_Linux_R35.4.1_aarch64/Linux_for_Tegra/sources/tegra/optee-src/nv-optee/optee/optee_os/ldelf/ta_elf.c:766
     748:	910073e0 	add	x0, sp, #0x1c
/home/ssysarch/Desktop/nick/jetpack_5/Jetson_Linux_R35.4.1_aarch64/Linux_for_Tegra/sources/tegra/optee-src/nv-optee/optee/optee_os/ldelf/ta_elf.c:760
     74c:	b9001fff 	str	wzr, [sp, #28]
/home/ssysarch/Desktop/nick/jetpack_5/Jetson_Linux_R35.4.1_aarch64/Linux_for_Tegra/sources/tegra/optee-src/nv-optee/optee/optee_os/ldelf/ta_elf.c:766
     750:	97ffffe0 	bl	6d0 <sys_gen_random_num>
/home/ssysarch/Desktop/nick/jetpack_5/Jetson_Linux_R35.4.1_aarch64/Linux_for_Tegra/sources/tegra/optee-src/nv-optee/optee/optee_os/ldelf/ta_elf.c:767
     754:	340001a0 	cbz	w0, 788 <get_pad_begin+0x4c>
     758:	2a0003e5 	mov	w5, w0
/home/ssysarch/Desktop/nick/jetpack_5/Jetson_Linux_R35.4.1_aarch64/Linux_for_Tegra/sources/tegra/optee-src/nv-optee/optee/optee_os/ldelf/ta_elf.c:768
     75c:	d0000024 	adrp	x4, 6000 <kprintf.constprop.0+0x4c8>
     760:	912be884 	add	x4, x4, #0xafa
     764:	52800023 	mov	w3, #0x1                   	// #1
     768:	52800062 	mov	w2, #0x3                   	// #3
     76c:	52806001 	mov	w1, #0x300                 	// #768
     770:	f0000020 	adrp	x0, 7000 <trace_ext_prefix+0x509>
     774:	910e1000 	add	x0, x0, #0x384
     778:	94001855 	bl	68cc <trace_printf>
/home/ssysarch/Desktop/nick/jetpack_5/Jetson_Linux_R35.4.1_aarch64/Linux_for_Tegra/sources/tegra/optee-src/nv-optee/optee/optee_os/ldelf/ta_elf.c:769
     77c:	d2800000 	mov	x0, #0x0                   	// #0
/home/ssysarch/Desktop/nick/jetpack_5/Jetson_Linux_R35.4.1_aarch64/Linux_for_Tegra/sources/tegra/optee-src/nv-optee/optee/optee_os/ldelf/ta_elf.c:778
     780:	a8c27bfd 	ldp	x29, x30, [sp], #32
     784:	d65f03c0 	ret
/home/ssysarch/Desktop/nick/jetpack_5/Jetson_Linux_R35.4.1_aarch64/Linux_for_Tegra/sources/tegra/optee-src/nv-optee/optee/optee_os/ldelf/ta_elf.c:774
     788:	b9401fe0 	ldr	w0, [sp, #28]
     78c:	d3741800 	ubfiz	x0, x0, #12, #7
     790:	17fffffc 	b	780 <get_pad_begin+0x44>

0000000000000794 <ta_elf_add_bti>:
ta_elf_add_bti():
/home/ssysarch/Desktop/nick/jetpack_5/Jetson_Linux_R35.4.1_aarch64/Linux_for_Tegra/sources/tegra/optee-src/nv-optee/optee/optee_os/ldelf/ta_elf.c:913
     794:	a9bd7bfd 	stp	x29, x30, [sp, #-48]!
     798:	910003fd 	mov	x29, sp
     79c:	a90153f3 	stp	x19, x20, [sp, #16]
     7a0:	aa0003f4 	mov	x20, x0
/home/ssysarch/Desktop/nick/jetpack_5/Jetson_Linux_R35.4.1_aarch64/Linux_for_Tegra/sources/tegra/optee-src/nv-optee/optee/optee_os/ldelf/ta_elf.c:918
     7a4:	f9405013 	ldr	x19, [x0, #160]
/home/ssysarch/Desktop/nick/jetpack_5/Jetson_Linux_R35.4.1_aarch64/Linux_for_Tegra/sources/tegra/optee-src/nv-optee/optee/optee_os/ldelf/ta_elf.c:913
     7a8:	f90013f5 	str	x21, [sp, #32]
/home/ssysarch/Desktop/nick/jetpack_5/Jetson_Linux_R35.4.1_aarch64/Linux_for_Tegra/sources/tegra/optee-src/nv-optee/optee/optee_os/ldelf/ta_elf.c:918 (discriminator 1)
     7ac:	b50000b3 	cbnz	x19, 7c0 <ta_elf_add_bti+0x2c>
/home/ssysarch/Desktop/nick/jetpack_5/Jetson_Linux_R35.4.1_aarch64/Linux_for_Tegra/sources/tegra/optee-src/nv-optee/optee/optee_os/ldelf/ta_elf.c:927
     7b0:	a94153f3 	ldp	x19, x20, [sp, #16]
     7b4:	f94013f5 	ldr	x21, [sp, #32]
     7b8:	a8c37bfd 	ldp	x29, x30, [sp], #48
     7bc:	d65f03c0 	ret
/home/ssysarch/Desktop/nick/jetpack_5/Jetson_Linux_R35.4.1_aarch64/Linux_for_Tegra/sources/tegra/optee-src/nv-optee/optee/optee_os/ldelf/ta_elf.c:921
     7c0:	f9401260 	ldr	x0, [x19, #32]
     7c4:	36000260 	tbz	w0, #0, 810 <ta_elf_add_bti+0x7c>
/home/ssysarch/Desktop/nick/jetpack_5/Jetson_Linux_R35.4.1_aarch64/Linux_for_Tegra/sources/tegra/optee-src/nv-optee/optee/optee_os/ldelf/ta_elf.c:919
     7c8:	f9400683 	ldr	x3, [x20, #8]
/home/ssysarch/Desktop/nick/jetpack_5/Jetson_Linux_R35.4.1_aarch64/Linux_for_Tegra/sources/tegra/optee-src/nv-optee/optee/optee_os/ldelf/ta_elf.c:922
     7cc:	52800182 	mov	w2, #0xc                   	// #12
     7d0:	f9400e61 	ldr	x1, [x19, #24]
/home/ssysarch/Desktop/nick/jetpack_5/Jetson_Linux_R35.4.1_aarch64/Linux_for_Tegra/sources/tegra/optee-src/nv-optee/optee/optee_os/ldelf/ta_elf.c:919
     7d4:	f9400660 	ldr	x0, [x19, #8]
/home/ssysarch/Desktop/nick/jetpack_5/Jetson_Linux_R35.4.1_aarch64/Linux_for_Tegra/sources/tegra/optee-src/nv-optee/optee/optee_os/ldelf/ta_elf.c:922
     7d8:	8b000060 	add	x0, x3, x0
     7dc:	97ffffba 	bl	6c4 <sys_set_prot>
     7e0:	2a0003f5 	mov	w21, w0
/home/ssysarch/Desktop/nick/jetpack_5/Jetson_Linux_R35.4.1_aarch64/Linux_for_Tegra/sources/tegra/optee-src/nv-optee/optee/optee_os/ldelf/ta_elf.c:923
     7e4:	34000160 	cbz	w0, 810 <ta_elf_add_bti+0x7c>
/home/ssysarch/Desktop/nick/jetpack_5/Jetson_Linux_R35.4.1_aarch64/Linux_for_Tegra/sources/tegra/optee-src/nv-optee/optee/optee_os/ldelf/ta_elf.c:924
     7e8:	d0000024 	adrp	x4, 6000 <kprintf.constprop.0+0x4c8>
     7ec:	912c4884 	add	x4, x4, #0xb12
     7f0:	52800023 	mov	w3, #0x1                   	// #1
     7f4:	52800022 	mov	w2, #0x1                   	// #1
     7f8:	52807381 	mov	w1, #0x39c                 	// #924
     7fc:	f0000020 	adrp	x0, 7000 <trace_ext_prefix+0x509>
     800:	910e9000 	add	x0, x0, #0x3a4
     804:	94001832 	bl	68cc <trace_printf>
     808:	2a1503e0 	mov	w0, w21
     80c:	97fffe57 	bl	168 <_ldelf_return>
/home/ssysarch/Desktop/nick/jetpack_5/Jetson_Linux_R35.4.1_aarch64/Linux_for_Tegra/sources/tegra/optee-src/nv-optee/optee/optee_os/ldelf/ta_elf.c:918
     810:	f9401e73 	ldr	x19, [x19, #56]
     814:	17ffffe6 	b	7ac <ta_elf_add_bti+0x18>

0000000000000818 <init_elf>:
init_elf():
/home/ssysarch/Desktop/nick/jetpack_5/Jetson_Linux_R35.4.1_aarch64/Linux_for_Tegra/sources/tegra/optee-src/nv-optee/optee/optee_os/ldelf/ta_elf.c:478
     818:	a9bc7bfd 	stp	x29, x30, [sp, #-64]!
/home/ssysarch/Desktop/nick/jetpack_5/Jetson_Linux_R35.4.1_aarch64/Linux_for_Tegra/sources/tegra/optee-src/nv-optee/optee/optee_os/ldelf/ta_elf.c:484
     81c:	91040001 	add	x1, x0, #0x100
/home/ssysarch/Desktop/nick/jetpack_5/Jetson_Linux_R35.4.1_aarch64/Linux_for_Tegra/sources/tegra/optee-src/nv-optee/optee/optee_os/ldelf/ta_elf.c:478
     820:	910003fd 	mov	x29, sp
     824:	f90013f5 	str	x21, [sp, #32]
/home/ssysarch/Desktop/nick/jetpack_5/Jetson_Linux_R35.4.1_aarch64/Linux_for_Tegra/sources/tegra/optee-src/nv-optee/optee/optee_os/ldelf/ta_elf.c:484
     828:	91044015 	add	x21, x0, #0x110
/home/ssysarch/Desktop/nick/jetpack_5/Jetson_Linux_R35.4.1_aarch64/Linux_for_Tegra/sources/tegra/optee-src/nv-optee/optee/optee_os/ldelf/ta_elf.c:478
     82c:	a90153f3 	stp	x19, x20, [sp, #16]
     830:	aa0003f3 	mov	x19, x0
/home/ssysarch/Desktop/nick/jetpack_5/Jetson_Linux_R35.4.1_aarch64/Linux_for_Tegra/sources/tegra/optee-src/nv-optee/optee/optee_os/ldelf/ta_elf.c:484
     834:	aa1503e0 	mov	x0, x21
/home/ssysarch/Desktop/nick/jetpack_5/Jetson_Linux_R35.4.1_aarch64/Linux_for_Tegra/sources/tegra/optee-src/nv-optee/optee/optee_os/ldelf/ta_elf.c:480
     838:	f9001fff 	str	xzr, [sp, #56]
/home/ssysarch/Desktop/nick/jetpack_5/Jetson_Linux_R35.4.1_aarch64/Linux_for_Tegra/sources/tegra/optee-src/nv-optee/optee/optee_os/ldelf/ta_elf.c:484
     83c:	97ffff91 	bl	680 <sys_open_ta_bin>
/home/ssysarch/Desktop/nick/jetpack_5/Jetson_Linux_R35.4.1_aarch64/Linux_for_Tegra/sources/tegra/optee-src/nv-optee/optee/optee_os/ldelf/ta_elf.c:485
     840:	340001a0 	cbz	w0, 874 <init_elf+0x5c>
     844:	2a0003f4 	mov	w20, w0
/home/ssysarch/Desktop/nick/jetpack_5/Jetson_Linux_R35.4.1_aarch64/Linux_for_Tegra/sources/tegra/optee-src/nv-optee/optee/optee_os/ldelf/ta_elf.c:486
     848:	d0000024 	adrp	x4, 6000 <kprintf.constprop.0+0x4c8>
     84c:	912c7c84 	add	x4, x4, #0xb1f
     850:	f0000020 	adrp	x0, 7000 <trace_ext_prefix+0x509>
     854:	910cd400 	add	x0, x0, #0x335
     858:	aa1503e5 	mov	x5, x21
     85c:	52800023 	mov	w3, #0x1                   	// #1
     860:	52800022 	mov	w2, #0x1                   	// #1
     864:	52803cc1 	mov	w1, #0x1e6                 	// #486
     868:	94001819 	bl	68cc <trace_printf>
/home/ssysarch/Desktop/nick/jetpack_5/Jetson_Linux_R35.4.1_aarch64/Linux_for_Tegra/sources/tegra/optee-src/nv-optee/optee/optee_os/ldelf/ta_elf.c:496
     86c:	2a1403e0 	mov	w0, w20
     870:	97fffe3e 	bl	168 <_ldelf_return>
/home/ssysarch/Desktop/nick/jetpack_5/Jetson_Linux_R35.4.1_aarch64/Linux_for_Tegra/sources/tegra/optee-src/nv-optee/optee/optee_os/ldelf/ta_elf.c:492
     874:	39400260 	ldrb	w0, [x19]
/home/ssysarch/Desktop/nick/jetpack_5/Jetson_Linux_R35.4.1_aarch64/Linux_for_Tegra/sources/tegra/optee-src/nv-optee/optee/optee_os/ldelf/ta_elf.c:493
     878:	52800035 	mov	w21, #0x1                   	// #1
/home/ssysarch/Desktop/nick/jetpack_5/Jetson_Linux_R35.4.1_aarch64/Linux_for_Tegra/sources/tegra/optee-src/nv-optee/optee/optee_os/ldelf/ta_elf.c:494
     87c:	b9410263 	ldr	w3, [x19, #256]
     880:	d2800006 	mov	x6, #0x0                   	// #0
/home/ssysarch/Desktop/nick/jetpack_5/Jetson_Linux_R35.4.1_aarch64/Linux_for_Tegra/sources/tegra/optee-src/nv-optee/optee/optee_os/ldelf/ta_elf.c:493
     884:	7100001f 	cmp	w0, #0x0
/home/ssysarch/Desktop/nick/jetpack_5/Jetson_Linux_R35.4.1_aarch64/Linux_for_Tegra/sources/tegra/optee-src/nv-optee/optee/optee_os/ldelf/ta_elf.c:494
     888:	d2800005 	mov	x5, #0x0                   	// #0
     88c:	9100e3e0 	add	x0, sp, #0x38
     890:	d2800004 	mov	x4, #0x0                   	// #0
     894:	528000a2 	mov	w2, #0x5                   	// #5
     898:	d2820001 	mov	x1, #0x1000                	// #4096
     89c:	1a8212a2 	csel	w2, w21, w2, ne  // ne = any
     8a0:	97ffff7d 	bl	694 <sys_map_ta_bin>
     8a4:	2a0003f4 	mov	w20, w0
/home/ssysarch/Desktop/nick/jetpack_5/Jetson_Linux_R35.4.1_aarch64/Linux_for_Tegra/sources/tegra/optee-src/nv-optee/optee/optee_os/ldelf/ta_elf.c:495
     8a8:	34000140 	cbz	w0, 8d0 <init_elf+0xb8>
/home/ssysarch/Desktop/nick/jetpack_5/Jetson_Linux_R35.4.1_aarch64/Linux_for_Tegra/sources/tegra/optee-src/nv-optee/optee/optee_os/ldelf/ta_elf.c:496
     8ac:	2a1503e3 	mov	w3, w21
     8b0:	2a1503e2 	mov	w2, w21
     8b4:	d0000024 	adrp	x4, 6000 <kprintf.constprop.0+0x4c8>
     8b8:	912cd484 	add	x4, x4, #0xb35
     8bc:	52803e01 	mov	w1, #0x1f0                 	// #496
     8c0:	f0000020 	adrp	x0, 7000 <trace_ext_prefix+0x509>
     8c4:	910cd400 	add	x0, x0, #0x335
     8c8:	94001801 	bl	68cc <trace_printf>
     8cc:	17ffffe8 	b	86c <init_elf+0x54>
/home/ssysarch/Desktop/nick/jetpack_5/Jetson_Linux_R35.4.1_aarch64/Linux_for_Tegra/sources/tegra/optee-src/nv-optee/optee/optee_os/ldelf/ta_elf.c:498
     8d0:	39400261 	ldrb	w1, [x19]
/home/ssysarch/Desktop/nick/jetpack_5/Jetson_Linux_R35.4.1_aarch64/Linux_for_Tegra/sources/tegra/optee-src/nv-optee/optee/optee_os/ldelf/ta_elf.c:497
     8d4:	f9401fe0 	ldr	x0, [sp, #56]
     8d8:	f9001260 	str	x0, [x19, #32]
/home/ssysarch/Desktop/nick/jetpack_5/Jetson_Linux_R35.4.1_aarch64/Linux_for_Tegra/sources/tegra/optee-src/nv-optee/optee/optee_os/ldelf/ta_elf.c:498
     8dc:	350000a1 	cbnz	w1, 8f0 <init_elf+0xd8>
/home/ssysarch/Desktop/nick/jetpack_5/Jetson_Linux_R35.4.1_aarch64/Linux_for_Tegra/sources/tegra/optee-src/nv-optee/optee/optee_os/ldelf/ta_elf.c:500
     8e0:	91400401 	add	x1, x0, #0x1, lsl #12
     8e4:	a9008660 	stp	x0, x1, [x19, #8]
/home/ssysarch/Desktop/nick/jetpack_5/Jetson_Linux_R35.4.1_aarch64/Linux_for_Tegra/sources/tegra/optee-src/nv-optee/optee/optee_os/ldelf/ta_elf.c:501
     8e8:	d2820001 	mov	x1, #0x1000                	// #4096
     8ec:	f9000e61 	str	x1, [x19, #24]
/home/ssysarch/Desktop/nick/jetpack_5/Jetson_Linux_R35.4.1_aarch64/Linux_for_Tegra/sources/tegra/optee-src/nv-optee/optee/optee_os/ldelf/ta_elf.c:504
     8f0:	b9400002 	ldr	w2, [x0]
     8f4:	5288afe1 	mov	w1, #0x457f                	// #17791
     8f8:	72a8c981 	movk	w1, #0x464c, lsl #16
     8fc:	6b01005f 	cmp	w2, w1
     900:	54000160 	b.eq	92c <init_elf+0x114>  // b.none
/home/ssysarch/Desktop/nick/jetpack_5/Jetson_Linux_R35.4.1_aarch64/Linux_for_Tegra/sources/tegra/optee-src/nv-optee/optee/optee_os/ldelf/ta_elf.c:505
     904:	d0000024 	adrp	x4, 6000 <kprintf.constprop.0+0x4c8>
     908:	912d1084 	add	x4, x4, #0xb44
     90c:	52800023 	mov	w3, #0x1                   	// #1
     910:	52800022 	mov	w2, #0x1                   	// #1
     914:	52803f21 	mov	w1, #0x1f9                 	// #505
/home/ssysarch/Desktop/nick/jetpack_5/Jetson_Linux_R35.4.1_aarch64/Linux_for_Tegra/sources/tegra/optee-src/nv-optee/optee/optee_os/ldelf/ta_elf.c:515
     918:	f0000020 	adrp	x0, 7000 <trace_ext_prefix+0x509>
     91c:	910cd400 	add	x0, x0, #0x335
     920:	940017eb 	bl	68cc <trace_printf>
     924:	129fff40 	mov	w0, #0xffff0005            	// #-65531
     928:	17ffffd2 	b	870 <init_elf+0x58>
e32_parse_ehdr():
/home/ssysarch/Desktop/nick/jetpack_5/Jetson_Linux_R35.4.1_aarch64/Linux_for_Tegra/sources/tegra/optee-src/nv-optee/optee/optee_os/ldelf/ta_elf.c:106
     92c:	b9400401 	ldr	w1, [x0, #4]
/home/ssysarch/Desktop/nick/jetpack_5/Jetson_Linux_R35.4.1_aarch64/Linux_for_Tegra/sources/tegra/optee-src/nv-optee/optee/optee_os/ldelf/ta_elf.c:104
     930:	52802022 	mov	w2, #0x101                 	// #257
     934:	72a00022 	movk	w2, #0x1, lsl #16
     938:	6b02003f 	cmp	w1, w2
     93c:	54000641 	b.ne	a04 <init_elf+0x1ec>  // b.any
/home/ssysarch/Desktop/nick/jetpack_5/Jetson_Linux_R35.4.1_aarch64/Linux_for_Tegra/sources/tegra/optee-src/nv-optee/optee/optee_os/ldelf/ta_elf.c:108
     940:	b9401002 	ldr	w2, [x0, #16]
     944:	52800061 	mov	w1, #0x3                   	// #3
     948:	72a00501 	movk	w1, #0x28, lsl #16
     94c:	6b01005f 	cmp	w2, w1
     950:	54000981 	b.ne	a80 <init_elf+0x268>  // b.any
/home/ssysarch/Desktop/nick/jetpack_5/Jetson_Linux_R35.4.1_aarch64/Linux_for_Tegra/sources/tegra/optee-src/nv-optee/optee/optee_os/ldelf/ta_elf.c:109
     954:	b9402401 	ldr	w1, [x0, #36]
/home/ssysarch/Desktop/nick/jetpack_5/Jetson_Linux_R35.4.1_aarch64/Linux_for_Tegra/sources/tegra/optee-src/nv-optee/optee/optee_os/ldelf/ta_elf.c:108
     958:	52a0a002 	mov	w2, #0x5000000             	// #83886080
/home/ssysarch/Desktop/nick/jetpack_5/Jetson_Linux_R35.4.1_aarch64/Linux_for_Tegra/sources/tegra/optee-src/nv-optee/optee/optee_os/ldelf/ta_elf.c:109
     95c:	12081c21 	and	w1, w1, #0xff000000
/home/ssysarch/Desktop/nick/jetpack_5/Jetson_Linux_R35.4.1_aarch64/Linux_for_Tegra/sources/tegra/optee-src/nv-optee/optee/optee_os/ldelf/ta_elf.c:108
     960:	6b02003f 	cmp	w1, w2
     964:	540008e1 	b.ne	a80 <init_elf+0x268>  // b.any
/home/ssysarch/Desktop/nick/jetpack_5/Jetson_Linux_R35.4.1_aarch64/Linux_for_Tegra/sources/tegra/optee-src/nv-optee/optee/optee_os/ldelf/ta_elf.c:109
     968:	79405401 	ldrh	w1, [x0, #42]
     96c:	7100803f 	cmp	w1, #0x20
     970:	54000881 	b.ne	a80 <init_elf+0x268>  // b.any
/home/ssysarch/Desktop/nick/jetpack_5/Jetson_Linux_R35.4.1_aarch64/Linux_for_Tegra/sources/tegra/optee-src/nv-optee/optee/optee_os/ldelf/ta_elf.c:113
     974:	79405c01 	ldrh	w1, [x0, #46]
     978:	7100a03f 	cmp	w1, #0x28
     97c:	54000821 	b.ne	a80 <init_elf+0x268>  // b.any
/home/ssysarch/Desktop/nick/jetpack_5/Jetson_Linux_R35.4.1_aarch64/Linux_for_Tegra/sources/tegra/optee-src/nv-optee/optee/optee_os/ldelf/ta_elf.c:117
     980:	52800021 	mov	w1, #0x1                   	// #1
     984:	39000661 	strb	w1, [x19, #1]
/home/ssysarch/Desktop/nick/jetpack_5/Jetson_Linux_R35.4.1_aarch64/Linux_for_Tegra/sources/tegra/optee-src/nv-optee/optee/optee_os/ldelf/ta_elf.c:118
     988:	b9401801 	ldr	w1, [x0, #24]
     98c:	f9001661 	str	x1, [x19, #40]
/home/ssysarch/Desktop/nick/jetpack_5/Jetson_Linux_R35.4.1_aarch64/Linux_for_Tegra/sources/tegra/optee-src/nv-optee/optee/optee_os/ldelf/ta_elf.c:119
     990:	b9401c01 	ldr	w1, [x0, #28]
     994:	f9001a61 	str	x1, [x19, #48]
/home/ssysarch/Desktop/nick/jetpack_5/Jetson_Linux_R35.4.1_aarch64/Linux_for_Tegra/sources/tegra/optee-src/nv-optee/optee/optee_os/ldelf/ta_elf.c:120
     998:	b9402001 	ldr	w1, [x0, #32]
     99c:	f9001e61 	str	x1, [x19, #56]
/home/ssysarch/Desktop/nick/jetpack_5/Jetson_Linux_R35.4.1_aarch64/Linux_for_Tegra/sources/tegra/optee-src/nv-optee/optee/optee_os/ldelf/ta_elf.c:121
     9a0:	79405801 	ldrh	w1, [x0, #44]
     9a4:	b9004261 	str	w1, [x19, #64]
/home/ssysarch/Desktop/nick/jetpack_5/Jetson_Linux_R35.4.1_aarch64/Linux_for_Tegra/sources/tegra/optee-src/nv-optee/optee/optee_os/ldelf/ta_elf.c:122
     9a8:	79406001 	ldrh	w1, [x0, #48]
     9ac:	b9004661 	str	w1, [x19, #68]
/home/ssysarch/Desktop/nick/jetpack_5/Jetson_Linux_R35.4.1_aarch64/Linux_for_Tegra/sources/tegra/optee-src/nv-optee/optee/optee_os/ldelf/ta_elf.c:123
     9b0:	d2800401 	mov	x1, #0x20                  	// #32
     9b4:	f2c00501 	movk	x1, #0x28, lsl #32
     9b8:	f9002661 	str	x1, [x19, #72]
init_elf():
/home/ssysarch/Desktop/nick/jetpack_5/Jetson_Linux_R35.4.1_aarch64/Linux_for_Tegra/sources/tegra/optee-src/nv-optee/optee/optee_os/ldelf/ta_elf.c:513
     9bc:	b9404263 	ldr	w3, [x19, #64]
     9c0:	b9404a61 	ldr	w1, [x19, #72]
/home/ssysarch/Desktop/nick/jetpack_5/Jetson_Linux_R35.4.1_aarch64/Linux_for_Tegra/sources/tegra/optee-src/nv-optee/optee/optee_os/ldelf/ta_elf.c:514
     9c4:	f9401a62 	ldr	x2, [x19, #48]
/home/ssysarch/Desktop/nick/jetpack_5/Jetson_Linux_R35.4.1_aarch64/Linux_for_Tegra/sources/tegra/optee-src/nv-optee/optee/optee_os/ldelf/ta_elf.c:513
     9c8:	9ba37c21 	umull	x1, w1, w3
/home/ssysarch/Desktop/nick/jetpack_5/Jetson_Linux_R35.4.1_aarch64/Linux_for_Tegra/sources/tegra/optee-src/nv-optee/optee/optee_os/ldelf/ta_elf.c:514
     9cc:	ab020021 	adds	x1, x1, x2
     9d0:	54000642 	b.cs	a98 <init_elf+0x280>  // b.hs, b.nlast
/home/ssysarch/Desktop/nick/jetpack_5/Jetson_Linux_R35.4.1_aarch64/Linux_for_Tegra/sources/tegra/optee-src/nv-optee/optee/optee_os/ldelf/ta_elf.c:517
     9d4:	f140043f 	cmp	x1, #0x1, lsl #12
     9d8:	540006c9 	b.ls	ab0 <init_elf+0x298>  // b.plast
/home/ssysarch/Desktop/nick/jetpack_5/Jetson_Linux_R35.4.1_aarch64/Linux_for_Tegra/sources/tegra/optee-src/nv-optee/optee/optee_os/ldelf/ta_elf.c:518
     9dc:	d0000024 	adrp	x4, 6000 <kprintf.constprop.0+0x4c8>
     9e0:	912e1084 	add	x4, x4, #0xb84
     9e4:	52800023 	mov	w3, #0x1                   	// #1
     9e8:	52800022 	mov	w2, #0x1                   	// #1
     9ec:	528040c1 	mov	w1, #0x206                 	// #518
     9f0:	f0000020 	adrp	x0, 7000 <trace_ext_prefix+0x509>
     9f4:	910cd400 	add	x0, x0, #0x335
     9f8:	940017b5 	bl	68cc <trace_printf>
     9fc:	129ffea0 	mov	w0, #0xffff000a            	// #-65526
     a00:	17ffff9c 	b	870 <init_elf+0x58>
e64_parse_ehdr():
/home/ssysarch/Desktop/nick/jetpack_5/Jetson_Linux_R35.4.1_aarch64/Linux_for_Tegra/sources/tegra/optee-src/nv-optee/optee/optee_os/ldelf/ta_elf.c:132
     a04:	52802042 	mov	w2, #0x102                 	// #258
     a08:	72a00022 	movk	w2, #0x1, lsl #16
     a0c:	6b02003f 	cmp	w1, w2
     a10:	54000381 	b.ne	a80 <init_elf+0x268>  // b.any
/home/ssysarch/Desktop/nick/jetpack_5/Jetson_Linux_R35.4.1_aarch64/Linux_for_Tegra/sources/tegra/optee-src/nv-optee/optee/optee_os/ldelf/ta_elf.c:136
     a14:	b9401002 	ldr	w2, [x0, #16]
     a18:	52800061 	mov	w1, #0x3                   	// #3
     a1c:	72a016e1 	movk	w1, #0xb7, lsl #16
     a20:	6b01005f 	cmp	w2, w1
     a24:	540002e1 	b.ne	a80 <init_elf+0x268>  // b.any
/home/ssysarch/Desktop/nick/jetpack_5/Jetson_Linux_R35.4.1_aarch64/Linux_for_Tegra/sources/tegra/optee-src/nv-optee/optee/optee_os/ldelf/ta_elf.c:137
     a28:	f9401801 	ldr	x1, [x0, #48]
     a2c:	d2e00702 	mov	x2, #0x38000000000000      	// #15762598695796736
     a30:	9250bc21 	and	x1, x1, #0xffff0000ffffffff
     a34:	eb02003f 	cmp	x1, x2
     a38:	54000241 	b.ne	a80 <init_elf+0x268>  // b.any
     a3c:	79407401 	ldrh	w1, [x0, #58]
     a40:	7101003f 	cmp	w1, #0x40
     a44:	540001e1 	b.ne	a80 <init_elf+0x268>  // b.any
/home/ssysarch/Desktop/nick/jetpack_5/Jetson_Linux_R35.4.1_aarch64/Linux_for_Tegra/sources/tegra/optee-src/nv-optee/optee/optee_os/ldelf/ta_elf.c:143
     a48:	f9400c02 	ldr	x2, [x0, #24]
     a4c:	f9001662 	str	x2, [x19, #40]
/home/ssysarch/Desktop/nick/jetpack_5/Jetson_Linux_R35.4.1_aarch64/Linux_for_Tegra/sources/tegra/optee-src/nv-optee/optee/optee_os/ldelf/ta_elf.c:144
     a50:	f9401002 	ldr	x2, [x0, #32]
     a54:	f9001a62 	str	x2, [x19, #48]
/home/ssysarch/Desktop/nick/jetpack_5/Jetson_Linux_R35.4.1_aarch64/Linux_for_Tegra/sources/tegra/optee-src/nv-optee/optee/optee_os/ldelf/ta_elf.c:145
     a58:	f9401402 	ldr	x2, [x0, #40]
     a5c:	f9001e62 	str	x2, [x19, #56]
/home/ssysarch/Desktop/nick/jetpack_5/Jetson_Linux_R35.4.1_aarch64/Linux_for_Tegra/sources/tegra/optee-src/nv-optee/optee/optee_os/ldelf/ta_elf.c:146
     a60:	79407002 	ldrh	w2, [x0, #56]
     a64:	b9004262 	str	w2, [x19, #64]
/home/ssysarch/Desktop/nick/jetpack_5/Jetson_Linux_R35.4.1_aarch64/Linux_for_Tegra/sources/tegra/optee-src/nv-optee/optee/optee_os/ldelf/ta_elf.c:147
     a68:	79407802 	ldrh	w2, [x0, #60]
     a6c:	b9004662 	str	w2, [x19, #68]
/home/ssysarch/Desktop/nick/jetpack_5/Jetson_Linux_R35.4.1_aarch64/Linux_for_Tegra/sources/tegra/optee-src/nv-optee/optee/optee_os/ldelf/ta_elf.c:148
     a70:	79406c02 	ldrh	w2, [x0, #54]
/home/ssysarch/Desktop/nick/jetpack_5/Jetson_Linux_R35.4.1_aarch64/Linux_for_Tegra/sources/tegra/optee-src/nv-optee/optee/optee_os/ldelf/ta_elf.c:142
     a74:	3900067f 	strb	wzr, [x19, #1]
/home/ssysarch/Desktop/nick/jetpack_5/Jetson_Linux_R35.4.1_aarch64/Linux_for_Tegra/sources/tegra/optee-src/nv-optee/optee/optee_os/ldelf/ta_elf.c:149
     a78:	29090662 	stp	w2, w1, [x19, #72]
init_elf():
/home/ssysarch/Desktop/nick/jetpack_5/Jetson_Linux_R35.4.1_aarch64/Linux_for_Tegra/sources/tegra/optee-src/nv-optee/optee/optee_os/ldelf/ta_elf.c:510
     a7c:	17ffffd0 	b	9bc <init_elf+0x1a4>
/home/ssysarch/Desktop/nick/jetpack_5/Jetson_Linux_R35.4.1_aarch64/Linux_for_Tegra/sources/tegra/optee-src/nv-optee/optee/optee_os/ldelf/ta_elf.c:511
     a80:	d0000024 	adrp	x4, 6000 <kprintf.constprop.0+0x4c8>
     a84:	912d5484 	add	x4, x4, #0xb55
     a88:	52800023 	mov	w3, #0x1                   	// #1
     a8c:	52800022 	mov	w2, #0x1                   	// #1
     a90:	52803fe1 	mov	w1, #0x1ff                 	// #511
     a94:	17ffffa1 	b	918 <init_elf+0x100>
/home/ssysarch/Desktop/nick/jetpack_5/Jetson_Linux_R35.4.1_aarch64/Linux_for_Tegra/sources/tegra/optee-src/nv-optee/optee/optee_os/ldelf/ta_elf.c:515
     a98:	d0000024 	adrp	x4, 6000 <kprintf.constprop.0+0x4c8>
     a9c:	912d9884 	add	x4, x4, #0xb66
     aa0:	52800023 	mov	w3, #0x1                   	// #1
     aa4:	52800022 	mov	w2, #0x1                   	// #1
     aa8:	52804061 	mov	w1, #0x203                 	// #515
     aac:	17ffff9b 	b	918 <init_elf+0x100>
/home/ssysarch/Desktop/nick/jetpack_5/Jetson_Linux_R35.4.1_aarch64/Linux_for_Tegra/sources/tegra/optee-src/nv-optee/optee/optee_os/ldelf/ta_elf.c:520
     ab0:	8b020000 	add	x0, x0, x2
/home/ssysarch/Desktop/nick/jetpack_5/Jetson_Linux_R35.4.1_aarch64/Linux_for_Tegra/sources/tegra/optee-src/nv-optee/optee/optee_os/ldelf/ta_elf.c:521
     ab4:	f94013f5 	ldr	x21, [sp, #32]
/home/ssysarch/Desktop/nick/jetpack_5/Jetson_Linux_R35.4.1_aarch64/Linux_for_Tegra/sources/tegra/optee-src/nv-optee/optee/optee_os/ldelf/ta_elf.c:520
     ab8:	f9002a60 	str	x0, [x19, #80]
/home/ssysarch/Desktop/nick/jetpack_5/Jetson_Linux_R35.4.1_aarch64/Linux_for_Tegra/sources/tegra/optee-src/nv-optee/optee/optee_os/ldelf/ta_elf.c:521
     abc:	a94153f3 	ldp	x19, x20, [sp, #16]
     ac0:	a8c47bfd 	ldp	x29, x30, [sp], #64
     ac4:	d65f03c0 	ret

0000000000000ac8 <print_wrapper>:
print_wrapper():
/home/ssysarch/Desktop/nick/jetpack_5/Jetson_Linux_R35.4.1_aarch64/Linux_for_Tegra/sources/tegra/optee-src/nv-optee/optee/optee_os/ldelf/ta_elf.c:1348
     ac8:	a9b87bfd 	stp	x29, x30, [sp, #-128]!
     acc:	aa0103e8 	mov	x8, x1
     ad0:	aa0203e1 	mov	x1, x2
     ad4:	910003fd 	mov	x29, sp
/home/ssysarch/Desktop/nick/jetpack_5/Jetson_Linux_R35.4.1_aarch64/Linux_for_Tegra/sources/tegra/optee-src/nv-optee/optee/optee_os/ldelf/ta_elf.c:1351
     ad8:	910203e2 	add	x2, sp, #0x80
     adc:	a9030be2 	stp	x2, x2, [sp, #48]
     ae0:	910143e2 	add	x2, sp, #0x50
     ae4:	f90023e2 	str	x2, [sp, #64]
     ae8:	128004e2 	mov	w2, #0xffffffd8            	// #-40
     aec:	b9004be2 	str	w2, [sp, #72]
     af0:	b9004fff 	str	wzr, [sp, #76]
/home/ssysarch/Desktop/nick/jetpack_5/Jetson_Linux_R35.4.1_aarch64/Linux_for_Tegra/sources/tegra/optee-src/nv-optee/optee/optee_os/ldelf/ta_elf.c:1348
     af4:	a90593e3 	stp	x3, x4, [sp, #88]
/home/ssysarch/Desktop/nick/jetpack_5/Jetson_Linux_R35.4.1_aarch64/Linux_for_Tegra/sources/tegra/optee-src/nv-optee/optee/optee_os/ldelf/ta_elf.c:1352
     af8:	a9430fe2 	ldp	x2, x3, [sp, #48]
     afc:	a9010fe2 	stp	x2, x3, [sp, #16]
     b00:	a9440fe2 	ldp	x2, x3, [sp, #64]
     b04:	a9020fe2 	stp	x2, x3, [sp, #32]
/home/ssysarch/Desktop/nick/jetpack_5/Jetson_Linux_R35.4.1_aarch64/Linux_for_Tegra/sources/tegra/optee-src/nv-optee/optee/optee_os/ldelf/ta_elf.c:1348
     b08:	a9069be5 	stp	x5, x6, [sp, #104]
/home/ssysarch/Desktop/nick/jetpack_5/Jetson_Linux_R35.4.1_aarch64/Linux_for_Tegra/sources/tegra/optee-src/nv-optee/optee/optee_os/ldelf/ta_elf.c:1352
     b0c:	910043e2 	add	x2, sp, #0x10
/home/ssysarch/Desktop/nick/jetpack_5/Jetson_Linux_R35.4.1_aarch64/Linux_for_Tegra/sources/tegra/optee-src/nv-optee/optee/optee_os/ldelf/ta_elf.c:1348
     b10:	f9003fe7 	str	x7, [sp, #120]
/home/ssysarch/Desktop/nick/jetpack_5/Jetson_Linux_R35.4.1_aarch64/Linux_for_Tegra/sources/tegra/optee-src/nv-optee/optee/optee_os/ldelf/ta_elf.c:1352
     b14:	d63f0100 	blr	x8
/home/ssysarch/Desktop/nick/jetpack_5/Jetson_Linux_R35.4.1_aarch64/Linux_for_Tegra/sources/tegra/optee-src/nv-optee/optee/optee_os/ldelf/ta_elf.c:1354
     b18:	a8c87bfd 	ldp	x29, x30, [sp], #128
     b1c:	d65f03c0 	ret

0000000000000b20 <read_dyn>:
read_dyn():
/home/ssysarch/Desktop/nick/jetpack_5/Jetson_Linux_R35.4.1_aarch64/Linux_for_Tegra/sources/tegra/optee-src/nv-optee/optee/optee_os/ldelf/ta_elf.c:214
     b20:	f9400405 	ldr	x5, [x0, #8]
     b24:	39400400 	ldrb	w0, [x0, #1]
     b28:	8b050021 	add	x1, x1, x5
     b2c:	34000100 	cbz	w0, b4c <read_dyn+0x2c>
/home/ssysarch/Desktop/nick/jetpack_5/Jetson_Linux_R35.4.1_aarch64/Linux_for_Tegra/sources/tegra/optee-src/nv-optee/optee/optee_os/ldelf/ta_elf.c:217
     b30:	d37df040 	lsl	x0, x2, #3
     b34:	8b020c22 	add	x2, x1, x2, lsl #3
     b38:	b8606820 	ldr	w0, [x1, x0]
     b3c:	b9000060 	str	w0, [x3]
/home/ssysarch/Desktop/nick/jetpack_5/Jetson_Linux_R35.4.1_aarch64/Linux_for_Tegra/sources/tegra/optee-src/nv-optee/optee/optee_os/ldelf/ta_elf.c:218
     b40:	b9400440 	ldr	w0, [x2, #4]
/home/ssysarch/Desktop/nick/jetpack_5/Jetson_Linux_R35.4.1_aarch64/Linux_for_Tegra/sources/tegra/optee-src/nv-optee/optee/optee_os/ldelf/ta_elf.c:223
     b44:	f9000080 	str	x0, [x4]
/home/ssysarch/Desktop/nick/jetpack_5/Jetson_Linux_R35.4.1_aarch64/Linux_for_Tegra/sources/tegra/optee-src/nv-optee/optee/optee_os/ldelf/ta_elf.c:225
     b48:	d65f03c0 	ret
/home/ssysarch/Desktop/nick/jetpack_5/Jetson_Linux_R35.4.1_aarch64/Linux_for_Tegra/sources/tegra/optee-src/nv-optee/optee/optee_os/ldelf/ta_elf.c:222
     b4c:	d37cec40 	lsl	x0, x2, #4
     b50:	8b021022 	add	x2, x1, x2, lsl #4
     b54:	f8606820 	ldr	x0, [x1, x0]
     b58:	b9000060 	str	w0, [x3]
/home/ssysarch/Desktop/nick/jetpack_5/Jetson_Linux_R35.4.1_aarch64/Linux_for_Tegra/sources/tegra/optee-src/nv-optee/optee/optee_os/ldelf/ta_elf.c:223
     b5c:	f9400440 	ldr	x0, [x2, #8]
     b60:	17fffff9 	b	b44 <read_dyn+0x24>

0000000000000b64 <check_range>:
check_range():
/home/ssysarch/Desktop/nick/jetpack_5/Jetson_Linux_R35.4.1_aarch64/Linux_for_Tegra/sources/tegra/optee-src/nv-optee/optee/optee_os/ldelf/ta_elf.c:229
     b64:	a9bf7bfd 	stp	x29, x30, [sp, #-16]!
     b68:	aa0103e5 	mov	x5, x1
     b6c:	aa0203e6 	mov	x6, x2
     b70:	910003fd 	mov	x29, sp
/home/ssysarch/Desktop/nick/jetpack_5/Jetson_Linux_R35.4.1_aarch64/Linux_for_Tegra/sources/tegra/optee-src/nv-optee/optee/optee_os/ldelf/ta_elf.c:232
     b74:	f9400401 	ldr	x1, [x0, #8]
     b78:	eb02003f 	cmp	x1, x2
     b7c:	54000169 	b.ls	ba8 <check_range+0x44>  // b.plast
/home/ssysarch/Desktop/nick/jetpack_5/Jetson_Linux_R35.4.1_aarch64/Linux_for_Tegra/sources/tegra/optee-src/nv-optee/optee/optee_os/ldelf/ta_elf.c:233
     b80:	d0000024 	adrp	x4, 6000 <kprintf.constprop.0+0x4c8>
     b84:	912e8084 	add	x4, x4, #0xba0
     b88:	f0000020 	adrp	x0, 7000 <trace_ext_prefix+0x509>
     b8c:	910b4000 	add	x0, x0, #0x2d0
     b90:	52800023 	mov	w3, #0x1                   	// #1
     b94:	52800022 	mov	w2, #0x1                   	// #1
     b98:	52801d21 	mov	w1, #0xe9                  	// #233
     b9c:	9400174c 	bl	68cc <trace_printf>
/home/ssysarch/Desktop/nick/jetpack_5/Jetson_Linux_R35.4.1_aarch64/Linux_for_Tegra/sources/tegra/optee-src/nv-optee/optee/optee_os/ldelf/ta_elf.c:236
     ba0:	129fff40 	mov	w0, #0xffff0005            	// #-65531
     ba4:	97fffd71 	bl	168 <_ldelf_return>
/home/ssysarch/Desktop/nick/jetpack_5/Jetson_Linux_R35.4.1_aarch64/Linux_for_Tegra/sources/tegra/optee-src/nv-optee/optee/optee_os/ldelf/ta_elf.c:235
     ba8:	ab030047 	adds	x7, x2, x3
     bac:	540001a2 	b.cs	be0 <check_range+0x7c>  // b.hs, b.nlast
/home/ssysarch/Desktop/nick/jetpack_5/Jetson_Linux_R35.4.1_aarch64/Linux_for_Tegra/sources/tegra/optee-src/nv-optee/optee/optee_os/ldelf/ta_elf.c:238
     bb0:	f9400800 	ldr	x0, [x0, #16]
     bb4:	eb0000ff 	cmp	x7, x0
     bb8:	54000269 	b.ls	c04 <check_range+0xa0>  // b.plast
/home/ssysarch/Desktop/nick/jetpack_5/Jetson_Linux_R35.4.1_aarch64/Linux_for_Tegra/sources/tegra/optee-src/nv-optee/optee/optee_os/ldelf/ta_elf.c:239
     bbc:	d0000024 	adrp	x4, 6000 <kprintf.constprop.0+0x4c8>
     bc0:	912f1484 	add	x4, x4, #0xbc5
     bc4:	52800023 	mov	w3, #0x1                   	// #1
     bc8:	52800022 	mov	w2, #0x1                   	// #1
     bcc:	52801de1 	mov	w1, #0xef                  	// #239
     bd0:	f0000020 	adrp	x0, 7000 <trace_ext_prefix+0x509>
     bd4:	910b4000 	add	x0, x0, #0x2d0
     bd8:	9400173d 	bl	68cc <trace_printf>
     bdc:	17fffff1 	b	ba0 <check_range+0x3c>
/home/ssysarch/Desktop/nick/jetpack_5/Jetson_Linux_R35.4.1_aarch64/Linux_for_Tegra/sources/tegra/optee-src/nv-optee/optee/optee_os/ldelf/ta_elf.c:236
     be0:	d0000024 	adrp	x4, 6000 <kprintf.constprop.0+0x4c8>
     be4:	912ecc84 	add	x4, x4, #0xbb3
     be8:	52800023 	mov	w3, #0x1                   	// #1
     bec:	52800022 	mov	w2, #0x1                   	// #1
     bf0:	52801d81 	mov	w1, #0xec                  	// #236
     bf4:	f0000020 	adrp	x0, 7000 <trace_ext_prefix+0x509>
     bf8:	910b4000 	add	x0, x0, #0x2d0
     bfc:	94001734 	bl	68cc <trace_printf>
     c00:	17ffffe8 	b	ba0 <check_range+0x3c>
/home/ssysarch/Desktop/nick/jetpack_5/Jetson_Linux_R35.4.1_aarch64/Linux_for_Tegra/sources/tegra/optee-src/nv-optee/optee/optee_os/ldelf/ta_elf.c:241
     c04:	a8c17bfd 	ldp	x29, x30, [sp], #16
     c08:	d65f03c0 	ret

0000000000000c0c <check_hashtab>:
check_hashtab():
/home/ssysarch/Desktop/nick/jetpack_5/Jetson_Linux_R35.4.1_aarch64/Linux_for_Tegra/sources/tegra/optee-src/nv-optee/optee/optee_os/ldelf/ta_elf.c:245
     c0c:	aa0103e5 	mov	x5, x1
/home/ssysarch/Desktop/nick/jetpack_5/Jetson_Linux_R35.4.1_aarch64/Linux_for_Tegra/sources/tegra/optee-src/nv-optee/optee/optee_os/ldelf/ta_elf.c:256
     c10:	f240043f 	tst	x1, #0x3
     c14:	540001a0 	b.eq	c48 <check_hashtab+0x3c>  // b.none
/home/ssysarch/Desktop/nick/jetpack_5/Jetson_Linux_R35.4.1_aarch64/Linux_for_Tegra/sources/tegra/optee-src/nv-optee/optee/optee_os/ldelf/ta_elf.c:245
     c18:	a9bf7bfd 	stp	x29, x30, [sp, #-16]!
/home/ssysarch/Desktop/nick/jetpack_5/Jetson_Linux_R35.4.1_aarch64/Linux_for_Tegra/sources/tegra/optee-src/nv-optee/optee/optee_os/ldelf/ta_elf.c:257
     c1c:	d0000024 	adrp	x4, 6000 <kprintf.constprop.0+0x4c8>
     c20:	912f7884 	add	x4, x4, #0xbde
     c24:	52800023 	mov	w3, #0x1                   	// #1
     c28:	52800022 	mov	w2, #0x1                   	// #1
     c2c:	52802021 	mov	w1, #0x101                 	// #257
/home/ssysarch/Desktop/nick/jetpack_5/Jetson_Linux_R35.4.1_aarch64/Linux_for_Tegra/sources/tegra/optee-src/nv-optee/optee/optee_os/ldelf/ta_elf.c:245
     c30:	910003fd 	mov	x29, sp
/home/ssysarch/Desktop/nick/jetpack_5/Jetson_Linux_R35.4.1_aarch64/Linux_for_Tegra/sources/tegra/optee-src/nv-optee/optee/optee_os/ldelf/ta_elf.c:257
     c34:	f0000020 	adrp	x0, 7000 <trace_ext_prefix+0x509>
     c38:	910b7000 	add	x0, x0, #0x2dc
     c3c:	94001724 	bl	68cc <trace_printf>
     c40:	129fff40 	mov	w0, #0xffff0005            	// #-65531
     c44:	97fffd49 	bl	168 <_ldelf_return>
/home/ssysarch/Desktop/nick/jetpack_5/Jetson_Linux_R35.4.1_aarch64/Linux_for_Tegra/sources/tegra/optee-src/nv-optee/optee/optee_os/ldelf/ta_elf.c:260
     c48:	91000863 	add	x3, x3, #0x2
     c4c:	8b020063 	add	x3, x3, x2
/home/ssysarch/Desktop/nick/jetpack_5/Jetson_Linux_R35.4.1_aarch64/Linux_for_Tegra/sources/tegra/optee-src/nv-optee/optee/optee_os/ldelf/ta_elf.c:264
     c50:	aa0103e2 	mov	x2, x1
     c54:	d0000021 	adrp	x1, 6000 <kprintf.constprop.0+0x4c8>
     c58:	912fe821 	add	x1, x1, #0xbfa
     c5c:	d37ef463 	lsl	x3, x3, #2
     c60:	17ffffc1 	b	b64 <check_range>

0000000000000c64 <add_segment.isra.0>:
add_segment():
/home/ssysarch/Desktop/nick/jetpack_5/Jetson_Linux_R35.4.1_aarch64/Linux_for_Tegra/sources/tegra/optee-src/nv-optee/optee/optee_os/ldelf/ta_elf.c:533
     c64:	a9bb7bfd 	stp	x29, x30, [sp, #-80]!
     c68:	910003fd 	mov	x29, sp
     c6c:	a90153f3 	stp	x19, x20, [sp, #16]
     c70:	aa0003f3 	mov	x19, x0
     c74:	aa0403f4 	mov	x20, x4
/home/ssysarch/Desktop/nick/jetpack_5/Jetson_Linux_R35.4.1_aarch64/Linux_for_Tegra/sources/tegra/optee-src/nv-optee/optee/optee_os/ldelf/ta_elf.c:536
     c78:	d2800020 	mov	x0, #0x1                   	// #1
/home/ssysarch/Desktop/nick/jetpack_5/Jetson_Linux_R35.4.1_aarch64/Linux_for_Tegra/sources/tegra/optee-src/nv-optee/optee/optee_os/ldelf/ta_elf.c:533
     c7c:	a9025bf5 	stp	x21, x22, [sp, #32]
     c80:	aa0303f5 	mov	x21, x3
     c84:	aa0603f6 	mov	x22, x6
     c88:	a90363f7 	stp	x23, x24, [sp, #48]
     c8c:	aa0203f8 	mov	x24, x2
     c90:	aa0503f7 	mov	x23, x5
     c94:	f90023f9 	str	x25, [sp, #64]
     c98:	aa0103f9 	mov	x25, x1
/home/ssysarch/Desktop/nick/jetpack_5/Jetson_Linux_R35.4.1_aarch64/Linux_for_Tegra/sources/tegra/optee-src/nv-optee/optee/optee_os/ldelf/ta_elf.c:536
     c9c:	d2800901 	mov	x1, #0x48                  	// #72
     ca0:	940012ad 	bl	5754 <calloc>
/home/ssysarch/Desktop/nick/jetpack_5/Jetson_Linux_R35.4.1_aarch64/Linux_for_Tegra/sources/tegra/optee-src/nv-optee/optee/optee_os/ldelf/ta_elf.c:538
     ca4:	b5000160 	cbnz	x0, cd0 <add_segment.isra.0+0x6c>
/home/ssysarch/Desktop/nick/jetpack_5/Jetson_Linux_R35.4.1_aarch64/Linux_for_Tegra/sources/tegra/optee-src/nv-optee/optee/optee_os/ldelf/ta_elf.c:539
     ca8:	d0000024 	adrp	x4, 6000 <kprintf.constprop.0+0x4c8>
     cac:	91300884 	add	x4, x4, #0xc02
     cb0:	52800023 	mov	w3, #0x1                   	// #1
     cb4:	52800022 	mov	w2, #0x1                   	// #1
     cb8:	52804361 	mov	w1, #0x21b                 	// #539
     cbc:	f0000020 	adrp	x0, 7000 <trace_ext_prefix+0x509>
     cc0:	910cf800 	add	x0, x0, #0x33e
     cc4:	94001702 	bl	68cc <trace_printf>
     cc8:	129ffe60 	mov	w0, #0xffff000c            	// #-65524
/home/ssysarch/Desktop/nick/jetpack_5/Jetson_Linux_R35.4.1_aarch64/Linux_for_Tegra/sources/tegra/optee-src/nv-optee/optee/optee_os/ldelf/ta_elf.c:542
     ccc:	97fffd27 	bl	168 <_ldelf_return>
/home/ssysarch/Desktop/nick/jetpack_5/Jetson_Linux_R35.4.1_aarch64/Linux_for_Tegra/sources/tegra/optee-src/nv-optee/optee/optee_os/ldelf/ta_elf.c:541
     cd0:	eb15029f 	cmp	x20, x21
     cd4:	54000162 	b.cs	d00 <add_segment.isra.0+0x9c>  // b.hs, b.nlast
/home/ssysarch/Desktop/nick/jetpack_5/Jetson_Linux_R35.4.1_aarch64/Linux_for_Tegra/sources/tegra/optee-src/nv-optee/optee/optee_os/ldelf/ta_elf.c:542
     cd8:	d0000024 	adrp	x4, 6000 <kprintf.constprop.0+0x4c8>
     cdc:	91302484 	add	x4, x4, #0xc09
     ce0:	52800023 	mov	w3, #0x1                   	// #1
     ce4:	52800022 	mov	w2, #0x1                   	// #1
     ce8:	528043c1 	mov	w1, #0x21e                 	// #542
     cec:	f0000020 	adrp	x0, 7000 <trace_ext_prefix+0x509>
     cf0:	910cf800 	add	x0, x0, #0x33e
     cf4:	940016f6 	bl	68cc <trace_printf>
     cf8:	129fff40 	mov	w0, #0xffff0005            	// #-65531
     cfc:	17fffff4 	b	ccc <add_segment.isra.0+0x68>
/home/ssysarch/Desktop/nick/jetpack_5/Jetson_Linux_R35.4.1_aarch64/Linux_for_Tegra/sources/tegra/optee-src/nv-optee/optee/optee_os/ldelf/ta_elf.c:551
     d00:	f9400261 	ldr	x1, [x19]
/home/ssysarch/Desktop/nick/jetpack_5/Jetson_Linux_R35.4.1_aarch64/Linux_for_Tegra/sources/tegra/optee-src/nv-optee/optee/optee_os/ldelf/ta_elf.c:545
     d04:	a9006019 	stp	x25, x24, [x0]
/home/ssysarch/Desktop/nick/jetpack_5/Jetson_Linux_R35.4.1_aarch64/Linux_for_Tegra/sources/tegra/optee-src/nv-optee/optee/optee_os/ldelf/ta_elf.c:547
     d08:	a9015015 	stp	x21, x20, [x0, #16]
/home/ssysarch/Desktop/nick/jetpack_5/Jetson_Linux_R35.4.1_aarch64/Linux_for_Tegra/sources/tegra/optee-src/nv-optee/optee/optee_os/ldelf/ta_elf.c:549
     d0c:	a9025817 	stp	x23, x22, [x0, #32]
/home/ssysarch/Desktop/nick/jetpack_5/Jetson_Linux_R35.4.1_aarch64/Linux_for_Tegra/sources/tegra/optee-src/nv-optee/optee/optee_os/ldelf/ta_elf.c:551
     d10:	a903841f 	stp	xzr, x1, [x0, #56]
/home/ssysarch/Desktop/nick/jetpack_5/Jetson_Linux_R35.4.1_aarch64/Linux_for_Tegra/sources/tegra/optee-src/nv-optee/optee/optee_os/ldelf/ta_elf.c:552
     d14:	a9425bf5 	ldp	x21, x22, [sp, #32]
     d18:	a94363f7 	ldp	x23, x24, [sp, #48]
     d1c:	f94023f9 	ldr	x25, [sp, #64]
/home/ssysarch/Desktop/nick/jetpack_5/Jetson_Linux_R35.4.1_aarch64/Linux_for_Tegra/sources/tegra/optee-src/nv-optee/optee/optee_os/ldelf/ta_elf.c:551
     d20:	f9000020 	str	x0, [x1]
     d24:	9100e001 	add	x1, x0, #0x38
     d28:	f9000261 	str	x1, [x19]
/home/ssysarch/Desktop/nick/jetpack_5/Jetson_Linux_R35.4.1_aarch64/Linux_for_Tegra/sources/tegra/optee-src/nv-optee/optee/optee_os/ldelf/ta_elf.c:552
     d2c:	a94153f3 	ldp	x19, x20, [sp, #16]
     d30:	a8c57bfd 	ldp	x29, x30, [sp], #80
     d34:	d65f03c0 	ret

0000000000000d38 <close_handle.isra.0>:
close_handle():
/home/ssysarch/Desktop/nick/jetpack_5/Jetson_Linux_R35.4.1_aarch64/Linux_for_Tegra/sources/tegra/optee-src/nv-optee/optee/optee_os/ldelf/ta_elf.c:1128
     d38:	a9be7bfd 	stp	x29, x30, [sp, #-32]!
     d3c:	910003fd 	mov	x29, sp
     d40:	a90153f3 	stp	x19, x20, [sp, #16]
     d44:	aa0003f3 	mov	x19, x0
/home/ssysarch/Desktop/nick/jetpack_5/Jetson_Linux_R35.4.1_aarch64/Linux_for_Tegra/sources/tegra/optee-src/nv-optee/optee/optee_os/ldelf/ta_elf.c:1130
     d48:	b9400000 	ldr	w0, [x0]
     d4c:	97fffe50 	bl	68c <sys_close_ta_bin>
/home/ssysarch/Desktop/nick/jetpack_5/Jetson_Linux_R35.4.1_aarch64/Linux_for_Tegra/sources/tegra/optee-src/nv-optee/optee/optee_os/ldelf/ta_elf.c:1132
     d50:	34000180 	cbz	w0, d80 <close_handle.isra.0+0x48>
/home/ssysarch/Desktop/nick/jetpack_5/Jetson_Linux_R35.4.1_aarch64/Linux_for_Tegra/sources/tegra/optee-src/nv-optee/optee/optee_os/ldelf/ta_elf.c:1133
     d54:	d0000024 	adrp	x4, 6000 <kprintf.constprop.0+0x4c8>
     d58:	91308c84 	add	x4, x4, #0xc23
     d5c:	52800023 	mov	w3, #0x1                   	// #1
     d60:	52800022 	mov	w2, #0x1                   	// #1
     d64:	52808da1 	mov	w1, #0x46d                 	// #1133
     d68:	2a0003f4 	mov	w20, w0
     d6c:	f0000020 	adrp	x0, 7000 <trace_ext_prefix+0x509>
     d70:	910fac00 	add	x0, x0, #0x3eb
     d74:	940016d6 	bl	68cc <trace_printf>
     d78:	2a1403e0 	mov	w0, w20
     d7c:	97fffcfb 	bl	168 <_ldelf_return>
/home/ssysarch/Desktop/nick/jetpack_5/Jetson_Linux_R35.4.1_aarch64/Linux_for_Tegra/sources/tegra/optee-src/nv-optee/optee/optee_os/ldelf/ta_elf.c:1134
     d80:	12800000 	mov	w0, #0xffffffff            	// #-1
     d84:	b9000260 	str	w0, [x19]
/home/ssysarch/Desktop/nick/jetpack_5/Jetson_Linux_R35.4.1_aarch64/Linux_for_Tegra/sources/tegra/optee-src/nv-optee/optee/optee_os/ldelf/ta_elf.c:1135
     d88:	a94153f3 	ldp	x19, x20, [sp, #16]
     d8c:	a8c27bfd 	ldp	x29, x30, [sp], #32
     d90:	d65f03c0 	ret

0000000000000d94 <check_phdr_in_range.constprop.0>:
check_phdr_in_range():
/home/ssysarch/Desktop/nick/jetpack_5/Jetson_Linux_R35.4.1_aarch64/Linux_for_Tegra/sources/tegra/optee-src/nv-optee/optee/optee_os/ldelf/ta_elf.c:193
     d94:	a9bf7bfd 	stp	x29, x30, [sp, #-16]!
/home/ssysarch/Desktop/nick/jetpack_5/Jetson_Linux_R35.4.1_aarch64/Linux_for_Tegra/sources/tegra/optee-src/nv-optee/optee/optee_os/ldelf/ta_elf.c:198
     d98:	ab020021 	adds	x1, x1, x2
/home/ssysarch/Desktop/nick/jetpack_5/Jetson_Linux_R35.4.1_aarch64/Linux_for_Tegra/sources/tegra/optee-src/nv-optee/optee/optee_os/ldelf/ta_elf.c:193
     d9c:	910003fd 	mov	x29, sp
/home/ssysarch/Desktop/nick/jetpack_5/Jetson_Linux_R35.4.1_aarch64/Linux_for_Tegra/sources/tegra/optee-src/nv-optee/optee/optee_os/ldelf/ta_elf.c:198
     da0:	540001a2 	b.cs	dd4 <check_phdr_in_range.constprop.0+0x40>  // b.hs, b.nlast
/home/ssysarch/Desktop/nick/jetpack_5/Jetson_Linux_R35.4.1_aarch64/Linux_for_Tegra/sources/tegra/optee-src/nv-optee/optee/optee_os/ldelf/ta_elf.c:206
     da4:	f9400802 	ldr	x2, [x0, #16]
     da8:	f9400400 	ldr	x0, [x0, #8]
     dac:	cb000040 	sub	x0, x2, x0
     db0:	eb00003f 	cmp	x1, x0
     db4:	54000269 	b.ls	e00 <check_phdr_in_range.constprop.0+0x6c>  // b.plast
/home/ssysarch/Desktop/nick/jetpack_5/Jetson_Linux_R35.4.1_aarch64/Linux_for_Tegra/sources/tegra/optee-src/nv-optee/optee/optee_os/ldelf/ta_elf.c:207
     db8:	d0000024 	adrp	x4, 6000 <kprintf.constprop.0+0x4c8>
     dbc:	91314084 	add	x4, x4, #0xc50
     dc0:	52800045 	mov	w5, #0x2                   	// #2
     dc4:	52800023 	mov	w3, #0x1                   	// #1
     dc8:	52800022 	mov	w2, #0x1                   	// #1
     dcc:	528019e1 	mov	w1, #0xcf                  	// #207
     dd0:	14000007 	b	dec <check_phdr_in_range.constprop.0+0x58>
/home/ssysarch/Desktop/nick/jetpack_5/Jetson_Linux_R35.4.1_aarch64/Linux_for_Tegra/sources/tegra/optee-src/nv-optee/optee/optee_os/ldelf/ta_elf.c:199
     dd4:	d0000024 	adrp	x4, 6000 <kprintf.constprop.0+0x4c8>
     dd8:	9130d084 	add	x4, x4, #0xc34
     ddc:	52800045 	mov	w5, #0x2                   	// #2
     de0:	52800023 	mov	w3, #0x1                   	// #1
     de4:	52800022 	mov	w2, #0x1                   	// #1
     de8:	528018e1 	mov	w1, #0xc7                  	// #199
/home/ssysarch/Desktop/nick/jetpack_5/Jetson_Linux_R35.4.1_aarch64/Linux_for_Tegra/sources/tegra/optee-src/nv-optee/optee/optee_os/ldelf/ta_elf.c:207
     dec:	f0000020 	adrp	x0, 7000 <trace_ext_prefix+0x509>
     df0:	910af000 	add	x0, x0, #0x2bc
     df4:	940016b6 	bl	68cc <trace_printf>
     df8:	129fff40 	mov	w0, #0xffff0005            	// #-65531
     dfc:	97fffcdb 	bl	168 <_ldelf_return>
/home/ssysarch/Desktop/nick/jetpack_5/Jetson_Linux_R35.4.1_aarch64/Linux_for_Tegra/sources/tegra/optee-src/nv-optee/optee/optee_os/ldelf/ta_elf.c:209
     e00:	a8c17bfd 	ldp	x29, x30, [sp], #16
     e04:	d65f03c0 	ret

0000000000000e08 <_assert_trap.constprop.0>:
_assert_trap():
/home/ssysarch/Desktop/nick/jetpack_5/Jetson_Linux_R35.4.1_aarch64/Linux_for_Tegra/sources/tegra/optee-src/nv-optee/optee/optee_os/lib/libutils/isoc/include/assert.h:19
     e08:	aa0203e3 	mov	x3, x2
     e0c:	2a0103e2 	mov	w2, w1
     e10:	d0000021 	adrp	x1, 6000 <kprintf.constprop.0+0x4c8>
     e14:	9131c421 	add	x1, x1, #0xc71
/home/ssysarch/Desktop/nick/jetpack_5/Jetson_Linux_R35.4.1_aarch64/Linux_for_Tegra/sources/tegra/optee-src/nv-optee/optee/optee_os/lib/libutils/isoc/include/assert.h:15
     e18:	a9bf7bfd 	stp	x29, x30, [sp, #-16]!
     e1c:	910003fd 	mov	x29, sp
/home/ssysarch/Desktop/nick/jetpack_5/Jetson_Linux_R35.4.1_aarch64/Linux_for_Tegra/sources/tegra/optee-src/nv-optee/optee/optee_os/lib/libutils/isoc/include/assert.h:19
     e20:	94000f7d 	bl	4c14 <_assert_log>
/home/ssysarch/Desktop/nick/jetpack_5/Jetson_Linux_R35.4.1_aarch64/Linux_for_Tegra/sources/tegra/optee-src/nv-optee/optee/optee_os/lib/libutils/isoc/include/assert.h:20
     e24:	94000f8d 	bl	4c58 <_assert_break>

0000000000000e28 <get_init_fini_array.constprop.0>:
get_init_fini_array():
/home/ssysarch/Desktop/nick/jetpack_5/Jetson_Linux_R35.4.1_aarch64/Linux_for_Tegra/sources/tegra/optee-src/nv-optee/optee/optee_os/ldelf/ta_elf.c:1617
     e28:	a9ba7bfd 	stp	x29, x30, [sp, #-96]!
     e2c:	910003fd 	mov	x29, sp
     e30:	a90153f3 	stp	x19, x20, [sp, #16]
     e34:	aa0003f3 	mov	x19, x0
     e38:	aa0103f4 	mov	x20, x1
     e3c:	a9025bf5 	stp	x21, x22, [sp, #32]
     e40:	aa0303f5 	mov	x21, x3
     e44:	aa0403f6 	mov	x22, x4
     e48:	a90363f7 	stp	x23, x24, [sp, #48]
     e4c:	aa0603f8 	mov	x24, x6
     e50:	aa0503f7 	mov	x23, x5
     e54:	f90023f9 	str	x25, [sp, #64]
     e58:	aa0203f9 	mov	x25, x2
/home/ssysarch/Desktop/nick/jetpack_5/Jetson_Linux_R35.4.1_aarch64/Linux_for_Tegra/sources/tegra/optee-src/nv-optee/optee/optee_os/ldelf/ta_elf.c:1626
     e5c:	b90057ff 	str	wzr, [sp, #84]
/home/ssysarch/Desktop/nick/jetpack_5/Jetson_Linux_R35.4.1_aarch64/Linux_for_Tegra/sources/tegra/optee-src/nv-optee/optee/optee_os/ldelf/ta_elf.c:1627
     e60:	f9002fff 	str	xzr, [sp, #88]
/home/ssysarch/Desktop/nick/jetpack_5/Jetson_Linux_R35.4.1_aarch64/Linux_for_Tegra/sources/tegra/optee-src/nv-optee/optee/optee_os/ldelf/ta_elf.c:1631
     e64:	97ffffcc 	bl	d94 <check_phdr_in_range.constprop.0>
/home/ssysarch/Desktop/nick/jetpack_5/Jetson_Linux_R35.4.1_aarch64/Linux_for_Tegra/sources/tegra/optee-src/nv-optee/optee/optee_os/ldelf/ta_elf.c:1633
     e68:	39400661 	ldrb	w1, [x19, #1]
/home/ssysarch/Desktop/nick/jetpack_5/Jetson_Linux_R35.4.1_aarch64/Linux_for_Tegra/sources/tegra/optee-src/nv-optee/optee/optee_os/ldelf/ta_elf.c:1637
     e6c:	d2800100 	mov	x0, #0x8                   	// #8
     e70:	d2800207 	mov	x7, #0x10                  	// #16
     e74:	d2800088 	mov	x8, #0x4                   	// #4
     e78:	7100003f 	cmp	w1, #0x0
     e7c:	9a871007 	csel	x7, x0, x7, ne  // ne = any
     e80:	9a801108 	csel	x8, x8, x0, ne  // ne = any
/home/ssysarch/Desktop/nick/jetpack_5/Jetson_Linux_R35.4.1_aarch64/Linux_for_Tegra/sources/tegra/optee-src/nv-optee/optee/optee_os/ldelf/ta_elf.c:1641
     e84:	9ac70b26 	udiv	x6, x25, x7
     e88:	9b07e4c7 	msub	x7, x6, x7, x25
     e8c:	b5000167 	cbnz	x7, eb8 <get_init_fini_array.constprop.0+0x90>
/home/ssysarch/Desktop/nick/jetpack_5/Jetson_Linux_R35.4.1_aarch64/Linux_for_Tegra/sources/tegra/optee-src/nv-optee/optee/optee_os/ldelf/ta_elf.c:1645
     e90:	910163e4 	add	x4, sp, #0x58
     e94:	910153e3 	add	x3, sp, #0x54
/home/ssysarch/Desktop/nick/jetpack_5/Jetson_Linux_R35.4.1_aarch64/Linux_for_Tegra/sources/tegra/optee-src/nv-optee/optee/optee_os/ldelf/ta_elf.c:1644
     e98:	eb0700df 	cmp	x6, x7
     e9c:	540001a1 	b.ne	ed0 <get_init_fini_array.constprop.0+0xa8>  // b.any
/home/ssysarch/Desktop/nick/jetpack_5/Jetson_Linux_R35.4.1_aarch64/Linux_for_Tegra/sources/tegra/optee-src/nv-optee/optee/optee_os/ldelf/ta_elf.c:1655
     ea0:	a94153f3 	ldp	x19, x20, [sp, #16]
     ea4:	a9425bf5 	ldp	x21, x22, [sp, #32]
     ea8:	a94363f7 	ldp	x23, x24, [sp, #48]
     eac:	f94023f9 	ldr	x25, [sp, #64]
     eb0:	a8c67bfd 	ldp	x29, x30, [sp], #96
     eb4:	d65f03c0 	ret
/home/ssysarch/Desktop/nick/jetpack_5/Jetson_Linux_R35.4.1_aarch64/Linux_for_Tegra/sources/tegra/optee-src/nv-optee/optee/optee_os/ldelf/ta_elf.c:1641
     eb8:	f0000022 	adrp	x2, 7000 <trace_ext_prefix+0x509>
     ebc:	9112b042 	add	x2, x2, #0x4ac
     ec0:	d0000020 	adrp	x0, 6000 <kprintf.constprop.0+0x4c8>
     ec4:	91320000 	add	x0, x0, #0xc80
     ec8:	5280cd21 	mov	w1, #0x669                 	// #1641
     ecc:	97ffffcf 	bl	e08 <_assert_trap.constprop.0>
/home/ssysarch/Desktop/nick/jetpack_5/Jetson_Linux_R35.4.1_aarch64/Linux_for_Tegra/sources/tegra/optee-src/nv-optee/optee/optee_os/ldelf/ta_elf.c:1645
     ed0:	aa1303e0 	mov	x0, x19
     ed4:	aa0703e2 	mov	x2, x7
     ed8:	aa1403e1 	mov	x1, x20
     edc:	97ffff11 	bl	b20 <read_dyn>
/home/ssysarch/Desktop/nick/jetpack_5/Jetson_Linux_R35.4.1_aarch64/Linux_for_Tegra/sources/tegra/optee-src/nv-optee/optee/optee_os/ldelf/ta_elf.c:1646
     ee0:	b94057e0 	ldr	w0, [sp, #84]
     ee4:	7100641f 	cmp	w0, #0x19
     ee8:	540000e1 	b.ne	f04 <get_init_fini_array.constprop.0+0xdc>  // b.any
/home/ssysarch/Desktop/nick/jetpack_5/Jetson_Linux_R35.4.1_aarch64/Linux_for_Tegra/sources/tegra/optee-src/nv-optee/optee/optee_os/ldelf/ta_elf.c:1647
     eec:	f9400660 	ldr	x0, [x19, #8]
     ef0:	f9402fe1 	ldr	x1, [sp, #88]
     ef4:	8b010000 	add	x0, x0, x1
     ef8:	f90002a0 	str	x0, [x21]
/home/ssysarch/Desktop/nick/jetpack_5/Jetson_Linux_R35.4.1_aarch64/Linux_for_Tegra/sources/tegra/optee-src/nv-optee/optee/optee_os/ldelf/ta_elf.c:1644
     efc:	910004e7 	add	x7, x7, #0x1
     f00:	17ffffe6 	b	e98 <get_init_fini_array.constprop.0+0x70>
/home/ssysarch/Desktop/nick/jetpack_5/Jetson_Linux_R35.4.1_aarch64/Linux_for_Tegra/sources/tegra/optee-src/nv-optee/optee/optee_os/ldelf/ta_elf.c:1648
     f04:	7100681f 	cmp	w0, #0x1a
     f08:	540000c1 	b.ne	f20 <get_init_fini_array.constprop.0+0xf8>  // b.any
/home/ssysarch/Desktop/nick/jetpack_5/Jetson_Linux_R35.4.1_aarch64/Linux_for_Tegra/sources/tegra/optee-src/nv-optee/optee/optee_os/ldelf/ta_elf.c:1649
     f0c:	f9400660 	ldr	x0, [x19, #8]
     f10:	f9402fe1 	ldr	x1, [sp, #88]
     f14:	8b010000 	add	x0, x0, x1
     f18:	f90002e0 	str	x0, [x23]
     f1c:	17fffff8 	b	efc <get_init_fini_array.constprop.0+0xd4>
/home/ssysarch/Desktop/nick/jetpack_5/Jetson_Linux_R35.4.1_aarch64/Linux_for_Tegra/sources/tegra/optee-src/nv-optee/optee/optee_os/ldelf/ta_elf.c:1650
     f20:	71006c1f 	cmp	w0, #0x1b
     f24:	540000a1 	b.ne	f38 <get_init_fini_array.constprop.0+0x110>  // b.any
/home/ssysarch/Desktop/nick/jetpack_5/Jetson_Linux_R35.4.1_aarch64/Linux_for_Tegra/sources/tegra/optee-src/nv-optee/optee/optee_os/ldelf/ta_elf.c:1651
     f28:	f9402fe0 	ldr	x0, [sp, #88]
     f2c:	9ac80800 	udiv	x0, x0, x8
     f30:	f90002c0 	str	x0, [x22]
     f34:	17fffff2 	b	efc <get_init_fini_array.constprop.0+0xd4>
/home/ssysarch/Desktop/nick/jetpack_5/Jetson_Linux_R35.4.1_aarch64/Linux_for_Tegra/sources/tegra/optee-src/nv-optee/optee/optee_os/ldelf/ta_elf.c:1652
     f38:	7100701f 	cmp	w0, #0x1c
     f3c:	54fffe01 	b.ne	efc <get_init_fini_array.constprop.0+0xd4>  // b.any
/home/ssysarch/Desktop/nick/jetpack_5/Jetson_Linux_R35.4.1_aarch64/Linux_for_Tegra/sources/tegra/optee-src/nv-optee/optee/optee_os/ldelf/ta_elf.c:1653
     f40:	f9402fe0 	ldr	x0, [sp, #88]
     f44:	9ac80800 	udiv	x0, x0, x8
     f48:	f9000300 	str	x0, [x24]
     f4c:	17ffffec 	b	efc <get_init_fini_array.constprop.0+0xd4>

0000000000000f50 <elf_get_init_fini_array>:
elf_get_init_fini_array():
/home/ssysarch/Desktop/nick/jetpack_5/Jetson_Linux_R35.4.1_aarch64/Linux_for_Tegra/sources/tegra/optee-src/nv-optee/optee/optee_os/ldelf/ta_elf.c:1661
     f50:	aa0303e5 	mov	x5, x3
/home/ssysarch/Desktop/nick/jetpack_5/Jetson_Linux_R35.4.1_aarch64/Linux_for_Tegra/sources/tegra/optee-src/nv-optee/optee/optee_os/ldelf/ta_elf.c:1664
     f54:	39400403 	ldrb	w3, [x0, #1]
/home/ssysarch/Desktop/nick/jetpack_5/Jetson_Linux_R35.4.1_aarch64/Linux_for_Tegra/sources/tegra/optee-src/nv-optee/optee/optee_os/ldelf/ta_elf.c:1661
     f58:	aa0403e6 	mov	x6, x4
     f5c:	b9404004 	ldr	w4, [x0, #64]
     f60:	f9402807 	ldr	x7, [x0, #80]
/home/ssysarch/Desktop/nick/jetpack_5/Jetson_Linux_R35.4.1_aarch64/Linux_for_Tegra/sources/tegra/optee-src/nv-optee/optee/optee_os/ldelf/ta_elf.c:1664
     f64:	350001a3 	cbnz	w3, f98 <elf_get_init_fini_array+0x48>
/home/ssysarch/Desktop/nick/jetpack_5/Jetson_Linux_R35.4.1_aarch64/Linux_for_Tegra/sources/tegra/optee-src/nv-optee/optee/optee_os/ldelf/ta_elf.c:1680
     f68:	d2800003 	mov	x3, #0x0                   	// #0
/home/ssysarch/Desktop/nick/jetpack_5/Jetson_Linux_R35.4.1_aarch64/Linux_for_Tegra/sources/tegra/optee-src/nv-optee/optee/optee_os/ldelf/ta_elf.c:1680 (discriminator 1)
     f6c:	eb03009f 	cmp	x4, x3
     f70:	540001a9 	b.ls	fa4 <elf_get_init_fini_array+0x54>  // b.plast
/home/ssysarch/Desktop/nick/jetpack_5/Jetson_Linux_R35.4.1_aarch64/Linux_for_Tegra/sources/tegra/optee-src/nv-optee/optee/optee_os/ldelf/ta_elf.c:1681
     f74:	aa0703e8 	mov	x8, x7
     f78:	b84384e9 	ldr	w9, [x7], #56
     f7c:	7100093f 	cmp	w9, #0x2
     f80:	540002a1 	b.ne	fd4 <elf_get_init_fini_array+0x84>  // b.any
/home/ssysarch/Desktop/nick/jetpack_5/Jetson_Linux_R35.4.1_aarch64/Linux_for_Tegra/sources/tegra/optee-src/nv-optee/optee/optee_os/ldelf/ta_elf.c:1682
     f84:	aa0203e4 	mov	x4, x2
     f88:	aa0103e3 	mov	x3, x1
     f8c:	f9400901 	ldr	x1, [x8, #16]
     f90:	f9401502 	ldr	x2, [x8, #40]
     f94:	1400000d 	b	fc8 <elf_get_init_fini_array+0x78>
/home/ssysarch/Desktop/nick/jetpack_5/Jetson_Linux_R35.4.1_aarch64/Linux_for_Tegra/sources/tegra/optee-src/nv-optee/optee/optee_os/ldelf/ta_elf.c:1667
     f98:	d2800003 	mov	x3, #0x0                   	// #0
     f9c:	eb03009f 	cmp	x4, x3
     fa0:	54000048 	b.hi	fa8 <elf_get_init_fini_array+0x58>  // b.pmore
/home/ssysarch/Desktop/nick/jetpack_5/Jetson_Linux_R35.4.1_aarch64/Linux_for_Tegra/sources/tegra/optee-src/nv-optee/optee/optee_os/ldelf/ta_elf.c:1691
     fa4:	d65f03c0 	ret
/home/ssysarch/Desktop/nick/jetpack_5/Jetson_Linux_R35.4.1_aarch64/Linux_for_Tegra/sources/tegra/optee-src/nv-optee/optee/optee_os/ldelf/ta_elf.c:1668
     fa8:	aa0703e8 	mov	x8, x7
     fac:	b84204e9 	ldr	w9, [x7], #32
     fb0:	7100093f 	cmp	w9, #0x2
     fb4:	540000c1 	b.ne	fcc <elf_get_init_fini_array+0x7c>  // b.any
/home/ssysarch/Desktop/nick/jetpack_5/Jetson_Linux_R35.4.1_aarch64/Linux_for_Tegra/sources/tegra/optee-src/nv-optee/optee/optee_os/ldelf/ta_elf.c:1669
     fb8:	aa0203e4 	mov	x4, x2
     fbc:	aa0103e3 	mov	x3, x1
     fc0:	b9401502 	ldr	w2, [x8, #20]
     fc4:	b9400901 	ldr	w1, [x8, #8]
/home/ssysarch/Desktop/nick/jetpack_5/Jetson_Linux_R35.4.1_aarch64/Linux_for_Tegra/sources/tegra/optee-src/nv-optee/optee/optee_os/ldelf/ta_elf.c:1682
     fc8:	17ffff98 	b	e28 <get_init_fini_array.constprop.0>
/home/ssysarch/Desktop/nick/jetpack_5/Jetson_Linux_R35.4.1_aarch64/Linux_for_Tegra/sources/tegra/optee-src/nv-optee/optee/optee_os/ldelf/ta_elf.c:1667
     fcc:	91000463 	add	x3, x3, #0x1
     fd0:	17fffff3 	b	f9c <elf_get_init_fini_array+0x4c>
/home/ssysarch/Desktop/nick/jetpack_5/Jetson_Linux_R35.4.1_aarch64/Linux_for_Tegra/sources/tegra/optee-src/nv-optee/optee/optee_os/ldelf/ta_elf.c:1680 (discriminator 2)
     fd4:	91000463 	add	x3, x3, #0x1
     fd8:	17ffffe5 	b	f6c <elf_get_init_fini_array+0x1c>

0000000000000fdc <print_seg>:
print_seg():
/home/ssysarch/Desktop/nick/jetpack_5/Jetson_Linux_R35.4.1_aarch64/Linux_for_Tegra/sources/tegra/optee-src/nv-optee/optee/optee_os/ldelf/ta_elf.c:1360
     fdc:	d10243ff 	sub	sp, sp, #0x90
     fe0:	a9027bfd 	stp	x29, x30, [sp, #32]
     fe4:	910083fd 	add	x29, sp, #0x20
     fe8:	a90353f3 	stp	x19, x20, [sp, #48]
     fec:	2a0703f3 	mov	w19, w7
     ff0:	910203f4 	add	x20, sp, #0x80
     ff4:	a9045bf5 	stp	x21, x22, [sp, #64]
     ff8:	aa0003f6 	mov	x22, x0
/home/ssysarch/Desktop/nick/jetpack_5/Jetson_Linux_R35.4.1_aarch64/Linux_for_Tegra/sources/tegra/optee-src/nv-optee/optee/optee_os/ldelf/ta_elf.c:1364
     ffc:	5285a5a0 	mov	w0, #0x2d2d                	// #11565
    1000:	72a5a5a0 	movk	w0, #0x2d2d, lsl #16
/home/ssysarch/Desktop/nick/jetpack_5/Jetson_Linux_R35.4.1_aarch64/Linux_for_Tegra/sources/tegra/optee-src/nv-optee/optee/optee_os/ldelf/ta_elf.c:1360
    1004:	a90563f7 	stp	x23, x24, [sp, #80]
    1008:	aa0403f5 	mov	x21, x4
    100c:	a9066bf9 	stp	x25, x26, [sp, #96]
    1010:	aa0103f7 	mov	x23, x1
    1014:	aa0203f8 	mov	x24, x2
/home/ssysarch/Desktop/nick/jetpack_5/Jetson_Linux_R35.4.1_aarch64/Linux_for_Tegra/sources/tegra/optee-src/nv-optee/optee/optee_os/ldelf/ta_elf.c:1364
    1018:	b9007be0 	str	w0, [sp, #120]
/home/ssysarch/Desktop/nick/jetpack_5/Jetson_Linux_R35.4.1_aarch64/Linux_for_Tegra/sources/tegra/optee-src/nv-optee/optee/optee_os/ldelf/ta_elf.c:1360
    101c:	aa0503f9 	mov	x25, x5
/home/ssysarch/Desktop/nick/jetpack_5/Jetson_Linux_R35.4.1_aarch64/Linux_for_Tegra/sources/tegra/optee-src/nv-optee/optee/optee_os/ldelf/ta_elf.c:1364
    1020:	3901f3ff 	strb	wzr, [sp, #124]
/home/ssysarch/Desktop/nick/jetpack_5/Jetson_Linux_R35.4.1_aarch64/Linux_for_Tegra/sources/tegra/optee-src/nv-optee/optee/optee_os/ldelf/ta_elf.c:1360
    1024:	aa0603fa 	mov	x26, x6
/home/ssysarch/Desktop/nick/jetpack_5/Jetson_Linux_R35.4.1_aarch64/Linux_for_Tegra/sources/tegra/optee-src/nv-optee/optee/optee_os/ldelf/ta_elf.c:1363
    1028:	f90043ff 	str	xzr, [sp, #128]
    102c:	b9008bff 	str	wzr, [sp, #136]
    1030:	79011bff 	strh	wzr, [sp, #140]
/home/ssysarch/Desktop/nick/jetpack_5/Jetson_Linux_R35.4.1_aarch64/Linux_for_Tegra/sources/tegra/optee-src/nv-optee/optee/optee_os/ldelf/ta_elf.c:1366
    1034:	37f804c3 	tbnz	w3, #31, 10cc <print_seg+0xf0>
/home/ssysarch/Desktop/nick/jetpack_5/Jetson_Linux_R35.4.1_aarch64/Linux_for_Tegra/sources/tegra/optee-src/nv-optee/optee/optee_os/ldelf/ta_elf.c:1367
    1038:	b0000022 	adrp	x2, 6000 <kprintf.constprop.0+0x4c8>
    103c:	91325c42 	add	x2, x2, #0xc97
    1040:	aa1403e0 	mov	x0, x20
    1044:	d28001c1 	mov	x1, #0xe                   	// #14
    1048:	94001228 	bl	58e8 <snprintf>
/home/ssysarch/Desktop/nick/jetpack_5/Jetson_Linux_R35.4.1_aarch64/Linux_for_Tegra/sources/tegra/optee-src/nv-optee/optee/optee_os/ldelf/ta_elf.c:1384
    104c:	36000073 	tbz	w19, #0, 1058 <print_seg+0x7c>
/home/ssysarch/Desktop/nick/jetpack_5/Jetson_Linux_R35.4.1_aarch64/Linux_for_Tegra/sources/tegra/optee-src/nv-optee/optee/optee_os/ldelf/ta_elf.c:1385
    1050:	52800e40 	mov	w0, #0x72                  	// #114
    1054:	3901e3e0 	strb	w0, [sp, #120]
/home/ssysarch/Desktop/nick/jetpack_5/Jetson_Linux_R35.4.1_aarch64/Linux_for_Tegra/sources/tegra/optee-src/nv-optee/optee/optee_os/ldelf/ta_elf.c:1386
    1058:	36080073 	tbz	w19, #1, 1064 <print_seg+0x88>
/home/ssysarch/Desktop/nick/jetpack_5/Jetson_Linux_R35.4.1_aarch64/Linux_for_Tegra/sources/tegra/optee-src/nv-optee/optee/optee_os/ldelf/ta_elf.c:1387
    105c:	52800ee0 	mov	w0, #0x77                  	// #119
    1060:	3901e7e0 	strb	w0, [sp, #121]
/home/ssysarch/Desktop/nick/jetpack_5/Jetson_Linux_R35.4.1_aarch64/Linux_for_Tegra/sources/tegra/optee-src/nv-optee/optee/optee_os/ldelf/ta_elf.c:1388
    1064:	36100073 	tbz	w19, #2, 1070 <print_seg+0x94>
/home/ssysarch/Desktop/nick/jetpack_5/Jetson_Linux_R35.4.1_aarch64/Linux_for_Tegra/sources/tegra/optee-src/nv-optee/optee/optee_os/ldelf/ta_elf.c:1389
    1068:	52800f00 	mov	w0, #0x78                  	// #120
    106c:	3901ebe0 	strb	w0, [sp, #122]
/home/ssysarch/Desktop/nick/jetpack_5/Jetson_Linux_R35.4.1_aarch64/Linux_for_Tegra/sources/tegra/optee-src/nv-optee/optee/optee_os/ldelf/ta_elf.c:1390
    1070:	36180073 	tbz	w19, #3, 107c <print_seg+0xa0>
/home/ssysarch/Desktop/nick/jetpack_5/Jetson_Linux_R35.4.1_aarch64/Linux_for_Tegra/sources/tegra/optee-src/nv-optee/optee/optee_os/ldelf/ta_elf.c:1391
    1074:	52800e60 	mov	w0, #0x73                  	// #115
    1078:	3901efe0 	strb	w0, [sp, #123]
/home/ssysarch/Desktop/nick/jetpack_5/Jetson_Linux_R35.4.1_aarch64/Linux_for_Tegra/sources/tegra/optee-src/nv-optee/optee/optee_os/ldelf/ta_elf.c:1393
    107c:	9101e3e0 	add	x0, sp, #0x78
    1080:	a90003fa 	stp	x26, x0, [sp]
    1084:	aa1903e7 	mov	x7, x25
    1088:	f9000bf4 	str	x20, [sp, #16]
    108c:	aa1503e5 	mov	x5, x21
    1090:	aa1803e3 	mov	x3, x24
    1094:	aa1703e1 	mov	x1, x23
    1098:	aa1603e0 	mov	x0, x22
    109c:	52800106 	mov	w6, #0x8                   	// #8
    10a0:	b0000022 	adrp	x2, 6000 <kprintf.constprop.0+0x4c8>
    10a4:	9132e042 	add	x2, x2, #0xcb8
    10a8:	2a0603e4 	mov	w4, w6
    10ac:	97fffe87 	bl	ac8 <print_wrapper>
/home/ssysarch/Desktop/nick/jetpack_5/Jetson_Linux_R35.4.1_aarch64/Linux_for_Tegra/sources/tegra/optee-src/nv-optee/optee/optee_os/ldelf/ta_elf.c:1396
    10b0:	a9427bfd 	ldp	x29, x30, [sp, #32]
    10b4:	a94353f3 	ldp	x19, x20, [sp, #48]
    10b8:	a9445bf5 	ldp	x21, x22, [sp, #64]
    10bc:	a94563f7 	ldp	x23, x24, [sp, #80]
    10c0:	a9466bf9 	ldp	x25, x26, [sp, #96]
    10c4:	910243ff 	add	sp, sp, #0x90
    10c8:	d65f03c0 	ret
/home/ssysarch/Desktop/nick/jetpack_5/Jetson_Linux_R35.4.1_aarch64/Linux_for_Tegra/sources/tegra/optee-src/nv-optee/optee/optee_os/ldelf/ta_elf.c:1370
    10cc:	362000b3 	tbz	w19, #4, 10e0 <print_seg+0x104>
/home/ssysarch/Desktop/nick/jetpack_5/Jetson_Linux_R35.4.1_aarch64/Linux_for_Tegra/sources/tegra/optee-src/nv-optee/optee/optee_os/ldelf/ta_elf.c:1371
    10d0:	b0000021 	adrp	x1, 6000 <kprintf.constprop.0+0x4c8>
    10d4:	91327421 	add	x1, x1, #0xc9d
    10d8:	aa1403e0 	mov	x0, x20
    10dc:	9400123a 	bl	59c4 <strcpy>
/home/ssysarch/Desktop/nick/jetpack_5/Jetson_Linux_R35.4.1_aarch64/Linux_for_Tegra/sources/tegra/optee-src/nv-optee/optee/optee_os/ldelf/ta_elf.c:1374
    10e0:	363800b3 	tbz	w19, #7, 10f4 <print_seg+0x118>
/home/ssysarch/Desktop/nick/jetpack_5/Jetson_Linux_R35.4.1_aarch64/Linux_for_Tegra/sources/tegra/optee-src/nv-optee/optee/optee_os/ldelf/ta_elf.c:1375
    10e4:	b0000021 	adrp	x1, 6000 <kprintf.constprop.0+0x4c8>
    10e8:	91329821 	add	x1, x1, #0xca6
    10ec:	aa1403e0 	mov	x0, x20
    10f0:	94001235 	bl	59c4 <strcpy>
/home/ssysarch/Desktop/nick/jetpack_5/Jetson_Linux_R35.4.1_aarch64/Linux_for_Tegra/sources/tegra/optee-src/nv-optee/optee/optee_os/ldelf/ta_elf.c:1378
    10f4:	f0000020 	adrp	x0, 8000 <_DYNAMIC>
    10f8:	f9410000 	ldr	x0, [x0, #512]
    10fc:	eb15001f 	cmp	x0, x21
    1100:	54fffa61 	b.ne	104c <print_seg+0x70>  // b.any
/home/ssysarch/Desktop/nick/jetpack_5/Jetson_Linux_R35.4.1_aarch64/Linux_for_Tegra/sources/tegra/optee-src/nv-optee/optee/optee_os/ldelf/ta_elf.c:1379
    1104:	aa1403e0 	mov	x0, x20
    1108:	b0000021 	adrp	x1, 6000 <kprintf.constprop.0+0x4c8>
    110c:	9132bc21 	add	x1, x1, #0xcaf
    1110:	9400122d 	bl	59c4 <strcpy>
/home/ssysarch/Desktop/nick/jetpack_5/Jetson_Linux_R35.4.1_aarch64/Linux_for_Tegra/sources/tegra/optee-src/nv-optee/optee/optee_os/ldelf/ta_elf.c:1380
    1114:	17ffffce 	b	104c <print_seg+0x70>

0000000000001118 <copy_section_headers>:
copy_section_headers():
/home/ssysarch/Desktop/nick/jetpack_5/Jetson_Linux_R35.4.1_aarch64/Linux_for_Tegra/sources/tegra/optee-src/nv-optee/optee/optee_os/ldelf/ta_elf.c:1095
    1118:	a9bc7bfd 	stp	x29, x30, [sp, #-64]!
    111c:	910003fd 	mov	x29, sp
    1120:	a90153f3 	stp	x19, x20, [sp, #16]
    1124:	aa0003f4 	mov	x20, x0
    1128:	a9025bf5 	stp	x21, x22, [sp, #32]
/home/ssysarch/Desktop/nick/jetpack_5/Jetson_Linux_R35.4.1_aarch64/Linux_for_Tegra/sources/tegra/optee-src/nv-optee/optee/optee_os/ldelf/ta_elf.c:1100
    112c:	b9404415 	ldr	w21, [x0, #68]
    1130:	b9404c00 	ldr	w0, [x0, #76]
/home/ssysarch/Desktop/nick/jetpack_5/Jetson_Linux_R35.4.1_aarch64/Linux_for_Tegra/sources/tegra/optee-src/nv-optee/optee/optee_os/ldelf/ta_elf.c:1095
    1134:	f9001bf7 	str	x23, [sp, #48]
/home/ssysarch/Desktop/nick/jetpack_5/Jetson_Linux_R35.4.1_aarch64/Linux_for_Tegra/sources/tegra/optee-src/nv-optee/optee/optee_os/ldelf/ta_elf.c:1100
    1138:	9ba07eb5 	umull	x21, w21, w0
/home/ssysarch/Desktop/nick/jetpack_5/Jetson_Linux_R35.4.1_aarch64/Linux_for_Tegra/sources/tegra/optee-src/nv-optee/optee/optee_os/ldelf/ta_elf.c:1103
    113c:	aa1503e0 	mov	x0, x21
    1140:	9400117f 	bl	573c <malloc>
    1144:	f9002e80 	str	x0, [x20, #88]
/home/ssysarch/Desktop/nick/jetpack_5/Jetson_Linux_R35.4.1_aarch64/Linux_for_Tegra/sources/tegra/optee-src/nv-optee/optee/optee_os/ldelf/ta_elf.c:1104
    1148:	b5000160 	cbnz	x0, 1174 <copy_section_headers+0x5c>
/home/ssysarch/Desktop/nick/jetpack_5/Jetson_Linux_R35.4.1_aarch64/Linux_for_Tegra/sources/tegra/optee-src/nv-optee/optee/optee_os/ldelf/ta_elf.c:1105
    114c:	b0000024 	adrp	x4, 6000 <kprintf.constprop.0+0x4c8>
    1150:	9133d084 	add	x4, x4, #0xcf4
    1154:	52800023 	mov	w3, #0x1                   	// #1
    1158:	52800022 	mov	w2, #0x1                   	// #1
    115c:	52808a21 	mov	w1, #0x451                 	// #1105
    1160:	d0000020 	adrp	x0, 7000 <trace_ext_prefix+0x509>
    1164:	910f5800 	add	x0, x0, #0x3d6
    1168:	940015d9 	bl	68cc <trace_printf>
    116c:	129ffe60 	mov	w0, #0xffff000c            	// #-65524
/home/ssysarch/Desktop/nick/jetpack_5/Jetson_Linux_R35.4.1_aarch64/Linux_for_Tegra/sources/tegra/optee-src/nv-optee/optee/optee_os/ldelf/ta_elf.c:1124
    1170:	97fffbfe 	bl	168 <_ldelf_return>
/home/ssysarch/Desktop/nick/jetpack_5/Jetson_Linux_R35.4.1_aarch64/Linux_for_Tegra/sources/tegra/optee-src/nv-optee/optee/optee_os/ldelf/ta_elf.c:1112
    1174:	f9401e97 	ldr	x23, [x20, #56]
    1178:	aa0003f6 	mov	x22, x0
    117c:	f13ffeff 	cmp	x23, #0xfff
    1180:	54000488 	b.hi	1210 <copy_section_headers+0xf8>  // b.pmore
/home/ssysarch/Desktop/nick/jetpack_5/Jetson_Linux_R35.4.1_aarch64/Linux_for_Tegra/sources/tegra/optee-src/nv-optee/optee/optee_os/ldelf/ta_elf.c:1113
    1184:	39400281 	ldrb	w1, [x20]
    1188:	340000e1 	cbz	w1, 11a4 <copy_section_headers+0x8c>
/home/ssysarch/Desktop/nick/jetpack_5/Jetson_Linux_R35.4.1_aarch64/Linux_for_Tegra/sources/tegra/optee-src/nv-optee/optee/optee_os/ldelf/ta_elf.c:1113 (discriminator 1)
    118c:	d0000022 	adrp	x2, 7000 <trace_ext_prefix+0x509>
    1190:	910f5842 	add	x2, x2, #0x3d6
    1194:	b0000020 	adrp	x0, 6000 <kprintf.constprop.0+0x4c8>
    1198:	9133ec00 	add	x0, x0, #0xcfb
    119c:	52808b21 	mov	w1, #0x459                 	// #1113
    11a0:	97ffff1a 	bl	e08 <_assert_trap.constprop.0>
/home/ssysarch/Desktop/nick/jetpack_5/Jetson_Linux_R35.4.1_aarch64/Linux_for_Tegra/sources/tegra/optee-src/nv-optee/optee/optee_os/ldelf/ta_elf.c:1114
    11a4:	d2820013 	mov	x19, #0x1000                	// #4096
    11a8:	cb170273 	sub	x19, x19, x23
    11ac:	eb15027f 	cmp	x19, x21
/home/ssysarch/Desktop/nick/jetpack_5/Jetson_Linux_R35.4.1_aarch64/Linux_for_Tegra/sources/tegra/optee-src/nv-optee/optee/optee_os/ldelf/ta_elf.c:1115
    11b0:	f9400681 	ldr	x1, [x20, #8]
/home/ssysarch/Desktop/nick/jetpack_5/Jetson_Linux_R35.4.1_aarch64/Linux_for_Tegra/sources/tegra/optee-src/nv-optee/optee/optee_os/ldelf/ta_elf.c:1114
    11b4:	9a959273 	csel	x19, x19, x21, ls  // ls = plast
/home/ssysarch/Desktop/nick/jetpack_5/Jetson_Linux_R35.4.1_aarch64/Linux_for_Tegra/sources/tegra/optee-src/nv-optee/optee/optee_os/ldelf/ta_elf.c:1115
    11b8:	aa1303e2 	mov	x2, x19
    11bc:	8b0102e1 	add	x1, x23, x1
    11c0:	97fffbac 	bl	70 <memcpy>
/home/ssysarch/Desktop/nick/jetpack_5/Jetson_Linux_R35.4.1_aarch64/Linux_for_Tegra/sources/tegra/optee-src/nv-optee/optee/optee_os/ldelf/ta_elf.c:1119
    11c4:	eb1302bf 	cmp	x21, x19
    11c8:	54000289 	b.ls	1218 <copy_section_headers+0x100>  // b.plast
/home/ssysarch/Desktop/nick/jetpack_5/Jetson_Linux_R35.4.1_aarch64/Linux_for_Tegra/sources/tegra/optee-src/nv-optee/optee/optee_os/ldelf/ta_elf.c:1120
    11cc:	b9410282 	ldr	w2, [x20, #256]
    11d0:	8b1302e3 	add	x3, x23, x19
    11d4:	cb1302a1 	sub	x1, x21, x19
    11d8:	8b1302c0 	add	x0, x22, x19
    11dc:	97fffd35 	bl	6b0 <sys_copy_from_ta_bin>
    11e0:	2a0003f3 	mov	w19, w0
/home/ssysarch/Desktop/nick/jetpack_5/Jetson_Linux_R35.4.1_aarch64/Linux_for_Tegra/sources/tegra/optee-src/nv-optee/optee/optee_os/ldelf/ta_elf.c:1123
    11e4:	340001a0 	cbz	w0, 1218 <copy_section_headers+0x100>
/home/ssysarch/Desktop/nick/jetpack_5/Jetson_Linux_R35.4.1_aarch64/Linux_for_Tegra/sources/tegra/optee-src/nv-optee/optee/optee_os/ldelf/ta_elf.c:1124
    11e8:	b0000024 	adrp	x4, 6000 <kprintf.constprop.0+0x4c8>
    11ec:	91342484 	add	x4, x4, #0xd09
    11f0:	52800023 	mov	w3, #0x1                   	// #1
    11f4:	52800022 	mov	w2, #0x1                   	// #1
    11f8:	52808c81 	mov	w1, #0x464                 	// #1124
    11fc:	d0000020 	adrp	x0, 7000 <trace_ext_prefix+0x509>
    1200:	910f5800 	add	x0, x0, #0x3d6
    1204:	940015b2 	bl	68cc <trace_printf>
    1208:	2a1303e0 	mov	w0, w19
    120c:	17ffffd9 	b	1170 <copy_section_headers+0x58>
/home/ssysarch/Desktop/nick/jetpack_5/Jetson_Linux_R35.4.1_aarch64/Linux_for_Tegra/sources/tegra/optee-src/nv-optee/optee/optee_os/ldelf/ta_elf.c:1098
    1210:	d2800013 	mov	x19, #0x0                   	// #0
    1214:	17ffffec 	b	11c4 <copy_section_headers+0xac>
/home/ssysarch/Desktop/nick/jetpack_5/Jetson_Linux_R35.4.1_aarch64/Linux_for_Tegra/sources/tegra/optee-src/nv-optee/optee/optee_os/ldelf/ta_elf.c:1126
    1218:	a94153f3 	ldp	x19, x20, [sp, #16]
    121c:	a9425bf5 	ldp	x21, x22, [sp, #32]
    1220:	f9401bf7 	ldr	x23, [sp, #48]
    1224:	a8c47bfd 	ldp	x29, x30, [sp], #64
    1228:	d65f03c0 	ret

000000000000122c <populate_segments>:
populate_segments():
/home/ssysarch/Desktop/nick/jetpack_5/Jetson_Linux_R35.4.1_aarch64/Linux_for_Tegra/sources/tegra/optee-src/nv-optee/optee/optee_os/ldelf/ta_elf.c:781
    122c:	a9b97bfd 	stp	x29, x30, [sp, #-112]!
    1230:	910003fd 	mov	x29, sp
    1234:	a90153f3 	stp	x19, x20, [sp, #16]
    1238:	aa0003f3 	mov	x19, x0
/home/ssysarch/Desktop/nick/jetpack_5/Jetson_Linux_R35.4.1_aarch64/Linux_for_Tegra/sources/tegra/optee-src/nv-optee/optee/optee_os/ldelf/ta_elf.c:787
    123c:	39400800 	ldrb	w0, [x0, #2]
/home/ssysarch/Desktop/nick/jetpack_5/Jetson_Linux_R35.4.1_aarch64/Linux_for_Tegra/sources/tegra/optee-src/nv-optee/optee/optee_os/ldelf/ta_elf.c:781
    1240:	a9025bf5 	stp	x21, x22, [sp, #32]
    1244:	a90363f7 	stp	x23, x24, [sp, #48]
    1248:	a9046bf9 	stp	x25, x26, [sp, #64]
    124c:	a90573fb 	stp	x27, x28, [sp, #80]
/home/ssysarch/Desktop/nick/jetpack_5/Jetson_Linux_R35.4.1_aarch64/Linux_for_Tegra/sources/tegra/optee-src/nv-optee/optee/optee_os/ldelf/ta_elf.c:784
    1250:	f90037ff 	str	xzr, [sp, #104]
/home/ssysarch/Desktop/nick/jetpack_5/Jetson_Linux_R35.4.1_aarch64/Linux_for_Tegra/sources/tegra/optee-src/nv-optee/optee/optee_os/ldelf/ta_elf.c:787
    1254:	340000e0 	cbz	w0, 1270 <populate_segments+0x44>
/home/ssysarch/Desktop/nick/jetpack_5/Jetson_Linux_R35.4.1_aarch64/Linux_for_Tegra/sources/tegra/optee-src/nv-optee/optee/optee_os/ldelf/ta_elf.c:787 (discriminator 1)
    1258:	d0000022 	adrp	x2, 7000 <trace_ext_prefix+0x509>
    125c:	910e4842 	add	x2, x2, #0x392
    1260:	b0000020 	adrp	x0, 6000 <kprintf.constprop.0+0x4c8>
    1264:	91347800 	add	x0, x0, #0xd1e
    1268:	52806261 	mov	w1, #0x313                 	// #787
/home/ssysarch/Desktop/nick/jetpack_5/Jetson_Linux_R35.4.1_aarch64/Linux_for_Tegra/sources/tegra/optee-src/nv-optee/optee/optee_os/ldelf/ta_elf.c:797 (discriminator 1)
    126c:	97fffee7 	bl	e08 <_assert_trap.constprop.0>
/home/ssysarch/Desktop/nick/jetpack_5/Jetson_Linux_R35.4.1_aarch64/Linux_for_Tegra/sources/tegra/optee-src/nv-optee/optee/optee_os/ldelf/ta_elf.c:788
    1270:	f9405275 	ldr	x21, [x19, #160]
    1274:	9101a3f6 	add	x22, sp, #0x68
/home/ssysarch/Desktop/nick/jetpack_5/Jetson_Linux_R35.4.1_aarch64/Linux_for_Tegra/sources/tegra/optee-src/nv-optee/optee/optee_os/ldelf/ta_elf.c:788 (discriminator 1)
    1278:	b5000115 	cbnz	x21, 1298 <populate_segments+0x6c>
/home/ssysarch/Desktop/nick/jetpack_5/Jetson_Linux_R35.4.1_aarch64/Linux_for_Tegra/sources/tegra/optee-src/nv-optee/optee/optee_os/ldelf/ta_elf.c:910
    127c:	a94153f3 	ldp	x19, x20, [sp, #16]
    1280:	a9425bf5 	ldp	x21, x22, [sp, #32]
    1284:	a94363f7 	ldp	x23, x24, [sp, #48]
    1288:	a9446bf9 	ldp	x25, x26, [sp, #64]
    128c:	a94573fb 	ldp	x27, x28, [sp, #80]
    1290:	a8c77bfd 	ldp	x29, x30, [sp], #112
    1294:	d65f03c0 	ret
/home/ssysarch/Desktop/nick/jetpack_5/Jetson_Linux_R35.4.1_aarch64/Linux_for_Tegra/sources/tegra/optee-src/nv-optee/optee/optee_os/ldelf/ta_elf.c:789
    1298:	f9405660 	ldr	x0, [x19, #168]
/home/ssysarch/Desktop/nick/jetpack_5/Jetson_Linux_R35.4.1_aarch64/Linux_for_Tegra/sources/tegra/optee-src/nv-optee/optee/optee_os/ldelf/ta_elf.c:791
    129c:	f94006a1 	ldr	x1, [x21, #8]
/home/ssysarch/Desktop/nick/jetpack_5/Jetson_Linux_R35.4.1_aarch64/Linux_for_Tegra/sources/tegra/optee-src/nv-optee/optee/optee_os/ldelf/ta_elf.c:789
    12a0:	f9400400 	ldr	x0, [x0, #8]
/home/ssysarch/Desktop/nick/jetpack_5/Jetson_Linux_R35.4.1_aarch64/Linux_for_Tegra/sources/tegra/optee-src/nv-optee/optee/optee_os/ldelf/ta_elf.c:791
    12a4:	f9400eb9 	ldr	x25, [x21, #24]
/home/ssysarch/Desktop/nick/jetpack_5/Jetson_Linux_R35.4.1_aarch64/Linux_for_Tegra/sources/tegra/optee-src/nv-optee/optee/optee_os/ldelf/ta_elf.c:789
    12a8:	f9400002 	ldr	x2, [x0]
roundup():
/home/ssysarch/Desktop/nick/jetpack_5/Jetson_Linux_R35.4.1_aarch64/Linux_for_Tegra/sources/tegra/optee-src/nv-optee/optee/optee_os/ldelf/ta_elf.c:525
    12ac:	8b190020 	add	x0, x1, x25
    12b0:	f9400458 	ldr	x24, [x2, #8]
    12b4:	f9400c46 	ldr	x6, [x2, #24]
populate_segments():
/home/ssysarch/Desktop/nick/jetpack_5/Jetson_Linux_R35.4.1_aarch64/Linux_for_Tegra/sources/tegra/optee-src/nv-optee/optee/optee_os/ldelf/ta_elf.c:793
    12b8:	3940c2a2 	ldrb	w2, [x21, #48]
roundup():
/home/ssysarch/Desktop/nick/jetpack_5/Jetson_Linux_R35.4.1_aarch64/Linux_for_Tegra/sources/tegra/optee-src/nv-optee/optee/optee_os/ldelf/ta_elf.c:525
    12bc:	8b060318 	add	x24, x24, x6
    12c0:	cb000318 	sub	x24, x24, x0
    12c4:	913fff18 	add	x24, x24, #0xfff
    12c8:	9274cf18 	and	x24, x24, #0xfffffffffffff000
populate_segments():
/home/ssysarch/Desktop/nick/jetpack_5/Jetson_Linux_R35.4.1_aarch64/Linux_for_Tegra/sources/tegra/optee-src/nv-optee/optee/optee_os/ldelf/ta_elf.c:793
    12cc:	34000b02 	cbz	w2, 142c <populate_segments+0x200>
roundup():
/home/ssysarch/Desktop/nick/jetpack_5/Jetson_Linux_R35.4.1_aarch64/Linux_for_Tegra/sources/tegra/optee-src/nv-optee/optee/optee_os/ldelf/ta_elf.c:525
    12d0:	913ffc14 	add	x20, x0, #0xfff
rounddown():
/home/ssysarch/Desktop/nick/jetpack_5/Jetson_Linux_R35.4.1_aarch64/Linux_for_Tegra/sources/tegra/optee-src/nv-optee/optee/optee_os/ldelf/ta_elf.c:530
    12d4:	9274cc20 	and	x0, x1, #0xfffffffffffff000
roundup():
/home/ssysarch/Desktop/nick/jetpack_5/Jetson_Linux_R35.4.1_aarch64/Linux_for_Tegra/sources/tegra/optee-src/nv-optee/optee/optee_os/ldelf/ta_elf.c:525
    12d8:	9274ce94 	and	x20, x20, #0xfffffffffffff000
populate_segments():
/home/ssysarch/Desktop/nick/jetpack_5/Jetson_Linux_R35.4.1_aarch64/Linux_for_Tegra/sources/tegra/optee-src/nv-optee/optee/optee_os/ldelf/ta_elf.c:794
    12dc:	cb000294 	sub	x20, x20, x0
/home/ssysarch/Desktop/nick/jetpack_5/Jetson_Linux_R35.4.1_aarch64/Linux_for_Tegra/sources/tegra/optee-src/nv-optee/optee/optee_os/ldelf/ta_elf.c:797
    12e0:	f9400660 	ldr	x0, [x19, #8]
    12e4:	b50000e0 	cbnz	x0, 1300 <populate_segments+0xd4>
/home/ssysarch/Desktop/nick/jetpack_5/Jetson_Linux_R35.4.1_aarch64/Linux_for_Tegra/sources/tegra/optee-src/nv-optee/optee/optee_os/ldelf/ta_elf.c:797 (discriminator 1)
    12e8:	d0000022 	adrp	x2, 7000 <trace_ext_prefix+0x509>
    12ec:	910e4842 	add	x2, x2, #0x392
    12f0:	b0000020 	adrp	x0, 6000 <kprintf.constprop.0+0x4c8>
    12f4:	9134b800 	add	x0, x0, #0xd2e
    12f8:	528063a1 	mov	w1, #0x31d                 	// #797
    12fc:	17ffffdc 	b	126c <populate_segments+0x40>
/home/ssysarch/Desktop/nick/jetpack_5/Jetson_Linux_R35.4.1_aarch64/Linux_for_Tegra/sources/tegra/optee-src/nv-optee/optee/optee_os/ldelf/ta_elf.c:798
    1300:	8b000021 	add	x1, x1, x0
/home/ssysarch/Desktop/nick/jetpack_5/Jetson_Linux_R35.4.1_aarch64/Linux_for_Tegra/sources/tegra/optee-src/nv-optee/optee/optee_os/ldelf/ta_elf.c:799
    1304:	f9400a60 	ldr	x0, [x19, #16]
rounddown():
/home/ssysarch/Desktop/nick/jetpack_5/Jetson_Linux_R35.4.1_aarch64/Linux_for_Tegra/sources/tegra/optee-src/nv-optee/optee/optee_os/ldelf/ta_elf.c:530
    1308:	9274cc21 	and	x1, x1, #0xfffffffffffff000
populate_segments():
/home/ssysarch/Desktop/nick/jetpack_5/Jetson_Linux_R35.4.1_aarch64/Linux_for_Tegra/sources/tegra/optee-src/nv-optee/optee/optee_os/ldelf/ta_elf.c:798
    130c:	f90037e1 	str	x1, [sp, #104]
/home/ssysarch/Desktop/nick/jetpack_5/Jetson_Linux_R35.4.1_aarch64/Linux_for_Tegra/sources/tegra/optee-src/nv-optee/optee/optee_os/ldelf/ta_elf.c:799
    1310:	eb01001f 	cmp	x0, x1
    1314:	540000e9 	b.ls	1330 <populate_segments+0x104>  // b.plast
/home/ssysarch/Desktop/nick/jetpack_5/Jetson_Linux_R35.4.1_aarch64/Linux_for_Tegra/sources/tegra/optee-src/nv-optee/optee/optee_os/ldelf/ta_elf.c:799 (discriminator 1)
    1318:	d0000022 	adrp	x2, 7000 <trace_ext_prefix+0x509>
    131c:	910e4842 	add	x2, x2, #0x392
    1320:	b0000020 	adrp	x0, 6000 <kprintf.constprop.0+0x4c8>
    1324:	9134f400 	add	x0, x0, #0xd3d
    1328:	528063e1 	mov	w1, #0x31f                 	// #799
    132c:	17ffffd0 	b	126c <populate_segments+0x40>
/home/ssysarch/Desktop/nick/jetpack_5/Jetson_Linux_R35.4.1_aarch64/Linux_for_Tegra/sources/tegra/optee-src/nv-optee/optee/optee_os/ldelf/ta_elf.c:800
    1330:	aa1803e4 	mov	x4, x24
    1334:	aa1603e2 	mov	x2, x22
    1338:	aa1403e0 	mov	x0, x20
    133c:	d2800003 	mov	x3, #0x0                   	// #0
    1340:	52800001 	mov	w1, #0x0                   	// #0
    1344:	97fffcc7 	bl	660 <sys_map_zi>
    1348:	2a0003f8 	mov	w24, w0
/home/ssysarch/Desktop/nick/jetpack_5/Jetson_Linux_R35.4.1_aarch64/Linux_for_Tegra/sources/tegra/optee-src/nv-optee/optee/optee_os/ldelf/ta_elf.c:801
    134c:	34000160 	cbz	w0, 1378 <populate_segments+0x14c>
/home/ssysarch/Desktop/nick/jetpack_5/Jetson_Linux_R35.4.1_aarch64/Linux_for_Tegra/sources/tegra/optee-src/nv-optee/optee/optee_os/ldelf/ta_elf.c:802
    1350:	b0000024 	adrp	x4, 6000 <kprintf.constprop.0+0x4c8>
    1354:	91354484 	add	x4, x4, #0xd51
    1358:	52800023 	mov	w3, #0x1                   	// #1
    135c:	52800022 	mov	w2, #0x1                   	// #1
    1360:	52806441 	mov	w1, #0x322                 	// #802
/home/ssysarch/Desktop/nick/jetpack_5/Jetson_Linux_R35.4.1_aarch64/Linux_for_Tegra/sources/tegra/optee-src/nv-optee/optee/optee_os/ldelf/ta_elf.c:887
    1364:	d0000020 	adrp	x0, 7000 <trace_ext_prefix+0x509>
    1368:	910e4800 	add	x0, x0, #0x392
    136c:	94001558 	bl	68cc <trace_printf>
    1370:	2a1803e0 	mov	w0, w24
    1374:	14000025 	b	1408 <populate_segments+0x1dc>
copy_remapped_to():
/home/ssysarch/Desktop/nick/jetpack_5/Jetson_Linux_R35.4.1_aarch64/Linux_for_Tegra/sources/tegra/optee-src/nv-optee/optee/optee_os/ldelf/ta_elf.c:597
    1378:	a94012b8 	ldp	x24, x4, [x21]
    137c:	f9400660 	ldr	x0, [x19, #8]
/home/ssysarch/Desktop/nick/jetpack_5/Jetson_Linux_R35.4.1_aarch64/Linux_for_Tegra/sources/tegra/optee-src/nv-optee/optee/optee_os/ldelf/ta_elf.c:600
    1380:	f9400aba 	ldr	x26, [x21, #16]
/home/ssysarch/Desktop/nick/jetpack_5/Jetson_Linux_R35.4.1_aarch64/Linux_for_Tegra/sources/tegra/optee-src/nv-optee/optee/optee_os/ldelf/ta_elf.c:597
    1384:	8b000084 	add	x4, x4, x0
/home/ssysarch/Desktop/nick/jetpack_5/Jetson_Linux_R35.4.1_aarch64/Linux_for_Tegra/sources/tegra/optee-src/nv-optee/optee/optee_os/ldelf/ta_elf.c:602
    1388:	f9400e60 	ldr	x0, [x19, #24]
    138c:	eb00031f 	cmp	x24, x0
    1390:	540001a2 	b.cs	13c4 <populate_segments+0x198>  // b.hs, b.nlast
/home/ssysarch/Desktop/nick/jetpack_5/Jetson_Linux_R35.4.1_aarch64/Linux_for_Tegra/sources/tegra/optee-src/nv-optee/optee/optee_os/ldelf/ta_elf.c:603
    1394:	cb180019 	sub	x25, x0, x24
/home/ssysarch/Desktop/nick/jetpack_5/Jetson_Linux_R35.4.1_aarch64/Linux_for_Tegra/sources/tegra/optee-src/nv-optee/optee/optee_os/ldelf/ta_elf.c:604
    1398:	f9400a61 	ldr	x1, [x19, #16]
/home/ssysarch/Desktop/nick/jetpack_5/Jetson_Linux_R35.4.1_aarch64/Linux_for_Tegra/sources/tegra/optee-src/nv-optee/optee/optee_os/ldelf/ta_elf.c:603
    139c:	eb1a033f 	cmp	x25, x26
    13a0:	9a9a9339 	csel	x25, x25, x26, ls  // ls = plast
/home/ssysarch/Desktop/nick/jetpack_5/Jetson_Linux_R35.4.1_aarch64/Linux_for_Tegra/sources/tegra/optee-src/nv-optee/optee/optee_os/ldelf/ta_elf.c:604
    13a4:	cb000021 	sub	x1, x1, x0
    13a8:	aa1903e2 	mov	x2, x25
    13ac:	8b180021 	add	x1, x1, x24
    13b0:	aa0403e0 	mov	x0, x4
/home/ssysarch/Desktop/nick/jetpack_5/Jetson_Linux_R35.4.1_aarch64/Linux_for_Tegra/sources/tegra/optee-src/nv-optee/optee/optee_os/ldelf/ta_elf.c:607
    13b4:	cb19035a 	sub	x26, x26, x25
/home/ssysarch/Desktop/nick/jetpack_5/Jetson_Linux_R35.4.1_aarch64/Linux_for_Tegra/sources/tegra/optee-src/nv-optee/optee/optee_os/ldelf/ta_elf.c:604
    13b8:	97fffb2e 	bl	70 <memcpy>
/home/ssysarch/Desktop/nick/jetpack_5/Jetson_Linux_R35.4.1_aarch64/Linux_for_Tegra/sources/tegra/optee-src/nv-optee/optee/optee_os/ldelf/ta_elf.c:606
    13bc:	8b190318 	add	x24, x24, x25
/home/ssysarch/Desktop/nick/jetpack_5/Jetson_Linux_R35.4.1_aarch64/Linux_for_Tegra/sources/tegra/optee-src/nv-optee/optee/optee_os/ldelf/ta_elf.c:605
    13c0:	8b190004 	add	x4, x0, x25
/home/ssysarch/Desktop/nick/jetpack_5/Jetson_Linux_R35.4.1_aarch64/Linux_for_Tegra/sources/tegra/optee-src/nv-optee/optee/optee_os/ldelf/ta_elf.c:610
    13c4:	b40002ba 	cbz	x26, 1418 <populate_segments+0x1ec>
/home/ssysarch/Desktop/nick/jetpack_5/Jetson_Linux_R35.4.1_aarch64/Linux_for_Tegra/sources/tegra/optee-src/nv-optee/optee/optee_os/ldelf/ta_elf.c:611
    13c8:	b9410262 	ldr	w2, [x19, #256]
    13cc:	aa1803e3 	mov	x3, x24
    13d0:	aa1a03e1 	mov	x1, x26
    13d4:	aa0403e0 	mov	x0, x4
    13d8:	97fffcb6 	bl	6b0 <sys_copy_from_ta_bin>
    13dc:	2a0003f9 	mov	w25, w0
/home/ssysarch/Desktop/nick/jetpack_5/Jetson_Linux_R35.4.1_aarch64/Linux_for_Tegra/sources/tegra/optee-src/nv-optee/optee/optee_os/ldelf/ta_elf.c:614
    13e0:	34000160 	cbz	w0, 140c <populate_segments+0x1e0>
/home/ssysarch/Desktop/nick/jetpack_5/Jetson_Linux_R35.4.1_aarch64/Linux_for_Tegra/sources/tegra/optee-src/nv-optee/optee/optee_os/ldelf/ta_elf.c:615
    13e4:	b0000024 	adrp	x4, 6000 <kprintf.constprop.0+0x4c8>
    13e8:	91342484 	add	x4, x4, #0xd09
    13ec:	52800023 	mov	w3, #0x1                   	// #1
    13f0:	52800022 	mov	w2, #0x1                   	// #1
    13f4:	52804ce1 	mov	w1, #0x267                 	// #615
    13f8:	d0000020 	adrp	x0, 7000 <trace_ext_prefix+0x509>
    13fc:	910d2800 	add	x0, x0, #0x34a
    1400:	94001533 	bl	68cc <trace_printf>
    1404:	2a1903e0 	mov	w0, w25
populate_segments():
/home/ssysarch/Desktop/nick/jetpack_5/Jetson_Linux_R35.4.1_aarch64/Linux_for_Tegra/sources/tegra/optee-src/nv-optee/optee/optee_os/ldelf/ta_elf.c:901
    1408:	97fffb58 	bl	168 <_ldelf_return>
copy_remapped_to():
/home/ssysarch/Desktop/nick/jetpack_5/Jetson_Linux_R35.4.1_aarch64/Linux_for_Tegra/sources/tegra/optee-src/nv-optee/optee/optee_os/ldelf/ta_elf.c:616
    140c:	f9400e63 	ldr	x3, [x19, #24]
    1410:	8b180063 	add	x3, x3, x24
    1414:	f9000e63 	str	x3, [x19, #24]
populate_segments():
/home/ssysarch/Desktop/nick/jetpack_5/Jetson_Linux_R35.4.1_aarch64/Linux_for_Tegra/sources/tegra/optee-src/nv-optee/optee/optee_os/ldelf/ta_elf.c:805
    1418:	f94037e0 	ldr	x0, [sp, #104]
    141c:	8b140014 	add	x20, x0, x20
/home/ssysarch/Desktop/nick/jetpack_5/Jetson_Linux_R35.4.1_aarch64/Linux_for_Tegra/sources/tegra/optee-src/nv-optee/optee/optee_os/ldelf/ta_elf.c:843
    1420:	f9000a74 	str	x20, [x19, #16]
/home/ssysarch/Desktop/nick/jetpack_5/Jetson_Linux_R35.4.1_aarch64/Linux_for_Tegra/sources/tegra/optee-src/nv-optee/optee/optee_os/ldelf/ta_elf.c:788 (discriminator 2)
    1424:	f9401eb5 	ldr	x21, [x21, #56]
    1428:	17ffff94 	b	1278 <populate_segments+0x4c>
/home/ssysarch/Desktop/nick/jetpack_5/Jetson_Linux_R35.4.1_aarch64/Linux_for_Tegra/sources/tegra/optee-src/nv-optee/optee/optee_os/ldelf/ta_elf.c:810
    142c:	f94002b7 	ldr	x23, [x21]
/home/ssysarch/Desktop/nick/jetpack_5/Jetson_Linux_R35.4.1_aarch64/Linux_for_Tegra/sources/tegra/optee-src/nv-optee/optee/optee_os/ldelf/ta_elf.c:813
    1430:	f9400e62 	ldr	x2, [x19, #24]
/home/ssysarch/Desktop/nick/jetpack_5/Jetson_Linux_R35.4.1_aarch64/Linux_for_Tegra/sources/tegra/optee-src/nv-optee/optee/optee_os/ldelf/ta_elf.c:808
    1434:	f9400ab4 	ldr	x20, [x21, #16]
/home/ssysarch/Desktop/nick/jetpack_5/Jetson_Linux_R35.4.1_aarch64/Linux_for_Tegra/sources/tegra/optee-src/nv-optee/optee/optee_os/ldelf/ta_elf.c:813
    1438:	eb17005f 	cmp	x2, x23
    143c:	54000589 	b.ls	14ec <populate_segments+0x2c0>  // b.plast
/home/ssysarch/Desktop/nick/jetpack_5/Jetson_Linux_R35.4.1_aarch64/Linux_for_Tegra/sources/tegra/optee-src/nv-optee/optee/optee_os/ldelf/ta_elf.c:819
    1440:	8b140022 	add	x2, x1, x20
    1444:	f13ffc5f 	cmp	x2, #0xfff
    1448:	540004a8 	b.hi	14dc <populate_segments+0x2b0>  // b.pmore
/home/ssysarch/Desktop/nick/jetpack_5/Jetson_Linux_R35.4.1_aarch64/Linux_for_Tegra/sources/tegra/optee-src/nv-optee/optee/optee_os/ldelf/ta_elf.c:826
    144c:	f140041f 	cmp	x0, #0x1, lsl #12
    1450:	54fffea9 	b.ls	1424 <populate_segments+0x1f8>  // b.plast
roundup():
/home/ssysarch/Desktop/nick/jetpack_5/Jetson_Linux_R35.4.1_aarch64/Linux_for_Tegra/sources/tegra/optee-src/nv-optee/optee/optee_os/ldelf/ta_elf.c:525
    1454:	913ffc14 	add	x20, x0, #0xfff
    1458:	913ffc21 	add	x1, x1, #0xfff
populate_segments():
/home/ssysarch/Desktop/nick/jetpack_5/Jetson_Linux_R35.4.1_aarch64/Linux_for_Tegra/sources/tegra/optee-src/nv-optee/optee/optee_os/ldelf/ta_elf.c:834
    145c:	f9400a62 	ldr	x2, [x19, #16]
roundup():
/home/ssysarch/Desktop/nick/jetpack_5/Jetson_Linux_R35.4.1_aarch64/Linux_for_Tegra/sources/tegra/optee-src/nv-optee/optee/optee_os/ldelf/ta_elf.c:525
    1460:	9274ce94 	and	x20, x20, #0xfffffffffffff000
    1464:	9274cc21 	and	x1, x1, #0xfffffffffffff000
populate_segments():
/home/ssysarch/Desktop/nick/jetpack_5/Jetson_Linux_R35.4.1_aarch64/Linux_for_Tegra/sources/tegra/optee-src/nv-optee/optee/optee_os/ldelf/ta_elf.c:834
    1468:	f90037e2 	str	x2, [sp, #104]
/home/ssysarch/Desktop/nick/jetpack_5/Jetson_Linux_R35.4.1_aarch64/Linux_for_Tegra/sources/tegra/optee-src/nv-optee/optee/optee_os/ldelf/ta_elf.c:835
    146c:	cb010294 	sub	x20, x20, x1
/home/ssysarch/Desktop/nick/jetpack_5/Jetson_Linux_R35.4.1_aarch64/Linux_for_Tegra/sources/tegra/optee-src/nv-optee/optee/optee_os/ldelf/ta_elf.c:838
    1470:	f1400694 	subs	x20, x20, #0x1, lsl #12
    1474:	540000e1 	b.ne	1490 <populate_segments+0x264>  // b.any
/home/ssysarch/Desktop/nick/jetpack_5/Jetson_Linux_R35.4.1_aarch64/Linux_for_Tegra/sources/tegra/optee-src/nv-optee/optee/optee_os/ldelf/ta_elf.c:838 (discriminator 1)
    1478:	d0000022 	adrp	x2, 7000 <trace_ext_prefix+0x509>
    147c:	910e4842 	add	x2, x2, #0x392
    1480:	b0000020 	adrp	x0, 6000 <kprintf.constprop.0+0x4c8>
    1484:	91357000 	add	x0, x0, #0xd5c
    1488:	528068c1 	mov	w1, #0x346                 	// #838
    148c:	17ffff78 	b	126c <populate_segments+0x40>
/home/ssysarch/Desktop/nick/jetpack_5/Jetson_Linux_R35.4.1_aarch64/Linux_for_Tegra/sources/tegra/optee-src/nv-optee/optee/optee_os/ldelf/ta_elf.c:839
    1490:	aa1603e2 	mov	x2, x22
    1494:	aa1403e0 	mov	x0, x20
    1498:	d2800004 	mov	x4, #0x0                   	// #0
    149c:	d2800003 	mov	x3, #0x0                   	// #0
    14a0:	52800001 	mov	w1, #0x0                   	// #0
    14a4:	97fffc6f 	bl	660 <sys_map_zi>
    14a8:	2a0003f8 	mov	w24, w0
/home/ssysarch/Desktop/nick/jetpack_5/Jetson_Linux_R35.4.1_aarch64/Linux_for_Tegra/sources/tegra/optee-src/nv-optee/optee/optee_os/ldelf/ta_elf.c:841
    14ac:	340000e0 	cbz	w0, 14c8 <populate_segments+0x29c>
/home/ssysarch/Desktop/nick/jetpack_5/Jetson_Linux_R35.4.1_aarch64/Linux_for_Tegra/sources/tegra/optee-src/nv-optee/optee/optee_os/ldelf/ta_elf.c:842
    14b0:	b0000024 	adrp	x4, 6000 <kprintf.constprop.0+0x4c8>
    14b4:	91354484 	add	x4, x4, #0xd51
    14b8:	52800023 	mov	w3, #0x1                   	// #1
    14bc:	52800022 	mov	w2, #0x1                   	// #1
    14c0:	52806941 	mov	w1, #0x34a                 	// #842
    14c4:	17ffffa8 	b	1364 <populate_segments+0x138>
roundup():
/home/ssysarch/Desktop/nick/jetpack_5/Jetson_Linux_R35.4.1_aarch64/Linux_for_Tegra/sources/tegra/optee-src/nv-optee/optee/optee_os/ldelf/ta_elf.c:525
    14c8:	f94037e0 	ldr	x0, [sp, #104]
    14cc:	913ffc00 	add	x0, x0, #0xfff
    14d0:	8b140014 	add	x20, x0, x20
    14d4:	9274ce94 	and	x20, x20, #0xfffffffffffff000
    14d8:	17ffffd2 	b	1420 <populate_segments+0x1f4>
populate_segments():
/home/ssysarch/Desktop/nick/jetpack_5/Jetson_Linux_R35.4.1_aarch64/Linux_for_Tegra/sources/tegra/optee-src/nv-optee/optee/optee_os/ldelf/ta_elf.c:848
    14dc:	91400421 	add	x1, x1, #0x1, lsl #12
/home/ssysarch/Desktop/nick/jetpack_5/Jetson_Linux_R35.4.1_aarch64/Linux_for_Tegra/sources/tegra/optee-src/nv-optee/optee/optee_os/ldelf/ta_elf.c:849
    14e0:	d1400694 	sub	x20, x20, #0x1, lsl #12
/home/ssysarch/Desktop/nick/jetpack_5/Jetson_Linux_R35.4.1_aarch64/Linux_for_Tegra/sources/tegra/optee-src/nv-optee/optee/optee_os/ldelf/ta_elf.c:850
    14e4:	d1400739 	sub	x25, x25, #0x1, lsl #12
/home/ssysarch/Desktop/nick/jetpack_5/Jetson_Linux_R35.4.1_aarch64/Linux_for_Tegra/sources/tegra/optee-src/nv-optee/optee/optee_os/ldelf/ta_elf.c:851
    14e8:	914006f7 	add	x23, x23, #0x1, lsl #12
/home/ssysarch/Desktop/nick/jetpack_5/Jetson_Linux_R35.4.1_aarch64/Linux_for_Tegra/sources/tegra/optee-src/nv-optee/optee/optee_os/ldelf/ta_elf.c:854
    14ec:	f9400660 	ldr	x0, [x19, #8]
    14f0:	b5000280 	cbnz	x0, 1540 <populate_segments+0x314>
/home/ssysarch/Desktop/nick/jetpack_5/Jetson_Linux_R35.4.1_aarch64/Linux_for_Tegra/sources/tegra/optee-src/nv-optee/optee/optee_os/ldelf/ta_elf.c:855
    14f4:	f90037ff 	str	xzr, [sp, #104]
/home/ssysarch/Desktop/nick/jetpack_5/Jetson_Linux_R35.4.1_aarch64/Linux_for_Tegra/sources/tegra/optee-src/nv-optee/optee/optee_os/ldelf/ta_elf.c:856
    14f8:	97fffc91 	bl	73c <get_pad_begin>
    14fc:	aa0003fc 	mov	x28, x0
/home/ssysarch/Desktop/nick/jetpack_5/Jetson_Linux_R35.4.1_aarch64/Linux_for_Tegra/sources/tegra/optee-src/nv-optee/optee/optee_os/ldelf/ta_elf.c:867
    1500:	f94012a0 	ldr	x0, [x21, #32]
/home/ssysarch/Desktop/nick/jetpack_5/Jetson_Linux_R35.4.1_aarch64/Linux_for_Tegra/sources/tegra/optee-src/nv-optee/optee/optee_os/ldelf/ta_elf.c:870
    1504:	5301041b 	ubfx	w27, w0, #1, #1
    1508:	1100077b 	add	w27, w27, #0x1
/home/ssysarch/Desktop/nick/jetpack_5/Jetson_Linux_R35.4.1_aarch64/Linux_for_Tegra/sources/tegra/optee-src/nv-optee/optee/optee_os/ldelf/ta_elf.c:871
    150c:	36000040 	tbz	w0, #0, 1514 <populate_segments+0x2e8>
/home/ssysarch/Desktop/nick/jetpack_5/Jetson_Linux_R35.4.1_aarch64/Linux_for_Tegra/sources/tegra/optee-src/nv-optee/optee/optee_os/ldelf/ta_elf.c:872
    1510:	321e037b 	orr	w27, w27, #0x4
/home/ssysarch/Desktop/nick/jetpack_5/Jetson_Linux_R35.4.1_aarch64/Linux_for_Tegra/sources/tegra/optee-src/nv-optee/optee/optee_os/ldelf/ta_elf.c:873
    1514:	371001e0 	tbnz	w0, #2, 1550 <populate_segments+0x324>
/home/ssysarch/Desktop/nick/jetpack_5/Jetson_Linux_R35.4.1_aarch64/Linux_for_Tegra/sources/tegra/optee-src/nv-optee/optee/optee_os/ldelf/ta_elf.c:874
    1518:	b0000024 	adrp	x4, 6000 <kprintf.constprop.0+0x4c8>
    151c:	91359884 	add	x4, x4, #0xd66
    1520:	52800023 	mov	w3, #0x1                   	// #1
    1524:	52800022 	mov	w2, #0x1                   	// #1
    1528:	52806d41 	mov	w1, #0x36a                 	// #874
    152c:	d0000020 	adrp	x0, 7000 <trace_ext_prefix+0x509>
    1530:	910e4800 	add	x0, x0, #0x392
    1534:	940014e6 	bl	68cc <trace_printf>
    1538:	129ffea0 	mov	w0, #0xffff000a            	// #-65526
    153c:	17ffffb3 	b	1408 <populate_segments+0x1dc>
/home/ssysarch/Desktop/nick/jetpack_5/Jetson_Linux_R35.4.1_aarch64/Linux_for_Tegra/sources/tegra/optee-src/nv-optee/optee/optee_os/ldelf/ta_elf.c:863
    1540:	8b010001 	add	x1, x0, x1
/home/ssysarch/Desktop/nick/jetpack_5/Jetson_Linux_R35.4.1_aarch64/Linux_for_Tegra/sources/tegra/optee-src/nv-optee/optee/optee_os/ldelf/ta_elf.c:864
    1544:	d280001c 	mov	x28, #0x0                   	// #0
/home/ssysarch/Desktop/nick/jetpack_5/Jetson_Linux_R35.4.1_aarch64/Linux_for_Tegra/sources/tegra/optee-src/nv-optee/optee/optee_os/ldelf/ta_elf.c:863
    1548:	f90037e1 	str	x1, [sp, #104]
/home/ssysarch/Desktop/nick/jetpack_5/Jetson_Linux_R35.4.1_aarch64/Linux_for_Tegra/sources/tegra/optee-src/nv-optee/optee/optee_os/ldelf/ta_elf.c:864
    154c:	17ffffed 	b	1500 <populate_segments+0x2d4>
/home/ssysarch/Desktop/nick/jetpack_5/Jetson_Linux_R35.4.1_aarch64/Linux_for_Tegra/sources/tegra/optee-src/nv-optee/optee/optee_os/ldelf/ta_elf.c:876
    1550:	3608057b 	tbz	w27, #1, 15fc <populate_segments+0x3d0>
/home/ssysarch/Desktop/nick/jetpack_5/Jetson_Linux_R35.4.1_aarch64/Linux_for_Tegra/sources/tegra/optee-src/nv-optee/optee/optee_os/ldelf/ta_elf.c:877
    1554:	aa1803e4 	mov	x4, x24
    1558:	aa1c03e3 	mov	x3, x28
    155c:	aa1603e2 	mov	x2, x22
    1560:	aa1903e0 	mov	x0, x25
    1564:	52800001 	mov	w1, #0x0                   	// #0
    1568:	97fffc3e 	bl	660 <sys_map_zi>
/home/ssysarch/Desktop/nick/jetpack_5/Jetson_Linux_R35.4.1_aarch64/Linux_for_Tegra/sources/tegra/optee-src/nv-optee/optee/optee_os/ldelf/ta_elf.c:879
    156c:	f100039f 	cmp	x28, #0x0
/home/ssysarch/Desktop/nick/jetpack_5/Jetson_Linux_R35.4.1_aarch64/Linux_for_Tegra/sources/tegra/optee-src/nv-optee/optee/optee_os/ldelf/ta_elf.c:877
    1570:	2a0003fa 	mov	w26, w0
/home/ssysarch/Desktop/nick/jetpack_5/Jetson_Linux_R35.4.1_aarch64/Linux_for_Tegra/sources/tegra/optee-src/nv-optee/optee/optee_os/ldelf/ta_elf.c:879
    1574:	129ffe60 	mov	w0, #0xffff000c            	// #-65524
    1578:	7a401340 	ccmp	w26, w0, #0x0, ne  // ne = any
    157c:	54000101 	b.ne	159c <populate_segments+0x370>  // b.any
/home/ssysarch/Desktop/nick/jetpack_5/Jetson_Linux_R35.4.1_aarch64/Linux_for_Tegra/sources/tegra/optee-src/nv-optee/optee/optee_os/ldelf/ta_elf.c:880
    1580:	aa1803e4 	mov	x4, x24
    1584:	aa1603e2 	mov	x2, x22
    1588:	aa1903e0 	mov	x0, x25
    158c:	d2800003 	mov	x3, #0x0                   	// #0
    1590:	52800001 	mov	w1, #0x0                   	// #0
    1594:	97fffc33 	bl	660 <sys_map_zi>
    1598:	2a0003fa 	mov	w26, w0
/home/ssysarch/Desktop/nick/jetpack_5/Jetson_Linux_R35.4.1_aarch64/Linux_for_Tegra/sources/tegra/optee-src/nv-optee/optee/optee_os/ldelf/ta_elf.c:882
    159c:	3400017a 	cbz	w26, 15c8 <populate_segments+0x39c>
/home/ssysarch/Desktop/nick/jetpack_5/Jetson_Linux_R35.4.1_aarch64/Linux_for_Tegra/sources/tegra/optee-src/nv-optee/optee/optee_os/ldelf/ta_elf.c:883
    15a0:	b0000024 	adrp	x4, 6000 <kprintf.constprop.0+0x4c8>
    15a4:	91354484 	add	x4, x4, #0xd51
    15a8:	52800023 	mov	w3, #0x1                   	// #1
    15ac:	52800022 	mov	w2, #0x1                   	// #1
    15b0:	52806e61 	mov	w1, #0x373                 	// #883
/home/ssysarch/Desktop/nick/jetpack_5/Jetson_Linux_R35.4.1_aarch64/Linux_for_Tegra/sources/tegra/optee-src/nv-optee/optee/optee_os/ldelf/ta_elf.c:901
    15b4:	d0000020 	adrp	x0, 7000 <trace_ext_prefix+0x509>
    15b8:	910e4800 	add	x0, x0, #0x392
    15bc:	940014c4 	bl	68cc <trace_printf>
    15c0:	2a1a03e0 	mov	w0, w26
    15c4:	17ffff91 	b	1408 <populate_segments+0x1dc>
/home/ssysarch/Desktop/nick/jetpack_5/Jetson_Linux_R35.4.1_aarch64/Linux_for_Tegra/sources/tegra/optee-src/nv-optee/optee/optee_os/ldelf/ta_elf.c:884
    15c8:	b9410262 	ldr	w2, [x19, #256]
    15cc:	aa1703e3 	mov	x3, x23
    15d0:	f94037e0 	ldr	x0, [sp, #104]
    15d4:	aa1403e1 	mov	x1, x20
    15d8:	97fffc36 	bl	6b0 <sys_copy_from_ta_bin>
    15dc:	2a0003f8 	mov	w24, w0
/home/ssysarch/Desktop/nick/jetpack_5/Jetson_Linux_R35.4.1_aarch64/Linux_for_Tegra/sources/tegra/optee-src/nv-optee/optee/optee_os/ldelf/ta_elf.c:886
    15e0:	34000600 	cbz	w0, 16a0 <populate_segments+0x474>
/home/ssysarch/Desktop/nick/jetpack_5/Jetson_Linux_R35.4.1_aarch64/Linux_for_Tegra/sources/tegra/optee-src/nv-optee/optee/optee_os/ldelf/ta_elf.c:887
    15e4:	b0000024 	adrp	x4, 6000 <kprintf.constprop.0+0x4c8>
    15e8:	91342484 	add	x4, x4, #0xd09
    15ec:	52800023 	mov	w3, #0x1                   	// #1
    15f0:	52800022 	mov	w2, #0x1                   	// #1
    15f4:	52806ee1 	mov	w1, #0x377                 	// #887
    15f8:	17ffff5b 	b	1364 <populate_segments+0x138>
/home/ssysarch/Desktop/nick/jetpack_5/Jetson_Linux_R35.4.1_aarch64/Linux_for_Tegra/sources/tegra/optee-src/nv-optee/optee/optee_os/ldelf/ta_elf.c:889
    15fc:	eb19029f 	cmp	x20, x25
    1600:	54000160 	b.eq	162c <populate_segments+0x400>  // b.none
/home/ssysarch/Desktop/nick/jetpack_5/Jetson_Linux_R35.4.1_aarch64/Linux_for_Tegra/sources/tegra/optee-src/nv-optee/optee/optee_os/ldelf/ta_elf.c:890
    1604:	b0000024 	adrp	x4, 6000 <kprintf.constprop.0+0x4c8>
    1608:	9135fc84 	add	x4, x4, #0xd7f
    160c:	52800023 	mov	w3, #0x1                   	// #1
    1610:	52800022 	mov	w2, #0x1                   	// #1
    1614:	52806f41 	mov	w1, #0x37a                 	// #890
    1618:	d0000020 	adrp	x0, 7000 <trace_ext_prefix+0x509>
    161c:	910e4800 	add	x0, x0, #0x392
    1620:	940014ab 	bl	68cc <trace_printf>
    1624:	129fff40 	mov	w0, #0xffff0005            	// #-65531
    1628:	17ffff78 	b	1408 <populate_segments+0x1dc>
/home/ssysarch/Desktop/nick/jetpack_5/Jetson_Linux_R35.4.1_aarch64/Linux_for_Tegra/sources/tegra/optee-src/nv-optee/optee/optee_os/ldelf/ta_elf.c:892
    162c:	b9410263 	ldr	w3, [x19, #256]
    1630:	aa1803e6 	mov	x6, x24
    1634:	aa1c03e5 	mov	x5, x28
    1638:	aa1703e4 	mov	x4, x23
    163c:	2a1b03e2 	mov	w2, w27
    1640:	aa1403e1 	mov	x1, x20
    1644:	aa1603e0 	mov	x0, x22
    1648:	97fffc13 	bl	694 <sys_map_ta_bin>
    164c:	2a0003fa 	mov	w26, w0
/home/ssysarch/Desktop/nick/jetpack_5/Jetson_Linux_R35.4.1_aarch64/Linux_for_Tegra/sources/tegra/optee-src/nv-optee/optee/optee_os/ldelf/ta_elf.c:895
    1650:	f100039f 	cmp	x28, #0x0
    1654:	129ffe60 	mov	w0, #0xffff000c            	// #-65524
    1658:	7a401340 	ccmp	w26, w0, #0x0, ne  // ne = any
    165c:	54000141 	b.ne	1684 <populate_segments+0x458>  // b.any
/home/ssysarch/Desktop/nick/jetpack_5/Jetson_Linux_R35.4.1_aarch64/Linux_for_Tegra/sources/tegra/optee-src/nv-optee/optee/optee_os/ldelf/ta_elf.c:896
    1660:	b9410263 	ldr	w3, [x19, #256]
    1664:	aa1803e6 	mov	x6, x24
    1668:	aa1703e4 	mov	x4, x23
    166c:	2a1b03e2 	mov	w2, w27
    1670:	aa1403e1 	mov	x1, x20
    1674:	aa1603e0 	mov	x0, x22
    1678:	d2800005 	mov	x5, #0x0                   	// #0
    167c:	97fffc06 	bl	694 <sys_map_ta_bin>
    1680:	2a0003fa 	mov	w26, w0
/home/ssysarch/Desktop/nick/jetpack_5/Jetson_Linux_R35.4.1_aarch64/Linux_for_Tegra/sources/tegra/optee-src/nv-optee/optee/optee_os/ldelf/ta_elf.c:900
    1684:	340000fa 	cbz	w26, 16a0 <populate_segments+0x474>
/home/ssysarch/Desktop/nick/jetpack_5/Jetson_Linux_R35.4.1_aarch64/Linux_for_Tegra/sources/tegra/optee-src/nv-optee/optee/optee_os/ldelf/ta_elf.c:901
    1688:	b0000024 	adrp	x4, 6000 <kprintf.constprop.0+0x4c8>
    168c:	912cd484 	add	x4, x4, #0xb35
    1690:	52800023 	mov	w3, #0x1                   	// #1
    1694:	52800022 	mov	w2, #0x1                   	// #1
    1698:	528070a1 	mov	w1, #0x385                 	// #901
    169c:	17ffffc6 	b	15b4 <populate_segments+0x388>
/home/ssysarch/Desktop/nick/jetpack_5/Jetson_Linux_R35.4.1_aarch64/Linux_for_Tegra/sources/tegra/optee-src/nv-optee/optee/optee_os/ldelf/ta_elf.c:904
    16a0:	f9400661 	ldr	x1, [x19, #8]
    16a4:	f94037e0 	ldr	x0, [sp, #104]
    16a8:	b5000041 	cbnz	x1, 16b0 <populate_segments+0x484>
/home/ssysarch/Desktop/nick/jetpack_5/Jetson_Linux_R35.4.1_aarch64/Linux_for_Tegra/sources/tegra/optee-src/nv-optee/optee/optee_os/ldelf/ta_elf.c:905
    16ac:	f9000660 	str	x0, [x19, #8]
roundup():
/home/ssysarch/Desktop/nick/jetpack_5/Jetson_Linux_R35.4.1_aarch64/Linux_for_Tegra/sources/tegra/optee-src/nv-optee/optee/optee_os/ldelf/ta_elf.c:525
    16b0:	913ffc00 	add	x0, x0, #0xfff
    16b4:	8b190000 	add	x0, x0, x25
    16b8:	9274cc00 	and	x0, x0, #0xfffffffffffff000
populate_segments():
/home/ssysarch/Desktop/nick/jetpack_5/Jetson_Linux_R35.4.1_aarch64/Linux_for_Tegra/sources/tegra/optee-src/nv-optee/optee/optee_os/ldelf/ta_elf.c:906
    16bc:	f9000a60 	str	x0, [x19, #16]
/home/ssysarch/Desktop/nick/jetpack_5/Jetson_Linux_R35.4.1_aarch64/Linux_for_Tegra/sources/tegra/optee-src/nv-optee/optee/optee_os/ldelf/ta_elf.c:907
    16c0:	f9400e60 	ldr	x0, [x19, #24]
    16c4:	8b140014 	add	x20, x0, x20
    16c8:	f9000e74 	str	x20, [x19, #24]
    16cc:	17ffff56 	b	1424 <populate_segments+0x1f8>

00000000000016d0 <get_next_in_order.isra.0>:
get_next_in_order():
/home/ssysarch/Desktop/nick/jetpack_5/Jetson_Linux_R35.4.1_aarch64/Linux_for_Tegra/sources/tegra/optee-src/nv-optee/optee/optee_os/ldelf/ta_elf.c:1410
    16d0:	f9400024 	ldr	x4, [x1]
/home/ssysarch/Desktop/nick/jetpack_5/Jetson_Linux_R35.4.1_aarch64/Linux_for_Tegra/sources/tegra/optee-src/nv-optee/optee/optee_os/ldelf/ta_elf.c:1411
    16d4:	f9400045 	ldr	x5, [x2]
/home/ssysarch/Desktop/nick/jetpack_5/Jetson_Linux_R35.4.1_aarch64/Linux_for_Tegra/sources/tegra/optee-src/nv-optee/optee/optee_os/ldelf/ta_elf.c:1412
    16d8:	f100009f 	cmp	x4, #0x0
    16dc:	1a9f07e7 	cset	w7, ne  // ne = any
    16e0:	f10000bf 	cmp	x5, #0x0
    16e4:	1a9f07e6 	cset	w6, ne  // ne = any
    16e8:	6b0600ff 	cmp	w7, w6
    16ec:	54000120 	b.eq	1710 <get_next_in_order.isra.0+0x40>  // b.none
/home/ssysarch/Desktop/nick/jetpack_5/Jetson_Linux_R35.4.1_aarch64/Linux_for_Tegra/sources/tegra/optee-src/nv-optee/optee/optee_os/ldelf/ta_elf.c:1398
    16f0:	a9bf7bfd 	stp	x29, x30, [sp, #-16]!
/home/ssysarch/Desktop/nick/jetpack_5/Jetson_Linux_R35.4.1_aarch64/Linux_for_Tegra/sources/tegra/optee-src/nv-optee/optee/optee_os/ldelf/ta_elf.c:1412
    16f4:	d0000022 	adrp	x2, 7000 <trace_ext_prefix+0x509>
    16f8:	9111c442 	add	x2, x2, #0x471
/home/ssysarch/Desktop/nick/jetpack_5/Jetson_Linux_R35.4.1_aarch64/Linux_for_Tegra/sources/tegra/optee-src/nv-optee/optee/optee_os/ldelf/ta_elf.c:1398
    16fc:	910003fd 	mov	x29, sp
/home/ssysarch/Desktop/nick/jetpack_5/Jetson_Linux_R35.4.1_aarch64/Linux_for_Tegra/sources/tegra/optee-src/nv-optee/optee/optee_os/ldelf/ta_elf.c:1412
    1700:	b0000020 	adrp	x0, 6000 <kprintf.constprop.0+0x4c8>
    1704:	91366400 	add	x0, x0, #0xd99
    1708:	5280b081 	mov	w1, #0x584                 	// #1412
    170c:	97fffdbf 	bl	e08 <_assert_trap.constprop.0>
/home/ssysarch/Desktop/nick/jetpack_5/Jetson_Linux_R35.4.1_aarch64/Linux_for_Tegra/sources/tegra/optee-src/nv-optee/optee/optee_os/ldelf/ta_elf.c:1414
    1710:	b40000c5 	cbz	x5, 1728 <get_next_in_order.isra.0+0x58>
/home/ssysarch/Desktop/nick/jetpack_5/Jetson_Linux_R35.4.1_aarch64/Linux_for_Tegra/sources/tegra/optee-src/nv-optee/optee/optee_os/ldelf/ta_elf.c:1415
    1714:	f9401ca5 	ldr	x5, [x5, #56]
/home/ssysarch/Desktop/nick/jetpack_5/Jetson_Linux_R35.4.1_aarch64/Linux_for_Tegra/sources/tegra/optee-src/nv-optee/optee/optee_os/ldelf/ta_elf.c:1416
    1718:	b4000085 	cbz	x5, 1728 <get_next_in_order.isra.0+0x58>
/home/ssysarch/Desktop/nick/jetpack_5/Jetson_Linux_R35.4.1_aarch64/Linux_for_Tegra/sources/tegra/optee-src/nv-optee/optee/optee_os/ldelf/ta_elf.c:1417
    171c:	f9000045 	str	x5, [x2]
/home/ssysarch/Desktop/nick/jetpack_5/Jetson_Linux_R35.4.1_aarch64/Linux_for_Tegra/sources/tegra/optee-src/nv-optee/optee/optee_os/ldelf/ta_elf.c:1442
    1720:	52800020 	mov	w0, #0x1                   	// #1
    1724:	d65f03c0 	ret
/home/ssysarch/Desktop/nick/jetpack_5/Jetson_Linux_R35.4.1_aarch64/Linux_for_Tegra/sources/tegra/optee-src/nv-optee/optee/optee_os/ldelf/ta_elf.c:1422
    1728:	b40001a4 	cbz	x4, 175c <get_next_in_order.isra.0+0x8c>
/home/ssysarch/Desktop/nick/jetpack_5/Jetson_Linux_R35.4.1_aarch64/Linux_for_Tegra/sources/tegra/optee-src/nv-optee/optee/optee_os/ldelf/ta_elf.c:1423
    172c:	f9400488 	ldr	x8, [x4, #8]
/home/ssysarch/Desktop/nick/jetpack_5/Jetson_Linux_R35.4.1_aarch64/Linux_for_Tegra/sources/tegra/optee-src/nv-optee/optee/optee_os/ldelf/ta_elf.c:1407
    1730:	d2800006 	mov	x6, #0x0                   	// #0
/home/ssysarch/Desktop/nick/jetpack_5/Jetson_Linux_R35.4.1_aarch64/Linux_for_Tegra/sources/tegra/optee-src/nv-optee/optee/optee_os/ldelf/ta_elf.c:1404
    1734:	d2800005 	mov	x5, #0x0                   	// #0
/home/ssysarch/Desktop/nick/jetpack_5/Jetson_Linux_R35.4.1_aarch64/Linux_for_Tegra/sources/tegra/optee-src/nv-optee/optee/optee_os/ldelf/ta_elf.c:1427
    1738:	f9400004 	ldr	x4, [x0]
/home/ssysarch/Desktop/nick/jetpack_5/Jetson_Linux_R35.4.1_aarch64/Linux_for_Tegra/sources/tegra/optee-src/nv-optee/optee/optee_os/ldelf/ta_elf.c:1426
    173c:	d2800000 	mov	x0, #0x0                   	// #0
/home/ssysarch/Desktop/nick/jetpack_5/Jetson_Linux_R35.4.1_aarch64/Linux_for_Tegra/sources/tegra/optee-src/nv-optee/optee/optee_os/ldelf/ta_elf.c:1427
    1740:	b5000124 	cbnz	x4, 1764 <get_next_in_order.isra.0+0x94>
/home/ssysarch/Desktop/nick/jetpack_5/Jetson_Linux_R35.4.1_aarch64/Linux_for_Tegra/sources/tegra/optee-src/nv-optee/optee/optee_os/ldelf/ta_elf.c:1436
    1744:	b40002c0 	cbz	x0, 179c <get_next_in_order.isra.0+0xcc>
/home/ssysarch/Desktop/nick/jetpack_5/Jetson_Linux_R35.4.1_aarch64/Linux_for_Tegra/sources/tegra/optee-src/nv-optee/optee/optee_os/ldelf/ta_elf.c:1439
    1748:	f9000020 	str	x0, [x1]
/home/ssysarch/Desktop/nick/jetpack_5/Jetson_Linux_R35.4.1_aarch64/Linux_for_Tegra/sources/tegra/optee-src/nv-optee/optee/optee_os/ldelf/ta_elf.c:1440
    174c:	f9405000 	ldr	x0, [x0, #160]
    1750:	f9000040 	str	x0, [x2]
/home/ssysarch/Desktop/nick/jetpack_5/Jetson_Linux_R35.4.1_aarch64/Linux_for_Tegra/sources/tegra/optee-src/nv-optee/optee/optee_os/ldelf/ta_elf.c:1441
    1754:	f9000065 	str	x5, [x3]
    1758:	17fffff2 	b	1720 <get_next_in_order.isra.0+0x50>
/home/ssysarch/Desktop/nick/jetpack_5/Jetson_Linux_R35.4.1_aarch64/Linux_for_Tegra/sources/tegra/optee-src/nv-optee/optee/optee_os/ldelf/ta_elf.c:1405
    175c:	d2800008 	mov	x8, #0x0                   	// #0
    1760:	17fffff4 	b	1730 <get_next_in_order.isra.0+0x60>
/home/ssysarch/Desktop/nick/jetpack_5/Jetson_Linux_R35.4.1_aarch64/Linux_for_Tegra/sources/tegra/optee-src/nv-optee/optee/optee_os/ldelf/ta_elf.c:1428
    1764:	f9400487 	ldr	x7, [x4, #8]
    1768:	eb0800ff 	cmp	x7, x8
    176c:	540000c9 	b.ls	1784 <get_next_in_order.isra.0+0xb4>  // b.plast
/home/ssysarch/Desktop/nick/jetpack_5/Jetson_Linux_R35.4.1_aarch64/Linux_for_Tegra/sources/tegra/optee-src/nv-optee/optee/optee_os/ldelf/ta_elf.c:1429
    1770:	b4000100 	cbz	x0, 1790 <get_next_in_order.isra.0+0xc0>
    1774:	f9400409 	ldr	x9, [x0, #8]
/home/ssysarch/Desktop/nick/jetpack_5/Jetson_Linux_R35.4.1_aarch64/Linux_for_Tegra/sources/tegra/optee-src/nv-optee/optee/optee_os/ldelf/ta_elf.c:1431
    1778:	eb0900ff 	cmp	x7, x9
    177c:	9a8620a5 	csel	x5, x5, x6, cs  // cs = hs, nlast
    1780:	9a842000 	csel	x0, x0, x4, cs  // cs = hs, nlast
/home/ssysarch/Desktop/nick/jetpack_5/Jetson_Linux_R35.4.1_aarch64/Linux_for_Tegra/sources/tegra/optee-src/nv-optee/optee/optee_os/ldelf/ta_elf.c:1434
    1784:	910004c6 	add	x6, x6, #0x1
/home/ssysarch/Desktop/nick/jetpack_5/Jetson_Linux_R35.4.1_aarch64/Linux_for_Tegra/sources/tegra/optee-src/nv-optee/optee/optee_os/ldelf/ta_elf.c:1427
    1788:	f9409084 	ldr	x4, [x4, #288]
    178c:	17ffffed 	b	1740 <get_next_in_order.isra.0+0x70>
/home/ssysarch/Desktop/nick/jetpack_5/Jetson_Linux_R35.4.1_aarch64/Linux_for_Tegra/sources/tegra/optee-src/nv-optee/optee/optee_os/ldelf/ta_elf.c:1431
    1790:	aa0603e5 	mov	x5, x6
    1794:	aa0403e0 	mov	x0, x4
    1798:	17fffffb 	b	1784 <get_next_in_order.isra.0+0xb4>
/home/ssysarch/Desktop/nick/jetpack_5/Jetson_Linux_R35.4.1_aarch64/Linux_for_Tegra/sources/tegra/optee-src/nv-optee/optee/optee_os/ldelf/ta_elf.c:1437
    179c:	52800000 	mov	w0, #0x0                   	// #0
/home/ssysarch/Desktop/nick/jetpack_5/Jetson_Linux_R35.4.1_aarch64/Linux_for_Tegra/sources/tegra/optee-src/nv-optee/optee/optee_os/ldelf/ta_elf.c:1443
    17a0:	d65f03c0 	ret

00000000000017a4 <save_soname_from_segment>:
save_soname_from_segment():
/home/ssysarch/Desktop/nick/jetpack_5/Jetson_Linux_R35.4.1_aarch64/Linux_for_Tegra/sources/tegra/optee-src/nv-optee/optee/optee_os/ldelf/ta_elf.c:340
    17a4:	a9be7bfd 	stp	x29, x30, [sp, #-32]!
/home/ssysarch/Desktop/nick/jetpack_5/Jetson_Linux_R35.4.1_aarch64/Linux_for_Tegra/sources/tegra/optee-src/nv-optee/optee/optee_os/ldelf/ta_elf.c:348
    17a8:	7100083f 	cmp	w1, #0x2
/home/ssysarch/Desktop/nick/jetpack_5/Jetson_Linux_R35.4.1_aarch64/Linux_for_Tegra/sources/tegra/optee-src/nv-optee/optee/optee_os/ldelf/ta_elf.c:340
    17ac:	910003fd 	mov	x29, sp
/home/ssysarch/Desktop/nick/jetpack_5/Jetson_Linux_R35.4.1_aarch64/Linux_for_Tegra/sources/tegra/optee-src/nv-optee/optee/optee_os/ldelf/ta_elf.c:344
    17b0:	b90017ff 	str	wzr, [sp, #20]
/home/ssysarch/Desktop/nick/jetpack_5/Jetson_Linux_R35.4.1_aarch64/Linux_for_Tegra/sources/tegra/optee-src/nv-optee/optee/optee_os/ldelf/ta_elf.c:345
    17b4:	f9000fff 	str	xzr, [sp, #24]
/home/ssysarch/Desktop/nick/jetpack_5/Jetson_Linux_R35.4.1_aarch64/Linux_for_Tegra/sources/tegra/optee-src/nv-optee/optee/optee_os/ldelf/ta_elf.c:348
    17b8:	54000601 	b.ne	1878 <save_soname_from_segment+0xd4>  // b.any
    17bc:	aa0003e7 	mov	x7, x0
/home/ssysarch/Desktop/nick/jetpack_5/Jetson_Linux_R35.4.1_aarch64/Linux_for_Tegra/sources/tegra/optee-src/nv-optee/optee/optee_os/ldelf/ta_elf.c:351
    17c0:	39400400 	ldrb	w0, [x0, #1]
/home/ssysarch/Desktop/nick/jetpack_5/Jetson_Linux_R35.4.1_aarch64/Linux_for_Tegra/sources/tegra/optee-src/nv-optee/optee/optee_os/ldelf/ta_elf.c:354
    17c4:	d2800106 	mov	x6, #0x8                   	// #8
/home/ssysarch/Desktop/nick/jetpack_5/Jetson_Linux_R35.4.1_aarch64/Linux_for_Tegra/sources/tegra/optee-src/nv-optee/optee/optee_os/ldelf/ta_elf.c:359
    17c8:	d2800008 	mov	x8, #0x0                   	// #0
/home/ssysarch/Desktop/nick/jetpack_5/Jetson_Linux_R35.4.1_aarch64/Linux_for_Tegra/sources/tegra/optee-src/nv-optee/optee/optee_os/ldelf/ta_elf.c:354
    17cc:	7100001f 	cmp	w0, #0x0
    17d0:	d2800200 	mov	x0, #0x10                  	// #16
    17d4:	9a8010c6 	csel	x6, x6, x0, ne  // ne = any
/home/ssysarch/Desktop/nick/jetpack_5/Jetson_Linux_R35.4.1_aarch64/Linux_for_Tegra/sources/tegra/optee-src/nv-optee/optee/optee_os/ldelf/ta_elf.c:356
    17d8:	9ac6086a 	udiv	x10, x3, x6
    17dc:	9b068d46 	msub	x6, x10, x6, x3
    17e0:	b5000106 	cbnz	x6, 1800 <save_soname_from_segment+0x5c>
    17e4:	aa0203e9 	mov	x9, x2
/home/ssysarch/Desktop/nick/jetpack_5/Jetson_Linux_R35.4.1_aarch64/Linux_for_Tegra/sources/tegra/optee-src/nv-optee/optee/optee_os/ldelf/ta_elf.c:360
    17e8:	910063e4 	add	x4, sp, #0x18
    17ec:	910053e3 	add	x3, sp, #0x14
/home/ssysarch/Desktop/nick/jetpack_5/Jetson_Linux_R35.4.1_aarch64/Linux_for_Tegra/sources/tegra/optee-src/nv-optee/optee/optee_os/ldelf/ta_elf.c:359 (discriminator 1)
    17f0:	eb0a011f 	cmp	x8, x10
    17f4:	54000121 	b.ne	1818 <save_soname_from_segment+0x74>  // b.any
/home/ssysarch/Desktop/nick/jetpack_5/Jetson_Linux_R35.4.1_aarch64/Linux_for_Tegra/sources/tegra/optee-src/nv-optee/optee/optee_os/ldelf/ta_elf.c:346
    17f8:	d2800008 	mov	x8, #0x0                   	// #0
    17fc:	14000011 	b	1840 <save_soname_from_segment+0x9c>
/home/ssysarch/Desktop/nick/jetpack_5/Jetson_Linux_R35.4.1_aarch64/Linux_for_Tegra/sources/tegra/optee-src/nv-optee/optee/optee_os/ldelf/ta_elf.c:356 (discriminator 1)
    1800:	d0000022 	adrp	x2, 7000 <trace_ext_prefix+0x509>
    1804:	910bf042 	add	x2, x2, #0x2fc
    1808:	b0000020 	adrp	x0, 6000 <kprintf.constprop.0+0x4c8>
    180c:	91320000 	add	x0, x0, #0xc80
    1810:	52802c81 	mov	w1, #0x164                 	// #356
    1814:	97fffd7d 	bl	e08 <_assert_trap.constprop.0>
/home/ssysarch/Desktop/nick/jetpack_5/Jetson_Linux_R35.4.1_aarch64/Linux_for_Tegra/sources/tegra/optee-src/nv-optee/optee/optee_os/ldelf/ta_elf.c:360
    1818:	aa0703e0 	mov	x0, x7
    181c:	aa0803e2 	mov	x2, x8
    1820:	aa0903e1 	mov	x1, x9
    1824:	97fffcbf 	bl	b20 <read_dyn>
/home/ssysarch/Desktop/nick/jetpack_5/Jetson_Linux_R35.4.1_aarch64/Linux_for_Tegra/sources/tegra/optee-src/nv-optee/optee/optee_os/ldelf/ta_elf.c:361
    1828:	b94017e0 	ldr	w0, [sp, #20]
    182c:	7100141f 	cmp	w0, #0x5
    1830:	54000281 	b.ne	1880 <save_soname_from_segment+0xdc>  // b.any
/home/ssysarch/Desktop/nick/jetpack_5/Jetson_Linux_R35.4.1_aarch64/Linux_for_Tegra/sources/tegra/optee-src/nv-optee/optee/optee_os/ldelf/ta_elf.c:362
    1834:	f94004e8 	ldr	x8, [x7, #8]
    1838:	f9400fe0 	ldr	x0, [sp, #24]
    183c:	8b000108 	add	x8, x8, x0
/home/ssysarch/Desktop/nick/jetpack_5/Jetson_Linux_R35.4.1_aarch64/Linux_for_Tegra/sources/tegra/optee-src/nv-optee/optee/optee_os/ldelf/ta_elf.c:367
    1840:	910063e4 	add	x4, sp, #0x18
    1844:	910053e3 	add	x3, sp, #0x14
/home/ssysarch/Desktop/nick/jetpack_5/Jetson_Linux_R35.4.1_aarch64/Linux_for_Tegra/sources/tegra/optee-src/nv-optee/optee/optee_os/ldelf/ta_elf.c:366 (discriminator 1)
    1848:	eb0a00df 	cmp	x6, x10
    184c:	54000160 	b.eq	1878 <save_soname_from_segment+0xd4>  // b.none
/home/ssysarch/Desktop/nick/jetpack_5/Jetson_Linux_R35.4.1_aarch64/Linux_for_Tegra/sources/tegra/optee-src/nv-optee/optee/optee_os/ldelf/ta_elf.c:367
    1850:	aa0703e0 	mov	x0, x7
    1854:	aa0603e2 	mov	x2, x6
    1858:	aa0903e1 	mov	x1, x9
    185c:	97fffcb1 	bl	b20 <read_dyn>
/home/ssysarch/Desktop/nick/jetpack_5/Jetson_Linux_R35.4.1_aarch64/Linux_for_Tegra/sources/tegra/optee-src/nv-optee/optee/optee_os/ldelf/ta_elf.c:368
    1860:	b94017e0 	ldr	w0, [sp, #20]
    1864:	7100381f 	cmp	w0, #0xe
    1868:	54000101 	b.ne	1888 <save_soname_from_segment+0xe4>  // b.any
/home/ssysarch/Desktop/nick/jetpack_5/Jetson_Linux_R35.4.1_aarch64/Linux_for_Tegra/sources/tegra/optee-src/nv-optee/optee/optee_os/ldelf/ta_elf.c:369
    186c:	f9400fe0 	ldr	x0, [sp, #24]
    1870:	8b000108 	add	x8, x8, x0
    1874:	f9004ce8 	str	x8, [x7, #152]
/home/ssysarch/Desktop/nick/jetpack_5/Jetson_Linux_R35.4.1_aarch64/Linux_for_Tegra/sources/tegra/optee-src/nv-optee/optee/optee_os/ldelf/ta_elf.c:373
    1878:	a8c27bfd 	ldp	x29, x30, [sp], #32
    187c:	d65f03c0 	ret
/home/ssysarch/Desktop/nick/jetpack_5/Jetson_Linux_R35.4.1_aarch64/Linux_for_Tegra/sources/tegra/optee-src/nv-optee/optee/optee_os/ldelf/ta_elf.c:359 (discriminator 2)
    1880:	91000508 	add	x8, x8, #0x1
    1884:	17ffffdb 	b	17f0 <save_soname_from_segment+0x4c>
/home/ssysarch/Desktop/nick/jetpack_5/Jetson_Linux_R35.4.1_aarch64/Linux_for_Tegra/sources/tegra/optee-src/nv-optee/optee/optee_os/ldelf/ta_elf.c:366 (discriminator 2)
    1888:	910004c6 	add	x6, x6, #0x1
    188c:	17ffffef 	b	1848 <save_soname_from_segment+0xa4>

0000000000001890 <save_symtab>:
save_symtab():
/home/ssysarch/Desktop/nick/jetpack_5/Jetson_Linux_R35.4.1_aarch64/Linux_for_Tegra/sources/tegra/optee-src/nv-optee/optee/optee_os/ldelf/ta_elf.c:449
    1890:	a9bd7bfd 	stp	x29, x30, [sp, #-48]!
    1894:	910003fd 	mov	x29, sp
    1898:	b9404402 	ldr	w2, [x0, #68]
    189c:	a90153f3 	stp	x19, x20, [sp, #16]
    18a0:	aa0003f3 	mov	x19, x0
    18a4:	a9025bf5 	stp	x21, x22, [sp, #32]
    18a8:	f9402c15 	ldr	x21, [x0, #88]
/home/ssysarch/Desktop/nick/jetpack_5/Jetson_Linux_R35.4.1_aarch64/Linux_for_Tegra/sources/tegra/optee-src/nv-optee/optee/optee_os/ldelf/ta_elf.c:452
    18ac:	39400400 	ldrb	w0, [x0, #1]
    18b0:	35000340 	cbnz	w0, 1918 <save_symtab+0x88>
    18b4:	aa1503e0 	mov	x0, x21
/home/ssysarch/Desktop/nick/jetpack_5/Jetson_Linux_R35.4.1_aarch64/Linux_for_Tegra/sources/tegra/optee-src/nv-optee/optee/optee_os/ldelf/ta_elf.c:464
    18b8:	d2800001 	mov	x1, #0x0                   	// #0
/home/ssysarch/Desktop/nick/jetpack_5/Jetson_Linux_R35.4.1_aarch64/Linux_for_Tegra/sources/tegra/optee-src/nv-optee/optee/optee_os/ldelf/ta_elf.c:464 (discriminator 1)
    18bc:	eb02003f 	cmp	x1, x2
    18c0:	54000e42 	b.cs	1a88 <save_symtab+0x1f8>  // b.hs, b.nlast
/home/ssysarch/Desktop/nick/jetpack_5/Jetson_Linux_R35.4.1_aarch64/Linux_for_Tegra/sources/tegra/optee-src/nv-optee/optee/optee_os/ldelf/ta_elf.c:465
    18c4:	aa0003f6 	mov	x22, x0
    18c8:	91010000 	add	x0, x0, #0x40
    18cc:	b85c4003 	ldur	w3, [x0, #-60]
    18d0:	71002c7f 	cmp	w3, #0xb
    18d4:	54001541 	b.ne	1b7c <save_symtab+0x2ec>  // b.any
e64_save_symtab():
/home/ssysarch/Desktop/nick/jetpack_5/Jetson_Linux_R35.4.1_aarch64/Linux_for_Tegra/sources/tegra/optee-src/nv-optee/optee/optee_os/ldelf/ta_elf.c:425
    18d8:	f9400665 	ldr	x5, [x19, #8]
    18dc:	f9400ac2 	ldr	x2, [x22, #16]
/home/ssysarch/Desktop/nick/jetpack_5/Jetson_Linux_R35.4.1_aarch64/Linux_for_Tegra/sources/tegra/optee-src/nv-optee/optee/optee_os/ldelf/ta_elf.c:423
    18e0:	b9402ad4 	ldr	w20, [x22, #40]
/home/ssysarch/Desktop/nick/jetpack_5/Jetson_Linux_R35.4.1_aarch64/Linux_for_Tegra/sources/tegra/optee-src/nv-optee/optee/optee_os/ldelf/ta_elf.c:425
    18e4:	8b050042 	add	x2, x2, x5
    18e8:	f9003262 	str	x2, [x19, #96]
/home/ssysarch/Desktop/nick/jetpack_5/Jetson_Linux_R35.4.1_aarch64/Linux_for_Tegra/sources/tegra/optee-src/nv-optee/optee/optee_os/ldelf/ta_elf.c:428
    18ec:	f240085f 	tst	x2, #0x7
    18f0:	54000f40 	b.eq	1ad8 <save_symtab+0x248>  // b.none
/home/ssysarch/Desktop/nick/jetpack_5/Jetson_Linux_R35.4.1_aarch64/Linux_for_Tegra/sources/tegra/optee-src/nv-optee/optee/optee_os/ldelf/ta_elf.c:429
    18f4:	aa0203e5 	mov	x5, x2
    18f8:	b0000024 	adrp	x4, 6000 <kprintf.constprop.0+0x4c8>
    18fc:	91394c84 	add	x4, x4, #0xe53
    1900:	d0000020 	adrp	x0, 7000 <trace_ext_prefix+0x509>
    1904:	910c9400 	add	x0, x0, #0x325
    1908:	52800023 	mov	w3, #0x1                   	// #1
    190c:	52800022 	mov	w2, #0x1                   	// #1
    1910:	528035a1 	mov	w1, #0x1ad                 	// #429
    1914:	1400002f 	b	19d0 <save_symtab+0x140>
    1918:	aa1503e0 	mov	x0, x21
save_symtab():
/home/ssysarch/Desktop/nick/jetpack_5/Jetson_Linux_R35.4.1_aarch64/Linux_for_Tegra/sources/tegra/optee-src/nv-optee/optee/optee_os/ldelf/ta_elf.c:455
    191c:	d2800001 	mov	x1, #0x0                   	// #0
/home/ssysarch/Desktop/nick/jetpack_5/Jetson_Linux_R35.4.1_aarch64/Linux_for_Tegra/sources/tegra/optee-src/nv-optee/optee/optee_os/ldelf/ta_elf.c:455 (discriminator 1)
    1920:	eb02003f 	cmp	x1, x2
    1924:	540002e3 	b.cc	1980 <save_symtab+0xf0>  // b.lo, b.ul, b.last
save_hashtab():
/home/ssysarch/Desktop/nick/jetpack_5/Jetson_Linux_R35.4.1_aarch64/Linux_for_Tegra/sources/tegra/optee-src/nv-optee/optee/optee_os/ldelf/ta_elf.c:302
    1928:	f9402e60 	ldr	x0, [x19, #88]
/home/ssysarch/Desktop/nick/jetpack_5/Jetson_Linux_R35.4.1_aarch64/Linux_for_Tegra/sources/tegra/optee-src/nv-optee/optee/optee_os/ldelf/ta_elf.c:308
    192c:	529ffec5 	mov	w5, #0xfff6                	// #65526
    1930:	72adffe5 	movk	w5, #0x6fff, lsl #16
/home/ssysarch/Desktop/nick/jetpack_5/Jetson_Linux_R35.4.1_aarch64/Linux_for_Tegra/sources/tegra/optee-src/nv-optee/optee/optee_os/ldelf/ta_elf.c:302
    1934:	b9404664 	ldr	w4, [x19, #68]
    1938:	91001000 	add	x0, x0, #0x4
    193c:	d2800002 	mov	x2, #0x0                   	// #0
    1940:	eb04005f 	cmp	x2, x4
    1944:	54001203 	b.cc	1b84 <save_symtab+0x2f4>  // b.lo, b.ul, b.last
/home/ssysarch/Desktop/nick/jetpack_5/Jetson_Linux_R35.4.1_aarch64/Linux_for_Tegra/sources/tegra/optee-src/nv-optee/optee/optee_os/ldelf/ta_elf.c:329
    1948:	f9404261 	ldr	x1, [x19, #128]
    194c:	b5001481 	cbnz	x1, 1bdc <save_symtab+0x34c>
/home/ssysarch/Desktop/nick/jetpack_5/Jetson_Linux_R35.4.1_aarch64/Linux_for_Tegra/sources/tegra/optee-src/nv-optee/optee/optee_os/ldelf/ta_elf.c:334
    1950:	f9404665 	ldr	x5, [x19, #136]
    1954:	b40018e5 	cbz	x5, 1c70 <save_symtab+0x3e0>
check_gnu_hashtab():
/home/ssysarch/Desktop/nick/jetpack_5/Jetson_Linux_R35.4.1_aarch64/Linux_for_Tegra/sources/tegra/optee-src/nv-optee/optee/optee_os/ldelf/ta_elf.c:274
    1958:	f24004bf 	tst	x5, #0x3
    195c:	54001520 	b.eq	1c00 <save_symtab+0x370>  // b.none
/home/ssysarch/Desktop/nick/jetpack_5/Jetson_Linux_R35.4.1_aarch64/Linux_for_Tegra/sources/tegra/optee-src/nv-optee/optee/optee_os/ldelf/ta_elf.c:275
    1960:	b0000024 	adrp	x4, 6000 <kprintf.constprop.0+0x4c8>
    1964:	913bdc84 	add	x4, x4, #0xef7
    1968:	d0000020 	adrp	x0, 7000 <trace_ext_prefix+0x509>
    196c:	910ba800 	add	x0, x0, #0x2ea
    1970:	52800023 	mov	w3, #0x1                   	// #1
    1974:	52800022 	mov	w2, #0x1                   	// #1
    1978:	52802261 	mov	w1, #0x113                 	// #275
    197c:	14000015 	b	19d0 <save_symtab+0x140>
save_symtab():
/home/ssysarch/Desktop/nick/jetpack_5/Jetson_Linux_R35.4.1_aarch64/Linux_for_Tegra/sources/tegra/optee-src/nv-optee/optee/optee_os/ldelf/ta_elf.c:456
    1980:	aa0003f6 	mov	x22, x0
    1984:	9100a000 	add	x0, x0, #0x28
    1988:	b85dc003 	ldur	w3, [x0, #-36]
    198c:	71002c7f 	cmp	w3, #0xb
    1990:	54000a01 	b.ne	1ad0 <save_symtab+0x240>  // b.any
e32_save_symtab():
/home/ssysarch/Desktop/nick/jetpack_5/Jetson_Linux_R35.4.1_aarch64/Linux_for_Tegra/sources/tegra/optee-src/nv-optee/optee/optee_os/ldelf/ta_elf.c:401
    1994:	f9400665 	ldr	x5, [x19, #8]
    1998:	b9400ec2 	ldr	w2, [x22, #12]
/home/ssysarch/Desktop/nick/jetpack_5/Jetson_Linux_R35.4.1_aarch64/Linux_for_Tegra/sources/tegra/optee-src/nv-optee/optee/optee_os/ldelf/ta_elf.c:399
    199c:	b9401ad4 	ldr	w20, [x22, #24]
/home/ssysarch/Desktop/nick/jetpack_5/Jetson_Linux_R35.4.1_aarch64/Linux_for_Tegra/sources/tegra/optee-src/nv-optee/optee/optee_os/ldelf/ta_elf.c:401
    19a0:	8b050042 	add	x2, x2, x5
    19a4:	f9003262 	str	x2, [x19, #96]
/home/ssysarch/Desktop/nick/jetpack_5/Jetson_Linux_R35.4.1_aarch64/Linux_for_Tegra/sources/tegra/optee-src/nv-optee/optee/optee_os/ldelf/ta_elf.c:402
    19a8:	f240045f 	tst	x2, #0x3
    19ac:	54000160 	b.eq	19d8 <save_symtab+0x148>  // b.none
/home/ssysarch/Desktop/nick/jetpack_5/Jetson_Linux_R35.4.1_aarch64/Linux_for_Tegra/sources/tegra/optee-src/nv-optee/optee/optee_os/ldelf/ta_elf.c:403
    19b0:	b0000024 	adrp	x4, 6000 <kprintf.constprop.0+0x4c8>
    19b4:	91373884 	add	x4, x4, #0xdce
    19b8:	d0000020 	adrp	x0, 7000 <trace_ext_prefix+0x509>
    19bc:	910c5400 	add	x0, x0, #0x315
    19c0:	aa0203e5 	mov	x5, x2
    19c4:	52800023 	mov	w3, #0x1                   	// #1
    19c8:	52800022 	mov	w2, #0x1                   	// #1
    19cc:	52803261 	mov	w1, #0x193                 	// #403
check_gnu_hashtab():
/home/ssysarch/Desktop/nick/jetpack_5/Jetson_Linux_R35.4.1_aarch64/Linux_for_Tegra/sources/tegra/optee-src/nv-optee/optee/optee_os/ldelf/ta_elf.c:275
    19d0:	940013bf 	bl	68cc <trace_printf>
    19d4:	14000011 	b	1a18 <save_symtab+0x188>
e32_save_symtab():
/home/ssysarch/Desktop/nick/jetpack_5/Jetson_Linux_R35.4.1_aarch64/Linux_for_Tegra/sources/tegra/optee-src/nv-optee/optee/optee_os/ldelf/ta_elf.c:405
    19d8:	b94016c3 	ldr	w3, [x22, #20]
    19dc:	aa1303e0 	mov	x0, x19
    19e0:	b0000021 	adrp	x1, 6000 <kprintf.constprop.0+0x4c8>
    19e4:	9137b021 	add	x1, x1, #0xdec
    19e8:	97fffc5f 	bl	b64 <check_range>
/home/ssysarch/Desktop/nick/jetpack_5/Jetson_Linux_R35.4.1_aarch64/Linux_for_Tegra/sources/tegra/optee-src/nv-optee/optee/optee_os/ldelf/ta_elf.c:407
    19ec:	b94016c0 	ldr	w0, [x22, #20]
    19f0:	f2400c1f 	tst	x0, #0xf
    19f4:	54000160 	b.eq	1a20 <save_symtab+0x190>  // b.none
/home/ssysarch/Desktop/nick/jetpack_5/Jetson_Linux_R35.4.1_aarch64/Linux_for_Tegra/sources/tegra/optee-src/nv-optee/optee/optee_os/ldelf/ta_elf.c:408
    19f8:	b0000024 	adrp	x4, 6000 <kprintf.constprop.0+0x4c8>
    19fc:	9137d884 	add	x4, x4, #0xdf6
    1a00:	52800023 	mov	w3, #0x1                   	// #1
    1a04:	52800022 	mov	w2, #0x1                   	// #1
    1a08:	52803301 	mov	w1, #0x198                 	// #408
    1a0c:	d0000020 	adrp	x0, 7000 <trace_ext_prefix+0x509>
    1a10:	910c5400 	add	x0, x0, #0x315
    1a14:	940013ae 	bl	68cc <trace_printf>
    1a18:	129fff40 	mov	w0, #0xffff0005            	// #-65531
    1a1c:	97fff9d3 	bl	168 <_ldelf_return>
/home/ssysarch/Desktop/nick/jetpack_5/Jetson_Linux_R35.4.1_aarch64/Linux_for_Tegra/sources/tegra/optee-src/nv-optee/optee/optee_os/ldelf/ta_elf.c:410
    1a20:	53047c00 	lsr	w0, w0, #4
    1a24:	f9003660 	str	x0, [x19, #104]
/home/ssysarch/Desktop/nick/jetpack_5/Jetson_Linux_R35.4.1_aarch64/Linux_for_Tegra/sources/tegra/optee-src/nv-optee/optee/optee_os/ldelf/ta_elf.c:412
    1a28:	b9404660 	ldr	w0, [x19, #68]
    1a2c:	6b00029f 	cmp	w20, w0
    1a30:	540000e3 	b.cc	1a4c <save_symtab+0x1bc>  // b.lo, b.ul, b.last
/home/ssysarch/Desktop/nick/jetpack_5/Jetson_Linux_R35.4.1_aarch64/Linux_for_Tegra/sources/tegra/optee-src/nv-optee/optee/optee_os/ldelf/ta_elf.c:413
    1a34:	b0000024 	adrp	x4, 6000 <kprintf.constprop.0+0x4c8>
    1a38:	9138a884 	add	x4, x4, #0xe2a
    1a3c:	52800023 	mov	w3, #0x1                   	// #1
    1a40:	52800022 	mov	w2, #0x1                   	// #1
    1a44:	528033a1 	mov	w1, #0x19d                 	// #413
    1a48:	17fffff1 	b	1a0c <save_symtab+0x17c>
/home/ssysarch/Desktop/nick/jetpack_5/Jetson_Linux_R35.4.1_aarch64/Linux_for_Tegra/sources/tegra/optee-src/nv-optee/optee/optee_os/ldelf/ta_elf.c:414
    1a4c:	52800500 	mov	w0, #0x28                  	// #40
/home/ssysarch/Desktop/nick/jetpack_5/Jetson_Linux_R35.4.1_aarch64/Linux_for_Tegra/sources/tegra/optee-src/nv-optee/optee/optee_os/ldelf/ta_elf.c:415
    1a50:	b0000021 	adrp	x1, 6000 <kprintf.constprop.0+0x4c8>
    1a54:	91393021 	add	x1, x1, #0xe4c
/home/ssysarch/Desktop/nick/jetpack_5/Jetson_Linux_R35.4.1_aarch64/Linux_for_Tegra/sources/tegra/optee-src/nv-optee/optee/optee_os/ldelf/ta_elf.c:414
    1a58:	9ba05694 	umaddl	x20, w20, w0, x21
    1a5c:	f9400660 	ldr	x0, [x19, #8]
    1a60:	b9400e82 	ldr	w2, [x20, #12]
/home/ssysarch/Desktop/nick/jetpack_5/Jetson_Linux_R35.4.1_aarch64/Linux_for_Tegra/sources/tegra/optee-src/nv-optee/optee/optee_os/ldelf/ta_elf.c:415
    1a64:	b9401683 	ldr	w3, [x20, #20]
/home/ssysarch/Desktop/nick/jetpack_5/Jetson_Linux_R35.4.1_aarch64/Linux_for_Tegra/sources/tegra/optee-src/nv-optee/optee/optee_os/ldelf/ta_elf.c:414
    1a68:	8b000042 	add	x2, x2, x0
    1a6c:	f9003a62 	str	x2, [x19, #112]
/home/ssysarch/Desktop/nick/jetpack_5/Jetson_Linux_R35.4.1_aarch64/Linux_for_Tegra/sources/tegra/optee-src/nv-optee/optee/optee_os/ldelf/ta_elf.c:415
    1a70:	aa1303e0 	mov	x0, x19
    1a74:	97fffc3c 	bl	b64 <check_range>
/home/ssysarch/Desktop/nick/jetpack_5/Jetson_Linux_R35.4.1_aarch64/Linux_for_Tegra/sources/tegra/optee-src/nv-optee/optee/optee_os/ldelf/ta_elf.c:417
    1a78:	b9401680 	ldr	w0, [x20, #20]
e64_save_symtab():
/home/ssysarch/Desktop/nick/jetpack_5/Jetson_Linux_R35.4.1_aarch64/Linux_for_Tegra/sources/tegra/optee-src/nv-optee/optee/optee_os/ldelf/ta_elf.c:445
    1a7c:	f9003e60 	str	x0, [x19, #120]
save_hashtab():
/home/ssysarch/Desktop/nick/jetpack_5/Jetson_Linux_R35.4.1_aarch64/Linux_for_Tegra/sources/tegra/optee-src/nv-optee/optee/optee_os/ldelf/ta_elf.c:299
    1a80:	39400660 	ldrb	w0, [x19, #1]
    1a84:	35fff520 	cbnz	w0, 1928 <save_symtab+0x98>
/home/ssysarch/Desktop/nick/jetpack_5/Jetson_Linux_R35.4.1_aarch64/Linux_for_Tegra/sources/tegra/optee-src/nv-optee/optee/optee_os/ldelf/ta_elf.c:316
    1a88:	f9402e60 	ldr	x0, [x19, #88]
/home/ssysarch/Desktop/nick/jetpack_5/Jetson_Linux_R35.4.1_aarch64/Linux_for_Tegra/sources/tegra/optee-src/nv-optee/optee/optee_os/ldelf/ta_elf.c:322
    1a8c:	529ffec5 	mov	w5, #0xfff6                	// #65526
    1a90:	72adffe5 	movk	w5, #0x6fff, lsl #16
/home/ssysarch/Desktop/nick/jetpack_5/Jetson_Linux_R35.4.1_aarch64/Linux_for_Tegra/sources/tegra/optee-src/nv-optee/optee/optee_os/ldelf/ta_elf.c:316
    1a94:	b9404664 	ldr	w4, [x19, #68]
    1a98:	91001000 	add	x0, x0, #0x4
    1a9c:	d2800002 	mov	x2, #0x0                   	// #0
    1aa0:	eb04005f 	cmp	x2, x4
    1aa4:	54fff522 	b.cs	1948 <save_symtab+0xb8>  // b.hs, b.nlast
/home/ssysarch/Desktop/nick/jetpack_5/Jetson_Linux_R35.4.1_aarch64/Linux_for_Tegra/sources/tegra/optee-src/nv-optee/optee/optee_os/ldelf/ta_elf.c:317
    1aa8:	f9400663 	ldr	x3, [x19, #8]
    1aac:	f840c001 	ldur	x1, [x0, #12]
    1ab0:	8b030021 	add	x1, x1, x3
/home/ssysarch/Desktop/nick/jetpack_5/Jetson_Linux_R35.4.1_aarch64/Linux_for_Tegra/sources/tegra/optee-src/nv-optee/optee/optee_os/ldelf/ta_elf.c:320
    1ab4:	b9400003 	ldr	w3, [x0]
    1ab8:	7100147f 	cmp	w3, #0x5
    1abc:	54000841 	b.ne	1bc4 <save_symtab+0x334>  // b.any
/home/ssysarch/Desktop/nick/jetpack_5/Jetson_Linux_R35.4.1_aarch64/Linux_for_Tegra/sources/tegra/optee-src/nv-optee/optee/optee_os/ldelf/ta_elf.c:321
    1ac0:	f9004261 	str	x1, [x19, #128]
/home/ssysarch/Desktop/nick/jetpack_5/Jetson_Linux_R35.4.1_aarch64/Linux_for_Tegra/sources/tegra/optee-src/nv-optee/optee/optee_os/ldelf/ta_elf.c:316
    1ac4:	91000442 	add	x2, x2, #0x1
    1ac8:	91010000 	add	x0, x0, #0x40
    1acc:	17fffff5 	b	1aa0 <save_symtab+0x210>
save_symtab():
/home/ssysarch/Desktop/nick/jetpack_5/Jetson_Linux_R35.4.1_aarch64/Linux_for_Tegra/sources/tegra/optee-src/nv-optee/optee/optee_os/ldelf/ta_elf.c:455 (discriminator 2)
    1ad0:	91000421 	add	x1, x1, #0x1
    1ad4:	17ffff93 	b	1920 <save_symtab+0x90>
e64_save_symtab():
/home/ssysarch/Desktop/nick/jetpack_5/Jetson_Linux_R35.4.1_aarch64/Linux_for_Tegra/sources/tegra/optee-src/nv-optee/optee/optee_os/ldelf/ta_elf.c:431
    1ad8:	f94012c3 	ldr	x3, [x22, #32]
    1adc:	aa1303e0 	mov	x0, x19
    1ae0:	b0000021 	adrp	x1, 6000 <kprintf.constprop.0+0x4c8>
    1ae4:	9139d821 	add	x1, x1, #0xe76
    1ae8:	97fffc1f 	bl	b64 <check_range>
/home/ssysarch/Desktop/nick/jetpack_5/Jetson_Linux_R35.4.1_aarch64/Linux_for_Tegra/sources/tegra/optee-src/nv-optee/optee/optee_os/ldelf/ta_elf.c:434
    1aec:	f94012c2 	ldr	x2, [x22, #32]
    1af0:	d2800300 	mov	x0, #0x18                  	// #24
    1af4:	9ac00841 	udiv	x1, x2, x0
    1af8:	9b008820 	msub	x0, x1, x0, x2
    1afc:	b4000120 	cbz	x0, 1b20 <save_symtab+0x290>
/home/ssysarch/Desktop/nick/jetpack_5/Jetson_Linux_R35.4.1_aarch64/Linux_for_Tegra/sources/tegra/optee-src/nv-optee/optee/optee_os/ldelf/ta_elf.c:435
    1b00:	b0000024 	adrp	x4, 6000 <kprintf.constprop.0+0x4c8>
    1b04:	913a1484 	add	x4, x4, #0xe85
    1b08:	52800023 	mov	w3, #0x1                   	// #1
    1b0c:	52800022 	mov	w2, #0x1                   	// #1
    1b10:	52803661 	mov	w1, #0x1b3                 	// #435
/home/ssysarch/Desktop/nick/jetpack_5/Jetson_Linux_R35.4.1_aarch64/Linux_for_Tegra/sources/tegra/optee-src/nv-optee/optee/optee_os/ldelf/ta_elf.c:440
    1b14:	d0000020 	adrp	x0, 7000 <trace_ext_prefix+0x509>
    1b18:	910c9400 	add	x0, x0, #0x325
    1b1c:	17ffffbe 	b	1a14 <save_symtab+0x184>
/home/ssysarch/Desktop/nick/jetpack_5/Jetson_Linux_R35.4.1_aarch64/Linux_for_Tegra/sources/tegra/optee-src/nv-optee/optee/optee_os/ldelf/ta_elf.c:439
    1b20:	b9404660 	ldr	w0, [x19, #68]
/home/ssysarch/Desktop/nick/jetpack_5/Jetson_Linux_R35.4.1_aarch64/Linux_for_Tegra/sources/tegra/optee-src/nv-optee/optee/optee_os/ldelf/ta_elf.c:437
    1b24:	f9003661 	str	x1, [x19, #104]
/home/ssysarch/Desktop/nick/jetpack_5/Jetson_Linux_R35.4.1_aarch64/Linux_for_Tegra/sources/tegra/optee-src/nv-optee/optee/optee_os/ldelf/ta_elf.c:439
    1b28:	6b00029f 	cmp	w20, w0
    1b2c:	540000e3 	b.cc	1b48 <save_symtab+0x2b8>  // b.lo, b.ul, b.last
/home/ssysarch/Desktop/nick/jetpack_5/Jetson_Linux_R35.4.1_aarch64/Linux_for_Tegra/sources/tegra/optee-src/nv-optee/optee/optee_os/ldelf/ta_elf.c:440
    1b30:	b0000024 	adrp	x4, 6000 <kprintf.constprop.0+0x4c8>
    1b34:	913af884 	add	x4, x4, #0xebe
    1b38:	52800023 	mov	w3, #0x1                   	// #1
    1b3c:	52800022 	mov	w2, #0x1                   	// #1
    1b40:	52803701 	mov	w1, #0x1b8                 	// #440
    1b44:	17fffff4 	b	1b14 <save_symtab+0x284>
/home/ssysarch/Desktop/nick/jetpack_5/Jetson_Linux_R35.4.1_aarch64/Linux_for_Tegra/sources/tegra/optee-src/nv-optee/optee/optee_os/ldelf/ta_elf.c:442
    1b48:	d37a7e94 	ubfiz	x20, x20, #6, #32
/home/ssysarch/Desktop/nick/jetpack_5/Jetson_Linux_R35.4.1_aarch64/Linux_for_Tegra/sources/tegra/optee-src/nv-optee/optee/optee_os/ldelf/ta_elf.c:443
    1b4c:	b0000021 	adrp	x1, 6000 <kprintf.constprop.0+0x4c8>
    1b50:	913ba021 	add	x1, x1, #0xee8
/home/ssysarch/Desktop/nick/jetpack_5/Jetson_Linux_R35.4.1_aarch64/Linux_for_Tegra/sources/tegra/optee-src/nv-optee/optee/optee_os/ldelf/ta_elf.c:442
    1b54:	8b1402b4 	add	x20, x21, x20
    1b58:	f9400660 	ldr	x0, [x19, #8]
    1b5c:	f9400a82 	ldr	x2, [x20, #16]
/home/ssysarch/Desktop/nick/jetpack_5/Jetson_Linux_R35.4.1_aarch64/Linux_for_Tegra/sources/tegra/optee-src/nv-optee/optee/optee_os/ldelf/ta_elf.c:443
    1b60:	f9401283 	ldr	x3, [x20, #32]
/home/ssysarch/Desktop/nick/jetpack_5/Jetson_Linux_R35.4.1_aarch64/Linux_for_Tegra/sources/tegra/optee-src/nv-optee/optee/optee_os/ldelf/ta_elf.c:442
    1b64:	8b000042 	add	x2, x2, x0
    1b68:	f9003a62 	str	x2, [x19, #112]
/home/ssysarch/Desktop/nick/jetpack_5/Jetson_Linux_R35.4.1_aarch64/Linux_for_Tegra/sources/tegra/optee-src/nv-optee/optee/optee_os/ldelf/ta_elf.c:443
    1b6c:	aa1303e0 	mov	x0, x19
    1b70:	97fffbfd 	bl	b64 <check_range>
/home/ssysarch/Desktop/nick/jetpack_5/Jetson_Linux_R35.4.1_aarch64/Linux_for_Tegra/sources/tegra/optee-src/nv-optee/optee/optee_os/ldelf/ta_elf.c:445
    1b74:	f9401280 	ldr	x0, [x20, #32]
    1b78:	17ffffc1 	b	1a7c <save_symtab+0x1ec>
save_symtab():
/home/ssysarch/Desktop/nick/jetpack_5/Jetson_Linux_R35.4.1_aarch64/Linux_for_Tegra/sources/tegra/optee-src/nv-optee/optee/optee_os/ldelf/ta_elf.c:464 (discriminator 2)
    1b7c:	91000421 	add	x1, x1, #0x1
    1b80:	17ffff4f 	b	18bc <save_symtab+0x2c>
save_hashtab():
/home/ssysarch/Desktop/nick/jetpack_5/Jetson_Linux_R35.4.1_aarch64/Linux_for_Tegra/sources/tegra/optee-src/nv-optee/optee/optee_os/ldelf/ta_elf.c:303
    1b84:	f9400663 	ldr	x3, [x19, #8]
    1b88:	b9400801 	ldr	w1, [x0, #8]
    1b8c:	8b030021 	add	x1, x1, x3
/home/ssysarch/Desktop/nick/jetpack_5/Jetson_Linux_R35.4.1_aarch64/Linux_for_Tegra/sources/tegra/optee-src/nv-optee/optee/optee_os/ldelf/ta_elf.c:306
    1b90:	b9400003 	ldr	w3, [x0]
    1b94:	7100147f 	cmp	w3, #0x5
    1b98:	540000a1 	b.ne	1bac <save_symtab+0x31c>  // b.any
/home/ssysarch/Desktop/nick/jetpack_5/Jetson_Linux_R35.4.1_aarch64/Linux_for_Tegra/sources/tegra/optee-src/nv-optee/optee/optee_os/ldelf/ta_elf.c:307
    1b9c:	f9004261 	str	x1, [x19, #128]
/home/ssysarch/Desktop/nick/jetpack_5/Jetson_Linux_R35.4.1_aarch64/Linux_for_Tegra/sources/tegra/optee-src/nv-optee/optee/optee_os/ldelf/ta_elf.c:302
    1ba0:	91000442 	add	x2, x2, #0x1
    1ba4:	9100a000 	add	x0, x0, #0x28
    1ba8:	17ffff66 	b	1940 <save_symtab+0xb0>
/home/ssysarch/Desktop/nick/jetpack_5/Jetson_Linux_R35.4.1_aarch64/Linux_for_Tegra/sources/tegra/optee-src/nv-optee/optee/optee_os/ldelf/ta_elf.c:308
    1bac:	6b05007f 	cmp	w3, w5
    1bb0:	54ffff81 	b.ne	1ba0 <save_symtab+0x310>  // b.any
/home/ssysarch/Desktop/nick/jetpack_5/Jetson_Linux_R35.4.1_aarch64/Linux_for_Tegra/sources/tegra/optee-src/nv-optee/optee/optee_os/ldelf/ta_elf.c:309
    1bb4:	f9004661 	str	x1, [x19, #136]
/home/ssysarch/Desktop/nick/jetpack_5/Jetson_Linux_R35.4.1_aarch64/Linux_for_Tegra/sources/tegra/optee-src/nv-optee/optee/optee_os/ldelf/ta_elf.c:310
    1bb8:	b9401001 	ldr	w1, [x0, #16]
    1bbc:	f9004a61 	str	x1, [x19, #144]
    1bc0:	17fffff8 	b	1ba0 <save_symtab+0x310>
/home/ssysarch/Desktop/nick/jetpack_5/Jetson_Linux_R35.4.1_aarch64/Linux_for_Tegra/sources/tegra/optee-src/nv-optee/optee/optee_os/ldelf/ta_elf.c:322
    1bc4:	6b05007f 	cmp	w3, w5
    1bc8:	54fff7e1 	b.ne	1ac4 <save_symtab+0x234>  // b.any
/home/ssysarch/Desktop/nick/jetpack_5/Jetson_Linux_R35.4.1_aarch64/Linux_for_Tegra/sources/tegra/optee-src/nv-optee/optee/optee_os/ldelf/ta_elf.c:323
    1bcc:	f9004661 	str	x1, [x19, #136]
/home/ssysarch/Desktop/nick/jetpack_5/Jetson_Linux_R35.4.1_aarch64/Linux_for_Tegra/sources/tegra/optee-src/nv-optee/optee/optee_os/ldelf/ta_elf.c:324
    1bd0:	f841c001 	ldur	x1, [x0, #28]
    1bd4:	f9004a61 	str	x1, [x19, #144]
    1bd8:	17ffffbb 	b	1ac4 <save_symtab+0x234>
/home/ssysarch/Desktop/nick/jetpack_5/Jetson_Linux_R35.4.1_aarch64/Linux_for_Tegra/sources/tegra/optee-src/nv-optee/optee/optee_os/ldelf/ta_elf.c:330
    1bdc:	aa1303e0 	mov	x0, x19
    1be0:	d2800003 	mov	x3, #0x0                   	// #0
    1be4:	d2800002 	mov	x2, #0x0                   	// #0
    1be8:	97fffc09 	bl	c0c <check_hashtab>
/home/ssysarch/Desktop/nick/jetpack_5/Jetson_Linux_R35.4.1_aarch64/Linux_for_Tegra/sources/tegra/optee-src/nv-optee/optee/optee_os/ldelf/ta_elf.c:331
    1bec:	f9404261 	ldr	x1, [x19, #128]
/home/ssysarch/Desktop/nick/jetpack_5/Jetson_Linux_R35.4.1_aarch64/Linux_for_Tegra/sources/tegra/optee-src/nv-optee/optee/optee_os/ldelf/ta_elf.c:332
    1bf0:	aa1303e0 	mov	x0, x19
    1bf4:	29400c22 	ldp	w2, w3, [x1]
    1bf8:	97fffc05 	bl	c0c <check_hashtab>
    1bfc:	17ffff55 	b	1950 <save_symtab+0xc0>
check_gnu_hashtab():
/home/ssysarch/Desktop/nick/jetpack_5/Jetson_Linux_R35.4.1_aarch64/Linux_for_Tegra/sources/tegra/optee-src/nv-optee/optee/optee_os/ldelf/ta_elf.c:278
    1c00:	f9404a62 	ldr	x2, [x19, #144]
    1c04:	f1003c5f 	cmp	x2, #0xf
    1c08:	54000128 	b.hi	1c2c <save_symtab+0x39c>  // b.pmore
/home/ssysarch/Desktop/nick/jetpack_5/Jetson_Linux_R35.4.1_aarch64/Linux_for_Tegra/sources/tegra/optee-src/nv-optee/optee/optee_os/ldelf/ta_elf.c:279
    1c0c:	b0000024 	adrp	x4, 6000 <kprintf.constprop.0+0x4c8>
    1c10:	913c5c84 	add	x4, x4, #0xf17
    1c14:	52800023 	mov	w3, #0x1                   	// #1
    1c18:	52800022 	mov	w2, #0x1                   	// #1
    1c1c:	528022e1 	mov	w1, #0x117                 	// #279
/home/ssysarch/Desktop/nick/jetpack_5/Jetson_Linux_R35.4.1_aarch64/Linux_for_Tegra/sources/tegra/optee-src/nv-optee/optee/optee_os/ldelf/ta_elf.c:291
    1c20:	d0000020 	adrp	x0, 7000 <trace_ext_prefix+0x509>
    1c24:	910ba800 	add	x0, x0, #0x2ea
    1c28:	17ffff7b 	b	1a14 <save_symtab+0x184>
/home/ssysarch/Desktop/nick/jetpack_5/Jetson_Linux_R35.4.1_aarch64/Linux_for_Tegra/sources/tegra/optee-src/nv-optee/optee/optee_os/ldelf/ta_elf.c:283
    1c2c:	b94008a0 	ldr	w0, [x5, #8]
    1c30:	39400663 	ldrb	w3, [x19, #1]
/home/ssysarch/Desktop/nick/jetpack_5/Jetson_Linux_R35.4.1_aarch64/Linux_for_Tegra/sources/tegra/optee-src/nv-optee/optee/optee_os/ldelf/ta_elf.c:284
    1c34:	2a0003e1 	mov	w1, w0
    1c38:	7100007f 	cmp	w3, #0x0
    1c3c:	531f7800 	lsl	w0, w0, #1
    1c40:	9a810000 	csel	x0, x0, x1, eq  // eq = none
/home/ssysarch/Desktop/nick/jetpack_5/Jetson_Linux_R35.4.1_aarch64/Linux_for_Tegra/sources/tegra/optee-src/nv-optee/optee/optee_os/ldelf/ta_elf.c:287
    1c44:	b94000a1 	ldr	w1, [x5]
    1c48:	91001021 	add	x1, x1, #0x4
/home/ssysarch/Desktop/nick/jetpack_5/Jetson_Linux_R35.4.1_aarch64/Linux_for_Tegra/sources/tegra/optee-src/nv-optee/optee/optee_os/ldelf/ta_elf.c:288
    1c4c:	8b000020 	add	x0, x1, x0
/home/ssysarch/Desktop/nick/jetpack_5/Jetson_Linux_R35.4.1_aarch64/Linux_for_Tegra/sources/tegra/optee-src/nv-optee/optee/optee_os/ldelf/ta_elf.c:289
    1c50:	eb00085f 	cmp	x2, x0, lsl #2
    1c54:	540000e2 	b.cs	1c70 <save_symtab+0x3e0>  // b.hs, b.nlast
/home/ssysarch/Desktop/nick/jetpack_5/Jetson_Linux_R35.4.1_aarch64/Linux_for_Tegra/sources/tegra/optee-src/nv-optee/optee/optee_os/ldelf/ta_elf.c:291
    1c58:	b0000024 	adrp	x4, 6000 <kprintf.constprop.0+0x4c8>
    1c5c:	913cb484 	add	x4, x4, #0xf2d
    1c60:	52800023 	mov	w3, #0x1                   	// #1
    1c64:	52800022 	mov	w2, #0x1                   	// #1
    1c68:	52802461 	mov	w1, #0x123                 	// #291
    1c6c:	17ffffed 	b	1c20 <save_symtab+0x390>
save_soname():
/home/ssysarch/Desktop/nick/jetpack_5/Jetson_Linux_R35.4.1_aarch64/Linux_for_Tegra/sources/tegra/optee-src/nv-optee/optee/optee_os/ldelf/ta_elf.c:379
    1c70:	39400660 	ldrb	w0, [x19, #1]
/home/ssysarch/Desktop/nick/jetpack_5/Jetson_Linux_R35.4.1_aarch64/Linux_for_Tegra/sources/tegra/optee-src/nv-optee/optee/optee_os/ldelf/ta_elf.c:382
    1c74:	d2800015 	mov	x21, #0x0                   	// #0
    1c78:	f9402a74 	ldr	x20, [x19, #80]
/home/ssysarch/Desktop/nick/jetpack_5/Jetson_Linux_R35.4.1_aarch64/Linux_for_Tegra/sources/tegra/optee-src/nv-optee/optee/optee_os/ldelf/ta_elf.c:379
    1c7c:	35000220 	cbnz	w0, 1cc0 <save_symtab+0x430>
/home/ssysarch/Desktop/nick/jetpack_5/Jetson_Linux_R35.4.1_aarch64/Linux_for_Tegra/sources/tegra/optee-src/nv-optee/optee/optee_os/ldelf/ta_elf.c:389
    1c80:	b9404260 	ldr	w0, [x19, #64]
    1c84:	eb0002bf 	cmp	x21, x0
    1c88:	54000222 	b.cs	1ccc <save_symtab+0x43c>  // b.hs, b.nlast
/home/ssysarch/Desktop/nick/jetpack_5/Jetson_Linux_R35.4.1_aarch64/Linux_for_Tegra/sources/tegra/optee-src/nv-optee/optee/optee_os/ldelf/ta_elf.c:390
    1c8c:	f9400a82 	ldr	x2, [x20, #16]
    1c90:	aa1303e0 	mov	x0, x19
    1c94:	f9401683 	ldr	x3, [x20, #40]
/home/ssysarch/Desktop/nick/jetpack_5/Jetson_Linux_R35.4.1_aarch64/Linux_for_Tegra/sources/tegra/optee-src/nv-optee/optee/optee_os/ldelf/ta_elf.c:389
    1c98:	910006b5 	add	x21, x21, #0x1
/home/ssysarch/Desktop/nick/jetpack_5/Jetson_Linux_R35.4.1_aarch64/Linux_for_Tegra/sources/tegra/optee-src/nv-optee/optee/optee_os/ldelf/ta_elf.c:390
    1c9c:	b8438681 	ldr	w1, [x20], #56
    1ca0:	97fffec1 	bl	17a4 <save_soname_from_segment>
/home/ssysarch/Desktop/nick/jetpack_5/Jetson_Linux_R35.4.1_aarch64/Linux_for_Tegra/sources/tegra/optee-src/nv-optee/optee/optee_os/ldelf/ta_elf.c:389
    1ca4:	17fffff7 	b	1c80 <save_symtab+0x3f0>
/home/ssysarch/Desktop/nick/jetpack_5/Jetson_Linux_R35.4.1_aarch64/Linux_for_Tegra/sources/tegra/optee-src/nv-optee/optee/optee_os/ldelf/ta_elf.c:383
    1ca8:	b9400a82 	ldr	w2, [x20, #8]
    1cac:	aa1303e0 	mov	x0, x19
    1cb0:	b9401683 	ldr	w3, [x20, #20]
/home/ssysarch/Desktop/nick/jetpack_5/Jetson_Linux_R35.4.1_aarch64/Linux_for_Tegra/sources/tegra/optee-src/nv-optee/optee/optee_os/ldelf/ta_elf.c:382
    1cb4:	910006b5 	add	x21, x21, #0x1
/home/ssysarch/Desktop/nick/jetpack_5/Jetson_Linux_R35.4.1_aarch64/Linux_for_Tegra/sources/tegra/optee-src/nv-optee/optee/optee_os/ldelf/ta_elf.c:383
    1cb8:	b8420681 	ldr	w1, [x20], #32
    1cbc:	97fffeba 	bl	17a4 <save_soname_from_segment>
/home/ssysarch/Desktop/nick/jetpack_5/Jetson_Linux_R35.4.1_aarch64/Linux_for_Tegra/sources/tegra/optee-src/nv-optee/optee/optee_os/ldelf/ta_elf.c:382
    1cc0:	b9404260 	ldr	w0, [x19, #64]
    1cc4:	eb0002bf 	cmp	x21, x0
    1cc8:	54ffff03 	b.cc	1ca8 <save_symtab+0x418>  // b.lo, b.ul, b.last
save_symtab():
/home/ssysarch/Desktop/nick/jetpack_5/Jetson_Linux_R35.4.1_aarch64/Linux_for_Tegra/sources/tegra/optee-src/nv-optee/optee/optee_os/ldelf/ta_elf.c:475
    1ccc:	a94153f3 	ldp	x19, x20, [sp, #16]
    1cd0:	a9425bf5 	ldp	x21, x22, [sp, #32]
    1cd4:	a8c37bfd 	ldp	x29, x30, [sp], #48
    1cd8:	d65f03c0 	ret

0000000000001cdc <map_segments>:
map_segments():
/home/ssysarch/Desktop/nick/jetpack_5/Jetson_Linux_R35.4.1_aarch64/Linux_for_Tegra/sources/tegra/optee-src/nv-optee/optee/optee_os/ldelf/ta_elf.c:993
    1cdc:	a9ba7bfd 	stp	x29, x30, [sp, #-96]!
    1ce0:	910003fd 	mov	x29, sp
    1ce4:	a90153f3 	stp	x19, x20, [sp, #16]
    1ce8:	aa0003f3 	mov	x19, x0
parse_load_segments():
/home/ssysarch/Desktop/nick/jetpack_5/Jetson_Linux_R35.4.1_aarch64/Linux_for_Tegra/sources/tegra/optee-src/nv-optee/optee/optee_os/ldelf/ta_elf.c:558
    1cec:	f9402814 	ldr	x20, [x0, #80]
map_segments():
/home/ssysarch/Desktop/nick/jetpack_5/Jetson_Linux_R35.4.1_aarch64/Linux_for_Tegra/sources/tegra/optee-src/nv-optee/optee/optee_os/ldelf/ta_elf.c:993
    1cf0:	a9025bf5 	stp	x21, x22, [sp, #32]
parse_load_segments():
/home/ssysarch/Desktop/nick/jetpack_5/Jetson_Linux_R35.4.1_aarch64/Linux_for_Tegra/sources/tegra/optee-src/nv-optee/optee/optee_os/ldelf/ta_elf.c:558
    1cf4:	39400400 	ldrb	w0, [x0, #1]
map_segments():
/home/ssysarch/Desktop/nick/jetpack_5/Jetson_Linux_R35.4.1_aarch64/Linux_for_Tegra/sources/tegra/optee-src/nv-optee/optee/optee_os/ldelf/ta_elf.c:993
    1cf8:	a90363f7 	stp	x23, x24, [sp, #48]
parse_load_segments():
/home/ssysarch/Desktop/nick/jetpack_5/Jetson_Linux_R35.4.1_aarch64/Linux_for_Tegra/sources/tegra/optee-src/nv-optee/optee/optee_os/ldelf/ta_elf.c:561
    1cfc:	d2800015 	mov	x21, #0x0                   	// #0
map_segments():
/home/ssysarch/Desktop/nick/jetpack_5/Jetson_Linux_R35.4.1_aarch64/Linux_for_Tegra/sources/tegra/optee-src/nv-optee/optee/optee_os/ldelf/ta_elf.c:993
    1d00:	f90023f9 	str	x25, [sp, #64]
parse_load_segments():
/home/ssysarch/Desktop/nick/jetpack_5/Jetson_Linux_R35.4.1_aarch64/Linux_for_Tegra/sources/tegra/optee-src/nv-optee/optee/optee_os/ldelf/ta_elf.c:558
    1d04:	35000220 	cbnz	w0, 1d48 <map_segments+0x6c>
/home/ssysarch/Desktop/nick/jetpack_5/Jetson_Linux_R35.4.1_aarch64/Linux_for_Tegra/sources/tegra/optee-src/nv-optee/optee/optee_os/ldelf/ta_elf.c:578
    1d08:	9102a276 	add	x22, x19, #0xa8
/home/ssysarch/Desktop/nick/jetpack_5/Jetson_Linux_R35.4.1_aarch64/Linux_for_Tegra/sources/tegra/optee-src/nv-optee/optee/optee_os/ldelf/ta_elf.c:576
    1d0c:	b9404261 	ldr	w1, [x19, #64]
    1d10:	eb0102bf 	cmp	x21, x1
    1d14:	540002a2 	b.cs	1d68 <map_segments+0x8c>  // b.hs, b.nlast
/home/ssysarch/Desktop/nick/jetpack_5/Jetson_Linux_R35.4.1_aarch64/Linux_for_Tegra/sources/tegra/optee-src/nv-optee/optee/optee_os/ldelf/ta_elf.c:577
    1d18:	b9400281 	ldr	w1, [x20]
    1d1c:	7100043f 	cmp	w1, #0x1
    1d20:	540009c1 	b.ne	1e58 <map_segments+0x17c>  // b.any
/home/ssysarch/Desktop/nick/jetpack_5/Jetson_Linux_R35.4.1_aarch64/Linux_for_Tegra/sources/tegra/optee-src/nv-optee/optee/optee_os/ldelf/ta_elf.c:578
    1d24:	a9408a81 	ldp	x1, x2, [x20, #8]
    1d28:	aa1603e0 	mov	x0, x22
    1d2c:	a9421283 	ldp	x3, x4, [x20, #32]
    1d30:	b9400685 	ldr	w5, [x20, #4]
    1d34:	f9401a86 	ldr	x6, [x20, #48]
    1d38:	97fffbcb 	bl	c64 <add_segment.isra.0>
/home/ssysarch/Desktop/nick/jetpack_5/Jetson_Linux_R35.4.1_aarch64/Linux_for_Tegra/sources/tegra/optee-src/nv-optee/optee/optee_os/ldelf/ta_elf.c:576
    1d3c:	910006b5 	add	x21, x21, #0x1
    1d40:	9100e294 	add	x20, x20, #0x38
    1d44:	17fffff2 	b	1d0c <map_segments+0x30>
    1d48:	f0000036 	adrp	x22, 8000 <_DYNAMIC>
/home/ssysarch/Desktop/nick/jetpack_5/Jetson_Linux_R35.4.1_aarch64/Linux_for_Tegra/sources/tegra/optee-src/nv-optee/optee/optee_os/ldelf/ta_elf.c:563
    1d4c:	9102a279 	add	x25, x19, #0xa8
    1d50:	aa1603f8 	mov	x24, x22
/home/ssysarch/Desktop/nick/jetpack_5/Jetson_Linux_R35.4.1_aarch64/Linux_for_Tegra/sources/tegra/optee-src/nv-optee/optee/optee_os/ldelf/ta_elf.c:567
    1d54:	52800037 	mov	w23, #0x1                   	// #1
    1d58:	72ae0017 	movk	w23, #0x7000, lsl #16
/home/ssysarch/Desktop/nick/jetpack_5/Jetson_Linux_R35.4.1_aarch64/Linux_for_Tegra/sources/tegra/optee-src/nv-optee/optee/optee_os/ldelf/ta_elf.c:561
    1d5c:	b9404261 	ldr	w1, [x19, #64]
    1d60:	eb0102bf 	cmp	x21, x1
    1d64:	54000343 	b.cc	1dcc <map_segments+0xf0>  // b.lo, b.ul, b.last
adjust_segments():
/home/ssysarch/Desktop/nick/jetpack_5/Jetson_Linux_R35.4.1_aarch64/Linux_for_Tegra/sources/tegra/optee-src/nv-optee/optee/optee_os/ldelf/ta_elf.c:629
    1d68:	f9405264 	ldr	x4, [x19, #160]
/home/ssysarch/Desktop/nick/jetpack_5/Jetson_Linux_R35.4.1_aarch64/Linux_for_Tegra/sources/tegra/optee-src/nv-optee/optee/optee_os/ldelf/ta_elf.c:625
    1d6c:	d2800003 	mov	x3, #0x0                   	// #0
/home/ssysarch/Desktop/nick/jetpack_5/Jetson_Linux_R35.4.1_aarch64/Linux_for_Tegra/sources/tegra/optee-src/nv-optee/optee/optee_os/ldelf/ta_elf.c:629
    1d70:	aa0403e0 	mov	x0, x4
    1d74:	b5000840 	cbnz	x0, 1e7c <map_segments+0x1a0>
/home/ssysarch/Desktop/nick/jetpack_5/Jetson_Linux_R35.4.1_aarch64/Linux_for_Tegra/sources/tegra/optee-src/nv-optee/optee/optee_os/ldelf/ta_elf.c:652
    1d78:	b50011a4 	cbnz	x4, 1fac <map_segments+0x2d0>
map_segments():
/home/ssysarch/Desktop/nick/jetpack_5/Jetson_Linux_R35.4.1_aarch64/Linux_for_Tegra/sources/tegra/optee-src/nv-optee/optee/optee_os/ldelf/ta_elf.c:998
    1d7c:	f9405260 	ldr	x0, [x19, #160]
    1d80:	f9400000 	ldr	x0, [x0]
    1d84:	f13ffc1f 	cmp	x0, #0xfff
    1d88:	540020c8 	b.hi	21a0 <map_segments+0x4c4>  // b.pmore
/home/ssysarch/Desktop/nick/jetpack_5/Jetson_Linux_R35.4.1_aarch64/Linux_for_Tegra/sources/tegra/optee-src/nv-optee/optee/optee_os/ldelf/ta_elf.c:1001
    1d8c:	f9405660 	ldr	x0, [x19, #168]
/home/ssysarch/Desktop/nick/jetpack_5/Jetson_Linux_R35.4.1_aarch64/Linux_for_Tegra/sources/tegra/optee-src/nv-optee/optee/optee_os/ldelf/ta_elf.c:1000
    1d90:	a940d662 	ldp	x2, x21, [x19, #8]
/home/ssysarch/Desktop/nick/jetpack_5/Jetson_Linux_R35.4.1_aarch64/Linux_for_Tegra/sources/tegra/optee-src/nv-optee/optee/optee_os/ldelf/ta_elf.c:1001
    1d94:	f9400400 	ldr	x0, [x0, #8]
/home/ssysarch/Desktop/nick/jetpack_5/Jetson_Linux_R35.4.1_aarch64/Linux_for_Tegra/sources/tegra/optee-src/nv-optee/optee/optee_os/ldelf/ta_elf.c:1000
    1d98:	cb0202b5 	sub	x21, x21, x2
/home/ssysarch/Desktop/nick/jetpack_5/Jetson_Linux_R35.4.1_aarch64/Linux_for_Tegra/sources/tegra/optee-src/nv-optee/optee/optee_os/ldelf/ta_elf.c:1001
    1d9c:	f9400016 	ldr	x22, [x0]
/home/ssysarch/Desktop/nick/jetpack_5/Jetson_Linux_R35.4.1_aarch64/Linux_for_Tegra/sources/tegra/optee-src/nv-optee/optee/optee_os/ldelf/ta_elf.c:999
    1da0:	f9002fff 	str	xzr, [sp, #88]
/home/ssysarch/Desktop/nick/jetpack_5/Jetson_Linux_R35.4.1_aarch64/Linux_for_Tegra/sources/tegra/optee-src/nv-optee/optee/optee_os/ldelf/ta_elf.c:1002
    1da4:	97fffa66 	bl	73c <get_pad_begin>
    1da8:	aa0003e3 	mov	x3, x0
/home/ssysarch/Desktop/nick/jetpack_5/Jetson_Linux_R35.4.1_aarch64/Linux_for_Tegra/sources/tegra/optee-src/nv-optee/optee/optee_os/ldelf/ta_elf.c:1008
    1dac:	39400260 	ldrb	w0, [x19]
    1db0:	34001a20 	cbz	w0, 20f4 <map_segments+0x418>
    1db4:	d0000022 	adrp	x2, 7000 <trace_ext_prefix+0x509>
    1db8:	910ecc42 	add	x2, x2, #0x3b3
    1dbc:	b0000020 	adrp	x0, 6000 <kprintf.constprop.0+0x4c8>
    1dc0:	9133ec00 	add	x0, x0, #0xcfb
    1dc4:	52807e01 	mov	w1, #0x3f0                 	// #1008
    1dc8:	1400001f 	b	1e44 <map_segments+0x168>
parse_load_segments():
/home/ssysarch/Desktop/nick/jetpack_5/Jetson_Linux_R35.4.1_aarch64/Linux_for_Tegra/sources/tegra/optee-src/nv-optee/optee/optee_os/ldelf/ta_elf.c:562
    1dcc:	b9400281 	ldr	w1, [x20]
    1dd0:	7100043f 	cmp	w1, #0x1
    1dd4:	54000121 	b.ne	1df8 <map_segments+0x11c>  // b.any
/home/ssysarch/Desktop/nick/jetpack_5/Jetson_Linux_R35.4.1_aarch64/Linux_for_Tegra/sources/tegra/optee-src/nv-optee/optee/optee_os/ldelf/ta_elf.c:563
    1dd8:	29408a81 	ldp	w1, w2, [x20, #4]
    1ddc:	aa1903e0 	mov	x0, x25
    1de0:	29421283 	ldp	w3, w4, [x20, #16]
    1de4:	29431a85 	ldp	w5, w6, [x20, #24]
    1de8:	97fffb9f 	bl	c64 <add_segment.isra.0>
/home/ssysarch/Desktop/nick/jetpack_5/Jetson_Linux_R35.4.1_aarch64/Linux_for_Tegra/sources/tegra/optee-src/nv-optee/optee/optee_os/ldelf/ta_elf.c:561
    1dec:	910006b5 	add	x21, x21, #0x1
    1df0:	91008294 	add	x20, x20, #0x20
    1df4:	17ffffda 	b	1d5c <map_segments+0x80>
/home/ssysarch/Desktop/nick/jetpack_5/Jetson_Linux_R35.4.1_aarch64/Linux_for_Tegra/sources/tegra/optee-src/nv-optee/optee/optee_os/ldelf/ta_elf.c:567
    1df8:	6b17003f 	cmp	w1, w23
    1dfc:	540000c1 	b.ne	1e14 <map_segments+0x138>  // b.any
/home/ssysarch/Desktop/nick/jetpack_5/Jetson_Linux_R35.4.1_aarch64/Linux_for_Tegra/sources/tegra/optee-src/nv-optee/optee/optee_os/ldelf/ta_elf.c:568
    1e00:	b9400a80 	ldr	w0, [x20, #8]
    1e04:	f9005a60 	str	x0, [x19, #176]
/home/ssysarch/Desktop/nick/jetpack_5/Jetson_Linux_R35.4.1_aarch64/Linux_for_Tegra/sources/tegra/optee-src/nv-optee/optee/optee_os/ldelf/ta_elf.c:569
    1e08:	b9401280 	ldr	w0, [x20, #16]
    1e0c:	f9005e60 	str	x0, [x19, #184]
    1e10:	17fffff7 	b	1dec <map_segments+0x110>
/home/ssysarch/Desktop/nick/jetpack_5/Jetson_Linux_R35.4.1_aarch64/Linux_for_Tegra/sources/tegra/optee-src/nv-optee/optee/optee_os/ldelf/ta_elf.c:570
    1e14:	71001c3f 	cmp	w1, #0x7
    1e18:	54fffea1 	b.ne	1dec <map_segments+0x110>  // b.any
assign_tls_mod_id():
/home/ssysarch/Desktop/nick/jetpack_5/Jetson_Linux_R35.4.1_aarch64/Linux_for_Tegra/sources/tegra/optee-src/nv-optee/optee/optee_os/ldelf/ta_elf.c:57
    1e1c:	39400260 	ldrb	w0, [x19]
    1e20:	f940aac1 	ldr	x1, [x22, #336]
    1e24:	34000120 	cbz	w0, 1e48 <map_segments+0x16c>
/home/ssysarch/Desktop/nick/jetpack_5/Jetson_Linux_R35.4.1_aarch64/Linux_for_Tegra/sources/tegra/optee-src/nv-optee/optee/optee_os/ldelf/ta_elf.c:58
    1e28:	f100043f 	cmp	x1, #0x1
    1e2c:	540000e0 	b.eq	1e48 <map_segments+0x16c>  // b.none
    1e30:	d0000022 	adrp	x2, 7000 <trace_ext_prefix+0x509>
    1e34:	910a8042 	add	x2, x2, #0x2a0
    1e38:	b0000020 	adrp	x0, 6000 <kprintf.constprop.0+0x4c8>
    1e3c:	913d0800 	add	x0, x0, #0xf42
    1e40:	52800741 	mov	w1, #0x3a                  	// #58
adjust_segments():
/home/ssysarch/Desktop/nick/jetpack_5/Jetson_Linux_R35.4.1_aarch64/Linux_for_Tegra/sources/tegra/optee-src/nv-optee/optee/optee_os/ldelf/ta_elf.c:632
    1e44:	97fffbf1 	bl	e08 <_assert_trap.constprop.0>
assign_tls_mod_id():
/home/ssysarch/Desktop/nick/jetpack_5/Jetson_Linux_R35.4.1_aarch64/Linux_for_Tegra/sources/tegra/optee-src/nv-optee/optee/optee_os/ldelf/ta_elf.c:59
    1e48:	91000420 	add	x0, x1, #0x1
    1e4c:	f900ab00 	str	x0, [x24, #336]
    1e50:	f9006261 	str	x1, [x19, #192]
/home/ssysarch/Desktop/nick/jetpack_5/Jetson_Linux_R35.4.1_aarch64/Linux_for_Tegra/sources/tegra/optee-src/nv-optee/optee/optee_os/ldelf/ta_elf.c:60
    1e54:	17ffffe6 	b	1dec <map_segments+0x110>
parse_load_segments():
/home/ssysarch/Desktop/nick/jetpack_5/Jetson_Linux_R35.4.1_aarch64/Linux_for_Tegra/sources/tegra/optee-src/nv-optee/optee/optee_os/ldelf/ta_elf.c:582
    1e58:	71001c3f 	cmp	w1, #0x7
    1e5c:	54fff701 	b.ne	1d3c <map_segments+0x60>  // b.any
/home/ssysarch/Desktop/nick/jetpack_5/Jetson_Linux_R35.4.1_aarch64/Linux_for_Tegra/sources/tegra/optee-src/nv-optee/optee/optee_os/ldelf/ta_elf.c:583
    1e60:	f9400a80 	ldr	x0, [x20, #16]
    1e64:	f9006660 	str	x0, [x19, #200]
/home/ssysarch/Desktop/nick/jetpack_5/Jetson_Linux_R35.4.1_aarch64/Linux_for_Tegra/sources/tegra/optee-src/nv-optee/optee/optee_os/ldelf/ta_elf.c:584
    1e68:	f9401280 	ldr	x0, [x20, #32]
    1e6c:	f9006a60 	str	x0, [x19, #208]
/home/ssysarch/Desktop/nick/jetpack_5/Jetson_Linux_R35.4.1_aarch64/Linux_for_Tegra/sources/tegra/optee-src/nv-optee/optee/optee_os/ldelf/ta_elf.c:585
    1e70:	f9401680 	ldr	x0, [x20, #40]
    1e74:	f9006e60 	str	x0, [x19, #216]
    1e78:	17ffffb1 	b	1d3c <map_segments+0x60>
adjust_segments():
/home/ssysarch/Desktop/nick/jetpack_5/Jetson_Linux_R35.4.1_aarch64/Linux_for_Tegra/sources/tegra/optee-src/nv-optee/optee/optee_os/ldelf/ta_elf.c:632
    1e7c:	f9401405 	ldr	x5, [x0, #40]
    1e80:	f13ffcbf 	cmp	x5, #0xfff
    1e84:	540000e8 	b.hi	1ea0 <map_segments+0x1c4>  // b.pmore
    1e88:	d0000022 	adrp	x2, 7000 <trace_ext_prefix+0x509>
    1e8c:	910d6c42 	add	x2, x2, #0x35b
    1e90:	b0000020 	adrp	x0, 6000 <kprintf.constprop.0+0x4c8>
    1e94:	913d5c00 	add	x0, x0, #0xf57
    1e98:	52804f01 	mov	w1, #0x278                 	// #632
    1e9c:	17ffffea 	b	1e44 <map_segments+0x168>
/home/ssysarch/Desktop/nick/jetpack_5/Jetson_Linux_R35.4.1_aarch64/Linux_for_Tegra/sources/tegra/optee-src/nv-optee/optee/optee_os/ldelf/ta_elf.c:633
    1ea0:	f9400402 	ldr	x2, [x0, #8]
    1ea4:	f9400c01 	ldr	x1, [x0, #24]
    1ea8:	ab010046 	adds	x6, x2, x1
    1eac:	54000142 	b.cs	1ed4 <map_segments+0x1f8>  // b.hs, b.nlast
/home/ssysarch/Desktop/nick/jetpack_5/Jetson_Linux_R35.4.1_aarch64/Linux_for_Tegra/sources/tegra/optee-src/nv-optee/optee/optee_os/ldelf/ta_elf.c:634
    1eb0:	f9400806 	ldr	x6, [x0, #16]
    1eb4:	eb06003f 	cmp	x1, x6
    1eb8:	540001a2 	b.cs	1eec <map_segments+0x210>  // b.hs, b.nlast
    1ebc:	d0000022 	adrp	x2, 7000 <trace_ext_prefix+0x509>
    1ec0:	910d6c42 	add	x2, x2, #0x35b
    1ec4:	b0000020 	adrp	x0, 6000 <kprintf.constprop.0+0x4c8>
    1ec8:	913e8c00 	add	x0, x0, #0xfa3
    1ecc:	52804f41 	mov	w1, #0x27a                 	// #634
    1ed0:	17ffffdd 	b	1e44 <map_segments+0x168>
/home/ssysarch/Desktop/nick/jetpack_5/Jetson_Linux_R35.4.1_aarch64/Linux_for_Tegra/sources/tegra/optee-src/nv-optee/optee/optee_os/ldelf/ta_elf.c:633
    1ed4:	d0000022 	adrp	x2, 7000 <trace_ext_prefix+0x509>
    1ed8:	910d6c42 	add	x2, x2, #0x35b
    1edc:	b0000020 	adrp	x0, 6000 <kprintf.constprop.0+0x4c8>
    1ee0:	913dd400 	add	x0, x0, #0xf75
    1ee4:	52804f21 	mov	w1, #0x279                 	// #633
    1ee8:	17ffffd7 	b	1e44 <map_segments+0x168>
/home/ssysarch/Desktop/nick/jetpack_5/Jetson_Linux_R35.4.1_aarch64/Linux_for_Tegra/sources/tegra/optee-src/nv-optee/optee/optee_os/ldelf/ta_elf.c:635
    1eec:	f9400007 	ldr	x7, [x0]
    1ef0:	ca070041 	eor	x1, x2, x7
    1ef4:	f2402c3f 	tst	x1, #0xfff
    1ef8:	540000e0 	b.eq	1f14 <map_segments+0x238>  // b.none
    1efc:	d0000022 	adrp	x2, 7000 <trace_ext_prefix+0x509>
    1f00:	910d6c42 	add	x2, x2, #0x35b
    1f04:	b0000020 	adrp	x0, 6000 <kprintf.constprop.0+0x4c8>
    1f08:	913ef400 	add	x0, x0, #0xfbd
    1f0c:	52804f61 	mov	w1, #0x27b                 	// #635
    1f10:	17ffffcd 	b	1e44 <map_segments+0x168>
/home/ssysarch/Desktop/nick/jetpack_5/Jetson_Linux_R35.4.1_aarch64/Linux_for_Tegra/sources/tegra/optee-src/nv-optee/optee/optee_os/ldelf/ta_elf.c:638
    1f14:	f9402001 	ldr	x1, [x0, #64]
    1f18:	f9400421 	ldr	x1, [x1, #8]
    1f1c:	f9400021 	ldr	x1, [x1]
/home/ssysarch/Desktop/nick/jetpack_5/Jetson_Linux_R35.4.1_aarch64/Linux_for_Tegra/sources/tegra/optee-src/nv-optee/optee/optee_os/ldelf/ta_elf.c:639
    1f20:	b40002e1 	cbz	x1, 1f7c <map_segments+0x2a0>
/home/ssysarch/Desktop/nick/jetpack_5/Jetson_Linux_R35.4.1_aarch64/Linux_for_Tegra/sources/tegra/optee-src/nv-optee/optee/optee_os/ldelf/ta_elf.c:640
    1f24:	f9400426 	ldr	x6, [x1, #8]
    1f28:	f9400c28 	ldr	x8, [x1, #24]
    1f2c:	8b0800c6 	add	x6, x6, x8
    1f30:	eb06005f 	cmp	x2, x6
    1f34:	540000e2 	b.cs	1f50 <map_segments+0x274>  // b.hs, b.nlast
    1f38:	d0000022 	adrp	x2, 7000 <trace_ext_prefix+0x509>
    1f3c:	910d6c42 	add	x2, x2, #0x35b
    1f40:	b0000020 	adrp	x0, 6000 <kprintf.constprop.0+0x4c8>
    1f44:	913ffc00 	add	x0, x0, #0xfff
    1f48:	52805001 	mov	w1, #0x280                 	// #640
    1f4c:	17ffffbe 	b	1e44 <map_segments+0x168>
/home/ssysarch/Desktop/nick/jetpack_5/Jetson_Linux_R35.4.1_aarch64/Linux_for_Tegra/sources/tegra/optee-src/nv-optee/optee/optee_os/ldelf/ta_elf.c:641
    1f50:	f9400022 	ldr	x2, [x1]
    1f54:	f9400821 	ldr	x1, [x1, #16]
    1f58:	8b010041 	add	x1, x2, x1
    1f5c:	eb0100ff 	cmp	x7, x1
    1f60:	540000e2 	b.cs	1f7c <map_segments+0x2a0>  // b.hs, b.nlast
    1f64:	d0000022 	adrp	x2, 7000 <trace_ext_prefix+0x509>
    1f68:	910d6c42 	add	x2, x2, #0x35b
    1f6c:	d0000020 	adrp	x0, 7000 <trace_ext_prefix+0x509>
    1f70:	9100bc00 	add	x0, x0, #0x2f
    1f74:	52805021 	mov	w1, #0x281                 	// #641
    1f78:	17ffffb3 	b	1e44 <map_segments+0x168>
/home/ssysarch/Desktop/nick/jetpack_5/Jetson_Linux_R35.4.1_aarch64/Linux_for_Tegra/sources/tegra/optee-src/nv-optee/optee/optee_os/ldelf/ta_elf.c:644
    1f7c:	b4000123 	cbz	x3, 1fa0 <map_segments+0x2c4>
/home/ssysarch/Desktop/nick/jetpack_5/Jetson_Linux_R35.4.1_aarch64/Linux_for_Tegra/sources/tegra/optee-src/nv-optee/optee/optee_os/ldelf/ta_elf.c:646
    1f80:	eb0300bf 	cmp	x5, x3
    1f84:	540000e0 	b.eq	1fa0 <map_segments+0x2c4>  // b.none
    1f88:	d0000022 	adrp	x2, 7000 <trace_ext_prefix+0x509>
    1f8c:	910d6c42 	add	x2, x2, #0x35b
    1f90:	d0000020 	adrp	x0, 7000 <trace_ext_prefix+0x509>
    1f94:	91018800 	add	x0, x0, #0x62
    1f98:	528050c1 	mov	w1, #0x286                 	// #646
    1f9c:	17ffffaa 	b	1e44 <map_segments+0x168>
/home/ssysarch/Desktop/nick/jetpack_5/Jetson_Linux_R35.4.1_aarch64/Linux_for_Tegra/sources/tegra/optee-src/nv-optee/optee/optee_os/ldelf/ta_elf.c:629
    1fa0:	aa0503e3 	mov	x3, x5
    1fa4:	f9401c00 	ldr	x0, [x0, #56]
    1fa8:	17ffff73 	b	1d74 <map_segments+0x98>
/home/ssysarch/Desktop/nick/jetpack_5/Jetson_Linux_R35.4.1_aarch64/Linux_for_Tegra/sources/tegra/optee-src/nv-optee/optee/optee_os/ldelf/ta_elf.c:653
    1fac:	f9401c80 	ldr	x0, [x4, #56]
/home/ssysarch/Desktop/nick/jetpack_5/Jetson_Linux_R35.4.1_aarch64/Linux_for_Tegra/sources/tegra/optee-src/nv-optee/optee/optee_os/ldelf/ta_elf.c:649
    1fb0:	d1000475 	sub	x21, x3, #0x1
/home/ssysarch/Desktop/nick/jetpack_5/Jetson_Linux_R35.4.1_aarch64/Linux_for_Tegra/sources/tegra/optee-src/nv-optee/optee/optee_os/ldelf/ta_elf.c:700
    1fb4:	52800036 	mov	w22, #0x1                   	// #1
/home/ssysarch/Desktop/nick/jetpack_5/Jetson_Linux_R35.4.1_aarch64/Linux_for_Tegra/sources/tegra/optee-src/nv-optee/optee/optee_os/ldelf/ta_elf.c:654
    1fb8:	b4ffee20 	cbz	x0, 1d7c <map_segments+0xa0>
/home/ssysarch/Desktop/nick/jetpack_5/Jetson_Linux_R35.4.1_aarch64/Linux_for_Tegra/sources/tegra/optee-src/nv-optee/optee/optee_os/ldelf/ta_elf.c:655
    1fbc:	f9402004 	ldr	x4, [x0, #64]
    1fc0:	f9400002 	ldr	x2, [x0]
    1fc4:	f9400481 	ldr	x1, [x4, #8]
    1fc8:	f9400034 	ldr	x20, [x1]
/home/ssysarch/Desktop/nick/jetpack_5/Jetson_Linux_R35.4.1_aarch64/Linux_for_Tegra/sources/tegra/optee-src/nv-optee/optee/optee_os/ldelf/ta_elf.c:673
    1fcc:	f9400401 	ldr	x1, [x0, #8]
/home/ssysarch/Desktop/nick/jetpack_5/Jetson_Linux_R35.4.1_aarch64/Linux_for_Tegra/sources/tegra/optee-src/nv-optee/optee/optee_os/ldelf/ta_elf.c:656
    1fd0:	f9400685 	ldr	x5, [x20, #8]
rounddown():
/home/ssysarch/Desktop/nick/jetpack_5/Jetson_Linux_R35.4.1_aarch64/Linux_for_Tegra/sources/tegra/optee-src/nv-optee/optee/optee_os/ldelf/ta_elf.c:530
    1fd4:	9274cc23 	and	x3, x1, #0xfffffffffffff000
adjust_segments():
/home/ssysarch/Desktop/nick/jetpack_5/Jetson_Linux_R35.4.1_aarch64/Linux_for_Tegra/sources/tegra/optee-src/nv-optee/optee/optee_os/ldelf/ta_elf.c:656
    1fd8:	f9400e86 	ldr	x6, [x20, #24]
    1fdc:	8b0600a7 	add	x7, x5, x6
/home/ssysarch/Desktop/nick/jetpack_5/Jetson_Linux_R35.4.1_aarch64/Linux_for_Tegra/sources/tegra/optee-src/nv-optee/optee/optee_os/ldelf/ta_elf.c:673
    1fe0:	eb0300ff 	cmp	x7, x3
    1fe4:	54000529 	b.ls	2088 <map_segments+0x3ac>  // b.plast
/home/ssysarch/Desktop/nick/jetpack_5/Jetson_Linux_R35.4.1_aarch64/Linux_for_Tegra/sources/tegra/optee-src/nv-optee/optee/optee_os/ldelf/ta_elf.c:674
    1fe8:	ca020022 	eor	x2, x1, x2
    1fec:	ea15005f 	tst	x2, x21
    1ff0:	540000e0 	b.eq	200c <map_segments+0x330>  // b.none
    1ff4:	d0000022 	adrp	x2, 7000 <trace_ext_prefix+0x509>
    1ff8:	910d6c42 	add	x2, x2, #0x35b
    1ffc:	d0000020 	adrp	x0, 7000 <trace_ext_prefix+0x509>
    2000:	9101d800 	add	x0, x0, #0x76
    2004:	52805441 	mov	w1, #0x2a2                 	// #674
    2008:	17ffff8f 	b	1e44 <map_segments+0x168>
/home/ssysarch/Desktop/nick/jetpack_5/Jetson_Linux_R35.4.1_aarch64/Linux_for_Tegra/sources/tegra/optee-src/nv-optee/optee/optee_os/ldelf/ta_elf.c:675
    200c:	f9400a82 	ldr	x2, [x20, #16]
    2010:	eb0200df 	cmp	x6, x2
    2014:	540000e0 	b.eq	2030 <map_segments+0x354>  // b.none
    2018:	b0000022 	adrp	x2, 7000 <trace_ext_prefix+0x509>
    201c:	910d6c42 	add	x2, x2, #0x35b
    2020:	b0000020 	adrp	x0, 7000 <trace_ext_prefix+0x509>
    2024:	91028800 	add	x0, x0, #0xa2
    2028:	52805461 	mov	w1, #0x2a3                 	// #675
    202c:	17ffff86 	b	1e44 <map_segments+0x168>
/home/ssysarch/Desktop/nick/jetpack_5/Jetson_Linux_R35.4.1_aarch64/Linux_for_Tegra/sources/tegra/optee-src/nv-optee/optee/optee_os/ldelf/ta_elf.c:682
    2030:	f9400802 	ldr	x2, [x0, #16]
    2034:	8b020022 	add	x2, x1, x2
    2038:	cb050042 	sub	x2, x2, x5
    203c:	f9000a82 	str	x2, [x20, #16]
/home/ssysarch/Desktop/nick/jetpack_5/Jetson_Linux_R35.4.1_aarch64/Linux_for_Tegra/sources/tegra/optee-src/nv-optee/optee/optee_os/ldelf/ta_elf.c:684
    2040:	f9400c02 	ldr	x2, [x0, #24]
    2044:	8b020021 	add	x1, x1, x2
    2048:	cb050021 	sub	x1, x1, x5
/home/ssysarch/Desktop/nick/jetpack_5/Jetson_Linux_R35.4.1_aarch64/Linux_for_Tegra/sources/tegra/optee-src/nv-optee/optee/optee_os/ldelf/ta_elf.c:686
    204c:	f9401002 	ldr	x2, [x0, #32]
/home/ssysarch/Desktop/nick/jetpack_5/Jetson_Linux_R35.4.1_aarch64/Linux_for_Tegra/sources/tegra/optee-src/nv-optee/optee/optee_os/ldelf/ta_elf.c:684
    2050:	f9000e81 	str	x1, [x20, #24]
/home/ssysarch/Desktop/nick/jetpack_5/Jetson_Linux_R35.4.1_aarch64/Linux_for_Tegra/sources/tegra/optee-src/nv-optee/optee/optee_os/ldelf/ta_elf.c:686
    2054:	f9401281 	ldr	x1, [x20, #32]
    2058:	aa020021 	orr	x1, x1, x2
    205c:	f9001281 	str	x1, [x20, #32]
/home/ssysarch/Desktop/nick/jetpack_5/Jetson_Linux_R35.4.1_aarch64/Linux_for_Tegra/sources/tegra/optee-src/nv-optee/optee/optee_os/ldelf/ta_elf.c:688
    2060:	f9401c01 	ldr	x1, [x0, #56]
    2064:	b40000e1 	cbz	x1, 2080 <map_segments+0x3a4>
    2068:	f9002024 	str	x4, [x1, #64]
    206c:	f9402002 	ldr	x2, [x0, #64]
    2070:	f9000041 	str	x1, [x2]
/home/ssysarch/Desktop/nick/jetpack_5/Jetson_Linux_R35.4.1_aarch64/Linux_for_Tegra/sources/tegra/optee-src/nv-optee/optee/optee_os/ldelf/ta_elf.c:689
    2074:	94000dc5 	bl	5788 <free>
/home/ssysarch/Desktop/nick/jetpack_5/Jetson_Linux_R35.4.1_aarch64/Linux_for_Tegra/sources/tegra/optee-src/nv-optee/optee/optee_os/ldelf/ta_elf.c:690
    2078:	f9401e80 	ldr	x0, [x20, #56]
/home/ssysarch/Desktop/nick/jetpack_5/Jetson_Linux_R35.4.1_aarch64/Linux_for_Tegra/sources/tegra/optee-src/nv-optee/optee/optee_os/ldelf/ta_elf.c:691
    207c:	17ffffcf 	b	1fb8 <map_segments+0x2dc>
/home/ssysarch/Desktop/nick/jetpack_5/Jetson_Linux_R35.4.1_aarch64/Linux_for_Tegra/sources/tegra/optee-src/nv-optee/optee/optee_os/ldelf/ta_elf.c:688
    2080:	f9005664 	str	x4, [x19, #168]
    2084:	17fffffa 	b	206c <map_segments+0x390>
/home/ssysarch/Desktop/nick/jetpack_5/Jetson_Linux_R35.4.1_aarch64/Linux_for_Tegra/sources/tegra/optee-src/nv-optee/optee/optee_os/ldelf/ta_elf.c:695
    2088:	9274cc44 	and	x4, x2, #0xfffffffffffff000
    208c:	ea0202bf 	tst	x21, x2
    2090:	540001e0 	b.eq	20cc <map_segments+0x3f0>  // b.none
/home/ssysarch/Desktop/nick/jetpack_5/Jetson_Linux_R35.4.1_aarch64/Linux_for_Tegra/sources/tegra/optee-src/nv-optee/optee/optee_os/ldelf/ta_elf.c:697
    2094:	f9400282 	ldr	x2, [x20]
    2098:	f9400a85 	ldr	x5, [x20, #16]
    209c:	8b050042 	add	x2, x2, x5
/home/ssysarch/Desktop/nick/jetpack_5/Jetson_Linux_R35.4.1_aarch64/Linux_for_Tegra/sources/tegra/optee-src/nv-optee/optee/optee_os/ldelf/ta_elf.c:695
    20a0:	eb04005f 	cmp	x2, x4
    20a4:	54000149 	b.ls	20cc <map_segments+0x3f0>  // b.plast
/home/ssysarch/Desktop/nick/jetpack_5/Jetson_Linux_R35.4.1_aarch64/Linux_for_Tegra/sources/tegra/optee-src/nv-optee/optee/optee_os/ldelf/ta_elf.c:699
    20a8:	f9401002 	ldr	x2, [x0, #32]
    20ac:	370800e2 	tbnz	w2, #1, 20c8 <map_segments+0x3ec>
    20b0:	b0000022 	adrp	x2, 7000 <trace_ext_prefix+0x509>
    20b4:	910d6c42 	add	x2, x2, #0x35b
    20b8:	b0000020 	adrp	x0, 7000 <trace_ext_prefix+0x509>
    20bc:	91031800 	add	x0, x0, #0xc6
    20c0:	52805761 	mov	w1, #0x2bb                 	// #699
    20c4:	17ffff60 	b	1e44 <map_segments+0x168>
/home/ssysarch/Desktop/nick/jetpack_5/Jetson_Linux_R35.4.1_aarch64/Linux_for_Tegra/sources/tegra/optee-src/nv-optee/optee/optee_os/ldelf/ta_elf.c:700
    20c8:	3900c016 	strb	w22, [x0, #48]
/home/ssysarch/Desktop/nick/jetpack_5/Jetson_Linux_R35.4.1_aarch64/Linux_for_Tegra/sources/tegra/optee-src/nv-optee/optee/optee_os/ldelf/ta_elf.c:707
    20cc:	f9400802 	ldr	x2, [x0, #16]
    20d0:	cb030021 	sub	x1, x1, x3
/home/ssysarch/Desktop/nick/jetpack_5/Jetson_Linux_R35.4.1_aarch64/Linux_for_Tegra/sources/tegra/optee-src/nv-optee/optee/optee_os/ldelf/ta_elf.c:709
    20d4:	a9000c04 	stp	x4, x3, [x0]
/home/ssysarch/Desktop/nick/jetpack_5/Jetson_Linux_R35.4.1_aarch64/Linux_for_Tegra/sources/tegra/optee-src/nv-optee/optee/optee_os/ldelf/ta_elf.c:707
    20d8:	8b010042 	add	x2, x2, x1
    20dc:	f9000802 	str	x2, [x0, #16]
/home/ssysarch/Desktop/nick/jetpack_5/Jetson_Linux_R35.4.1_aarch64/Linux_for_Tegra/sources/tegra/optee-src/nv-optee/optee/optee_os/ldelf/ta_elf.c:708
    20e0:	f9400c02 	ldr	x2, [x0, #24]
    20e4:	8b010041 	add	x1, x2, x1
    20e8:	f9000c01 	str	x1, [x0, #24]
/home/ssysarch/Desktop/nick/jetpack_5/Jetson_Linux_R35.4.1_aarch64/Linux_for_Tegra/sources/tegra/optee-src/nv-optee/optee/optee_os/ldelf/ta_elf.c:711
    20ec:	f9401c00 	ldr	x0, [x0, #56]
    20f0:	17ffffb2 	b	1fb8 <map_segments+0x2dc>
map_segments():
/home/ssysarch/Desktop/nick/jetpack_5/Jetson_Linux_R35.4.1_aarch64/Linux_for_Tegra/sources/tegra/optee-src/nv-optee/optee/optee_os/ldelf/ta_elf.c:1015
    20f4:	f94006c4 	ldr	x4, [x22, #8]
    20f8:	910163f7 	add	x23, sp, #0x58
    20fc:	f9400ec0 	ldr	x0, [x22, #24]
    2100:	aa1503e2 	mov	x2, x21
    2104:	aa1703e1 	mov	x1, x23
    2108:	8b000084 	add	x4, x4, x0
    210c:	f9400660 	ldr	x0, [x19, #8]
roundup():
/home/ssysarch/Desktop/nick/jetpack_5/Jetson_Linux_R35.4.1_aarch64/Linux_for_Tegra/sources/tegra/optee-src/nv-optee/optee/optee_os/ldelf/ta_elf.c:525
    2110:	913ffc84 	add	x4, x4, #0xfff
map_segments():
/home/ssysarch/Desktop/nick/jetpack_5/Jetson_Linux_R35.4.1_aarch64/Linux_for_Tegra/sources/tegra/optee-src/nv-optee/optee/optee_os/ldelf/ta_elf.c:1015
    2114:	9274cc84 	and	x4, x4, #0xfffffffffffff000
    2118:	97fff96d 	bl	6cc <sys_remap>
    211c:	2a0003f4 	mov	w20, w0
/home/ssysarch/Desktop/nick/jetpack_5/Jetson_Linux_R35.4.1_aarch64/Linux_for_Tegra/sources/tegra/optee-src/nv-optee/optee/optee_os/ldelf/ta_elf.c:1017
    2120:	129ffe60 	mov	w0, #0xffff000c            	// #-65524
    2124:	6b00029f 	cmp	w20, w0
    2128:	54000181 	b.ne	2158 <map_segments+0x47c>  // b.any
/home/ssysarch/Desktop/nick/jetpack_5/Jetson_Linux_R35.4.1_aarch64/Linux_for_Tegra/sources/tegra/optee-src/nv-optee/optee/optee_os/ldelf/ta_elf.c:1018
    212c:	f94006c4 	ldr	x4, [x22, #8]
    2130:	aa1503e2 	mov	x2, x21
    2134:	f9400ec0 	ldr	x0, [x22, #24]
    2138:	aa1703e1 	mov	x1, x23
    213c:	d2800003 	mov	x3, #0x0                   	// #0
    2140:	8b000084 	add	x4, x4, x0
    2144:	f9400660 	ldr	x0, [x19, #8]
roundup():
/home/ssysarch/Desktop/nick/jetpack_5/Jetson_Linux_R35.4.1_aarch64/Linux_for_Tegra/sources/tegra/optee-src/nv-optee/optee/optee_os/ldelf/ta_elf.c:525
    2148:	913ffc84 	add	x4, x4, #0xfff
map_segments():
/home/ssysarch/Desktop/nick/jetpack_5/Jetson_Linux_R35.4.1_aarch64/Linux_for_Tegra/sources/tegra/optee-src/nv-optee/optee/optee_os/ldelf/ta_elf.c:1018
    214c:	9274cc84 	and	x4, x4, #0xfffffffffffff000
    2150:	97fff95f 	bl	6cc <sys_remap>
    2154:	2a0003f4 	mov	w20, w0
/home/ssysarch/Desktop/nick/jetpack_5/Jetson_Linux_R35.4.1_aarch64/Linux_for_Tegra/sources/tegra/optee-src/nv-optee/optee/optee_os/ldelf/ta_elf.c:1020
    2158:	34000174 	cbz	w20, 2184 <map_segments+0x4a8>
/home/ssysarch/Desktop/nick/jetpack_5/Jetson_Linux_R35.4.1_aarch64/Linux_for_Tegra/sources/tegra/optee-src/nv-optee/optee/optee_os/ldelf/ta_elf.c:1021
    215c:	b0000024 	adrp	x4, 7000 <trace_ext_prefix+0x509>
    2160:	91036084 	add	x4, x4, #0xd8
    2164:	52800023 	mov	w3, #0x1                   	// #1
    2168:	52800022 	mov	w2, #0x1                   	// #1
    216c:	52807fa1 	mov	w1, #0x3fd                 	// #1021
    2170:	b0000020 	adrp	x0, 7000 <trace_ext_prefix+0x509>
    2174:	910ecc00 	add	x0, x0, #0x3b3
    2178:	940011d5 	bl	68cc <trace_printf>
    217c:	2a1403e0 	mov	w0, w20
    2180:	97fff7fa 	bl	168 <_ldelf_return>
/home/ssysarch/Desktop/nick/jetpack_5/Jetson_Linux_R35.4.1_aarch64/Linux_for_Tegra/sources/tegra/optee-src/nv-optee/optee/optee_os/ldelf/ta_elf.c:1025
    2184:	f9401a61 	ldr	x1, [x19, #48]
/home/ssysarch/Desktop/nick/jetpack_5/Jetson_Linux_R35.4.1_aarch64/Linux_for_Tegra/sources/tegra/optee-src/nv-optee/optee/optee_os/ldelf/ta_elf.c:1022
    2188:	f9402fe0 	ldr	x0, [sp, #88]
    218c:	f9001260 	str	x0, [x19, #32]
/home/ssysarch/Desktop/nick/jetpack_5/Jetson_Linux_R35.4.1_aarch64/Linux_for_Tegra/sources/tegra/optee-src/nv-optee/optee/optee_os/ldelf/ta_elf.c:1024
    2190:	8b0002b5 	add	x21, x21, x0
    2194:	a900d660 	stp	x0, x21, [x19, #8]
/home/ssysarch/Desktop/nick/jetpack_5/Jetson_Linux_R35.4.1_aarch64/Linux_for_Tegra/sources/tegra/optee-src/nv-optee/optee/optee_os/ldelf/ta_elf.c:1025
    2198:	8b000020 	add	x0, x1, x0
    219c:	f9002a60 	str	x0, [x19, #80]
/home/ssysarch/Desktop/nick/jetpack_5/Jetson_Linux_R35.4.1_aarch64/Linux_for_Tegra/sources/tegra/optee-src/nv-optee/optee/optee_os/ldelf/ta_elf.c:1027
    21a0:	a94153f3 	ldp	x19, x20, [sp, #16]
    21a4:	a9425bf5 	ldp	x21, x22, [sp, #32]
    21a8:	a94363f7 	ldp	x23, x24, [sp, #48]
    21ac:	f94023f9 	ldr	x25, [sp, #64]
    21b0:	a8c67bfd 	ldp	x29, x30, [sp], #96
    21b4:	d65f03c0 	ret

00000000000021b8 <ta_elf_find_elf>:
ta_elf_find_elf():
/home/ssysarch/Desktop/nick/jetpack_5/Jetson_Linux_R35.4.1_aarch64/Linux_for_Tegra/sources/tegra/optee-src/nv-optee/optee/optee_os/ldelf/ta_elf.c:91
    21b8:	a9be7bfd 	stp	x29, x30, [sp, #-32]!
    21bc:	910003fd 	mov	x29, sp
    21c0:	a90153f3 	stp	x19, x20, [sp, #16]
    21c4:	aa0003f4 	mov	x20, x0
/home/ssysarch/Desktop/nick/jetpack_5/Jetson_Linux_R35.4.1_aarch64/Linux_for_Tegra/sources/tegra/optee-src/nv-optee/optee/optee_os/ldelf/ta_elf.c:94
    21c8:	d0000020 	adrp	x0, 8000 <_DYNAMIC>
    21cc:	f940b013 	ldr	x19, [x0, #352]
/home/ssysarch/Desktop/nick/jetpack_5/Jetson_Linux_R35.4.1_aarch64/Linux_for_Tegra/sources/tegra/optee-src/nv-optee/optee/optee_os/ldelf/ta_elf.c:94 (discriminator 1)
    21d0:	b50000b3 	cbnz	x19, 21e4 <ta_elf_find_elf+0x2c>
/home/ssysarch/Desktop/nick/jetpack_5/Jetson_Linux_R35.4.1_aarch64/Linux_for_Tegra/sources/tegra/optee-src/nv-optee/optee/optee_os/ldelf/ta_elf.c:99
    21d4:	aa1303e0 	mov	x0, x19
    21d8:	a94153f3 	ldp	x19, x20, [sp, #16]
    21dc:	a8c27bfd 	ldp	x29, x30, [sp], #32
    21e0:	d65f03c0 	ret
/home/ssysarch/Desktop/nick/jetpack_5/Jetson_Linux_R35.4.1_aarch64/Linux_for_Tegra/sources/tegra/optee-src/nv-optee/optee/optee_os/ldelf/ta_elf.c:95
    21e4:	91044261 	add	x1, x19, #0x110
    21e8:	aa1403e0 	mov	x0, x20
    21ec:	d2800202 	mov	x2, #0x10                  	// #16
    21f0:	94000dd8 	bl	5950 <memcmp>
    21f4:	34ffff00 	cbz	w0, 21d4 <ta_elf_find_elf+0x1c>
/home/ssysarch/Desktop/nick/jetpack_5/Jetson_Linux_R35.4.1_aarch64/Linux_for_Tegra/sources/tegra/optee-src/nv-optee/optee/optee_os/ldelf/ta_elf.c:94 (discriminator 2)
    21f8:	f9409273 	ldr	x19, [x19, #288]
    21fc:	17fffff5 	b	21d0 <ta_elf_find_elf+0x18>

0000000000002200 <queue_elf>:
queue_elf():
/home/ssysarch/Desktop/nick/jetpack_5/Jetson_Linux_R35.4.1_aarch64/Linux_for_Tegra/sources/tegra/optee-src/nv-optee/optee/optee_os/ldelf/ta_elf.c:77
    2200:	a9be7bfd 	stp	x29, x30, [sp, #-32]!
    2204:	910003fd 	mov	x29, sp
    2208:	f9000bf3 	str	x19, [sp, #16]
    220c:	aa0003f3 	mov	x19, x0
/home/ssysarch/Desktop/nick/jetpack_5/Jetson_Linux_R35.4.1_aarch64/Linux_for_Tegra/sources/tegra/optee-src/nv-optee/optee/optee_os/ldelf/ta_elf.c:78
    2210:	97ffffea 	bl	21b8 <ta_elf_find_elf>
/home/ssysarch/Desktop/nick/jetpack_5/Jetson_Linux_R35.4.1_aarch64/Linux_for_Tegra/sources/tegra/optee-src/nv-optee/optee/optee_os/ldelf/ta_elf.c:80
    2214:	b50001c0 	cbnz	x0, 224c <queue_elf+0x4c>
/home/ssysarch/Desktop/nick/jetpack_5/Jetson_Linux_R35.4.1_aarch64/Linux_for_Tegra/sources/tegra/optee-src/nv-optee/optee/optee_os/ldelf/ta_elf.c:83
    2218:	aa1303e0 	mov	x0, x19
    221c:	97fff92e 	bl	6d4 <queue_elf_helper>
/home/ssysarch/Desktop/nick/jetpack_5/Jetson_Linux_R35.4.1_aarch64/Linux_for_Tegra/sources/tegra/optee-src/nv-optee/optee/optee_os/ldelf/ta_elf.c:84
    2220:	b5000180 	cbnz	x0, 2250 <queue_elf+0x50>
/home/ssysarch/Desktop/nick/jetpack_5/Jetson_Linux_R35.4.1_aarch64/Linux_for_Tegra/sources/tegra/optee-src/nv-optee/optee/optee_os/ldelf/ta_elf.c:85
    2224:	b0000024 	adrp	x4, 7000 <trace_ext_prefix+0x509>
    2228:	91038884 	add	x4, x4, #0xe2
    222c:	52800023 	mov	w3, #0x1                   	// #1
    2230:	52800022 	mov	w2, #0x1                   	// #1
    2234:	52800aa1 	mov	w1, #0x55                  	// #85
    2238:	b0000020 	adrp	x0, 7000 <trace_ext_prefix+0x509>
    223c:	910ac800 	add	x0, x0, #0x2b2
    2240:	940011a3 	bl	68cc <trace_printf>
    2244:	129ffe60 	mov	w0, #0xffff000c            	// #-65524
    2248:	97fff7c8 	bl	168 <_ldelf_return>
/home/ssysarch/Desktop/nick/jetpack_5/Jetson_Linux_R35.4.1_aarch64/Linux_for_Tegra/sources/tegra/optee-src/nv-optee/optee/optee_os/ldelf/ta_elf.c:81
    224c:	d2800000 	mov	x0, #0x0                   	// #0
/home/ssysarch/Desktop/nick/jetpack_5/Jetson_Linux_R35.4.1_aarch64/Linux_for_Tegra/sources/tegra/optee-src/nv-optee/optee/optee_os/ldelf/ta_elf.c:88
    2250:	f9400bf3 	ldr	x19, [sp, #16]
    2254:	a8c27bfd 	ldp	x29, x30, [sp], #32
    2258:	d65f03c0 	ret

000000000000225c <add_deps_from_segment>:
add_deps_from_segment():
/home/ssysarch/Desktop/nick/jetpack_5/Jetson_Linux_R35.4.1_aarch64/Linux_for_Tegra/sources/tegra/optee-src/nv-optee/optee/optee_os/ldelf/ta_elf.c:1031
    225c:	a9b87bfd 	stp	x29, x30, [sp, #-128]!
/home/ssysarch/Desktop/nick/jetpack_5/Jetson_Linux_R35.4.1_aarch64/Linux_for_Tegra/sources/tegra/optee-src/nv-optee/optee/optee_os/ldelf/ta_elf.c:1041
    2260:	7100083f 	cmp	w1, #0x2
/home/ssysarch/Desktop/nick/jetpack_5/Jetson_Linux_R35.4.1_aarch64/Linux_for_Tegra/sources/tegra/optee-src/nv-optee/optee/optee_os/ldelf/ta_elf.c:1031
    2264:	910003fd 	mov	x29, sp
    2268:	a90153f3 	stp	x19, x20, [sp, #16]
    226c:	a9025bf5 	stp	x21, x22, [sp, #32]
    2270:	a90363f7 	stp	x23, x24, [sp, #48]
    2274:	a9046bf9 	stp	x25, x26, [sp, #64]
    2278:	f9002bfb 	str	x27, [sp, #80]
