
/home/ssysarch/Desktop/nick/jetpack_5/Jetson_Linux_R35.4.1_aarch64/Linux_for_Tegra/sources/tegra/optee-src/nv-optee/optee/build/t234/ta/socket/873bcd08-c2c3-11e6-a937-d0bf9c45c61c.elf:     file format elf64-littleaarch64
/home/ssysarch/Desktop/nick/jetpack_5/Jetson_Linux_R35.4.1_aarch64/Linux_for_Tegra/sources/tegra/optee-src/nv-optee/optee/build/t234/ta/socket/873bcd08-c2c3-11e6-a937-d0bf9c45c61c.elf
architecture: aarch64, flags 0x00000150:
HAS_SYMS, DYNAMIC, D_PAGED
start address 0x0000000000000508

Program Header:
    LOAD off    0x0000000000001000 vaddr 0x0000000000000000 paddr 0x0000000000000000 align 2**12
         filesz 0x0000000000011c58 memsz 0x0000000000011c58 flags r-x
    LOAD off    0x0000000000013000 vaddr 0x0000000000012000 paddr 0x0000000000012000 align 2**12
         filesz 0x000000000000065c memsz 0x000000000000bf08 flags rw-
 DYNAMIC off    0x0000000000013000 vaddr 0x0000000000012000 paddr 0x0000000000012000 align 2**3
         filesz 0x0000000000000110 memsz 0x0000000000000110 flags rw-
   STACK off    0x0000000000000000 vaddr 0x0000000000000000 paddr 0x0000000000000000 align 2**4
         filesz 0x0000000000000000 memsz 0x0000000000000000 flags rw-

Dynamic Section:
  HASH                 0x00000000000117f0
  GNU_HASH             0x0000000000011700
  STRTAB               0x00000000000117c0
  SYMTAB               0x0000000000011730
  STRSZ                0x000000000000002e
  SYMENT               0x0000000000000018
  DEBUG                0x0000000000000000
  RELA                 0x0000000000011820
  RELASZ               0x0000000000000648
  RELAENT              0x0000000000000018
  FLAGS_1              0x0000000008000000
  RELACOUNT            0x000000000000002d
private flags = 0:

Sections:
Idx Name          Size      VMA               LMA               File off  Algn
  0 .ta_head      00000020  0000000000000000  0000000000000000  00001000  2**3
                  CONTENTS, ALLOC, LOAD, READONLY, DATA
  1 .text         0000d730  0000000000000020  0000000000000020  00001020  2**4
                  CONTENTS, ALLOC, LOAD, READONLY, CODE
  2 .eh_frame     00002c0c  000000000000d750  000000000000d750  0000e750  2**3
                  CONTENTS, ALLOC, LOAD, READONLY, DATA
  3 .rodata       0000139b  0000000000010360  0000000000010360  00011360  2**3
                  CONTENTS, ALLOC, LOAD, READONLY, DATA
  4 .gnu.hash     00000030  0000000000011700  0000000000011700  00012700  2**3
                  CONTENTS, ALLOC, LOAD, READONLY, DATA
  5 .dynsym       00000090  0000000000011730  0000000000011730  00012730  2**3
                  CONTENTS, ALLOC, LOAD, READONLY, DATA
  6 .dynstr       0000002e  00000000000117c0  00000000000117c0  000127c0  2**0
                  CONTENTS, ALLOC, LOAD, READONLY, DATA
  7 .hash         0000002c  00000000000117f0  00000000000117f0  000127f0  2**3
                  CONTENTS, ALLOC, LOAD, READONLY, DATA
  8 .rela.dyn     00000438  0000000000011820  0000000000011820  00012820  2**3
                  CONTENTS, ALLOC, LOAD, READONLY, DATA
  9 .dynamic      00000110  0000000000012000  0000000000012000  00013000  2**3
                  CONTENTS, ALLOC, LOAD, DATA
 10 .got          000000d0  0000000000012110  0000000000012110  00013110  2**3
                  CONTENTS, ALLOC, LOAD, DATA
 11 .rela.got     00000210  00000000000121e0  00000000000121e0  000131e0  2**3
                  CONTENTS, ALLOC, LOAD, READONLY, DATA
 12 .data         0000026c  00000000000123f0  00000000000123f0  000133f0  2**3
                  CONTENTS, ALLOC, LOAD, DATA
 13 .bss          0000b8a8  0000000000012660  0000000000012660  0001365c  2**3
                  ALLOC
 14 .debug_info   0001bf4a  0000000000000000  0000000000000000  0001365c  2**0
                  CONTENTS, READONLY, DEBUGGING
 15 .debug_abbrev 0000478d  0000000000000000  0000000000000000  0002f5a6  2**0
                  CONTENTS, READONLY, DEBUGGING
 16 .debug_loc    00026f0a  0000000000000000  0000000000000000  00033d33  2**0
                  CONTENTS, READONLY, DEBUGGING
 17 .debug_aranges 00000a10  0000000000000000  0000000000000000  0005ac40  2**4
                  CONTENTS, READONLY, DEBUGGING
 18 .debug_ranges 00001f20  0000000000000000  0000000000000000  0005b650  2**4
                  CONTENTS, READONLY, DEBUGGING
 19 .debug_macro  0001a11e  0000000000000000  0000000000000000  0005d570  2**0
                  CONTENTS, READONLY, DEBUGGING
 20 .debug_line   00011060  0000000000000000  0000000000000000  0007768e  2**0
                  CONTENTS, READONLY, DEBUGGING
 21 .debug_str    0001b20b  0000000000000000  0000000000000000  000886ee  2**0
                  CONTENTS, READONLY, DEBUGGING
 22 .comment      0000001f  0000000000000000  0000000000000000  000a38f9  2**0
                  CONTENTS, READONLY
SYMBOL TABLE:
0000000000000000 l    d  .ta_head	0000000000000000 .ta_head
0000000000000020 l    d  .text	0000000000000000 .text
000000000000d750 l    d  .eh_frame	0000000000000000 .eh_frame
0000000000010360 l    d  .rodata	0000000000000000 .rodata
0000000000011700 l    d  .gnu.hash	0000000000000000 .gnu.hash
0000000000011730 l    d  .dynsym	0000000000000000 .dynsym
00000000000117c0 l    d  .dynstr	0000000000000000 .dynstr
00000000000117f0 l    d  .hash	0000000000000000 .hash
0000000000011820 l    d  .rela.dyn	0000000000000000 .rela.dyn
0000000000012000 l    d  .dynamic	0000000000000000 .dynamic
0000000000012110 l    d  .got	0000000000000000 .got
00000000000121e0 l    d  .rela.got	0000000000000000 .rela.got
00000000000123f0 l    d  .data	0000000000000000 .data
0000000000012660 l    d  .bss	0000000000000000 .bss
0000000000000000 l    d  .debug_info	0000000000000000 .debug_info
0000000000000000 l    d  .debug_abbrev	0000000000000000 .debug_abbrev
0000000000000000 l    d  .debug_loc	0000000000000000 .debug_loc
0000000000000000 l    d  .debug_aranges	0000000000000000 .debug_aranges
0000000000000000 l    d  .debug_ranges	0000000000000000 .debug_ranges
0000000000000000 l    d  .debug_macro	0000000000000000 .debug_macro
0000000000000000 l    d  .debug_line	0000000000000000 .debug_line
0000000000000000 l    d  .debug_str	0000000000000000 .debug_str
0000000000000000 l    d  .comment	0000000000000000 .comment
0000000000000000 l    df *ABS*	0000000000000000 user_ta_header.c
0000000000010368 l     O .rodata	0000000000000001 __compound_literal.6
000000000001036c l     O .rodata	0000000000000004 __compound_literal.5
0000000000010370 l     O .rodata	0000000000000004 __compound_literal.4
0000000000010374 l     O .rodata	0000000000000004 __compound_literal.3
0000000000010378 l     O .rodata	0000000000000001 __compound_literal.2
0000000000010379 l     O .rodata	0000000000000001 __compound_literal.1
000000000001037a l     O .rodata	0000000000000001 __compound_literal.0
0000000000000000 l    df *ABS*	0000000000000000 memcpy.c
0000000000000000 l    df *ABS*	0000000000000000 ta_entry.c
00000000000103c6 l     O .rodata	0000000000000012 __func__.4685
00000000000103d8 l     O .rodata	0000000000000012 __func__.4694
00000000000103ea l     O .rodata	000000000000000f __func__.4701
00000000000103f9 l     O .rodata	000000000000000e __func__.4708
0000000000010407 l     O .rodata	000000000000000e __func__.4717
0000000000010415 l     O .rodata	000000000000000f __func__.4724
0000000000010424 l     O .rodata	000000000000000f __func__.4733
0000000000000000 l    df *ABS*	0000000000000000 bget_malloc.c
0000000000000524 l     F .text	0000000000000010 _assert_trap
0000000000000534 l     F .text	0000000000000038 raw_malloc_return_hook.isra.0
000000000000056c l     F .text	0000000000000028 bget_buf_size.part.0
0000000000010c4a l     O .rodata	000000000000000e __func__.3996
0000000000010c58 l     O .rodata	0000000000000005 __func__.3908
0000000000010c5d l     O .rodata	0000000000000006 __func__.3928
0000000000010c63 l     O .rodata	0000000000000005 __func__.3949
0000000000010c68 l     O .rodata	0000000000000006 __func__.3939
0000000000010c6e l     O .rodata	0000000000000006 __func__.3958
0000000000010c74 l     O .rodata	0000000000000007 __func__.3968
0000000000010c7b l     O .rodata	0000000000000014 __func__.4197
0000000000010c8f l     O .rodata	0000000000000013 __func__.4061
00000000000124c8 l     O .data	0000000000000080 malloc_ctx
0000000000000000 l    df *ABS*	0000000000000000 stack_check.c
0000000000000000 l    df *ABS*	0000000000000000 strndup.c
0000000000000000 l    df *ABS*	0000000000000000 memset.c
0000000000000000 l    df *ABS*	0000000000000000 strnlen.c
0000000000000000 l    df *ABS*	0000000000000000 trace.c
0000000000001524 l     F .text	000000000000010c append
0000000000010cf4 l     O .rodata	0000000000000005 lvl_strs.3595
0000000000010cf9 l     O .rodata	000000000000000a __func__.3657
0000000000000000 l    df *ABS*	0000000000000000 snprintk.c
0000000000001cd4 l     F .text	0000000000000be0 kprintf.constprop.0
00000000000104be l     O .rodata	0000000000000011 HEXDIGITS
00000000000104cf l     O .rodata	0000000000000011 hexdigits
0000000000000000 l    df *ABS*	0000000000000000 memchr.c
0000000000000000 l    df *ABS*	0000000000000000 strlen.c
0000000000000000 l    df *ABS*	0000000000000000 assert.c
0000000000000000 l    df *ABS*	0000000000000000 trace_ext.c
0000000000000000 l    df *ABS*	0000000000000000 tee_tcpudp_socket.c
0000000000002b80 l     F .text	000000000000002c sock_error
0000000000002bac l     F .text	0000000000000068 sock_recv
0000000000002c14 l     F .text	0000000000000060 sock_send
0000000000002c74 l     F .text	00000000000000d4 tcp_open
0000000000002d48 l     F .text	00000000000000d4 udp_open
0000000000002e1c l     F .text	0000000000000094 tcp_ioctl
0000000000002eb0 l     F .text	0000000000000094 udp_ioctl
0000000000002f44 l     F .text	0000000000000040 sock_close
0000000000012560 l     O .data	0000000000000038 udp_socket_instance
0000000000012598 l     O .data	0000000000000038 tcp_socket_instance
0000000000000000 l    df *ABS*	0000000000000000 user_ta_entry.c
0000000000002f84 l     F .text	00000000000000b0 _get_fn_array
0000000000003034 l     F .text	0000000000000090 _fini_iterate_phdr_cb
00000000000030c4 l     F .text	0000000000000028 ta_header_get_session
00000000000030ec l     F .text	000000000000006c to_utee_params
0000000000003158 l     F .text	000000000000005c from_utee_params
00000000000031b4 l     F .text	0000000000000094 _init_iterate_phdr_cb
00000000000033b0 l     F .text	0000000000000098 ta_header_remove_session
0000000000010db1 l     O .rodata	0000000000000016 __func__.5387
0000000000012660 l     O .bss	0000000000000008 _num_mod_init
0000000000012668 l     O .bss	0000000000000001 init_done
00000000000125d0 l     O .data	0000000000000010 ta_sessions
00000000000125e0 l     O .data	0000000000000010 __phdr_info_head
0000000000000000 l    df *ABS*	0000000000000000 utee_syscalls_a64.o
0000000000000000 l    df *ABS*	0000000000000000 abort.c
0000000000000000 l    df *ABS*	0000000000000000 tee_api.c
000000000000399c l     F .text	000000000000006c copy_param
0000000000003a08 l     F .text	0000000000000070 copy_gp11_param
0000000000003a78 l     F .text	0000000000000094 check_mem_access_rights_params
0000000000003b0c l     F .text	0000000000000044 buf_overlaps_no_share_heap
0000000000003b50 l     F .text	00000000000000a8 check_invoke_param
0000000000003bf8 l     F .text	00000000000000a8 update_out_param
0000000000003ca0 l     F .text	00000000000000ac update_out_gp11_param
0000000000003f1c l     F .text	000000000000019c map_tmp_param
00000000000126d0 l     O .bss	0000000000000008 tee_api_instance_data
00000000000103a0 l     O .rodata	000000000000000b __func__.5423
0000000000000000 l    df *ABS*	0000000000000000 tee_api_arith_mpi.c
0000000000004a5c l     F .text	0000000000000030 api_panic
0000000000004a8c l     F .text	0000000000000030 mpi_panic
0000000000004abc l     F .text	0000000000000098 get_mpi
0000000000004b54 l     F .text	0000000000000064 copy_mpi_to_bigint
0000000000004bb8 l     F .text	000000000000014c bigint_binary
0000000000004d04 l     F .text	0000000000000020 mpi_is_odd
0000000000004d24 l     F .text	0000000000000028 rng_read
0000000000004d4c l     F .text	0000000000000574 mpi_egcd
00000000000126e0 l     O .bss	0000000000003800 data.5215
00000000000057ec l     F .text	00000000000001d0 bigint_binary_mod
0000000000010ea8 l     O .rodata	0000000000000008 __func__.5249
0000000000010eb0 l     O .rodata	000000000000000e __func__.5387
0000000000010ebe l     O .rodata	0000000000000009 __func__.5551
0000000000010ec7 l     O .rodata	0000000000000012 __func__.5216
0000000000010ed9 l     O .rodata	000000000000000f __func__.5255
0000000000010ee8 l     O .rodata	000000000000001f __func__.5283
0000000000010f07 l     O .rodata	0000000000000019 __func__.5297
0000000000010f20 l     O .rodata	0000000000000012 __func__.5406
0000000000010f32 l     O .rodata	0000000000000015 __func__.5328
0000000000010f47 l     O .rodata	000000000000000e __func__.5427
0000000000010f55 l     O .rodata	000000000000000e __func__.5456
0000000000010f63 l     O .rodata	000000000000000e __func__.5464
0000000000010f71 l     O .rodata	0000000000000011 __func__.5497
0000000000010f82 l     O .rodata	0000000000000018 __func__.5510
0000000000010f9a l     O .rodata	0000000000000011 __func__.5531
0000000000010fab l     O .rodata	000000000000001d __func__.5608
0000000000010fc8 l     O .rodata	0000000000000019 __func__.5681
0000000000010fe1 l     O .rodata	0000000000000015 __func__.5696
0000000000000000 l    df *ABS*	0000000000000000 tee_api_panic.c
0000000000006b88 l     F .text	000000000000001c check_access
0000000000006bac l     F .text	0000000000000044 check_res
0000000000011061 l     O .rodata	000000000000000a __func__.4862
0000000000000000 l    df *ABS*	0000000000000000 tee_api_property.c
0000000000006e74 l     F .text	000000000000006c propset_get
0000000000006ee0 l     F .text	000000000000002c is_propset_pseudo_handle
0000000000006f0c l     F .text	0000000000000148 propget_get_ext_prop
0000000000007054 l     F .text	00000000000001b0 propget_get_property
00000000000104f0 l     O .rodata	0000000000000004 __compound_literal.3
00000000000104f4 l     O .rodata	0000000000000004 __compound_literal.2
00000000000104f8 l     O .rodata	0000000000000004 __compound_literal.1
00000000000104fc l     O .rodata	0000000000000004 __compound_literal.0
0000000000000000 l    df *ABS*	0000000000000000 tee_socket_pta.c
0000000000007dec l     F .text	0000000000000088 invoke_socket_pta
0000000000010500 l     O .rodata	0000000000000010 socket_uuid.4553
0000000000015ee0 l     O .bss	0000000000000008 sess.4552
0000000000000000 l    df *ABS*	0000000000000000 tee_system_pta.c
000000000000812c l     F .text	0000000000000088 invoke_system_pta
0000000000010510 l     O .rodata	0000000000000010 uuid.4625
0000000000010520 l     O .rodata	000000000000000a __func__.4645
000000000001052a l     O .rodata	0000000000000017 __func__.4657
0000000000015ee8 l     O .bss	0000000000000008 sess.4624
0000000000000000 l    df *ABS*	0000000000000000 tcb.c
00000000000111d0 l     O .rodata	0000000000000010 __func__.4097
00000000000111e0 l     O .rodata	0000000000000010 __func__.4124
0000000000015ef0 l     O .bss	0000000000000008 _tls_size
0000000000015ef8 l     O .bss	0000000000000008 _tcb
0000000000000000 l    df *ABS*	0000000000000000 base64.c
0000000000010548 l     O .rodata	0000000000000041 base64_table
0000000000000000 l    df *ABS*	0000000000000000 bignum.c
00000000000089e0 l     F .text	0000000000000064 mpi_get_digit
0000000000008a44 l     F .text	000000000000040c mpi_mul_hlp
0000000000008e50 l     F .text	0000000000000038 mpi_montg_init.isra.0
0000000000008e88 l     F .text	00000000000000ac mpi_bigendian_to_host.part.0
0000000000008f34 l     F .text	00000000000000c0 mpi_fill_random_internal
0000000000008ff4 l     F .text	0000000000000148 mpi_montmul.isra.0
000000000000913c l     F .text	0000000000000078 mpi_montred
0000000000009340 l     F .text	000000000000006c mbedtls_mpi_resize_clear
000000000000b078 l     F .text	00000000000000c4 mpi_check_small_factors
000000000000ba5c l     F .text	00000000000002a4 mpi_miller_rabin
000000000001058c l     O .rodata	00000000000002a0 small_prime
000000000001082c l     O .rodata	0000000000000024 gcd_pairs
0000000000000000 l    df *ABS*	0000000000000000 constant_time.c
000000000000cb70 l     F .text	0000000000000020 mbedtls_ct_uchar_mask_of_range
0000000000000000 l    df *ABS*	0000000000000000 platform_util.c
0000000000012650 l     O .data	0000000000000008 memset_func
0000000000000000 l    df *ABS*	0000000000000000 snprintf.c
0000000000000000 l    df *ABS*	0000000000000000 memmove.c
0000000000000000 l    df *ABS*	0000000000000000 strcmp.c
0000000000000000 l    df *ABS*	0000000000000000 strlcpy.c
0000000000000000 l    df *ABS*	0000000000000000 mempool.c
00000000000116cf l     O .rodata	0000000000000013 __func__.3711
00000000000116e2 l     O .rodata	000000000000000b __func__.3692
00000000000116ed l     O .rodata	000000000000000e __func__.3717
0000000000000000 l    df *ABS*	0000000000000000 consttime_memcmp.c
0000000000000000 l    df *ABS*	0000000000000000 
0000000000012000 l     O *ABS*	0000000000000000 _DYNAMIC
0000000000012128 l     O *ABS*	0000000000000000 _GLOBAL_OFFSET_TABLE_
0000000000002b10 g     F .text	0000000000000070 putchar
0000000000005440 g     F .text	0000000000000008 __GP11_TEE_BigIntConvertFromOctetString
000000000000696c g     F .text	0000000000000004 TEE_BigIntConvertToFMM
00000000000061e0 g     F .text	000000000000000c TEE_BigIntSquareMod
00000000000059bc g     F .text	00000000000001a0 TEE_BigIntShiftRight
00000000000010ec g     F .text	000000000000011c raw_malloc_add_pool
000000000000832c g     F .text	0000000000000110 tee_invoke_supp_plugin
0000000000009258 g     F .text	00000000000000e8 mbedtls_mpi_grow
0000000000007b5c g     F .text	0000000000000128 __GP11_TEE_GetPropertyName
0000000000004964 g     F .text	00000000000000d8 TEE_Realloc
0000000000006e48 g     F .text	000000000000002c __utee_check_inout_annotation
0000000000000ea4 g     F .text	0000000000000010 raw_free
00000000000029d0 g     F .text	0000000000000100 printf
0000000000005d58 g     F .text	000000000000002c TEE_BigIntAbs
00000000000036e8 g     F .text	000000000000000c _utee_log
0000000000004354 g     F .text	0000000000000184 TEE_InvokeTACommand
0000000000006bf0 g     F .text	0000000000000064 __utee_check_outbuf_annotation
00000000000091c4 g     F .text	0000000000000028 mbedtls_mpi_init_mempool
0000000000003868 g     F .text	000000000000000c _utee_cryp_random_number_generate
00000000000099c0 g     F .text	00000000000000c4 mbedtls_mpi_write_binary
0000000000001490 g     F .text	0000000000000050 strndup
0000000000001bb0 g     F .text	0000000000000058 vsnprintk
000000000000a23c g     F .text	0000000000000074 mbedtls_mpi_sub_int
000000000000d478 g     F .text	000000000000005c memmove
000000000000d350 g     F .text	00000000000000d0 snprintf
0000000000005770 g     F .text	000000000000007c TEE_BigIntCmpS32
0000000000004674 g     F .text	0000000000000008 __GP11_TEE_MemMove
0000000000012548 g     O .data	0000000000000008 __stack_chk_guard
000000000000d0b4 g     F .text	000000000000027c mbedtls_ct_rsaes_pkcs1_v15_unpadding
00000000000093ac g     F .text	0000000000000120 mbedtls_mpi_shrink
000000000000468c g     F .text	0000000000000008 __GP11_TEE_MemFill
0000000000005d84 g     F .text	000000000000000c TEE_BigIntAdd
0000000000003808 g     F .text	000000000000000c _utee_cryp_obj_restrict_usage
0000000000010388 g     O .rodata	0000000000000008 ta_heap_size
00000000000038b0 g     F .text	000000000000000c _utee_asymm_operate
0000000000008788 g     F .text	0000000000000018 _base64_enc_len
000000000000a504 g     F .text	000000000000020c mbedtls_mpi_read_string
0000000000005d9c g     F .text	00000000000000e4 TEE_BigIntNeg
0000000000003904 g     F .text	000000000000000c _utee_storage_free_enum
0000000000000020 g       .text	0000000000000000 __text_start
0000000000007d0c g     F .text	00000000000000e0 TEE_GetNextProperty
0000000000009b94 g     F .text	00000000000000c0 mbedtls_mpi_shift_r
000000000000144c g     F .text	0000000000000014 malloc_buffer_overlaps_heap
00000000000037b4 g     F .text	000000000000000c _utee_hash_init
00000000000061c8 g     F .text	000000000000000c TEE_BigIntSubMod
000000000000c3fc g     F .text	000000000000034c mbedtls_mpi_gen_prime
000000000000788c g     F .text	0000000000000098 TEE_GetPropertyAsBinaryBlock
0000000000009688 g     F .text	000000000000002c mbedtls_mpi_get_bit
0000000000010380 g     O .rodata	0000000000000008 __ta_no_share_heap_size
0000000000009884 g     F .text	0000000000000084 mbedtls_mpi_read_binary
0000000000001878 g     F .text	00000000000000e0 trace_printf
000000000000b144 g     F .text	0000000000000008 mbedtls_mpi_montmul
0000000000003970 g     F .text	000000000000000c _utee_cache_operation
0000000000000020 g     F .text	00000000000000ec memcpy
0000000000006970 g     F .text	00000000000000d0 TEE_BigIntConvertFromFMM
0000000000006ba4 g     F .text	0000000000000008 TEE_Panic
0000000000002ad0 g     F .text	0000000000000040 puts
0000000000006a40 g     F .text	0000000000000148 TEE_BigIntComputeFMM
0000000000001414 g     F .text	0000000000000010 malloc_get_stats
00000000000047b0 g     F .text	0000000000000028 TEE_GetREETime
00000000000013d8 g     F .text	000000000000003c raw_malloc_get_stats
00000000000123f0 g     O .data	00000000000000d8 ta_props
00000000000048fc g     F .text	0000000000000008 __GP11_TEE_Malloc
000000000000420c g     F .text	0000000000000148 __GP11_TEE_OpenTASession
0000000000006cb8 g     F .text	000000000000003c __utee_check_instring_annotation
0000000000001018 g     F .text	0000000000000018 malloc
0000000000007b48 g     F .text	0000000000000004 TEE_FreePropertyEnumerator
000000000000cbe8 g     F .text	0000000000000010 mbedtls_ct_mpi_uint_mask
000000000000d420 g     F .text	0000000000000058 vsnprintf
0000000000012658 g     O .data	0000000000000004 trace_level
00000000000056dc g     F .text	0000000000000094 TEE_BigIntCmp
0000000000010360 g     O .rodata	0000000000000008 ta_num_props
0000000000000bc4 g     F .text	00000000000000d0 bgetr
00000000000038c8 g     F .text	000000000000000c _utee_storage_obj_open
0000000000004680 g     F .text	0000000000000008 __GP11_TEE_MemCompare
000000000000d6cc g     F .text	0000000000000014 mempool_free
00000000000037c0 g     F .text	000000000000000c _utee_hash_update
0000000000005448 g     F .text	00000000000000c8 TEE_BigIntConvertToOctetString
0000000000009794 g     F .text	000000000000005c mbedtls_mpi_bitlen
0000000000005b64 g     F .text	0000000000000080 TEE_BigIntGetBit
0000000000010390 g     O .rodata	0000000000000003 trace_ext_prefix
0000000000003928 g     F .text	000000000000000c _utee_storage_next_enum
0000000000000e94 g     F .text	0000000000000010 raw_malloc
0000000000000878 g     F .text	0000000000000088 bgetz
000000000000cbf8 g     F .text	0000000000000018 mbedtls_ct_size_bool_eq
0000000000004664 g     F .text	000000000000000c TEE_GetInstanceData
00000000000046bc g     F .text	000000000000003c TEE_Wait
000000000000a2b0 g     F .text	00000000000001ac mbedtls_mpi_mul_mpi
0000000000005b5c g     F .text	0000000000000008 __GP11_TEE_BigIntShiftRight
0000000000004a4c g     F .text	0000000000000008 TEE_CacheFlush
000000000000165c g     F .text	000000000000021c trace_vprintf
0000000000000114 g     F .text	0000000000000004 TA_DestroyEntryPoint
00000000000091b4 g     F .text	0000000000000010 mbedtls_mpi_init
00000000000038e0 g     F .text	000000000000000c _utee_storage_obj_del
0000000000009740 g     F .text	0000000000000054 mbedtls_mpi_lsb
0000000000002948 g     F .text	0000000000000044 _assert_log
000000000000379c g     F .text	000000000000000c _utee_cryp_state_copy
000000000000694c g     F .text	0000000000000008 TEE_BigIntFMMContextSizeInU32
0000000000008264 g     F .text	00000000000000c8 tee_unmap
000000000000cc2c g     F .text	0000000000000030 mbedtls_ct_uint_if
00000000000052c0 g     F .text	0000000000000050 _TEE_MathAPI_Init
000000000000843c g     F .text	0000000000000240 __utee_tcb_init
000000000000a0b4 g     F .text	0000000000000088 mbedtls_mpi_add_mpi
000000000000397c g     F .text	0000000000000020 abort
000000000000bd00 g     F .text	00000000000001b8 mbedtls_mpi_random
0000000000001460 g     F .text	0000000000000030 __stack_chk_fail
0000000000006dbc g     F .text	000000000000002c __utee_check_out_annotation
0000000000015f08 g     O .bss	0000000000008000 ta_heap
00000000000061ec g     F .text	0000000000000150 TEE_BigIntInvMod
0000000000003248 g     F .text	0000000000000158 __utee_call_elf_init_fn
0000000000000120 g     F .text	0000000000000004 TA_CloseSessionEntryPoint
0000000000003724 g     F .text	000000000000000c _utee_close_ta_session
0000000000006914 g     F .text	0000000000000008 __GP11_TEE_BigIntInitFMMContext
000000000000a13c g     F .text	000000000000008c mbedtls_mpi_sub_mpi
000000000000d6e0 g     F .text	0000000000000070 consttime_memcmp
00000000000036dc g     F .text	000000000000000c _utee_return
00000000000036f4 g     F .text	000000000000000c __utee_panic
000000000000cb90 g     F .text	0000000000000048 mbedtls_ct_memcmp
000000000000867c g     F .text	000000000000001c __tls_get_addr
00000000000014fc g     F .text	0000000000000028 strnlen
0000000000000124 g     F .text	00000000000003e4 TA_InvokeCommandEntryPoint
00000000000033a0 g     F .text	0000000000000010 __utee_call_elf_fini_fn
00000000000010a8 g     F .text	0000000000000010 free_wipe
000000000000d618 g     F .text	0000000000000064 mempool_alloc
00000000000036d0 g     F .text	000000000000000c _utee_panic
00000000000010c0 g     F .text	000000000000002c raw_malloc_init_ctx
000000000000d67c g     F .text	0000000000000050 mempool_calloc
0000000000003964 g     F .text	000000000000000c _utee_cryp_obj_generate_key
000000000000394c g     F .text	000000000000000c _utee_storage_obj_trunc
00000000000125f0 g     O .data	0000000000000060 tee_props
0000000000003754 g     F .text	000000000000000c _utee_unmask_cancellation
0000000000007af4 g     F .text	000000000000000c TEE_ResetPropertyEnumerator
0000000000001030 g     F .text	000000000000001c calloc
00000000000047d8 g     F .text	0000000000000124 TEE_Malloc
0000000000003e94 g     F .text	0000000000000088 TEE_CheckMemoryAccessRights
0000000000007924 g     F .text	00000000000000e8 TEE_GetPropertyAsUUID
0000000000003700 g     F .text	000000000000000c _utee_get_property
0000000000005c58 g     F .text	00000000000000b0 TEE_BigIntSetBit
0000000000009620 g     F .text	0000000000000068 mbedtls_mpi_lset
0000000000000118 g     F .text	0000000000000008 TA_OpenSessionEntryPoint
0000000000008698 g     F .text	00000000000000f0 dl_iterate_phdr
000000000001df08 g       .bss	0000000000000000 __ftrace_buf_end
0000000000012670 g     O .bss	0000000000000004 ta_param_types
000000000000ac44 g     F .text	0000000000000074 mbedtls_mpi_div_int
000000000000c310 g     F .text	00000000000000dc mbedtls_mpi_is_prime_ext
0000000000006880 g     F .text	0000000000000084 TEE_BigIntIsProbablePrime
000000000000a45c g     F .text	00000000000000a8 mbedtls_mpi_mul_int
000000000000b150 g     F .text	00000000000006cc mbedtls_mpi_exp_mod
000000000000ce04 g     F .text	00000000000000bc mbedtls_mpi_safe_cond_assign
0000000000007204 g     F .text	000000000000025c TEE_GetPropertyAsString
000000000000cfbc g     F .text	00000000000000f8 mbedtls_mpi_lt_mpi_ct
0000000000007e74 g     F .text	00000000000000dc __tee_socket_pta_open
0000000000005310 g     F .text	0000000000000060 TEE_BigIntInit
0000000000005510 g     F .text	0000000000000060 __GP11_TEE_BigIntConvertToOctetString
0000000000005d08 g     F .text	0000000000000050 TEE_BigIntAssign
0000000000006cf4 g     F .text	0000000000000064 __utee_check_outstring_annotation
0000000000004670 g     F .text	0000000000000004 TEE_MemMove
000000000000d330 g     F .text	0000000000000020 mbedtls_platform_zeroize
0000000000005378 g     F .text	00000000000000c8 TEE_BigIntConvertFromOctetString
00000000000038a4 g     F .text	000000000000000c _utee_authenc_dec_final
0000000000009c54 g     F .text	000000000000009c mbedtls_mpi_cmp_abs
0000000000003934 g     F .text	000000000000000c _utee_storage_obj_read
0000000000002900 g     F .text	000000000000002c memchr
0000000000003dd4 g     F .text	0000000000000060 TEE_UnmaskCancellation
000000000000c748 g     F .text	0000000000000428 mbedtls_mpi_self_test
0000000000012558 g     O .data	0000000000000008 TEE_tcpSocket
0000000000012550 g     O .data	0000000000000008 TEE_udpSocket
0000000000006c54 g     F .text	0000000000000064 __utee_check_gp11_outbuf_annotation
0000000000003958 g     F .text	000000000000000c _utee_storage_obj_seek
0000000000003748 g     F .text	000000000000000c _utee_check_access_rights
00000000000044d8 g     F .text	0000000000000178 __GP11_TEE_InvokeTACommand
0000000000009dc4 g     F .text	0000000000000074 mbedtls_mpi_cmp_int
00000000000088bc g     F .text	0000000000000124 _base64_dec
0000000000003910 g     F .text	000000000000000c _utee_storage_reset_enum
000000000000cd48 g     F .text	00000000000000bc mbedtls_ct_base64_dec_value
0000000000006de8 g     F .text	0000000000000030 __utee_check_attr_in_annotation
000000000000388c g     F .text	000000000000000c _utee_authenc_update_payload
0000000000006150 g     F .text	000000000000006c TEE_BigIntMod
000000000000ad6c g     F .text	000000000000009c mbedtls_mpi_mod_int
000000000000980c g     F .text	0000000000000078 mbedtls_mpi_read_binary_le
0000000000005f9c g     F .text	00000000000001b4 TEE_BigIntDiv
0000000000003820 g     F .text	000000000000000c _utee_cryp_obj_alloc
000000000001df08 g       .bss	0000000000000000 __ftrace_buf_start
000000000000d4f8 g     F .text	0000000000000058 strlcpy
000000000000cc98 g     F .text	00000000000000b0 mbedtls_ct_base64_enc_char
00000000000094cc g     F .text	00000000000000cc mbedtls_mpi_copy
0000000000000df8 g     F .text	0000000000000018 malloc_reset_stats
0000000000007a0c g     F .text	00000000000000e8 TEE_GetPropertyAsIdentity
00000000000028b4 g     F .text	000000000000004c __vsprintf
00000000000076b8 g     F .text	00000000000000e8 TEE_GetPropertyAsU64
0000000000003784 g     F .text	000000000000000c _utee_set_ta_time
0000000000003730 g     F .text	000000000000000c _utee_invoke_ta_command
000000000000104c g     F .text	0000000000000018 realloc
0000000000009598 g     F .text	0000000000000088 mbedtls_mpi_swap
000000000000d550 g     F .text	00000000000000c8 mempool_alloc_pool
0000000000005e80 g     F .text	0000000000000114 TEE_BigIntMul
00000000000010b8 g     F .text	0000000000000008 raw_malloc_get_ctx_size
0000000000009a84 g     F .text	0000000000000110 mbedtls_mpi_shift_l
0000000000009cf0 g     F .text	00000000000000d4 mbedtls_mpi_cmp_mpi
0000000000004688 g     F .text	0000000000000004 TEE_MemFill
0000000000001424 g     F .text	0000000000000014 malloc_add_pool
000000000000164c g     F .text	0000000000000010 trace_get_level
0000000000009e38 g     F .text	0000000000000120 mbedtls_mpi_add_abs
0000000000006924 g     F .text	0000000000000010 TEE_BigIntFMMSizeInU32
00000000000074f8 g     F .text	00000000000000d8 TEE_GetPropertyAsBool
0000000000000f24 g     F .text	00000000000000f4 raw_realloc
0000000000006904 g     F .text	0000000000000004 TEE_BigIntInitFMM
00000000000037d8 g     F .text	000000000000000c _utee_cipher_init
0000000000003448 g     F .text	0000000000000288 __utee_entry
00000000000075d0 g     F .text	00000000000000e8 TEE_GetPropertyAsU32
000000000000d750 g       .text	0000000000000000 __text_end
000000000000633c g     F .text	0000000000000108 TEE_BigIntRelativePrime
000000000000acb8 g     F .text	00000000000000b4 mbedtls_mpi_mod_mpi
00000000000037fc g     F .text	000000000000000c _utee_cryp_obj_get_info
0000000000007b00 g     F .text	0000000000000048 TEE_AllocatePropertyEnumerator
0000000000000c94 g     F .text	00000000000000d0 bpool
0000000000003790 g     F .text	000000000000000c _utee_cryp_state_alloc
0000000000003d74 g     F .text	0000000000000060 TEE_GetCancellationFlag
000000000000b81c g     F .text	00000000000001d8 mbedtls_mpi_gcd
000000000000476c g     F .text	0000000000000044 TEE_SetTAPersistentTime
0000000000008038 g     F .text	0000000000000078 __tee_socket_pta_recv
0000000000009908 g     F .text	00000000000000b8 mbedtls_mpi_write_binary_le
00000000000014e0 g     F .text	000000000000001c memset
0000000000000e10 g     F .text	0000000000000084 raw_memalign
00000000000046f8 g     F .text	0000000000000074 TEE_GetTAPersistentTime
0000000000001958 g     F .text	0000000000000198 dhex_dump
0000000000003e34 g     F .text	0000000000000060 TEE_MaskCancellation
0000000000003814 g     F .text	000000000000000c _utee_cryp_obj_get_attr
00000000000037f0 g     F .text	000000000000000c _utee_cipher_final
0000000000001630 g     F .text	000000000000001c trace_set_level
000000000000cc10 g     F .text	000000000000001c mbedtls_ct_mpi_uint_lt
00000000000037a8 g     F .text	000000000000000c _utee_cryp_state_free
000000000000d4d4 g     F .text	0000000000000024 strcmp
0000000000003718 g     F .text	000000000000000c _utee_open_ta_session
0000000000005620 g     F .text	00000000000000bc TEE_BigIntConvertToS32
0000000000005d90 g     F .text	000000000000000c TEE_BigIntSub
000000000000051c g     F .text	0000000000000008 tahead_get_trace_level
000000000000391c g     F .text	000000000000000c _utee_storage_start_enum
00000000000081b4 g     F .text	00000000000000b0 tee_map_zi
000000000000b14c g     F .text	0000000000000004 mbedtls_mpi_montred
000000000000cbd8 g     F .text	0000000000000010 mbedtls_ct_uint_mask
0000000000001064 g     F .text	000000000000001c memalign
0000000000005370 g     F .text	0000000000000008 __GP11_TEE_BigIntInit
0000000000005570 g     F .text	00000000000000b0 TEE_BigIntConvertFromS32
000000000000a1c8 g     F .text	0000000000000074 mbedtls_mpi_add_int
0000000000003898 g     F .text	000000000000000c _utee_authenc_enc_final
0000000000001438 g     F .text	0000000000000014 malloc_buffer_is_within_alloced
000000000000382c g     F .text	000000000000000c _utee_cryp_obj_close
0000000000006910 g     F .text	0000000000000004 TEE_BigIntInitFMMContext
0000000000003760 g     F .text	000000000000000c _utee_mask_cancellation
0000000000012678 g     O .bss	0000000000000008 __ta_no_share_malloc_ctx
00000000000038ec g     F .text	000000000000000c _utee_storage_obj_rename
0000000000004650 g     F .text	0000000000000008 __GP11_TEE_CheckMemoryAccessRights
0000000000005f94 g     F .text	0000000000000008 TEE_BigIntSquare
0000000000003940 g     F .text	000000000000000c _utee_storage_obj_write
000000000000010c g     F .text	0000000000000008 TA_CreateEntryPoint
0000000000000508 g     F .text	0000000000000014 __ta_entry
000000000001df08 g     O .bss	0000000000000000 __ta_no_share_heap
0000000000003880 g     F .text	000000000000000c _utee_authenc_update_aad
000000000000b13c g     F .text	0000000000000008 mbedtls_mpi_montg_init
0000000000001c08 g     F .text	00000000000000cc snprintk
0000000000005be4 g     F .text	0000000000000074 TEE_BigIntGetBitCount
0000000000003850 g     F .text	000000000000000c _utee_cryp_obj_copy
00000000000061d4 g     F .text	000000000000000c TEE_BigIntMulMod
000000000000beb8 g     F .text	0000000000000458 mbedtls_mpi_inv_mod
0000000000006e18 g     F .text	0000000000000030 __utee_check_gp11_attr_in_annotation
0000000000012680 g     O .bss	0000000000000040 ta_params
000000000000a710 g     F .text	0000000000000534 mbedtls_mpi_div_mpi
0000000000006d58 g     F .text	0000000000000064 __utee_check_gp11_outstring_annotation
00000000000097f0 g     F .text	000000000000001c mbedtls_mpi_size
0000000000000594 g     F .text	00000000000002e4 bget
0000000000006954 g     F .text	0000000000000018 __GP11_TEE_BigIntFMMContextSizeInU32
0000000000007b4c g     F .text	0000000000000010 TEE_StartPropertyEnumerator
000000000000376c g     F .text	000000000000000c _utee_wait
00000000000096b4 g     F .text	000000000000008c mbedtls_mpi_set_bit
0000000000004904 g     F .text	0000000000000060 TEE_Free
000000000000c3ec g     F .text	0000000000000010 mbedtls_mpi_is_prime
0000000000004a54 g     F .text	0000000000000008 TEE_CacheInvalidate
000000000000298c g     F .text	0000000000000014 _assert_break
00000000000061bc g     F .text	000000000000000c TEE_BigIntAddMod
000000000000cc5c g     F .text	000000000000003c mbedtls_ct_mpi_uint_cond_assign
0000000000006908 g     F .text	0000000000000008 __GP11_TEE_BigIntInitFMM
0000000000003778 g     F .text	000000000000000c _utee_get_time
0000000000007c84 g     F .text	0000000000000088 TEE_GetPropertyName
0000000000004a3c g     F .text	0000000000000008 __GP11_TEE_Realloc
0000000000003844 g     F .text	000000000000000c _utee_cryp_obj_populate
0000000000007fc0 g     F .text	0000000000000078 __tee_socket_pta_send
000000000000467c g     F .text	0000000000000004 TEE_MemCompare
00000000000037e4 g     F .text	000000000000000c _utee_cipher_update
0000000000001af0 g     F .text	00000000000000c0 __vsnprintf
00000000000126c0 g     O .bss	0000000000000010 __elf_phdr_info
00000000000040b8 g     F .text	0000000000000154 TEE_OpenTASession
0000000000007f50 g     F .text	0000000000000070 __tee_socket_pta_close
00000000000029a0 g     F .text	0000000000000028 trace_ext_puts
0000000000007460 g     F .text	0000000000000098 __GP11_TEE_GetPropertyAsString
0000000000001288 g     F .text	0000000000000150 raw_malloc_buffer_is_within_alloced
00000000000029c8 g     F .text	0000000000000008 trace_ext_get_thread_id
0000000000001208 g     F .text	0000000000000080 raw_malloc_buffer_overlaps_heap
000000000000385c g     F .text	000000000000000c _utee_cryp_derive_key
00000000000080b0 g     F .text	000000000000007c __tee_socket_pta_ioctl
00000000000091ec g     F .text	000000000000006c mbedtls_mpi_free
0000000000003838 g     F .text	000000000000000c _utee_cryp_obj_reset
0000000000004a44 g     F .text	0000000000000008 TEE_CacheClean
000000000000370c g     F .text	000000000000000c _utee_get_property_name_to_index
0000000000000eb4 g     F .text	0000000000000070 raw_calloc
00000000000087a0 g     F .text	000000000000011c _base64_enc
000000000000cec0 g     F .text	00000000000000fc mbedtls_mpi_safe_cond_swap
0000000000003874 g     F .text	000000000000000c _utee_authenc_init
000000000000292c g     F .text	000000000000001c strlen
0000000000006618 g     F .text	0000000000000268 TEE_BigIntComputeExtendedGcd
00000000000038f8 g     F .text	000000000000000c _utee_storage_alloc_enum
0000000000006444 g     F .text	00000000000001d4 TEE_BigIntExpMod
0000000000004694 g     F .text	0000000000000028 TEE_GetSystemTime
00000000000038bc g     F .text	000000000000000c _utee_asymm_verify
0000000000000000 g     O .ta_head	0000000000000020 ta_head
0000000000000900 g     F .text	00000000000002c4 brel
00000000000077a0 g     F .text	00000000000000ec __GP11_TEE_GetPropertyAsBinaryBlock
0000000000009f58 g     F .text	000000000000015c mbedtls_mpi_sub_abs
000000000000b9f4 g     F .text	0000000000000068 mbedtls_mpi_fill_random
0000000000004658 g     F .text	000000000000000c TEE_SetInstanceData
000000000000373c g     F .text	000000000000000c _utee_get_cancellation_flag
000000000000ae08 g     F .text	0000000000000270 mbedtls_mpi_write_string
0000000000001080 g     F .text	0000000000000018 aligned_alloc
000000000000691c g     F .text	0000000000000008 TEE_BigIntInitFMMContext1
0000000000003d4c g     F .text	0000000000000028 TEE_CloseTASession
00000000000038d4 g     F .text	000000000000000c _utee_storage_obj_create
0000000000006934 g     F .text	0000000000000018 __GP11_TEE_BigIntFMMSizeInU32
0000000000001098 g     F .text	0000000000000010 free
0000000000000d64 g     F .text	0000000000000094 bstats
0000000000015f00 g     O .bss	0000000000000008 mbedtls_mpi_mempool
00000000000037cc g     F .text	000000000000000c _utee_hash_final



Disassembly of section .text:

0000000000000020 <memcpy>:
memcpy():
/home/ssysarch/Desktop/nick/jetpack_5/Jetson_Linux_R35.4.1_aarch64/Linux_for_Tegra/sources/tegra/optee-src/nv-optee/optee/optee_os/lib/libutils/isoc/newlib/memcpy.c:106
      20:	f1007c5f 	cmp	x2, #0x1f
      24:	54000629 	b.ls	e8 <memcpy+0xc8>  // b.plast
/home/ssysarch/Desktop/nick/jetpack_5/Jetson_Linux_R35.4.1_aarch64/Linux_for_Tegra/sources/tegra/optee-src/nv-optee/optee/optee_os/lib/libutils/isoc/newlib/memcpy.c:106 (discriminator 1)
      28:	aa000025 	orr	x5, x1, x0
      2c:	f24008a5 	ands	x5, x5, #0x7
      30:	54000641 	b.ne	f8 <memcpy+0xd8>  // b.any
      34:	d1008048 	sub	x8, x2, #0x20
/home/ssysarch/Desktop/nick/jetpack_5/Jetson_Linux_R35.4.1_aarch64/Linux_for_Tegra/sources/tegra/optee-src/nv-optee/optee/optee_os/lib/libutils/isoc/newlib/memcpy.c:108
      38:	aa0103e4 	mov	x4, x1
      3c:	927be908 	and	x8, x8, #0xffffffffffffffe0
/home/ssysarch/Desktop/nick/jetpack_5/Jetson_Linux_R35.4.1_aarch64/Linux_for_Tegra/sources/tegra/optee-src/nv-optee/optee/optee_os/lib/libutils/isoc/newlib/memcpy.c:107
      40:	aa0003e3 	mov	x3, x0
      44:	91008108 	add	x8, x8, #0x20
      48:	8b080007 	add	x7, x0, x8
      4c:	d503201f 	nop
/home/ssysarch/Desktop/nick/jetpack_5/Jetson_Linux_R35.4.1_aarch64/Linux_for_Tegra/sources/tegra/optee-src/nv-optee/optee/optee_os/lib/libutils/isoc/newlib/memcpy.c:112
      50:	f9400086 	ldr	x6, [x4]
      54:	f9000066 	str	x6, [x3]
/home/ssysarch/Desktop/nick/jetpack_5/Jetson_Linux_R35.4.1_aarch64/Linux_for_Tegra/sources/tegra/optee-src/nv-optee/optee/optee_os/lib/libutils/isoc/newlib/memcpy.c:113
      58:	91008084 	add	x4, x4, #0x20
      5c:	91008063 	add	x3, x3, #0x20
      60:	f85e8086 	ldur	x6, [x4, #-24]
      64:	f81e8066 	stur	x6, [x3, #-24]
/home/ssysarch/Desktop/nick/jetpack_5/Jetson_Linux_R35.4.1_aarch64/Linux_for_Tegra/sources/tegra/optee-src/nv-optee/optee/optee_os/lib/libutils/isoc/newlib/memcpy.c:114
      68:	f85f0086 	ldur	x6, [x4, #-16]
      6c:	f81f0066 	stur	x6, [x3, #-16]
/home/ssysarch/Desktop/nick/jetpack_5/Jetson_Linux_R35.4.1_aarch64/Linux_for_Tegra/sources/tegra/optee-src/nv-optee/optee/optee_os/lib/libutils/isoc/newlib/memcpy.c:111
      70:	eb0300ff 	cmp	x7, x3
/home/ssysarch/Desktop/nick/jetpack_5/Jetson_Linux_R35.4.1_aarch64/Linux_for_Tegra/sources/tegra/optee-src/nv-optee/optee/optee_os/lib/libutils/isoc/newlib/memcpy.c:115
      74:	f85f8086 	ldur	x6, [x4, #-8]
      78:	f81f8066 	stur	x6, [x3, #-8]
/home/ssysarch/Desktop/nick/jetpack_5/Jetson_Linux_R35.4.1_aarch64/Linux_for_Tegra/sources/tegra/optee-src/nv-optee/optee/optee_os/lib/libutils/isoc/newlib/memcpy.c:111
      7c:	54fffea1 	b.ne	50 <memcpy+0x30>  // b.any
      80:	8b080021 	add	x1, x1, x8
/home/ssysarch/Desktop/nick/jetpack_5/Jetson_Linux_R35.4.1_aarch64/Linux_for_Tegra/sources/tegra/optee-src/nv-optee/optee/optee_os/lib/libutils/isoc/newlib/memcpy.c:120
      84:	f27d045f 	tst	x2, #0x18
      88:	92401044 	and	x4, x2, #0x1f
      8c:	540003c0 	b.eq	104 <memcpy+0xe4>  // b.none
/home/ssysarch/Desktop/nick/jetpack_5/Jetson_Linux_R35.4.1_aarch64/Linux_for_Tegra/sources/tegra/optee-src/nv-optee/optee/optee_os/lib/libutils/isoc/newlib/memcpy.c:121
      90:	f8656826 	ldr	x6, [x1, x5]
      94:	f8256866 	str	x6, [x3, x5]
/home/ssysarch/Desktop/nick/jetpack_5/Jetson_Linux_R35.4.1_aarch64/Linux_for_Tegra/sources/tegra/optee-src/nv-optee/optee/optee_os/lib/libutils/isoc/newlib/memcpy.c:120
      98:	910020a5 	add	x5, x5, #0x8
      9c:	cb050086 	sub	x6, x4, x5
      a0:	f1001cdf 	cmp	x6, #0x7
      a4:	54ffff68 	b.hi	90 <memcpy+0x70>  // b.pmore
      a8:	d1002084 	sub	x4, x4, #0x8
      ac:	92400842 	and	x2, x2, #0x7
      b0:	927df084 	and	x4, x4, #0xfffffffffffffff8
/home/ssysarch/Desktop/nick/jetpack_5/Jetson_Linux_R35.4.1_aarch64/Linux_for_Tegra/sources/tegra/optee-src/nv-optee/optee/optee_os/lib/libutils/isoc/newlib/memcpy.c:130
      b4:	d1000446 	sub	x6, x2, #0x1
      b8:	91002084 	add	x4, x4, #0x8
      bc:	8b040063 	add	x3, x3, x4
      c0:	8b040021 	add	x1, x1, x4
      c4:	b4000102 	cbz	x2, e4 <memcpy+0xc4>
/home/ssysarch/Desktop/nick/jetpack_5/Jetson_Linux_R35.4.1_aarch64/Linux_for_Tegra/sources/tegra/optee-src/nv-optee/optee/optee_os/lib/libutils/isoc/newlib/memcpy.c:99
      c8:	d2800002 	mov	x2, #0x0                   	// #0
      cc:	d503201f 	nop
/home/ssysarch/Desktop/nick/jetpack_5/Jetson_Linux_R35.4.1_aarch64/Linux_for_Tegra/sources/tegra/optee-src/nv-optee/optee/optee_os/lib/libutils/isoc/newlib/memcpy.c:131
      d0:	38626825 	ldrb	w5, [x1, x2]
/home/ssysarch/Desktop/nick/jetpack_5/Jetson_Linux_R35.4.1_aarch64/Linux_for_Tegra/sources/tegra/optee-src/nv-optee/optee/optee_os/lib/libutils/isoc/newlib/memcpy.c:130
      d4:	eb0200df 	cmp	x6, x2
/home/ssysarch/Desktop/nick/jetpack_5/Jetson_Linux_R35.4.1_aarch64/Linux_for_Tegra/sources/tegra/optee-src/nv-optee/optee/optee_os/lib/libutils/isoc/newlib/memcpy.c:131
      d8:	38226865 	strb	w5, [x3, x2]
/home/ssysarch/Desktop/nick/jetpack_5/Jetson_Linux_R35.4.1_aarch64/Linux_for_Tegra/sources/tegra/optee-src/nv-optee/optee/optee_os/lib/libutils/isoc/newlib/memcpy.c:130
      dc:	91000442 	add	x2, x2, #0x1
      e0:	54ffff81 	b.ne	d0 <memcpy+0xb0>  // b.any
/home/ssysarch/Desktop/nick/jetpack_5/Jetson_Linux_R35.4.1_aarch64/Linux_for_Tegra/sources/tegra/optee-src/nv-optee/optee/optee_os/lib/libutils/isoc/newlib/memcpy.c:135
      e4:	d65f03c0 	ret
/home/ssysarch/Desktop/nick/jetpack_5/Jetson_Linux_R35.4.1_aarch64/Linux_for_Tegra/sources/tegra/optee-src/nv-optee/optee/optee_os/lib/libutils/isoc/newlib/memcpy.c:99
      e8:	aa0003e3 	mov	x3, x0
/home/ssysarch/Desktop/nick/jetpack_5/Jetson_Linux_R35.4.1_aarch64/Linux_for_Tegra/sources/tegra/optee-src/nv-optee/optee/optee_os/lib/libutils/isoc/newlib/memcpy.c:130
      ec:	d1000446 	sub	x6, x2, #0x1
      f0:	b5fffec2 	cbnz	x2, c8 <memcpy+0xa8>
/home/ssysarch/Desktop/nick/jetpack_5/Jetson_Linux_R35.4.1_aarch64/Linux_for_Tegra/sources/tegra/optee-src/nv-optee/optee/optee_os/lib/libutils/isoc/newlib/memcpy.c:135
      f4:	d65f03c0 	ret
/home/ssysarch/Desktop/nick/jetpack_5/Jetson_Linux_R35.4.1_aarch64/Linux_for_Tegra/sources/tegra/optee-src/nv-optee/optee/optee_os/lib/libutils/isoc/newlib/memcpy.c:130
      f8:	d1000446 	sub	x6, x2, #0x1
/home/ssysarch/Desktop/nick/jetpack_5/Jetson_Linux_R35.4.1_aarch64/Linux_for_Tegra/sources/tegra/optee-src/nv-optee/optee/optee_os/lib/libutils/isoc/newlib/memcpy.c:99
      fc:	aa0003e3 	mov	x3, x0
     100:	17fffff2 	b	c8 <memcpy+0xa8>
/home/ssysarch/Desktop/nick/jetpack_5/Jetson_Linux_R35.4.1_aarch64/Linux_for_Tegra/sources/tegra/optee-src/nv-optee/optee/optee_os/lib/libutils/isoc/newlib/memcpy.c:120
     104:	aa0403e2 	mov	x2, x4
     108:	17fffff9 	b	ec <memcpy+0xcc>

000000000000010c <TA_CreateEntryPoint>:
TA_CreateEntryPoint():
/home/ssysarch/Desktop/nick/jetpack_5/Jetson_Linux_R35.4.1_aarch64/Linux_for_Tegra/sources/tegra/optee-src/nv-optee/optee/optee_test/ta/socket/ta_entry.c:19
     10c:	52800000 	mov	w0, #0x0                   	// #0
     110:	d65f03c0 	ret

0000000000000114 <TA_DestroyEntryPoint>:
TA_DestroyEntryPoint():
/home/ssysarch/Desktop/nick/jetpack_5/Jetson_Linux_R35.4.1_aarch64/Linux_for_Tegra/sources/tegra/optee-src/nv-optee/optee/optee_test/ta/socket/ta_entry.c:23
     114:	d65f03c0 	ret

0000000000000118 <TA_OpenSessionEntryPoint>:
TA_OpenSessionEntryPoint():
/home/ssysarch/Desktop/nick/jetpack_5/Jetson_Linux_R35.4.1_aarch64/Linux_for_Tegra/sources/tegra/optee-src/nv-optee/optee/optee_test/ta/socket/ta_entry.c:33
     118:	52800000 	mov	w0, #0x0                   	// #0
     11c:	d65f03c0 	ret

0000000000000120 <TA_CloseSessionEntryPoint>:
TA_CloseSessionEntryPoint():
/home/ssysarch/Desktop/nick/jetpack_5/Jetson_Linux_R35.4.1_aarch64/Linux_for_Tegra/sources/tegra/optee-src/nv-optee/optee/optee_test/ta/socket/ta_entry.c:38
     120:	d65f03c0 	ret

0000000000000124 <TA_InvokeCommandEntryPoint>:
TA_InvokeCommandEntryPoint():
/home/ssysarch/Desktop/nick/jetpack_5/Jetson_Linux_R35.4.1_aarch64/Linux_for_Tegra/sources/tegra/optee-src/nv-optee/optee/optee_test/ta/socket/ta_entry.c:252
     124:	a9b97bfd 	stp	x29, x30, [sp, #-112]!
     128:	d0000080 	adrp	x0, 12000 <_DYNAMIC>
     12c:	2a0203e5 	mov	w5, w2
     130:	910003fd 	mov	x29, sp
     134:	f9409802 	ldr	x2, [x0, #304]
     138:	a90153f3 	stp	x19, x20, [sp, #16]
     13c:	aa0303f4 	mov	x20, x3
     140:	f9400043 	ldr	x3, [x2]
     144:	f90037e3 	str	x3, [sp, #104]
     148:	d2800003 	mov	x3, #0x0                   	// #0
     14c:	a9025bf5 	stp	x21, x22, [sp, #32]
     150:	7100183f 	cmp	w1, #0x6
     154:	a90363f7 	stp	x23, x24, [sp, #48]
     158:	aa0003f5 	mov	x21, x0
     15c:	540002a8 	b.hi	1b0 <TA_InvokeCommandEntryPoint+0x8c>  // b.pmore
     160:	90000080 	adrp	x0, 10000 <__text_end+0x28b0>
     164:	910ee000 	add	x0, x0, #0x3b8
     168:	78615800 	ldrh	w0, [x0, w1, uxtw #1]
     16c:	10000061 	adr	x1, 178 <TA_InvokeCommandEntryPoint+0x54>
     170:	8b20a820 	add	x0, x1, w0, sxth #2
     174:	d61f0000 	br	x0
ta_entry_tcp_open():
/home/ssysarch/Desktop/nick/jetpack_5/Jetson_Linux_R35.4.1_aarch64/Linux_for_Tegra/sources/tegra/optee-src/nv-optee/optee/optee_test/ta/socket/ta_entry.c:48
     178:	a9047fff 	stp	xzr, xzr, [sp, #64]
/home/ssysarch/Desktop/nick/jetpack_5/Jetson_Linux_R35.4.1_aarch64/Linux_for_Tegra/sources/tegra/optee-src/nv-optee/optee/optee_test/ta/socket/ta_entry.c:56
     17c:	5284ca26 	mov	w6, #0x2651                	// #9809
     180:	6b0600bf 	cmp	w5, w6
/home/ssysarch/Desktop/nick/jetpack_5/Jetson_Linux_R35.4.1_aarch64/Linux_for_Tegra/sources/tegra/optee-src/nv-optee/optee/optee_test/ta/socket/ta_entry.c:49
     184:	a9057fff 	stp	xzr, xzr, [sp, #80]
     188:	f90033ff 	str	xzr, [sp, #96]
/home/ssysarch/Desktop/nick/jetpack_5/Jetson_Linux_R35.4.1_aarch64/Linux_for_Tegra/sources/tegra/optee-src/nv-optee/optee/optee_test/ta/socket/ta_entry.c:56
     18c:	54000160 	b.eq	1b8 <TA_InvokeCommandEntryPoint+0x94>  // b.none
/home/ssysarch/Desktop/nick/jetpack_5/Jetson_Linux_R35.4.1_aarch64/Linux_for_Tegra/sources/tegra/optee-src/nv-optee/optee/optee_test/ta/socket/ta_entry.c:57
     190:	90000084 	adrp	x4, 10000 <__text_end+0x28b0>
     194:	91214084 	add	x4, x4, #0x850
     198:	90000080 	adrp	x0, 10000 <__text_end+0x28b0>
     19c:	910f1800 	add	x0, x0, #0x3c6
     1a0:	52800023 	mov	w3, #0x1                   	// #1
     1a4:	52800022 	mov	w2, #0x1                   	// #1
     1a8:	52800721 	mov	w1, #0x39                  	// #57
ta_entry_ioctl():
/home/ssysarch/Desktop/nick/jetpack_5/Jetson_Linux_R35.4.1_aarch64/Linux_for_Tegra/sources/tegra/optee-src/nv-optee/optee/optee_test/ta/socket/ta_entry.c:231
     1ac:	940005b3 	bl	1878 <trace_printf>
ta_entry_close():
/home/ssysarch/Desktop/nick/jetpack_5/Jetson_Linux_R35.4.1_aarch64/Linux_for_Tegra/sources/tegra/optee-src/nv-optee/optee/optee_test/ta/socket/ta_entry.c:138
     1b0:	129fff33 	mov	w19, #0xffff0006            	// #-65530
     1b4:	14000008 	b	1d4 <TA_InvokeCommandEntryPoint+0xb0>
ta_entry_tcp_open():
/home/ssysarch/Desktop/nick/jetpack_5/Jetson_Linux_R35.4.1_aarch64/Linux_for_Tegra/sources/tegra/optee-src/nv-optee/optee/optee_test/ta/socket/ta_entry.c:62
     1b8:	f9401680 	ldr	x0, [x20, #40]
     1bc:	91008296 	add	x22, x20, #0x20
     1c0:	f1003c1f 	cmp	x0, #0xf
     1c4:	54000168 	b.hi	1f0 <TA_InvokeCommandEntryPoint+0xcc>  // b.pmore
ta_entry_udp_open():
/home/ssysarch/Desktop/nick/jetpack_5/Jetson_Linux_R35.4.1_aarch64/Linux_for_Tegra/sources/tegra/optee-src/nv-optee/optee/optee_test/ta/socket/ta_entry.c:102
     1c8:	d2800200 	mov	x0, #0x10                  	// #16
/home/ssysarch/Desktop/nick/jetpack_5/Jetson_Linux_R35.4.1_aarch64/Linux_for_Tegra/sources/tegra/optee-src/nv-optee/optee/optee_test/ta/socket/ta_entry.c:103
     1cc:	129ffdf3 	mov	w19, #0xffff0010            	// #-65520
/home/ssysarch/Desktop/nick/jetpack_5/Jetson_Linux_R35.4.1_aarch64/Linux_for_Tegra/sources/tegra/optee-src/nv-optee/optee/optee_test/ta/socket/ta_entry.c:102
     1d0:	f90006c0 	str	x0, [x22, #8]
TA_InvokeCommandEntryPoint():
/home/ssysarch/Desktop/nick/jetpack_5/Jetson_Linux_R35.4.1_aarch64/Linux_for_Tegra/sources/tegra/optee-src/nv-optee/optee/optee_test/ta/socket/ta_entry.c:273
     1d4:	f9409ab5 	ldr	x21, [x21, #304]
     1d8:	f94037e0 	ldr	x0, [sp, #104]
     1dc:	f94002a1 	ldr	x1, [x21]
     1e0:	eb010000 	subs	x0, x0, x1
     1e4:	d2800001 	mov	x1, #0x0                   	// #0
     1e8:	54001840 	b.eq	4f0 <TA_InvokeCommandEntryPoint+0x3cc>  // b.none
     1ec:	9400049d 	bl	1460 <__stack_chk_fail>
ta_entry_tcp_open():
/home/ssysarch/Desktop/nick/jetpack_5/Jetson_Linux_R35.4.1_aarch64/Linux_for_Tegra/sources/tegra/optee-src/nv-optee/optee/optee_test/ta/socket/ta_entry.c:67
     1f0:	b9400280 	ldr	w0, [x20]
     1f4:	b90053e0 	str	w0, [sp, #80]
/home/ssysarch/Desktop/nick/jetpack_5/Jetson_Linux_R35.4.1_aarch64/Linux_for_Tegra/sources/tegra/optee-src/nv-optee/optee/optee_test/ta/socket/ta_entry.c:68
     1f8:	b9400680 	ldr	w0, [x20, #4]
     1fc:	7900c3e0 	strh	w0, [sp, #96]
/home/ssysarch/Desktop/nick/jetpack_5/Jetson_Linux_R35.4.1_aarch64/Linux_for_Tegra/sources/tegra/optee-src/nv-optee/optee/optee_test/ta/socket/ta_entry.c:69
     200:	f9400a80 	ldr	x0, [x20, #16]
     204:	f9400e81 	ldr	x1, [x20, #24]
     208:	940004a2 	bl	1490 <strndup>
     20c:	f9002fe0 	str	x0, [sp, #88]
/home/ssysarch/Desktop/nick/jetpack_5/Jetson_Linux_R35.4.1_aarch64/Linux_for_Tegra/sources/tegra/optee-src/nv-optee/optee/optee_test/ta/socket/ta_entry.c:71
     210:	b4000660 	cbz	x0, 2dc <TA_InvokeCommandEntryPoint+0x1b8>
/home/ssysarch/Desktop/nick/jetpack_5/Jetson_Linux_R35.4.1_aarch64/Linux_for_Tegra/sources/tegra/optee-src/nv-optee/optee/optee_test/ta/socket/ta_entry.c:74
     214:	f940cea0 	ldr	x0, [x21, #408]
ta_entry_udp_open():
/home/ssysarch/Desktop/nick/jetpack_5/Jetson_Linux_R35.4.1_aarch64/Linux_for_Tegra/sources/tegra/optee-src/nv-optee/optee/optee_test/ta/socket/ta_entry.c:114
     218:	910103f8 	add	x24, sp, #0x40
/home/ssysarch/Desktop/nick/jetpack_5/Jetson_Linux_R35.4.1_aarch64/Linux_for_Tegra/sources/tegra/optee-src/nv-optee/optee/optee_test/ta/socket/ta_entry.c:113
     21c:	f9400000 	ldr	x0, [x0]
/home/ssysarch/Desktop/nick/jetpack_5/Jetson_Linux_R35.4.1_aarch64/Linux_for_Tegra/sources/tegra/optee-src/nv-optee/optee/optee_test/ta/socket/ta_entry.c:114
     220:	9100c282 	add	x2, x20, #0x30
     224:	910143e1 	add	x1, sp, #0x50
     228:	f9400403 	ldr	x3, [x0, #8]
/home/ssysarch/Desktop/nick/jetpack_5/Jetson_Linux_R35.4.1_aarch64/Linux_for_Tegra/sources/tegra/optee-src/nv-optee/optee/optee_test/ta/socket/ta_entry.c:113
     22c:	f90027e0 	str	x0, [sp, #72]
/home/ssysarch/Desktop/nick/jetpack_5/Jetson_Linux_R35.4.1_aarch64/Linux_for_Tegra/sources/tegra/optee-src/nv-optee/optee/optee_test/ta/socket/ta_entry.c:114
     230:	aa1803e0 	mov	x0, x24
     234:	d63f0060 	blr	x3
     238:	2a0003f3 	mov	w19, w0
/home/ssysarch/Desktop/nick/jetpack_5/Jetson_Linux_R35.4.1_aarch64/Linux_for_Tegra/sources/tegra/optee-src/nv-optee/optee/optee_test/ta/socket/ta_entry.c:115
     23c:	f9402fe0 	ldr	x0, [sp, #88]
     240:	94000396 	bl	1098 <free>
/home/ssysarch/Desktop/nick/jetpack_5/Jetson_Linux_R35.4.1_aarch64/Linux_for_Tegra/sources/tegra/optee-src/nv-optee/optee/optee_test/ta/socket/ta_entry.c:116
     244:	35fffc93 	cbnz	w19, 1d4 <TA_InvokeCommandEntryPoint+0xb0>
/home/ssysarch/Desktop/nick/jetpack_5/Jetson_Linux_R35.4.1_aarch64/Linux_for_Tegra/sources/tegra/optee-src/nv-optee/optee/optee_test/ta/socket/ta_entry.c:117
     248:	f9401280 	ldr	x0, [x20, #32]
     24c:	d2800217 	mov	x23, #0x10                  	// #16
     250:	aa1803e1 	mov	x1, x24
     254:	aa1703e2 	mov	x2, x23
     258:	97ffff72 	bl	20 <memcpy>
/home/ssysarch/Desktop/nick/jetpack_5/Jetson_Linux_R35.4.1_aarch64/Linux_for_Tegra/sources/tegra/optee-src/nv-optee/optee/optee_test/ta/socket/ta_entry.c:118
     25c:	f90006d7 	str	x23, [x22, #8]
     260:	17ffffdd 	b	1d4 <TA_InvokeCommandEntryPoint+0xb0>
/home/ssysarch/Desktop/nick/jetpack_5/Jetson_Linux_R35.4.1_aarch64/Linux_for_Tegra/sources/tegra/optee-src/nv-optee/optee/optee_test/ta/socket/ta_entry.c:87
     264:	a9047fff 	stp	xzr, xzr, [sp, #64]
/home/ssysarch/Desktop/nick/jetpack_5/Jetson_Linux_R35.4.1_aarch64/Linux_for_Tegra/sources/tegra/optee-src/nv-optee/optee/optee_test/ta/socket/ta_entry.c:95
     268:	5284ca26 	mov	w6, #0x2651                	// #9809
     26c:	6b0600bf 	cmp	w5, w6
/home/ssysarch/Desktop/nick/jetpack_5/Jetson_Linux_R35.4.1_aarch64/Linux_for_Tegra/sources/tegra/optee-src/nv-optee/optee/optee_test/ta/socket/ta_entry.c:88
     270:	a9057fff 	stp	xzr, xzr, [sp, #80]
     274:	f90033ff 	str	xzr, [sp, #96]
/home/ssysarch/Desktop/nick/jetpack_5/Jetson_Linux_R35.4.1_aarch64/Linux_for_Tegra/sources/tegra/optee-src/nv-optee/optee/optee_test/ta/socket/ta_entry.c:95
     278:	54000140 	b.eq	2a0 <TA_InvokeCommandEntryPoint+0x17c>  // b.none
/home/ssysarch/Desktop/nick/jetpack_5/Jetson_Linux_R35.4.1_aarch64/Linux_for_Tegra/sources/tegra/optee-src/nv-optee/optee/optee_test/ta/socket/ta_entry.c:96
     27c:	90000080 	adrp	x0, 10000 <__text_end+0x28b0>
     280:	910f1800 	add	x0, x0, #0x3c6
     284:	90000084 	adrp	x4, 10000 <__text_end+0x28b0>
     288:	91214084 	add	x4, x4, #0x850
     28c:	91004800 	add	x0, x0, #0x12
     290:	52800023 	mov	w3, #0x1                   	// #1
     294:	52800022 	mov	w2, #0x1                   	// #1
     298:	52800c01 	mov	w1, #0x60                  	// #96
     29c:	17ffffc4 	b	1ac <TA_InvokeCommandEntryPoint+0x88>
/home/ssysarch/Desktop/nick/jetpack_5/Jetson_Linux_R35.4.1_aarch64/Linux_for_Tegra/sources/tegra/optee-src/nv-optee/optee/optee_test/ta/socket/ta_entry.c:101
     2a0:	f9401680 	ldr	x0, [x20, #40]
     2a4:	91008296 	add	x22, x20, #0x20
     2a8:	f1003c1f 	cmp	x0, #0xf
     2ac:	54fff8e9 	b.ls	1c8 <TA_InvokeCommandEntryPoint+0xa4>  // b.plast
/home/ssysarch/Desktop/nick/jetpack_5/Jetson_Linux_R35.4.1_aarch64/Linux_for_Tegra/sources/tegra/optee-src/nv-optee/optee/optee_test/ta/socket/ta_entry.c:106
     2b0:	b9400280 	ldr	w0, [x20]
     2b4:	b90053e0 	str	w0, [sp, #80]
/home/ssysarch/Desktop/nick/jetpack_5/Jetson_Linux_R35.4.1_aarch64/Linux_for_Tegra/sources/tegra/optee-src/nv-optee/optee/optee_test/ta/socket/ta_entry.c:107
     2b8:	b9400680 	ldr	w0, [x20, #4]
     2bc:	7900c3e0 	strh	w0, [sp, #96]
/home/ssysarch/Desktop/nick/jetpack_5/Jetson_Linux_R35.4.1_aarch64/Linux_for_Tegra/sources/tegra/optee-src/nv-optee/optee/optee_test/ta/socket/ta_entry.c:108
     2c0:	f9400a80 	ldr	x0, [x20, #16]
     2c4:	f9400e81 	ldr	x1, [x20, #24]
     2c8:	94000472 	bl	1490 <strndup>
     2cc:	f9002fe0 	str	x0, [sp, #88]
/home/ssysarch/Desktop/nick/jetpack_5/Jetson_Linux_R35.4.1_aarch64/Linux_for_Tegra/sources/tegra/optee-src/nv-optee/optee/optee_test/ta/socket/ta_entry.c:110
     2d0:	b4000060 	cbz	x0, 2dc <TA_InvokeCommandEntryPoint+0x1b8>
/home/ssysarch/Desktop/nick/jetpack_5/Jetson_Linux_R35.4.1_aarch64/Linux_for_Tegra/sources/tegra/optee-src/nv-optee/optee/optee_test/ta/socket/ta_entry.c:113
     2d4:	f940d2a0 	ldr	x0, [x21, #416]
     2d8:	17ffffd0 	b	218 <TA_InvokeCommandEntryPoint+0xf4>
/home/ssysarch/Desktop/nick/jetpack_5/Jetson_Linux_R35.4.1_aarch64/Linux_for_Tegra/sources/tegra/optee-src/nv-optee/optee/optee_test/ta/socket/ta_entry.c:111
     2dc:	129ffe73 	mov	w19, #0xffff000c            	// #-65524
TA_InvokeCommandEntryPoint():
/home/ssysarch/Desktop/nick/jetpack_5/Jetson_Linux_R35.4.1_aarch64/Linux_for_Tegra/sources/tegra/optee-src/nv-optee/optee/optee_test/ta/socket/ta_entry.c:259
     2e0:	17ffffbd 	b	1d4 <TA_InvokeCommandEntryPoint+0xb0>
ta_entry_close():
/home/ssysarch/Desktop/nick/jetpack_5/Jetson_Linux_R35.4.1_aarch64/Linux_for_Tegra/sources/tegra/optee-src/nv-optee/optee/optee_test/ta/socket/ta_entry.c:131
     2e4:	710014bf 	cmp	w5, #0x5
     2e8:	54000160 	b.eq	314 <TA_InvokeCommandEntryPoint+0x1f0>  // b.none
/home/ssysarch/Desktop/nick/jetpack_5/Jetson_Linux_R35.4.1_aarch64/Linux_for_Tegra/sources/tegra/optee-src/nv-optee/optee/optee_test/ta/socket/ta_entry.c:132
     2ec:	90000080 	adrp	x0, 10000 <__text_end+0x28b0>
     2f0:	910f1800 	add	x0, x0, #0x3c6
     2f4:	90000084 	adrp	x4, 10000 <__text_end+0x28b0>
     2f8:	91214084 	add	x4, x4, #0x850
     2fc:	91009000 	add	x0, x0, #0x24
     300:	528000a6 	mov	w6, #0x5                   	// #5
     304:	52800023 	mov	w3, #0x1                   	// #1
     308:	52800022 	mov	w2, #0x1                   	// #1
     30c:	52801081 	mov	w1, #0x84                  	// #132
     310:	17ffffa7 	b	1ac <TA_InvokeCommandEntryPoint+0x88>
/home/ssysarch/Desktop/nick/jetpack_5/Jetson_Linux_R35.4.1_aarch64/Linux_for_Tegra/sources/tegra/optee-src/nv-optee/optee/optee_test/ta/socket/ta_entry.c:137
     314:	f9400680 	ldr	x0, [x20, #8]
     318:	f100401f 	cmp	x0, #0x10
     31c:	54fff4a1 	b.ne	1b0 <TA_InvokeCommandEntryPoint+0x8c>  // b.any
/home/ssysarch/Desktop/nick/jetpack_5/Jetson_Linux_R35.4.1_aarch64/Linux_for_Tegra/sources/tegra/optee-src/nv-optee/optee/optee_test/ta/socket/ta_entry.c:140
     320:	f9400280 	ldr	x0, [x20]
/home/ssysarch/Desktop/nick/jetpack_5/Jetson_Linux_R35.4.1_aarch64/Linux_for_Tegra/sources/tegra/optee-src/nv-optee/optee/optee_test/ta/socket/ta_entry.c:141
     324:	f9400401 	ldr	x1, [x0, #8]
     328:	f9400000 	ldr	x0, [x0]
     32c:	f9400821 	ldr	x1, [x1, #16]
     330:	d63f0020 	blr	x1
ta_entry_send():
/home/ssysarch/Desktop/nick/jetpack_5/Jetson_Linux_R35.4.1_aarch64/Linux_for_Tegra/sources/tegra/optee-src/nv-optee/optee/optee_test/ta/socket/ta_entry.c:164
     334:	2a0003f3 	mov	w19, w0
     338:	17ffffa7 	b	1d4 <TA_InvokeCommandEntryPoint+0xb0>
/home/ssysarch/Desktop/nick/jetpack_5/Jetson_Linux_R35.4.1_aarch64/Linux_for_Tegra/sources/tegra/optee-src/nv-optee/optee/optee_test/ta/socket/ta_entry.c:153
     33c:	710d54bf 	cmp	w5, #0x355
     340:	54000160 	b.eq	36c <TA_InvokeCommandEntryPoint+0x248>  // b.none
/home/ssysarch/Desktop/nick/jetpack_5/Jetson_Linux_R35.4.1_aarch64/Linux_for_Tegra/sources/tegra/optee-src/nv-optee/optee/optee_test/ta/socket/ta_entry.c:154
     344:	90000080 	adrp	x0, 10000 <__text_end+0x28b0>
     348:	910f1800 	add	x0, x0, #0x3c6
     34c:	90000084 	adrp	x4, 10000 <__text_end+0x28b0>
     350:	91214084 	add	x4, x4, #0x850
     354:	9100cc00 	add	x0, x0, #0x33
     358:	52806aa6 	mov	w6, #0x355                 	// #853
     35c:	52800023 	mov	w3, #0x1                   	// #1
     360:	52800022 	mov	w2, #0x1                   	// #1
     364:	52801341 	mov	w1, #0x9a                  	// #154
     368:	17ffff91 	b	1ac <TA_InvokeCommandEntryPoint+0x88>
/home/ssysarch/Desktop/nick/jetpack_5/Jetson_Linux_R35.4.1_aarch64/Linux_for_Tegra/sources/tegra/optee-src/nv-optee/optee/optee_test/ta/socket/ta_entry.c:159
     36c:	f9400680 	ldr	x0, [x20, #8]
     370:	f100401f 	cmp	x0, #0x10
     374:	54fff1e1 	b.ne	1b0 <TA_InvokeCommandEntryPoint+0x8c>  // b.any
/home/ssysarch/Desktop/nick/jetpack_5/Jetson_Linux_R35.4.1_aarch64/Linux_for_Tegra/sources/tegra/optee-src/nv-optee/optee/optee_test/ta/socket/ta_entry.c:162
     378:	aa1403e0 	mov	x0, x20
/home/ssysarch/Desktop/nick/jetpack_5/Jetson_Linux_R35.4.1_aarch64/Linux_for_Tegra/sources/tegra/optee-src/nv-optee/optee/optee_test/ta/socket/ta_entry.c:164
     37c:	b9402283 	ldr	w3, [x20, #32]
/home/ssysarch/Desktop/nick/jetpack_5/Jetson_Linux_R35.4.1_aarch64/Linux_for_Tegra/sources/tegra/optee-src/nv-optee/optee/optee_test/ta/socket/ta_entry.c:163
     380:	f9400e81 	ldr	x1, [x20, #24]
/home/ssysarch/Desktop/nick/jetpack_5/Jetson_Linux_R35.4.1_aarch64/Linux_for_Tegra/sources/tegra/optee-src/nv-optee/optee/optee_test/ta/socket/ta_entry.c:164
     384:	91009282 	add	x2, x20, #0x24
/home/ssysarch/Desktop/nick/jetpack_5/Jetson_Linux_R35.4.1_aarch64/Linux_for_Tegra/sources/tegra/optee-src/nv-optee/optee/optee_test/ta/socket/ta_entry.c:162
     388:	f8420404 	ldr	x4, [x0], #32
/home/ssysarch/Desktop/nick/jetpack_5/Jetson_Linux_R35.4.1_aarch64/Linux_for_Tegra/sources/tegra/optee-src/nv-optee/optee/optee_test/ta/socket/ta_entry.c:163
     38c:	b9000401 	str	w1, [x0, #4]
/home/ssysarch/Desktop/nick/jetpack_5/Jetson_Linux_R35.4.1_aarch64/Linux_for_Tegra/sources/tegra/optee-src/nv-optee/optee/optee_test/ta/socket/ta_entry.c:164
     390:	f9400a81 	ldr	x1, [x20, #16]
     394:	f9400480 	ldr	x0, [x4, #8]
     398:	f9400c05 	ldr	x5, [x0, #24]
     39c:	f9400080 	ldr	x0, [x4]
     3a0:	d63f00a0 	blr	x5
     3a4:	17ffffe4 	b	334 <TA_InvokeCommandEntryPoint+0x210>
ta_entry_recv():
/home/ssysarch/Desktop/nick/jetpack_5/Jetson_Linux_R35.4.1_aarch64/Linux_for_Tegra/sources/tegra/optee-src/nv-optee/optee/optee_test/ta/socket/ta_entry.c:177
     3a8:	b90053ff 	str	wzr, [sp, #80]
/home/ssysarch/Desktop/nick/jetpack_5/Jetson_Linux_R35.4.1_aarch64/Linux_for_Tegra/sources/tegra/optee-src/nv-optee/optee/optee_test/ta/socket/ta_entry.c:179
     3ac:	710594bf 	cmp	w5, #0x165
     3b0:	54000160 	b.eq	3dc <TA_InvokeCommandEntryPoint+0x2b8>  // b.none
/home/ssysarch/Desktop/nick/jetpack_5/Jetson_Linux_R35.4.1_aarch64/Linux_for_Tegra/sources/tegra/optee-src/nv-optee/optee/optee_test/ta/socket/ta_entry.c:180
     3b4:	90000080 	adrp	x0, 10000 <__text_end+0x28b0>
     3b8:	910f1800 	add	x0, x0, #0x3c6
     3bc:	90000084 	adrp	x4, 10000 <__text_end+0x28b0>
     3c0:	91214084 	add	x4, x4, #0x850
     3c4:	91010400 	add	x0, x0, #0x41
     3c8:	52802ca6 	mov	w6, #0x165                 	// #357
     3cc:	52800023 	mov	w3, #0x1                   	// #1
     3d0:	52800022 	mov	w2, #0x1                   	// #1
     3d4:	52801681 	mov	w1, #0xb4                  	// #180
     3d8:	17ffff75 	b	1ac <TA_InvokeCommandEntryPoint+0x88>
/home/ssysarch/Desktop/nick/jetpack_5/Jetson_Linux_R35.4.1_aarch64/Linux_for_Tegra/sources/tegra/optee-src/nv-optee/optee/optee_test/ta/socket/ta_entry.c:185
     3dc:	f9400680 	ldr	x0, [x20, #8]
     3e0:	f100401f 	cmp	x0, #0x10
     3e4:	54ffee61 	b.ne	1b0 <TA_InvokeCommandEntryPoint+0x8c>  // b.any
/home/ssysarch/Desktop/nick/jetpack_5/Jetson_Linux_R35.4.1_aarch64/Linux_for_Tegra/sources/tegra/optee-src/nv-optee/optee/optee_test/ta/socket/ta_entry.c:188
     3e8:	aa1403f6 	mov	x22, x20
/home/ssysarch/Desktop/nick/jetpack_5/Jetson_Linux_R35.4.1_aarch64/Linux_for_Tegra/sources/tegra/optee-src/nv-optee/optee/optee_test/ta/socket/ta_entry.c:190
     3ec:	b9402283 	ldr	w3, [x20, #32]
     3f0:	910143e2 	add	x2, sp, #0x50
/home/ssysarch/Desktop/nick/jetpack_5/Jetson_Linux_R35.4.1_aarch64/Linux_for_Tegra/sources/tegra/optee-src/nv-optee/optee/optee_test/ta/socket/ta_entry.c:188
     3f4:	f84106c0 	ldr	x0, [x22], #16
/home/ssysarch/Desktop/nick/jetpack_5/Jetson_Linux_R35.4.1_aarch64/Linux_for_Tegra/sources/tegra/optee-src/nv-optee/optee/optee_test/ta/socket/ta_entry.c:189
     3f8:	f94006c1 	ldr	x1, [x22, #8]
     3fc:	b90053e1 	str	w1, [sp, #80]
/home/ssysarch/Desktop/nick/jetpack_5/Jetson_Linux_R35.4.1_aarch64/Linux_for_Tegra/sources/tegra/optee-src/nv-optee/optee/optee_test/ta/socket/ta_entry.c:190
     400:	f9400401 	ldr	x1, [x0, #8]
     404:	f9400000 	ldr	x0, [x0]
     408:	f9401024 	ldr	x4, [x1, #32]
     40c:	f9400a81 	ldr	x1, [x20, #16]
     410:	d63f0080 	blr	x4
ta_entry_ioctl():
/home/ssysarch/Desktop/nick/jetpack_5/Jetson_Linux_R35.4.1_aarch64/Linux_for_Tegra/sources/tegra/optee-src/nv-optee/optee/optee_test/ta/socket/ta_entry.c:241
     414:	2a0003f3 	mov	w19, w0
/home/ssysarch/Desktop/nick/jetpack_5/Jetson_Linux_R35.4.1_aarch64/Linux_for_Tegra/sources/tegra/optee-src/nv-optee/optee/optee_test/ta/socket/ta_entry.c:243
     418:	b94053e0 	ldr	w0, [sp, #80]
     41c:	f90006c0 	str	x0, [x22, #8]
/home/ssysarch/Desktop/nick/jetpack_5/Jetson_Linux_R35.4.1_aarch64/Linux_for_Tegra/sources/tegra/optee-src/nv-optee/optee/optee_test/ta/socket/ta_entry.c:244
     420:	17ffff6d 	b	1d4 <TA_InvokeCommandEntryPoint+0xb0>
ta_entry_error():
/home/ssysarch/Desktop/nick/jetpack_5/Jetson_Linux_R35.4.1_aarch64/Linux_for_Tegra/sources/tegra/optee-src/nv-optee/optee/optee_test/ta/socket/ta_entry.c:205
     424:	710094bf 	cmp	w5, #0x25
     428:	54000160 	b.eq	454 <TA_InvokeCommandEntryPoint+0x330>  // b.none
/home/ssysarch/Desktop/nick/jetpack_5/Jetson_Linux_R35.4.1_aarch64/Linux_for_Tegra/sources/tegra/optee-src/nv-optee/optee/optee_test/ta/socket/ta_entry.c:206
     42c:	90000080 	adrp	x0, 10000 <__text_end+0x28b0>
     430:	910f1800 	add	x0, x0, #0x3c6
     434:	90000084 	adrp	x4, 10000 <__text_end+0x28b0>
     438:	91214084 	add	x4, x4, #0x850
     43c:	91013c00 	add	x0, x0, #0x4f
     440:	528004a6 	mov	w6, #0x25                  	// #37
     444:	52800023 	mov	w3, #0x1                   	// #1
     448:	52800022 	mov	w2, #0x1                   	// #1
     44c:	528019c1 	mov	w1, #0xce                  	// #206
     450:	17ffff57 	b	1ac <TA_InvokeCommandEntryPoint+0x88>
/home/ssysarch/Desktop/nick/jetpack_5/Jetson_Linux_R35.4.1_aarch64/Linux_for_Tegra/sources/tegra/optee-src/nv-optee/optee/optee_test/ta/socket/ta_entry.c:211
     454:	f9400680 	ldr	x0, [x20, #8]
     458:	f100401f 	cmp	x0, #0x10
     45c:	54ffeaa1 	b.ne	1b0 <TA_InvokeCommandEntryPoint+0x8c>  // b.any
/home/ssysarch/Desktop/nick/jetpack_5/Jetson_Linux_R35.4.1_aarch64/Linux_for_Tegra/sources/tegra/optee-src/nv-optee/optee/optee_test/ta/socket/ta_entry.c:214
     460:	f9400280 	ldr	x0, [x20]
/home/ssysarch/Desktop/nick/jetpack_5/Jetson_Linux_R35.4.1_aarch64/Linux_for_Tegra/sources/tegra/optee-src/nv-optee/optee/optee_test/ta/socket/ta_entry.c:216
     464:	52800013 	mov	w19, #0x0                   	// #0
/home/ssysarch/Desktop/nick/jetpack_5/Jetson_Linux_R35.4.1_aarch64/Linux_for_Tegra/sources/tegra/optee-src/nv-optee/optee/optee_test/ta/socket/ta_entry.c:215
     468:	f9400401 	ldr	x1, [x0, #8]
     46c:	f9400000 	ldr	x0, [x0]
     470:	f9401421 	ldr	x1, [x1, #40]
     474:	d63f0020 	blr	x1
     478:	b9001280 	str	w0, [x20, #16]
/home/ssysarch/Desktop/nick/jetpack_5/Jetson_Linux_R35.4.1_aarch64/Linux_for_Tegra/sources/tegra/optee-src/nv-optee/optee/optee_test/ta/socket/ta_entry.c:216
     47c:	17ffff56 	b	1d4 <TA_InvokeCommandEntryPoint+0xb0>
ta_entry_ioctl():
/home/ssysarch/Desktop/nick/jetpack_5/Jetson_Linux_R35.4.1_aarch64/Linux_for_Tegra/sources/tegra/optee-src/nv-optee/optee/optee_test/ta/socket/ta_entry.c:228
     480:	b90053ff 	str	wzr, [sp, #80]
/home/ssysarch/Desktop/nick/jetpack_5/Jetson_Linux_R35.4.1_aarch64/Linux_for_Tegra/sources/tegra/optee-src/nv-optee/optee/optee_test/ta/socket/ta_entry.c:230
     484:	7105d4bf 	cmp	w5, #0x175
     488:	54000160 	b.eq	4b4 <TA_InvokeCommandEntryPoint+0x390>  // b.none
/home/ssysarch/Desktop/nick/jetpack_5/Jetson_Linux_R35.4.1_aarch64/Linux_for_Tegra/sources/tegra/optee-src/nv-optee/optee/optee_test/ta/socket/ta_entry.c:231
     48c:	90000080 	adrp	x0, 10000 <__text_end+0x28b0>
     490:	910f1800 	add	x0, x0, #0x3c6
     494:	90000084 	adrp	x4, 10000 <__text_end+0x28b0>
     498:	91214084 	add	x4, x4, #0x850
     49c:	91017800 	add	x0, x0, #0x5e
     4a0:	52802ea6 	mov	w6, #0x175                 	// #373
     4a4:	52800023 	mov	w3, #0x1                   	// #1
     4a8:	52800022 	mov	w2, #0x1                   	// #1
     4ac:	52801ce1 	mov	w1, #0xe7                  	// #231
     4b0:	17ffff3f 	b	1ac <TA_InvokeCommandEntryPoint+0x88>
/home/ssysarch/Desktop/nick/jetpack_5/Jetson_Linux_R35.4.1_aarch64/Linux_for_Tegra/sources/tegra/optee-src/nv-optee/optee/optee_test/ta/socket/ta_entry.c:236
     4b4:	f9400680 	ldr	x0, [x20, #8]
     4b8:	f100401f 	cmp	x0, #0x10
     4bc:	54ffe7a1 	b.ne	1b0 <TA_InvokeCommandEntryPoint+0x8c>  // b.any
/home/ssysarch/Desktop/nick/jetpack_5/Jetson_Linux_R35.4.1_aarch64/Linux_for_Tegra/sources/tegra/optee-src/nv-optee/optee/optee_test/ta/socket/ta_entry.c:239
     4c0:	aa1403f6 	mov	x22, x20
/home/ssysarch/Desktop/nick/jetpack_5/Jetson_Linux_R35.4.1_aarch64/Linux_for_Tegra/sources/tegra/optee-src/nv-optee/optee/optee_test/ta/socket/ta_entry.c:241
     4c4:	910143e3 	add	x3, sp, #0x50
     4c8:	f9400a82 	ldr	x2, [x20, #16]
/home/ssysarch/Desktop/nick/jetpack_5/Jetson_Linux_R35.4.1_aarch64/Linux_for_Tegra/sources/tegra/optee-src/nv-optee/optee/optee_test/ta/socket/ta_entry.c:239
     4cc:	f84106c0 	ldr	x0, [x22], #16
/home/ssysarch/Desktop/nick/jetpack_5/Jetson_Linux_R35.4.1_aarch64/Linux_for_Tegra/sources/tegra/optee-src/nv-optee/optee/optee_test/ta/socket/ta_entry.c:240
     4d0:	f94006c1 	ldr	x1, [x22, #8]
     4d4:	b90053e1 	str	w1, [sp, #80]
/home/ssysarch/Desktop/nick/jetpack_5/Jetson_Linux_R35.4.1_aarch64/Linux_for_Tegra/sources/tegra/optee-src/nv-optee/optee/optee_test/ta/socket/ta_entry.c:241
     4d8:	f9400401 	ldr	x1, [x0, #8]
     4dc:	f9400000 	ldr	x0, [x0]
     4e0:	f9401824 	ldr	x4, [x1, #48]
     4e4:	b9402281 	ldr	w1, [x20, #32]
     4e8:	d63f0080 	blr	x4
     4ec:	17ffffca 	b	414 <TA_InvokeCommandEntryPoint+0x2f0>
TA_InvokeCommandEntryPoint():
/home/ssysarch/Desktop/nick/jetpack_5/Jetson_Linux_R35.4.1_aarch64/Linux_for_Tegra/sources/tegra/optee-src/nv-optee/optee/optee_test/ta/socket/ta_entry.c:273
     4f0:	2a1303e0 	mov	w0, w19
     4f4:	a94153f3 	ldp	x19, x20, [sp, #16]
     4f8:	a9425bf5 	ldp	x21, x22, [sp, #32]
     4fc:	a94363f7 	ldp	x23, x24, [sp, #48]
     500:	a8c77bfd 	ldp	x29, x30, [sp], #112
     504:	d65f03c0 	ret

0000000000000508 <__ta_entry>:
__ta_entry():
/home/ssysarch/Desktop/nick/jetpack_5/Jetson_Linux_R35.4.1_aarch64/Linux_for_Tegra/sources/tegra/optee-src/nv-optee/optee/build/t234/export-ta_arm64/src/user_ta_header.c:51
     508:	a9bf7bfd 	stp	x29, x30, [sp, #-16]!
     50c:	910003fd 	mov	x29, sp
/home/ssysarch/Desktop/nick/jetpack_5/Jetson_Linux_R35.4.1_aarch64/Linux_for_Tegra/sources/tegra/optee-src/nv-optee/optee/build/t234/export-ta_arm64/src/user_ta_header.c:70
     510:	94000bce 	bl	3448 <__utee_entry>
/home/ssysarch/Desktop/nick/jetpack_5/Jetson_Linux_R35.4.1_aarch64/Linux_for_Tegra/sources/tegra/optee-src/nv-optee/optee/build/t234/export-ta_arm64/src/user_ta_header.c:81
     514:	2a0003e0 	mov	w0, w0
     518:	94000c71 	bl	36dc <_utee_return>

000000000000051c <tahead_get_trace_level>:
tahead_get_trace_level():
/home/ssysarch/Desktop/nick/jetpack_5/Jetson_Linux_R35.4.1_aarch64/Linux_for_Tegra/sources/tegra/optee-src/nv-optee/optee/build/t234/export-ta_arm64/src/user_ta_header.c:193
     51c:	52800080 	mov	w0, #0x4                   	// #4
     520:	d65f03c0 	ret

0000000000000524 <_assert_trap>:
_assert_trap():
/home/ssysarch/Desktop/nick/jetpack_5/Jetson_Linux_R35.4.1_aarch64/Linux_for_Tegra/sources/tegra/optee-src/nv-optee/optee/optee_os/lib/libutils/isoc/include/assert.h:18
     524:	a9bf7bfd 	stp	x29, x30, [sp, #-16]!
     528:	910003fd 	mov	x29, sp
/home/ssysarch/Desktop/nick/jetpack_5/Jetson_Linux_R35.4.1_aarch64/Linux_for_Tegra/sources/tegra/optee-src/nv-optee/optee/optee_os/lib/libutils/isoc/include/assert.h:19
     52c:	94000907 	bl	2948 <_assert_log>
/home/ssysarch/Desktop/nick/jetpack_5/Jetson_Linux_R35.4.1_aarch64/Linux_for_Tegra/sources/tegra/optee-src/nv-optee/optee/optee_os/lib/libutils/isoc/include/assert.h:20
     530:	94000917 	bl	298c <_assert_break>

0000000000000534 <raw_malloc_return_hook.isra.0>:
raw_malloc_return_hook():
/home/ssysarch/Desktop/nick/jetpack_5/Jetson_Linux_R35.4.1_aarch64/Linux_for_Tegra/sources/tegra/optee-src/nv-optee/optee/optee_os/lib/libutils/isoc/bget_malloc.c:278
     534:	f9401043 	ldr	x3, [x2, #32]
     538:	b9406c44 	ldr	w4, [x2, #108]
     53c:	eb04007f 	cmp	x3, x4
     540:	5400004d 	b.le	548 <raw_malloc_return_hook.isra.0+0x14>
/home/ssysarch/Desktop/nick/jetpack_5/Jetson_Linux_R35.4.1_aarch64/Linux_for_Tegra/sources/tegra/optee-src/nv-optee/optee/optee_os/lib/libutils/isoc/bget_malloc.c:279
     544:	b9006c43 	str	w3, [x2, #108]
/home/ssysarch/Desktop/nick/jetpack_5/Jetson_Linux_R35.4.1_aarch64/Linux_for_Tegra/sources/tegra/optee-src/nv-optee/optee/optee_os/lib/libutils/isoc/bget_malloc.c:281
     548:	b5000100 	cbnz	x0, 568 <raw_malloc_return_hook.isra.0+0x34>
/home/ssysarch/Desktop/nick/jetpack_5/Jetson_Linux_R35.4.1_aarch64/Linux_for_Tegra/sources/tegra/optee-src/nv-optee/optee/optee_os/lib/libutils/isoc/bget_malloc.c:282
     54c:	b9407444 	ldr	w4, [x2, #116]
     550:	11000484 	add	w4, w4, #0x1
     554:	b9007444 	str	w4, [x2, #116]
/home/ssysarch/Desktop/nick/jetpack_5/Jetson_Linux_R35.4.1_aarch64/Linux_for_Tegra/sources/tegra/optee-src/nv-optee/optee/optee_os/lib/libutils/isoc/bget_malloc.c:284
     558:	b9407844 	ldr	w4, [x2, #120]
     55c:	eb01009f 	cmp	x4, x1
     560:	54000042 	b.cs	568 <raw_malloc_return_hook.isra.0+0x34>  // b.hs, b.nlast
/home/ssysarch/Desktop/nick/jetpack_5/Jetson_Linux_R35.4.1_aarch64/Linux_for_Tegra/sources/tegra/optee-src/nv-optee/optee/optee_os/lib/libutils/isoc/bget_malloc.c:286
     564:	290f0c41 	stp	w1, w3, [x2, #120]
/home/ssysarch/Desktop/nick/jetpack_5/Jetson_Linux_R35.4.1_aarch64/Linux_for_Tegra/sources/tegra/optee-src/nv-optee/optee/optee_os/lib/libutils/isoc/bget_malloc.c:292
     568:	d65f03c0 	ret

000000000000056c <bget_buf_size.part.0>:
bget_buf_size():
/home/ssysarch/Desktop/nick/jetpack_5/Jetson_Linux_R35.4.1_aarch64/Linux_for_Tegra/sources/tegra/optee-src/nv-optee/optee/optee_os/lib/libutils/isoc/bget_malloc.c:191
     56c:	a9bf7bfd 	stp	x29, x30, [sp, #-16]!
/home/ssysarch/Desktop/nick/jetpack_5/Jetson_Linux_R35.4.1_aarch64/Linux_for_Tegra/sources/tegra/optee-src/nv-optee/optee/optee_os/lib/libutils/isoc/bget_malloc.c:208
     570:	90000083 	adrp	x3, 10000 <__text_end+0x28b0>
     574:	91312863 	add	x3, x3, #0xc4a
/home/ssysarch/Desktop/nick/jetpack_5/Jetson_Linux_R35.4.1_aarch64/Linux_for_Tegra/sources/tegra/optee-src/nv-optee/optee/optee_os/lib/libutils/isoc/bget_malloc.c:191
     578:	910003fd 	mov	x29, sp
/home/ssysarch/Desktop/nick/jetpack_5/Jetson_Linux_R35.4.1_aarch64/Linux_for_Tegra/sources/tegra/optee-src/nv-optee/optee/optee_os/lib/libutils/isoc/bget_malloc.c:208
     57c:	90000081 	adrp	x1, 10000 <__text_end+0x28b0>
     580:	91256421 	add	x1, x1, #0x959
     584:	90000080 	adrp	x0, 10000 <__text_end+0x28b0>
     588:	9125e400 	add	x0, x0, #0x979
     58c:	52801a02 	mov	w2, #0xd0                  	// #208
     590:	97ffffe5 	bl	524 <_assert_trap>

0000000000000594 <bget>:
bget():
/home/ssysarch/Desktop/nick/jetpack_5/Jetson_Linux_R35.4.1_aarch64/Linux_for_Tegra/sources/tegra/optee-src/nv-optee/optee/optee_os/lib/libutils/isoc/bget.c:612
     594:	a9bf7bfd 	stp	x29, x30, [sp, #-16]!
/home/ssysarch/Desktop/nick/jetpack_5/Jetson_Linux_R35.4.1_aarch64/Linux_for_Tegra/sources/tegra/optee-src/nv-optee/optee/optee_os/lib/libutils/isoc/bget.c:625
     598:	f100005f 	cmp	x2, #0x0
/home/ssysarch/Desktop/nick/jetpack_5/Jetson_Linux_R35.4.1_aarch64/Linux_for_Tegra/sources/tegra/optee-src/nv-optee/optee/optee_os/lib/libutils/isoc/bget.c:612
     59c:	910003fd 	mov	x29, sp
/home/ssysarch/Desktop/nick/jetpack_5/Jetson_Linux_R35.4.1_aarch64/Linux_for_Tegra/sources/tegra/optee-src/nv-optee/optee/optee_os/lib/libutils/isoc/bget.c:625
     5a0:	5400014c 	b.gt	5c8 <bget+0x34>
/home/ssysarch/Desktop/nick/jetpack_5/Jetson_Linux_R35.4.1_aarch64/Linux_for_Tegra/sources/tegra/optee-src/nv-optee/optee/optee_os/lib/libutils/isoc/bget.c:625 (discriminator 1)
     5a4:	90000083 	adrp	x3, 10000 <__text_end+0x28b0>
     5a8:	91312863 	add	x3, x3, #0xc4a
     5ac:	90000081 	adrp	x1, 10000 <__text_end+0x28b0>
     5b0:	91260c21 	add	x1, x1, #0x983
     5b4:	90000080 	adrp	x0, 10000 <__text_end+0x28b0>
     5b8:	91301c00 	add	x0, x0, #0xc07
     5bc:	91003863 	add	x3, x3, #0xe
     5c0:	52804e22 	mov	w2, #0x271                 	// #625
/home/ssysarch/Desktop/nick/jetpack_5/Jetson_Linux_R35.4.1_aarch64/Linux_for_Tegra/sources/tegra/optee-src/nv-optee/optee/optee_os/lib/libutils/isoc/bget.c:690
     5c4:	97ffffd8 	bl	524 <_assert_trap>
/home/ssysarch/Desktop/nick/jetpack_5/Jetson_Linux_R35.4.1_aarch64/Linux_for_Tegra/sources/tegra/optee-src/nv-optee/optee/optee_os/lib/libutils/isoc/bget.c:628 (discriminator 2)
     5c8:	f100001f 	cmp	x0, #0x0
     5cc:	5400024b 	b.lt	614 <bget+0x80>  // b.tstop
/home/ssysarch/Desktop/nick/jetpack_5/Jetson_Linux_R35.4.1_aarch64/Linux_for_Tegra/sources/tegra/optee-src/nv-optee/optee/optee_os/lib/libutils/isoc/bget.c:628 (discriminator 1)
     5d0:	54000080 	b.eq	5e0 <bget+0x4c>  // b.none
/home/ssysarch/Desktop/nick/jetpack_5/Jetson_Linux_R35.4.1_aarch64/Linux_for_Tegra/sources/tegra/optee-src/nv-optee/optee/optee_os/lib/libutils/isoc/bget.c:628 (discriminator 3)
     5d4:	cb0003e4 	neg	x4, x0
     5d8:	ea24001f 	bics	xzr, x0, x4
     5dc:	540001c1 	b.ne	614 <bget+0x80>  // b.any
/home/ssysarch/Desktop/nick/jetpack_5/Jetson_Linux_R35.4.1_aarch64/Linux_for_Tegra/sources/tegra/optee-src/nv-optee/optee/optee_os/lib/libutils/isoc/bget.c:630
     5e0:	91004028 	add	x8, x1, #0x10
     5e4:	f2400c3f 	tst	x1, #0xf
     5e8:	54000161 	b.ne	614 <bget+0x80>  // b.any
/home/ssysarch/Desktop/nick/jetpack_5/Jetson_Linux_R35.4.1_aarch64/Linux_for_Tegra/sources/tegra/optee-src/nv-optee/optee/optee_os/lib/libutils/isoc/bget.c:640
     5ec:	d2800206 	mov	x6, #0x10                  	// #16
     5f0:	eb06005f 	cmp	x2, x6
     5f4:	9a86a042 	csel	x2, x2, x6, ge  // ge = tcont
     5f8:	b1003c44 	adds	x4, x2, #0xf
     5fc:	540000c4 	b.mi	614 <bget+0x80>  // b.first
     600:	eb02009f 	cmp	x4, x2
     604:	54000083 	b.cc	614 <bget+0x80>  // b.lo, b.ul, b.last
/home/ssysarch/Desktop/nick/jetpack_5/Jetson_Linux_R35.4.1_aarch64/Linux_for_Tegra/sources/tegra/optee-src/nv-optee/optee/optee_os/lib/libutils/isoc/bget.c:643
     608:	927cec84 	and	x4, x4, #0xfffffffffffffff0
/home/ssysarch/Desktop/nick/jetpack_5/Jetson_Linux_R35.4.1_aarch64/Linux_for_Tegra/sources/tegra/optee-src/nv-optee/optee/optee_os/lib/libutils/isoc/bget.c:648
     60c:	b1004084 	adds	x4, x4, #0x10
     610:	54000067 	b.vc	61c <bget+0x88>
/home/ssysarch/Desktop/nick/jetpack_5/Jetson_Linux_R35.4.1_aarch64/Linux_for_Tegra/sources/tegra/optee-src/nv-optee/optee/optee_os/lib/libutils/isoc/bget.c:629
     614:	d2800000 	mov	x0, #0x0                   	// #0
     618:	14000094 	b	868 <bget+0x2d4>
/home/ssysarch/Desktop/nick/jetpack_5/Jetson_Linux_R35.4.1_aarch64/Linux_for_Tegra/sources/tegra/optee-src/nv-optee/optee/optee_os/lib/libutils/isoc/bget.c:650
     61c:	ab010084 	adds	x4, x4, x1
     620:	54ffffa6 	b.vs	614 <bget+0x80>
     624:	f100401f 	cmp	x0, #0x10
buf_get_pos():
/home/ssysarch/Desktop/nick/jetpack_5/Jetson_Linux_R35.4.1_aarch64/Linux_for_Tegra/sources/tegra/optee-src/nv-optee/optee/optee_os/lib/libutils/isoc/bget.c:599
     628:	b27be7e9 	mov	x9, #0x7fffffffffffffe0    	// #9223372036854775776
     62c:	9a86a000 	csel	x0, x0, x6, ge  // ge = tcont
bget():
/home/ssysarch/Desktop/nick/jetpack_5/Jetson_Linux_R35.4.1_aarch64/Linux_for_Tegra/sources/tegra/optee-src/nv-optee/optee/optee_os/lib/libutils/isoc/bget.c:660
     630:	f9400862 	ldr	x2, [x3, #16]
buf_get_pos():
/home/ssysarch/Desktop/nick/jetpack_5/Jetson_Linux_R35.4.1_aarch64/Linux_for_Tegra/sources/tegra/optee-src/nv-optee/optee/optee_os/lib/libutils/isoc/bget.c:594
     634:	cb0003e6 	neg	x6, x0
bget():
/home/ssysarch/Desktop/nick/jetpack_5/Jetson_Linux_R35.4.1_aarch64/Linux_for_Tegra/sources/tegra/optee-src/nv-optee/optee/optee_os/lib/libutils/isoc/bget.c:684
     638:	eb03005f 	cmp	x2, x3
     63c:	54fffec0 	b.eq	614 <bget+0x80>  // b.none
buf_get_pos():
/home/ssysarch/Desktop/nick/jetpack_5/Jetson_Linux_R35.4.1_aarch64/Linux_for_Tegra/sources/tegra/optee-src/nv-optee/optee/optee_os/lib/libutils/isoc/bget.c:585
     640:	f9400445 	ldr	x5, [x2, #8]
     644:	eb05009f 	cmp	x4, x5
     648:	5400114c 	b.gt	870 <bget+0x2dc>
/home/ssysarch/Desktop/nick/jetpack_5/Jetson_Linux_R35.4.1_aarch64/Linux_for_Tegra/sources/tegra/optee-src/nv-optee/optee/optee_os/lib/libutils/isoc/bget.c:592
     64c:	cb040040 	sub	x0, x2, x4
/home/ssysarch/Desktop/nick/jetpack_5/Jetson_Linux_R35.4.1_aarch64/Linux_for_Tegra/sources/tegra/optee-src/nv-optee/optee/optee_os/lib/libutils/isoc/bget.c:595
     650:	8b010047 	add	x7, x2, x1
/home/ssysarch/Desktop/nick/jetpack_5/Jetson_Linux_R35.4.1_aarch64/Linux_for_Tegra/sources/tegra/optee-src/nv-optee/optee/optee_os/lib/libutils/isoc/bget.c:592
     654:	8b080000 	add	x0, x0, x8
     658:	8b050000 	add	x0, x0, x5
/home/ssysarch/Desktop/nick/jetpack_5/Jetson_Linux_R35.4.1_aarch64/Linux_for_Tegra/sources/tegra/optee-src/nv-optee/optee/optee_os/lib/libutils/isoc/bget.c:594
     65c:	8a0000c0 	and	x0, x6, x0
/home/ssysarch/Desktop/nick/jetpack_5/Jetson_Linux_R35.4.1_aarch64/Linux_for_Tegra/sources/tegra/optee-src/nv-optee/optee/optee_os/lib/libutils/isoc/bget.c:595
     660:	cb070000 	sub	x0, x0, x7
/home/ssysarch/Desktop/nick/jetpack_5/Jetson_Linux_R35.4.1_aarch64/Linux_for_Tegra/sources/tegra/optee-src/nv-optee/optee/optee_os/lib/libutils/isoc/bget.c:597
     664:	f1004007 	subs	x7, x0, #0x10
     668:	54000080 	b.eq	678 <bget+0xe4>  // b.none
/home/ssysarch/Desktop/nick/jetpack_5/Jetson_Linux_R35.4.1_aarch64/Linux_for_Tegra/sources/tegra/optee-src/nv-optee/optee/optee_os/lib/libutils/isoc/bget.c:599
     66c:	d100c000 	sub	x0, x0, #0x30
     670:	eb09001f 	cmp	x0, x9
     674:	54000fe2 	b.cs	870 <bget+0x2dc>  // b.hs, b.nlast
bget():
/home/ssysarch/Desktop/nick/jetpack_5/Jetson_Linux_R35.4.1_aarch64/Linux_for_Tegra/sources/tegra/optee-src/nv-optee/optee/optee_os/lib/libutils/isoc/bget.c:690
     678:	f8656841 	ldr	x1, [x2, x5]
/home/ssysarch/Desktop/nick/jetpack_5/Jetson_Linux_R35.4.1_aarch64/Linux_for_Tegra/sources/tegra/optee-src/nv-optee/optee/optee_os/lib/libutils/isoc/bget.c:687
     67c:	8b070040 	add	x0, x2, x7
/home/ssysarch/Desktop/nick/jetpack_5/Jetson_Linux_R35.4.1_aarch64/Linux_for_Tegra/sources/tegra/optee-src/nv-optee/optee/optee_os/lib/libutils/isoc/bget.c:688
     680:	8b050046 	add	x6, x2, x5
/home/ssysarch/Desktop/nick/jetpack_5/Jetson_Linux_R35.4.1_aarch64/Linux_for_Tegra/sources/tegra/optee-src/nv-optee/optee/optee_os/lib/libutils/isoc/bget.c:690
     684:	eb05003f 	cmp	x1, x5
     688:	54000140 	b.eq	6b0 <bget+0x11c>  // b.none
     68c:	90000083 	adrp	x3, 10000 <__text_end+0x28b0>
     690:	91312863 	add	x3, x3, #0xc4a
     694:	90000081 	adrp	x1, 10000 <__text_end+0x28b0>
     698:	91260c21 	add	x1, x1, #0x983
     69c:	90000080 	adrp	x0, 10000 <__text_end+0x28b0>
     6a0:	91267000 	add	x0, x0, #0x99c
     6a4:	91003863 	add	x3, x3, #0xe
     6a8:	52805642 	mov	w2, #0x2b2                 	// #690
     6ac:	17ffffc6 	b	5c4 <bget+0x30>
/home/ssysarch/Desktop/nick/jetpack_5/Jetson_Linux_R35.4.1_aarch64/Linux_for_Tegra/sources/tegra/optee-src/nv-optee/optee/optee_os/lib/libutils/isoc/bget.c:698
     6b0:	f9400c41 	ldr	x1, [x2, #24]
/home/ssysarch/Desktop/nick/jetpack_5/Jetson_Linux_R35.4.1_aarch64/Linux_for_Tegra/sources/tegra/optee-src/nv-optee/optee/optee_os/lib/libutils/isoc/bget.c:696
     6b4:	f825685f 	str	xzr, [x2, x5]
/home/ssysarch/Desktop/nick/jetpack_5/Jetson_Linux_R35.4.1_aarch64/Linux_for_Tegra/sources/tegra/optee-src/nv-optee/optee/optee_os/lib/libutils/isoc/bget.c:698
     6b8:	f9400828 	ldr	x8, [x1, #16]
     6bc:	eb08005f 	cmp	x2, x8
     6c0:	54000140 	b.eq	6e8 <bget+0x154>  // b.none
     6c4:	90000083 	adrp	x3, 10000 <__text_end+0x28b0>
     6c8:	91312863 	add	x3, x3, #0xc4a
     6cc:	90000081 	adrp	x1, 10000 <__text_end+0x28b0>
     6d0:	91260c21 	add	x1, x1, #0x983
     6d4:	90000080 	adrp	x0, 10000 <__text_end+0x28b0>
     6d8:	9126f000 	add	x0, x0, #0x9bc
     6dc:	91003863 	add	x3, x3, #0xe
     6e0:	52805742 	mov	w2, #0x2ba                 	// #698
     6e4:	17ffffb8 	b	5c4 <bget+0x30>
/home/ssysarch/Desktop/nick/jetpack_5/Jetson_Linux_R35.4.1_aarch64/Linux_for_Tegra/sources/tegra/optee-src/nv-optee/optee/optee_os/lib/libutils/isoc/bget.c:699
     6e8:	f9400848 	ldr	x8, [x2, #16]
     6ec:	f9400d09 	ldr	x9, [x8, #24]
     6f0:	eb09005f 	cmp	x2, x9
     6f4:	54000140 	b.eq	71c <bget+0x188>  // b.none
     6f8:	90000083 	adrp	x3, 10000 <__text_end+0x28b0>
     6fc:	91312863 	add	x3, x3, #0xc4a
     700:	90000081 	adrp	x1, 10000 <__text_end+0x28b0>
     704:	91260c21 	add	x1, x1, #0x983
     708:	90000080 	adrp	x0, 10000 <__text_end+0x28b0>
     70c:	91275c00 	add	x0, x0, #0x9d7
     710:	91003863 	add	x3, x3, #0xe
     714:	52805762 	mov	w2, #0x2bb                 	// #699
     718:	17ffffab 	b	5c4 <bget+0x30>
/home/ssysarch/Desktop/nick/jetpack_5/Jetson_Linux_R35.4.1_aarch64/Linux_for_Tegra/sources/tegra/optee-src/nv-optee/optee/optee_os/lib/libutils/isoc/bget.c:701
     71c:	b5000227 	cbnz	x7, 760 <bget+0x1cc>
/home/ssysarch/Desktop/nick/jetpack_5/Jetson_Linux_R35.4.1_aarch64/Linux_for_Tegra/sources/tegra/optee-src/nv-optee/optee/optee_os/lib/libutils/isoc/bget.c:706
     720:	f9000828 	str	x8, [x1, #16]
/home/ssysarch/Desktop/nick/jetpack_5/Jetson_Linux_R35.4.1_aarch64/Linux_for_Tegra/sources/tegra/optee-src/nv-optee/optee/optee_os/lib/libutils/isoc/bget.c:710
     724:	cb0503e5 	neg	x5, x5
/home/ssysarch/Desktop/nick/jetpack_5/Jetson_Linux_R35.4.1_aarch64/Linux_for_Tegra/sources/tegra/optee-src/nv-optee/optee/optee_os/lib/libutils/isoc/bget.c:707
     728:	f9400847 	ldr	x7, [x2, #16]
     72c:	f9000ce1 	str	x1, [x7, #24]
/home/ssysarch/Desktop/nick/jetpack_5/Jetson_Linux_R35.4.1_aarch64/Linux_for_Tegra/sources/tegra/optee-src/nv-optee/optee/optee_os/lib/libutils/isoc/bget.c:710
     730:	f9000445 	str	x5, [x2, #8]
/home/ssysarch/Desktop/nick/jetpack_5/Jetson_Linux_R35.4.1_aarch64/Linux_for_Tegra/sources/tegra/optee-src/nv-optee/optee/optee_os/lib/libutils/isoc/bget.c:721
     734:	f9400402 	ldr	x2, [x0, #8]
     738:	b7f801c2 	tbnz	x2, #63, 770 <bget+0x1dc>
     73c:	90000083 	adrp	x3, 10000 <__text_end+0x28b0>
     740:	91312863 	add	x3, x3, #0xc4a
     744:	90000081 	adrp	x1, 10000 <__text_end+0x28b0>
     748:	91260c21 	add	x1, x1, #0x983
     74c:	90000080 	adrp	x0, 10000 <__text_end+0x28b0>
     750:	9127c800 	add	x0, x0, #0x9f2
     754:	91003863 	add	x3, x3, #0xe
     758:	52805a22 	mov	w2, #0x2d1                 	// #721
     75c:	17ffff9a 	b	5c4 <bget+0x30>
/home/ssysarch/Desktop/nick/jetpack_5/Jetson_Linux_R35.4.1_aarch64/Linux_for_Tegra/sources/tegra/optee-src/nv-optee/optee/optee_os/lib/libutils/isoc/bget.c:716
     760:	cb0500e5 	sub	x5, x7, x5
     764:	a9001407 	stp	x7, x5, [x0]
/home/ssysarch/Desktop/nick/jetpack_5/Jetson_Linux_R35.4.1_aarch64/Linux_for_Tegra/sources/tegra/optee-src/nv-optee/optee/optee_os/lib/libutils/isoc/bget.c:718
     768:	f9000447 	str	x7, [x2, #8]
     76c:	17fffff2 	b	734 <bget+0x1a0>
/home/ssysarch/Desktop/nick/jetpack_5/Jetson_Linux_R35.4.1_aarch64/Linux_for_Tegra/sources/tegra/optee-src/nv-optee/optee/optee_os/lib/libutils/isoc/bget.c:727
     770:	cb0203e2 	neg	x2, x2
     774:	cb040042 	sub	x2, x2, x4
     778:	f100805f 	cmp	x2, #0x20
     77c:	54000669 	b.ls	848 <bget+0x2b4>  // b.plast
/home/ssysarch/Desktop/nick/jetpack_5/Jetson_Linux_R35.4.1_aarch64/Linux_for_Tegra/sources/tegra/optee-src/nv-optee/optee/optee_os/lib/libutils/isoc/bget.c:733
     780:	8b040001 	add	x1, x0, x4
/home/ssysarch/Desktop/nick/jetpack_5/Jetson_Linux_R35.4.1_aarch64/Linux_for_Tegra/sources/tegra/optee-src/nv-optee/optee/optee_os/lib/libutils/isoc/bget.c:734
     784:	f9000422 	str	x2, [x1, #8]
/home/ssysarch/Desktop/nick/jetpack_5/Jetson_Linux_R35.4.1_aarch64/Linux_for_Tegra/sources/tegra/optee-src/nv-optee/optee/optee_os/lib/libutils/isoc/bget.c:735
     788:	f824681f 	str	xzr, [x0, x4]
/home/ssysarch/Desktop/nick/jetpack_5/Jetson_Linux_R35.4.1_aarch64/Linux_for_Tegra/sources/tegra/optee-src/nv-optee/optee/optee_os/lib/libutils/isoc/bget.c:736
     78c:	f9400404 	ldr	x4, [x0, #8]
     790:	8b020082 	add	x2, x4, x2
     794:	f9000402 	str	x2, [x0, #8]
/home/ssysarch/Desktop/nick/jetpack_5/Jetson_Linux_R35.4.1_aarch64/Linux_for_Tegra/sources/tegra/optee-src/nv-optee/optee/optee_os/lib/libutils/isoc/bget.c:738
     798:	f9400c62 	ldr	x2, [x3, #24]
     79c:	f9400844 	ldr	x4, [x2, #16]
     7a0:	eb03009f 	cmp	x4, x3
     7a4:	54000140 	b.eq	7cc <bget+0x238>  // b.none
     7a8:	90000083 	adrp	x3, 10000 <__text_end+0x28b0>
     7ac:	91312863 	add	x3, x3, #0xc4a
     7b0:	90000081 	adrp	x1, 10000 <__text_end+0x28b0>
     7b4:	91260c21 	add	x1, x1, #0x983
     7b8:	90000080 	adrp	x0, 10000 <__text_end+0x28b0>
     7bc:	91281400 	add	x0, x0, #0xa05
     7c0:	91003863 	add	x3, x3, #0xe
     7c4:	52805c42 	mov	w2, #0x2e2                 	// #738
     7c8:	17ffff7f 	b	5c4 <bget+0x30>
/home/ssysarch/Desktop/nick/jetpack_5/Jetson_Linux_R35.4.1_aarch64/Linux_for_Tegra/sources/tegra/optee-src/nv-optee/optee/optee_os/lib/libutils/isoc/bget.c:740
     7cc:	f9400864 	ldr	x4, [x3, #16]
     7d0:	f9400c84 	ldr	x4, [x4, #24]
     7d4:	eb03009f 	cmp	x4, x3
     7d8:	54000140 	b.eq	800 <bget+0x26c>  // b.none
     7dc:	90000083 	adrp	x3, 10000 <__text_end+0x28b0>
     7e0:	91312863 	add	x3, x3, #0xc4a
     7e4:	90000081 	adrp	x1, 10000 <__text_end+0x28b0>
     7e8:	91260c21 	add	x1, x1, #0x983
     7ec:	90000080 	adrp	x0, 10000 <__text_end+0x28b0>
     7f0:	91290000 	add	x0, x0, #0xa40
     7f4:	91003863 	add	x3, x3, #0xe
     7f8:	52805c82 	mov	w2, #0x2e4                 	// #740
     7fc:	17ffff72 	b	5c4 <bget+0x30>
/home/ssysarch/Desktop/nick/jetpack_5/Jetson_Linux_R35.4.1_aarch64/Linux_for_Tegra/sources/tegra/optee-src/nv-optee/optee/optee_os/lib/libutils/isoc/bget.c:743
     800:	a9010823 	stp	x3, x2, [x1, #16]
/home/ssysarch/Desktop/nick/jetpack_5/Jetson_Linux_R35.4.1_aarch64/Linux_for_Tegra/sources/tegra/optee-src/nv-optee/optee/optee_os/lib/libutils/isoc/bget.c:744
     804:	f9000c61 	str	x1, [x3, #24]
/home/ssysarch/Desktop/nick/jetpack_5/Jetson_Linux_R35.4.1_aarch64/Linux_for_Tegra/sources/tegra/optee-src/nv-optee/optee/optee_os/lib/libutils/isoc/bget.c:745
     808:	f9400c22 	ldr	x2, [x1, #24]
     80c:	f9000841 	str	x1, [x2, #16]
/home/ssysarch/Desktop/nick/jetpack_5/Jetson_Linux_R35.4.1_aarch64/Linux_for_Tegra/sources/tegra/optee-src/nv-optee/optee/optee_os/lib/libutils/isoc/bget.c:747
     810:	f9400422 	ldr	x2, [x1, #8]
     814:	8b020021 	add	x1, x1, x2
     818:	eb0100df 	cmp	x6, x1
     81c:	54000140 	b.eq	844 <bget+0x2b0>  // b.none
     820:	90000083 	adrp	x3, 10000 <__text_end+0x28b0>
     824:	91312863 	add	x3, x3, #0xc4a
     828:	90000081 	adrp	x1, 10000 <__text_end+0x28b0>
     82c:	91260c21 	add	x1, x1, #0x983
     830:	90000080 	adrp	x0, 10000 <__text_end+0x28b0>
     834:	9129ec00 	add	x0, x0, #0xa7b
     838:	91003863 	add	x3, x3, #0xe
     83c:	52805d62 	mov	w2, #0x2eb                 	// #747
     840:	17ffff61 	b	5c4 <bget+0x30>
/home/ssysarch/Desktop/nick/jetpack_5/Jetson_Linux_R35.4.1_aarch64/Linux_for_Tegra/sources/tegra/optee-src/nv-optee/optee/optee_os/lib/libutils/isoc/bget.c:748
     844:	f90000c2 	str	x2, [x6]
/home/ssysarch/Desktop/nick/jetpack_5/Jetson_Linux_R35.4.1_aarch64/Linux_for_Tegra/sources/tegra/optee-src/nv-optee/optee/optee_os/lib/libutils/isoc/bget.c:752
     848:	f9400402 	ldr	x2, [x0, #8]
/home/ssysarch/Desktop/nick/jetpack_5/Jetson_Linux_R35.4.1_aarch64/Linux_for_Tegra/sources/tegra/optee-src/nv-optee/optee/optee_os/lib/libutils/isoc/bget.c:755
     84c:	91004000 	add	x0, x0, #0x10
/home/ssysarch/Desktop/nick/jetpack_5/Jetson_Linux_R35.4.1_aarch64/Linux_for_Tegra/sources/tegra/optee-src/nv-optee/optee/optee_os/lib/libutils/isoc/bget.c:752
     850:	f9401061 	ldr	x1, [x3, #32]
     854:	cb020021 	sub	x1, x1, x2
     858:	f9001061 	str	x1, [x3, #32]
/home/ssysarch/Desktop/nick/jetpack_5/Jetson_Linux_R35.4.1_aarch64/Linux_for_Tegra/sources/tegra/optee-src/nv-optee/optee/optee_os/lib/libutils/isoc/bget.c:753
     85c:	f9401461 	ldr	x1, [x3, #40]
     860:	91000421 	add	x1, x1, #0x1
     864:	f9001461 	str	x1, [x3, #40]
/home/ssysarch/Desktop/nick/jetpack_5/Jetson_Linux_R35.4.1_aarch64/Linux_for_Tegra/sources/tegra/optee-src/nv-optee/optee/optee_os/lib/libutils/isoc/bget.c:837
     868:	a8c17bfd 	ldp	x29, x30, [sp], #16
     86c:	d65f03c0 	ret
/home/ssysarch/Desktop/nick/jetpack_5/Jetson_Linux_R35.4.1_aarch64/Linux_for_Tegra/sources/tegra/optee-src/nv-optee/optee/optee_os/lib/libutils/isoc/bget.c:758
     870:	f9400842 	ldr	x2, [x2, #16]
     874:	17ffff71 	b	638 <bget+0xa4>

0000000000000878 <bgetz>:
bgetz():
/home/ssysarch/Desktop/nick/jetpack_5/Jetson_Linux_R35.4.1_aarch64/Linux_for_Tegra/sources/tegra/optee-src/nv-optee/optee/optee_os/lib/libutils/isoc/bget.c:848
     878:	a9be7bfd 	stp	x29, x30, [sp, #-32]!
     87c:	910003fd 	mov	x29, sp
     880:	f9000bf3 	str	x19, [sp, #16]
     884:	aa0203f3 	mov	x19, x2
/home/ssysarch/Desktop/nick/jetpack_5/Jetson_Linux_R35.4.1_aarch64/Linux_for_Tegra/sources/tegra/optee-src/nv-optee/optee/optee_os/lib/libutils/isoc/bget.c:849
     888:	97ffff43 	bl	594 <bget>
     88c:	aa0003e3 	mov	x3, x0
/home/ssysarch/Desktop/nick/jetpack_5/Jetson_Linux_R35.4.1_aarch64/Linux_for_Tegra/sources/tegra/optee-src/nv-optee/optee/optee_os/lib/libutils/isoc/bget.c:851
     890:	b4000300 	cbz	x0, 8f0 <bgetz+0x78>
/home/ssysarch/Desktop/nick/jetpack_5/Jetson_Linux_R35.4.1_aarch64/Linux_for_Tegra/sources/tegra/optee-src/nv-optee/optee/optee_os/lib/libutils/isoc/bget.c:856
     894:	f85f8002 	ldur	x2, [x0, #-8]
/home/ssysarch/Desktop/nick/jetpack_5/Jetson_Linux_R35.4.1_aarch64/Linux_for_Tegra/sources/tegra/optee-src/nv-optee/optee/optee_os/lib/libutils/isoc/bget.c:857
     898:	b50001e2 	cbnz	x2, 8d4 <bgetz+0x5c>
/home/ssysarch/Desktop/nick/jetpack_5/Jetson_Linux_R35.4.1_aarch64/Linux_for_Tegra/sources/tegra/optee-src/nv-optee/optee/optee_os/lib/libutils/isoc/bget.c:861
     89c:	a97e0801 	ldp	x1, x2, [x0, #-32]
     8a0:	d1008021 	sub	x1, x1, #0x20
/home/ssysarch/Desktop/nick/jetpack_5/Jetson_Linux_R35.4.1_aarch64/Linux_for_Tegra/sources/tegra/optee-src/nv-optee/optee/optee_os/lib/libutils/isoc/bget.c:863
     8a4:	cb020022 	sub	x2, x1, x2
/home/ssysarch/Desktop/nick/jetpack_5/Jetson_Linux_R35.4.1_aarch64/Linux_for_Tegra/sources/tegra/optee-src/nv-optee/optee/optee_os/lib/libutils/isoc/bget.c:865
     8a8:	eb13005f 	cmp	x2, x19
     8ac:	5400018a 	b.ge	8dc <bgetz+0x64>  // b.tcont
     8b0:	90000083 	adrp	x3, 10000 <__text_end+0x28b0>
     8b4:	91312863 	add	x3, x3, #0xc4a
     8b8:	90000081 	adrp	x1, 10000 <__text_end+0x28b0>
     8bc:	91260c21 	add	x1, x1, #0x983
     8c0:	90000080 	adrp	x0, 10000 <__text_end+0x28b0>
     8c4:	912a8400 	add	x0, x0, #0xaa1
     8c8:	91004c63 	add	x3, x3, #0x13
     8cc:	52806c22 	mov	w2, #0x361                 	// #865
     8d0:	97ffff15 	bl	524 <_assert_trap>
/home/ssysarch/Desktop/nick/jetpack_5/Jetson_Linux_R35.4.1_aarch64/Linux_for_Tegra/sources/tegra/optee-src/nv-optee/optee/optee_os/lib/libutils/isoc/bget.c:863
     8d4:	928001e1 	mov	x1, #0xfffffffffffffff0    	// #-16
     8d8:	17fffff3 	b	8a4 <bgetz+0x2c>
memset_unchecked():
/home/ssysarch/Desktop/nick/jetpack_5/Jetson_Linux_R35.4.1_aarch64/Linux_for_Tegra/sources/tegra/optee-src/nv-optee/optee/optee_os/lib/libutils/isoc/bget_malloc.c:115
     8dc:	aa0303e0 	mov	x0, x3
     8e0:	93407c42 	sxtw	x2, w2
     8e4:	52800001 	mov	w1, #0x0                   	// #0
     8e8:	940002fe 	bl	14e0 <memset>
     8ec:	aa0003e3 	mov	x3, x0
bgetz():
/home/ssysarch/Desktop/nick/jetpack_5/Jetson_Linux_R35.4.1_aarch64/Linux_for_Tegra/sources/tegra/optee-src/nv-optee/optee/optee_os/lib/libutils/isoc/bget.c:869
     8f0:	aa0303e0 	mov	x0, x3
     8f4:	f9400bf3 	ldr	x19, [sp, #16]
     8f8:	a8c27bfd 	ldp	x29, x30, [sp], #32
     8fc:	d65f03c0 	ret

0000000000000900 <brel>:
brel():
/home/ssysarch/Desktop/nick/jetpack_5/Jetson_Linux_R35.4.1_aarch64/Linux_for_Tegra/sources/tegra/optee-src/nv-optee/optee/optee_os/lib/libutils/isoc/bget.c:923
     900:	a9be7bfd 	stp	x29, x30, [sp, #-32]!
     904:	2a0203e6 	mov	w6, w2
     908:	aa0003e3 	mov	x3, x0
     90c:	910003fd 	mov	x29, sp
/home/ssysarch/Desktop/nick/jetpack_5/Jetson_Linux_R35.4.1_aarch64/Linux_for_Tegra/sources/tegra/optee-src/nv-optee/optee/optee_os/lib/libutils/isoc/bget.c:930
     910:	f9401822 	ldr	x2, [x1, #48]
/home/ssysarch/Desktop/nick/jetpack_5/Jetson_Linux_R35.4.1_aarch64/Linux_for_Tegra/sources/tegra/optee-src/nv-optee/optee/optee_os/lib/libutils/isoc/bget.c:923
     914:	a90153f3 	stp	x19, x20, [sp, #16]
/home/ssysarch/Desktop/nick/jetpack_5/Jetson_Linux_R35.4.1_aarch64/Linux_for_Tegra/sources/tegra/optee-src/nv-optee/optee/optee_os/lib/libutils/isoc/bget.c:930
     918:	91000442 	add	x2, x2, #0x1
     91c:	f9001822 	str	x2, [x1, #48]
/home/ssysarch/Desktop/nick/jetpack_5/Jetson_Linux_R35.4.1_aarch64/Linux_for_Tegra/sources/tegra/optee-src/nv-optee/optee/optee_os/lib/libutils/isoc/bget.c:932
     920:	b5000140 	cbnz	x0, 948 <brel+0x48>
/home/ssysarch/Desktop/nick/jetpack_5/Jetson_Linux_R35.4.1_aarch64/Linux_for_Tegra/sources/tegra/optee-src/nv-optee/optee/optee_os/lib/libutils/isoc/bget.c:932 (discriminator 1)
     924:	90000083 	adrp	x3, 10000 <__text_end+0x28b0>
     928:	91312863 	add	x3, x3, #0xc4a
     92c:	90000081 	adrp	x1, 10000 <__text_end+0x28b0>
     930:	91260c21 	add	x1, x1, #0x983
     934:	90000080 	adrp	x0, 10000 <__text_end+0x28b0>
     938:	912abc00 	add	x0, x0, #0xaaf
     93c:	91006463 	add	x3, x3, #0x19
     940:	52807482 	mov	w2, #0x3a4                 	// #932
/home/ssysarch/Desktop/nick/jetpack_5/Jetson_Linux_R35.4.1_aarch64/Linux_for_Tegra/sources/tegra/optee-src/nv-optee/optee/optee_os/lib/libutils/isoc/bget.c:965 (discriminator 1)
     944:	97fffef8 	bl	524 <_assert_trap>
/home/ssysarch/Desktop/nick/jetpack_5/Jetson_Linux_R35.4.1_aarch64/Linux_for_Tegra/sources/tegra/optee-src/nv-optee/optee/optee_os/lib/libutils/isoc/bget.c:962
     948:	f85f8004 	ldur	x4, [x0, #-8]
/home/ssysarch/Desktop/nick/jetpack_5/Jetson_Linux_R35.4.1_aarch64/Linux_for_Tegra/sources/tegra/optee-src/nv-optee/optee/optee_os/lib/libutils/isoc/bget.c:965
     94c:	b7f80144 	tbnz	x4, #63, 974 <brel+0x74>
/home/ssysarch/Desktop/nick/jetpack_5/Jetson_Linux_R35.4.1_aarch64/Linux_for_Tegra/sources/tegra/optee-src/nv-optee/optee/optee_os/lib/libutils/isoc/bget.c:965 (discriminator 1)
     950:	90000083 	adrp	x3, 10000 <__text_end+0x28b0>
     954:	91312863 	add	x3, x3, #0xc4a
     958:	90000081 	adrp	x1, 10000 <__text_end+0x28b0>
     95c:	91260c21 	add	x1, x1, #0x983
     960:	90000080 	adrp	x0, 10000 <__text_end+0x28b0>
     964:	912aec00 	add	x0, x0, #0xabb
     968:	91006463 	add	x3, x3, #0x19
     96c:	528078a2 	mov	w2, #0x3c5                 	// #965
     970:	17fffff5 	b	944 <brel+0x44>
     974:	d1004000 	sub	x0, x0, #0x10
/home/ssysarch/Desktop/nick/jetpack_5/Jetson_Linux_R35.4.1_aarch64/Linux_for_Tegra/sources/tegra/optee-src/nv-optee/optee/optee_os/lib/libutils/isoc/bget.c:970
     978:	cb040002 	sub	x2, x0, x4
     97c:	f9400042 	ldr	x2, [x2]
     980:	b4000142 	cbz	x2, 9a8 <brel+0xa8>
/home/ssysarch/Desktop/nick/jetpack_5/Jetson_Linux_R35.4.1_aarch64/Linux_for_Tegra/sources/tegra/optee-src/nv-optee/optee/optee_os/lib/libutils/isoc/bget.c:970 (discriminator 1)
     984:	90000083 	adrp	x3, 10000 <__text_end+0x28b0>
     988:	91312863 	add	x3, x3, #0xc4a
     98c:	90000081 	adrp	x1, 10000 <__text_end+0x28b0>
     990:	91260c21 	add	x1, x1, #0x983
     994:	90000080 	adrp	x0, 10000 <__text_end+0x28b0>
     998:	912b2c00 	add	x0, x0, #0xacb
     99c:	91006463 	add	x3, x3, #0x19
     9a0:	52807942 	mov	w2, #0x3ca                 	// #970
     9a4:	17ffffe8 	b	944 <brel+0x44>
/home/ssysarch/Desktop/nick/jetpack_5/Jetson_Linux_R35.4.1_aarch64/Linux_for_Tegra/sources/tegra/optee-src/nv-optee/optee/optee_os/lib/libutils/isoc/bget.c:973
     9a8:	f9401025 	ldr	x5, [x1, #32]
     9ac:	8b050085 	add	x5, x4, x5
     9b0:	f9001025 	str	x5, [x1, #32]
/home/ssysarch/Desktop/nick/jetpack_5/Jetson_Linux_R35.4.1_aarch64/Linux_for_Tegra/sources/tegra/optee-src/nv-optee/optee/optee_os/lib/libutils/isoc/bget.c:974
     9b4:	b6f80145 	tbz	x5, #63, 9dc <brel+0xdc>
/home/ssysarch/Desktop/nick/jetpack_5/Jetson_Linux_R35.4.1_aarch64/Linux_for_Tegra/sources/tegra/optee-src/nv-optee/optee/optee_os/lib/libutils/isoc/bget.c:974 (discriminator 1)
     9b8:	90000083 	adrp	x3, 10000 <__text_end+0x28b0>
     9bc:	91312863 	add	x3, x3, #0xc4a
     9c0:	90000081 	adrp	x1, 10000 <__text_end+0x28b0>
     9c4:	91260c21 	add	x1, x1, #0x983
     9c8:	90000080 	adrp	x0, 10000 <__text_end+0x28b0>
     9cc:	912bdc00 	add	x0, x0, #0xaf7
     9d0:	91006463 	add	x3, x3, #0x19
     9d4:	528079c2 	mov	w2, #0x3ce                 	// #974
     9d8:	17ffffdb 	b	944 <brel+0x44>
/home/ssysarch/Desktop/nick/jetpack_5/Jetson_Linux_R35.4.1_aarch64/Linux_for_Tegra/sources/tegra/optee-src/nv-optee/optee/optee_os/lib/libutils/isoc/bget.c:979
     9dc:	f85f0065 	ldur	x5, [x3, #-16]
     9e0:	cb0403e2 	neg	x2, x4
     9e4:	b4000425 	cbz	x5, a68 <brel+0x168>
/home/ssysarch/Desktop/nick/jetpack_5/Jetson_Linux_R35.4.1_aarch64/Linux_for_Tegra/sources/tegra/optee-src/nv-optee/optee/optee_os/lib/libutils/isoc/bget.c:994
     9e8:	cb050013 	sub	x19, x0, x5
     9ec:	f9400661 	ldr	x1, [x19, #8]
     9f0:	eb0100bf 	cmp	x5, x1
     9f4:	54000140 	b.eq	a1c <brel+0x11c>  // b.none
/home/ssysarch/Desktop/nick/jetpack_5/Jetson_Linux_R35.4.1_aarch64/Linux_for_Tegra/sources/tegra/optee-src/nv-optee/optee/optee_os/lib/libutils/isoc/bget.c:994 (discriminator 1)
     9f8:	90000083 	adrp	x3, 10000 <__text_end+0x28b0>
     9fc:	91312863 	add	x3, x3, #0xc4a
     a00:	90000081 	adrp	x1, 10000 <__text_end+0x28b0>
     a04:	91260c21 	add	x1, x1, #0x983
     a08:	90000080 	adrp	x0, 10000 <__text_end+0x28b0>
     a0c:	912c3800 	add	x0, x0, #0xb0e
     a10:	91006463 	add	x3, x3, #0x19
     a14:	52807c42 	mov	w2, #0x3e2                 	// #994
     a18:	17ffffcb 	b	944 <brel+0x44>
/home/ssysarch/Desktop/nick/jetpack_5/Jetson_Linux_R35.4.1_aarch64/Linux_for_Tegra/sources/tegra/optee-src/nv-optee/optee/optee_os/lib/libutils/isoc/bget.c:996
     a1c:	cb0400a4 	sub	x4, x5, x4
     a20:	f9000664 	str	x4, [x19, #8]
/home/ssysarch/Desktop/nick/jetpack_5/Jetson_Linux_R35.4.1_aarch64/Linux_for_Tegra/sources/tegra/optee-src/nv-optee/optee/optee_os/lib/libutils/isoc/bget.c:1019
     a24:	f9400661 	ldr	x1, [x19, #8]
     a28:	8b010274 	add	x20, x19, x1
/home/ssysarch/Desktop/nick/jetpack_5/Jetson_Linux_R35.4.1_aarch64/Linux_for_Tegra/sources/tegra/optee-src/nv-optee/optee/optee_os/lib/libutils/isoc/bget.c:1020
     a2c:	f9400683 	ldr	x3, [x20, #8]
     a30:	f100007f 	cmp	x3, #0x0
     a34:	54000a2d 	b.le	b78 <brel+0x278>
/home/ssysarch/Desktop/nick/jetpack_5/Jetson_Linux_R35.4.1_aarch64/Linux_for_Tegra/sources/tegra/optee-src/nv-optee/optee/optee_os/lib/libutils/isoc/bget.c:1025
     a38:	f8636a84 	ldr	x4, [x20, x3]
     a3c:	eb04007f 	cmp	x3, x4
     a40:	540005c0 	b.eq	af8 <brel+0x1f8>  // b.none
/home/ssysarch/Desktop/nick/jetpack_5/Jetson_Linux_R35.4.1_aarch64/Linux_for_Tegra/sources/tegra/optee-src/nv-optee/optee/optee_os/lib/libutils/isoc/bget.c:1025 (discriminator 1)
     a44:	90000083 	adrp	x3, 10000 <__text_end+0x28b0>
     a48:	91312863 	add	x3, x3, #0xc4a
     a4c:	90000081 	adrp	x1, 10000 <__text_end+0x28b0>
     a50:	91260c21 	add	x1, x1, #0x983
     a54:	90000080 	adrp	x0, 10000 <__text_end+0x28b0>
     a58:	912d1c00 	add	x0, x0, #0xb47
     a5c:	91006463 	add	x3, x3, #0x19
     a60:	52808022 	mov	w2, #0x401                 	// #1025
     a64:	17ffffb8 	b	944 <brel+0x44>
/home/ssysarch/Desktop/nick/jetpack_5/Jetson_Linux_R35.4.1_aarch64/Linux_for_Tegra/sources/tegra/optee-src/nv-optee/optee/optee_os/lib/libutils/isoc/bget.c:1002
     a68:	f9400c27 	ldr	x7, [x1, #24]
     a6c:	f94008e5 	ldr	x5, [x7, #16]
     a70:	eb0100bf 	cmp	x5, x1
     a74:	54000140 	b.eq	a9c <brel+0x19c>  // b.none
/home/ssysarch/Desktop/nick/jetpack_5/Jetson_Linux_R35.4.1_aarch64/Linux_for_Tegra/sources/tegra/optee-src/nv-optee/optee/optee_os/lib/libutils/isoc/bget.c:1002 (discriminator 1)
     a78:	90000083 	adrp	x3, 10000 <__text_end+0x28b0>
     a7c:	91312863 	add	x3, x3, #0xc4a
     a80:	90000081 	adrp	x1, 10000 <__text_end+0x28b0>
     a84:	91260c21 	add	x1, x1, #0x983
     a88:	90000080 	adrp	x0, 10000 <__text_end+0x28b0>
     a8c:	91281400 	add	x0, x0, #0xa05
     a90:	91006463 	add	x3, x3, #0x19
     a94:	52807d42 	mov	w2, #0x3ea                 	// #1002
     a98:	17ffffab 	b	944 <brel+0x44>
/home/ssysarch/Desktop/nick/jetpack_5/Jetson_Linux_R35.4.1_aarch64/Linux_for_Tegra/sources/tegra/optee-src/nv-optee/optee/optee_os/lib/libutils/isoc/bget.c:1003
     a9c:	f94008a1 	ldr	x1, [x5, #16]
     aa0:	f9400c21 	ldr	x1, [x1, #24]
     aa4:	eb0100bf 	cmp	x5, x1
     aa8:	54000140 	b.eq	ad0 <brel+0x1d0>  // b.none
/home/ssysarch/Desktop/nick/jetpack_5/Jetson_Linux_R35.4.1_aarch64/Linux_for_Tegra/sources/tegra/optee-src/nv-optee/optee/optee_os/lib/libutils/isoc/bget.c:1003 (discriminator 1)
     aac:	90000083 	adrp	x3, 10000 <__text_end+0x28b0>
     ab0:	91312863 	add	x3, x3, #0xc4a
     ab4:	90000081 	adrp	x1, 10000 <__text_end+0x28b0>
     ab8:	91260c21 	add	x1, x1, #0x983
     abc:	90000080 	adrp	x0, 10000 <__text_end+0x28b0>
     ac0:	91290000 	add	x0, x0, #0xa40
     ac4:	91006463 	add	x3, x3, #0x19
     ac8:	52807d62 	mov	w2, #0x3eb                 	// #1003
     acc:	17ffff9e 	b	944 <brel+0x44>
/home/ssysarch/Desktop/nick/jetpack_5/Jetson_Linux_R35.4.1_aarch64/Linux_for_Tegra/sources/tegra/optee-src/nv-optee/optee/optee_os/lib/libutils/isoc/bget.c:1005
     ad0:	a9011c05 	stp	x5, x7, [x0, #16]
/home/ssysarch/Desktop/nick/jetpack_5/Jetson_Linux_R35.4.1_aarch64/Linux_for_Tegra/sources/tegra/optee-src/nv-optee/optee/optee_os/lib/libutils/isoc/bget.c:928
     ad4:	aa0003f3 	mov	x19, x0
/home/ssysarch/Desktop/nick/jetpack_5/Jetson_Linux_R35.4.1_aarch64/Linux_for_Tegra/sources/tegra/optee-src/nv-optee/optee/optee_os/lib/libutils/isoc/bget.c:1006
     ad8:	f9000ca0 	str	x0, [x5, #24]
/home/ssysarch/Desktop/nick/jetpack_5/Jetson_Linux_R35.4.1_aarch64/Linux_for_Tegra/sources/tegra/optee-src/nv-optee/optee/optee_os/lib/libutils/isoc/bget.c:1007
     adc:	f9400c01 	ldr	x1, [x0, #24]
     ae0:	f9000820 	str	x0, [x1, #16]
/home/ssysarch/Desktop/nick/jetpack_5/Jetson_Linux_R35.4.1_aarch64/Linux_for_Tegra/sources/tegra/optee-src/nv-optee/optee/optee_os/lib/libutils/isoc/bget.c:1011
     ae4:	928003e1 	mov	x1, #0xffffffffffffffe0    	// #-32
/home/ssysarch/Desktop/nick/jetpack_5/Jetson_Linux_R35.4.1_aarch64/Linux_for_Tegra/sources/tegra/optee-src/nv-optee/optee/optee_os/lib/libutils/isoc/bget.c:1010
     ae8:	91004060 	add	x0, x3, #0x10
/home/ssysarch/Desktop/nick/jetpack_5/Jetson_Linux_R35.4.1_aarch64/Linux_for_Tegra/sources/tegra/optee-src/nv-optee/optee/optee_os/lib/libutils/isoc/bget.c:1008
     aec:	f81f8062 	stur	x2, [x3, #-8]
/home/ssysarch/Desktop/nick/jetpack_5/Jetson_Linux_R35.4.1_aarch64/Linux_for_Tegra/sources/tegra/optee-src/nv-optee/optee/optee_os/lib/libutils/isoc/bget.c:1011
     af0:	cb040022 	sub	x2, x1, x4
     af4:	17ffffcc 	b	a24 <brel+0x124>
/home/ssysarch/Desktop/nick/jetpack_5/Jetson_Linux_R35.4.1_aarch64/Linux_for_Tegra/sources/tegra/optee-src/nv-optee/optee/optee_os/lib/libutils/isoc/bget.c:1026
     af8:	f9400e85 	ldr	x5, [x20, #24]
     afc:	f94008a7 	ldr	x7, [x5, #16]
     b00:	eb1400ff 	cmp	x7, x20
     b04:	54000140 	b.eq	b2c <brel+0x22c>  // b.none
/home/ssysarch/Desktop/nick/jetpack_5/Jetson_Linux_R35.4.1_aarch64/Linux_for_Tegra/sources/tegra/optee-src/nv-optee/optee/optee_os/lib/libutils/isoc/bget.c:1026 (discriminator 1)
     b08:	90000083 	adrp	x3, 10000 <__text_end+0x28b0>
     b0c:	91312863 	add	x3, x3, #0xc4a
     b10:	90000081 	adrp	x1, 10000 <__text_end+0x28b0>
     b14:	91260c21 	add	x1, x1, #0x983
     b18:	90000080 	adrp	x0, 10000 <__text_end+0x28b0>
     b1c:	912e0000 	add	x0, x0, #0xb80
     b20:	91006463 	add	x3, x3, #0x19
     b24:	52808042 	mov	w2, #0x402                 	// #1026
     b28:	17ffff87 	b	944 <brel+0x44>
/home/ssysarch/Desktop/nick/jetpack_5/Jetson_Linux_R35.4.1_aarch64/Linux_for_Tegra/sources/tegra/optee-src/nv-optee/optee/optee_os/lib/libutils/isoc/bget.c:1027
     b2c:	f94008e4 	ldr	x4, [x7, #16]
     b30:	f9400c88 	ldr	x8, [x4, #24]
     b34:	eb07011f 	cmp	x8, x7
     b38:	54000140 	b.eq	b60 <brel+0x260>  // b.none
/home/ssysarch/Desktop/nick/jetpack_5/Jetson_Linux_R35.4.1_aarch64/Linux_for_Tegra/sources/tegra/optee-src/nv-optee/optee/optee_os/lib/libutils/isoc/bget.c:1027 (discriminator 1)
     b3c:	90000083 	adrp	x3, 10000 <__text_end+0x28b0>
     b40:	91312863 	add	x3, x3, #0xc4a
     b44:	90000081 	adrp	x1, 10000 <__text_end+0x28b0>
     b48:	91260c21 	add	x1, x1, #0x983
     b4c:	90000080 	adrp	x0, 10000 <__text_end+0x28b0>
     b50:	912e7400 	add	x0, x0, #0xb9d
     b54:	91006463 	add	x3, x3, #0x19
     b58:	52808062 	mov	w2, #0x403                 	// #1027
     b5c:	17ffff7a 	b	944 <brel+0x44>
/home/ssysarch/Desktop/nick/jetpack_5/Jetson_Linux_R35.4.1_aarch64/Linux_for_Tegra/sources/tegra/optee-src/nv-optee/optee/optee_os/lib/libutils/isoc/bget.c:1028
     b60:	f90008a4 	str	x4, [x5, #16]
/home/ssysarch/Desktop/nick/jetpack_5/Jetson_Linux_R35.4.1_aarch64/Linux_for_Tegra/sources/tegra/optee-src/nv-optee/optee/optee_os/lib/libutils/isoc/bget.c:1030
     b64:	8b030034 	add	x20, x1, x3
/home/ssysarch/Desktop/nick/jetpack_5/Jetson_Linux_R35.4.1_aarch64/Linux_for_Tegra/sources/tegra/optee-src/nv-optee/optee/optee_os/lib/libutils/isoc/bget.c:1029
     b68:	f9000c85 	str	x5, [x4, #24]
/home/ssysarch/Desktop/nick/jetpack_5/Jetson_Linux_R35.4.1_aarch64/Linux_for_Tegra/sources/tegra/optee-src/nv-optee/optee/optee_os/lib/libutils/isoc/bget.c:1041
     b6c:	91008042 	add	x2, x2, #0x20
/home/ssysarch/Desktop/nick/jetpack_5/Jetson_Linux_R35.4.1_aarch64/Linux_for_Tegra/sources/tegra/optee-src/nv-optee/optee/optee_os/lib/libutils/isoc/bget.c:1030
     b70:	f9000674 	str	x20, [x19, #8]
/home/ssysarch/Desktop/nick/jetpack_5/Jetson_Linux_R35.4.1_aarch64/Linux_for_Tegra/sources/tegra/optee-src/nv-optee/optee/optee_os/lib/libutils/isoc/bget.c:1039
     b74:	8b140274 	add	x20, x19, x20
/home/ssysarch/Desktop/nick/jetpack_5/Jetson_Linux_R35.4.1_aarch64/Linux_for_Tegra/sources/tegra/optee-src/nv-optee/optee/optee_os/lib/libutils/isoc/bget.c:1043
     b78:	34000066 	cbz	w6, b84 <brel+0x284>
memset_unchecked():
/home/ssysarch/Desktop/nick/jetpack_5/Jetson_Linux_R35.4.1_aarch64/Linux_for_Tegra/sources/tegra/optee-src/nv-optee/optee/optee_os/lib/libutils/isoc/bget_malloc.c:115
     b7c:	52800aa1 	mov	w1, #0x55                  	// #85
     b80:	94000258 	bl	14e0 <memset>
brel():
/home/ssysarch/Desktop/nick/jetpack_5/Jetson_Linux_R35.4.1_aarch64/Linux_for_Tegra/sources/tegra/optee-src/nv-optee/optee/optee_os/lib/libutils/isoc/bget.c:1046
     b84:	f9400680 	ldr	x0, [x20, #8]
     b88:	b7f80140 	tbnz	x0, #63, bb0 <brel+0x2b0>
/home/ssysarch/Desktop/nick/jetpack_5/Jetson_Linux_R35.4.1_aarch64/Linux_for_Tegra/sources/tegra/optee-src/nv-optee/optee/optee_os/lib/libutils/isoc/bget.c:1046 (discriminator 1)
     b8c:	90000083 	adrp	x3, 10000 <__text_end+0x28b0>
     b90:	91312863 	add	x3, x3, #0xc4a
     b94:	90000081 	adrp	x1, 10000 <__text_end+0x28b0>
     b98:	91260c21 	add	x1, x1, #0x983
     b9c:	90000080 	adrp	x0, 10000 <__text_end+0x28b0>
     ba0:	912ee800 	add	x0, x0, #0xbba
     ba4:	91006463 	add	x3, x3, #0x19
     ba8:	528082c2 	mov	w2, #0x416                 	// #1046
     bac:	17ffff66 	b	944 <brel+0x44>
/home/ssysarch/Desktop/nick/jetpack_5/Jetson_Linux_R35.4.1_aarch64/Linux_for_Tegra/sources/tegra/optee-src/nv-optee/optee/optee_os/lib/libutils/isoc/bget.c:1051
     bb0:	f9400660 	ldr	x0, [x19, #8]
     bb4:	f9000280 	str	x0, [x20]
/home/ssysarch/Desktop/nick/jetpack_5/Jetson_Linux_R35.4.1_aarch64/Linux_for_Tegra/sources/tegra/optee-src/nv-optee/optee/optee_os/lib/libutils/isoc/bget.c:1078
     bb8:	a94153f3 	ldp	x19, x20, [sp, #16]
     bbc:	a8c27bfd 	ldp	x29, x30, [sp], #32
     bc0:	d65f03c0 	ret

0000000000000bc4 <bgetr>:
bgetr():
/home/ssysarch/Desktop/nick/jetpack_5/Jetson_Linux_R35.4.1_aarch64/Linux_for_Tegra/sources/tegra/optee-src/nv-optee/optee/optee_os/lib/libutils/isoc/bget.c:882
     bc4:	a9bc7bfd 	stp	x29, x30, [sp, #-64]!
     bc8:	910003fd 	mov	x29, sp
     bcc:	a90153f3 	stp	x19, x20, [sp, #16]
     bd0:	aa0303f4 	mov	x20, x3
/home/ssysarch/Desktop/nick/jetpack_5/Jetson_Linux_R35.4.1_aarch64/Linux_for_Tegra/sources/tegra/optee-src/nv-optee/optee/optee_os/lib/libutils/isoc/bget.c:887
     bd4:	aa0403e3 	mov	x3, x4
/home/ssysarch/Desktop/nick/jetpack_5/Jetson_Linux_R35.4.1_aarch64/Linux_for_Tegra/sources/tegra/optee-src/nv-optee/optee/optee_os/lib/libutils/isoc/bget.c:882
     bd8:	a9025bf5 	stp	x21, x22, [sp, #32]
     bdc:	aa0003f5 	mov	x21, x0
     be0:	aa0103e0 	mov	x0, x1
     be4:	aa0203e1 	mov	x1, x2
/home/ssysarch/Desktop/nick/jetpack_5/Jetson_Linux_R35.4.1_aarch64/Linux_for_Tegra/sources/tegra/optee-src/nv-optee/optee/optee_os/lib/libutils/isoc/bget.c:887
     be8:	aa1403e2 	mov	x2, x20
/home/ssysarch/Desktop/nick/jetpack_5/Jetson_Linux_R35.4.1_aarch64/Linux_for_Tegra/sources/tegra/optee-src/nv-optee/optee/optee_os/lib/libutils/isoc/bget.c:882
     bec:	f9001bf7 	str	x23, [sp, #48]
     bf0:	aa0403f7 	mov	x23, x4
/home/ssysarch/Desktop/nick/jetpack_5/Jetson_Linux_R35.4.1_aarch64/Linux_for_Tegra/sources/tegra/optee-src/nv-optee/optee/optee_os/lib/libutils/isoc/bget.c:887
     bf4:	97fffe68 	bl	594 <bget>
     bf8:	aa0003f6 	mov	x22, x0
     bfc:	b4000400 	cbz	x0, c7c <bgetr+0xb8>
/home/ssysarch/Desktop/nick/jetpack_5/Jetson_Linux_R35.4.1_aarch64/Linux_for_Tegra/sources/tegra/optee-src/nv-optee/optee/optee_os/lib/libutils/isoc/bget.c:890
     c00:	b40003f5 	cbz	x21, c7c <bgetr+0xb8>
/home/ssysarch/Desktop/nick/jetpack_5/Jetson_Linux_R35.4.1_aarch64/Linux_for_Tegra/sources/tegra/optee-src/nv-optee/optee/optee_os/lib/libutils/isoc/bget.c:904
     c04:	f85f82a1 	ldur	x1, [x21, #-8]
     c08:	928001f3 	mov	x19, #0xfffffffffffffff0    	// #-16
     c0c:	cb010273 	sub	x19, x19, x1
/home/ssysarch/Desktop/nick/jetpack_5/Jetson_Linux_R35.4.1_aarch64/Linux_for_Tegra/sources/tegra/optee-src/nv-optee/optee/optee_os/lib/libutils/isoc/bget.c:905
     c10:	f100027f 	cmp	x19, #0x0
     c14:	5400014c 	b.gt	c3c <bgetr+0x78>
/home/ssysarch/Desktop/nick/jetpack_5/Jetson_Linux_R35.4.1_aarch64/Linux_for_Tegra/sources/tegra/optee-src/nv-optee/optee/optee_os/lib/libutils/isoc/bget.c:905 (discriminator 1)
     c18:	90000083 	adrp	x3, 10000 <__text_end+0x28b0>
     c1c:	91312863 	add	x3, x3, #0xc4a
     c20:	90000081 	adrp	x1, 10000 <__text_end+0x28b0>
     c24:	91260c21 	add	x1, x1, #0x983
     c28:	90000080 	adrp	x0, 10000 <__text_end+0x28b0>
     c2c:	9125e400 	add	x0, x0, #0x979
     c30:	91007863 	add	x3, x3, #0x1e
     c34:	52807122 	mov	w2, #0x389                 	// #905
     c38:	97fffe3b 	bl	524 <_assert_trap>
/home/ssysarch/Desktop/nick/jetpack_5/Jetson_Linux_R35.4.1_aarch64/Linux_for_Tegra/sources/tegra/optee-src/nv-optee/optee/optee_os/lib/libutils/isoc/bget.c:906
     c3c:	eb13029f 	cmp	x20, x19
     c40:	93407e81 	sxtw	x1, w20
     c44:	93407e62 	sxtw	x2, w19
memcpy_unchecked():
/home/ssysarch/Desktop/nick/jetpack_5/Jetson_Linux_R35.4.1_aarch64/Linux_for_Tegra/sources/tegra/optee-src/nv-optee/optee/optee_os/lib/libutils/isoc/bget_malloc.c:121
     c48:	9a81a042 	csel	x2, x2, x1, ge  // ge = tcont
     c4c:	aa1503e1 	mov	x1, x21
     c50:	97fffcf4 	bl	20 <memcpy>
bgetr():
/home/ssysarch/Desktop/nick/jetpack_5/Jetson_Linux_R35.4.1_aarch64/Linux_for_Tegra/sources/tegra/optee-src/nv-optee/optee/optee_os/lib/libutils/isoc/bget.c:910
     c54:	eb13029f 	cmp	x20, x19
     c58:	540000ad 	b.le	c6c <bgetr+0xa8>
memset_unchecked():
/home/ssysarch/Desktop/nick/jetpack_5/Jetson_Linux_R35.4.1_aarch64/Linux_for_Tegra/sources/tegra/optee-src/nv-optee/optee/optee_os/lib/libutils/isoc/bget_malloc.c:115
     c5c:	cb130282 	sub	x2, x20, x19
     c60:	8b1302c0 	add	x0, x22, x19
     c64:	52800001 	mov	w1, #0x0                   	// #0
     c68:	9400021e 	bl	14e0 <memset>
bgetr():
/home/ssysarch/Desktop/nick/jetpack_5/Jetson_Linux_R35.4.1_aarch64/Linux_for_Tegra/sources/tegra/optee-src/nv-optee/optee/optee_os/lib/libutils/isoc/bget.c:913
     c6c:	aa1703e1 	mov	x1, x23
     c70:	aa1503e0 	mov	x0, x21
     c74:	52800002 	mov	w2, #0x0                   	// #0
     c78:	97ffff22 	bl	900 <brel>
/home/ssysarch/Desktop/nick/jetpack_5/Jetson_Linux_R35.4.1_aarch64/Linux_for_Tegra/sources/tegra/optee-src/nv-optee/optee/optee_os/lib/libutils/isoc/bget.c:915
     c7c:	aa1603e0 	mov	x0, x22
     c80:	a94153f3 	ldp	x19, x20, [sp, #16]
     c84:	a9425bf5 	ldp	x21, x22, [sp, #32]
     c88:	f9401bf7 	ldr	x23, [sp, #48]
     c8c:	a8c47bfd 	ldp	x29, x30, [sp], #64
     c90:	d65f03c0 	ret

0000000000000c94 <bpool>:
bpool():
/home/ssysarch/Desktop/nick/jetpack_5/Jetson_Linux_R35.4.1_aarch64/Linux_for_Tegra/sources/tegra/optee-src/nv-optee/optee/optee_os/lib/libutils/isoc/bget.c:1104
     c94:	a9bf7bfd 	stp	x29, x30, [sp, #-16]!
/home/ssysarch/Desktop/nick/jetpack_5/Jetson_Linux_R35.4.1_aarch64/Linux_for_Tegra/sources/tegra/optee-src/nv-optee/optee/optee_os/lib/libutils/isoc/bget.c:1109
     c98:	927cec21 	and	x1, x1, #0xfffffffffffffff0
/home/ssysarch/Desktop/nick/jetpack_5/Jetson_Linux_R35.4.1_aarch64/Linux_for_Tegra/sources/tegra/optee-src/nv-optee/optee/optee_os/lib/libutils/isoc/bget.c:1128
     c9c:	f1004021 	subs	x1, x1, #0x10
/home/ssysarch/Desktop/nick/jetpack_5/Jetson_Linux_R35.4.1_aarch64/Linux_for_Tegra/sources/tegra/optee-src/nv-optee/optee/optee_os/lib/libutils/isoc/bget.c:1104
     ca0:	910003fd 	mov	x29, sp
/home/ssysarch/Desktop/nick/jetpack_5/Jetson_Linux_R35.4.1_aarch64/Linux_for_Tegra/sources/tegra/optee-src/nv-optee/optee/optee_os/lib/libutils/isoc/bget.c:1128
     ca4:	54000145 	b.pl	ccc <bpool+0x38>  // b.nfrst
/home/ssysarch/Desktop/nick/jetpack_5/Jetson_Linux_R35.4.1_aarch64/Linux_for_Tegra/sources/tegra/optee-src/nv-optee/optee/optee_os/lib/libutils/isoc/bget.c:1128 (discriminator 1)
     ca8:	90000083 	adrp	x3, 10000 <__text_end+0x28b0>
     cac:	91312863 	add	x3, x3, #0xc4a
     cb0:	90000081 	adrp	x1, 10000 <__text_end+0x28b0>
     cb4:	91260c21 	add	x1, x1, #0x983
     cb8:	90000080 	adrp	x0, 10000 <__text_end+0x28b0>
     cbc:	912f2c00 	add	x0, x0, #0xbcb
     cc0:	91009063 	add	x3, x3, #0x24
     cc4:	52808d02 	mov	w2, #0x468                 	// #1128
/home/ssysarch/Desktop/nick/jetpack_5/Jetson_Linux_R35.4.1_aarch64/Linux_for_Tegra/sources/tegra/optee-src/nv-optee/optee/optee_os/lib/libutils/isoc/bget.c:1138 (discriminator 1)
     cc8:	97fffe17 	bl	524 <_assert_trap>
/home/ssysarch/Desktop/nick/jetpack_5/Jetson_Linux_R35.4.1_aarch64/Linux_for_Tegra/sources/tegra/optee-src/nv-optee/optee/optee_os/lib/libutils/isoc/bget.c:1138
     ccc:	f9400c44 	ldr	x4, [x2, #24]
     cd0:	f9400883 	ldr	x3, [x4, #16]
/home/ssysarch/Desktop/nick/jetpack_5/Jetson_Linux_R35.4.1_aarch64/Linux_for_Tegra/sources/tegra/optee-src/nv-optee/optee/optee_os/lib/libutils/isoc/bget.c:1134
     cd4:	f900001f 	str	xzr, [x0]
/home/ssysarch/Desktop/nick/jetpack_5/Jetson_Linux_R35.4.1_aarch64/Linux_for_Tegra/sources/tegra/optee-src/nv-optee/optee/optee_os/lib/libutils/isoc/bget.c:1138
     cd8:	eb02007f 	cmp	x3, x2
     cdc:	54000140 	b.eq	d04 <bpool+0x70>  // b.none
/home/ssysarch/Desktop/nick/jetpack_5/Jetson_Linux_R35.4.1_aarch64/Linux_for_Tegra/sources/tegra/optee-src/nv-optee/optee/optee_os/lib/libutils/isoc/bget.c:1138 (discriminator 1)
     ce0:	90000083 	adrp	x3, 10000 <__text_end+0x28b0>
     ce4:	91312863 	add	x3, x3, #0xc4a
     ce8:	90000081 	adrp	x1, 10000 <__text_end+0x28b0>
     cec:	91260c21 	add	x1, x1, #0x983
     cf0:	90000080 	adrp	x0, 10000 <__text_end+0x28b0>
     cf4:	91281400 	add	x0, x0, #0xa05
     cf8:	91009063 	add	x3, x3, #0x24
     cfc:	52808e42 	mov	w2, #0x472                 	// #1138
     d00:	17fffff2 	b	cc8 <bpool+0x34>
/home/ssysarch/Desktop/nick/jetpack_5/Jetson_Linux_R35.4.1_aarch64/Linux_for_Tegra/sources/tegra/optee-src/nv-optee/optee/optee_os/lib/libutils/isoc/bget.c:1139
     d04:	f9400862 	ldr	x2, [x3, #16]
     d08:	f9400c42 	ldr	x2, [x2, #24]
     d0c:	eb02007f 	cmp	x3, x2
     d10:	54000140 	b.eq	d38 <bpool+0xa4>  // b.none
     d14:	90000083 	adrp	x3, 10000 <__text_end+0x28b0>
     d18:	91312863 	add	x3, x3, #0xc4a
     d1c:	90000081 	adrp	x1, 10000 <__text_end+0x28b0>
     d20:	91260c21 	add	x1, x1, #0x983
     d24:	90000080 	adrp	x0, 10000 <__text_end+0x28b0>
     d28:	91290000 	add	x0, x0, #0xa40
     d2c:	91009063 	add	x3, x3, #0x24
     d30:	52808e62 	mov	w2, #0x473                 	// #1139
     d34:	17ffffe5 	b	cc8 <bpool+0x34>
/home/ssysarch/Desktop/nick/jetpack_5/Jetson_Linux_R35.4.1_aarch64/Linux_for_Tegra/sources/tegra/optee-src/nv-optee/optee/optee_os/lib/libutils/isoc/bget.c:1141
     d38:	a9011003 	stp	x3, x4, [x0, #16]
/home/ssysarch/Desktop/nick/jetpack_5/Jetson_Linux_R35.4.1_aarch64/Linux_for_Tegra/sources/tegra/optee-src/nv-optee/optee/optee_os/lib/libutils/isoc/bget.c:1142
     d3c:	f9000c60 	str	x0, [x3, #24]
/home/ssysarch/Desktop/nick/jetpack_5/Jetson_Linux_R35.4.1_aarch64/Linux_for_Tegra/sources/tegra/optee-src/nv-optee/optee/optee_os/lib/libutils/isoc/bget.c:1143
     d40:	f9400c02 	ldr	x2, [x0, #24]
     d44:	f9000840 	str	x0, [x2, #16]
/home/ssysarch/Desktop/nick/jetpack_5/Jetson_Linux_R35.4.1_aarch64/Linux_for_Tegra/sources/tegra/optee-src/nv-optee/optee/optee_os/lib/libutils/isoc/bget.c:1159
     d48:	8b010002 	add	x2, x0, x1
/home/ssysarch/Desktop/nick/jetpack_5/Jetson_Linux_R35.4.1_aarch64/Linux_for_Tegra/sources/tegra/optee-src/nv-optee/optee/optee_os/lib/libutils/isoc/bget.c:1154
     d4c:	f9000401 	str	x1, [x0, #8]
/home/ssysarch/Desktop/nick/jetpack_5/Jetson_Linux_R35.4.1_aarch64/Linux_for_Tegra/sources/tegra/optee-src/nv-optee/optee/optee_os/lib/libutils/isoc/bget.c:1160
     d50:	f8216801 	str	x1, [x0, x1]
/home/ssysarch/Desktop/nick/jetpack_5/Jetson_Linux_R35.4.1_aarch64/Linux_for_Tegra/sources/tegra/optee-src/nv-optee/optee/optee_os/lib/libutils/isoc/bget.c:1163
     d54:	d2f00000 	mov	x0, #0x8000000000000000    	// #-9223372036854775808
     d58:	f9000440 	str	x0, [x2, #8]
/home/ssysarch/Desktop/nick/jetpack_5/Jetson_Linux_R35.4.1_aarch64/Linux_for_Tegra/sources/tegra/optee-src/nv-optee/optee/optee_os/lib/libutils/isoc/bget.c:1164
     d5c:	a8c17bfd 	ldp	x29, x30, [sp], #16
     d60:	d65f03c0 	ret

0000000000000d64 <bstats>:
bstats():
/home/ssysarch/Desktop/nick/jetpack_5/Jetson_Linux_R35.4.1_aarch64/Linux_for_Tegra/sources/tegra/optee-src/nv-optee/optee/optee_os/lib/libutils/isoc/bget.c:1177
     d64:	f94014a7 	ldr	x7, [x5, #40]
/home/ssysarch/Desktop/nick/jetpack_5/Jetson_Linux_R35.4.1_aarch64/Linux_for_Tegra/sources/tegra/optee-src/nv-optee/optee/optee_os/lib/libutils/isoc/bget.c:1175
     d68:	f94008a6 	ldr	x6, [x5, #16]
/home/ssysarch/Desktop/nick/jetpack_5/Jetson_Linux_R35.4.1_aarch64/Linux_for_Tegra/sources/tegra/optee-src/nv-optee/optee/optee_os/lib/libutils/isoc/bget.c:1177
     d6c:	f9000067 	str	x7, [x3]
/home/ssysarch/Desktop/nick/jetpack_5/Jetson_Linux_R35.4.1_aarch64/Linux_for_Tegra/sources/tegra/optee-src/nv-optee/optee/optee_os/lib/libutils/isoc/bget.c:1178
     d70:	f94018a3 	ldr	x3, [x5, #48]
     d74:	f9000083 	str	x3, [x4]
/home/ssysarch/Desktop/nick/jetpack_5/Jetson_Linux_R35.4.1_aarch64/Linux_for_Tegra/sources/tegra/optee-src/nv-optee/optee/optee_os/lib/libutils/isoc/bget.c:1179
     d78:	f94010a3 	ldr	x3, [x5, #32]
     d7c:	f9000003 	str	x3, [x0]
/home/ssysarch/Desktop/nick/jetpack_5/Jetson_Linux_R35.4.1_aarch64/Linux_for_Tegra/sources/tegra/optee-src/nv-optee/optee/optee_os/lib/libutils/isoc/bget.c:1180
     d80:	f900003f 	str	xzr, [x1]
/home/ssysarch/Desktop/nick/jetpack_5/Jetson_Linux_R35.4.1_aarch64/Linux_for_Tegra/sources/tegra/optee-src/nv-optee/optee/optee_os/lib/libutils/isoc/bget.c:1181
     d84:	92800000 	mov	x0, #0xffffffffffffffff    	// #-1
     d88:	f9000040 	str	x0, [x2]
/home/ssysarch/Desktop/nick/jetpack_5/Jetson_Linux_R35.4.1_aarch64/Linux_for_Tegra/sources/tegra/optee-src/nv-optee/optee/optee_os/lib/libutils/isoc/bget.c:1182
     d8c:	eb0600bf 	cmp	x5, x6
     d90:	54000041 	b.ne	d98 <bstats+0x34>  // b.any
     d94:	d65f03c0 	ret
/home/ssysarch/Desktop/nick/jetpack_5/Jetson_Linux_R35.4.1_aarch64/Linux_for_Tegra/sources/tegra/optee-src/nv-optee/optee/optee_os/lib/libutils/isoc/bget.c:1183
     d98:	f94004c3 	ldr	x3, [x6, #8]
     d9c:	f100007f 	cmp	x3, #0x0
     da0:	5400018c 	b.gt	dd0 <bstats+0x6c>
/home/ssysarch/Desktop/nick/jetpack_5/Jetson_Linux_R35.4.1_aarch64/Linux_for_Tegra/sources/tegra/optee-src/nv-optee/optee/optee_os/lib/libutils/isoc/bget.c:1174 (discriminator 1)
     da4:	a9bf7bfd 	stp	x29, x30, [sp, #-16]!
/home/ssysarch/Desktop/nick/jetpack_5/Jetson_Linux_R35.4.1_aarch64/Linux_for_Tegra/sources/tegra/optee-src/nv-optee/optee/optee_os/lib/libutils/isoc/bget.c:1183 (discriminator 1)
     da8:	90000083 	adrp	x3, 10000 <__text_end+0x28b0>
     dac:	91312863 	add	x3, x3, #0xc4a
/home/ssysarch/Desktop/nick/jetpack_5/Jetson_Linux_R35.4.1_aarch64/Linux_for_Tegra/sources/tegra/optee-src/nv-optee/optee/optee_os/lib/libutils/isoc/bget.c:1174 (discriminator 1)
     db0:	910003fd 	mov	x29, sp
/home/ssysarch/Desktop/nick/jetpack_5/Jetson_Linux_R35.4.1_aarch64/Linux_for_Tegra/sources/tegra/optee-src/nv-optee/optee/optee_os/lib/libutils/isoc/bget.c:1183 (discriminator 1)
     db4:	90000081 	adrp	x1, 10000 <__text_end+0x28b0>
     db8:	91260c21 	add	x1, x1, #0x983
     dbc:	90000080 	adrp	x0, 10000 <__text_end+0x28b0>
     dc0:	91300000 	add	x0, x0, #0xc00
     dc4:	9100a863 	add	x3, x3, #0x2a
     dc8:	528093e2 	mov	w2, #0x49f                 	// #1183
     dcc:	97fffdd6 	bl	524 <_assert_trap>
/home/ssysarch/Desktop/nick/jetpack_5/Jetson_Linux_R35.4.1_aarch64/Linux_for_Tegra/sources/tegra/optee-src/nv-optee/optee/optee_os/lib/libutils/isoc/bget.c:1184
     dd0:	f9400020 	ldr	x0, [x1]
     dd4:	8b030000 	add	x0, x0, x3
     dd8:	f9000020 	str	x0, [x1]
/home/ssysarch/Desktop/nick/jetpack_5/Jetson_Linux_R35.4.1_aarch64/Linux_for_Tegra/sources/tegra/optee-src/nv-optee/optee/optee_os/lib/libutils/isoc/bget.c:1185
     ddc:	f9400043 	ldr	x3, [x2]
     de0:	f94004c0 	ldr	x0, [x6, #8]
     de4:	eb03001f 	cmp	x0, x3
     de8:	5400004d 	b.le	df0 <bstats+0x8c>
/home/ssysarch/Desktop/nick/jetpack_5/Jetson_Linux_R35.4.1_aarch64/Linux_for_Tegra/sources/tegra/optee-src/nv-optee/optee/optee_os/lib/libutils/isoc/bget.c:1186
     dec:	f9000040 	str	x0, [x2]
/home/ssysarch/Desktop/nick/jetpack_5/Jetson_Linux_R35.4.1_aarch64/Linux_for_Tegra/sources/tegra/optee-src/nv-optee/optee/optee_os/lib/libutils/isoc/bget.c:1188
     df0:	f94008c6 	ldr	x6, [x6, #16]
     df4:	17ffffe6 	b	d8c <bstats+0x28>

0000000000000df8 <malloc_reset_stats>:
gen_malloc_reset_stats():
/home/ssysarch/Desktop/nick/jetpack_5/Jetson_Linux_R35.4.1_aarch64/Linux_for_Tegra/sources/tegra/optee-src/nv-optee/optee/optee_os/lib/libutils/isoc/bget_malloc.c:298
     df8:	d0000080 	adrp	x0, 12000 <_DYNAMIC>
     dfc:	91132000 	add	x0, x0, #0x4c8
     e00:	b9006c1f 	str	wzr, [x0, #108]
/home/ssysarch/Desktop/nick/jetpack_5/Jetson_Linux_R35.4.1_aarch64/Linux_for_Tegra/sources/tegra/optee-src/nv-optee/optee/optee_os/lib/libutils/isoc/bget_malloc.c:299
     e04:	b900741f 	str	wzr, [x0, #116]
/home/ssysarch/Desktop/nick/jetpack_5/Jetson_Linux_R35.4.1_aarch64/Linux_for_Tegra/sources/tegra/optee-src/nv-optee/optee/optee_os/lib/libutils/isoc/bget_malloc.c:300
     e08:	f9003c1f 	str	xzr, [x0, #120]
malloc_reset_stats():
/home/ssysarch/Desktop/nick/jetpack_5/Jetson_Linux_R35.4.1_aarch64/Linux_for_Tegra/sources/tegra/optee-src/nv-optee/optee/optee_os/lib/libutils/isoc/bget_malloc.c:308
     e0c:	d65f03c0 	ret

0000000000000e10 <raw_memalign>:
raw_memalign():
/home/ssysarch/Desktop/nick/jetpack_5/Jetson_Linux_R35.4.1_aarch64/Linux_for_Tegra/sources/tegra/optee-src/nv-optee/optee/optee_os/lib/libutils/isoc/bget_malloc.c:426
     e10:	b40003e2 	cbz	x2, e8c <raw_memalign+0x7c>
/home/ssysarch/Desktop/nick/jetpack_5/Jetson_Linux_R35.4.1_aarch64/Linux_for_Tegra/sources/tegra/optee-src/nv-optee/optee/optee_os/lib/libutils/isoc/bget_malloc.c:422 (discriminator 1)
     e14:	a9be7bfd 	stp	x29, x30, [sp, #-32]!
     e18:	aa0003e5 	mov	x5, x0
     e1c:	910003fd 	mov	x29, sp
     e20:	a90153f3 	stp	x19, x20, [sp, #16]
     e24:	aa0303f3 	mov	x19, x3
/home/ssysarch/Desktop/nick/jetpack_5/Jetson_Linux_R35.4.1_aarch64/Linux_for_Tegra/sources/tegra/optee-src/nv-optee/optee/optee_os/lib/libutils/isoc/bget_malloc.c:426 (discriminator 1)
     e28:	cb0203e3 	neg	x3, x2
     e2c:	8a020060 	and	x0, x3, x2
     e30:	ea23005f 	bics	xzr, x2, x3
     e34:	54000241 	b.ne	e7c <raw_memalign+0x6c>  // b.any
     e38:	aa0403f4 	mov	x20, x4
/home/ssysarch/Desktop/nick/jetpack_5/Jetson_Linux_R35.4.1_aarch64/Linux_for_Tegra/sources/tegra/optee-src/nv-optee/optee/optee_os/lib/libutils/isoc/bget_malloc.c:432
     e3c:	ab010262 	adds	x2, x19, x1
     e40:	540001a4 	b.mi	e74 <raw_memalign+0x64>  // b.first
     e44:	eb01005f 	cmp	x2, x1
     e48:	54000163 	b.cc	e74 <raw_memalign+0x64>  // b.lo, b.ul, b.last
/home/ssysarch/Desktop/nick/jetpack_5/Jetson_Linux_R35.4.1_aarch64/Linux_for_Tegra/sources/tegra/optee-src/nv-optee/optee/optee_os/lib/libutils/isoc/bget_malloc.c:437
     e4c:	f100005f 	cmp	x2, #0x0
/home/ssysarch/Desktop/nick/jetpack_5/Jetson_Linux_R35.4.1_aarch64/Linux_for_Tegra/sources/tegra/optee-src/nv-optee/optee/optee_os/lib/libutils/isoc/bget_malloc.c:439
     e50:	aa0403e3 	mov	x3, x4
     e54:	9a9f1442 	csinc	x2, x2, xzr, ne  // ne = any
     e58:	aa0503e1 	mov	x1, x5
     e5c:	97fffdce 	bl	594 <bget>
/home/ssysarch/Desktop/nick/jetpack_5/Jetson_Linux_R35.4.1_aarch64/Linux_for_Tegra/sources/tegra/optee-src/nv-optee/optee/optee_os/lib/libutils/isoc/bget_malloc.c:441
     e60:	aa1403e2 	mov	x2, x20
     e64:	aa1303e1 	mov	x1, x19
/home/ssysarch/Desktop/nick/jetpack_5/Jetson_Linux_R35.4.1_aarch64/Linux_for_Tegra/sources/tegra/optee-src/nv-optee/optee/optee_os/lib/libutils/isoc/bget_malloc.c:442
     e68:	a94153f3 	ldp	x19, x20, [sp, #16]
     e6c:	a8c27bfd 	ldp	x29, x30, [sp], #32
/home/ssysarch/Desktop/nick/jetpack_5/Jetson_Linux_R35.4.1_aarch64/Linux_for_Tegra/sources/tegra/optee-src/nv-optee/optee/optee_os/lib/libutils/isoc/bget_malloc.c:441
     e70:	17fffdb1 	b	534 <raw_malloc_return_hook.isra.0>
/home/ssysarch/Desktop/nick/jetpack_5/Jetson_Linux_R35.4.1_aarch64/Linux_for_Tegra/sources/tegra/optee-src/nv-optee/optee/optee_os/lib/libutils/isoc/bget_malloc.c:423
     e74:	d2800000 	mov	x0, #0x0                   	// #0
     e78:	17fffffa 	b	e60 <raw_memalign+0x50>
/home/ssysarch/Desktop/nick/jetpack_5/Jetson_Linux_R35.4.1_aarch64/Linux_for_Tegra/sources/tegra/optee-src/nv-optee/optee/optee_os/lib/libutils/isoc/bget_malloc.c:442
     e7c:	d2800000 	mov	x0, #0x0                   	// #0
     e80:	a94153f3 	ldp	x19, x20, [sp, #16]
     e84:	a8c27bfd 	ldp	x29, x30, [sp], #32
     e88:	d65f03c0 	ret
     e8c:	d2800000 	mov	x0, #0x0                   	// #0
     e90:	d65f03c0 	ret

0000000000000e94 <raw_malloc>:
raw_malloc():
/home/ssysarch/Desktop/nick/jetpack_5/Jetson_Linux_R35.4.1_aarch64/Linux_for_Tegra/sources/tegra/optee-src/nv-optee/optee/optee_os/lib/libutils/isoc/bget_malloc.c:451
     e94:	aa0303e4 	mov	x4, x3
     e98:	aa0203e3 	mov	x3, x2
     e9c:	d2800202 	mov	x2, #0x10                  	// #16
     ea0:	17ffffdc 	b	e10 <raw_memalign>

0000000000000ea4 <raw_free>:
raw_free():
/home/ssysarch/Desktop/nick/jetpack_5/Jetson_Linux_R35.4.1_aarch64/Linux_for_Tegra/sources/tegra/optee-src/nv-optee/optee/optee_os/lib/libutils/isoc/bget_malloc.c:455
     ea4:	12001c42 	and	w2, w2, #0xff
/home/ssysarch/Desktop/nick/jetpack_5/Jetson_Linux_R35.4.1_aarch64/Linux_for_Tegra/sources/tegra/optee-src/nv-optee/optee/optee_os/lib/libutils/isoc/bget_malloc.c:458
     ea8:	b4000040 	cbz	x0, eb0 <raw_free+0xc>
/home/ssysarch/Desktop/nick/jetpack_5/Jetson_Linux_R35.4.1_aarch64/Linux_for_Tegra/sources/tegra/optee-src/nv-optee/optee/optee_os/lib/libutils/isoc/bget_malloc.c:459
     eac:	17fffe95 	b	900 <brel>
/home/ssysarch/Desktop/nick/jetpack_5/Jetson_Linux_R35.4.1_aarch64/Linux_for_Tegra/sources/tegra/optee-src/nv-optee/optee/optee_os/lib/libutils/isoc/bget_malloc.c:460
     eb0:	d65f03c0 	ret

0000000000000eb4 <raw_calloc>:
raw_calloc():
/home/ssysarch/Desktop/nick/jetpack_5/Jetson_Linux_R35.4.1_aarch64/Linux_for_Tegra/sources/tegra/optee-src/nv-optee/optee/optee_os/lib/libutils/isoc/bget_malloc.c:464
     eb4:	a9be7bfd 	stp	x29, x30, [sp, #-32]!
     eb8:	910003fd 	mov	x29, sp
     ebc:	a90153f3 	stp	x19, x20, [sp, #16]
/home/ssysarch/Desktop/nick/jetpack_5/Jetson_Linux_R35.4.1_aarch64/Linux_for_Tegra/sources/tegra/optee-src/nv-optee/optee/optee_os/lib/libutils/isoc/bget_malloc.c:471
     ec0:	9b037c54 	mul	x20, x2, x3
     ec4:	9bc37c42 	umulh	x2, x2, x3
/home/ssysarch/Desktop/nick/jetpack_5/Jetson_Linux_R35.4.1_aarch64/Linux_for_Tegra/sources/tegra/optee-src/nv-optee/optee/optee_os/lib/libutils/isoc/bget_malloc.c:464
     ec8:	aa0403f3 	mov	x19, x4
/home/ssysarch/Desktop/nick/jetpack_5/Jetson_Linux_R35.4.1_aarch64/Linux_for_Tegra/sources/tegra/optee-src/nv-optee/optee/optee_os/lib/libutils/isoc/bget_malloc.c:471
     ecc:	f100005f 	cmp	x2, #0x0
     ed0:	9a9f07e2 	cset	x2, ne  // ne = any
     ed4:	b7f80254 	tbnz	x20, #63, f1c <raw_calloc+0x68>
     ed8:	b5000222 	cbnz	x2, f1c <raw_calloc+0x68>
/home/ssysarch/Desktop/nick/jetpack_5/Jetson_Linux_R35.4.1_aarch64/Linux_for_Tegra/sources/tegra/optee-src/nv-optee/optee/optee_os/lib/libutils/isoc/bget_malloc.c:473
     edc:	8b010282 	add	x2, x20, x1
     ee0:	d2f00003 	mov	x3, #0x8000000000000000    	// #-9223372036854775808
     ee4:	8b030043 	add	x3, x2, x3
     ee8:	eb01007f 	cmp	x3, x1
     eec:	54000183 	b.cc	f1c <raw_calloc+0x68>  // b.lo, b.ul, b.last
/home/ssysarch/Desktop/nick/jetpack_5/Jetson_Linux_R35.4.1_aarch64/Linux_for_Tegra/sources/tegra/optee-src/nv-optee/optee/optee_os/lib/libutils/isoc/bget_malloc.c:478
     ef0:	f100005f 	cmp	x2, #0x0
/home/ssysarch/Desktop/nick/jetpack_5/Jetson_Linux_R35.4.1_aarch64/Linux_for_Tegra/sources/tegra/optee-src/nv-optee/optee/optee_os/lib/libutils/isoc/bget_malloc.c:480
     ef4:	aa0003e1 	mov	x1, x0
     ef8:	aa0403e3 	mov	x3, x4
     efc:	9a9f1442 	csinc	x2, x2, xzr, ne  // ne = any
     f00:	d2800000 	mov	x0, #0x0                   	// #0
     f04:	97fffe5d 	bl	878 <bgetz>
/home/ssysarch/Desktop/nick/jetpack_5/Jetson_Linux_R35.4.1_aarch64/Linux_for_Tegra/sources/tegra/optee-src/nv-optee/optee/optee_os/lib/libutils/isoc/bget_malloc.c:482
     f08:	aa1303e2 	mov	x2, x19
     f0c:	aa1403e1 	mov	x1, x20
/home/ssysarch/Desktop/nick/jetpack_5/Jetson_Linux_R35.4.1_aarch64/Linux_for_Tegra/sources/tegra/optee-src/nv-optee/optee/optee_os/lib/libutils/isoc/bget_malloc.c:483
     f10:	a94153f3 	ldp	x19, x20, [sp, #16]
     f14:	a8c27bfd 	ldp	x29, x30, [sp], #32
/home/ssysarch/Desktop/nick/jetpack_5/Jetson_Linux_R35.4.1_aarch64/Linux_for_Tegra/sources/tegra/optee-src/nv-optee/optee/optee_os/lib/libutils/isoc/bget_malloc.c:482
     f18:	17fffd87 	b	534 <raw_malloc_return_hook.isra.0>
/home/ssysarch/Desktop/nick/jetpack_5/Jetson_Linux_R35.4.1_aarch64/Linux_for_Tegra/sources/tegra/optee-src/nv-optee/optee/optee_os/lib/libutils/isoc/bget_malloc.c:465
     f1c:	d2800000 	mov	x0, #0x0                   	// #0
     f20:	17fffffa 	b	f08 <raw_calloc+0x54>

0000000000000f24 <raw_realloc>:
raw_realloc():
/home/ssysarch/Desktop/nick/jetpack_5/Jetson_Linux_R35.4.1_aarch64/Linux_for_Tegra/sources/tegra/optee-src/nv-optee/optee/optee_os/lib/libutils/isoc/bget_malloc.c:487
     f24:	a9bc7bfd 	stp	x29, x30, [sp, #-64]!
     f28:	910003fd 	mov	x29, sp
     f2c:	a90153f3 	stp	x19, x20, [sp, #16]
/home/ssysarch/Desktop/nick/jetpack_5/Jetson_Linux_R35.4.1_aarch64/Linux_for_Tegra/sources/tegra/optee-src/nv-optee/optee/optee_os/lib/libutils/isoc/bget_malloc.c:492
     f30:	ab010073 	adds	x19, x3, x1
/home/ssysarch/Desktop/nick/jetpack_5/Jetson_Linux_R35.4.1_aarch64/Linux_for_Tegra/sources/tegra/optee-src/nv-optee/optee/optee_os/lib/libutils/isoc/bget_malloc.c:487
     f34:	a9025bf5 	stp	x21, x22, [sp, #32]
     f38:	a90363f7 	stp	x23, x24, [sp, #48]
     f3c:	aa0303f7 	mov	x23, x3
     f40:	aa0403f8 	mov	x24, x4
/home/ssysarch/Desktop/nick/jetpack_5/Jetson_Linux_R35.4.1_aarch64/Linux_for_Tegra/sources/tegra/optee-src/nv-optee/optee/optee_os/lib/libutils/isoc/bget_malloc.c:492
     f44:	54000124 	b.mi	f68 <raw_realloc+0x44>  // b.first
     f48:	eb01027f 	cmp	x19, x1
     f4c:	540000e3 	b.cc	f68 <raw_realloc+0x44>  // b.lo, b.ul, b.last
/home/ssysarch/Desktop/nick/jetpack_5/Jetson_Linux_R35.4.1_aarch64/Linux_for_Tegra/sources/tegra/optee-src/nv-optee/optee/optee_os/lib/libutils/isoc/bget_malloc.c:494
     f50:	8b020273 	add	x19, x19, x2
     f54:	aa0003f5 	mov	x21, x0
     f58:	d2f00000 	mov	x0, #0x8000000000000000    	// #-9223372036854775808
     f5c:	8b000260 	add	x0, x19, x0
     f60:	eb02001f 	cmp	x0, x2
     f64:	54000142 	b.cs	f8c <raw_realloc+0x68>  // b.hs, b.nlast
/home/ssysarch/Desktop/nick/jetpack_5/Jetson_Linux_R35.4.1_aarch64/Linux_for_Tegra/sources/tegra/optee-src/nv-optee/optee/optee_os/lib/libutils/isoc/bget_malloc.c:488
     f68:	d2800014 	mov	x20, #0x0                   	// #0
/home/ssysarch/Desktop/nick/jetpack_5/Jetson_Linux_R35.4.1_aarch64/Linux_for_Tegra/sources/tegra/optee-src/nv-optee/optee/optee_os/lib/libutils/isoc/bget_malloc.c:522
     f6c:	aa1803e2 	mov	x2, x24
     f70:	aa1703e1 	mov	x1, x23
     f74:	aa1403e0 	mov	x0, x20
/home/ssysarch/Desktop/nick/jetpack_5/Jetson_Linux_R35.4.1_aarch64/Linux_for_Tegra/sources/tegra/optee-src/nv-optee/optee/optee_os/lib/libutils/isoc/bget_malloc.c:523
     f78:	a94153f3 	ldp	x19, x20, [sp, #16]
     f7c:	a9425bf5 	ldp	x21, x22, [sp, #32]
     f80:	a94363f7 	ldp	x23, x24, [sp, #48]
     f84:	a8c47bfd 	ldp	x29, x30, [sp], #64
/home/ssysarch/Desktop/nick/jetpack_5/Jetson_Linux_R35.4.1_aarch64/Linux_for_Tegra/sources/tegra/optee-src/nv-optee/optee/optee_os/lib/libutils/isoc/bget_malloc.c:522
     f88:	17fffd6b 	b	534 <raw_malloc_return_hook.isra.0>
/home/ssysarch/Desktop/nick/jetpack_5/Jetson_Linux_R35.4.1_aarch64/Linux_for_Tegra/sources/tegra/optee-src/nv-optee/optee/optee_os/lib/libutils/isoc/bget_malloc.c:501
     f8c:	f100027f 	cmp	x19, #0x0
/home/ssysarch/Desktop/nick/jetpack_5/Jetson_Linux_R35.4.1_aarch64/Linux_for_Tegra/sources/tegra/optee-src/nv-optee/optee/optee_os/lib/libutils/isoc/bget_malloc.c:503
     f90:	aa0403e3 	mov	x3, x4
/home/ssysarch/Desktop/nick/jetpack_5/Jetson_Linux_R35.4.1_aarch64/Linux_for_Tegra/sources/tegra/optee-src/nv-optee/optee/optee_os/lib/libutils/isoc/bget_malloc.c:501
     f94:	9a9f1673 	csinc	x19, x19, xzr, ne  // ne = any
/home/ssysarch/Desktop/nick/jetpack_5/Jetson_Linux_R35.4.1_aarch64/Linux_for_Tegra/sources/tegra/optee-src/nv-optee/optee/optee_os/lib/libutils/isoc/bget_malloc.c:503
     f98:	d2800001 	mov	x1, #0x0                   	// #0
     f9c:	aa1303e2 	mov	x2, x19
     fa0:	d2800000 	mov	x0, #0x0                   	// #0
     fa4:	97fffd7c 	bl	594 <bget>
/home/ssysarch/Desktop/nick/jetpack_5/Jetson_Linux_R35.4.1_aarch64/Linux_for_Tegra/sources/tegra/optee-src/nv-optee/optee/optee_os/lib/libutils/isoc/bget_malloc.c:505
     fa8:	f100001f 	cmp	x0, #0x0
/home/ssysarch/Desktop/nick/jetpack_5/Jetson_Linux_R35.4.1_aarch64/Linux_for_Tegra/sources/tegra/optee-src/nv-optee/optee/optee_os/lib/libutils/isoc/bget_malloc.c:503
     fac:	aa0003f4 	mov	x20, x0
/home/ssysarch/Desktop/nick/jetpack_5/Jetson_Linux_R35.4.1_aarch64/Linux_for_Tegra/sources/tegra/optee-src/nv-optee/optee/optee_os/lib/libutils/isoc/bget_malloc.c:505
     fb0:	fa401aa4 	ccmp	x21, #0x0, #0x4, ne  // ne = any
     fb4:	54fffdc0 	b.eq	f6c <raw_realloc+0x48>  // b.none
bget_buf_size():
/home/ssysarch/Desktop/nick/jetpack_5/Jetson_Linux_R35.4.1_aarch64/Linux_for_Tegra/sources/tegra/optee-src/nv-optee/optee/optee_os/lib/libutils/isoc/bget_malloc.c:207
     fb8:	f85f82a1 	ldur	x1, [x21, #-8]
     fbc:	928001f6 	mov	x22, #0xfffffffffffffff0    	// #-16
     fc0:	cb0102d6 	sub	x22, x22, x1
/home/ssysarch/Desktop/nick/jetpack_5/Jetson_Linux_R35.4.1_aarch64/Linux_for_Tegra/sources/tegra/optee-src/nv-optee/optee/optee_os/lib/libutils/isoc/bget_malloc.c:208
     fc4:	f10002df 	cmp	x22, #0x0
     fc8:	5400004c 	b.gt	fd0 <raw_realloc+0xac>
     fcc:	97fffd68 	bl	56c <bget_buf_size.part.0>
raw_realloc():
/home/ssysarch/Desktop/nick/jetpack_5/Jetson_Linux_R35.4.1_aarch64/Linux_for_Tegra/sources/tegra/optee-src/nv-optee/optee/optee_os/lib/libutils/isoc/bget_malloc.c:509
     fd0:	eb16027f 	cmp	x19, x22
     fd4:	540001ad 	b.le	1008 <raw_realloc+0xe4>
/home/ssysarch/Desktop/nick/jetpack_5/Jetson_Linux_R35.4.1_aarch64/Linux_for_Tegra/sources/tegra/optee-src/nv-optee/optee/optee_os/lib/libutils/isoc/bget_malloc.c:510
     fd8:	aa1603e2 	mov	x2, x22
     fdc:	aa1503e1 	mov	x1, x21
     fe0:	97fffc10 	bl	20 <memcpy>
/home/ssysarch/Desktop/nick/jetpack_5/Jetson_Linux_R35.4.1_aarch64/Linux_for_Tegra/sources/tegra/optee-src/nv-optee/optee/optee_os/lib/libutils/isoc/bget_malloc.c:513
     fe4:	cb160262 	sub	x2, x19, x22
     fe8:	8b160280 	add	x0, x20, x22
     fec:	52800001 	mov	w1, #0x0                   	// #0
     ff0:	9400013c 	bl	14e0 <memset>
/home/ssysarch/Desktop/nick/jetpack_5/Jetson_Linux_R35.4.1_aarch64/Linux_for_Tegra/sources/tegra/optee-src/nv-optee/optee/optee_os/lib/libutils/isoc/bget_malloc.c:519
     ff4:	aa1803e1 	mov	x1, x24
     ff8:	aa1503e0 	mov	x0, x21
     ffc:	52800002 	mov	w2, #0x0                   	// #0
    1000:	97fffe40 	bl	900 <brel>
    1004:	17ffffda 	b	f6c <raw_realloc+0x48>
/home/ssysarch/Desktop/nick/jetpack_5/Jetson_Linux_R35.4.1_aarch64/Linux_for_Tegra/sources/tegra/optee-src/nv-optee/optee/optee_os/lib/libutils/isoc/bget_malloc.c:516
    1008:	aa1303e2 	mov	x2, x19
    100c:	aa1503e1 	mov	x1, x21
    1010:	97fffc04 	bl	20 <memcpy>
    1014:	17fffff8 	b	ff4 <raw_realloc+0xd0>

0000000000001018 <malloc>:
malloc():
/home/ssysarch/Desktop/nick/jetpack_5/Jetson_Linux_R35.4.1_aarch64/Linux_for_Tegra/sources/tegra/optee-src/nv-optee/optee/optee_os/lib/libutils/isoc/bget_malloc.c:790
    1018:	aa0003e2 	mov	x2, x0
    101c:	b0000083 	adrp	x3, 12000 <_DYNAMIC>
    1020:	91132063 	add	x3, x3, #0x4c8
    1024:	d2800001 	mov	x1, #0x0                   	// #0
    1028:	d2800000 	mov	x0, #0x0                   	// #0
    102c:	17ffff9a 	b	e94 <raw_malloc>

0000000000001030 <calloc>:
calloc():
/home/ssysarch/Desktop/nick/jetpack_5/Jetson_Linux_R35.4.1_aarch64/Linux_for_Tegra/sources/tegra/optee-src/nv-optee/optee/optee_os/lib/libutils/isoc/bget_malloc.c:808
    1030:	aa0103e3 	mov	x3, x1
    1034:	aa0003e2 	mov	x2, x0
    1038:	b0000084 	adrp	x4, 12000 <_DYNAMIC>
    103c:	91132084 	add	x4, x4, #0x4c8
    1040:	d2800001 	mov	x1, #0x0                   	// #0
    1044:	d2800000 	mov	x0, #0x0                   	// #0
    1048:	17ffff9b 	b	eb4 <raw_calloc>

000000000000104c <realloc>:
realloc_unlocked():
/home/ssysarch/Desktop/nick/jetpack_5/Jetson_Linux_R35.4.1_aarch64/Linux_for_Tegra/sources/tegra/optee-src/nv-optee/optee/optee_os/lib/libutils/isoc/bget_malloc.c:816
    104c:	aa0103e3 	mov	x3, x1
    1050:	b0000084 	adrp	x4, 12000 <_DYNAMIC>
    1054:	91132084 	add	x4, x4, #0x4c8
    1058:	d2800002 	mov	x2, #0x0                   	// #0
    105c:	d2800001 	mov	x1, #0x0                   	// #0
    1060:	17ffffb1 	b	f24 <raw_realloc>

0000000000001064 <memalign>:
memalign():
/home/ssysarch/Desktop/nick/jetpack_5/Jetson_Linux_R35.4.1_aarch64/Linux_for_Tegra/sources/tegra/optee-src/nv-optee/optee/optee_os/lib/libutils/isoc/bget_malloc.c:834
    1064:	aa0103e3 	mov	x3, x1
    1068:	aa0003e2 	mov	x2, x0
    106c:	b0000084 	adrp	x4, 12000 <_DYNAMIC>
    1070:	91132084 	add	x4, x4, #0x4c8
    1074:	d2800001 	mov	x1, #0x0                   	// #0
    1078:	d2800000 	mov	x0, #0x0                   	// #0
    107c:	17ffff65 	b	e10 <raw_memalign>

0000000000001080 <aligned_alloc>:
aligned_alloc():
/home/ssysarch/Desktop/nick/jetpack_5/Jetson_Linux_R35.4.1_aarch64/Linux_for_Tegra/sources/tegra/optee-src/nv-optee/optee/optee_os/lib/libutils/isoc/bget_malloc.c:842
    1080:	9ac00822 	udiv	x2, x1, x0
    1084:	9b008442 	msub	x2, x2, x0, x1
    1088:	b5000042 	cbnz	x2, 1090 <aligned_alloc+0x10>
/home/ssysarch/Desktop/nick/jetpack_5/Jetson_Linux_R35.4.1_aarch64/Linux_for_Tegra/sources/tegra/optee-src/nv-optee/optee/optee_os/lib/libutils/isoc/bget_malloc.c:845
    108c:	17fffff6 	b	1064 <memalign>
/home/ssysarch/Desktop/nick/jetpack_5/Jetson_Linux_R35.4.1_aarch64/Linux_for_Tegra/sources/tegra/optee-src/nv-optee/optee/optee_os/lib/libutils/isoc/bget_malloc.c:846
    1090:	d2800000 	mov	x0, #0x0                   	// #0
    1094:	d65f03c0 	ret

0000000000001098 <free>:
free_helper():
/home/ssysarch/Desktop/nick/jetpack_5/Jetson_Linux_R35.4.1_aarch64/Linux_for_Tegra/sources/tegra/optee-src/nv-optee/optee/optee_os/lib/libutils/isoc/bget_malloc.c:799
    1098:	52800002 	mov	w2, #0x0                   	// #0
    109c:	b0000081 	adrp	x1, 12000 <_DYNAMIC>
    10a0:	91132021 	add	x1, x1, #0x4c8
    10a4:	17ffff80 	b	ea4 <raw_free>

00000000000010a8 <free_wipe>:
    10a8:	52800022 	mov	w2, #0x1                   	// #1
    10ac:	b0000081 	adrp	x1, 12000 <_DYNAMIC>
    10b0:	91132021 	add	x1, x1, #0x4c8
    10b4:	17ffff7c 	b	ea4 <raw_free>

00000000000010b8 <raw_malloc_get_ctx_size>:
raw_malloc_get_ctx_size():
/home/ssysarch/Desktop/nick/jetpack_5/Jetson_Linux_R35.4.1_aarch64/Linux_for_Tegra/sources/tegra/optee-src/nv-optee/optee/optee_os/lib/libutils/isoc/bget_malloc.c:901
    10b8:	d2801000 	mov	x0, #0x80                  	// #128
    10bc:	d65f03c0 	ret

00000000000010c0 <raw_malloc_init_ctx>:
raw_malloc_init_ctx():
/home/ssysarch/Desktop/nick/jetpack_5/Jetson_Linux_R35.4.1_aarch64/Linux_for_Tegra/sources/tegra/optee-src/nv-optee/optee/optee_os/lib/libutils/isoc/bget_malloc.c:904
    10c0:	a9be7bfd 	stp	x29, x30, [sp, #-32]!
/home/ssysarch/Desktop/nick/jetpack_5/Jetson_Linux_R35.4.1_aarch64/Linux_for_Tegra/sources/tegra/optee-src/nv-optee/optee/optee_os/lib/libutils/isoc/bget_malloc.c:905
    10c4:	d2801002 	mov	x2, #0x80                  	// #128
    10c8:	52800001 	mov	w1, #0x0                   	// #0
/home/ssysarch/Desktop/nick/jetpack_5/Jetson_Linux_R35.4.1_aarch64/Linux_for_Tegra/sources/tegra/optee-src/nv-optee/optee/optee_os/lib/libutils/isoc/bget_malloc.c:904
    10cc:	910003fd 	mov	x29, sp
    10d0:	f9000bf3 	str	x19, [sp, #16]
    10d4:	aa0003f3 	mov	x19, x0
/home/ssysarch/Desktop/nick/jetpack_5/Jetson_Linux_R35.4.1_aarch64/Linux_for_Tegra/sources/tegra/optee-src/nv-optee/optee/optee_os/lib/libutils/isoc/bget_malloc.c:905
    10d8:	94000102 	bl	14e0 <memset>
/home/ssysarch/Desktop/nick/jetpack_5/Jetson_Linux_R35.4.1_aarch64/Linux_for_Tegra/sources/tegra/optee-src/nv-optee/optee/optee_os/lib/libutils/isoc/bget_malloc.c:907
    10dc:	a9014e73 	stp	x19, x19, [x19, #16]
/home/ssysarch/Desktop/nick/jetpack_5/Jetson_Linux_R35.4.1_aarch64/Linux_for_Tegra/sources/tegra/optee-src/nv-optee/optee/optee_os/lib/libutils/isoc/bget_malloc.c:908
    10e0:	f9400bf3 	ldr	x19, [sp, #16]
    10e4:	a8c27bfd 	ldp	x29, x30, [sp], #32
    10e8:	d65f03c0 	ret

00000000000010ec <raw_malloc_add_pool>:
raw_malloc_add_pool():
/home/ssysarch/Desktop/nick/jetpack_5/Jetson_Linux_R35.4.1_aarch64/Linux_for_Tegra/sources/tegra/optee-src/nv-optee/optee/optee_os/lib/libutils/isoc/bget_malloc.c:911
    10ec:	a9bd7bfd 	stp	x29, x30, [sp, #-48]!
    10f0:	910003fd 	mov	x29, sp
    10f4:	a90153f3 	stp	x19, x20, [sp, #16]
/home/ssysarch/Desktop/nick/jetpack_5/Jetson_Linux_R35.4.1_aarch64/Linux_for_Tegra/sources/tegra/optee-src/nv-optee/optee/optee_os/lib/libutils/isoc/bget_malloc.c:914
    10f8:	8b020034 	add	x20, x1, x2
/home/ssysarch/Desktop/nick/jetpack_5/Jetson_Linux_R35.4.1_aarch64/Linux_for_Tegra/sources/tegra/optee-src/nv-optee/optee/optee_os/lib/libutils/isoc/bget_malloc.c:918
    10fc:	91003c21 	add	x1, x1, #0xf
/home/ssysarch/Desktop/nick/jetpack_5/Jetson_Linux_R35.4.1_aarch64/Linux_for_Tegra/sources/tegra/optee-src/nv-optee/optee/optee_os/lib/libutils/isoc/bget_malloc.c:911
    1100:	a9025bf5 	stp	x21, x22, [sp, #32]
/home/ssysarch/Desktop/nick/jetpack_5/Jetson_Linux_R35.4.1_aarch64/Linux_for_Tegra/sources/tegra/optee-src/nv-optee/optee/optee_os/lib/libutils/isoc/bget_malloc.c:919
    1104:	927cee94 	and	x20, x20, #0xfffffffffffffff0
/home/ssysarch/Desktop/nick/jetpack_5/Jetson_Linux_R35.4.1_aarch64/Linux_for_Tegra/sources/tegra/optee-src/nv-optee/optee/optee_os/lib/libutils/isoc/bget_malloc.c:918
    1108:	927cec35 	and	x21, x1, #0xfffffffffffffff0
/home/ssysarch/Desktop/nick/jetpack_5/Jetson_Linux_R35.4.1_aarch64/Linux_for_Tegra/sources/tegra/optee-src/nv-optee/optee/optee_os/lib/libutils/isoc/bget_malloc.c:921
    110c:	eb1402bf 	cmp	x21, x20
    1110:	54000088 	b.hi	1120 <raw_malloc_add_pool+0x34>  // b.pmore
/home/ssysarch/Desktop/nick/jetpack_5/Jetson_Linux_R35.4.1_aarch64/Linux_for_Tegra/sources/tegra/optee-src/nv-optee/optee/optee_os/lib/libutils/isoc/bget_malloc.c:921 (discriminator 1)
    1114:	cb150294 	sub	x20, x20, x21
    1118:	f100be9f 	cmp	x20, #0x2f
    111c:	540001a8 	b.hi	1150 <raw_malloc_add_pool+0x64>  // b.pmore
/home/ssysarch/Desktop/nick/jetpack_5/Jetson_Linux_R35.4.1_aarch64/Linux_for_Tegra/sources/tegra/optee-src/nv-optee/optee/optee_os/lib/libutils/isoc/bget_malloc.c:922
    1120:	f0000064 	adrp	x4, 10000 <__text_end+0x28b0>
    1124:	91304084 	add	x4, x4, #0xc10
    1128:	52800023 	mov	w3, #0x1                   	// #1
    112c:	52800062 	mov	w2, #0x3                   	// #3
    1130:	52807341 	mov	w1, #0x39a                 	// #922
/home/ssysarch/Desktop/nick/jetpack_5/Jetson_Linux_R35.4.1_aarch64/Linux_for_Tegra/sources/tegra/optee-src/nv-optee/optee/optee_os/lib/libutils/isoc/bget_malloc.c:944
    1134:	a94153f3 	ldp	x19, x20, [sp, #16]
/home/ssysarch/Desktop/nick/jetpack_5/Jetson_Linux_R35.4.1_aarch64/Linux_for_Tegra/sources/tegra/optee-src/nv-optee/optee/optee_os/lib/libutils/isoc/bget_malloc.c:928
    1138:	f0000060 	adrp	x0, 10000 <__text_end+0x28b0>
    113c:	91312800 	add	x0, x0, #0xc4a
/home/ssysarch/Desktop/nick/jetpack_5/Jetson_Linux_R35.4.1_aarch64/Linux_for_Tegra/sources/tegra/optee-src/nv-optee/optee/optee_os/lib/libutils/isoc/bget_malloc.c:944
    1140:	a9425bf5 	ldp	x21, x22, [sp, #32]
/home/ssysarch/Desktop/nick/jetpack_5/Jetson_Linux_R35.4.1_aarch64/Linux_for_Tegra/sources/tegra/optee-src/nv-optee/optee/optee_os/lib/libutils/isoc/bget_malloc.c:928
    1144:	9100c400 	add	x0, x0, #0x31
/home/ssysarch/Desktop/nick/jetpack_5/Jetson_Linux_R35.4.1_aarch64/Linux_for_Tegra/sources/tegra/optee-src/nv-optee/optee/optee_os/lib/libutils/isoc/bget_malloc.c:944
    1148:	a8c37bfd 	ldp	x29, x30, [sp], #48
/home/ssysarch/Desktop/nick/jetpack_5/Jetson_Linux_R35.4.1_aarch64/Linux_for_Tegra/sources/tegra/optee-src/nv-optee/optee/optee_os/lib/libutils/isoc/bget_malloc.c:928
    114c:	140001cb 	b	1878 <trace_printf>
    1150:	aa0003f3 	mov	x19, x0
/home/ssysarch/Desktop/nick/jetpack_5/Jetson_Linux_R35.4.1_aarch64/Linux_for_Tegra/sources/tegra/optee-src/nv-optee/optee/optee_os/lib/libutils/isoc/bget_malloc.c:927
    1154:	f9402000 	ldr	x0, [x0, #64]
    1158:	b5000120 	cbnz	x0, 117c <raw_malloc_add_pool+0x90>
/home/ssysarch/Desktop/nick/jetpack_5/Jetson_Linux_R35.4.1_aarch64/Linux_for_Tegra/sources/tegra/optee-src/nv-optee/optee/optee_os/lib/libutils/isoc/bget_malloc.c:927 (discriminator 1)
    115c:	f10ffe9f 	cmp	x20, #0x3ff
    1160:	540000e8 	b.hi	117c <raw_malloc_add_pool+0x90>  // b.pmore
/home/ssysarch/Desktop/nick/jetpack_5/Jetson_Linux_R35.4.1_aarch64/Linux_for_Tegra/sources/tegra/optee-src/nv-optee/optee/optee_os/lib/libutils/isoc/bget_malloc.c:928
    1164:	f0000064 	adrp	x4, 10000 <__text_end+0x28b0>
    1168:	9130a084 	add	x4, x4, #0xc28
    116c:	52800023 	mov	w3, #0x1                   	// #1
    1170:	52800062 	mov	w2, #0x3                   	// #3
    1174:	52807401 	mov	w1, #0x3a0                 	// #928
    1178:	17ffffef 	b	1134 <raw_malloc_add_pool+0x48>
/home/ssysarch/Desktop/nick/jetpack_5/Jetson_Linux_R35.4.1_aarch64/Linux_for_Tegra/sources/tegra/optee-src/nv-optee/optee/optee_os/lib/libutils/isoc/bget_malloc.c:933
    117c:	aa1303e2 	mov	x2, x19
    1180:	aa1403e1 	mov	x1, x20
    1184:	aa1503e0 	mov	x0, x21
    1188:	97fffec3 	bl	c94 <bpool>
/home/ssysarch/Desktop/nick/jetpack_5/Jetson_Linux_R35.4.1_aarch64/Linux_for_Tegra/sources/tegra/optee-src/nv-optee/optee/optee_os/lib/libutils/isoc/bget_malloc.c:934
    118c:	a943da60 	ldp	x0, x22, [x19, #56]
realloc_unlocked():
/home/ssysarch/Desktop/nick/jetpack_5/Jetson_Linux_R35.4.1_aarch64/Linux_for_Tegra/sources/tegra/optee-src/nv-optee/optee/optee_os/lib/libutils/isoc/bget_malloc.c:816
    1190:	aa1303e4 	mov	x4, x19
    1194:	d2800002 	mov	x2, #0x0                   	// #0
    1198:	d2800001 	mov	x1, #0x0                   	// #0
raw_malloc_add_pool():
/home/ssysarch/Desktop/nick/jetpack_5/Jetson_Linux_R35.4.1_aarch64/Linux_for_Tegra/sources/tegra/optee-src/nv-optee/optee/optee_os/lib/libutils/isoc/bget_malloc.c:934
    119c:	910006d6 	add	x22, x22, #0x1
realloc_unlocked():
/home/ssysarch/Desktop/nick/jetpack_5/Jetson_Linux_R35.4.1_aarch64/Linux_for_Tegra/sources/tegra/optee-src/nv-optee/optee/optee_os/lib/libutils/isoc/bget_malloc.c:816
    11a0:	d37ceec3 	lsl	x3, x22, #4
    11a4:	97ffff60 	bl	f24 <raw_realloc>
raw_malloc_add_pool():
/home/ssysarch/Desktop/nick/jetpack_5/Jetson_Linux_R35.4.1_aarch64/Linux_for_Tegra/sources/tegra/optee-src/nv-optee/optee/optee_os/lib/libutils/isoc/bget_malloc.c:936
    11a8:	b5000140 	cbnz	x0, 11d0 <raw_malloc_add_pool+0xe4>
/home/ssysarch/Desktop/nick/jetpack_5/Jetson_Linux_R35.4.1_aarch64/Linux_for_Tegra/sources/tegra/optee-src/nv-optee/optee/optee_os/lib/libutils/isoc/bget_malloc.c:936 (discriminator 1)
    11ac:	f0000063 	adrp	x3, 10000 <__text_end+0x28b0>
    11b0:	91312863 	add	x3, x3, #0xc4a
    11b4:	f0000061 	adrp	x1, 10000 <__text_end+0x28b0>
    11b8:	91256421 	add	x1, x1, #0x959
    11bc:	f0000060 	adrp	x0, 10000 <__text_end+0x28b0>
    11c0:	91312000 	add	x0, x0, #0xc48
    11c4:	9100c463 	add	x3, x3, #0x31
    11c8:	52807502 	mov	w2, #0x3a8                 	// #936
    11cc:	97fffcd6 	bl	524 <_assert_trap>
/home/ssysarch/Desktop/nick/jetpack_5/Jetson_Linux_R35.4.1_aarch64/Linux_for_Tegra/sources/tegra/optee-src/nv-optee/optee/optee_os/lib/libutils/isoc/bget_malloc.c:938
    11d0:	f9402261 	ldr	x1, [x19, #64]
/home/ssysarch/Desktop/nick/jetpack_5/Jetson_Linux_R35.4.1_aarch64/Linux_for_Tegra/sources/tegra/optee-src/nv-optee/optee/optee_os/lib/libutils/isoc/bget_malloc.c:937
    11d4:	f9001e60 	str	x0, [x19, #56]
/home/ssysarch/Desktop/nick/jetpack_5/Jetson_Linux_R35.4.1_aarch64/Linux_for_Tegra/sources/tegra/optee-src/nv-optee/optee/optee_os/lib/libutils/isoc/bget_malloc.c:938
    11d8:	d37cec22 	lsl	x2, x1, #4
    11dc:	8b011001 	add	x1, x0, x1, lsl #4
    11e0:	f8226815 	str	x21, [x0, x2]
/home/ssysarch/Desktop/nick/jetpack_5/Jetson_Linux_R35.4.1_aarch64/Linux_for_Tegra/sources/tegra/optee-src/nv-optee/optee/optee_os/lib/libutils/isoc/bget_malloc.c:941
    11e4:	b9407260 	ldr	w0, [x19, #112]
/home/ssysarch/Desktop/nick/jetpack_5/Jetson_Linux_R35.4.1_aarch64/Linux_for_Tegra/sources/tegra/optee-src/nv-optee/optee/optee_os/lib/libutils/isoc/bget_malloc.c:939
    11e8:	f9000434 	str	x20, [x1, #8]
/home/ssysarch/Desktop/nick/jetpack_5/Jetson_Linux_R35.4.1_aarch64/Linux_for_Tegra/sources/tegra/optee-src/nv-optee/optee/optee_os/lib/libutils/isoc/bget_malloc.c:941
    11ec:	0b140014 	add	w20, w0, w20
/home/ssysarch/Desktop/nick/jetpack_5/Jetson_Linux_R35.4.1_aarch64/Linux_for_Tegra/sources/tegra/optee-src/nv-optee/optee/optee_os/lib/libutils/isoc/bget_malloc.c:943
    11f0:	f9002276 	str	x22, [x19, #64]
/home/ssysarch/Desktop/nick/jetpack_5/Jetson_Linux_R35.4.1_aarch64/Linux_for_Tegra/sources/tegra/optee-src/nv-optee/optee/optee_os/lib/libutils/isoc/bget_malloc.c:941
    11f4:	b9007274 	str	w20, [x19, #112]
/home/ssysarch/Desktop/nick/jetpack_5/Jetson_Linux_R35.4.1_aarch64/Linux_for_Tegra/sources/tegra/optee-src/nv-optee/optee/optee_os/lib/libutils/isoc/bget_malloc.c:944
    11f8:	a94153f3 	ldp	x19, x20, [sp, #16]
    11fc:	a9425bf5 	ldp	x21, x22, [sp, #32]
    1200:	a8c37bfd 	ldp	x29, x30, [sp], #48
    1204:	d65f03c0 	ret

0000000000001208 <raw_malloc_buffer_overlaps_heap>:
raw_malloc_buffer_overlaps_heap():
/home/ssysarch/Desktop/nick/jetpack_5/Jetson_Linux_R35.4.1_aarch64/Linux_for_Tegra/sources/tegra/optee-src/nv-optee/optee/optee_os/lib/libutils/isoc/bget_malloc.c:948
    1208:	ab020022 	adds	x2, x1, x2
    120c:	aa0003e6 	mov	x6, x0
/home/ssysarch/Desktop/nick/jetpack_5/Jetson_Linux_R35.4.1_aarch64/Linux_for_Tegra/sources/tegra/optee-src/nv-optee/optee/optee_os/lib/libutils/isoc/bget_malloc.c:955
    1210:	f9402008 	ldr	x8, [x0, #64]
    1214:	9a9f37e9 	cset	x9, cs  // cs = hs, nlast
    1218:	d2800005 	mov	x5, #0x0                   	// #0
/home/ssysarch/Desktop/nick/jetpack_5/Jetson_Linux_R35.4.1_aarch64/Linux_for_Tegra/sources/tegra/optee-src/nv-optee/optee/optee_os/lib/libutils/isoc/bget_malloc.c:955 (discriminator 1)
    121c:	eb05011f 	cmp	x8, x5
    1220:	54000061 	b.ne	122c <raw_malloc_buffer_overlaps_heap+0x24>  // b.any
/home/ssysarch/Desktop/nick/jetpack_5/Jetson_Linux_R35.4.1_aarch64/Linux_for_Tegra/sources/tegra/optee-src/nv-optee/optee/optee_os/lib/libutils/isoc/bget_malloc.c:967
    1224:	52800000 	mov	w0, #0x0                   	// #0
/home/ssysarch/Desktop/nick/jetpack_5/Jetson_Linux_R35.4.1_aarch64/Linux_for_Tegra/sources/tegra/optee-src/nv-optee/optee/optee_os/lib/libutils/isoc/bget_malloc.c:968
    1228:	d65f03c0 	ret
/home/ssysarch/Desktop/nick/jetpack_5/Jetson_Linux_R35.4.1_aarch64/Linux_for_Tegra/sources/tegra/optee-src/nv-optee/optee/optee_os/lib/libutils/isoc/bget_malloc.c:956
    122c:	f9401cc3 	ldr	x3, [x6, #56]
    1230:	d37ceca0 	lsl	x0, x5, #4
    1234:	8b051064 	add	x4, x3, x5, lsl #4
    1238:	f8606867 	ldr	x7, [x3, x0]
/home/ssysarch/Desktop/nick/jetpack_5/Jetson_Linux_R35.4.1_aarch64/Linux_for_Tegra/sources/tegra/optee-src/nv-optee/optee/optee_os/lib/libutils/isoc/bget_malloc.c:957
    123c:	f9400483 	ldr	x3, [x4, #8]
/home/ssysarch/Desktop/nick/jetpack_5/Jetson_Linux_R35.4.1_aarch64/Linux_for_Tegra/sources/tegra/optee-src/nv-optee/optee/optee_os/lib/libutils/isoc/bget_malloc.c:959
    1240:	ab070064 	adds	x4, x3, x7
    1244:	1a9f37e3 	cset	w3, cs  // cs = hs, nlast
    1248:	2a090060 	orr	w0, w3, w9
    124c:	35fffee0 	cbnz	w0, 1228 <raw_malloc_buffer_overlaps_heap+0x20>
/home/ssysarch/Desktop/nick/jetpack_5/Jetson_Linux_R35.4.1_aarch64/Linux_for_Tegra/sources/tegra/optee-src/nv-optee/optee/optee_os/lib/libutils/isoc/bget_malloc.c:962
    1250:	eb07003f 	cmp	x1, x7
    1254:	1a9f37e3 	cset	w3, cs  // cs = hs, nlast
    1258:	eb04003f 	cmp	x1, x4
    125c:	1a9f27e0 	cset	w0, cc  // cc = lo, ul, last
    1260:	6a000060 	ands	w0, w3, w0
    1264:	54fffe21 	b.ne	1228 <raw_malloc_buffer_overlaps_heap+0x20>  // b.any
/home/ssysarch/Desktop/nick/jetpack_5/Jetson_Linux_R35.4.1_aarch64/Linux_for_Tegra/sources/tegra/optee-src/nv-optee/optee/optee_os/lib/libutils/isoc/bget_malloc.c:963 (discriminator 1)
    1268:	eb07005f 	cmp	x2, x7
    126c:	1a9f37e3 	cset	w3, cs  // cs = hs, nlast
    1270:	eb04005f 	cmp	x2, x4
    1274:	1a9f27e0 	cset	w0, cc  // cc = lo, ul, last
/home/ssysarch/Desktop/nick/jetpack_5/Jetson_Linux_R35.4.1_aarch64/Linux_for_Tegra/sources/tegra/optee-src/nv-optee/optee/optee_os/lib/libutils/isoc/bget_malloc.c:962 (discriminator 1)
    1278:	6a000060 	ands	w0, w3, w0
    127c:	54fffd61 	b.ne	1228 <raw_malloc_buffer_overlaps_heap+0x20>  // b.any
/home/ssysarch/Desktop/nick/jetpack_5/Jetson_Linux_R35.4.1_aarch64/Linux_for_Tegra/sources/tegra/optee-src/nv-optee/optee/optee_os/lib/libutils/isoc/bget_malloc.c:955 (discriminator 2)
    1280:	910004a5 	add	x5, x5, #0x1
    1284:	17ffffe6 	b	121c <raw_malloc_buffer_overlaps_heap+0x14>

0000000000001288 <raw_malloc_buffer_is_within_alloced>:
raw_malloc_buffer_is_within_alloced():
/home/ssysarch/Desktop/nick/jetpack_5/Jetson_Linux_R35.4.1_aarch64/Linux_for_Tegra/sources/tegra/optee-src/nv-optee/optee/optee_os/lib/libutils/isoc/bget_malloc.c:981
    1288:	ab020022 	adds	x2, x1, x2
    128c:	54000a22 	b.cs	13d0 <raw_malloc_buffer_is_within_alloced+0x148>  // b.hs, b.nlast
/home/ssysarch/Desktop/nick/jetpack_5/Jetson_Linux_R35.4.1_aarch64/Linux_for_Tegra/sources/tegra/optee-src/nv-optee/optee/optee_os/lib/libutils/isoc/bget_malloc.c:984
    1290:	f9401c08 	ldr	x8, [x0, #56]
    1294:	aa0003e7 	mov	x7, x0
bpool_foreach_iterator_init():
/home/ssysarch/Desktop/nick/jetpack_5/Jetson_Linux_R35.4.1_aarch64/Linux_for_Tegra/sources/tegra/optee-src/nv-optee/optee/optee_os/lib/libutils/isoc/bget_malloc.c:360
    1298:	d2800006 	mov	x6, #0x0                   	// #0
bpool_foreach_pool():
/home/ssysarch/Desktop/nick/jetpack_5/Jetson_Linux_R35.4.1_aarch64/Linux_for_Tegra/sources/tegra/optee-src/nv-optee/optee/optee_os/lib/libutils/isoc/bget_malloc.c:370
    129c:	d2f0000a 	mov	x10, #0x8000000000000000    	// #-9223372036854775808
    12a0:	928001eb 	mov	x11, #0xfffffffffffffff0    	// #-16
bpool_foreach_iterator_init():
/home/ssysarch/Desktop/nick/jetpack_5/Jetson_Linux_R35.4.1_aarch64/Linux_for_Tegra/sources/tegra/optee-src/nv-optee/optee/optee_os/lib/libutils/isoc/bget_malloc.c:361
    12a4:	f9400104 	ldr	x4, [x8]
/home/ssysarch/Desktop/nick/jetpack_5/Jetson_Linux_R35.4.1_aarch64/Linux_for_Tegra/sources/tegra/optee-src/nv-optee/optee/optee_os/lib/libutils/isoc/bget_malloc.c:360
    12a8:	aa0403e5 	mov	x5, x4
bpool_foreach_pool():
/home/ssysarch/Desktop/nick/jetpack_5/Jetson_Linux_R35.4.1_aarch64/Linux_for_Tegra/sources/tegra/optee-src/nv-optee/optee/optee_os/lib/libutils/isoc/bget_malloc.c:368
    12ac:	f9400483 	ldr	x3, [x4, #8]
/home/ssysarch/Desktop/nick/jetpack_5/Jetson_Linux_R35.4.1_aarch64/Linux_for_Tegra/sources/tegra/optee-src/nv-optee/optee/optee_os/lib/libutils/isoc/bget_malloc.c:370
    12b0:	eb0a007f 	cmp	x3, x10
    12b4:	54000860 	b.eq	13c0 <raw_malloc_buffer_is_within_alloced+0x138>  // b.none
raw_malloc_buffer_is_within_alloced():
/home/ssysarch/Desktop/nick/jetpack_5/Jetson_Linux_R35.4.1_aarch64/Linux_for_Tegra/sources/tegra/optee-src/nv-optee/optee/optee_os/lib/libutils/isoc/bget_malloc.c:972
    12b8:	a9bf7bfd 	stp	x29, x30, [sp, #-16]!
    12bc:	910003fd 	mov	x29, sp
    12c0:	1400000d 	b	12f4 <raw_malloc_buffer_is_within_alloced+0x6c>
bpool_foreach_pool():
/home/ssysarch/Desktop/nick/jetpack_5/Jetson_Linux_R35.4.1_aarch64/Linux_for_Tegra/sources/tegra/optee-src/nv-optee/optee/optee_os/lib/libutils/isoc/bget_malloc.c:387
    12c4:	910040a5 	add	x5, x5, #0x10
raw_malloc_buffer_is_within_alloced():
/home/ssysarch/Desktop/nick/jetpack_5/Jetson_Linux_R35.4.1_aarch64/Linux_for_Tegra/sources/tegra/optee-src/nv-optee/optee/optee_os/lib/libutils/isoc/bget_malloc.c:990
    12c8:	8b0300a3 	add	x3, x5, x3
/home/ssysarch/Desktop/nick/jetpack_5/Jetson_Linux_R35.4.1_aarch64/Linux_for_Tegra/sources/tegra/optee-src/nv-optee/optee/optee_os/lib/libutils/isoc/bget_malloc.c:991
    12cc:	eb03005f 	cmp	x2, x3
    12d0:	1a9f87e3 	cset	w3, ls  // ls = plast
    12d4:	eb05003f 	cmp	x1, x5
    12d8:	1a9f37e0 	cset	w0, cs  // cs = hs, nlast
    12dc:	6a000060 	ands	w0, w3, w0
    12e0:	54000661 	b.ne	13ac <raw_malloc_buffer_is_within_alloced+0x124>  // b.any
bpool_foreach_pool():
/home/ssysarch/Desktop/nick/jetpack_5/Jetson_Linux_R35.4.1_aarch64/Linux_for_Tegra/sources/tegra/optee-src/nv-optee/optee/optee_os/lib/libutils/isoc/bget_malloc.c:368
    12e4:	f9400483 	ldr	x3, [x4, #8]
bpool_foreach_iterator_init():
/home/ssysarch/Desktop/nick/jetpack_5/Jetson_Linux_R35.4.1_aarch64/Linux_for_Tegra/sources/tegra/optee-src/nv-optee/optee/optee_os/lib/libutils/isoc/bget_malloc.c:360
    12e8:	aa0403e5 	mov	x5, x4
bpool_foreach_pool():
/home/ssysarch/Desktop/nick/jetpack_5/Jetson_Linux_R35.4.1_aarch64/Linux_for_Tegra/sources/tegra/optee-src/nv-optee/optee/optee_os/lib/libutils/isoc/bget_malloc.c:370
    12ec:	eb0a007f 	cmp	x3, x10
    12f0:	54000540 	b.eq	1398 <raw_malloc_buffer_is_within_alloced+0x110>  // b.none
/home/ssysarch/Desktop/nick/jetpack_5/Jetson_Linux_R35.4.1_aarch64/Linux_for_Tegra/sources/tegra/optee-src/nv-optee/optee/optee_os/lib/libutils/isoc/bget_malloc.c:373
    12f4:	b6f80123 	tbz	x3, #63, 1318 <raw_malloc_buffer_is_within_alloced+0x90>
/home/ssysarch/Desktop/nick/jetpack_5/Jetson_Linux_R35.4.1_aarch64/Linux_for_Tegra/sources/tegra/optee-src/nv-optee/optee/optee_os/lib/libutils/isoc/bget_malloc.c:375
    12f8:	cb0303e9 	neg	x9, x3
/home/ssysarch/Desktop/nick/jetpack_5/Jetson_Linux_R35.4.1_aarch64/Linux_for_Tegra/sources/tegra/optee-src/nv-optee/optee/optee_os/lib/libutils/isoc/bget_malloc.c:377
    12fc:	52800000 	mov	w0, #0x0                   	// #0
/home/ssysarch/Desktop/nick/jetpack_5/Jetson_Linux_R35.4.1_aarch64/Linux_for_Tegra/sources/tegra/optee-src/nv-optee/optee/optee_os/lib/libutils/isoc/bget_malloc.c:390
    1300:	8b090084 	add	x4, x4, x9
bpool_foreach():
/home/ssysarch/Desktop/nick/jetpack_5/Jetson_Linux_R35.4.1_aarch64/Linux_for_Tegra/sources/tegra/optee-src/nv-optee/optee/optee_os/lib/libutils/isoc/bget_malloc.c:402
    1304:	35ffff00 	cbnz	w0, 12e4 <raw_malloc_buffer_is_within_alloced+0x5c>
bget_buf_size():
/home/ssysarch/Desktop/nick/jetpack_5/Jetson_Linux_R35.4.1_aarch64/Linux_for_Tegra/sources/tegra/optee-src/nv-optee/optee/optee_os/lib/libutils/isoc/bget_malloc.c:207
    1308:	cb030163 	sub	x3, x11, x3
/home/ssysarch/Desktop/nick/jetpack_5/Jetson_Linux_R35.4.1_aarch64/Linux_for_Tegra/sources/tegra/optee-src/nv-optee/optee/optee_os/lib/libutils/isoc/bget_malloc.c:208
    130c:	f100007f 	cmp	x3, #0x0
    1310:	54fffdac 	b.gt	12c4 <raw_malloc_buffer_is_within_alloced+0x3c>
    1314:	97fffc96 	bl	56c <bget_buf_size.part.0>
bpool_foreach_pool():
/home/ssysarch/Desktop/nick/jetpack_5/Jetson_Linux_R35.4.1_aarch64/Linux_for_Tegra/sources/tegra/optee-src/nv-optee/optee/optee_os/lib/libutils/isoc/bget_malloc.c:383
    1318:	f9400c80 	ldr	x0, [x4, #24]
    131c:	f9400800 	ldr	x0, [x0, #16]
    1320:	eb04001f 	cmp	x0, x4
    1324:	54000140 	b.eq	134c <raw_malloc_buffer_is_within_alloced+0xc4>  // b.none
    1328:	f0000063 	adrp	x3, 10000 <__text_end+0x28b0>
    132c:	91312863 	add	x3, x3, #0xc4a
    1330:	f0000061 	adrp	x1, 10000 <__text_end+0x28b0>
    1334:	91256421 	add	x1, x1, #0x959
    1338:	f0000060 	adrp	x0, 10000 <__text_end+0x28b0>
    133c:	9126f000 	add	x0, x0, #0x9bc
    1340:	91011463 	add	x3, x3, #0x45
    1344:	52802fe2 	mov	w2, #0x17f                 	// #383
    1348:	97fffc77 	bl	524 <_assert_trap>
/home/ssysarch/Desktop/nick/jetpack_5/Jetson_Linux_R35.4.1_aarch64/Linux_for_Tegra/sources/tegra/optee-src/nv-optee/optee/optee_os/lib/libutils/isoc/bget_malloc.c:384
    134c:	f9400880 	ldr	x0, [x4, #16]
    1350:	f9400c00 	ldr	x0, [x0, #24]
    1354:	eb04001f 	cmp	x0, x4
    1358:	54000140 	b.eq	1380 <raw_malloc_buffer_is_within_alloced+0xf8>  // b.none
    135c:	f0000063 	adrp	x3, 10000 <__text_end+0x28b0>
    1360:	91312863 	add	x3, x3, #0xc4a
    1364:	f0000061 	adrp	x1, 10000 <__text_end+0x28b0>
    1368:	91256421 	add	x1, x1, #0x959
    136c:	f0000060 	adrp	x0, 10000 <__text_end+0x28b0>
    1370:	91275c00 	add	x0, x0, #0x9d7
    1374:	91011463 	add	x3, x3, #0x45
    1378:	52803002 	mov	w2, #0x180                 	// #384
    137c:	97fffc6a 	bl	524 <_assert_trap>
    1380:	aa0303e9 	mov	x9, x3
/home/ssysarch/Desktop/nick/jetpack_5/Jetson_Linux_R35.4.1_aarch64/Linux_for_Tegra/sources/tegra/optee-src/nv-optee/optee/optee_os/lib/libutils/isoc/bget_malloc.c:380
    1384:	52800020 	mov	w0, #0x1                   	// #1
    1388:	17ffffde 	b	1300 <raw_malloc_buffer_is_within_alloced+0x78>
bpool_foreach():
/home/ssysarch/Desktop/nick/jetpack_5/Jetson_Linux_R35.4.1_aarch64/Linux_for_Tegra/sources/tegra/optee-src/nv-optee/optee/optee_os/lib/libutils/isoc/bget_malloc.c:411
    138c:	d37cecc0 	lsl	x0, x6, #4
    1390:	f8606904 	ldr	x4, [x8, x0]
    1394:	17ffffd4 	b	12e4 <raw_malloc_buffer_is_within_alloced+0x5c>
/home/ssysarch/Desktop/nick/jetpack_5/Jetson_Linux_R35.4.1_aarch64/Linux_for_Tegra/sources/tegra/optee-src/nv-optee/optee/optee_os/lib/libutils/isoc/bget_malloc.c:407
    1398:	f94020e0 	ldr	x0, [x7, #64]
    139c:	910004c6 	add	x6, x6, #0x1
    13a0:	eb0000df 	cmp	x6, x0
    13a4:	54ffff43 	b.cc	138c <raw_malloc_buffer_is_within_alloced+0x104>  // b.lo, b.ul, b.last
raw_malloc_buffer_is_within_alloced():
/home/ssysarch/Desktop/nick/jetpack_5/Jetson_Linux_R35.4.1_aarch64/Linux_for_Tegra/sources/tegra/optee-src/nv-optee/optee/optee_os/lib/libutils/isoc/bget_malloc.c:982
    13a8:	52800000 	mov	w0, #0x0                   	// #0
/home/ssysarch/Desktop/nick/jetpack_5/Jetson_Linux_R35.4.1_aarch64/Linux_for_Tegra/sources/tegra/optee-src/nv-optee/optee/optee_os/lib/libutils/isoc/bget_malloc.c:996
    13ac:	a8c17bfd 	ldp	x29, x30, [sp], #16
    13b0:	d65f03c0 	ret
bpool_foreach():
/home/ssysarch/Desktop/nick/jetpack_5/Jetson_Linux_R35.4.1_aarch64/Linux_for_Tegra/sources/tegra/optee-src/nv-optee/optee/optee_os/lib/libutils/isoc/bget_malloc.c:411
    13b4:	d37cecc0 	lsl	x0, x6, #4
    13b8:	f8606904 	ldr	x4, [x8, x0]
    13bc:	17ffffbb 	b	12a8 <raw_malloc_buffer_is_within_alloced+0x20>
/home/ssysarch/Desktop/nick/jetpack_5/Jetson_Linux_R35.4.1_aarch64/Linux_for_Tegra/sources/tegra/optee-src/nv-optee/optee/optee_os/lib/libutils/isoc/bget_malloc.c:407
    13c0:	f94020e0 	ldr	x0, [x7, #64]
    13c4:	910004c6 	add	x6, x6, #0x1
    13c8:	eb0000df 	cmp	x6, x0
    13cc:	54ffff43 	b.cc	13b4 <raw_malloc_buffer_is_within_alloced+0x12c>  // b.lo, b.ul, b.last
raw_malloc_buffer_is_within_alloced():
/home/ssysarch/Desktop/nick/jetpack_5/Jetson_Linux_R35.4.1_aarch64/Linux_for_Tegra/sources/tegra/optee-src/nv-optee/optee/optee_os/lib/libutils/isoc/bget_malloc.c:982
    13d0:	52800000 	mov	w0, #0x0                   	// #0
/home/ssysarch/Desktop/nick/jetpack_5/Jetson_Linux_R35.4.1_aarch64/Linux_for_Tegra/sources/tegra/optee-src/nv-optee/optee/optee_os/lib/libutils/isoc/bget_malloc.c:996
    13d4:	d65f03c0 	ret

00000000000013d8 <raw_malloc_get_stats>:
raw_malloc_get_stats():
/home/ssysarch/Desktop/nick/jetpack_5/Jetson_Linux_R35.4.1_aarch64/Linux_for_Tegra/sources/tegra/optee-src/nv-optee/optee/optee_os/lib/libutils/isoc/bget_malloc.c:1000
    13d8:	a9be7bfd 	stp	x29, x30, [sp, #-32]!
    13dc:	aa0103e3 	mov	x3, x1
memcpy_unchecked():
/home/ssysarch/Desktop/nick/jetpack_5/Jetson_Linux_R35.4.1_aarch64/Linux_for_Tegra/sources/tegra/optee-src/nv-optee/optee/optee_os/lib/libutils/isoc/bget_malloc.c:121
    13e0:	d2800702 	mov	x2, #0x38                  	// #56
raw_malloc_get_stats():
/home/ssysarch/Desktop/nick/jetpack_5/Jetson_Linux_R35.4.1_aarch64/Linux_for_Tegra/sources/tegra/optee-src/nv-optee/optee/optee_os/lib/libutils/isoc/bget_malloc.c:1000
    13e4:	910003fd 	mov	x29, sp
    13e8:	f9000bf3 	str	x19, [sp, #16]
    13ec:	aa0003f3 	mov	x19, x0
memcpy_unchecked():
/home/ssysarch/Desktop/nick/jetpack_5/Jetson_Linux_R35.4.1_aarch64/Linux_for_Tegra/sources/tegra/optee-src/nv-optee/optee/optee_os/lib/libutils/isoc/bget_malloc.c:121
    13f0:	91012001 	add	x1, x0, #0x48
    13f4:	aa0303e0 	mov	x0, x3
    13f8:	97fffb0a 	bl	20 <memcpy>
    13fc:	aa0003e3 	mov	x3, x0
raw_malloc_get_stats():
/home/ssysarch/Desktop/nick/jetpack_5/Jetson_Linux_R35.4.1_aarch64/Linux_for_Tegra/sources/tegra/optee-src/nv-optee/optee/optee_os/lib/libutils/isoc/bget_malloc.c:1002
    1400:	f9401260 	ldr	x0, [x19, #32]
/home/ssysarch/Desktop/nick/jetpack_5/Jetson_Linux_R35.4.1_aarch64/Linux_for_Tegra/sources/tegra/optee-src/nv-optee/optee/optee_os/lib/libutils/isoc/bget_malloc.c:1003
    1404:	f9400bf3 	ldr	x19, [sp, #16]
/home/ssysarch/Desktop/nick/jetpack_5/Jetson_Linux_R35.4.1_aarch64/Linux_for_Tegra/sources/tegra/optee-src/nv-optee/optee/optee_os/lib/libutils/isoc/bget_malloc.c:1002
    1408:	b9002060 	str	w0, [x3, #32]
/home/ssysarch/Desktop/nick/jetpack_5/Jetson_Linux_R35.4.1_aarch64/Linux_for_Tegra/sources/tegra/optee-src/nv-optee/optee/optee_os/lib/libutils/isoc/bget_malloc.c:1003
    140c:	a8c27bfd 	ldp	x29, x30, [sp], #32
    1410:	d65f03c0 	ret

0000000000001414 <malloc_get_stats>:
gen_malloc_get_stats():
/home/ssysarch/Desktop/nick/jetpack_5/Jetson_Linux_R35.4.1_aarch64/Linux_for_Tegra/sources/tegra/optee-src/nv-optee/optee/optee_os/lib/libutils/isoc/bget_malloc.c:315
    1414:	aa0003e1 	mov	x1, x0
    1418:	b0000080 	adrp	x0, 12000 <_DYNAMIC>
    141c:	91132000 	add	x0, x0, #0x4c8
    1420:	17ffffee 	b	13d8 <raw_malloc_get_stats>

0000000000001424 <malloc_add_pool>:
gen_malloc_add_pool():
/home/ssysarch/Desktop/nick/jetpack_5/Jetson_Linux_R35.4.1_aarch64/Linux_for_Tegra/sources/tegra/optee-src/nv-optee/optee/optee_os/lib/libutils/isoc/bget_malloc.c:871
    1424:	aa0103e2 	mov	x2, x1
    1428:	aa0003e1 	mov	x1, x0
    142c:	b0000080 	adrp	x0, 12000 <_DYNAMIC>
    1430:	91132000 	add	x0, x0, #0x4c8
    1434:	17ffff2e 	b	10ec <raw_malloc_add_pool>

0000000000001438 <malloc_buffer_is_within_alloced>:
gen_malloc_buffer_is_within_alloced():
/home/ssysarch/Desktop/nick/jetpack_5/Jetson_Linux_R35.4.1_aarch64/Linux_for_Tegra/sources/tegra/optee-src/nv-optee/optee/optee_os/lib/libutils/isoc/bget_malloc.c:881
    1438:	aa0103e2 	mov	x2, x1
    143c:	aa0003e1 	mov	x1, x0
    1440:	b0000080 	adrp	x0, 12000 <_DYNAMIC>
    1444:	91132000 	add	x0, x0, #0x4c8
    1448:	17ffff90 	b	1288 <raw_malloc_buffer_is_within_alloced>

000000000000144c <malloc_buffer_overlaps_heap>:
gen_malloc_buffer_overlaps_heap():
/home/ssysarch/Desktop/nick/jetpack_5/Jetson_Linux_R35.4.1_aarch64/Linux_for_Tegra/sources/tegra/optee-src/nv-optee/optee/optee_os/lib/libutils/isoc/bget_malloc.c:893
    144c:	aa0103e2 	mov	x2, x1
    1450:	aa0003e1 	mov	x1, x0
    1454:	b0000080 	adrp	x0, 12000 <_DYNAMIC>
    1458:	91132000 	add	x0, x0, #0x4c8
    145c:	17ffff6b 	b	1208 <raw_malloc_buffer_overlaps_heap>

0000000000001460 <__stack_chk_fail>:
__stack_chk_fail():
/home/ssysarch/Desktop/nick/jetpack_5/Jetson_Linux_R35.4.1_aarch64/Linux_for_Tegra/sources/tegra/optee-src/nv-optee/optee/optee_os/lib/libutils/isoc/stack_check.c:24
    1460:	a9bf7bfd 	stp	x29, x30, [sp, #-16]!
/home/ssysarch/Desktop/nick/jetpack_5/Jetson_Linux_R35.4.1_aarch64/Linux_for_Tegra/sources/tegra/optee-src/nv-optee/optee/optee_os/lib/libutils/isoc/stack_check.c:25
    1464:	f0000064 	adrp	x4, 10000 <__text_end+0x28b0>
    1468:	91328884 	add	x4, x4, #0xca2
/home/ssysarch/Desktop/nick/jetpack_5/Jetson_Linux_R35.4.1_aarch64/Linux_for_Tegra/sources/tegra/optee-src/nv-optee/optee/optee_os/lib/libutils/isoc/stack_check.c:24
    146c:	910003fd 	mov	x29, sp
/home/ssysarch/Desktop/nick/jetpack_5/Jetson_Linux_R35.4.1_aarch64/Linux_for_Tegra/sources/tegra/optee-src/nv-optee/optee/optee_os/lib/libutils/isoc/stack_check.c:25
    1470:	52800023 	mov	w3, #0x1                   	// #1
    1474:	52800022 	mov	w2, #0x1                   	// #1
    1478:	52800001 	mov	w1, #0x0                   	// #0
    147c:	d2800000 	mov	x0, #0x0                   	// #0
    1480:	940000fe 	bl	1878 <trace_printf>
/home/ssysarch/Desktop/nick/jetpack_5/Jetson_Linux_R35.4.1_aarch64/Linux_for_Tegra/sources/tegra/optee-src/nv-optee/optee/optee_os/lib/libutils/isoc/stack_check.c:27 (discriminator 1)
    1484:	1299fe00 	mov	w0, #0xffff300f            	// #-53233
    1488:	94000892 	bl	36d0 <_utee_panic>
/home/ssysarch/Desktop/nick/jetpack_5/Jetson_Linux_R35.4.1_aarch64/Linux_for_Tegra/sources/tegra/optee-src/nv-optee/optee/optee_os/lib/libutils/isoc/stack_check.c:26 (discriminator 1)
    148c:	17fffffe 	b	1484 <__stack_chk_fail+0x24>

0000000000001490 <strndup>:
strndup():
/home/ssysarch/Desktop/nick/jetpack_5/Jetson_Linux_R35.4.1_aarch64/Linux_for_Tegra/sources/tegra/optee-src/nv-optee/optee/optee_os/lib/libutils/isoc/strndup.c:9
    1490:	a9bd7bfd 	stp	x29, x30, [sp, #-48]!
    1494:	910003fd 	mov	x29, sp
    1498:	a90153f3 	stp	x19, x20, [sp, #16]
    149c:	f90013f5 	str	x21, [sp, #32]
    14a0:	aa0003f5 	mov	x21, x0
/home/ssysarch/Desktop/nick/jetpack_5/Jetson_Linux_R35.4.1_aarch64/Linux_for_Tegra/sources/tegra/optee-src/nv-optee/optee/optee_os/lib/libutils/isoc/strndup.c:10
    14a4:	94000016 	bl	14fc <strnlen>
    14a8:	aa0003f4 	mov	x20, x0
/home/ssysarch/Desktop/nick/jetpack_5/Jetson_Linux_R35.4.1_aarch64/Linux_for_Tegra/sources/tegra/optee-src/nv-optee/optee/optee_os/lib/libutils/isoc/strndup.c:11
    14ac:	91000400 	add	x0, x0, #0x1
    14b0:	97fffeda 	bl	1018 <malloc>
    14b4:	aa0003f3 	mov	x19, x0
/home/ssysarch/Desktop/nick/jetpack_5/Jetson_Linux_R35.4.1_aarch64/Linux_for_Tegra/sources/tegra/optee-src/nv-optee/optee/optee_os/lib/libutils/isoc/strndup.c:13
    14b8:	b40000a0 	cbz	x0, 14cc <strndup+0x3c>
/home/ssysarch/Desktop/nick/jetpack_5/Jetson_Linux_R35.4.1_aarch64/Linux_for_Tegra/sources/tegra/optee-src/nv-optee/optee/optee_os/lib/libutils/isoc/strndup.c:14
    14bc:	aa1403e2 	mov	x2, x20
    14c0:	aa1503e1 	mov	x1, x21
    14c4:	97fffad7 	bl	20 <memcpy>
/home/ssysarch/Desktop/nick/jetpack_5/Jetson_Linux_R35.4.1_aarch64/Linux_for_Tegra/sources/tegra/optee-src/nv-optee/optee/optee_os/lib/libutils/isoc/strndup.c:15
    14c8:	38346a7f 	strb	wzr, [x19, x20]
/home/ssysarch/Desktop/nick/jetpack_5/Jetson_Linux_R35.4.1_aarch64/Linux_for_Tegra/sources/tegra/optee-src/nv-optee/optee/optee_os/lib/libutils/isoc/strndup.c:18
    14cc:	aa1303e0 	mov	x0, x19
    14d0:	a94153f3 	ldp	x19, x20, [sp, #16]
    14d4:	f94013f5 	ldr	x21, [sp, #32]
    14d8:	a8c37bfd 	ldp	x29, x30, [sp], #48
    14dc:	d65f03c0 	ret

00000000000014e0 <memset>:
memset():
/home/ssysarch/Desktop/nick/jetpack_5/Jetson_Linux_R35.4.1_aarch64/Linux_for_Tegra/sources/tegra/optee-src/nv-optee/optee/optee_os/lib/libutils/isoc/newlib/memset.c:125
    14e0:	d2800003 	mov	x3, #0x0                   	// #0
    14e4:	eb03005f 	cmp	x2, x3
    14e8:	54000041 	b.ne	14f0 <memset+0x10>  // b.any
/home/ssysarch/Desktop/nick/jetpack_5/Jetson_Linux_R35.4.1_aarch64/Linux_for_Tegra/sources/tegra/optee-src/nv-optee/optee/optee_os/lib/libutils/isoc/newlib/memset.c:129
    14ec:	d65f03c0 	ret
/home/ssysarch/Desktop/nick/jetpack_5/Jetson_Linux_R35.4.1_aarch64/Linux_for_Tegra/sources/tegra/optee-src/nv-optee/optee/optee_os/lib/libutils/isoc/newlib/memset.c:126
    14f0:	38236801 	strb	w1, [x0, x3]
    14f4:	91000463 	add	x3, x3, #0x1
    14f8:	17fffffb 	b	14e4 <memset+0x4>

00000000000014fc <strnlen>:
strnlen():
/home/ssysarch/Desktop/nick/jetpack_5/Jetson_Linux_R35.4.1_aarch64/Linux_for_Tegra/sources/tegra/optee-src/nv-optee/optee/optee_os/lib/libutils/isoc/newlib/strnlen.c:77
    14fc:	8b010001 	add	x1, x0, x1
    1500:	aa0003e2 	mov	x2, x0
    1504:	eb01005f 	cmp	x2, x1
    1508:	54000061 	b.ne	1514 <strnlen+0x18>  // b.any
/home/ssysarch/Desktop/nick/jetpack_5/Jetson_Linux_R35.4.1_aarch64/Linux_for_Tegra/sources/tegra/optee-src/nv-optee/optee/optee_os/lib/libutils/isoc/newlib/strnlen.c:80
    150c:	cb000040 	sub	x0, x2, x0
/home/ssysarch/Desktop/nick/jetpack_5/Jetson_Linux_R35.4.1_aarch64/Linux_for_Tegra/sources/tegra/optee-src/nv-optee/optee/optee_os/lib/libutils/isoc/newlib/strnlen.c:81
    1510:	d65f03c0 	ret
/home/ssysarch/Desktop/nick/jetpack_5/Jetson_Linux_R35.4.1_aarch64/Linux_for_Tegra/sources/tegra/optee-src/nv-optee/optee/optee_os/lib/libutils/isoc/newlib/strnlen.c:77 (discriminator 1)
    1514:	39400043 	ldrb	w3, [x2]
    1518:	34ffffa3 	cbz	w3, 150c <strnlen+0x10>
/home/ssysarch/Desktop/nick/jetpack_5/Jetson_Linux_R35.4.1_aarch64/Linux_for_Tegra/sources/tegra/optee-src/nv-optee/optee/optee_os/lib/libutils/isoc/newlib/strnlen.c:78
    151c:	91000442 	add	x2, x2, #0x1
    1520:	17fffff9 	b	1504 <strnlen+0x8>

0000000000001524 <append>:
append():
/home/ssysarch/Desktop/nick/jetpack_5/Jetson_Linux_R35.4.1_aarch64/Linux_for_Tegra/sources/tegra/optee-src/nv-optee/optee/optee_os/lib/libutils/ext/trace.c:211
    1524:	a9ad7bfd 	stp	x29, x30, [sp, #-304]!
    1528:	910003fd 	mov	x29, sp
    152c:	a9100fe2 	stp	x2, x3, [sp, #256]
    1530:	b0000082 	adrp	x2, 12000 <_DYNAMIC>
    1534:	f9409842 	ldr	x2, [x2, #304]
    1538:	a90153f3 	stp	x19, x20, [sp, #16]
    153c:	aa0003f3 	mov	x19, x0
    1540:	3d8023e0 	str	q0, [sp, #128]
    1544:	3d8027e1 	str	q1, [sp, #144]
    1548:	3d802be2 	str	q2, [sp, #160]
    154c:	3d802fe3 	str	q3, [sp, #176]
    1550:	3d8033e4 	str	q4, [sp, #192]
    1554:	3d8037e5 	str	q5, [sp, #208]
    1558:	3d803be6 	str	q6, [sp, #224]
    155c:	3d803fe7 	str	q7, [sp, #240]
    1560:	a91117e4 	stp	x4, x5, [sp, #272]
    1564:	a9121fe6 	stp	x6, x7, [sp, #288]
    1568:	f9400040 	ldr	x0, [x2]
    156c:	f9003fe0 	str	x0, [sp, #120]
    1570:	d2800000 	mov	x0, #0x0                   	// #0
    1574:	f90013f5 	str	x21, [sp, #32]
/home/ssysarch/Desktop/nick/jetpack_5/Jetson_Linux_R35.4.1_aarch64/Linux_for_Tegra/sources/tegra/optee-src/nv-optee/optee/optee_os/lib/libutils/ext/trace.c:216
    1578:	f9408260 	ldr	x0, [x19, #256]
/home/ssysarch/Desktop/nick/jetpack_5/Jetson_Linux_R35.4.1_aarch64/Linux_for_Tegra/sources/tegra/optee-src/nv-optee/optee/optee_os/lib/libutils/ext/trace.c:211
    157c:	aa0103f5 	mov	x21, x1
/home/ssysarch/Desktop/nick/jetpack_5/Jetson_Linux_R35.4.1_aarch64/Linux_for_Tegra/sources/tegra/optee-src/nv-optee/optee/optee_os/lib/libutils/ext/trace.c:216
    1580:	b5000040 	cbnz	x0, 1588 <append+0x64>
/home/ssysarch/Desktop/nick/jetpack_5/Jetson_Linux_R35.4.1_aarch64/Linux_for_Tegra/sources/tegra/optee-src/nv-optee/optee/optee_os/lib/libutils/ext/trace.c:217
    1584:	f9008273 	str	x19, [x19, #256]
/home/ssysarch/Desktop/nick/jetpack_5/Jetson_Linux_R35.4.1_aarch64/Linux_for_Tegra/sources/tegra/optee-src/nv-optee/optee/optee_os/lib/libutils/ext/trace.c:219
    1588:	9104c3e0 	add	x0, sp, #0x130
/home/ssysarch/Desktop/nick/jetpack_5/Jetson_Linux_R35.4.1_aarch64/Linux_for_Tegra/sources/tegra/optee-src/nv-optee/optee/optee_os/lib/libutils/ext/trace.c:220
    158c:	9100c3e3 	add	x3, sp, #0x30
/home/ssysarch/Desktop/nick/jetpack_5/Jetson_Linux_R35.4.1_aarch64/Linux_for_Tegra/sources/tegra/optee-src/nv-optee/optee/optee_os/lib/libutils/ext/trace.c:219
    1590:	a90583e0 	stp	x0, x0, [sp, #88]
    1594:	910403e0 	add	x0, sp, #0x100
/home/ssysarch/Desktop/nick/jetpack_5/Jetson_Linux_R35.4.1_aarch64/Linux_for_Tegra/sources/tegra/optee-src/nv-optee/optee/optee_os/lib/libutils/ext/trace.c:220
    1598:	910163e1 	add	x1, sp, #0x58
/home/ssysarch/Desktop/nick/jetpack_5/Jetson_Linux_R35.4.1_aarch64/Linux_for_Tegra/sources/tegra/optee-src/nv-optee/optee/optee_os/lib/libutils/ext/trace.c:219
    159c:	f90037e0 	str	x0, [sp, #104]
    15a0:	128005e0 	mov	w0, #0xffffffd0            	// #-48
    15a4:	b90073e0 	str	w0, [sp, #112]
    15a8:	12800fe0 	mov	w0, #0xffffff80            	// #-128
/home/ssysarch/Desktop/nick/jetpack_5/Jetson_Linux_R35.4.1_aarch64/Linux_for_Tegra/sources/tegra/optee-src/nv-optee/optee/optee_os/lib/libutils/ext/trace.c:218
    15ac:	f9408274 	ldr	x20, [x19, #256]
/home/ssysarch/Desktop/nick/jetpack_5/Jetson_Linux_R35.4.1_aarch64/Linux_for_Tegra/sources/tegra/optee-src/nv-optee/optee/optee_os/lib/libutils/ext/trace.c:220
    15b0:	d2800402 	mov	x2, #0x20                  	// #32
/home/ssysarch/Desktop/nick/jetpack_5/Jetson_Linux_R35.4.1_aarch64/Linux_for_Tegra/sources/tegra/optee-src/nv-optee/optee/optee_os/lib/libutils/ext/trace.c:219
    15b4:	b90077e0 	str	w0, [sp, #116]
/home/ssysarch/Desktop/nick/jetpack_5/Jetson_Linux_R35.4.1_aarch64/Linux_for_Tegra/sources/tegra/optee-src/nv-optee/optee/optee_os/lib/libutils/ext/trace.c:220
    15b8:	aa0303e0 	mov	x0, x3
    15bc:	97fffa99 	bl	20 <memcpy>
    15c0:	aa0003e3 	mov	x3, x0
    15c4:	f9408260 	ldr	x0, [x19, #256]
/home/ssysarch/Desktop/nick/jetpack_5/Jetson_Linux_R35.4.1_aarch64/Linux_for_Tegra/sources/tegra/optee-src/nv-optee/optee/optee_os/lib/libutils/ext/trace.c:218
    15c8:	4b140274 	sub	w20, w19, w20
    15cc:	11040294 	add	w20, w20, #0x100
/home/ssysarch/Desktop/nick/jetpack_5/Jetson_Linux_R35.4.1_aarch64/Linux_for_Tegra/sources/tegra/optee-src/nv-optee/optee/optee_os/lib/libutils/ext/trace.c:220
    15d0:	aa1503e2 	mov	x2, x21
    15d4:	93407e81 	sxtw	x1, w20
    15d8:	94000176 	bl	1bb0 <vsnprintk>
/home/ssysarch/Desktop/nick/jetpack_5/Jetson_Linux_R35.4.1_aarch64/Linux_for_Tegra/sources/tegra/optee-src/nv-optee/optee/optee_os/lib/libutils/ext/trace.c:222
    15dc:	37f801e0 	tbnz	w0, #31, 1618 <append+0xf4>
/home/ssysarch/Desktop/nick/jetpack_5/Jetson_Linux_R35.4.1_aarch64/Linux_for_Tegra/sources/tegra/optee-src/nv-optee/optee/optee_os/lib/libutils/ext/trace.c:226
    15e0:	6b00029f 	cmp	w20, w0
    15e4:	540001ad 	b.le	1618 <append+0xf4>
/home/ssysarch/Desktop/nick/jetpack_5/Jetson_Linux_R35.4.1_aarch64/Linux_for_Tegra/sources/tegra/optee-src/nv-optee/optee/optee_os/lib/libutils/ext/trace.c:230
    15e8:	f9408261 	ldr	x1, [x19, #256]
    15ec:	8b20c020 	add	x0, x1, w0, sxtw
    15f0:	f9008260 	str	x0, [x19, #256]
/home/ssysarch/Desktop/nick/jetpack_5/Jetson_Linux_R35.4.1_aarch64/Linux_for_Tegra/sources/tegra/optee-src/nv-optee/optee/optee_os/lib/libutils/ext/trace.c:231
    15f4:	52800020 	mov	w0, #0x1                   	// #1
/home/ssysarch/Desktop/nick/jetpack_5/Jetson_Linux_R35.4.1_aarch64/Linux_for_Tegra/sources/tegra/optee-src/nv-optee/optee/optee_os/lib/libutils/ext/trace.c:232
    15f8:	b0000082 	adrp	x2, 12000 <_DYNAMIC>
    15fc:	f9409842 	ldr	x2, [x2, #304]
    1600:	f9403fe1 	ldr	x1, [sp, #120]
    1604:	f9400043 	ldr	x3, [x2]
    1608:	eb030021 	subs	x1, x1, x3
    160c:	d2800003 	mov	x3, #0x0                   	// #0
    1610:	54000080 	b.eq	1620 <append+0xfc>  // b.none
    1614:	97ffff93 	bl	1460 <__stack_chk_fail>
/home/ssysarch/Desktop/nick/jetpack_5/Jetson_Linux_R35.4.1_aarch64/Linux_for_Tegra/sources/tegra/optee-src/nv-optee/optee/optee_os/lib/libutils/ext/trace.c:224
    1618:	52800000 	mov	w0, #0x0                   	// #0
    161c:	17fffff7 	b	15f8 <append+0xd4>
/home/ssysarch/Desktop/nick/jetpack_5/Jetson_Linux_R35.4.1_aarch64/Linux_for_Tegra/sources/tegra/optee-src/nv-optee/optee/optee_os/lib/libutils/ext/trace.c:232
    1620:	a94153f3 	ldp	x19, x20, [sp, #16]
    1624:	f94013f5 	ldr	x21, [sp, #32]
    1628:	a8d37bfd 	ldp	x29, x30, [sp], #304
    162c:	d65f03c0 	ret

0000000000001630 <trace_set_level>:
trace_set_level():
/home/ssysarch/Desktop/nick/jetpack_5/Jetson_Linux_R35.4.1_aarch64/Linux_for_Tegra/sources/tegra/optee-src/nv-optee/optee/optee_os/lib/libutils/ext/trace.c:28
    1630:	7100141f 	cmp	w0, #0x5
    1634:	52800081 	mov	w1, #0x4                   	// #4
    1638:	1a813000 	csel	w0, w0, w1, cc  // cc = lo, ul, last
    163c:	b0000081 	adrp	x1, 12000 <_DYNAMIC>
    1640:	f940a821 	ldr	x1, [x1, #336]
    1644:	b9000020 	str	w0, [x1]
/home/ssysarch/Desktop/nick/jetpack_5/Jetson_Linux_R35.4.1_aarch64/Linux_for_Tegra/sources/tegra/optee-src/nv-optee/optee/optee_os/lib/libutils/ext/trace.c:29
    1648:	d65f03c0 	ret

000000000000164c <trace_get_level>:
trace_get_level():
/home/ssysarch/Desktop/nick/jetpack_5/Jetson_Linux_R35.4.1_aarch64/Linux_for_Tegra/sources/tegra/optee-src/nv-optee/optee/optee_os/lib/libutils/ext/trace.c:33
    164c:	b0000080 	adrp	x0, 12000 <_DYNAMIC>
/home/ssysarch/Desktop/nick/jetpack_5/Jetson_Linux_R35.4.1_aarch64/Linux_for_Tegra/sources/tegra/optee-src/nv-optee/optee/optee_os/lib/libutils/ext/trace.c:34
    1650:	f940a800 	ldr	x0, [x0, #336]
    1654:	b9400000 	ldr	w0, [x0]
    1658:	d65f03c0 	ret

000000000000165c <trace_vprintf>:
trace_vprintf():
/home/ssysarch/Desktop/nick/jetpack_5/Jetson_Linux_R35.4.1_aarch64/Linux_for_Tegra/sources/tegra/optee-src/nv-optee/optee/optee_os/lib/libutils/ext/trace.c:113
    165c:	a9a77bfd 	stp	x29, x30, [sp, #-400]!
    1660:	910003fd 	mov	x29, sp
    1664:	a9046bf9 	stp	x25, x26, [sp, #64]
    1668:	2a0103f9 	mov	w25, w1
    166c:	b0000081 	adrp	x1, 12000 <_DYNAMIC>
    1670:	a9025bf5 	stp	x21, x22, [sp, #32]
    1674:	aa0003f6 	mov	x22, x0
    1678:	aa0103f5 	mov	x21, x1
    167c:	f9409820 	ldr	x0, [x1, #304]
    1680:	a90153f3 	stp	x19, x20, [sp, #16]
    1684:	2a0203f3 	mov	w19, w2
    1688:	f9400002 	ldr	x2, [x0]
    168c:	f900c7e2 	str	x2, [sp, #392]
    1690:	d2800002 	mov	x2, #0x0                   	// #0
    1694:	a90363f7 	stp	x23, x24, [sp, #48]
    1698:	aa0403f7 	mov	x23, x4
    169c:	a90573fb 	stp	x27, x28, [sp, #80]
    16a0:	aa0503f8 	mov	x24, x5
/home/ssysarch/Desktop/nick/jetpack_5/Jetson_Linux_R35.4.1_aarch64/Linux_for_Tegra/sources/tegra/optee-src/nv-optee/optee/optee_os/lib/libutils/ext/trace.c:118
    16a4:	72001c7b 	ands	w27, w3, #0xff
    16a8:	54000b20 	b.eq	180c <trace_vprintf+0x1b0>  // b.none
/home/ssysarch/Desktop/nick/jetpack_5/Jetson_Linux_R35.4.1_aarch64/Linux_for_Tegra/sources/tegra/optee-src/nv-optee/optee/optee_os/lib/libutils/ext/trace.c:118 (discriminator 1)
    16ac:	f940a820 	ldr	x0, [x1, #336]
    16b0:	b9400000 	ldr	w0, [x0]
    16b4:	6b13001f 	cmp	w0, w19
    16b8:	540009cb 	b.lt	17f0 <trace_vprintf+0x194>  // b.tstop
trace_level_to_string():
/home/ssysarch/Desktop/nick/jetpack_5/Jetson_Linux_R35.4.1_aarch64/Linux_for_Tegra/sources/tegra/optee-src/nv-optee/optee/optee_os/lib/libutils/ext/trace.c:51
    16bc:	7100127f 	cmp	w19, #0x4
/home/ssysarch/Desktop/nick/jetpack_5/Jetson_Linux_R35.4.1_aarch64/Linux_for_Tegra/sources/tegra/optee-src/nv-optee/optee/optee_os/lib/libutils/ext/trace.c:54
    16c0:	f0000060 	adrp	x0, 10000 <__text_end+0x28b0>
    16c4:	9133d000 	add	x0, x0, #0xcf4
/home/ssysarch/Desktop/nick/jetpack_5/Jetson_Linux_R35.4.1_aarch64/Linux_for_Tegra/sources/tegra/optee-src/nv-optee/optee/optee_os/lib/libutils/ext/trace.c:51
    16c8:	1a9f9261 	csel	w1, w19, wzr, ls  // ls = plast
/home/ssysarch/Desktop/nick/jetpack_5/Jetson_Linux_R35.4.1_aarch64/Linux_for_Tegra/sources/tegra/optee-src/nv-optee/optee/optee_os/lib/libutils/ext/trace.c:54
    16cc:	3861c803 	ldrb	w3, [x0, w1, sxtw]
trace_vprintf():
/home/ssysarch/Desktop/nick/jetpack_5/Jetson_Linux_R35.4.1_aarch64/Linux_for_Tegra/sources/tegra/optee-src/nv-optee/optee/optee_os/lib/libutils/ext/trace.c:122
    16d0:	910223f4 	add	x20, sp, #0x88
    16d4:	f0000062 	adrp	x2, 10000 <__text_end+0x28b0>
    16d8:	9132e842 	add	x2, x2, #0xcba
    16dc:	aa1403e0 	mov	x0, x20
    16e0:	d2802001 	mov	x1, #0x100                 	// #256
    16e4:	94000149 	bl	1c08 <snprintk>
/home/ssysarch/Desktop/nick/jetpack_5/Jetson_Linux_R35.4.1_aarch64/Linux_for_Tegra/sources/tegra/optee-src/nv-optee/optee/optee_os/lib/libutils/ext/trace.c:124
    16e8:	37f80840 	tbnz	w0, #31, 17f0 <trace_vprintf+0x194>
/home/ssysarch/Desktop/nick/jetpack_5/Jetson_Linux_R35.4.1_aarch64/Linux_for_Tegra/sources/tegra/optee-src/nv-optee/optee/optee_os/lib/libutils/ext/trace.c:129
    16ec:	f940b2a3 	ldr	x3, [x21, #352]
    16f0:	d280201c 	mov	x28, #0x100                 	// #256
/home/ssysarch/Desktop/nick/jetpack_5/Jetson_Linux_R35.4.1_aarch64/Linux_for_Tegra/sources/tegra/optee-src/nv-optee/optee/optee_os/lib/libutils/ext/trace.c:126
    16f4:	93407c1a 	sxtw	x26, w0
/home/ssysarch/Desktop/nick/jetpack_5/Jetson_Linux_R35.4.1_aarch64/Linux_for_Tegra/sources/tegra/optee-src/nv-optee/optee/optee_os/lib/libutils/ext/trace.c:129
    16f8:	cb20c381 	sub	x1, x28, w0, sxtw
    16fc:	f0000062 	adrp	x2, 10000 <__text_end+0x28b0>
    1700:	9132f842 	add	x2, x2, #0xcbe
    1704:	8b20c280 	add	x0, x20, w0, sxtw
    1708:	94000140 	bl	1c08 <snprintk>
/home/ssysarch/Desktop/nick/jetpack_5/Jetson_Linux_R35.4.1_aarch64/Linux_for_Tegra/sources/tegra/optee-src/nv-optee/optee/optee_os/lib/libutils/ext/trace.c:131
    170c:	37f80720 	tbnz	w0, #31, 17f0 <trace_vprintf+0x194>
/home/ssysarch/Desktop/nick/jetpack_5/Jetson_Linux_R35.4.1_aarch64/Linux_for_Tegra/sources/tegra/optee-src/nv-optee/optee/optee_os/lib/libutils/ext/trace.c:133
    1710:	8b20c35a 	add	x26, x26, w0, sxtw
/home/ssysarch/Desktop/nick/jetpack_5/Jetson_Linux_R35.4.1_aarch64/Linux_for_Tegra/sources/tegra/optee-src/nv-optee/optee/optee_os/lib/libutils/ext/trace.c:135
    1714:	3400093b 	cbz	w27, 1838 <trace_vprintf+0x1dc>
/home/ssysarch/Desktop/nick/jetpack_5/Jetson_Linux_R35.4.1_aarch64/Linux_for_Tegra/sources/tegra/optee-src/nv-optee/optee/optee_os/lib/libutils/ext/trace.c:135 (discriminator 1)
    1718:	52800342 	mov	w2, #0x1a                  	// #26
    171c:	1ad32453 	lsr	w19, w2, w19
    1720:	360008d3 	tbz	w19, #0, 1838 <trace_vprintf+0x1dc>
print_thread_id():
/home/ssysarch/Desktop/nick/jetpack_5/Jetson_Linux_R35.4.1_aarch64/Linux_for_Tegra/sources/tegra/optee-src/nv-optee/optee/optee_os/lib/libutils/ext/trace.c:66
    1724:	940004a9 	bl	29c8 <trace_ext_get_thread_id>
trace_vprintf():
/home/ssysarch/Desktop/nick/jetpack_5/Jetson_Linux_R35.4.1_aarch64/Linux_for_Tegra/sources/tegra/optee-src/nv-optee/optee/optee_os/lib/libutils/ext/trace.c:137
    1728:	8b1a029b 	add	x27, x20, x26
    172c:	cb1a039c 	sub	x28, x28, x26
print_thread_id():
/home/ssysarch/Desktop/nick/jetpack_5/Jetson_Linux_R35.4.1_aarch64/Linux_for_Tegra/sources/tegra/optee-src/nv-optee/optee/optee_os/lib/libutils/ext/trace.c:66
    1730:	2a0003e4 	mov	w4, w0
/home/ssysarch/Desktop/nick/jetpack_5/Jetson_Linux_R35.4.1_aarch64/Linux_for_Tegra/sources/tegra/optee-src/nv-optee/optee/optee_os/lib/libutils/ext/trace.c:68
    1734:	37f80700 	tbnz	w0, #31, 1814 <trace_vprintf+0x1b8>
/home/ssysarch/Desktop/nick/jetpack_5/Jetson_Linux_R35.4.1_aarch64/Linux_for_Tegra/sources/tegra/optee-src/nv-optee/optee/optee_os/lib/libutils/ext/trace.c:69
    1738:	f0000062 	adrp	x2, 10000 <__text_end+0x28b0>
    173c:	91330842 	add	x2, x2, #0xcc2
    1740:	aa1c03e1 	mov	x1, x28
    1744:	aa1b03e0 	mov	x0, x27
    1748:	52800043 	mov	w3, #0x2                   	// #2
    174c:	9400012f 	bl	1c08 <snprintk>
trace_vprintf():
/home/ssysarch/Desktop/nick/jetpack_5/Jetson_Linux_R35.4.1_aarch64/Linux_for_Tegra/sources/tegra/optee-src/nv-optee/optee/optee_os/lib/libutils/ext/trace.c:144
    1750:	37f80500 	tbnz	w0, #31, 17f0 <trace_vprintf+0x194>
/home/ssysarch/Desktop/nick/jetpack_5/Jetson_Linux_R35.4.1_aarch64/Linux_for_Tegra/sources/tegra/optee-src/nv-optee/optee/optee_os/lib/libutils/ext/trace.c:146
    1754:	8b20c353 	add	x19, x26, w0, sxtw
/home/ssysarch/Desktop/nick/jetpack_5/Jetson_Linux_R35.4.1_aarch64/Linux_for_Tegra/sources/tegra/optee-src/nv-optee/optee/optee_os/lib/libutils/ext/trace.c:148
    1758:	b4000176 	cbz	x22, 1784 <trace_vprintf+0x128>
/home/ssysarch/Desktop/nick/jetpack_5/Jetson_Linux_R35.4.1_aarch64/Linux_for_Tegra/sources/tegra/optee-src/nv-optee/optee/optee_os/lib/libutils/ext/trace.c:149
    175c:	f0000062 	adrp	x2, 10000 <__text_end+0x28b0>
    1760:	91333442 	add	x2, x2, #0xccd
    1764:	d2802001 	mov	x1, #0x100                 	// #256
    1768:	2a1903e4 	mov	w4, w25
    176c:	aa1603e3 	mov	x3, x22
    1770:	cb130021 	sub	x1, x1, x19
    1774:	8b130280 	add	x0, x20, x19
    1778:	94000124 	bl	1c08 <snprintk>
/home/ssysarch/Desktop/nick/jetpack_5/Jetson_Linux_R35.4.1_aarch64/Linux_for_Tegra/sources/tegra/optee-src/nv-optee/optee/optee_os/lib/libutils/ext/trace.c:151
    177c:	37f803a0 	tbnz	w0, #31, 17f0 <trace_vprintf+0x194>
/home/ssysarch/Desktop/nick/jetpack_5/Jetson_Linux_R35.4.1_aarch64/Linux_for_Tegra/sources/tegra/optee-src/nv-optee/optee/optee_os/lib/libutils/ext/trace.c:153
    1780:	8b20c273 	add	x19, x19, w0, sxtw
/home/ssysarch/Desktop/nick/jetpack_5/Jetson_Linux_R35.4.1_aarch64/Linux_for_Tegra/sources/tegra/optee-src/nv-optee/optee/optee_os/lib/libutils/ext/trace.c:163
    1784:	910183e3 	add	x3, sp, #0x60
    1788:	aa1803e1 	mov	x1, x24
    178c:	aa0303e0 	mov	x0, x3
    1790:	d2800402 	mov	x2, #0x20                  	// #32
    1794:	97fffa23 	bl	20 <memcpy>
    1798:	aa0003e3 	mov	x3, x0
    179c:	aa1703e2 	mov	x2, x23
    17a0:	8b130280 	add	x0, x20, x19
    17a4:	d2802001 	mov	x1, #0x100                 	// #256
    17a8:	cb130021 	sub	x1, x1, x19
    17ac:	94000101 	bl	1bb0 <vsnprintk>
/home/ssysarch/Desktop/nick/jetpack_5/Jetson_Linux_R35.4.1_aarch64/Linux_for_Tegra/sources/tegra/optee-src/nv-optee/optee/optee_os/lib/libutils/ext/trace.c:164
    17b0:	7100001f 	cmp	w0, #0x0
    17b4:	5400004d 	b.le	17bc <trace_vprintf+0x160>
/home/ssysarch/Desktop/nick/jetpack_5/Jetson_Linux_R35.4.1_aarch64/Linux_for_Tegra/sources/tegra/optee-src/nv-optee/optee/optee_os/lib/libutils/ext/trace.c:165
    17b8:	8b20c273 	add	x19, x19, w0, sxtw
/home/ssysarch/Desktop/nick/jetpack_5/Jetson_Linux_R35.4.1_aarch64/Linux_for_Tegra/sources/tegra/optee-src/nv-optee/optee/optee_os/lib/libutils/ext/trace.c:167
    17bc:	f103fa7f 	cmp	x19, #0xfe
    17c0:	d2801fc0 	mov	x0, #0xfe                  	// #254
    17c4:	9a809273 	csel	x19, x19, x0, ls  // ls = plast
/home/ssysarch/Desktop/nick/jetpack_5/Jetson_Linux_R35.4.1_aarch64/Linux_for_Tegra/sources/tegra/optee-src/nv-optee/optee/optee_os/lib/libutils/ext/trace.c:170
    17c8:	52800140 	mov	w0, #0xa                   	// #10
    17cc:	38336a80 	strb	w0, [x20, x19]
/home/ssysarch/Desktop/nick/jetpack_5/Jetson_Linux_R35.4.1_aarch64/Linux_for_Tegra/sources/tegra/optee-src/nv-optee/optee/optee_os/lib/libutils/ext/trace.c:171
    17d0:	b4000093 	cbz	x19, 17e0 <trace_vprintf+0x184>
/home/ssysarch/Desktop/nick/jetpack_5/Jetson_Linux_R35.4.1_aarch64/Linux_for_Tegra/sources/tegra/optee-src/nv-optee/optee/optee_os/lib/libutils/ext/trace.c:171 (discriminator 1)
    17d4:	38736a80 	ldrb	w0, [x20, x19]
    17d8:	7100281f 	cmp	w0, #0xa
    17dc:	540003c0 	b.eq	1854 <trace_vprintf+0x1f8>  // b.none
/home/ssysarch/Desktop/nick/jetpack_5/Jetson_Linux_R35.4.1_aarch64/Linux_for_Tegra/sources/tegra/optee-src/nv-optee/optee/optee_os/lib/libutils/ext/trace.c:174
    17e0:	91022be0 	add	x0, sp, #0x8a
    17e4:	3833681f 	strb	wzr, [x0, x19]
/home/ssysarch/Desktop/nick/jetpack_5/Jetson_Linux_R35.4.1_aarch64/Linux_for_Tegra/sources/tegra/optee-src/nv-optee/optee/optee_os/lib/libutils/ext/trace.c:176
    17e8:	aa1403e0 	mov	x0, x20
    17ec:	9400046d 	bl	29a0 <trace_ext_puts>
/home/ssysarch/Desktop/nick/jetpack_5/Jetson_Linux_R35.4.1_aarch64/Linux_for_Tegra/sources/tegra/optee-src/nv-optee/optee/optee_os/lib/libutils/ext/trace.c:177
    17f0:	f9409ab5 	ldr	x21, [x21, #304]
    17f4:	f940c7e0 	ldr	x0, [sp, #392]
    17f8:	f94002a1 	ldr	x1, [x21]
    17fc:	eb010000 	subs	x0, x0, x1
    1800:	d2800001 	mov	x1, #0x0                   	// #0
    1804:	540002c0 	b.eq	185c <trace_vprintf+0x200>  // b.none
    1808:	97ffff16 	bl	1460 <__stack_chk_fail>
trace_level_to_string():
/home/ssysarch/Desktop/nick/jetpack_5/Jetson_Linux_R35.4.1_aarch64/Linux_for_Tegra/sources/tegra/optee-src/nv-optee/optee/optee_os/lib/libutils/ext/trace.c:49
    180c:	528009a3 	mov	w3, #0x4d                  	// #77
    1810:	17ffffb0 	b	16d0 <trace_vprintf+0x74>
print_thread_id():
/home/ssysarch/Desktop/nick/jetpack_5/Jetson_Linux_R35.4.1_aarch64/Linux_for_Tegra/sources/tegra/optee-src/nv-optee/optee/optee_os/lib/libutils/ext/trace.c:71
    1814:	aa1c03e1 	mov	x1, x28
    1818:	aa1b03e0 	mov	x0, x27
    181c:	90000084 	adrp	x4, 11000 <__func__.5696+0x1f>
    1820:	91191484 	add	x4, x4, #0x645
    1824:	52800043 	mov	w3, #0x2                   	// #2
    1828:	f0000062 	adrp	x2, 10000 <__text_end+0x28b0>
    182c:	91332042 	add	x2, x2, #0xcc8
    1830:	940000f6 	bl	1c08 <snprintk>
    1834:	17ffffc7 	b	1750 <trace_vprintf+0xf4>
trace_vprintf():
/home/ssysarch/Desktop/nick/jetpack_5/Jetson_Linux_R35.4.1_aarch64/Linux_for_Tegra/sources/tegra/optee-src/nv-optee/optee/optee_os/lib/libutils/ext/trace.c:157
    1838:	f103fb5f 	cmp	x26, #0xfe
    183c:	54fffda8 	b.hi	17f0 <trace_vprintf+0x194>  // b.pmore
/home/ssysarch/Desktop/nick/jetpack_5/Jetson_Linux_R35.4.1_aarch64/Linux_for_Tegra/sources/tegra/optee-src/nv-optee/optee/optee_os/lib/libutils/ext/trace.c:159
    1840:	91000753 	add	x19, x26, #0x1
    1844:	52800400 	mov	w0, #0x20                  	// #32
    1848:	383a6a80 	strb	w0, [x20, x26]
/home/ssysarch/Desktop/nick/jetpack_5/Jetson_Linux_R35.4.1_aarch64/Linux_for_Tegra/sources/tegra/optee-src/nv-optee/optee/optee_os/lib/libutils/ext/trace.c:160
    184c:	38336a9f 	strb	wzr, [x20, x19]
    1850:	17ffffcd 	b	1784 <trace_vprintf+0x128>
/home/ssysarch/Desktop/nick/jetpack_5/Jetson_Linux_R35.4.1_aarch64/Linux_for_Tegra/sources/tegra/optee-src/nv-optee/optee/optee_os/lib/libutils/ext/trace.c:172
    1854:	d1000673 	sub	x19, x19, #0x1
    1858:	17ffffde 	b	17d0 <trace_vprintf+0x174>
/home/ssysarch/Desktop/nick/jetpack_5/Jetson_Linux_R35.4.1_aarch64/Linux_for_Tegra/sources/tegra/optee-src/nv-optee/optee/optee_os/lib/libutils/ext/trace.c:177
    185c:	a94153f3 	ldp	x19, x20, [sp, #16]
    1860:	a9425bf5 	ldp	x21, x22, [sp, #32]
    1864:	a94363f7 	ldp	x23, x24, [sp, #48]
    1868:	a9446bf9 	ldp	x25, x26, [sp, #64]
    186c:	a94573fb 	ldp	x27, x28, [sp, #80]
    1870:	a8d97bfd 	ldp	x29, x30, [sp], #400
    1874:	d65f03c0 	ret

0000000000001878 <trace_printf>:
trace_printf():
/home/ssysarch/Desktop/nick/jetpack_5/Jetson_Linux_R35.4.1_aarch64/Linux_for_Tegra/sources/tegra/optee-src/nv-optee/optee/optee_os/lib/libutils/ext/trace.c:104
    1878:	a9ad7bfd 	stp	x29, x30, [sp, #-304]!
    187c:	910003fd 	mov	x29, sp
    1880:	a90153f3 	stp	x19, x20, [sp, #16]
    1884:	b0000093 	adrp	x19, 12000 <_DYNAMIC>
    1888:	aa0003f4 	mov	x20, x0
    188c:	f9409a73 	ldr	x19, [x19, #304]
    1890:	3d8027e0 	str	q0, [sp, #144]
    1894:	3d802be1 	str	q1, [sp, #160]
    1898:	3d802fe2 	str	q2, [sp, #176]
    189c:	3d8033e3 	str	q3, [sp, #192]
    18a0:	3d8037e4 	str	q4, [sp, #208]
    18a4:	3d803be5 	str	q5, [sp, #224]
    18a8:	3d803fe6 	str	q6, [sp, #240]
    18ac:	3d8043e7 	str	q7, [sp, #256]
    18b0:	a9119be5 	stp	x5, x6, [sp, #280]
/home/ssysarch/Desktop/nick/jetpack_5/Jetson_Linux_R35.4.1_aarch64/Linux_for_Tegra/sources/tegra/optee-src/nv-optee/optee/optee_os/lib/libutils/ext/trace.c:108
    18b4:	910103e5 	add	x5, sp, #0x40
/home/ssysarch/Desktop/nick/jetpack_5/Jetson_Linux_R35.4.1_aarch64/Linux_for_Tegra/sources/tegra/optee-src/nv-optee/optee/optee_os/lib/libutils/ext/trace.c:104
    18b8:	f90097e7 	str	x7, [sp, #296]
    18bc:	a9025bf5 	stp	x21, x22, [sp, #32]
    18c0:	2a0103f5 	mov	w21, w1
    18c4:	f9400260 	ldr	x0, [x19]
    18c8:	f90047e0 	str	x0, [sp, #136]
    18cc:	d2800000 	mov	x0, #0x0                   	// #0
/home/ssysarch/Desktop/nick/jetpack_5/Jetson_Linux_R35.4.1_aarch64/Linux_for_Tegra/sources/tegra/optee-src/nv-optee/optee/optee_os/lib/libutils/ext/trace.c:107
    18d0:	9104c3e0 	add	x0, sp, #0x130
    18d4:	a90683e0 	stp	x0, x0, [sp, #104]
    18d8:	910443e0 	add	x0, sp, #0x110
    18dc:	f9003fe0 	str	x0, [sp, #120]
    18e0:	128002e0 	mov	w0, #0xffffffe8            	// #-24
    18e4:	b90083e0 	str	w0, [sp, #128]
    18e8:	12800fe0 	mov	w0, #0xffffff80            	// #-128
/home/ssysarch/Desktop/nick/jetpack_5/Jetson_Linux_R35.4.1_aarch64/Linux_for_Tegra/sources/tegra/optee-src/nv-optee/optee/optee_os/lib/libutils/ext/trace.c:104
    18ec:	2a0203f6 	mov	w22, w2
/home/ssysarch/Desktop/nick/jetpack_5/Jetson_Linux_R35.4.1_aarch64/Linux_for_Tegra/sources/tegra/optee-src/nv-optee/optee/optee_os/lib/libutils/ext/trace.c:108
    18f0:	9101a3e1 	add	x1, sp, #0x68
    18f4:	d2800402 	mov	x2, #0x20                  	// #32
/home/ssysarch/Desktop/nick/jetpack_5/Jetson_Linux_R35.4.1_aarch64/Linux_for_Tegra/sources/tegra/optee-src/nv-optee/optee/optee_os/lib/libutils/ext/trace.c:104
    18f8:	a90363f7 	stp	x23, x24, [sp, #48]
    18fc:	12001c78 	and	w24, w3, #0xff
    1900:	aa0403f7 	mov	x23, x4
/home/ssysarch/Desktop/nick/jetpack_5/Jetson_Linux_R35.4.1_aarch64/Linux_for_Tegra/sources/tegra/optee-src/nv-optee/optee/optee_os/lib/libutils/ext/trace.c:107
    1904:	b90087e0 	str	w0, [sp, #132]
/home/ssysarch/Desktop/nick/jetpack_5/Jetson_Linux_R35.4.1_aarch64/Linux_for_Tegra/sources/tegra/optee-src/nv-optee/optee/optee_os/lib/libutils/ext/trace.c:108
    1908:	aa0503e0 	mov	x0, x5
    190c:	97fff9c5 	bl	20 <memcpy>
    1910:	2a1503e1 	mov	w1, w21
    1914:	aa0003e5 	mov	x5, x0
    1918:	aa1703e4 	mov	x4, x23
    191c:	aa1403e0 	mov	x0, x20
    1920:	2a1803e3 	mov	w3, w24
    1924:	2a1603e2 	mov	w2, w22
    1928:	97ffff4d 	bl	165c <trace_vprintf>
/home/ssysarch/Desktop/nick/jetpack_5/Jetson_Linux_R35.4.1_aarch64/Linux_for_Tegra/sources/tegra/optee-src/nv-optee/optee/optee_os/lib/libutils/ext/trace.c:110
    192c:	f94047e0 	ldr	x0, [sp, #136]
    1930:	f9400261 	ldr	x1, [x19]
    1934:	eb010000 	subs	x0, x0, x1
    1938:	d2800001 	mov	x1, #0x0                   	// #0
    193c:	54000040 	b.eq	1944 <trace_printf+0xcc>  // b.none
    1940:	97fffec8 	bl	1460 <__stack_chk_fail>
    1944:	a94153f3 	ldp	x19, x20, [sp, #16]
    1948:	a9425bf5 	ldp	x21, x22, [sp, #32]
    194c:	a94363f7 	ldp	x23, x24, [sp, #48]
    1950:	a8d37bfd 	ldp	x29, x30, [sp], #304
    1954:	d65f03c0 	ret

0000000000001958 <dhex_dump>:
dhex_dump():
/home/ssysarch/Desktop/nick/jetpack_5/Jetson_Linux_R35.4.1_aarch64/Linux_for_Tegra/sources/tegra/optee-src/nv-optee/optee/optee_os/lib/libutils/ext/trace.c:236
    1958:	a9a97bfd 	stp	x29, x30, [sp, #-368]!
    195c:	b0000085 	adrp	x5, 12000 <_DYNAMIC>
    1960:	910003fd 	mov	x29, sp
    1964:	a9025bf5 	stp	x21, x22, [sp, #32]
    1968:	aa0003f5 	mov	x21, x0
    196c:	2a0103f6 	mov	w22, w1
    1970:	f94098a0 	ldr	x0, [x5, #304]
    1974:	a90153f3 	stp	x19, x20, [sp, #16]
/home/ssysarch/Desktop/nick/jetpack_5/Jetson_Linux_R35.4.1_aarch64/Linux_for_Tegra/sources/tegra/optee-src/nv-optee/optee/optee_os/lib/libutils/ext/trace.c:242
    1978:	f940a8a5 	ldr	x5, [x5, #336]
/home/ssysarch/Desktop/nick/jetpack_5/Jetson_Linux_R35.4.1_aarch64/Linux_for_Tegra/sources/tegra/optee-src/nv-optee/optee/optee_os/lib/libutils/ext/trace.c:236
    197c:	f9400001 	ldr	x1, [x0]
    1980:	f900b7e1 	str	x1, [sp, #360]
    1984:	d2800001 	mov	x1, #0x0                   	// #0
    1988:	a90363f7 	stp	x23, x24, [sp, #48]
/home/ssysarch/Desktop/nick/jetpack_5/Jetson_Linux_R35.4.1_aarch64/Linux_for_Tegra/sources/tegra/optee-src/nv-optee/optee/optee_os/lib/libutils/ext/trace.c:242
    198c:	b94000a0 	ldr	w0, [x5]
/home/ssysarch/Desktop/nick/jetpack_5/Jetson_Linux_R35.4.1_aarch64/Linux_for_Tegra/sources/tegra/optee-src/nv-optee/optee/optee_os/lib/libutils/ext/trace.c:236
    1990:	a9046bf9 	stp	x25, x26, [sp, #64]
/home/ssysarch/Desktop/nick/jetpack_5/Jetson_Linux_R35.4.1_aarch64/Linux_for_Tegra/sources/tegra/optee-src/nv-optee/optee/optee_os/lib/libutils/ext/trace.c:242
    1994:	6b02001f 	cmp	w0, w2
/home/ssysarch/Desktop/nick/jetpack_5/Jetson_Linux_R35.4.1_aarch64/Linux_for_Tegra/sources/tegra/optee-src/nv-optee/optee/optee_os/lib/libutils/ext/trace.c:236
    1998:	a90573fb 	stp	x27, x28, [sp, #80]
/home/ssysarch/Desktop/nick/jetpack_5/Jetson_Linux_R35.4.1_aarch64/Linux_for_Tegra/sources/tegra/optee-src/nv-optee/optee/optee_os/lib/libutils/ext/trace.c:242
    199c:	5400030b 	b.lt	19fc <dhex_dump+0xa4>  // b.tstop
/home/ssysarch/Desktop/nick/jetpack_5/Jetson_Linux_R35.4.1_aarch64/Linux_for_Tegra/sources/tegra/optee-src/nv-optee/optee/optee_os/lib/libutils/ext/trace.c:246
    19a0:	f000007a 	adrp	x26, 10000 <__text_end+0x28b0>
    19a4:	91336b5a 	add	x26, x26, #0xcda
/home/ssysarch/Desktop/nick/jetpack_5/Jetson_Linux_R35.4.1_aarch64/Linux_for_Tegra/sources/tegra/optee-src/nv-optee/optee/optee_os/lib/libutils/ext/trace.c:251
    19a8:	f000007b 	adrp	x27, 10000 <__text_end+0x28b0>
    19ac:	9133537b 	add	x27, x27, #0xcd4
    19b0:	2a0203f4 	mov	w20, w2
    19b4:	aa0303f8 	mov	x24, x3
    19b8:	2a0403f9 	mov	w25, w4
/home/ssysarch/Desktop/nick/jetpack_5/Jetson_Linux_R35.4.1_aarch64/Linux_for_Tegra/sources/tegra/optee-src/nv-optee/optee/optee_os/lib/libutils/ext/trace.c:243
    19bc:	910183f7 	add	x23, sp, #0x60
/home/ssysarch/Desktop/nick/jetpack_5/Jetson_Linux_R35.4.1_aarch64/Linux_for_Tegra/sources/tegra/optee-src/nv-optee/optee/optee_os/lib/libutils/ext/trace.c:244
    19c0:	d2800013 	mov	x19, #0x0                   	// #0
/home/ssysarch/Desktop/nick/jetpack_5/Jetson_Linux_R35.4.1_aarch64/Linux_for_Tegra/sources/tegra/optee-src/nv-optee/optee/optee_os/lib/libutils/ext/trace.c:243
    19c4:	f900b3ff 	str	xzr, [sp, #352]
/home/ssysarch/Desktop/nick/jetpack_5/Jetson_Linux_R35.4.1_aarch64/Linux_for_Tegra/sources/tegra/optee-src/nv-optee/optee/optee_os/lib/libutils/ext/trace.c:244
    19c8:	2a1303fc 	mov	w28, w19
/home/ssysarch/Desktop/nick/jetpack_5/Jetson_Linux_R35.4.1_aarch64/Linux_for_Tegra/sources/tegra/optee-src/nv-optee/optee/optee_os/lib/libutils/ext/trace.c:244 (discriminator 1)
    19cc:	6b13033f 	cmp	w25, w19
    19d0:	5400026c 	b.gt	1a1c <dhex_dump+0xc4>
/home/ssysarch/Desktop/nick/jetpack_5/Jetson_Linux_R35.4.1_aarch64/Linux_for_Tegra/sources/tegra/optee-src/nv-optee/optee/optee_os/lib/libutils/ext/trace.c:264
    19d4:	f940b3e0 	ldr	x0, [sp, #352]
    19d8:	b4000120 	cbz	x0, 19fc <dhex_dump+0xa4>
/home/ssysarch/Desktop/nick/jetpack_5/Jetson_Linux_R35.4.1_aarch64/Linux_for_Tegra/sources/tegra/optee-src/nv-optee/optee/optee_os/lib/libutils/ext/trace.c:266
    19dc:	f0000064 	adrp	x4, 10000 <__text_end+0x28b0>
    19e0:	91338884 	add	x4, x4, #0xce2
    19e4:	910183e5 	add	x5, sp, #0x60
    19e8:	2a1403e2 	mov	w2, w20
    19ec:	2a1603e1 	mov	w1, w22
    19f0:	aa1503e0 	mov	x0, x21
    19f4:	52800023 	mov	w3, #0x1                   	// #1
    19f8:	97ffffa0 	bl	1878 <trace_printf>
/home/ssysarch/Desktop/nick/jetpack_5/Jetson_Linux_R35.4.1_aarch64/Linux_for_Tegra/sources/tegra/optee-src/nv-optee/optee/optee_os/lib/libutils/ext/trace.c:274
    19fc:	b0000085 	adrp	x5, 12000 <_DYNAMIC>
    1a00:	f94098a5 	ldr	x5, [x5, #304]
    1a04:	f940b7e0 	ldr	x0, [sp, #360]
    1a08:	f94000a1 	ldr	x1, [x5]
    1a0c:	eb010000 	subs	x0, x0, x1
    1a10:	d2800001 	mov	x1, #0x0                   	// #0
    1a14:	54000600 	b.eq	1ad4 <dhex_dump+0x17c>  // b.none
    1a18:	97fffe92 	bl	1460 <__stack_chk_fail>
/home/ssysarch/Desktop/nick/jetpack_5/Jetson_Linux_R35.4.1_aarch64/Linux_for_Tegra/sources/tegra/optee-src/nv-optee/optee/optee_os/lib/libutils/ext/trace.c:245
    1a1c:	f2400e7f 	tst	x19, #0xf
    1a20:	54000200 	b.eq	1a60 <dhex_dump+0x108>  // b.none
/home/ssysarch/Desktop/nick/jetpack_5/Jetson_Linux_R35.4.1_aarch64/Linux_for_Tegra/sources/tegra/optee-src/nv-optee/optee/optee_os/lib/libutils/ext/trace.c:251
    1a24:	38736b02 	ldrb	w2, [x24, x19]
    1a28:	aa1b03e1 	mov	x1, x27
    1a2c:	aa1703e0 	mov	x0, x23
    1a30:	97fffebd 	bl	1524 <append>
/home/ssysarch/Desktop/nick/jetpack_5/Jetson_Linux_R35.4.1_aarch64/Linux_for_Tegra/sources/tegra/optee-src/nv-optee/optee/optee_os/lib/libutils/ext/trace.c:252
    1a34:	35000240 	cbnz	w0, 1a7c <dhex_dump+0x124>
/home/ssysarch/Desktop/nick/jetpack_5/Jetson_Linux_R35.4.1_aarch64/Linux_for_Tegra/sources/tegra/optee-src/nv-optee/optee/optee_os/lib/libutils/ext/trace.c:273
    1a38:	f0000060 	adrp	x0, 10000 <__text_end+0x28b0>
    1a3c:	9133d000 	add	x0, x0, #0xcf4
    1a40:	91001400 	add	x0, x0, #0x5
    1a44:	f0000064 	adrp	x4, 10000 <__text_end+0x28b0>
    1a48:	91339484 	add	x4, x4, #0xce5
    1a4c:	52800023 	mov	w3, #0x1                   	// #1
    1a50:	52800062 	mov	w2, #0x3                   	// #3
    1a54:	52802221 	mov	w1, #0x111                 	// #273
    1a58:	97ffff88 	bl	1878 <trace_printf>
    1a5c:	17ffffe8 	b	19fc <dhex_dump+0xa4>
/home/ssysarch/Desktop/nick/jetpack_5/Jetson_Linux_R35.4.1_aarch64/Linux_for_Tegra/sources/tegra/optee-src/nv-optee/optee/optee_os/lib/libutils/ext/trace.c:246
    1a60:	8b130303 	add	x3, x24, x19
    1a64:	aa1a03e1 	mov	x1, x26
    1a68:	aa1703e0 	mov	x0, x23
    1a6c:	52800202 	mov	w2, #0x10                  	// #16
    1a70:	97fffead 	bl	1524 <append>
/home/ssysarch/Desktop/nick/jetpack_5/Jetson_Linux_R35.4.1_aarch64/Linux_for_Tegra/sources/tegra/optee-src/nv-optee/optee/optee_os/lib/libutils/ext/trace.c:248
    1a74:	35fffd80 	cbnz	w0, 1a24 <dhex_dump+0xcc>
    1a78:	17fffff0 	b	1a38 <dhex_dump+0xe0>
/home/ssysarch/Desktop/nick/jetpack_5/Jetson_Linux_R35.4.1_aarch64/Linux_for_Tegra/sources/tegra/optee-src/nv-optee/optee/optee_os/lib/libutils/ext/trace.c:254
    1a7c:	12000f80 	and	w0, w28, #0xf
    1a80:	71001c1f 	cmp	w0, #0x7
    1a84:	54000101 	b.ne	1aa4 <dhex_dump+0x14c>  // b.any
/home/ssysarch/Desktop/nick/jetpack_5/Jetson_Linux_R35.4.1_aarch64/Linux_for_Tegra/sources/tegra/optee-src/nv-optee/optee/optee_os/lib/libutils/ext/trace.c:255
    1a88:	f0000061 	adrp	x1, 10000 <__text_end+0x28b0>
    1a8c:	91338021 	add	x1, x1, #0xce0
    1a90:	aa1703e0 	mov	x0, x23
    1a94:	97fffea4 	bl	1524 <append>
/home/ssysarch/Desktop/nick/jetpack_5/Jetson_Linux_R35.4.1_aarch64/Linux_for_Tegra/sources/tegra/optee-src/nv-optee/optee/optee_os/lib/libutils/ext/trace.c:256
    1a98:	34fffd00 	cbz	w0, 1a38 <dhex_dump+0xe0>
/home/ssysarch/Desktop/nick/jetpack_5/Jetson_Linux_R35.4.1_aarch64/Linux_for_Tegra/sources/tegra/optee-src/nv-optee/optee/optee_os/lib/libutils/ext/trace.c:244 (discriminator 2)
    1a9c:	91000673 	add	x19, x19, #0x1
    1aa0:	17ffffca 	b	19c8 <dhex_dump+0x70>
/home/ssysarch/Desktop/nick/jetpack_5/Jetson_Linux_R35.4.1_aarch64/Linux_for_Tegra/sources/tegra/optee-src/nv-optee/optee/optee_os/lib/libutils/ext/trace.c:258
    1aa4:	71003c1f 	cmp	w0, #0xf
    1aa8:	54ffffa1 	b.ne	1a9c <dhex_dump+0x144>  // b.any
/home/ssysarch/Desktop/nick/jetpack_5/Jetson_Linux_R35.4.1_aarch64/Linux_for_Tegra/sources/tegra/optee-src/nv-optee/optee/optee_os/lib/libutils/ext/trace.c:259
    1aac:	aa1703e5 	mov	x5, x23
    1ab0:	2a1403e2 	mov	w2, w20
    1ab4:	2a1603e1 	mov	w1, w22
    1ab8:	aa1503e0 	mov	x0, x21
    1abc:	f0000064 	adrp	x4, 10000 <__text_end+0x28b0>
    1ac0:	91338884 	add	x4, x4, #0xce2
    1ac4:	52800023 	mov	w3, #0x1                   	// #1
    1ac8:	97ffff6c 	bl	1878 <trace_printf>
/home/ssysarch/Desktop/nick/jetpack_5/Jetson_Linux_R35.4.1_aarch64/Linux_for_Tegra/sources/tegra/optee-src/nv-optee/optee/optee_os/lib/libutils/ext/trace.c:261
    1acc:	f900b3ff 	str	xzr, [sp, #352]
    1ad0:	17fffff3 	b	1a9c <dhex_dump+0x144>
/home/ssysarch/Desktop/nick/jetpack_5/Jetson_Linux_R35.4.1_aarch64/Linux_for_Tegra/sources/tegra/optee-src/nv-optee/optee/optee_os/lib/libutils/ext/trace.c:274
    1ad4:	a94153f3 	ldp	x19, x20, [sp, #16]
    1ad8:	a9425bf5 	ldp	x21, x22, [sp, #32]
    1adc:	a94363f7 	ldp	x23, x24, [sp, #48]
    1ae0:	a9446bf9 	ldp	x25, x26, [sp, #64]
    1ae4:	a94573fb 	ldp	x27, x28, [sp, #80]
    1ae8:	a8d77bfd 	ldp	x29, x30, [sp], #368
    1aec:	d65f03c0 	ret

0000000000001af0 <__vsnprintf>:
__vsnprintf():
/home/ssysarch/Desktop/nick/jetpack_5/Jetson_Linux_R35.4.1_aarch64/Linux_for_Tegra/sources/tegra/optee-src/nv-optee/optee/optee_os/lib/libutils/ext/snprintk.c:138
    1af0:	a9b97bfd 	stp	x29, x30, [sp, #-112]!
    1af4:	b0000085 	adrp	x5, 12000 <_DYNAMIC>
    1af8:	910003fd 	mov	x29, sp
    1afc:	f94098a5 	ldr	x5, [x5, #304]
    1b00:	a90153f3 	stp	x19, x20, [sp, #16]
    1b04:	aa0003f3 	mov	x19, x0
    1b08:	aa0103f4 	mov	x20, x1
    1b0c:	f94000a0 	ldr	x0, [x5]
    1b10:	f90037e0 	str	x0, [sp, #104]
    1b14:	d2800000 	mov	x0, #0x0                   	// #0
    1b18:	aa0303e1 	mov	x1, x3
/home/ssysarch/Desktop/nick/jetpack_5/Jetson_Linux_R35.4.1_aarch64/Linux_for_Tegra/sources/tegra/optee-src/nv-optee/optee/optee_os/lib/libutils/ext/snprintk.c:143
    1b1c:	910103e0 	add	x0, sp, #0x40
/home/ssysarch/Desktop/nick/jetpack_5/Jetson_Linux_R35.4.1_aarch64/Linux_for_Tegra/sources/tegra/optee-src/nv-optee/optee/optee_os/lib/libutils/ext/snprintk.c:138
    1b20:	a9025bf5 	stp	x21, x22, [sp, #32]
    1b24:	aa0203f5 	mov	x21, x2
/home/ssysarch/Desktop/nick/jetpack_5/Jetson_Linux_R35.4.1_aarch64/Linux_for_Tegra/sources/tegra/optee-src/nv-optee/optee/optee_os/lib/libutils/ext/snprintk.c:142
    1b28:	8b140276 	add	x22, x19, x20
/home/ssysarch/Desktop/nick/jetpack_5/Jetson_Linux_R35.4.1_aarch64/Linux_for_Tegra/sources/tegra/optee-src/nv-optee/optee/optee_os/lib/libutils/ext/snprintk.c:143
    1b2c:	d2800402 	mov	x2, #0x20                  	// #32
/home/ssysarch/Desktop/nick/jetpack_5/Jetson_Linux_R35.4.1_aarch64/Linux_for_Tegra/sources/tegra/optee-src/nv-optee/optee/optee_os/lib/libutils/ext/snprintk.c:138
    1b30:	f9001bf7 	str	x23, [sp, #48]
    1b34:	12001c97 	and	w23, w4, #0xff
/home/ssysarch/Desktop/nick/jetpack_5/Jetson_Linux_R35.4.1_aarch64/Linux_for_Tegra/sources/tegra/optee-src/nv-optee/optee/optee_os/lib/libutils/ext/snprintk.c:142
    1b38:	f90033f6 	str	x22, [sp, #96]
/home/ssysarch/Desktop/nick/jetpack_5/Jetson_Linux_R35.4.1_aarch64/Linux_for_Tegra/sources/tegra/optee-src/nv-optee/optee/optee_os/lib/libutils/ext/snprintk.c:143
    1b3c:	97fff939 	bl	20 <memcpy>
    1b40:	aa0003e3 	mov	x3, x0
    1b44:	2a1703e4 	mov	w4, w23
    1b48:	aa1303e2 	mov	x2, x19
    1b4c:	910183e1 	add	x1, sp, #0x60
    1b50:	aa1503e0 	mov	x0, x21
    1b54:	94000060 	bl	1cd4 <kprintf.constprop.0>
/home/ssysarch/Desktop/nick/jetpack_5/Jetson_Linux_R35.4.1_aarch64/Linux_for_Tegra/sources/tegra/optee-src/nv-optee/optee/optee_os/lib/libutils/ext/snprintk.c:144
    1b58:	f100027f 	cmp	x19, #0x0
    1b5c:	fa401a84 	ccmp	x20, #0x0, #0x4, ne  // ne = any
    1b60:	540000a0 	b.eq	1b74 <__vsnprintf+0x84>  // b.none
/home/ssysarch/Desktop/nick/jetpack_5/Jetson_Linux_R35.4.1_aarch64/Linux_for_Tegra/sources/tegra/optee-src/nv-optee/optee/optee_os/lib/libutils/ext/snprintk.c:146
    1b64:	93407c01 	sxtw	x1, w0
    1b68:	eb20c29f 	cmp	x20, w0, sxtw
    1b6c:	54000148 	b.hi	1b94 <__vsnprintf+0xa4>  // b.pmore
/home/ssysarch/Desktop/nick/jetpack_5/Jetson_Linux_R35.4.1_aarch64/Linux_for_Tegra/sources/tegra/optee-src/nv-optee/optee/optee_os/lib/libutils/ext/snprintk.c:147
    1b70:	381ff2df 	sturb	wzr, [x22, #-1]
/home/ssysarch/Desktop/nick/jetpack_5/Jetson_Linux_R35.4.1_aarch64/Linux_for_Tegra/sources/tegra/optee-src/nv-optee/optee/optee_os/lib/libutils/ext/snprintk.c:152
    1b74:	b0000085 	adrp	x5, 12000 <_DYNAMIC>
    1b78:	f94098a5 	ldr	x5, [x5, #304]
    1b7c:	f94037e1 	ldr	x1, [sp, #104]
    1b80:	f94000a2 	ldr	x2, [x5]
    1b84:	eb020021 	subs	x1, x1, x2
    1b88:	d2800002 	mov	x2, #0x0                   	// #0
    1b8c:	54000080 	b.eq	1b9c <__vsnprintf+0xac>  // b.none
    1b90:	97fffe34 	bl	1460 <__stack_chk_fail>
/home/ssysarch/Desktop/nick/jetpack_5/Jetson_Linux_R35.4.1_aarch64/Linux_for_Tegra/sources/tegra/optee-src/nv-optee/optee/optee_os/lib/libutils/ext/snprintk.c:149
    1b94:	38216a7f 	strb	wzr, [x19, x1]
/home/ssysarch/Desktop/nick/jetpack_5/Jetson_Linux_R35.4.1_aarch64/Linux_for_Tegra/sources/tegra/optee-src/nv-optee/optee/optee_os/lib/libutils/ext/snprintk.c:151
    1b98:	17fffff7 	b	1b74 <__vsnprintf+0x84>
/home/ssysarch/Desktop/nick/jetpack_5/Jetson_Linux_R35.4.1_aarch64/Linux_for_Tegra/sources/tegra/optee-src/nv-optee/optee/optee_os/lib/libutils/ext/snprintk.c:152
    1b9c:	a94153f3 	ldp	x19, x20, [sp, #16]
    1ba0:	a9425bf5 	ldp	x21, x22, [sp, #32]
    1ba4:	f9401bf7 	ldr	x23, [sp, #48]
    1ba8:	a8c77bfd 	ldp	x29, x30, [sp], #112
    1bac:	d65f03c0 	ret

0000000000001bb0 <vsnprintk>:
vsnprintk():
/home/ssysarch/Desktop/nick/jetpack_5/Jetson_Linux_R35.4.1_aarch64/Linux_for_Tegra/sources/tegra/optee-src/nv-optee/optee/optee_os/lib/libutils/ext/snprintk.c:130
    1bb0:	a9bb7bfd 	stp	x29, x30, [sp, #-80]!
/home/ssysarch/Desktop/nick/jetpack_5/Jetson_Linux_R35.4.1_aarch64/Linux_for_Tegra/sources/tegra/optee-src/nv-optee/optee/optee_os/lib/libutils/ext/snprintk.c:131
    1bb4:	9100c3e4 	add	x4, sp, #0x30
/home/ssysarch/Desktop/nick/jetpack_5/Jetson_Linux_R35.4.1_aarch64/Linux_for_Tegra/sources/tegra/optee-src/nv-optee/optee/optee_os/lib/libutils/ext/snprintk.c:130
    1bb8:	910003fd 	mov	x29, sp
    1bbc:	a90153f3 	stp	x19, x20, [sp, #16]
    1bc0:	aa0003f3 	mov	x19, x0
    1bc4:	aa0103f4 	mov	x20, x1
/home/ssysarch/Desktop/nick/jetpack_5/Jetson_Linux_R35.4.1_aarch64/Linux_for_Tegra/sources/tegra/optee-src/nv-optee/optee/optee_os/lib/libutils/ext/snprintk.c:131
    1bc8:	aa0403e0 	mov	x0, x4
/home/ssysarch/Desktop/nick/jetpack_5/Jetson_Linux_R35.4.1_aarch64/Linux_for_Tegra/sources/tegra/optee-src/nv-optee/optee/optee_os/lib/libutils/ext/snprintk.c:130
    1bcc:	aa0303e1 	mov	x1, x3
    1bd0:	f90013f5 	str	x21, [sp, #32]
    1bd4:	aa0203f5 	mov	x21, x2
/home/ssysarch/Desktop/nick/jetpack_5/Jetson_Linux_R35.4.1_aarch64/Linux_for_Tegra/sources/tegra/optee-src/nv-optee/optee/optee_os/lib/libutils/ext/snprintk.c:131
    1bd8:	d2800402 	mov	x2, #0x20                  	// #32
    1bdc:	97fff911 	bl	20 <memcpy>
    1be0:	aa1503e2 	mov	x2, x21
    1be4:	aa0003e3 	mov	x3, x0
    1be8:	aa1403e1 	mov	x1, x20
    1bec:	aa1303e0 	mov	x0, x19
    1bf0:	52800024 	mov	w4, #0x1                   	// #1
    1bf4:	97ffffbf 	bl	1af0 <__vsnprintf>
/home/ssysarch/Desktop/nick/jetpack_5/Jetson_Linux_R35.4.1_aarch64/Linux_for_Tegra/sources/tegra/optee-src/nv-optee/optee/optee_os/lib/libutils/ext/snprintk.c:132
    1bf8:	a94153f3 	ldp	x19, x20, [sp, #16]
    1bfc:	f94013f5 	ldr	x21, [sp, #32]
    1c00:	a8c57bfd 	ldp	x29, x30, [sp], #80
    1c04:	d65f03c0 	ret

0000000000001c08 <snprintk>:
snprintk():
/home/ssysarch/Desktop/nick/jetpack_5/Jetson_Linux_R35.4.1_aarch64/Linux_for_Tegra/sources/tegra/optee-src/nv-optee/optee/optee_os/lib/libutils/ext/snprintk.c:113
    1c08:	a9ad7bfd 	stp	x29, x30, [sp, #-304]!
    1c0c:	910003fd 	mov	x29, sp
    1c10:	a90153f3 	stp	x19, x20, [sp, #16]
    1c14:	b0000093 	adrp	x19, 12000 <_DYNAMIC>
    1c18:	aa0003f4 	mov	x20, x0
    1c1c:	f9409a73 	ldr	x19, [x19, #304]
    1c20:	3d8023e0 	str	q0, [sp, #128]
    1c24:	3d8027e1 	str	q1, [sp, #144]
    1c28:	3d802be2 	str	q2, [sp, #160]
    1c2c:	3d802fe3 	str	q3, [sp, #176]
    1c30:	3d8033e4 	str	q4, [sp, #192]
    1c34:	3d8037e5 	str	q5, [sp, #208]
    1c38:	3d803be6 	str	q6, [sp, #224]
    1c3c:	3d803fe7 	str	q7, [sp, #240]
    1c40:	a91093e3 	stp	x3, x4, [sp, #264]
/home/ssysarch/Desktop/nick/jetpack_5/Jetson_Linux_R35.4.1_aarch64/Linux_for_Tegra/sources/tegra/optee-src/nv-optee/optee/optee_os/lib/libutils/ext/snprintk.c:118
    1c44:	9100c3e3 	add	x3, sp, #0x30
/home/ssysarch/Desktop/nick/jetpack_5/Jetson_Linux_R35.4.1_aarch64/Linux_for_Tegra/sources/tegra/optee-src/nv-optee/optee/optee_os/lib/libutils/ext/snprintk.c:113
    1c48:	a9119be5 	stp	x5, x6, [sp, #280]
    1c4c:	f90097e7 	str	x7, [sp, #296]
    1c50:	a9025bf5 	stp	x21, x22, [sp, #32]
    1c54:	aa0103f5 	mov	x21, x1
    1c58:	f9400260 	ldr	x0, [x19]
    1c5c:	f9003fe0 	str	x0, [sp, #120]
    1c60:	d2800000 	mov	x0, #0x0                   	// #0
/home/ssysarch/Desktop/nick/jetpack_5/Jetson_Linux_R35.4.1_aarch64/Linux_for_Tegra/sources/tegra/optee-src/nv-optee/optee/optee_os/lib/libutils/ext/snprintk.c:117
    1c64:	9104c3e0 	add	x0, sp, #0x130
    1c68:	a90583e0 	stp	x0, x0, [sp, #88]
    1c6c:	910403e0 	add	x0, sp, #0x100
    1c70:	f90037e0 	str	x0, [sp, #104]
    1c74:	128004e0 	mov	w0, #0xffffffd8            	// #-40
    1c78:	b90073e0 	str	w0, [sp, #112]
    1c7c:	12800fe0 	mov	w0, #0xffffff80            	// #-128
/home/ssysarch/Desktop/nick/jetpack_5/Jetson_Linux_R35.4.1_aarch64/Linux_for_Tegra/sources/tegra/optee-src/nv-optee/optee/optee_os/lib/libutils/ext/snprintk.c:113
    1c80:	aa0203f6 	mov	x22, x2
/home/ssysarch/Desktop/nick/jetpack_5/Jetson_Linux_R35.4.1_aarch64/Linux_for_Tegra/sources/tegra/optee-src/nv-optee/optee/optee_os/lib/libutils/ext/snprintk.c:118
    1c84:	910163e1 	add	x1, sp, #0x58
    1c88:	d2800402 	mov	x2, #0x20                  	// #32
/home/ssysarch/Desktop/nick/jetpack_5/Jetson_Linux_R35.4.1_aarch64/Linux_for_Tegra/sources/tegra/optee-src/nv-optee/optee/optee_os/lib/libutils/ext/snprintk.c:117
    1c8c:	b90077e0 	str	w0, [sp, #116]
/home/ssysarch/Desktop/nick/jetpack_5/Jetson_Linux_R35.4.1_aarch64/Linux_for_Tegra/sources/tegra/optee-src/nv-optee/optee/optee_os/lib/libutils/ext/snprintk.c:118
    1c90:	aa0303e0 	mov	x0, x3
    1c94:	97fff8e3 	bl	20 <memcpy>
    1c98:	aa1603e2 	mov	x2, x22
    1c9c:	aa0003e3 	mov	x3, x0
    1ca0:	aa1503e1 	mov	x1, x21
    1ca4:	aa1403e0 	mov	x0, x20
    1ca8:	97ffffc2 	bl	1bb0 <vsnprintk>
/home/ssysarch/Desktop/nick/jetpack_5/Jetson_Linux_R35.4.1_aarch64/Linux_for_Tegra/sources/tegra/optee-src/nv-optee/optee/optee_os/lib/libutils/ext/snprintk.c:122
    1cac:	f9403fe1 	ldr	x1, [sp, #120]
    1cb0:	f9400262 	ldr	x2, [x19]
    1cb4:	eb020021 	subs	x1, x1, x2
    1cb8:	d2800002 	mov	x2, #0x0                   	// #0
    1cbc:	54000040 	b.eq	1cc4 <snprintk+0xbc>  // b.none
    1cc0:	97fffde8 	bl	1460 <__stack_chk_fail>
    1cc4:	a94153f3 	ldp	x19, x20, [sp, #16]
    1cc8:	a9425bf5 	ldp	x21, x22, [sp, #32]
    1ccc:	a8d37bfd 	ldp	x29, x30, [sp], #304
    1cd0:	d65f03c0 	ret

0000000000001cd4 <kprintf.constprop.0>:
kprintf():
/home/ssysarch/Desktop/nick/jetpack_5/Jetson_Linux_R35.4.1_aarch64/Linux_for_Tegra/sources/tegra/optee-src/nv-optee/optee/optee_os/lib/libutils/ext/snprintk.c:242
    1cd4:	d103c3ff 	sub	sp, sp, #0xf0
    1cd8:	aa0103e8 	mov	x8, x1
    1cdc:	a9037bfd 	stp	x29, x30, [sp, #48]
    1ce0:	9100c3fd 	add	x29, sp, #0x30
    1ce4:	a90873fb 	stp	x27, x28, [sp, #128]
    1ce8:	aa0003fb 	mov	x27, x0
    1cec:	12001c80 	and	w0, w4, #0xff
    1cf0:	b900a3e0 	str	w0, [sp, #160]
    1cf4:	b0000080 	adrp	x0, 12000 <_DYNAMIC>
    1cf8:	a90453f3 	stp	x19, x20, [sp, #64]
    1cfc:	b9401874 	ldr	w20, [x3, #24]
    1d00:	f9409800 	ldr	x0, [x0, #304]
    1d04:	a9055bf5 	stp	x21, x22, [sp, #80]
    1d08:	aa0203f6 	mov	x22, x2
    1d0c:	f9400001 	ldr	x1, [x0]
    1d10:	f90077e1 	str	x1, [sp, #232]
    1d14:	d2800001 	mov	x1, #0x0                   	// #0
    1d18:	a90663f7 	stp	x23, x24, [sp, #96]
    1d1c:	a9076bf9 	stp	x25, x26, [sp, #112]
    1d20:	a9406873 	ldp	x19, x26, [x3]
/home/ssysarch/Desktop/nick/jetpack_5/Jetson_Linux_R35.4.1_aarch64/Linux_for_Tegra/sources/tegra/optee-src/nv-optee/optee/optee_os/lib/libutils/ext/snprintk.c:264
    1d24:	b40004c8 	cbz	x8, 1dbc <kprintf.constprop.0+0xe8>
/home/ssysarch/Desktop/nick/jetpack_5/Jetson_Linux_R35.4.1_aarch64/Linux_for_Tegra/sources/tegra/optee-src/nv-optee/optee/optee_os/lib/libutils/ext/snprintk.c:265
    1d28:	f9400118 	ldr	x24, [x8]
/home/ssysarch/Desktop/nick/jetpack_5/Jetson_Linux_R35.4.1_aarch64/Linux_for_Tegra/sources/tegra/optee-src/nv-optee/optee/optee_os/lib/libutils/ext/snprintk.c:543
    1d2c:	910303ec 	add	x12, sp, #0xc0
    1d30:	f0000060 	adrp	x0, 10000 <__text_end+0x28b0>
    1d34:	9110d000 	add	x0, x0, #0x434
/home/ssysarch/Desktop/nick/jetpack_5/Jetson_Linux_R35.4.1_aarch64/Linux_for_Tegra/sources/tegra/optee-src/nv-optee/optee/optee_os/lib/libutils/ext/snprintk.c:275
    1d38:	d2800017 	mov	x23, #0x0                   	// #0
/home/ssysarch/Desktop/nick/jetpack_5/Jetson_Linux_R35.4.1_aarch64/Linux_for_Tegra/sources/tegra/optee-src/nv-optee/optee/optee_os/lib/libutils/ext/snprintk.c:273
    1d3c:	52800019 	mov	w25, #0x0                   	// #0
    1d40:	f9004be0 	str	x0, [sp, #144]
/home/ssysarch/Desktop/nick/jetpack_5/Jetson_Linux_R35.4.1_aarch64/Linux_for_Tegra/sources/tegra/optee-src/nv-optee/optee/optee_os/lib/libutils/ext/snprintk.c:281
    1d44:	39400360 	ldrb	w0, [x27]
    1d48:	7100941f 	cmp	w0, #0x25
    1d4c:	7a401804 	ccmp	w0, #0x0, #0x4, ne  // ne = any
    1d50:	540003a1 	b.ne	1dc4 <kprintf.constprop.0+0xf0>  // b.any
/home/ssysarch/Desktop/nick/jetpack_5/Jetson_Linux_R35.4.1_aarch64/Linux_for_Tegra/sources/tegra/optee-src/nv-optee/optee/optee_os/lib/libutils/ext/snprintk.c:285
    1d54:	34005260 	cbz	w0, 27a0 <kprintf.constprop.0+0xacc>
/home/ssysarch/Desktop/nick/jetpack_5/Jetson_Linux_R35.4.1_aarch64/Linux_for_Tegra/sources/tegra/optee-src/nv-optee/optee/optee_os/lib/libutils/ext/snprintk.c:293
    1d58:	12800005 	mov	w5, #0xffffffff            	// #-1
    1d5c:	f0000066 	adrp	x6, 10000 <__text_end+0x28b0>
    1d60:	911140c6 	add	x6, x6, #0x450
/home/ssysarch/Desktop/nick/jetpack_5/Jetson_Linux_R35.4.1_aarch64/Linux_for_Tegra/sources/tegra/optee-src/nv-optee/optee/optee_os/lib/libutils/ext/snprintk.c:288
    1d64:	9100077b 	add	x27, x27, #0x1
    1d68:	2a1403e4 	mov	w4, w20
    1d6c:	aa1303e3 	mov	x3, x19
/home/ssysarch/Desktop/nick/jetpack_5/Jetson_Linux_R35.4.1_aarch64/Linux_for_Tegra/sources/tegra/optee-src/nv-optee/optee/optee_os/lib/libutils/ext/snprintk.c:330
    1d70:	2a0503ee 	mov	w14, w5
/home/ssysarch/Desktop/nick/jetpack_5/Jetson_Linux_R35.4.1_aarch64/Linux_for_Tegra/sources/tegra/optee-src/nv-optee/optee/optee_os/lib/libutils/ext/snprintk.c:294
    1d74:	52800001 	mov	w1, #0x0                   	// #0
/home/ssysarch/Desktop/nick/jetpack_5/Jetson_Linux_R35.4.1_aarch64/Linux_for_Tegra/sources/tegra/optee-src/nv-optee/optee/optee_os/lib/libutils/ext/snprintk.c:292
    1d78:	5280000a 	mov	w10, #0x0                   	// #0
/home/ssysarch/Desktop/nick/jetpack_5/Jetson_Linux_R35.4.1_aarch64/Linux_for_Tegra/sources/tegra/optee-src/nv-optee/optee/optee_os/lib/libutils/ext/snprintk.c:290
    1d7c:	52800015 	mov	w21, #0x0                   	// #0
/home/ssysarch/Desktop/nick/jetpack_5/Jetson_Linux_R35.4.1_aarch64/Linux_for_Tegra/sources/tegra/optee-src/nv-optee/optee/optee_os/lib/libutils/ext/snprintk.c:352
    1d80:	5280014d 	mov	w13, #0xa                   	// #10
/home/ssysarch/Desktop/nick/jetpack_5/Jetson_Linux_R35.4.1_aarch64/Linux_for_Tegra/sources/tegra/optee-src/nv-optee/optee/optee_os/lib/libutils/ext/snprintk.c:305
    1d84:	5280040f 	mov	w15, #0x20                  	// #32
/home/ssysarch/Desktop/nick/jetpack_5/Jetson_Linux_R35.4.1_aarch64/Linux_for_Tegra/sources/tegra/optee-src/nv-optee/optee/optee_os/lib/libutils/ext/snprintk.c:296
    1d88:	3840177c 	ldrb	w28, [x27], #1
/home/ssysarch/Desktop/nick/jetpack_5/Jetson_Linux_R35.4.1_aarch64/Linux_for_Tegra/sources/tegra/optee-src/nv-optee/optee/optee_os/lib/libutils/ext/snprintk.c:297
    1d8c:	7100e79f 	cmp	w28, #0x39
    1d90:	5400054c 	b.gt	1e38 <kprintf.constprop.0+0x164>
    1d94:	71007f9f 	cmp	w28, #0x1f
    1d98:	5400502d 	b.le	279c <kprintf.constprop.0+0xac8>
    1d9c:	51008380 	sub	w0, w28, #0x20
    1da0:	7100641f 	cmp	w0, #0x19
    1da4:	54000508 	b.hi	1e44 <kprintf.constprop.0+0x170>  // b.pmore
    1da8:	f9404be2 	ldr	x2, [sp, #144]
    1dac:	38604840 	ldrb	w0, [x2, w0, uxtw]
    1db0:	10000062 	adr	x2, 1dbc <kprintf.constprop.0+0xe8>
    1db4:	8b208840 	add	x0, x2, w0, sxtb #2
    1db8:	d61f0000 	br	x0
/home/ssysarch/Desktop/nick/jetpack_5/Jetson_Linux_R35.4.1_aarch64/Linux_for_Tegra/sources/tegra/optee-src/nv-optee/optee/optee_os/lib/libutils/ext/snprintk.c:267
    1dbc:	d2800018 	mov	x24, #0x0                   	// #0
    1dc0:	17ffffdb 	b	1d2c <kprintf.constprop.0+0x58>
/home/ssysarch/Desktop/nick/jetpack_5/Jetson_Linux_R35.4.1_aarch64/Linux_for_Tegra/sources/tegra/optee-src/nv-optee/optee/optee_os/lib/libutils/ext/snprintk.c:282
    1dc4:	11000739 	add	w25, w25, #0x1
/home/ssysarch/Desktop/nick/jetpack_5/Jetson_Linux_R35.4.1_aarch64/Linux_for_Tegra/sources/tegra/optee-src/nv-optee/optee/optee_os/lib/libutils/ext/snprintk.c:283
    1dc8:	b40000b6 	cbz	x22, 1ddc <kprintf.constprop.0+0x108>
    1dcc:	f100011f 	cmp	x8, #0x0
    1dd0:	fa5812c0 	ccmp	x22, x24, #0x0, ne  // ne = any
    1dd4:	54000042 	b.cs	1ddc <kprintf.constprop.0+0x108>  // b.hs, b.nlast
    1dd8:	380016c0 	strb	w0, [x22], #1
/home/ssysarch/Desktop/nick/jetpack_5/Jetson_Linux_R35.4.1_aarch64/Linux_for_Tegra/sources/tegra/optee-src/nv-optee/optee/optee_os/lib/libutils/ext/snprintk.c:281
    1ddc:	9100077b 	add	x27, x27, #0x1
    1de0:	17ffffd9 	b	1d44 <kprintf.constprop.0+0x70>
/home/ssysarch/Desktop/nick/jetpack_5/Jetson_Linux_R35.4.1_aarch64/Linux_for_Tegra/sources/tegra/optee-src/nv-optee/optee/optee_os/lib/libutils/ext/snprintk.c:325
    1de4:	52800561 	mov	w1, #0x2b                  	// #43
    1de8:	17ffffe8 	b	1d88 <kprintf.constprop.0+0xb4>
    1dec:	786058c0 	ldrh	w0, [x6, w0, uxtw #1]
    1df0:	10000062 	adr	x2, 1dfc <kprintf.constprop.0+0x128>
    1df4:	8b20a840 	add	x0, x2, w0, sxth #2
    1df8:	d61f0000 	br	x0
/home/ssysarch/Desktop/nick/jetpack_5/Jetson_Linux_R35.4.1_aarch64/Linux_for_Tegra/sources/tegra/optee-src/nv-optee/optee/optee_os/lib/libutils/ext/snprintk.c:480
    1dfc:	f0000077 	adrp	x23, 10000 <__text_end+0x28b0>
    1e00:	9112faf7 	add	x23, x23, #0x4be
    1e04:	910046f7 	add	x23, x23, #0x11
/home/ssysarch/Desktop/nick/jetpack_5/Jetson_Linux_R35.4.1_aarch64/Linux_for_Tegra/sources/tegra/optee-src/nv-optee/optee/optee_os/lib/libutils/ext/snprintk.c:481
    1e08:	36384515 	tbz	w21, #7, 26a8 <kprintf.constprop.0+0x9d4>
    1e0c:	37f84644 	tbnz	w4, #31, 26d4 <kprintf.constprop.0+0xa00>
    1e10:	91003c73 	add	x19, x3, #0xf
    1e14:	2a0403f4 	mov	w20, w4
    1e18:	927df273 	and	x19, x19, #0xfffffffffffffff8
    1e1c:	f9400062 	ldr	x2, [x3]
/home/ssysarch/Desktop/nick/jetpack_5/Jetson_Linux_R35.4.1_aarch64/Linux_for_Tegra/sources/tegra/optee-src/nv-optee/optee/optee_os/lib/libutils/ext/snprintk.c:484
    1e20:	36003475 	tbz	w21, #0, 24ac <kprintf.constprop.0+0x7d8>
    1e24:	b4003442 	cbz	x2, 24ac <kprintf.constprop.0+0x7d8>
/home/ssysarch/Desktop/nick/jetpack_5/Jetson_Linux_R35.4.1_aarch64/Linux_for_Tegra/sources/tegra/optee-src/nv-optee/optee/optee_os/lib/libutils/ext/snprintk.c:485
    1e28:	321f02b5 	orr	w21, w21, #0x2
/home/ssysarch/Desktop/nick/jetpack_5/Jetson_Linux_R35.4.1_aarch64/Linux_for_Tegra/sources/tegra/optee-src/nv-optee/optee/optee_os/lib/libutils/ext/snprintk.c:482
    1e2c:	52800040 	mov	w0, #0x2                   	// #2
/home/ssysarch/Desktop/nick/jetpack_5/Jetson_Linux_R35.4.1_aarch64/Linux_for_Tegra/sources/tegra/optee-src/nv-optee/optee/optee_os/lib/libutils/ext/snprintk.c:488
    1e30:	52800001 	mov	w1, #0x0                   	// #0
    1e34:	14000078 	b	2014 <kprintf.constprop.0+0x340>
/home/ssysarch/Desktop/nick/jetpack_5/Jetson_Linux_R35.4.1_aarch64/Linux_for_Tegra/sources/tegra/optee-src/nv-optee/optee/optee_os/lib/libutils/ext/snprintk.c:297
    1e38:	51011380 	sub	w0, w28, #0x44
    1e3c:	7100d81f 	cmp	w0, #0x36
    1e40:	54fffd69 	b.ls	1dec <kprintf.constprop.0+0x118>  // b.plast
/home/ssysarch/Desktop/nick/jetpack_5/Jetson_Linux_R35.4.1_aarch64/Linux_for_Tegra/sources/tegra/optee-src/nv-optee/optee/optee_os/lib/libutils/ext/snprintk.c:554
    1e44:	2a0403f4 	mov	w20, w4
    1e48:	aa0303f3 	mov	x19, x3
/home/ssysarch/Desktop/nick/jetpack_5/Jetson_Linux_R35.4.1_aarch64/Linux_for_Tegra/sources/tegra/optee-src/nv-optee/optee/optee_os/lib/libutils/ext/snprintk.c:551
    1e4c:	390303fc 	strb	w28, [sp, #192]
/home/ssysarch/Desktop/nick/jetpack_5/Jetson_Linux_R35.4.1_aarch64/Linux_for_Tegra/sources/tegra/optee-src/nv-optee/optee/optee_os/lib/libutils/ext/snprintk.c:554
    1e50:	14000058 	b	1fb0 <kprintf.constprop.0+0x2dc>
/home/ssysarch/Desktop/nick/jetpack_5/Jetson_Linux_R35.4.1_aarch64/Linux_for_Tegra/sources/tegra/optee-src/nv-optee/optee/optee_os/lib/libutils/ext/snprintk.c:305
    1e54:	7100003f 	cmp	w1, #0x0
    1e58:	1a8f1021 	csel	w1, w1, w15, ne  // ne = any
    1e5c:	17ffffcb 	b	1d88 <kprintf.constprop.0+0xb4>
/home/ssysarch/Desktop/nick/jetpack_5/Jetson_Linux_R35.4.1_aarch64/Linux_for_Tegra/sources/tegra/optee-src/nv-optee/optee/optee_os/lib/libutils/ext/snprintk.c:308
    1e60:	320002b5 	orr	w21, w21, #0x1
/home/ssysarch/Desktop/nick/jetpack_5/Jetson_Linux_R35.4.1_aarch64/Linux_for_Tegra/sources/tegra/optee-src/nv-optee/optee/optee_os/lib/libutils/ext/snprintk.c:309
    1e64:	17ffffc9 	b	1d88 <kprintf.constprop.0+0xb4>
/home/ssysarch/Desktop/nick/jetpack_5/Jetson_Linux_R35.4.1_aarch64/Linux_for_Tegra/sources/tegra/optee-src/nv-optee/optee/optee_os/lib/libutils/ext/snprintk.c:317
    1e68:	37f80124 	tbnz	w4, #31, 1e8c <kprintf.constprop.0+0x1b8>
    1e6c:	91002c62 	add	x2, x3, #0xb
    1e70:	aa0303e0 	mov	x0, x3
    1e74:	927df043 	and	x3, x2, #0xfffffffffffffff8
    1e78:	b940000a 	ldr	w10, [x0]
    1e7c:	36fff86a 	tbz	w10, #31, 1d88 <kprintf.constprop.0+0xb4>
/home/ssysarch/Desktop/nick/jetpack_5/Jetson_Linux_R35.4.1_aarch64/Linux_for_Tegra/sources/tegra/optee-src/nv-optee/optee/optee_os/lib/libutils/ext/snprintk.c:319
    1e80:	4b0a03ea 	neg	w10, w10
/home/ssysarch/Desktop/nick/jetpack_5/Jetson_Linux_R35.4.1_aarch64/Linux_for_Tegra/sources/tegra/optee-src/nv-optee/optee/optee_os/lib/libutils/ext/snprintk.c:322
    1e84:	321e02b5 	orr	w21, w21, #0x4
/home/ssysarch/Desktop/nick/jetpack_5/Jetson_Linux_R35.4.1_aarch64/Linux_for_Tegra/sources/tegra/optee-src/nv-optee/optee/optee_os/lib/libutils/ext/snprintk.c:323
    1e88:	17ffffc0 	b	1d88 <kprintf.constprop.0+0xb4>
/home/ssysarch/Desktop/nick/jetpack_5/Jetson_Linux_R35.4.1_aarch64/Linux_for_Tegra/sources/tegra/optee-src/nv-optee/optee/optee_os/lib/libutils/ext/snprintk.c:317
    1e8c:	11002082 	add	w2, w4, #0x8
    1e90:	7100005f 	cmp	w2, #0x0
    1e94:	540000cd 	b.le	1eac <kprintf.constprop.0+0x1d8>
    1e98:	91002c67 	add	x7, x3, #0xb
    1e9c:	aa0303e0 	mov	x0, x3
    1ea0:	2a0203e4 	mov	w4, w2
    1ea4:	927df0e3 	and	x3, x7, #0xfffffffffffffff8
    1ea8:	17fffff4 	b	1e78 <kprintf.constprop.0+0x1a4>
    1eac:	8b24c340 	add	x0, x26, w4, sxtw
    1eb0:	2a0203e4 	mov	w4, w2
    1eb4:	17fffff1 	b	1e78 <kprintf.constprop.0+0x1a4>
/home/ssysarch/Desktop/nick/jetpack_5/Jetson_Linux_R35.4.1_aarch64/Linux_for_Tegra/sources/tegra/optee-src/nv-optee/optee/optee_os/lib/libutils/ext/snprintk.c:328
    1eb8:	3840177c 	ldrb	w28, [x27], #1
    1ebc:	7100ab9f 	cmp	w28, #0x2a
    1ec0:	54000341 	b.ne	1f28 <kprintf.constprop.0+0x254>  // b.any
/home/ssysarch/Desktop/nick/jetpack_5/Jetson_Linux_R35.4.1_aarch64/Linux_for_Tegra/sources/tegra/optee-src/nv-optee/optee/optee_os/lib/libutils/ext/snprintk.c:329
    1ec4:	37f80144 	tbnz	w4, #31, 1eec <kprintf.constprop.0+0x218>
    1ec8:	91002c62 	add	x2, x3, #0xb
    1ecc:	2a0403e7 	mov	w7, w4
    1ed0:	927df042 	and	x2, x2, #0xfffffffffffffff8
/home/ssysarch/Desktop/nick/jetpack_5/Jetson_Linux_R35.4.1_aarch64/Linux_for_Tegra/sources/tegra/optee-src/nv-optee/optee/optee_os/lib/libutils/ext/snprintk.c:330
    1ed4:	b9400065 	ldr	w5, [x3]
/home/ssysarch/Desktop/nick/jetpack_5/Jetson_Linux_R35.4.1_aarch64/Linux_for_Tegra/sources/tegra/optee-src/nv-optee/optee/optee_os/lib/libutils/ext/snprintk.c:331
    1ed8:	2a0703e4 	mov	w4, w7
    1edc:	aa0203e3 	mov	x3, x2
/home/ssysarch/Desktop/nick/jetpack_5/Jetson_Linux_R35.4.1_aarch64/Linux_for_Tegra/sources/tegra/optee-src/nv-optee/optee/optee_os/lib/libutils/ext/snprintk.c:330
    1ee0:	710000bf 	cmp	w5, #0x0
    1ee4:	1a8ea0a5 	csel	w5, w5, w14, ge  // ge = tcont
/home/ssysarch/Desktop/nick/jetpack_5/Jetson_Linux_R35.4.1_aarch64/Linux_for_Tegra/sources/tegra/optee-src/nv-optee/optee/optee_os/lib/libutils/ext/snprintk.c:331
    1ee8:	17ffffa8 	b	1d88 <kprintf.constprop.0+0xb4>
/home/ssysarch/Desktop/nick/jetpack_5/Jetson_Linux_R35.4.1_aarch64/Linux_for_Tegra/sources/tegra/optee-src/nv-optee/optee/optee_os/lib/libutils/ext/snprintk.c:329
    1eec:	11002087 	add	w7, w4, #0x8
    1ef0:	710000ff 	cmp	w7, #0x0
    1ef4:	5400008d 	b.le	1f04 <kprintf.constprop.0+0x230>
    1ef8:	91002c62 	add	x2, x3, #0xb
    1efc:	927df042 	and	x2, x2, #0xfffffffffffffff8
    1f00:	17fffff5 	b	1ed4 <kprintf.constprop.0+0x200>
    1f04:	aa0303e2 	mov	x2, x3
    1f08:	8b24c343 	add	x3, x26, w4, sxtw
    1f0c:	17fffff2 	b	1ed4 <kprintf.constprop.0+0x200>
/home/ssysarch/Desktop/nick/jetpack_5/Jetson_Linux_R35.4.1_aarch64/Linux_for_Tegra/sources/tegra/optee-src/nv-optee/optee/optee_os/lib/libutils/ext/snprintk.c:335
    1f10:	1b0d00a5 	madd	w5, w5, w13, w0
/home/ssysarch/Desktop/nick/jetpack_5/Jetson_Linux_R35.4.1_aarch64/Linux_for_Tegra/sources/tegra/optee-src/nv-optee/optee/optee_os/lib/libutils/ext/snprintk.c:336
    1f14:	3840177c 	ldrb	w28, [x27], #1
/home/ssysarch/Desktop/nick/jetpack_5/Jetson_Linux_R35.4.1_aarch64/Linux_for_Tegra/sources/tegra/optee-src/nv-optee/optee/optee_os/lib/libutils/ext/snprintk.c:334
    1f18:	5100c380 	sub	w0, w28, #0x30
    1f1c:	7100241f 	cmp	w0, #0x9
    1f20:	54ffff89 	b.ls	1f10 <kprintf.constprop.0+0x23c>  // b.plast
    1f24:	17ffff9a 	b	1d8c <kprintf.constprop.0+0xb8>
/home/ssysarch/Desktop/nick/jetpack_5/Jetson_Linux_R35.4.1_aarch64/Linux_for_Tegra/sources/tegra/optee-src/nv-optee/optee/optee_os/lib/libutils/ext/snprintk.c:333
    1f28:	52800005 	mov	w5, #0x0                   	// #0
    1f2c:	17fffffb 	b	1f18 <kprintf.constprop.0+0x244>
/home/ssysarch/Desktop/nick/jetpack_5/Jetson_Linux_R35.4.1_aarch64/Linux_for_Tegra/sources/tegra/optee-src/nv-optee/optee/optee_os/lib/libutils/ext/snprintk.c:346
    1f30:	321602b5 	orr	w21, w21, #0x400
/home/ssysarch/Desktop/nick/jetpack_5/Jetson_Linux_R35.4.1_aarch64/Linux_for_Tegra/sources/tegra/optee-src/nv-optee/optee/optee_os/lib/libutils/ext/snprintk.c:347
    1f34:	17ffff95 	b	1d88 <kprintf.constprop.0+0xb4>
/home/ssysarch/Desktop/nick/jetpack_5/Jetson_Linux_R35.4.1_aarch64/Linux_for_Tegra/sources/tegra/optee-src/nv-optee/optee/optee_os/lib/libutils/ext/snprintk.c:297
    1f38:	5280000a 	mov	w10, #0x0                   	// #0
/home/ssysarch/Desktop/nick/jetpack_5/Jetson_Linux_R35.4.1_aarch64/Linux_for_Tegra/sources/tegra/optee-src/nv-optee/optee/optee_os/lib/libutils/ext/snprintk.c:352
    1f3c:	5100c39c 	sub	w28, w28, #0x30
    1f40:	1b0d714a 	madd	w10, w10, w13, w28
/home/ssysarch/Desktop/nick/jetpack_5/Jetson_Linux_R35.4.1_aarch64/Linux_for_Tegra/sources/tegra/optee-src/nv-optee/optee/optee_os/lib/libutils/ext/snprintk.c:353
    1f44:	3840177c 	ldrb	w28, [x27], #1
/home/ssysarch/Desktop/nick/jetpack_5/Jetson_Linux_R35.4.1_aarch64/Linux_for_Tegra/sources/tegra/optee-src/nv-optee/optee/optee_os/lib/libutils/ext/snprintk.c:354
    1f48:	5100c380 	sub	w0, w28, #0x30
    1f4c:	7100241f 	cmp	w0, #0x9
    1f50:	54ffff69 	b.ls	1f3c <kprintf.constprop.0+0x268>  // b.plast
    1f54:	17ffff8e 	b	1d8c <kprintf.constprop.0+0xb8>
/home/ssysarch/Desktop/nick/jetpack_5/Jetson_Linux_R35.4.1_aarch64/Linux_for_Tegra/sources/tegra/optee-src/nv-optee/optee/optee_os/lib/libutils/ext/snprintk.c:358
    1f58:	321a02b5 	orr	w21, w21, #0x40
/home/ssysarch/Desktop/nick/jetpack_5/Jetson_Linux_R35.4.1_aarch64/Linux_for_Tegra/sources/tegra/optee-src/nv-optee/optee/optee_os/lib/libutils/ext/snprintk.c:359
    1f5c:	17ffff8b 	b	1d88 <kprintf.constprop.0+0xb4>
/home/ssysarch/Desktop/nick/jetpack_5/Jetson_Linux_R35.4.1_aarch64/Linux_for_Tegra/sources/tegra/optee-src/nv-optee/optee/optee_os/lib/libutils/ext/snprintk.c:361
    1f60:	321902b5 	orr	w21, w21, #0x80
/home/ssysarch/Desktop/nick/jetpack_5/Jetson_Linux_R35.4.1_aarch64/Linux_for_Tegra/sources/tegra/optee-src/nv-optee/optee/optee_os/lib/libutils/ext/snprintk.c:362
    1f64:	17ffff89 	b	1d88 <kprintf.constprop.0+0xb4>
/home/ssysarch/Desktop/nick/jetpack_5/Jetson_Linux_R35.4.1_aarch64/Linux_for_Tegra/sources/tegra/optee-src/nv-optee/optee/optee_os/lib/libutils/ext/snprintk.c:364
    1f68:	39400360 	ldrb	w0, [x27]
    1f6c:	7101b01f 	cmp	w0, #0x6c
    1f70:	54000081 	b.ne	1f80 <kprintf.constprop.0+0x2ac>  // b.any
    1f74:	9100077b 	add	x27, x27, #0x1
/home/ssysarch/Desktop/nick/jetpack_5/Jetson_Linux_R35.4.1_aarch64/Linux_for_Tegra/sources/tegra/optee-src/nv-optee/optee/optee_os/lib/libutils/ext/snprintk.c:372
    1f78:	321b02b5 	orr	w21, w21, #0x20
/home/ssysarch/Desktop/nick/jetpack_5/Jetson_Linux_R35.4.1_aarch64/Linux_for_Tegra/sources/tegra/optee-src/nv-optee/optee/optee_os/lib/libutils/ext/snprintk.c:373
    1f7c:	17ffff83 	b	1d88 <kprintf.constprop.0+0xb4>
/home/ssysarch/Desktop/nick/jetpack_5/Jetson_Linux_R35.4.1_aarch64/Linux_for_Tegra/sources/tegra/optee-src/nv-optee/optee/optee_os/lib/libutils/ext/snprintk.c:368
    1f80:	321c02b5 	orr	w21, w21, #0x10
    1f84:	17ffff81 	b	1d88 <kprintf.constprop.0+0xb4>
/home/ssysarch/Desktop/nick/jetpack_5/Jetson_Linux_R35.4.1_aarch64/Linux_for_Tegra/sources/tegra/optee-src/nv-optee/optee/optee_os/lib/libutils/ext/snprintk.c:375
    1f88:	321802b5 	orr	w21, w21, #0x100
/home/ssysarch/Desktop/nick/jetpack_5/Jetson_Linux_R35.4.1_aarch64/Linux_for_Tegra/sources/tegra/optee-src/nv-optee/optee/optee_os/lib/libutils/ext/snprintk.c:376
    1f8c:	17ffff7f 	b	1d88 <kprintf.constprop.0+0xb4>
/home/ssysarch/Desktop/nick/jetpack_5/Jetson_Linux_R35.4.1_aarch64/Linux_for_Tegra/sources/tegra/optee-src/nv-optee/optee/optee_os/lib/libutils/ext/snprintk.c:378
    1f90:	321702b5 	orr	w21, w21, #0x200
/home/ssysarch/Desktop/nick/jetpack_5/Jetson_Linux_R35.4.1_aarch64/Linux_for_Tegra/sources/tegra/optee-src/nv-optee/optee/optee_os/lib/libutils/ext/snprintk.c:379
    1f94:	17ffff7d 	b	1d88 <kprintf.constprop.0+0xb4>
/home/ssysarch/Desktop/nick/jetpack_5/Jetson_Linux_R35.4.1_aarch64/Linux_for_Tegra/sources/tegra/optee-src/nv-optee/optee/optee_os/lib/libutils/ext/snprintk.c:381
    1f98:	37f80164 	tbnz	w4, #31, 1fc4 <kprintf.constprop.0+0x2f0>
    1f9c:	91002c73 	add	x19, x3, #0xb
    1fa0:	2a0403f4 	mov	w20, w4
    1fa4:	927df273 	and	x19, x19, #0xfffffffffffffff8
    1fa8:	b9400060 	ldr	w0, [x3]
    1fac:	390303e0 	strb	w0, [sp, #192]
/home/ssysarch/Desktop/nick/jetpack_5/Jetson_Linux_R35.4.1_aarch64/Linux_for_Tegra/sources/tegra/optee-src/nv-optee/optee/optee_os/lib/libutils/ext/snprintk.c:550
    1fb0:	910303e3 	add	x3, sp, #0xc0
/home/ssysarch/Desktop/nick/jetpack_5/Jetson_Linux_R35.4.1_aarch64/Linux_for_Tegra/sources/tegra/optee-src/nv-optee/optee/optee_os/lib/libutils/ext/snprintk.c:552
    1fb4:	52800025 	mov	w5, #0x1                   	// #1
/home/ssysarch/Desktop/nick/jetpack_5/Jetson_Linux_R35.4.1_aarch64/Linux_for_Tegra/sources/tegra/optee-src/nv-optee/optee/optee_os/lib/libutils/ext/snprintk.c:291
    1fb8:	52800006 	mov	w6, #0x0                   	// #0
/home/ssysarch/Desktop/nick/jetpack_5/Jetson_Linux_R35.4.1_aarch64/Linux_for_Tegra/sources/tegra/optee-src/nv-optee/optee/optee_os/lib/libutils/ext/snprintk.c:553
    1fbc:	52800001 	mov	w1, #0x0                   	// #0
/home/ssysarch/Desktop/nick/jetpack_5/Jetson_Linux_R35.4.1_aarch64/Linux_for_Tegra/sources/tegra/optee-src/nv-optee/optee/optee_os/lib/libutils/ext/snprintk.c:554
    1fc0:	140000fa 	b	23a8 <kprintf.constprop.0+0x6d4>
/home/ssysarch/Desktop/nick/jetpack_5/Jetson_Linux_R35.4.1_aarch64/Linux_for_Tegra/sources/tegra/optee-src/nv-optee/optee/optee_os/lib/libutils/ext/snprintk.c:381
    1fc4:	11002094 	add	w20, w4, #0x8
    1fc8:	7100029f 	cmp	w20, #0x0
    1fcc:	5400008d 	b.le	1fdc <kprintf.constprop.0+0x308>
    1fd0:	91002c73 	add	x19, x3, #0xb
    1fd4:	927df273 	and	x19, x19, #0xfffffffffffffff8
    1fd8:	17fffff4 	b	1fa8 <kprintf.constprop.0+0x2d4>
    1fdc:	aa0303f3 	mov	x19, x3
    1fe0:	8b24c343 	add	x3, x26, w4, sxtw
    1fe4:	17fffff1 	b	1fa8 <kprintf.constprop.0+0x2d4>
/home/ssysarch/Desktop/nick/jetpack_5/Jetson_Linux_R35.4.1_aarch64/Linux_for_Tegra/sources/tegra/optee-src/nv-optee/optee/optee_os/lib/libutils/ext/snprintk.c:386
    1fe8:	321c02b5 	orr	w21, w21, #0x10
/home/ssysarch/Desktop/nick/jetpack_5/Jetson_Linux_R35.4.1_aarch64/Linux_for_Tegra/sources/tegra/optee-src/nv-optee/optee/optee_os/lib/libutils/ext/snprintk.c:390
    1fec:	363802f5 	tbz	w21, #7, 2048 <kprintf.constprop.0+0x374>
    1ff0:	37f80424 	tbnz	w4, #31, 2074 <kprintf.constprop.0+0x3a0>
    1ff4:	91003c73 	add	x19, x3, #0xf
    1ff8:	2a0403f4 	mov	w20, w4
    1ffc:	927df273 	and	x19, x19, #0xfffffffffffffff8
    2000:	f9400062 	ldr	x2, [x3]
/home/ssysarch/Desktop/nick/jetpack_5/Jetson_Linux_R35.4.1_aarch64/Linux_for_Tegra/sources/tegra/optee-src/nv-optee/optee/optee_os/lib/libutils/ext/snprintk.c:391
    2004:	b6f82e02 	tbz	x2, #63, 25c4 <kprintf.constprop.0+0x8f0>
/home/ssysarch/Desktop/nick/jetpack_5/Jetson_Linux_R35.4.1_aarch64/Linux_for_Tegra/sources/tegra/optee-src/nv-optee/optee/optee_os/lib/libutils/ext/snprintk.c:392
    2008:	cb0203e2 	neg	x2, x2
/home/ssysarch/Desktop/nick/jetpack_5/Jetson_Linux_R35.4.1_aarch64/Linux_for_Tegra/sources/tegra/optee-src/nv-optee/optee/optee_os/lib/libutils/ext/snprintk.c:395
    200c:	52800020 	mov	w0, #0x1                   	// #1
/home/ssysarch/Desktop/nick/jetpack_5/Jetson_Linux_R35.4.1_aarch64/Linux_for_Tegra/sources/tegra/optee-src/nv-optee/optee/optee_os/lib/libutils/ext/snprintk.c:393
    2010:	528005a1 	mov	w1, #0x2d                  	// #45
/home/ssysarch/Desktop/nick/jetpack_5/Jetson_Linux_R35.4.1_aarch64/Linux_for_Tegra/sources/tegra/optee-src/nv-optee/optee/optee_os/lib/libutils/ext/snprintk.c:494
    2014:	310004bf 	cmn	w5, #0x1
    2018:	54003a21 	b.ne	275c <kprintf.constprop.0+0xa88>  // b.any
