
/home/ssysarch/Desktop/nick/jetpack_5/Jetson_Linux_R35.4.1_aarch64/Linux_for_Tegra/sources/tegra/optee-src/nv-optee/optee/build/t234/ta/os_test/5b9e0e40-2636-11e1-ad9e-0002a5d5c51b.elf:     file format elf64-littleaarch64
/home/ssysarch/Desktop/nick/jetpack_5/Jetson_Linux_R35.4.1_aarch64/Linux_for_Tegra/sources/tegra/optee-src/nv-optee/optee/build/t234/ta/os_test/5b9e0e40-2636-11e1-ad9e-0002a5d5c51b.elf
architecture: aarch64, flags 0x00000150:
HAS_SYMS, DYNAMIC, D_PAGED
start address 0x0000000000003098

Program Header:
    LOAD off    0x0000000000001000 vaddr 0x0000000000000000 paddr 0x0000000000000000 align 2**12
         filesz 0x0000000000006d20 memsz 0x0000000000006d20 flags r-x
    LOAD off    0x0000000000008000 vaddr 0x0000000000007000 paddr 0x0000000000007000 align 2**12
         filesz 0x0000000000000980 memsz 0x00000000000e1998 flags rw-
 DYNAMIC off    0x0000000000008000 vaddr 0x0000000000007000 paddr 0x0000000000007000 align 2**3
         filesz 0x0000000000000180 memsz 0x0000000000000180 flags rw-
   STACK off    0x0000000000000000 vaddr 0x0000000000000000 paddr 0x0000000000000000 align 2**4
         filesz 0x0000000000000000 memsz 0x0000000000000000 flags rw-

Dynamic Section:
  NEEDED               ffd2bded-ab7d-4988-95ee-e4962fff7154
  INIT_ARRAY           0x0000000000007978
  INIT_ARRAYSZ         0x0000000000000008
  HASH                 0x0000000000006748
  GNU_HASH             0x0000000000005cb8
  STRTAB               0x0000000000006328
  SYMTAB               0x0000000000005d28
  STRSZ                0x000000000000041e
  SYMENT               0x0000000000000018
  DEBUG                0x0000000000000000
  PLTGOT               0x0000000000007180
  PLTRELSZ             0x0000000000000420
  PLTREL               0x0000000000000007
  JMPREL               0x0000000000007340
  RELA                 0x00000000000068e8
  RELASZ               0x0000000000000468
  RELAENT              0x0000000000000018
  FLAGS_1              0x0000000008000000
  RELACOUNT            0x000000000000002d
private flags = 0:

Sections:
Idx Name          Size      VMA               LMA               File off  Algn
  0 .ta_head      00000020  0000000000000000  0000000000000000  00001000  2**3
                  CONTENTS, ALLOC, LOAD, READONLY, DATA
  1 .text         0000368c  0000000000000020  0000000000000020  00001020  2**2
                  CONTENTS, ALLOC, LOAD, READONLY, CODE
  2 .plt          000002e0  00000000000036ac  00000000000036ac  000046ac  2**2
                  CONTENTS, ALLOC, LOAD, READONLY, CODE
  3 .eh_frame     00000a7c  0000000000003990  0000000000003990  00004990  2**3
                  CONTENTS, ALLOC, LOAD, READONLY, DATA
  4 .rodata       000018a6  0000000000004410  0000000000004410  00005410  2**3
                  CONTENTS, ALLOC, LOAD, READONLY, DATA
  5 .gnu.hash     0000006c  0000000000005cb8  0000000000005cb8  00006cb8  2**3
                  CONTENTS, ALLOC, LOAD, READONLY, DATA
  6 .dynsym       00000600  0000000000005d28  0000000000005d28  00006d28  2**3
                  CONTENTS, ALLOC, LOAD, READONLY, DATA
  7 .dynstr       0000041e  0000000000006328  0000000000006328  00007328  2**0
                  CONTENTS, ALLOC, LOAD, READONLY, DATA
  8 .hash         0000019c  0000000000006748  0000000000006748  00007748  2**3
                  CONTENTS, ALLOC, LOAD, READONLY, DATA
  9 .rela.dyn     00000438  00000000000068e8  00000000000068e8  000078e8  2**3
                  CONTENTS, ALLOC, LOAD, READONLY, DATA
 10 .dynamic      00000180  0000000000007000  0000000000007000  00008000  2**3
                  CONTENTS, ALLOC, LOAD, DATA
 11 .got          00000190  0000000000007180  0000000000007180  00008180  2**3
                  CONTENTS, ALLOC, LOAD, DATA
 12 .rela.got     00000030  0000000000007310  0000000000007310  00008310  2**3
                  CONTENTS, ALLOC, LOAD, READONLY, DATA
 13 .rela.plt     00000420  0000000000007340  0000000000007340  00008340  2**3
                  CONTENTS, ALLOC, LOAD, READONLY, DATA
 14 .data         00000214  0000000000007760  0000000000007760  00008760  2**3
                  CONTENTS, ALLOC, LOAD, DATA
 15 .init_array   00000008  0000000000007978  0000000000007978  00008978  2**3
                  CONTENTS, ALLOC, LOAD, DATA
 16 .bss          000e1018  0000000000007980  0000000000007980  00008980  2**3
                  ALLOC
 17 .debug_info   0000762f  0000000000000000  0000000000000000  00008980  2**0
                  CONTENTS, READONLY, DEBUGGING
 18 .debug_abbrev 00001309  0000000000000000  0000000000000000  0000ffaf  2**0
                  CONTENTS, READONLY, DEBUGGING
 19 .debug_loc    000062da  0000000000000000  0000000000000000  000112b8  2**0
                  CONTENTS, READONLY, DEBUGGING
 20 .debug_aranges 00000280  0000000000000000  0000000000000000  000175a0  2**4
                  CONTENTS, READONLY, DEBUGGING
 21 .debug_macro  0000b4de  0000000000000000  0000000000000000  00017820  2**0
                  CONTENTS, READONLY, DEBUGGING
 22 .debug_line   0000380e  0000000000000000  0000000000000000  00022cfe  2**0
                  CONTENTS, READONLY, DEBUGGING
 23 .debug_str    00012c0d  0000000000000000  0000000000000000  0002650c  2**0
                  CONTENTS, READONLY, DEBUGGING
 24 .comment      0000001f  0000000000000000  0000000000000000  00039119  2**0
                  CONTENTS, READONLY
 25 .debug_ranges 00000350  0000000000000000  0000000000000000  00039138  2**0
                  CONTENTS, READONLY, DEBUGGING
SYMBOL TABLE:
0000000000000000 l    d  .ta_head	0000000000000000 .ta_head
0000000000000020 l    d  .text	0000000000000000 .text
00000000000036ac l    d  .plt	0000000000000000 .plt
0000000000003990 l    d  .eh_frame	0000000000000000 .eh_frame
0000000000004410 l    d  .rodata	0000000000000000 .rodata
0000000000005cb8 l    d  .gnu.hash	0000000000000000 .gnu.hash
0000000000005d28 l    d  .dynsym	0000000000000000 .dynsym
0000000000006328 l    d  .dynstr	0000000000000000 .dynstr
0000000000006748 l    d  .hash	0000000000000000 .hash
00000000000068e8 l    d  .rela.dyn	0000000000000000 .rela.dyn
0000000000007000 l    d  .dynamic	0000000000000000 .dynamic
0000000000007180 l    d  .got	0000000000000000 .got
0000000000007310 l    d  .rela.got	0000000000000000 .rela.got
0000000000007340 l    d  .rela.plt	0000000000000000 .rela.plt
0000000000007760 l    d  .data	0000000000000000 .data
0000000000007978 l    d  .init_array	0000000000000000 .init_array
0000000000007980 l    d  .bss	0000000000000000 .bss
0000000000000000 l    d  .debug_info	0000000000000000 .debug_info
0000000000000000 l    d  .debug_abbrev	0000000000000000 .debug_abbrev
0000000000000000 l    d  .debug_loc	0000000000000000 .debug_loc
0000000000000000 l    d  .debug_aranges	0000000000000000 .debug_aranges
0000000000000000 l    d  .debug_macro	0000000000000000 .debug_macro
0000000000000000 l    d  .debug_line	0000000000000000 .debug_line
0000000000000000 l    d  .debug_str	0000000000000000 .debug_str
0000000000000000 l    d  .comment	0000000000000000 .comment
0000000000000000 l    d  .debug_ranges	0000000000000000 .debug_ranges
0000000000000000 l    df *ABS*	0000000000000000 user_ta_header.c
0000000000004490 l     O .rodata	0000000000000014 __compound_literal.10
00000000000044a4 l     O .rodata	0000000000000010 __compound_literal.9
00000000000044b4 l     O .rodata	0000000000000004 __compound_literal.8
00000000000044b8 l     O .rodata	0000000000000001 __compound_literal.7
00000000000044b9 l     O .rodata	0000000000000001 __compound_literal.6
00000000000044bc l     O .rodata	0000000000000004 __compound_literal.5
00000000000044c0 l     O .rodata	0000000000000004 __compound_literal.4
00000000000044c4 l     O .rodata	0000000000000004 __compound_literal.3
00000000000044c8 l     O .rodata	0000000000000001 __compound_literal.2
00000000000044c9 l     O .rodata	0000000000000001 __compound_literal.1
00000000000044ca l     O .rodata	0000000000000001 __compound_literal.0
0000000000000000 l    df *ABS*	0000000000000000 init.c
0000000000000000 l    df *ABS*	0000000000000000 os_test.c
000000000000006c l     F .text	0000000000000150 iterate_hdr_cb
00000000000001bc l     F .text	0000000000000040 call_longjmp
00000000000001fc l     F .text	000000000000008c test_setjmp
0000000000000288 l     F .text	00000000000000d4 expect_dl_count_ge
000000000000035c l     F .text	000000000000008c check_returned_prop
00000000000003e8 l     F .text	00000000000000f8 check_binprop_ones
00000000000004e0 l     F .text	00000000000008d8 print_properties.constprop.0
0000000000000db8 l     F .text	00000000000003b0 test_properties
0000000000002cbc l     F .text	000000000000004c os_test_init
00000000000044f8 l     O .rodata	000000000000000f __func__.5413
0000000000004507 l     O .rodata	000000000000000d __func__.5228
0000000000004514 l     O .rodata	000000000000000c __func__.5233
0000000000004520 l     O .rodata	0000000000000013 __func__.5419
0000000000004533 l     O .rodata	0000000000000014 __func__.5106
0000000000004547 l     O .rodata	0000000000000013 __func__.5113
000000000000455a l     O .rodata	0000000000000011 __func__.5141
000000000000456b l     O .rodata	0000000000000016 __func__.5122
0000000000004581 l     O .rodata	0000000000000010 __func__.5173
0000000000004591 l     O .rodata	000000000000000c __func__.5164
00000000000045a0 l     O .rodata	0000000000000010 test_uuid.5182
00000000000045b0 l     O .rodata	0000000000000016 __func__.5190
00000000000045c6 l     O .rodata	000000000000000a __func__.5203
00000000000045d0 l     O .rodata	0000000000000008 null_time.5198
00000000000045d8 l     O .rodata	0000000000000008 wrap_time.5199
00000000000045e0 l     O .rodata	000000000000000b __func__.5220
00000000000045eb l     O .rodata	000000000000000a __func__.5224
00000000000045f5 l     O .rodata	000000000000001d __func__.5252
0000000000004614 l     O .rodata	0000000000000010 os_test_uuid.5248
0000000000004624 l     O .rodata	0000000000000003 sha256_in.5263
0000000000004628 l     O .rodata	0000000000000010 crypt_uuid.5257
0000000000004638 l     O .rodata	0000000000000010 __func__.5267
0000000000004648 l     O .rodata	0000000000000020 sha256_out.5264
0000000000004668 l     O .rodata	0000000000000010 test_uuid.5315
0000000000004678 l     O .rodata	0000000000000016 __func__.5325
000000000000468e l     O .rodata	000000000000000d __func__.5389
000000000000469b l     O .rodata	0000000000000019 __func__.5400
0000000000000000 l    df *ABS*	0000000000000000 ta_entry.c
00000000000046e9 l     O .rodata	0000000000000014 __func__.4616
00000000000046fd l     O .rodata	0000000000000015 __func__.4620
0000000000004712 l     O .rodata	0000000000000019 __func__.4626
000000000000472b l     O .rodata	000000000000001a __func__.4630
0000000000000000 l    df *ABS*	0000000000000000 test_float_subj.c
0000000000000000 l    df *ABS*	0000000000000000 attestation.c
0000000000000000 l    df *ABS*	0000000000000000 dlfcn.c
00000000000030b4 l     F .text	00000000000000cc invoke_system_pta.constprop.0
0000000000007980 l     O .bss	0000000000000008 sess
0000000000007988 l     O .bss	0000000000000008 hcount
0000000000000000 l    df *ABS*	0000000000000000 strncmp.c
0000000000000000 l    df *ABS*	0000000000000000 setjmp_a64.o
0000000000000000 l    df *ABS*	0000000000000000 tee_uuid_from_str.c
0000000000003438 l     F .text	000000000000008c parse_hex
0000000000000000 l    df *ABS*	0000000000000000 isxdigit.c
0000000000000000 l    df *ABS*	0000000000000000 tolower.c
0000000000000000 l    df *ABS*	0000000000000000 strnlen.c
0000000000000000 l    df *ABS*	0000000000000000 
0000000000007000 l     O *ABS*	0000000000000000 _DYNAMIC
00000000000072f8 l     O *ABS*	0000000000000000 _GLOBAL_OFFSET_TABLE_
00000000000033fc g     F .text	000000000000003c longjmp
00000000000033c4 g     F .text	0000000000000038 setjmp
0000000000002ca4 g     F .text	0000000000000008 ta_entry_memtag_invalid_tag
0000000000002c34 g     F .text	0000000000000008 ta_entry_tls_test_main
0000000000000000       F *UND*	0000000000000000 printf
0000000000002f50 g     F .text	0000000000000008 test_float_d2lz
0000000000000000       F *UND*	0000000000000000 TEE_InvokeTACommand
00000000000034c4 g     F .text	0000000000000184 tee_uuid_from_str
0000000000001168 g     F .text	0000000000000f40 ta_entry_basic
0000000000000000       O *UND*	0000000000000000 __stack_chk_guard
0000000000002c3c g     F .text	0000000000000008 ta_entry_tls_test_shlib
0000000000002f1c g     F .text	000000000000000c test_float_fcmple
00000000000044d8 g     O .rodata	0000000000000008 ta_heap_size
0000000000002e88 g     F .text	0000000000000008 test_float_dmul
0000000000000020 g       .text	0000000000000000 __text_start
0000000000000000       F *UND*	0000000000000000 TEE_GetNextProperty
0000000000000000       F *UND*	0000000000000000 TEE_GetPropertyAsBinaryBlock
00000000000044d0 g     O .rodata	0000000000000008 __ta_no_share_heap_size
0000000000002f60 g     F .text	0000000000000008 test_float_f2iz
0000000000000000       F *UND*	0000000000000000 trace_printf
0000000000000000       F *UND*	0000000000000000 memcpy
0000000000000000       F *UND*	0000000000000000 TEE_Panic
0000000000000000       F *UND*	0000000000000000 puts
0000000000002ea0 g     F .text	000000000000000c test_float_dcmpeq
0000000000000000       F *UND*	0000000000000000 TEE_GetREETime
0000000000003670 g     F .text	0000000000000014 tolower
0000000000007760 g     O .data	0000000000000210 ta_props
0000000000002e98 g     F .text	0000000000000008 test_float_dsub
0000000000002f98 g     F .text	0000000000000008 test_float_ui2d
0000000000000000       F *UND*	0000000000000000 malloc
0000000000000000       F *UND*	0000000000000000 TEE_FreePropertyEnumerator
0000000000002f04 g     F .text	000000000000000c test_float_fcmpeq
0000000000007970 g     O .data	0000000000000004 trace_level
0000000000004488 g     O .rodata	0000000000000008 ta_num_props
0000000000000000       F *UND*	0000000000000000 os_test_shlib_add
0000000000002918 g     F .text	0000000000000064 ta_entry_null_memref
0000000000002c4c g     F .text	0000000000000050 ta_entry_dl_phdr_dl
00000000000044e0 g     O .rodata	0000000000000003 trace_ext_prefix
0000000000000000       F *UND*	0000000000000000 TEE_Wait
0000000000002d3c g     F .text	0000000000000024 TA_DestroyEntryPoint
0000000000000020 g     F .text	000000000000004c ta_entry_init
00000000000029b0 g     F .text	0000000000000024 ta_entry_call_lib_panic
0000000000003284 g     F .text	0000000000000048 dlclose
0000000000000000       F *UND*	0000000000000000 __utee_tcb_init
0000000000002f40 g     F .text	0000000000000008 test_float_d2iz
0000000000000000       F *UND*	0000000000000000 __stack_chk_fail
0000000000007994 g     O .bss	00000000000e1000 ta_heap
0000000000003648 g     F .text	0000000000000028 isxdigit
0000000000000000       F *UND*	0000000000000000 __utee_call_elf_init_fn
0000000000002d9c g     F .text	0000000000000024 TA_CloseSessionEntryPoint
0000000000002f34 g     F .text	000000000000000c test_float_fcmpgt
0000000000002cac g     F .text	0000000000000008 ta_entry_memtag_double_free
0000000000000000       F *UND*	0000000000000000 _utee_return
0000000000003684 g     F .text	0000000000000028 strnlen
0000000000002dd0 g     F .text	00000000000000a8 TA_InvokeCommandEntryPoint
0000000000002aa4 g     F .text	0000000000000060 ta_entry_call_lib_dl_panic
0000000000000000       F *UND*	0000000000000000 TEE_Malloc
0000000000000000       F *UND*	0000000000000000 TEE_CheckMemoryAccessRights
0000000000000000       F *UND*	0000000000000000 TEE_GetPropertyAsUUID
0000000000002d60 g     F .text	000000000000003c TA_OpenSessionEntryPoint
0000000000000000       F *UND*	0000000000000000 dl_iterate_phdr
0000000000002fb0 g     F .text	0000000000000008 test_float_i2f
00000000000e8998 g       .bss	0000000000000000 __ftrace_buf_end
0000000000002ee4 g     F .text	0000000000000008 test_float_fdiv
0000000000002e80 g     F .text	0000000000000008 test_float_ddiv
00000000000028dc g     F .text	000000000000003c ta_entry_params
000000000000297c g     F .text	0000000000000034 ta_entry_call_lib
0000000000000000       F *UND*	0000000000000000 TEE_GetPropertyAsString
0000000000000000       F *UND*	0000000000000000 TEE_MemMove
0000000000002dc0  w    F .text	0000000000000008 ta_entry_pauth_test_nop
0000000000000000       F *UND*	0000000000000000 TEE_UnmaskCancellation
0000000000002eac g     F .text	000000000000000c test_float_dcmplt
0000000000002f78 g     F .text	0000000000000008 test_float_f2ulz
00000000000e8998 g       .bss	0000000000000000 __ftrace_buf_start
0000000000003388 g     F .text	000000000000003c strncmp
0000000000003180 g     F .text	0000000000000104 dlopen
0000000000000000       F *UND*	0000000000000000 TEE_GetPropertyAsIdentity
00000000000029d4 g     F .text	00000000000000d0 ta_entry_call_lib_dl
0000000000002ed0 g     F .text	000000000000000c test_float_dcmpgt
0000000000002f10 g     F .text	000000000000000c test_float_fcmplt
0000000000002e90 g     F .text	0000000000000008 test_float_drsub
0000000000002fb8 g     F .text	0000000000000008 test_float_ui2f
0000000000000000       F *UND*	0000000000000000 TEE_GetPropertyAsBool
0000000000000000       F *UND*	0000000000000000 __utee_entry
0000000000000000       F *UND*	0000000000000000 TEE_GetPropertyAsU32
00000000000036ac g       .text	0000000000000000 __text_end
0000000000002f70 g     F .text	0000000000000008 test_float_f2lz
00000000000032cc g     F .text	00000000000000bc dlsym
0000000000000000       F *UND*	0000000000000000 TEE_AllocatePropertyEnumerator
0000000000000000       F *UND*	0000000000000000 TEE_SetTAPersistentTime
0000000000000000       F *UND*	0000000000000000 memset
000000000000223c g     F .text	00000000000001a0 ta_entry_client
0000000000000000       F *UND*	0000000000000000 TEE_GetTAPersistentTime
000000000000286c g     F .text	0000000000000070 ta_entry_ta2ta_memref_mix
0000000000000000       F *UND*	0000000000000000 dhex_dump
0000000000002cb4 g     F .text	0000000000000008 ta_entry_memtag_buffer_overrun
0000000000000000       F *UND*	0000000000000000 strcmp
0000000000002458 g     F .text	0000000000000030 ta_entry_wait
0000000000002b04 g     F .text	0000000000000028 ta_entry_get_global_var
00000000000030ac g     F .text	0000000000000008 tahead_get_trace_level
0000000000002e78 g     F .text	0000000000000008 test_float_dadd
00000000000020a8 g     F .text	000000000000003c ta_entry_panic
0000000000000000       F *UND*	0000000000000000 os_test_shlib_panic
0000000000007990 g     O .bss	0000000000000004 os_test_global
0000000000002dc8  w    F .text	0000000000000008 ta_entry_pauth_corrupt_pac
0000000000002f88 g     F .text	0000000000000008 test_float_f2d
0000000000002b2c g     F .text	0000000000000108 ta_entry_client_identity
0000000000002d08 g     F .text	0000000000000034 TA_CreateEntryPoint
0000000000003098 g     F .text	0000000000000014 __ta_entry
00000000000e8994 g     O .bss	0000000000000000 __ta_no_share_heap
0000000000002fc8 g     F .text	0000000000000008 test_float_ul2f
0000000000002edc g     F .text	0000000000000008 test_float_fadd
0000000000002fa8 g     F .text	0000000000000008 test_float_ul2d
0000000000002efc g     F .text	0000000000000008 test_float_fsub
0000000000000000       F *UND*	0000000000000000 TEE_StartPropertyEnumerator
0000000000000000       F *UND*	0000000000000000 TEE_Free
0000000000002f28 g     F .text	000000000000000c test_float_fcmpge
0000000000002c44 g     F .text	0000000000000008 ta_entry_dl_phdr
0000000000000000       F *UND*	0000000000000000 TEE_GetPropertyName
0000000000000000       F *UND*	0000000000000000 TEE_MemCompare
0000000000002f48 g     F .text	0000000000000008 test_float_d2uiz
0000000000002f80 g     F .text	0000000000000008 test_float_d2f
0000000000000000       F *UND*	0000000000000000 TEE_OpenTASession
0000000000002580 g     F .text	00000000000002ec ta_entry_ta2ta_memref
0000000000002ef4 g     F .text	0000000000000008 test_float_frsub
0000000000002fd0 g     F .text	00000000000000c8 ta_entry_attestation
0000000000002eec g     F .text	0000000000000008 test_float_fmul
0000000000000000       F *UND*	0000000000000000 strlen
0000000000002f58 g     F .text	0000000000000008 test_float_d2ulz
0000000000002eb8 g     F .text	000000000000000c test_float_dcmple
0000000000002c9c g     F .text	0000000000000008 ta_entry_memtag_use_after_free
0000000000000000       F *UND*	0000000000000000 TEE_GetSystemTime
0000000000000000 g     O .ta_head	0000000000000020 ta_head
0000000000002488 g     F .text	00000000000000f8 ta_entry_bad_mem_access
0000000000002ec4 g     F .text	000000000000000c test_float_dcmpge
0000000000002fa0 g     F .text	0000000000000008 test_float_l2d
00000000000023dc g     F .text	000000000000007c ta_entry_params_access_rights
0000000000000000       F *UND*	0000000000000000 TEE_CloseTASession
0000000000002fc0 g     F .text	0000000000000008 test_float_l2f
00000000000020e4 g     F .text	0000000000000158 ta_entry_client_with_timeout
0000000000002f90 g     F .text	0000000000000008 test_float_i2d
0000000000002f68 g     F .text	0000000000000008 test_float_f2uiz
0000000000000000       F *UND*	0000000000000000 free



Disassembly of section .text:

0000000000000020 <ta_entry_init>:
ta_entry_init():
/home/ssysarch/Desktop/nick/jetpack_5/Jetson_Linux_R35.4.1_aarch64/Linux_for_Tegra/sources/tegra/optee-src/nv-optee/optee/optee_test/ta/os_test/init.c:11
      20:	a9bd7bfd 	stp	x29, x30, [sp, #-48]!
      24:	910003fd 	mov	x29, sp
      28:	f9000bf3 	str	x19, [sp, #16]
      2c:	f0000033 	adrp	x19, 7000 <_DYNAMIC>
      30:	f9418273 	ldr	x19, [x19, #768]
      34:	f9400260 	ldr	x0, [x19]
      38:	f90017e0 	str	x0, [sp, #40]
      3c:	d2800000 	mov	x0, #0x0                   	// #0
/home/ssysarch/Desktop/nick/jetpack_5/Jetson_Linux_R35.4.1_aarch64/Linux_for_Tegra/sources/tegra/optee-src/nv-optee/optee/optee_test/ta/os_test/init.c:16
      40:	910083e0 	add	x0, sp, #0x20
      44:	94000e1e 	bl	38bc <TEE_GetTAPersistentTime@plt>
/home/ssysarch/Desktop/nick/jetpack_5/Jetson_Linux_R35.4.1_aarch64/Linux_for_Tegra/sources/tegra/optee-src/nv-optee/optee/optee_test/ta/os_test/init.c:17
      48:	f94017e1 	ldr	x1, [sp, #40]
      4c:	f9400262 	ldr	x2, [x19]
      50:	eb020021 	subs	x1, x1, x2
      54:	d2800002 	mov	x2, #0x0                   	// #0
      58:	54000040 	b.eq	60 <ta_entry_init+0x40>  // b.none
      5c:	94000dd4 	bl	37ac <__stack_chk_fail@plt>
      60:	f9400bf3 	ldr	x19, [sp, #16]
      64:	a8c37bfd 	ldp	x29, x30, [sp], #48
      68:	d65f03c0 	ret

000000000000006c <iterate_hdr_cb>:
iterate_hdr_cb():
/home/ssysarch/Desktop/nick/jetpack_5/Jetson_Linux_R35.4.1_aarch64/Linux_for_Tegra/sources/tegra/optee-src/nv-optee/optee/optee_test/ta/os_test/os_test.c:1447
      6c:	a9be7bfd 	stp	x29, x30, [sp, #-32]!
/home/ssysarch/Desktop/nick/jetpack_5/Jetson_Linux_R35.4.1_aarch64/Linux_for_Tegra/sources/tegra/optee-src/nv-optee/optee/optee_test/ta/os_test/os_test.c:1451
      70:	52800023 	mov	w3, #0x1                   	// #1
      74:	5280b561 	mov	w1, #0x5ab                 	// #1451
/home/ssysarch/Desktop/nick/jetpack_5/Jetson_Linux_R35.4.1_aarch64/Linux_for_Tegra/sources/tegra/optee-src/nv-optee/optee/optee_test/ta/os_test/os_test.c:1447
      78:	910003fd 	mov	x29, sp
/home/ssysarch/Desktop/nick/jetpack_5/Jetson_Linux_R35.4.1_aarch64/Linux_for_Tegra/sources/tegra/optee-src/nv-optee/optee/optee_test/ta/os_test/os_test.c:1450
      7c:	b9400045 	ldr	w5, [x2]
/home/ssysarch/Desktop/nick/jetpack_5/Jetson_Linux_R35.4.1_aarch64/Linux_for_Tegra/sources/tegra/optee-src/nv-optee/optee/optee_test/ta/os_test/os_test.c:1451
      80:	90000024 	adrp	x4, 4000 <free@plt+0x684>
      84:	911da084 	add	x4, x4, #0x768
/home/ssysarch/Desktop/nick/jetpack_5/Jetson_Linux_R35.4.1_aarch64/Linux_for_Tegra/sources/tegra/optee-src/nv-optee/optee/optee_test/ta/os_test/os_test.c:1447
      88:	a90153f3 	stp	x19, x20, [sp, #16]
/home/ssysarch/Desktop/nick/jetpack_5/Jetson_Linux_R35.4.1_aarch64/Linux_for_Tegra/sources/tegra/optee-src/nv-optee/optee/optee_test/ta/os_test/os_test.c:1450
      8c:	110004a5 	add	w5, w5, #0x1
/home/ssysarch/Desktop/nick/jetpack_5/Jetson_Linux_R35.4.1_aarch64/Linux_for_Tegra/sources/tegra/optee-src/nv-optee/optee/optee_test/ta/os_test/os_test.c:1447
      90:	aa0003f4 	mov	x20, x0
/home/ssysarch/Desktop/nick/jetpack_5/Jetson_Linux_R35.4.1_aarch64/Linux_for_Tegra/sources/tegra/optee-src/nv-optee/optee/optee_test/ta/os_test/os_test.c:1450
      94:	b9000045 	str	w5, [x2]
/home/ssysarch/Desktop/nick/jetpack_5/Jetson_Linux_R35.4.1_aarch64/Linux_for_Tegra/sources/tegra/optee-src/nv-optee/optee/optee_test/ta/os_test/os_test.c:1451
      98:	90000033 	adrp	x19, 4000 <free@plt+0x684>
      9c:	9113e273 	add	x19, x19, #0x4f8
      a0:	aa1303e0 	mov	x0, x19
      a4:	52800042 	mov	w2, #0x2                   	// #2
      a8:	94000d99 	bl	370c <trace_printf@plt>
/home/ssysarch/Desktop/nick/jetpack_5/Jetson_Linux_R35.4.1_aarch64/Linux_for_Tegra/sources/tegra/optee-src/nv-optee/optee/optee_test/ta/os_test/os_test.c:1452
      ac:	f9400285 	ldr	x5, [x20]
      b0:	aa1303e0 	mov	x0, x19
      b4:	52800023 	mov	w3, #0x1                   	// #1
      b8:	52800042 	mov	w2, #0x2                   	// #2
      bc:	5280b581 	mov	w1, #0x5ac                 	// #1452
      c0:	90000024 	adrp	x4, 4000 <free@plt+0x684>
      c4:	911df484 	add	x4, x4, #0x77d
      c8:	94000d91 	bl	370c <trace_printf@plt>
/home/ssysarch/Desktop/nick/jetpack_5/Jetson_Linux_R35.4.1_aarch64/Linux_for_Tegra/sources/tegra/optee-src/nv-optee/optee/optee_test/ta/os_test/os_test.c:1453
      cc:	f9400685 	ldr	x5, [x20, #8]
      d0:	aa1303e0 	mov	x0, x19
      d4:	52800023 	mov	w3, #0x1                   	// #1
      d8:	52800042 	mov	w2, #0x2                   	// #2
      dc:	5280b5a1 	mov	w1, #0x5ad                 	// #1453
      e0:	90000024 	adrp	x4, 4000 <free@plt+0x684>
      e4:	911e2c84 	add	x4, x4, #0x78b
      e8:	94000d89 	bl	370c <trace_printf@plt>
/home/ssysarch/Desktop/nick/jetpack_5/Jetson_Linux_R35.4.1_aarch64/Linux_for_Tegra/sources/tegra/optee-src/nv-optee/optee/optee_test/ta/os_test/os_test.c:1454
      ec:	f9400a85 	ldr	x5, [x20, #16]
      f0:	aa1303e0 	mov	x0, x19
      f4:	52800023 	mov	w3, #0x1                   	// #1
      f8:	52800042 	mov	w2, #0x2                   	// #2
      fc:	5280b5c1 	mov	w1, #0x5ae                 	// #1454
     100:	90000024 	adrp	x4, 4000 <free@plt+0x684>
     104:	911e6c84 	add	x4, x4, #0x79b
     108:	94000d81 	bl	370c <trace_printf@plt>
/home/ssysarch/Desktop/nick/jetpack_5/Jetson_Linux_R35.4.1_aarch64/Linux_for_Tegra/sources/tegra/optee-src/nv-optee/optee/optee_test/ta/os_test/os_test.c:1455
     10c:	79403285 	ldrh	w5, [x20, #24]
     110:	aa1303e0 	mov	x0, x19
     114:	52800023 	mov	w3, #0x1                   	// #1
     118:	52800042 	mov	w2, #0x2                   	// #2
     11c:	5280b5e1 	mov	w1, #0x5af                 	// #1455
     120:	90000024 	adrp	x4, 4000 <free@plt+0x684>
     124:	911ea484 	add	x4, x4, #0x7a9
     128:	94000d79 	bl	370c <trace_printf@plt>
/home/ssysarch/Desktop/nick/jetpack_5/Jetson_Linux_R35.4.1_aarch64/Linux_for_Tegra/sources/tegra/optee-src/nv-optee/optee/optee_test/ta/os_test/os_test.c:1456
     12c:	f9401285 	ldr	x5, [x20, #32]
     130:	aa1303e0 	mov	x0, x19
     134:	52800023 	mov	w3, #0x1                   	// #1
     138:	52800042 	mov	w2, #0x2                   	// #2
     13c:	5280b601 	mov	w1, #0x5b0                 	// #1456
     140:	90000024 	adrp	x4, 4000 <free@plt+0x684>
     144:	911ee484 	add	x4, x4, #0x7b9
     148:	94000d71 	bl	370c <trace_printf@plt>
/home/ssysarch/Desktop/nick/jetpack_5/Jetson_Linux_R35.4.1_aarch64/Linux_for_Tegra/sources/tegra/optee-src/nv-optee/optee/optee_test/ta/os_test/os_test.c:1457
     14c:	f9401685 	ldr	x5, [x20, #40]
     150:	aa1303e0 	mov	x0, x19
     154:	52800023 	mov	w3, #0x1                   	// #1
     158:	52800042 	mov	w2, #0x2                   	// #2
     15c:	5280b621 	mov	w1, #0x5b1                 	// #1457
     160:	90000024 	adrp	x4, 4000 <free@plt+0x684>
     164:	911f2484 	add	x4, x4, #0x7c9
     168:	94000d69 	bl	370c <trace_printf@plt>
/home/ssysarch/Desktop/nick/jetpack_5/Jetson_Linux_R35.4.1_aarch64/Linux_for_Tegra/sources/tegra/optee-src/nv-optee/optee/optee_test/ta/os_test/os_test.c:1458
     16c:	f9401a85 	ldr	x5, [x20, #48]
     170:	aa1303e0 	mov	x0, x19
     174:	52800023 	mov	w3, #0x1                   	// #1
     178:	52800042 	mov	w2, #0x2                   	// #2
     17c:	5280b641 	mov	w1, #0x5b2                 	// #1458
     180:	90000024 	adrp	x4, 4000 <free@plt+0x684>
     184:	911f6484 	add	x4, x4, #0x7d9
     188:	94000d61 	bl	370c <trace_printf@plt>
/home/ssysarch/Desktop/nick/jetpack_5/Jetson_Linux_R35.4.1_aarch64/Linux_for_Tegra/sources/tegra/optee-src/nv-optee/optee/optee_test/ta/os_test/os_test.c:1459
     18c:	f9401e85 	ldr	x5, [x20, #56]
     190:	aa1303e0 	mov	x0, x19
     194:	52800023 	mov	w3, #0x1                   	// #1
     198:	52800042 	mov	w2, #0x2                   	// #2
     19c:	5280b661 	mov	w1, #0x5b3                 	// #1459
     1a0:	90000024 	adrp	x4, 4000 <free@plt+0x684>
     1a4:	911fb484 	add	x4, x4, #0x7ed
     1a8:	94000d59 	bl	370c <trace_printf@plt>
/home/ssysarch/Desktop/nick/jetpack_5/Jetson_Linux_R35.4.1_aarch64/Linux_for_Tegra/sources/tegra/optee-src/nv-optee/optee/optee_test/ta/os_test/os_test.c:1462
     1ac:	52800f60 	mov	w0, #0x7b                  	// #123
     1b0:	a94153f3 	ldp	x19, x20, [sp, #16]
     1b4:	a8c27bfd 	ldp	x29, x30, [sp], #32
     1b8:	d65f03c0 	ret

00000000000001bc <call_longjmp>:
call_longjmp():
/home/ssysarch/Desktop/nick/jetpack_5/Jetson_Linux_R35.4.1_aarch64/Linux_for_Tegra/sources/tegra/optee-src/nv-optee/optee/optee_test/ta/os_test/os_test.c:800
     1bc:	a9be7bfd 	stp	x29, x30, [sp, #-32]!
/home/ssysarch/Desktop/nick/jetpack_5/Jetson_Linux_R35.4.1_aarch64/Linux_for_Tegra/sources/tegra/optee-src/nv-optee/optee/optee_test/ta/os_test/os_test.c:801
     1c0:	90000024 	adrp	x4, 4000 <free@plt+0x684>
     1c4:	911ffc84 	add	x4, x4, #0x7ff
/home/ssysarch/Desktop/nick/jetpack_5/Jetson_Linux_R35.4.1_aarch64/Linux_for_Tegra/sources/tegra/optee-src/nv-optee/optee/optee_test/ta/os_test/os_test.c:800
     1c8:	910003fd 	mov	x29, sp
/home/ssysarch/Desktop/nick/jetpack_5/Jetson_Linux_R35.4.1_aarch64/Linux_for_Tegra/sources/tegra/optee-src/nv-optee/optee/optee_test/ta/os_test/os_test.c:801
     1cc:	52800023 	mov	w3, #0x1                   	// #1
     1d0:	52800062 	mov	w2, #0x3                   	// #3
/home/ssysarch/Desktop/nick/jetpack_5/Jetson_Linux_R35.4.1_aarch64/Linux_for_Tegra/sources/tegra/optee-src/nv-optee/optee/optee_test/ta/os_test/os_test.c:800
     1d4:	f9000bf3 	str	x19, [sp, #16]
     1d8:	aa0003f3 	mov	x19, x0
/home/ssysarch/Desktop/nick/jetpack_5/Jetson_Linux_R35.4.1_aarch64/Linux_for_Tegra/sources/tegra/optee-src/nv-optee/optee/optee_test/ta/os_test/os_test.c:801
     1dc:	90000020 	adrp	x0, 4000 <free@plt+0x684>
     1e0:	9113e000 	add	x0, x0, #0x4f8
     1e4:	91003c00 	add	x0, x0, #0xf
     1e8:	52806421 	mov	w1, #0x321                 	// #801
     1ec:	94000d48 	bl	370c <trace_printf@plt>
/home/ssysarch/Desktop/nick/jetpack_5/Jetson_Linux_R35.4.1_aarch64/Linux_for_Tegra/sources/tegra/optee-src/nv-optee/optee/optee_test/ta/os_test/os_test.c:802
     1f0:	aa1303e0 	mov	x0, x19
     1f4:	52800021 	mov	w1, #0x1                   	// #1
     1f8:	94000c81 	bl	33fc <longjmp>

00000000000001fc <test_setjmp>:
test_setjmp():
/home/ssysarch/Desktop/nick/jetpack_5/Jetson_Linux_R35.4.1_aarch64/Linux_for_Tegra/sources/tegra/optee-src/nv-optee/optee/optee_test/ta/os_test/os_test.c:807
     1fc:	a9b37bfd 	stp	x29, x30, [sp, #-208]!
     200:	f0000020 	adrp	x0, 7000 <_DYNAMIC>
/home/ssysarch/Desktop/nick/jetpack_5/Jetson_Linux_R35.4.1_aarch64/Linux_for_Tegra/sources/tegra/optee-src/nv-optee/optee/optee_test/ta/os_test/os_test.c:808
     204:	d2801602 	mov	x2, #0xb0                  	// #176
/home/ssysarch/Desktop/nick/jetpack_5/Jetson_Linux_R35.4.1_aarch64/Linux_for_Tegra/sources/tegra/optee-src/nv-optee/optee/optee_test/ta/os_test/os_test.c:807
     208:	910003fd 	mov	x29, sp
/home/ssysarch/Desktop/nick/jetpack_5/Jetson_Linux_R35.4.1_aarch64/Linux_for_Tegra/sources/tegra/optee-src/nv-optee/optee/optee_test/ta/os_test/os_test.c:808
     20c:	910063e3 	add	x3, sp, #0x18
/home/ssysarch/Desktop/nick/jetpack_5/Jetson_Linux_R35.4.1_aarch64/Linux_for_Tegra/sources/tegra/optee-src/nv-optee/optee/optee_test/ta/os_test/os_test.c:807
     210:	f9418000 	ldr	x0, [x0, #768]
     214:	f9400001 	ldr	x1, [x0]
     218:	f90067e1 	str	x1, [sp, #200]
     21c:	d2800001 	mov	x1, #0x0                   	// #0
/home/ssysarch/Desktop/nick/jetpack_5/Jetson_Linux_R35.4.1_aarch64/Linux_for_Tegra/sources/tegra/optee-src/nv-optee/optee/optee_test/ta/os_test/os_test.c:808
     220:	aa0303e0 	mov	x0, x3
     224:	94000da2 	bl	38ac <memset@plt>
/home/ssysarch/Desktop/nick/jetpack_5/Jetson_Linux_R35.4.1_aarch64/Linux_for_Tegra/sources/tegra/optee-src/nv-optee/optee/optee_test/ta/os_test/os_test.c:810
     228:	94000c67 	bl	33c4 <setjmp>
     22c:	34000240 	cbz	w0, 274 <test_setjmp+0x78>
/home/ssysarch/Desktop/nick/jetpack_5/Jetson_Linux_R35.4.1_aarch64/Linux_for_Tegra/sources/tegra/optee-src/nv-optee/optee/optee_test/ta/os_test/os_test.c:811
     230:	90000020 	adrp	x0, 4000 <free@plt+0x684>
     234:	9113e000 	add	x0, x0, #0x4f8
     238:	91007000 	add	x0, x0, #0x1c
     23c:	52800042 	mov	w2, #0x2                   	// #2
     240:	52806561 	mov	w1, #0x32b                 	// #811
     244:	90000024 	adrp	x4, 4000 <free@plt+0x684>
     248:	91203c84 	add	x4, x4, #0x80f
     24c:	52800023 	mov	w3, #0x1                   	// #1
     250:	94000d2f 	bl	370c <trace_printf@plt>
/home/ssysarch/Desktop/nick/jetpack_5/Jetson_Linux_R35.4.1_aarch64/Linux_for_Tegra/sources/tegra/optee-src/nv-optee/optee/optee_test/ta/os_test/os_test.c:817
     254:	f0000020 	adrp	x0, 7000 <_DYNAMIC>
     258:	f9418000 	ldr	x0, [x0, #768]
     25c:	f94067e1 	ldr	x1, [sp, #200]
     260:	f9400002 	ldr	x2, [x0]
     264:	eb020021 	subs	x1, x1, x2
     268:	d2800002 	mov	x2, #0x0                   	// #0
     26c:	54000080 	b.eq	27c <test_setjmp+0x80>  // b.none
     270:	94000d4f 	bl	37ac <__stack_chk_fail@plt>
/home/ssysarch/Desktop/nick/jetpack_5/Jetson_Linux_R35.4.1_aarch64/Linux_for_Tegra/sources/tegra/optee-src/nv-optee/optee/optee_test/ta/os_test/os_test.c:814
     274:	910063e0 	add	x0, sp, #0x18
     278:	97ffffd1 	bl	1bc <call_longjmp>
/home/ssysarch/Desktop/nick/jetpack_5/Jetson_Linux_R35.4.1_aarch64/Linux_for_Tegra/sources/tegra/optee-src/nv-optee/optee/optee_test/ta/os_test/os_test.c:817
     27c:	52800000 	mov	w0, #0x0                   	// #0
     280:	a8cd7bfd 	ldp	x29, x30, [sp], #208
     284:	d65f03c0 	ret

0000000000000288 <expect_dl_count_ge>:
expect_dl_count_ge():
/home/ssysarch/Desktop/nick/jetpack_5/Jetson_Linux_R35.4.1_aarch64/Linux_for_Tegra/sources/tegra/optee-src/nv-optee/optee/optee_test/ta/os_test/os_test.c:1465
     288:	a9bd7bfd 	stp	x29, x30, [sp, #-48]!
     28c:	f0000021 	adrp	x1, 7000 <_DYNAMIC>
     290:	910003fd 	mov	x29, sp
     294:	f9418021 	ldr	x1, [x1, #768]
     298:	f9000bf3 	str	x19, [sp, #16]
     29c:	aa0003f3 	mov	x19, x0
/home/ssysarch/Desktop/nick/jetpack_5/Jetson_Linux_R35.4.1_aarch64/Linux_for_Tegra/sources/tegra/optee-src/nv-optee/optee/optee_test/ta/os_test/os_test.c:1467
     2a0:	f90013ff 	str	xzr, [sp, #32]
/home/ssysarch/Desktop/nick/jetpack_5/Jetson_Linux_R35.4.1_aarch64/Linux_for_Tegra/sources/tegra/optee-src/nv-optee/optee/optee_test/ta/os_test/os_test.c:1465
     2a4:	f9400020 	ldr	x0, [x1]
     2a8:	f90017e0 	str	x0, [sp, #40]
     2ac:	d2800000 	mov	x0, #0x0                   	// #0
/home/ssysarch/Desktop/nick/jetpack_5/Jetson_Linux_R35.4.1_aarch64/Linux_for_Tegra/sources/tegra/optee-src/nv-optee/optee/optee_test/ta/os_test/os_test.c:1469
     2b0:	910083e1 	add	x1, sp, #0x20
     2b4:	90000000 	adrp	x0, 0 <ta_head>
     2b8:	9101b000 	add	x0, x0, #0x6c
     2bc:	94000d54 	bl	380c <dl_iterate_phdr@plt>
/home/ssysarch/Desktop/nick/jetpack_5/Jetson_Linux_R35.4.1_aarch64/Linux_for_Tegra/sources/tegra/optee-src/nv-optee/optee/optee_test/ta/os_test/os_test.c:1470
     2c0:	7101ec1f 	cmp	w0, #0x7b
     2c4:	54000280 	b.eq	314 <expect_dl_count_ge+0x8c>  // b.none
     2c8:	2a0003e5 	mov	w5, w0
/home/ssysarch/Desktop/nick/jetpack_5/Jetson_Linux_R35.4.1_aarch64/Linux_for_Tegra/sources/tegra/optee-src/nv-optee/optee/optee_test/ta/os_test/os_test.c:1475
     2cc:	90000020 	adrp	x0, 4000 <free@plt+0x684>
     2d0:	9113e000 	add	x0, x0, #0x4f8
     2d4:	90000024 	adrp	x4, 4000 <free@plt+0x684>
     2d8:	91209084 	add	x4, x4, #0x824
     2dc:	9100a000 	add	x0, x0, #0x28
     2e0:	52800023 	mov	w3, #0x1                   	// #1
     2e4:	52800022 	mov	w2, #0x1                   	// #1
     2e8:	5280b861 	mov	w1, #0x5c3                 	// #1475
     2ec:	94000d08 	bl	370c <trace_printf@plt>
/home/ssysarch/Desktop/nick/jetpack_5/Jetson_Linux_R35.4.1_aarch64/Linux_for_Tegra/sources/tegra/optee-src/nv-optee/optee/optee_test/ta/os_test/os_test.c:1484
     2f0:	52bfffe0 	mov	w0, #0xffff0000            	// #-65536
/home/ssysarch/Desktop/nick/jetpack_5/Jetson_Linux_R35.4.1_aarch64/Linux_for_Tegra/sources/tegra/optee-src/nv-optee/optee/optee_test/ta/os_test/os_test.c:1488
     2f4:	f0000021 	adrp	x1, 7000 <_DYNAMIC>
     2f8:	f9418021 	ldr	x1, [x1, #768]
     2fc:	f94017e2 	ldr	x2, [sp, #40]
     300:	f9400023 	ldr	x3, [x1]
     304:	eb030042 	subs	x2, x2, x3
     308:	d2800003 	mov	x3, #0x0                   	// #0
     30c:	54000220 	b.eq	350 <expect_dl_count_ge+0xc8>  // b.none
     310:	94000d27 	bl	37ac <__stack_chk_fail@plt>
/home/ssysarch/Desktop/nick/jetpack_5/Jetson_Linux_R35.4.1_aarch64/Linux_for_Tegra/sources/tegra/optee-src/nv-optee/optee/optee_test/ta/os_test/os_test.c:1478
     314:	f94013e6 	ldr	x6, [sp, #32]
/home/ssysarch/Desktop/nick/jetpack_5/Jetson_Linux_R35.4.1_aarch64/Linux_for_Tegra/sources/tegra/optee-src/nv-optee/optee/optee_test/ta/os_test/os_test.c:1487
     318:	52800000 	mov	w0, #0x0                   	// #0
/home/ssysarch/Desktop/nick/jetpack_5/Jetson_Linux_R35.4.1_aarch64/Linux_for_Tegra/sources/tegra/optee-src/nv-optee/optee/optee_test/ta/os_test/os_test.c:1478
     31c:	eb1300df 	cmp	x6, x19
     320:	54fffea2 	b.cs	2f4 <expect_dl_count_ge+0x6c>  // b.hs, b.nlast
/home/ssysarch/Desktop/nick/jetpack_5/Jetson_Linux_R35.4.1_aarch64/Linux_for_Tegra/sources/tegra/optee-src/nv-optee/optee/optee_test/ta/os_test/os_test.c:1483
     324:	90000020 	adrp	x0, 4000 <free@plt+0x684>
     328:	9113e000 	add	x0, x0, #0x4f8
     32c:	aa1303e5 	mov	x5, x19
     330:	9100a000 	add	x0, x0, #0x28
     334:	90000024 	adrp	x4, 4000 <free@plt+0x684>
     338:	91211884 	add	x4, x4, #0x846
     33c:	52800023 	mov	w3, #0x1                   	// #1
     340:	52800022 	mov	w2, #0x1                   	// #1
     344:	5280b961 	mov	w1, #0x5cb                 	// #1483
     348:	94000cf1 	bl	370c <trace_printf@plt>
     34c:	17ffffe9 	b	2f0 <expect_dl_count_ge+0x68>
/home/ssysarch/Desktop/nick/jetpack_5/Jetson_Linux_R35.4.1_aarch64/Linux_for_Tegra/sources/tegra/optee-src/nv-optee/optee/optee_test/ta/os_test/os_test.c:1488
     350:	f9400bf3 	ldr	x19, [sp, #16]
     354:	a8c37bfd 	ldp	x29, x30, [sp], #48
     358:	d65f03c0 	ret

000000000000035c <check_returned_prop>:
check_returned_prop():
/home/ssysarch/Desktop/nick/jetpack_5/Jetson_Linux_R35.4.1_aarch64/Linux_for_Tegra/sources/tegra/optee-src/nv-optee/optee/optee_test/ta/os_test/os_test.c:49
     35c:	d10083ff 	sub	sp, sp, #0x20
     360:	aa0103e6 	mov	x6, x1
/home/ssysarch/Desktop/nick/jetpack_5/Jetson_Linux_R35.4.1_aarch64/Linux_for_Tegra/sources/tegra/optee-src/nv-optee/optee/optee_test/ta/os_test/os_test.c:50
     364:	6b03005f 	cmp	w2, w3
/home/ssysarch/Desktop/nick/jetpack_5/Jetson_Linux_R35.4.1_aarch64/Linux_for_Tegra/sources/tegra/optee-src/nv-optee/optee/optee_test/ta/os_test/os_test.c:49
     368:	a9017bfd 	stp	x29, x30, [sp, #16]
     36c:	910043fd 	add	x29, sp, #0x10
/home/ssysarch/Desktop/nick/jetpack_5/Jetson_Linux_R35.4.1_aarch64/Linux_for_Tegra/sources/tegra/optee-src/nv-optee/optee/optee_test/ta/os_test/os_test.c:50
     370:	54000220 	b.eq	3b4 <check_returned_prop+0x58>  // b.none
/home/ssysarch/Desktop/nick/jetpack_5/Jetson_Linux_R35.4.1_aarch64/Linux_for_Tegra/sources/tegra/optee-src/nv-optee/optee/optee_test/ta/os_test/os_test.c:51 (discriminator 4)
     374:	90000024 	adrp	x4, 4000 <free@plt+0x684>
     378:	91219484 	add	x4, x4, #0x865
     37c:	2a0003e5 	mov	w5, w0
     380:	2a0203e7 	mov	w7, w2
     384:	52800661 	mov	w1, #0x33                  	// #51
     388:	52800022 	mov	w2, #0x1                   	// #1
     38c:	b90003e3 	str	w3, [sp]
     390:	52800023 	mov	w3, #0x1                   	// #1
/home/ssysarch/Desktop/nick/jetpack_5/Jetson_Linux_R35.4.1_aarch64/Linux_for_Tegra/sources/tegra/optee-src/nv-optee/optee/optee_test/ta/os_test/os_test.c:57
     394:	90000020 	adrp	x0, 4000 <free@plt+0x684>
     398:	9113e000 	add	x0, x0, #0x4f8
     39c:	9100ec00 	add	x0, x0, #0x3b
     3a0:	94000cdb 	bl	370c <trace_printf@plt>
     3a4:	52bfffe0 	mov	w0, #0xffff0000            	// #-65536
/home/ssysarch/Desktop/nick/jetpack_5/Jetson_Linux_R35.4.1_aarch64/Linux_for_Tegra/sources/tegra/optee-src/nv-optee/optee/optee_test/ta/os_test/os_test.c:63
     3a8:	a9417bfd 	ldp	x29, x30, [sp, #16]
     3ac:	910083ff 	add	sp, sp, #0x20
     3b0:	d65f03c0 	ret
/home/ssysarch/Desktop/nick/jetpack_5/Jetson_Linux_R35.4.1_aarch64/Linux_for_Tegra/sources/tegra/optee-src/nv-optee/optee/optee_test/ta/os_test/os_test.c:56
     3b4:	6b05009f 	cmp	w4, w5
     3b8:	54000140 	b.eq	3e0 <check_returned_prop+0x84>  // b.none
/home/ssysarch/Desktop/nick/jetpack_5/Jetson_Linux_R35.4.1_aarch64/Linux_for_Tegra/sources/tegra/optee-src/nv-optee/optee/optee_test/ta/os_test/os_test.c:57
     3bc:	2a0403e7 	mov	w7, w4
     3c0:	52800023 	mov	w3, #0x1                   	// #1
     3c4:	90000024 	adrp	x4, 4000 <free@plt+0x684>
     3c8:	9122b484 	add	x4, x4, #0x8ad
     3cc:	52800022 	mov	w2, #0x1                   	// #1
     3d0:	52800721 	mov	w1, #0x39                  	// #57
     3d4:	b90003e5 	str	w5, [sp]
     3d8:	2a0003e5 	mov	w5, w0
     3dc:	17ffffee 	b	394 <check_returned_prop+0x38>
/home/ssysarch/Desktop/nick/jetpack_5/Jetson_Linux_R35.4.1_aarch64/Linux_for_Tegra/sources/tegra/optee-src/nv-optee/optee/optee_test/ta/os_test/os_test.c:62
     3e0:	52800000 	mov	w0, #0x0                   	// #0
     3e4:	17fffff1 	b	3a8 <check_returned_prop+0x4c>

00000000000003e8 <check_binprop_ones>:
check_binprop_ones():
/home/ssysarch/Desktop/nick/jetpack_5/Jetson_Linux_R35.4.1_aarch64/Linux_for_Tegra/sources/tegra/optee-src/nv-optee/optee/optee_test/ta/os_test/os_test.c:66
     3e8:	a9bc7bfd 	stp	x29, x30, [sp, #-64]!
     3ec:	f0000023 	adrp	x3, 7000 <_DYNAMIC>
     3f0:	910003fd 	mov	x29, sp
     3f4:	f9418063 	ldr	x3, [x3, #768]
     3f8:	a90153f3 	stp	x19, x20, [sp, #16]
     3fc:	aa0003f4 	mov	x20, x0
     400:	f9400060 	ldr	x0, [x3]
     404:	f9001fe0 	str	x0, [sp, #56]
     408:	d2800000 	mov	x0, #0x0                   	// #0
     40c:	f90013f5 	str	x21, [sp, #32]
/home/ssysarch/Desktop/nick/jetpack_5/Jetson_Linux_R35.4.1_aarch64/Linux_for_Tegra/sources/tegra/optee-src/nv-optee/optee/optee_test/ta/os_test/os_test.c:67
     410:	12800000 	mov	w0, #0xffffffff            	// #-1
     414:	b90033e0 	str	w0, [sp, #48]
/home/ssysarch/Desktop/nick/jetpack_5/Jetson_Linux_R35.4.1_aarch64/Linux_for_Tegra/sources/tegra/optee-src/nv-optee/optee/optee_test/ta/os_test/os_test.c:69
     418:	eb02029f 	cmp	x20, x2
     41c:	540002a0 	b.eq	470 <check_binprop_ones+0x88>  // b.none
/home/ssysarch/Desktop/nick/jetpack_5/Jetson_Linux_R35.4.1_aarch64/Linux_for_Tegra/sources/tegra/optee-src/nv-optee/optee/optee_test/ta/os_test/os_test.c:70
     420:	90000020 	adrp	x0, 4000 <free@plt+0x684>
     424:	9113e000 	add	x0, x0, #0x4f8
     428:	aa0203e6 	mov	x6, x2
     42c:	90000024 	adrp	x4, 4000 <free@plt+0x684>
     430:	9123c484 	add	x4, x4, #0x8f1
     434:	aa1403e5 	mov	x5, x20
     438:	91013c00 	add	x0, x0, #0x4f
     43c:	52800023 	mov	w3, #0x1                   	// #1
     440:	52800022 	mov	w2, #0x1                   	// #1
     444:	528008c1 	mov	w1, #0x46                  	// #70
     448:	94000cb1 	bl	370c <trace_printf@plt>
/home/ssysarch/Desktop/nick/jetpack_5/Jetson_Linux_R35.4.1_aarch64/Linux_for_Tegra/sources/tegra/optee-src/nv-optee/optee/optee_test/ta/os_test/os_test.c:75
     44c:	52bfffe0 	mov	w0, #0xffff0000            	// #-65536
/home/ssysarch/Desktop/nick/jetpack_5/Jetson_Linux_R35.4.1_aarch64/Linux_for_Tegra/sources/tegra/optee-src/nv-optee/optee/optee_test/ta/os_test/os_test.c:79
     450:	f0000023 	adrp	x3, 7000 <_DYNAMIC>
     454:	f9418063 	ldr	x3, [x3, #768]
     458:	f9401fe1 	ldr	x1, [sp, #56]
     45c:	f9400062 	ldr	x2, [x3]
     460:	eb020021 	subs	x1, x1, x2
     464:	d2800002 	mov	x2, #0x0                   	// #0
     468:	54000340 	b.eq	4d0 <check_binprop_ones+0xe8>  // b.none
     46c:	94000cd0 	bl	37ac <__stack_chk_fail@plt>
     470:	aa0103f5 	mov	x21, x1
/home/ssysarch/Desktop/nick/jetpack_5/Jetson_Linux_R35.4.1_aarch64/Linux_for_Tegra/sources/tegra/optee-src/nv-optee/optee/optee_test/ta/os_test/os_test.c:73
     474:	9100c3e1 	add	x1, sp, #0x30
     478:	aa1503e0 	mov	x0, x21
     47c:	94000bc3 	bl	3388 <strncmp>
     480:	2a0003e1 	mov	w1, w0
/home/ssysarch/Desktop/nick/jetpack_5/Jetson_Linux_R35.4.1_aarch64/Linux_for_Tegra/sources/tegra/optee-src/nv-optee/optee/optee_test/ta/os_test/os_test.c:78
     484:	52800000 	mov	w0, #0x0                   	// #0
/home/ssysarch/Desktop/nick/jetpack_5/Jetson_Linux_R35.4.1_aarch64/Linux_for_Tegra/sources/tegra/optee-src/nv-optee/optee/optee_test/ta/os_test/os_test.c:73
     488:	34fffe41 	cbz	w1, 450 <check_binprop_ones+0x68>
/home/ssysarch/Desktop/nick/jetpack_5/Jetson_Linux_R35.4.1_aarch64/Linux_for_Tegra/sources/tegra/optee-src/nv-optee/optee/optee_test/ta/os_test/os_test.c:74
     48c:	90000033 	adrp	x19, 4000 <free@plt+0x684>
     490:	9113e273 	add	x19, x19, #0x4f8
     494:	91013e73 	add	x19, x19, #0x4f
     498:	52800023 	mov	w3, #0x1                   	// #1
     49c:	aa1303e0 	mov	x0, x19
     4a0:	52800022 	mov	w2, #0x1                   	// #1
     4a4:	52800941 	mov	w1, #0x4a                  	// #74
     4a8:	90000024 	adrp	x4, 4000 <free@plt+0x684>
     4ac:	91244884 	add	x4, x4, #0x912
     4b0:	94000c97 	bl	370c <trace_printf@plt>
/home/ssysarch/Desktop/nick/jetpack_5/Jetson_Linux_R35.4.1_aarch64/Linux_for_Tegra/sources/tegra/optee-src/nv-optee/optee/optee_test/ta/os_test/os_test.c:75
     4b4:	2a1403e4 	mov	w4, w20
     4b8:	aa1503e3 	mov	x3, x21
     4bc:	aa1303e0 	mov	x0, x19
     4c0:	52800062 	mov	w2, #0x3                   	// #3
     4c4:	52800961 	mov	w1, #0x4b                  	// #75
     4c8:	94000d01 	bl	38cc <dhex_dump@plt>
     4cc:	17ffffe0 	b	44c <check_binprop_ones+0x64>
/home/ssysarch/Desktop/nick/jetpack_5/Jetson_Linux_R35.4.1_aarch64/Linux_for_Tegra/sources/tegra/optee-src/nv-optee/optee/optee_test/ta/os_test/os_test.c:79
     4d0:	a94153f3 	ldp	x19, x20, [sp, #16]
     4d4:	f94013f5 	ldr	x21, [sp, #32]
     4d8:	a8c47bfd 	ldp	x29, x30, [sp], #64
     4dc:	d65f03c0 	ret

00000000000004e0 <print_properties.constprop.0>:
print_properties():
/home/ssysarch/Desktop/nick/jetpack_5/Jetson_Linux_R35.4.1_aarch64/Linux_for_Tegra/sources/tegra/optee-src/nv-optee/optee/optee_test/ta/os_test/os_test.c:114
     4e0:	d11343ff 	sub	sp, sp, #0x4d0
     4e4:	a9007bfd 	stp	x29, x30, [sp]
     4e8:	910003fd 	mov	x29, sp
     4ec:	a9046bf9 	stp	x25, x26, [sp, #64]
     4f0:	aa0203f9 	mov	x25, x2
     4f4:	f0000022 	adrp	x2, 7000 <_DYNAMIC>
get_binblock_property():
/home/ssysarch/Desktop/nick/jetpack_5/Jetson_Linux_R35.4.1_aarch64/Linux_for_Tegra/sources/tegra/optee-src/nv-optee/optee/optee_test/ta/os_test/os_test.c:89
     4f8:	910263fa 	add	x26, sp, #0x98
print_properties():
/home/ssysarch/Desktop/nick/jetpack_5/Jetson_Linux_R35.4.1_aarch64/Linux_for_Tegra/sources/tegra/optee-src/nv-optee/optee/optee_test/ta/os_test/os_test.c:114
     4fc:	a90153f3 	stp	x19, x20, [sp, #16]
     500:	f9418042 	ldr	x2, [x2, #768]
     504:	a9025bf5 	stp	x21, x22, [sp, #32]
     508:	aa0003f5 	mov	x21, x0
     50c:	f9400043 	ldr	x3, [x2]
     510:	f90267e3 	str	x3, [sp, #1224]
     514:	d2800003 	mov	x3, #0x0                   	// #0
     518:	a90363f7 	stp	x23, x24, [sp, #48]
     51c:	aa0103f8 	mov	x24, x1
     520:	a90573fb 	stp	x27, x28, [sp, #80]
/home/ssysarch/Desktop/nick/jetpack_5/Jetson_Linux_R35.4.1_aarch64/Linux_for_Tegra/sources/tegra/optee-src/nv-optee/optee/optee_test/ta/os_test/os_test.c:121
     524:	94000cf6 	bl	38fc <TEE_StartPropertyEnumerator@plt>
/home/ssysarch/Desktop/nick/jetpack_5/Jetson_Linux_R35.4.1_aarch64/Linux_for_Tegra/sources/tegra/optee-src/nv-optee/optee/optee_test/ta/os_test/os_test.c:124
     528:	d2801e02 	mov	x2, #0xf0                  	// #240
     52c:	52800001 	mov	w1, #0x0                   	// #0
     530:	910363e0 	add	x0, sp, #0xd8
     534:	a90cffff 	stp	xzr, xzr, [sp, #200]
     538:	94000cdd 	bl	38ac <memset@plt>
/home/ssysarch/Desktop/nick/jetpack_5/Jetson_Linux_R35.4.1_aarch64/Linux_for_Tegra/sources/tegra/optee-src/nv-optee/optee/optee_test/ta/os_test/os_test.c:125
     53c:	d2801e02 	mov	x2, #0xf0                  	// #240
     540:	52800001 	mov	w1, #0x0                   	// #0
     544:	910763e0 	add	x0, sp, #0x1d8
     548:	a91cffff 	stp	xzr, xzr, [sp, #456]
     54c:	94000cd8 	bl	38ac <memset@plt>
/home/ssysarch/Desktop/nick/jetpack_5/Jetson_Linux_R35.4.1_aarch64/Linux_for_Tegra/sources/tegra/optee-src/nv-optee/optee/optee_test/ta/os_test/os_test.c:126
     550:	d2801e02 	mov	x2, #0xf0                  	// #240
     554:	52800001 	mov	w1, #0x0                   	// #0
     558:	910b63e0 	add	x0, sp, #0x2d8
     55c:	f90167ff 	str	xzr, [sp, #712]
     560:	f9016bff 	str	xzr, [sp, #720]
     564:	94000cd2 	bl	38ac <memset@plt>
/home/ssysarch/Desktop/nick/jetpack_5/Jetson_Linux_R35.4.1_aarch64/Linux_for_Tegra/sources/tegra/optee-src/nv-optee/optee/optee_test/ta/os_test/os_test.c:127
     568:	d2801e02 	mov	x2, #0xf0                  	// #240
     56c:	52800001 	mov	w1, #0x0                   	// #0
     570:	910f63e0 	add	x0, sp, #0x3d8
     574:	f901e7ff 	str	xzr, [sp, #968]
     578:	f901ebff 	str	xzr, [sp, #976]
     57c:	94000ccc 	bl	38ac <memset@plt>
/home/ssysarch/Desktop/nick/jetpack_5/Jetson_Linux_R35.4.1_aarch64/Linux_for_Tegra/sources/tegra/optee-src/nv-optee/optee/optee_test/ta/os_test/os_test.c:128
     580:	d2802000 	mov	x0, #0x100                 	// #256
/home/ssysarch/Desktop/nick/jetpack_5/Jetson_Linux_R35.4.1_aarch64/Linux_for_Tegra/sources/tegra/optee-src/nv-optee/optee/optee_test/ta/os_test/os_test.c:135
     584:	910323f4 	add	x20, sp, #0xc8
     588:	9101e3e2 	add	x2, sp, #0x78
     58c:	aa1403e1 	mov	x1, x20
/home/ssysarch/Desktop/nick/jetpack_5/Jetson_Linux_R35.4.1_aarch64/Linux_for_Tegra/sources/tegra/optee-src/nv-optee/optee/optee_test/ta/os_test/os_test.c:129
     590:	a907ffe0 	stp	x0, xzr, [sp, #120]
/home/ssysarch/Desktop/nick/jetpack_5/Jetson_Linux_R35.4.1_aarch64/Linux_for_Tegra/sources/tegra/optee-src/nv-optee/optee/optee_test/ta/os_test/os_test.c:131
     594:	a90883e0 	stp	x0, x0, [sp, #136]
/home/ssysarch/Desktop/nick/jetpack_5/Jetson_Linux_R35.4.1_aarch64/Linux_for_Tegra/sources/tegra/optee-src/nv-optee/optee/optee_test/ta/os_test/os_test.c:135
     598:	aa1503e0 	mov	x0, x21
     59c:	94000ce0 	bl	391c <TEE_GetPropertyName@plt>
     5a0:	2a0003f3 	mov	w19, w0
/home/ssysarch/Desktop/nick/jetpack_5/Jetson_Linux_R35.4.1_aarch64/Linux_for_Tegra/sources/tegra/optee-src/nv-optee/optee/optee_test/ta/os_test/os_test.c:136
     5a4:	34000260 	cbz	w0, 5f0 <print_properties.constprop.0+0x110>
/home/ssysarch/Desktop/nick/jetpack_5/Jetson_Linux_R35.4.1_aarch64/Linux_for_Tegra/sources/tegra/optee-src/nv-optee/optee/optee_test/ta/os_test/os_test.c:137
     5a8:	2a0003e5 	mov	w5, w0
     5ac:	90000020 	adrp	x0, 4000 <free@plt+0x684>
     5b0:	9113e000 	add	x0, x0, #0x4f8
     5b4:	90000024 	adrp	x4, 4000 <free@plt+0x684>
     5b8:	91249484 	add	x4, x4, #0x925
     5bc:	91018800 	add	x0, x0, #0x62
     5c0:	52800023 	mov	w3, #0x1                   	// #1
     5c4:	52800022 	mov	w2, #0x1                   	// #1
     5c8:	52801121 	mov	w1, #0x89                  	// #137
     5cc:	94000c50 	bl	370c <trace_printf@plt>
/home/ssysarch/Desktop/nick/jetpack_5/Jetson_Linux_R35.4.1_aarch64/Linux_for_Tegra/sources/tegra/optee-src/nv-optee/optee/optee_test/ta/os_test/os_test.c:368
     5d0:	f0000022 	adrp	x2, 7000 <_DYNAMIC>
     5d4:	f9418042 	ldr	x2, [x2, #768]
     5d8:	f94267e0 	ldr	x0, [sp, #1224]
     5dc:	f9400041 	ldr	x1, [x2]
     5e0:	eb010000 	subs	x0, x0, x1
     5e4:	d2800001 	mov	x1, #0x0                   	// #0
     5e8:	54003d60 	b.eq	d94 <print_properties.constprop.0+0x8b4>  // b.none
     5ec:	94000c70 	bl	37ac <__stack_chk_fail@plt>
/home/ssysarch/Desktop/nick/jetpack_5/Jetson_Linux_R35.4.1_aarch64/Linux_for_Tegra/sources/tegra/optee-src/nv-optee/optee/optee_test/ta/os_test/os_test.c:141
     5f0:	aa1403e0 	mov	x0, x20
     5f4:	94000cd6 	bl	394c <strlen@plt>
     5f8:	f9403fe5 	ldr	x5, [sp, #120]
     5fc:	91000406 	add	x6, x0, #0x1
     600:	eb0500df 	cmp	x6, x5
     604:	54000180 	b.eq	634 <print_properties.constprop.0+0x154>  // b.none
/home/ssysarch/Desktop/nick/jetpack_5/Jetson_Linux_R35.4.1_aarch64/Linux_for_Tegra/sources/tegra/optee-src/nv-optee/optee/optee_test/ta/os_test/os_test.c:142
     608:	90000024 	adrp	x4, 4000 <free@plt+0x684>
     60c:	91252084 	add	x4, x4, #0x948
     610:	90000020 	adrp	x0, 4000 <free@plt+0x684>
     614:	9113e000 	add	x0, x0, #0x4f8
     618:	52800023 	mov	w3, #0x1                   	// #1
     61c:	52800022 	mov	w2, #0x1                   	// #1
     620:	528011c1 	mov	w1, #0x8e                  	// #142
/home/ssysarch/Desktop/nick/jetpack_5/Jetson_Linux_R35.4.1_aarch64/Linux_for_Tegra/sources/tegra/optee-src/nv-optee/optee/optee_test/ta/os_test/os_test.c:219
     624:	91018800 	add	x0, x0, #0x62
     628:	94000c39 	bl	370c <trace_printf@plt>
/home/ssysarch/Desktop/nick/jetpack_5/Jetson_Linux_R35.4.1_aarch64/Linux_for_Tegra/sources/tegra/optee-src/nv-optee/optee/optee_test/ta/os_test/os_test.c:357
     62c:	52bffff3 	mov	w19, #0xffff0000            	// #-65536
     630:	17ffffe8 	b	5d0 <print_properties.constprop.0+0xf0>
/home/ssysarch/Desktop/nick/jetpack_5/Jetson_Linux_R35.4.1_aarch64/Linux_for_Tegra/sources/tegra/optee-src/nv-optee/optee/optee_test/ta/os_test/os_test.c:149
     634:	d2800040 	mov	x0, #0x2                   	// #2
/home/ssysarch/Desktop/nick/jetpack_5/Jetson_Linux_R35.4.1_aarch64/Linux_for_Tegra/sources/tegra/optee-src/nv-optee/optee/optee_test/ta/os_test/os_test.c:150
     638:	910203f7 	add	x23, sp, #0x80
     63c:	910723f6 	add	x22, sp, #0x1c8
     640:	aa1703e2 	mov	x2, x23
     644:	aa1603e1 	mov	x1, x22
/home/ssysarch/Desktop/nick/jetpack_5/Jetson_Linux_R35.4.1_aarch64/Linux_for_Tegra/sources/tegra/optee-src/nv-optee/optee/optee_test/ta/os_test/os_test.c:149
     648:	f90043e0 	str	x0, [sp, #128]
/home/ssysarch/Desktop/nick/jetpack_5/Jetson_Linux_R35.4.1_aarch64/Linux_for_Tegra/sources/tegra/optee-src/nv-optee/optee/optee_test/ta/os_test/os_test.c:150
     64c:	aa1503e0 	mov	x0, x21
     650:	94000cb3 	bl	391c <TEE_GetPropertyName@plt>
/home/ssysarch/Desktop/nick/jetpack_5/Jetson_Linux_R35.4.1_aarch64/Linux_for_Tegra/sources/tegra/optee-src/nv-optee/optee/optee_test/ta/os_test/os_test.c:151
     654:	b9407be5 	ldr	w5, [sp, #120]
     658:	2a0003e2 	mov	w2, w0
     65c:	b94083e4 	ldr	w4, [sp, #128]
     660:	aa1403e1 	mov	x1, x20
     664:	129ffde3 	mov	w3, #0xffff0010            	// #-65520
     668:	528012e0 	mov	w0, #0x97                  	// #151
     66c:	97ffff3c 	bl	35c <check_returned_prop>
     670:	2a0003f3 	mov	w19, w0
/home/ssysarch/Desktop/nick/jetpack_5/Jetson_Linux_R35.4.1_aarch64/Linux_for_Tegra/sources/tegra/optee-src/nv-optee/optee/optee_test/ta/os_test/os_test.c:153
     674:	35fffae0 	cbnz	w0, 5d0 <print_properties.constprop.0+0xf0>
/home/ssysarch/Desktop/nick/jetpack_5/Jetson_Linux_R35.4.1_aarch64/Linux_for_Tegra/sources/tegra/optee-src/nv-optee/optee/optee_test/ta/os_test/os_test.c:157
     678:	f9403fe0 	ldr	x0, [sp, #120]
/home/ssysarch/Desktop/nick/jetpack_5/Jetson_Linux_R35.4.1_aarch64/Linux_for_Tegra/sources/tegra/optee-src/nv-optee/optee/optee_test/ta/os_test/os_test.c:158
     67c:	aa1703e2 	mov	x2, x23
     680:	aa1603e1 	mov	x1, x22
/home/ssysarch/Desktop/nick/jetpack_5/Jetson_Linux_R35.4.1_aarch64/Linux_for_Tegra/sources/tegra/optee-src/nv-optee/optee/optee_test/ta/os_test/os_test.c:157
     684:	d1000400 	sub	x0, x0, #0x1
     688:	f90043e0 	str	x0, [sp, #128]
/home/ssysarch/Desktop/nick/jetpack_5/Jetson_Linux_R35.4.1_aarch64/Linux_for_Tegra/sources/tegra/optee-src/nv-optee/optee/optee_test/ta/os_test/os_test.c:158
     68c:	aa1503e0 	mov	x0, x21
     690:	94000ca3 	bl	391c <TEE_GetPropertyName@plt>
/home/ssysarch/Desktop/nick/jetpack_5/Jetson_Linux_R35.4.1_aarch64/Linux_for_Tegra/sources/tegra/optee-src/nv-optee/optee/optee_test/ta/os_test/os_test.c:159
     694:	b9407be5 	ldr	w5, [sp, #120]
     698:	2a0003e2 	mov	w2, w0
     69c:	b94083e4 	ldr	w4, [sp, #128]
     6a0:	aa1403e1 	mov	x1, x20
     6a4:	129ffde3 	mov	w3, #0xffff0010            	// #-65520
     6a8:	528013e0 	mov	w0, #0x9f                  	// #159
     6ac:	97ffff2c 	bl	35c <check_returned_prop>
     6b0:	2a0003f3 	mov	w19, w0
/home/ssysarch/Desktop/nick/jetpack_5/Jetson_Linux_R35.4.1_aarch64/Linux_for_Tegra/sources/tegra/optee-src/nv-optee/optee/optee_test/ta/os_test/os_test.c:161
     6b4:	35fff8e0 	cbnz	w0, 5d0 <print_properties.constprop.0+0xf0>
/home/ssysarch/Desktop/nick/jetpack_5/Jetson_Linux_R35.4.1_aarch64/Linux_for_Tegra/sources/tegra/optee-src/nv-optee/optee/optee_test/ta/os_test/os_test.c:165
     6b8:	f9403fe0 	ldr	x0, [sp, #120]
/home/ssysarch/Desktop/nick/jetpack_5/Jetson_Linux_R35.4.1_aarch64/Linux_for_Tegra/sources/tegra/optee-src/nv-optee/optee/optee_test/ta/os_test/os_test.c:166
     6bc:	aa1703e2 	mov	x2, x23
     6c0:	aa1603e1 	mov	x1, x22
/home/ssysarch/Desktop/nick/jetpack_5/Jetson_Linux_R35.4.1_aarch64/Linux_for_Tegra/sources/tegra/optee-src/nv-optee/optee/optee_test/ta/os_test/os_test.c:165
     6c4:	f90043e0 	str	x0, [sp, #128]
/home/ssysarch/Desktop/nick/jetpack_5/Jetson_Linux_R35.4.1_aarch64/Linux_for_Tegra/sources/tegra/optee-src/nv-optee/optee/optee_test/ta/os_test/os_test.c:166
     6c8:	aa1503e0 	mov	x0, x21
     6cc:	94000c94 	bl	391c <TEE_GetPropertyName@plt>
/home/ssysarch/Desktop/nick/jetpack_5/Jetson_Linux_R35.4.1_aarch64/Linux_for_Tegra/sources/tegra/optee-src/nv-optee/optee/optee_test/ta/os_test/os_test.c:167
     6d0:	b9407be5 	ldr	w5, [sp, #120]
     6d4:	2a0003e2 	mov	w2, w0
     6d8:	b94083e4 	ldr	w4, [sp, #128]
     6dc:	aa1403e1 	mov	x1, x20
     6e0:	52800003 	mov	w3, #0x0                   	// #0
     6e4:	528014e0 	mov	w0, #0xa7                  	// #167
     6e8:	97ffff1d 	bl	35c <check_returned_prop>
     6ec:	2a0003f3 	mov	w19, w0
/home/ssysarch/Desktop/nick/jetpack_5/Jetson_Linux_R35.4.1_aarch64/Linux_for_Tegra/sources/tegra/optee-src/nv-optee/optee/optee_test/ta/os_test/os_test.c:169
     6f0:	35fff700 	cbnz	w0, 5d0 <print_properties.constprop.0+0xf0>
/home/ssysarch/Desktop/nick/jetpack_5/Jetson_Linux_R35.4.1_aarch64/Linux_for_Tegra/sources/tegra/optee-src/nv-optee/optee/optee_test/ta/os_test/os_test.c:173
     6f4:	910b23f6 	add	x22, sp, #0x2c8
     6f8:	910223e3 	add	x3, sp, #0x88
     6fc:	aa1603e2 	mov	x2, x22
     700:	d2800001 	mov	x1, #0x0                   	// #0
     704:	aa1503e0 	mov	x0, x21
     708:	94000c45 	bl	381c <TEE_GetPropertyAsString@plt>
     70c:	2a0003f3 	mov	w19, w0
/home/ssysarch/Desktop/nick/jetpack_5/Jetson_Linux_R35.4.1_aarch64/Linux_for_Tegra/sources/tegra/optee-src/nv-optee/optee/optee_test/ta/os_test/os_test.c:175
     710:	aa1603e0 	mov	x0, x22
     714:	94000c8e 	bl	394c <strlen@plt>
/home/ssysarch/Desktop/nick/jetpack_5/Jetson_Linux_R35.4.1_aarch64/Linux_for_Tegra/sources/tegra/optee-src/nv-optee/optee/optee_test/ta/os_test/os_test.c:174
     718:	11000405 	add	w5, w0, #0x1
     71c:	b9408be4 	ldr	w4, [sp, #136]
     720:	2a1303e2 	mov	w2, w19
     724:	aa1403e1 	mov	x1, x20
     728:	52800003 	mov	w3, #0x0                   	// #0
     72c:	528015c0 	mov	w0, #0xae                  	// #174
     730:	97ffff0b 	bl	35c <check_returned_prop>
     734:	2a0003f3 	mov	w19, w0
/home/ssysarch/Desktop/nick/jetpack_5/Jetson_Linux_R35.4.1_aarch64/Linux_for_Tegra/sources/tegra/optee-src/nv-optee/optee/optee_test/ta/os_test/os_test.c:176
     738:	35fff4c0 	cbnz	w0, 5d0 <print_properties.constprop.0+0xf0>
/home/ssysarch/Desktop/nick/jetpack_5/Jetson_Linux_R35.4.1_aarch64/Linux_for_Tegra/sources/tegra/optee-src/nv-optee/optee/optee_test/ta/os_test/os_test.c:179
     73c:	910f23f7 	add	x23, sp, #0x3c8
     740:	910243fb 	add	x27, sp, #0x90
     744:	aa1b03e3 	mov	x3, x27
     748:	aa1703e2 	mov	x2, x23
     74c:	aa1403e1 	mov	x1, x20
     750:	aa1803e0 	mov	x0, x24
     754:	94000c32 	bl	381c <TEE_GetPropertyAsString@plt>
     758:	2a0003f3 	mov	w19, w0
/home/ssysarch/Desktop/nick/jetpack_5/Jetson_Linux_R35.4.1_aarch64/Linux_for_Tegra/sources/tegra/optee-src/nv-optee/optee/optee_test/ta/os_test/os_test.c:181
     75c:	aa1703e0 	mov	x0, x23
     760:	94000c7b 	bl	394c <strlen@plt>
/home/ssysarch/Desktop/nick/jetpack_5/Jetson_Linux_R35.4.1_aarch64/Linux_for_Tegra/sources/tegra/optee-src/nv-optee/optee/optee_test/ta/os_test/os_test.c:180
     764:	11000405 	add	w5, w0, #0x1
     768:	b94093e4 	ldr	w4, [sp, #144]
     76c:	2a1303e2 	mov	w2, w19
     770:	aa1403e1 	mov	x1, x20
     774:	52800003 	mov	w3, #0x0                   	// #0
     778:	52801680 	mov	w0, #0xb4                  	// #180
     77c:	97fffef8 	bl	35c <check_returned_prop>
     780:	2a0003f3 	mov	w19, w0
/home/ssysarch/Desktop/nick/jetpack_5/Jetson_Linux_R35.4.1_aarch64/Linux_for_Tegra/sources/tegra/optee-src/nv-optee/optee/optee_test/ta/os_test/os_test.c:182
     784:	35fff260 	cbnz	w0, 5d0 <print_properties.constprop.0+0xf0>
/home/ssysarch/Desktop/nick/jetpack_5/Jetson_Linux_R35.4.1_aarch64/Linux_for_Tegra/sources/tegra/optee-src/nv-optee/optee/optee_test/ta/os_test/os_test.c:185
     788:	aa1703e1 	mov	x1, x23
     78c:	aa1603e0 	mov	x0, x22
     790:	94000c53 	bl	38dc <strcmp@plt>
     794:	34000180 	cbz	w0, 7c4 <print_properties.constprop.0+0x2e4>
/home/ssysarch/Desktop/nick/jetpack_5/Jetson_Linux_R35.4.1_aarch64/Linux_for_Tegra/sources/tegra/optee-src/nv-optee/optee/optee_test/ta/os_test/os_test.c:186
     798:	90000024 	adrp	x4, 4000 <free@plt+0x684>
     79c:	9125a084 	add	x4, x4, #0x968
     7a0:	90000020 	adrp	x0, 4000 <free@plt+0x684>
     7a4:	9113e000 	add	x0, x0, #0x4f8
     7a8:	aa1403e5 	mov	x5, x20
     7ac:	52800023 	mov	w3, #0x1                   	// #1
     7b0:	52800022 	mov	w2, #0x1                   	// #1
     7b4:	52801741 	mov	w1, #0xba                  	// #186
/home/ssysarch/Desktop/nick/jetpack_5/Jetson_Linux_R35.4.1_aarch64/Linux_for_Tegra/sources/tegra/optee-src/nv-optee/optee/optee_test/ta/os_test/os_test.c:231
     7b8:	91018800 	add	x0, x0, #0x62
/home/ssysarch/Desktop/nick/jetpack_5/Jetson_Linux_R35.4.1_aarch64/Linux_for_Tegra/sources/tegra/optee-src/nv-optee/optee/optee_test/ta/os_test/os_test.c:315
     7bc:	94000bd4 	bl	370c <trace_printf@plt>
/home/ssysarch/Desktop/nick/jetpack_5/Jetson_Linux_R35.4.1_aarch64/Linux_for_Tegra/sources/tegra/optee-src/nv-optee/optee/optee_test/ta/os_test/os_test.c:316
     7c0:	17ffff9b 	b	62c <print_properties.constprop.0+0x14c>
/home/ssysarch/Desktop/nick/jetpack_5/Jetson_Linux_R35.4.1_aarch64/Linux_for_Tegra/sources/tegra/optee-src/nv-optee/optee/optee_test/ta/os_test/os_test.c:191
     7c4:	f94047e0 	ldr	x0, [sp, #136]
     7c8:	f100041f 	cmp	x0, #0x1
     7cc:	54000688 	b.hi	89c <print_properties.constprop.0+0x3bc>  // b.pmore
/home/ssysarch/Desktop/nick/jetpack_5/Jetson_Linux_R35.4.1_aarch64/Linux_for_Tegra/sources/tegra/optee-src/nv-optee/optee/optee_test/ta/os_test/os_test.c:202
     7d0:	f94047e0 	ldr	x0, [sp, #136]
/home/ssysarch/Desktop/nick/jetpack_5/Jetson_Linux_R35.4.1_aarch64/Linux_for_Tegra/sources/tegra/optee-src/nv-optee/optee/optee_test/ta/os_test/os_test.c:203
     7d4:	aa1b03e3 	mov	x3, x27
     7d8:	aa1703e2 	mov	x2, x23
     7dc:	aa1403e1 	mov	x1, x20
/home/ssysarch/Desktop/nick/jetpack_5/Jetson_Linux_R35.4.1_aarch64/Linux_for_Tegra/sources/tegra/optee-src/nv-optee/optee/optee_test/ta/os_test/os_test.c:202
     7e0:	d1000400 	sub	x0, x0, #0x1
     7e4:	f9004be0 	str	x0, [sp, #144]
/home/ssysarch/Desktop/nick/jetpack_5/Jetson_Linux_R35.4.1_aarch64/Linux_for_Tegra/sources/tegra/optee-src/nv-optee/optee/optee_test/ta/os_test/os_test.c:203
     7e8:	aa1803e0 	mov	x0, x24
     7ec:	94000c0c 	bl	381c <TEE_GetPropertyAsString@plt>
/home/ssysarch/Desktop/nick/jetpack_5/Jetson_Linux_R35.4.1_aarch64/Linux_for_Tegra/sources/tegra/optee-src/nv-optee/optee/optee_test/ta/os_test/os_test.c:204
     7f0:	b9408be5 	ldr	w5, [sp, #136]
     7f4:	2a0003e2 	mov	w2, w0
     7f8:	b94093e4 	ldr	w4, [sp, #144]
     7fc:	aa1403e1 	mov	x1, x20
     800:	129ffde3 	mov	w3, #0xffff0010            	// #-65520
     804:	52801980 	mov	w0, #0xcc                  	// #204
     808:	97fffed5 	bl	35c <check_returned_prop>
     80c:	2a0003f3 	mov	w19, w0
/home/ssysarch/Desktop/nick/jetpack_5/Jetson_Linux_R35.4.1_aarch64/Linux_for_Tegra/sources/tegra/optee-src/nv-optee/optee/optee_test/ta/os_test/os_test.c:206
     810:	35ffee00 	cbnz	w0, 5d0 <print_properties.constprop.0+0xf0>
/home/ssysarch/Desktop/nick/jetpack_5/Jetson_Linux_R35.4.1_aarch64/Linux_for_Tegra/sources/tegra/optee-src/nv-optee/optee/optee_test/ta/os_test/os_test.c:210
     814:	f94047e0 	ldr	x0, [sp, #136]
/home/ssysarch/Desktop/nick/jetpack_5/Jetson_Linux_R35.4.1_aarch64/Linux_for_Tegra/sources/tegra/optee-src/nv-optee/optee/optee_test/ta/os_test/os_test.c:211
     818:	aa1b03e3 	mov	x3, x27
     81c:	aa1703e2 	mov	x2, x23
     820:	aa1403e1 	mov	x1, x20
/home/ssysarch/Desktop/nick/jetpack_5/Jetson_Linux_R35.4.1_aarch64/Linux_for_Tegra/sources/tegra/optee-src/nv-optee/optee/optee_test/ta/os_test/os_test.c:210
     824:	f9004be0 	str	x0, [sp, #144]
/home/ssysarch/Desktop/nick/jetpack_5/Jetson_Linux_R35.4.1_aarch64/Linux_for_Tegra/sources/tegra/optee-src/nv-optee/optee/optee_test/ta/os_test/os_test.c:211
     828:	aa1803e0 	mov	x0, x24
     82c:	94000bfc 	bl	381c <TEE_GetPropertyAsString@plt>
/home/ssysarch/Desktop/nick/jetpack_5/Jetson_Linux_R35.4.1_aarch64/Linux_for_Tegra/sources/tegra/optee-src/nv-optee/optee/optee_test/ta/os_test/os_test.c:212
     830:	2a0003e2 	mov	w2, w0
     834:	b9408be5 	ldr	w5, [sp, #136]
     838:	aa1403e1 	mov	x1, x20
     83c:	b94093e4 	ldr	w4, [sp, #144]
     840:	52800003 	mov	w3, #0x0                   	// #0
     844:	52801a80 	mov	w0, #0xd4                  	// #212
     848:	97fffec5 	bl	35c <check_returned_prop>
     84c:	2a0003f3 	mov	w19, w0
/home/ssysarch/Desktop/nick/jetpack_5/Jetson_Linux_R35.4.1_aarch64/Linux_for_Tegra/sources/tegra/optee-src/nv-optee/optee/optee_test/ta/os_test/os_test.c:213
     850:	35ffec00 	cbnz	w0, 5d0 <print_properties.constprop.0+0xf0>
/home/ssysarch/Desktop/nick/jetpack_5/Jetson_Linux_R35.4.1_aarch64/Linux_for_Tegra/sources/tegra/optee-src/nv-optee/optee/optee_test/ta/os_test/os_test.c:217
     854:	aa1403e1 	mov	x1, x20
     858:	90000020 	adrp	x0, 4000 <free@plt+0x684>
     85c:	91260000 	add	x0, x0, #0x980
     860:	90000033 	adrp	x19, 4000 <free@plt+0x684>
     864:	94000c1e 	bl	38dc <strcmp@plt>
     868:	350003c0 	cbnz	w0, 8e0 <print_properties.constprop.0+0x400>
     86c:	f9404be0 	ldr	x0, [sp, #144]
     870:	f102201f 	cmp	x0, #0x88
     874:	54000360 	b.eq	8e0 <print_properties.constprop.0+0x400>  // b.none
/home/ssysarch/Desktop/nick/jetpack_5/Jetson_Linux_R35.4.1_aarch64/Linux_for_Tegra/sources/tegra/optee-src/nv-optee/optee/optee_test/ta/os_test/os_test.c:219
     878:	90000024 	adrp	x4, 4000 <free@plt+0x684>
     87c:	91263484 	add	x4, x4, #0x98d
     880:	9113e260 	add	x0, x19, #0x4f8
     884:	aa1603e6 	mov	x6, x22
     888:	aa1403e5 	mov	x5, x20
     88c:	52800023 	mov	w3, #0x1                   	// #1
     890:	52800022 	mov	w2, #0x1                   	// #1
     894:	52801b61 	mov	w1, #0xdb                  	// #219
     898:	17ffff63 	b	624 <print_properties.constprop.0+0x144>
/home/ssysarch/Desktop/nick/jetpack_5/Jetson_Linux_R35.4.1_aarch64/Linux_for_Tegra/sources/tegra/optee-src/nv-optee/optee/optee_test/ta/os_test/os_test.c:192
     89c:	d2800020 	mov	x0, #0x1                   	// #1
/home/ssysarch/Desktop/nick/jetpack_5/Jetson_Linux_R35.4.1_aarch64/Linux_for_Tegra/sources/tegra/optee-src/nv-optee/optee/optee_test/ta/os_test/os_test.c:193
     8a0:	aa1b03e3 	mov	x3, x27
     8a4:	aa1703e2 	mov	x2, x23
     8a8:	aa1403e1 	mov	x1, x20
/home/ssysarch/Desktop/nick/jetpack_5/Jetson_Linux_R35.4.1_aarch64/Linux_for_Tegra/sources/tegra/optee-src/nv-optee/optee/optee_test/ta/os_test/os_test.c:192
     8ac:	f9004be0 	str	x0, [sp, #144]
/home/ssysarch/Desktop/nick/jetpack_5/Jetson_Linux_R35.4.1_aarch64/Linux_for_Tegra/sources/tegra/optee-src/nv-optee/optee/optee_test/ta/os_test/os_test.c:193
     8b0:	aa1803e0 	mov	x0, x24
     8b4:	94000bda 	bl	381c <TEE_GetPropertyAsString@plt>
/home/ssysarch/Desktop/nick/jetpack_5/Jetson_Linux_R35.4.1_aarch64/Linux_for_Tegra/sources/tegra/optee-src/nv-optee/optee/optee_test/ta/os_test/os_test.c:194
     8b8:	2a0003e2 	mov	w2, w0
     8bc:	b9408be5 	ldr	w5, [sp, #136]
     8c0:	aa1403e1 	mov	x1, x20
     8c4:	b94093e4 	ldr	w4, [sp, #144]
     8c8:	129ffde3 	mov	w3, #0xffff0010            	// #-65520
     8cc:	52801840 	mov	w0, #0xc2                  	// #194
     8d0:	97fffea3 	bl	35c <check_returned_prop>
     8d4:	2a0003f3 	mov	w19, w0
/home/ssysarch/Desktop/nick/jetpack_5/Jetson_Linux_R35.4.1_aarch64/Linux_for_Tegra/sources/tegra/optee-src/nv-optee/optee/optee_test/ta/os_test/os_test.c:197
     8d8:	34fff7c0 	cbz	w0, 7d0 <print_properties.constprop.0+0x2f0>
     8dc:	17ffff3d 	b	5d0 <print_properties.constprop.0+0xf0>
/home/ssysarch/Desktop/nick/jetpack_5/Jetson_Linux_R35.4.1_aarch64/Linux_for_Tegra/sources/tegra/optee-src/nv-optee/optee/optee_test/ta/os_test/os_test.c:224
     8e0:	9113e260 	add	x0, x19, #0x4f8
     8e4:	aa1603e6 	mov	x6, x22
     8e8:	91018800 	add	x0, x0, #0x62
     8ec:	aa1403e5 	mov	x5, x20
     8f0:	90000024 	adrp	x4, 4000 <free@plt+0x684>
     8f4:	91272484 	add	x4, x4, #0x9c9
     8f8:	52800023 	mov	w3, #0x1                   	// #1
     8fc:	52800062 	mov	w2, #0x3                   	// #3
     900:	52801c01 	mov	w1, #0xe0                  	// #224
     904:	94000b82 	bl	370c <trace_printf@plt>
/home/ssysarch/Desktop/nick/jetpack_5/Jetson_Linux_R35.4.1_aarch64/Linux_for_Tegra/sources/tegra/optee-src/nv-optee/optee/optee_test/ta/os_test/os_test.c:226
     908:	91090320 	add	x0, x25, #0x240
     90c:	aa1903f7 	mov	x23, x25
     910:	f90033e0 	str	x0, [sp, #96]
     914:	90000020 	adrp	x0, 4000 <free@plt+0x684>
     918:	91139000 	add	x0, x0, #0x4e4
     91c:	f90037e0 	str	x0, [sp, #104]
/home/ssysarch/Desktop/nick/jetpack_5/Jetson_Linux_R35.4.1_aarch64/Linux_for_Tegra/sources/tegra/optee-src/nv-optee/optee/optee_test/ta/os_test/os_test.c:227
     920:	f94002f6 	ldr	x22, [x23]
     924:	aa1403e0 	mov	x0, x20
     928:	aa1603e1 	mov	x1, x22
     92c:	94000bec 	bl	38dc <strcmp@plt>
     930:	350018a0 	cbnz	w0, c44 <print_properties.constprop.0+0x764>
/home/ssysarch/Desktop/nick/jetpack_5/Jetson_Linux_R35.4.1_aarch64/Linux_for_Tegra/sources/tegra/optee-src/nv-optee/optee/optee_test/ta/os_test/os_test.c:230
     934:	394032e0 	ldrb	w0, [x23, #12]
     938:	34000120 	cbz	w0, 95c <print_properties.constprop.0+0x47c>
/home/ssysarch/Desktop/nick/jetpack_5/Jetson_Linux_R35.4.1_aarch64/Linux_for_Tegra/sources/tegra/optee-src/nv-optee/optee/optee_test/ta/os_test/os_test.c:231
     93c:	90000024 	adrp	x4, 4000 <free@plt+0x684>
     940:	91278084 	add	x4, x4, #0x9e0
     944:	9113e260 	add	x0, x19, #0x4f8
     948:	aa1603e5 	mov	x5, x22
     94c:	52800023 	mov	w3, #0x1                   	// #1
     950:	52800022 	mov	w2, #0x1                   	// #1
     954:	52801ce1 	mov	w1, #0xe7                  	// #231
     958:	17ffff98 	b	7b8 <print_properties.constprop.0+0x2d8>
/home/ssysarch/Desktop/nick/jetpack_5/Jetson_Linux_R35.4.1_aarch64/Linux_for_Tegra/sources/tegra/optee-src/nv-optee/optee/optee_test/ta/os_test/os_test.c:237
     95c:	b9400ae5 	ldr	w5, [x23, #8]
/home/ssysarch/Desktop/nick/jetpack_5/Jetson_Linux_R35.4.1_aarch64/Linux_for_Tegra/sources/tegra/optee-src/nv-optee/optee/optee_test/ta/os_test/os_test.c:235
     960:	52800023 	mov	w3, #0x1                   	// #1
     964:	390032e3 	strb	w3, [x23, #12]
/home/ssysarch/Desktop/nick/jetpack_5/Jetson_Linux_R35.4.1_aarch64/Linux_for_Tegra/sources/tegra/optee-src/nv-optee/optee/optee_test/ta/os_test/os_test.c:237
     968:	710014bf 	cmp	w5, #0x5
     96c:	54002028 	b.hi	d70 <print_properties.constprop.0+0x890>  // b.pmore
     970:	f94037e0 	ldr	x0, [sp, #104]
     974:	78655800 	ldrh	w0, [x0, w5, uxtw #1]
     978:	10000061 	adr	x1, 984 <print_properties.constprop.0+0x4a4>
     97c:	8b20a820 	add	x0, x1, w0, sxth #2
     980:	d61f0000 	br	x0
/home/ssysarch/Desktop/nick/jetpack_5/Jetson_Linux_R35.4.1_aarch64/Linux_for_Tegra/sources/tegra/optee-src/nv-optee/optee/optee_test/ta/os_test/os_test.c:243
     984:	aa1a03e2 	mov	x2, x26
     988:	aa1503e0 	mov	x0, x21
     98c:	d2800001 	mov	x1, #0x0                   	// #0
/home/ssysarch/Desktop/nick/jetpack_5/Jetson_Linux_R35.4.1_aarch64/Linux_for_Tegra/sources/tegra/optee-src/nv-optee/optee/optee_test/ta/os_test/os_test.c:240
     990:	390263ff 	strb	wzr, [sp, #152]
/home/ssysarch/Desktop/nick/jetpack_5/Jetson_Linux_R35.4.1_aarch64/Linux_for_Tegra/sources/tegra/optee-src/nv-optee/optee/optee_test/ta/os_test/os_test.c:243
     994:	94000bb2 	bl	385c <TEE_GetPropertyAsBool@plt>
     998:	2a0003f6 	mov	w22, w0
/home/ssysarch/Desktop/nick/jetpack_5/Jetson_Linux_R35.4.1_aarch64/Linux_for_Tegra/sources/tegra/optee-src/nv-optee/optee/optee_test/ta/os_test/os_test.c:244
     99c:	34001540 	cbz	w0, c44 <print_properties.constprop.0+0x764>
/home/ssysarch/Desktop/nick/jetpack_5/Jetson_Linux_R35.4.1_aarch64/Linux_for_Tegra/sources/tegra/optee-src/nv-optee/optee/optee_test/ta/os_test/os_test.c:245
     9a0:	90000024 	adrp	x4, 4000 <free@plt+0x684>
     9a4:	9127f884 	add	x4, x4, #0x9fe
     9a8:	9113e260 	add	x0, x19, #0x4f8
     9ac:	2a1603e6 	mov	w6, w22
     9b0:	aa1403e5 	mov	x5, x20
     9b4:	52800023 	mov	w3, #0x1                   	// #1
     9b8:	52800022 	mov	w2, #0x1                   	// #1
     9bc:	52801ea1 	mov	w1, #0xf5                  	// #245
/home/ssysarch/Desktop/nick/jetpack_5/Jetson_Linux_R35.4.1_aarch64/Linux_for_Tegra/sources/tegra/optee-src/nv-optee/optee/optee_test/ta/os_test/os_test.c:290
     9c0:	91018800 	add	x0, x0, #0x62
     9c4:	94000b52 	bl	370c <trace_printf@plt>
/home/ssysarch/Desktop/nick/jetpack_5/Jetson_Linux_R35.4.1_aarch64/Linux_for_Tegra/sources/tegra/optee-src/nv-optee/optee/optee_test/ta/os_test/os_test.c:304
     9c8:	2a1603f3 	mov	w19, w22
     9cc:	17ffff01 	b	5d0 <print_properties.constprop.0+0xf0>
/home/ssysarch/Desktop/nick/jetpack_5/Jetson_Linux_R35.4.1_aarch64/Linux_for_Tegra/sources/tegra/optee-src/nv-optee/optee/optee_test/ta/os_test/os_test.c:257
     9d0:	aa1a03e2 	mov	x2, x26
     9d4:	aa1503e0 	mov	x0, x21
     9d8:	d2800001 	mov	x1, #0x0                   	// #0
/home/ssysarch/Desktop/nick/jetpack_5/Jetson_Linux_R35.4.1_aarch64/Linux_for_Tegra/sources/tegra/optee-src/nv-optee/optee/optee_test/ta/os_test/os_test.c:255
     9dc:	b9009bff 	str	wzr, [sp, #152]
/home/ssysarch/Desktop/nick/jetpack_5/Jetson_Linux_R35.4.1_aarch64/Linux_for_Tegra/sources/tegra/optee-src/nv-optee/optee/optee_test/ta/os_test/os_test.c:257
     9e0:	94000ba7 	bl	387c <TEE_GetPropertyAsU32@plt>
     9e4:	2a0003f6 	mov	w22, w0
/home/ssysarch/Desktop/nick/jetpack_5/Jetson_Linux_R35.4.1_aarch64/Linux_for_Tegra/sources/tegra/optee-src/nv-optee/optee/optee_test/ta/os_test/os_test.c:258
     9e8:	340012e0 	cbz	w0, c44 <print_properties.constprop.0+0x764>
/home/ssysarch/Desktop/nick/jetpack_5/Jetson_Linux_R35.4.1_aarch64/Linux_for_Tegra/sources/tegra/optee-src/nv-optee/optee/optee_test/ta/os_test/os_test.c:259
     9ec:	90000024 	adrp	x4, 4000 <free@plt+0x684>
     9f0:	9128a484 	add	x4, x4, #0xa29
     9f4:	9113e260 	add	x0, x19, #0x4f8
     9f8:	2a1603e6 	mov	w6, w22
     9fc:	aa1403e5 	mov	x5, x20
     a00:	52800023 	mov	w3, #0x1                   	// #1
     a04:	52800022 	mov	w2, #0x1                   	// #1
     a08:	52802061 	mov	w1, #0x103                 	// #259
     a0c:	17ffffed 	b	9c0 <print_properties.constprop.0+0x4e0>
/home/ssysarch/Desktop/nick/jetpack_5/Jetson_Linux_R35.4.1_aarch64/Linux_for_Tegra/sources/tegra/optee-src/nv-optee/optee/optee_test/ta/os_test/os_test.c:272
     a10:	910283e2 	add	x2, sp, #0xa0
     a14:	aa1503e0 	mov	x0, x21
     a18:	d2800001 	mov	x1, #0x0                   	// #0
/home/ssysarch/Desktop/nick/jetpack_5/Jetson_Linux_R35.4.1_aarch64/Linux_for_Tegra/sources/tegra/optee-src/nv-optee/optee/optee_test/ta/os_test/os_test.c:269
     a1c:	a90a7fff 	stp	xzr, xzr, [sp, #160]
/home/ssysarch/Desktop/nick/jetpack_5/Jetson_Linux_R35.4.1_aarch64/Linux_for_Tegra/sources/tegra/optee-src/nv-optee/optee/optee_test/ta/os_test/os_test.c:272
     a20:	94000b77 	bl	37fc <TEE_GetPropertyAsUUID@plt>
     a24:	2a0003f6 	mov	w22, w0
/home/ssysarch/Desktop/nick/jetpack_5/Jetson_Linux_R35.4.1_aarch64/Linux_for_Tegra/sources/tegra/optee-src/nv-optee/optee/optee_test/ta/os_test/os_test.c:273
     a28:	340010e0 	cbz	w0, c44 <print_properties.constprop.0+0x764>
/home/ssysarch/Desktop/nick/jetpack_5/Jetson_Linux_R35.4.1_aarch64/Linux_for_Tegra/sources/tegra/optee-src/nv-optee/optee/optee_test/ta/os_test/os_test.c:274
     a2c:	90000024 	adrp	x4, 4000 <free@plt+0x684>
     a30:	91294c84 	add	x4, x4, #0xa53
     a34:	9113e260 	add	x0, x19, #0x4f8
     a38:	2a1603e6 	mov	w6, w22
     a3c:	aa1403e5 	mov	x5, x20
     a40:	52800023 	mov	w3, #0x1                   	// #1
     a44:	52800022 	mov	w2, #0x1                   	// #1
     a48:	52802241 	mov	w1, #0x112                 	// #274
     a4c:	17ffffdd 	b	9c0 <print_properties.constprop.0+0x4e0>
/home/ssysarch/Desktop/nick/jetpack_5/Jetson_Linux_R35.4.1_aarch64/Linux_for_Tegra/sources/tegra/optee-src/nv-optee/optee/optee_test/ta/os_test/os_test.c:287
     a50:	910283e2 	add	x2, sp, #0xa0
     a54:	aa1503e0 	mov	x0, x21
     a58:	d2800001 	mov	x1, #0x0                   	// #0
/home/ssysarch/Desktop/nick/jetpack_5/Jetson_Linux_R35.4.1_aarch64/Linux_for_Tegra/sources/tegra/optee-src/nv-optee/optee/optee_test/ta/os_test/os_test.c:284
     a5c:	a90a7fff 	stp	xzr, xzr, [sp, #160]
     a60:	b900b3ff 	str	wzr, [sp, #176]
/home/ssysarch/Desktop/nick/jetpack_5/Jetson_Linux_R35.4.1_aarch64/Linux_for_Tegra/sources/tegra/optee-src/nv-optee/optee/optee_test/ta/os_test/os_test.c:287
     a64:	94000b7a 	bl	384c <TEE_GetPropertyAsIdentity@plt>
     a68:	2a0003f6 	mov	w22, w0
/home/ssysarch/Desktop/nick/jetpack_5/Jetson_Linux_R35.4.1_aarch64/Linux_for_Tegra/sources/tegra/optee-src/nv-optee/optee/optee_test/ta/os_test/os_test.c:289
     a6c:	34000ec0 	cbz	w0, c44 <print_properties.constprop.0+0x764>
/home/ssysarch/Desktop/nick/jetpack_5/Jetson_Linux_R35.4.1_aarch64/Linux_for_Tegra/sources/tegra/optee-src/nv-optee/optee/optee_test/ta/os_test/os_test.c:290
     a70:	90000024 	adrp	x4, 4000 <free@plt+0x684>
     a74:	9129f884 	add	x4, x4, #0xa7e
     a78:	9113e260 	add	x0, x19, #0x4f8
     a7c:	2a1603e6 	mov	w6, w22
     a80:	aa1403e5 	mov	x5, x20
     a84:	52800023 	mov	w3, #0x1                   	// #1
     a88:	52800022 	mov	w2, #0x1                   	// #1
     a8c:	52802441 	mov	w1, #0x122                 	// #290
     a90:	17ffffcc 	b	9c0 <print_properties.constprop.0+0x4e0>
get_binblock_property():
/home/ssysarch/Desktop/nick/jetpack_5/Jetson_Linux_R35.4.1_aarch64/Linux_for_Tegra/sources/tegra/optee-src/nv-optee/optee/optee_test/ta/os_test/os_test.c:89
     a94:	aa1a03e3 	mov	x3, x26
     a98:	aa1503e0 	mov	x0, x21
     a9c:	d2800002 	mov	x2, #0x0                   	// #0
     aa0:	d2800001 	mov	x1, #0x0                   	// #0
/home/ssysarch/Desktop/nick/jetpack_5/Jetson_Linux_R35.4.1_aarch64/Linux_for_Tegra/sources/tegra/optee-src/nv-optee/optee/optee_test/ta/os_test/os_test.c:85
     aa4:	f9004fff 	str	xzr, [sp, #152]
/home/ssysarch/Desktop/nick/jetpack_5/Jetson_Linux_R35.4.1_aarch64/Linux_for_Tegra/sources/tegra/optee-src/nv-optee/optee/optee_test/ta/os_test/os_test.c:89
     aa8:	94000b15 	bl	36fc <TEE_GetPropertyAsBinaryBlock@plt>
     aac:	2a0003f6 	mov	w22, w0
/home/ssysarch/Desktop/nick/jetpack_5/Jetson_Linux_R35.4.1_aarch64/Linux_for_Tegra/sources/tegra/optee-src/nv-optee/optee/optee_test/ta/os_test/os_test.c:91
     ab0:	350000a0 	cbnz	w0, ac4 <print_properties.constprop.0+0x5e4>
     ab4:	f9404ffb 	ldr	x27, [sp, #152]
     ab8:	b50000db 	cbnz	x27, ad0 <print_properties.constprop.0+0x5f0>
/home/ssysarch/Desktop/nick/jetpack_5/Jetson_Linux_R35.4.1_aarch64/Linux_for_Tegra/sources/tegra/optee-src/nv-optee/optee/optee_test/ta/os_test/os_test.c:87
     abc:	d2800016 	mov	x22, #0x0                   	// #0
     ac0:	14000028 	b	b60 <print_properties.constprop.0+0x680>
/home/ssysarch/Desktop/nick/jetpack_5/Jetson_Linux_R35.4.1_aarch64/Linux_for_Tegra/sources/tegra/optee-src/nv-optee/optee/optee_test/ta/os_test/os_test.c:94
     ac4:	129ffde0 	mov	w0, #0xffff0010            	// #-65520
     ac8:	6b0002df 	cmp	w22, w0
     acc:	540001c0 	b.eq	b04 <print_properties.constprop.0+0x624>  // b.none
/home/ssysarch/Desktop/nick/jetpack_5/Jetson_Linux_R35.4.1_aarch64/Linux_for_Tegra/sources/tegra/optee-src/nv-optee/optee/optee_test/ta/os_test/os_test.c:95
     ad0:	9113e260 	add	x0, x19, #0x4f8
     ad4:	90000024 	adrp	x4, 4000 <free@plt+0x684>
     ad8:	912ab484 	add	x4, x4, #0xaad
     adc:	2a1603e5 	mov	w5, w22
     ae0:	9101cc00 	add	x0, x0, #0x73
     ae4:	52800023 	mov	w3, #0x1                   	// #1
     ae8:	52800022 	mov	w2, #0x1                   	// #1
     aec:	52800be1 	mov	w1, #0x5f                  	// #95
     af0:	94000b07 	bl	370c <trace_printf@plt>
/home/ssysarch/Desktop/nick/jetpack_5/Jetson_Linux_R35.4.1_aarch64/Linux_for_Tegra/sources/tegra/optee-src/nv-optee/optee/optee_test/ta/os_test/os_test.c:97
     af4:	35fff6b6 	cbnz	w22, 9c8 <print_properties.constprop.0+0x4e8>
     af8:	52bffffb 	mov	w27, #0xffff0000            	// #-65536
/home/ssysarch/Desktop/nick/jetpack_5/Jetson_Linux_R35.4.1_aarch64/Linux_for_Tegra/sources/tegra/optee-src/nv-optee/optee/optee_test/ta/os_test/os_test.c:304
     afc:	2a1b03f3 	mov	w19, w27
     b00:	17fffeb4 	b	5d0 <print_properties.constprop.0+0xf0>
/home/ssysarch/Desktop/nick/jetpack_5/Jetson_Linux_R35.4.1_aarch64/Linux_for_Tegra/sources/tegra/optee-src/nv-optee/optee/optee_test/ta/os_test/os_test.c:100
     b04:	f9404fe0 	ldr	x0, [sp, #152]
     b08:	52800001 	mov	w1, #0x0                   	// #0
     b0c:	94000b34 	bl	37dc <TEE_Malloc@plt>
/home/ssysarch/Desktop/nick/jetpack_5/Jetson_Linux_R35.4.1_aarch64/Linux_for_Tegra/sources/tegra/optee-src/nv-optee/optee/optee_test/ta/os_test/os_test.c:104
     b10:	aa0003e2 	mov	x2, x0
/home/ssysarch/Desktop/nick/jetpack_5/Jetson_Linux_R35.4.1_aarch64/Linux_for_Tegra/sources/tegra/optee-src/nv-optee/optee/optee_test/ta/os_test/os_test.c:100
     b14:	aa0003f6 	mov	x22, x0
/home/ssysarch/Desktop/nick/jetpack_5/Jetson_Linux_R35.4.1_aarch64/Linux_for_Tegra/sources/tegra/optee-src/nv-optee/optee/optee_test/ta/os_test/os_test.c:104
     b18:	aa1a03e3 	mov	x3, x26
     b1c:	aa1503e0 	mov	x0, x21
     b20:	d2800001 	mov	x1, #0x0                   	// #0
     b24:	94000af6 	bl	36fc <TEE_GetPropertyAsBinaryBlock@plt>
     b28:	2a0003fb 	mov	w27, w0
/home/ssysarch/Desktop/nick/jetpack_5/Jetson_Linux_R35.4.1_aarch64/Linux_for_Tegra/sources/tegra/optee-src/nv-optee/optee/optee_test/ta/os_test/os_test.c:105
     b2c:	34000180 	cbz	w0, b5c <print_properties.constprop.0+0x67c>
/home/ssysarch/Desktop/nick/jetpack_5/Jetson_Linux_R35.4.1_aarch64/Linux_for_Tegra/sources/tegra/optee-src/nv-optee/optee/optee_test/ta/os_test/os_test.c:106
     b30:	9113e260 	add	x0, x19, #0x4f8
     b34:	2a1b03e6 	mov	w6, w27
     b38:	aa1403e5 	mov	x5, x20
     b3c:	9101cc00 	add	x0, x0, #0x73
     b40:	90000024 	adrp	x4, 4000 <free@plt+0x684>
     b44:	912b9484 	add	x4, x4, #0xae5
     b48:	52800023 	mov	w3, #0x1                   	// #1
     b4c:	52800022 	mov	w2, #0x1                   	// #1
     b50:	52800d41 	mov	w1, #0x6a                  	// #106
     b54:	94000aee 	bl	370c <trace_printf@plt>
     b58:	17ffffe9 	b	afc <print_properties.constprop.0+0x61c>
/home/ssysarch/Desktop/nick/jetpack_5/Jetson_Linux_R35.4.1_aarch64/Linux_for_Tegra/sources/tegra/optee-src/nv-optee/optee/optee_test/ta/os_test/os_test.c:109
     b5c:	f9404ffb 	ldr	x27, [sp, #152]
print_properties():
/home/ssysarch/Desktop/nick/jetpack_5/Jetson_Linux_R35.4.1_aarch64/Linux_for_Tegra/sources/tegra/optee-src/nv-optee/optee/optee_test/ta/os_test/os_test.c:307
     b60:	90000020 	adrp	x0, 4000 <free@plt+0x684>
     b64:	91317400 	add	x0, x0, #0xc5d
     b68:	aa1403e1 	mov	x1, x20
     b6c:	94000b5c 	bl	38dc <strcmp@plt>
     b70:	340001a0 	cbz	w0, ba4 <print_properties.constprop.0+0x6c4>
/home/ssysarch/Desktop/nick/jetpack_5/Jetson_Linux_R35.4.1_aarch64/Linux_for_Tegra/sources/tegra/optee-src/nv-optee/optee/optee_test/ta/os_test/os_test.c:318
     b74:	90000020 	adrp	x0, 4000 <free@plt+0x684>
     b78:	912d1c00 	add	x0, x0, #0xb47
     b7c:	aa1403e1 	mov	x1, x20
     b80:	94000b57 	bl	38dc <strcmp@plt>
     b84:	35000760 	cbnz	w0, c70 <print_properties.constprop.0+0x790>
/home/ssysarch/Desktop/nick/jetpack_5/Jetson_Linux_R35.4.1_aarch64/Linux_for_Tegra/sources/tegra/optee-src/nv-optee/optee/optee_test/ta/os_test/os_test.c:320
     b88:	aa1b03e2 	mov	x2, x27
     b8c:	aa1603e1 	mov	x1, x22
     b90:	d2800020 	mov	x0, #0x1                   	// #1
/home/ssysarch/Desktop/nick/jetpack_5/Jetson_Linux_R35.4.1_aarch64/Linux_for_Tegra/sources/tegra/optee-src/nv-optee/optee/optee_test/ta/os_test/os_test.c:335
     b94:	97fffe15 	bl	3e8 <check_binprop_ones>
/home/ssysarch/Desktop/nick/jetpack_5/Jetson_Linux_R35.4.1_aarch64/Linux_for_Tegra/sources/tegra/optee-src/nv-optee/optee/optee_test/ta/os_test/os_test.c:336
     b98:	34000520 	cbz	w0, c3c <print_properties.constprop.0+0x75c>
     b9c:	2a0003f3 	mov	w19, w0
     ba0:	17fffe8c 	b	5d0 <print_properties.constprop.0+0xf0>
/home/ssysarch/Desktop/nick/jetpack_5/Jetson_Linux_R35.4.1_aarch64/Linux_for_Tegra/sources/tegra/optee-src/nv-optee/optee/optee_test/ta/os_test/os_test.c:308
     ba4:	d28ca900 	mov	x0, #0x6548                	// #25928
     ba8:	f2ad8d80 	movk	x0, #0x6c6c, lsl #16
     bac:	f2c40de0 	movk	x0, #0x206f, lsl #32
     bb0:	f2edeee0 	movk	x0, #0x6f77, lsl #48
/home/ssysarch/Desktop/nick/jetpack_5/Jetson_Linux_R35.4.1_aarch64/Linux_for_Tegra/sources/tegra/optee-src/nv-optee/optee/optee_test/ta/os_test/os_test.c:310
     bb4:	9102e3fc 	add	x28, sp, #0xb8
/home/ssysarch/Desktop/nick/jetpack_5/Jetson_Linux_R35.4.1_aarch64/Linux_for_Tegra/sources/tegra/optee-src/nv-optee/optee/optee_test/ta/os_test/os_test.c:308
     bb8:	f9005fe0 	str	x0, [sp, #184]
     bbc:	528d8e40 	mov	w0, #0x6c72                	// #27762
     bc0:	72a42c80 	movk	w0, #0x2164, lsl #16
     bc4:	b900c3e0 	str	w0, [sp, #192]
/home/ssysarch/Desktop/nick/jetpack_5/Jetson_Linux_R35.4.1_aarch64/Linux_for_Tegra/sources/tegra/optee-src/nv-optee/optee/optee_test/ta/os_test/os_test.c:310
     bc8:	aa1c03e0 	mov	x0, x28
/home/ssysarch/Desktop/nick/jetpack_5/Jetson_Linux_R35.4.1_aarch64/Linux_for_Tegra/sources/tegra/optee-src/nv-optee/optee/optee_test/ta/os_test/os_test.c:308
     bcc:	390313ff 	strb	wzr, [sp, #196]
/home/ssysarch/Desktop/nick/jetpack_5/Jetson_Linux_R35.4.1_aarch64/Linux_for_Tegra/sources/tegra/optee-src/nv-optee/optee/optee_test/ta/os_test/os_test.c:310
     bd0:	94000b5f 	bl	394c <strlen@plt>
     bd4:	eb1b001f 	cmp	x0, x27
     bd8:	54000280 	b.eq	c28 <print_properties.constprop.0+0x748>  // b.none
/home/ssysarch/Desktop/nick/jetpack_5/Jetson_Linux_R35.4.1_aarch64/Linux_for_Tegra/sources/tegra/optee-src/nv-optee/optee/optee_test/ta/os_test/os_test.c:313
     bdc:	9113e260 	add	x0, x19, #0x4f8
     be0:	aa1403e5 	mov	x5, x20
     be4:	91018813 	add	x19, x0, #0x62
     be8:	52800023 	mov	w3, #0x1                   	// #1
     bec:	aa1303e0 	mov	x0, x19
     bf0:	52800022 	mov	w2, #0x1                   	// #1
     bf4:	52802721 	mov	w1, #0x139                 	// #313
     bf8:	aa1c03e6 	mov	x6, x28
     bfc:	90000024 	adrp	x4, 4000 <free@plt+0x684>
     c00:	912c5884 	add	x4, x4, #0xb16
     c04:	94000ac2 	bl	370c <trace_printf@plt>
/home/ssysarch/Desktop/nick/jetpack_5/Jetson_Linux_R35.4.1_aarch64/Linux_for_Tegra/sources/tegra/optee-src/nv-optee/optee/optee_test/ta/os_test/os_test.c:315
     c08:	90000024 	adrp	x4, 4000 <free@plt+0x684>
     c0c:	912cf884 	add	x4, x4, #0xb3e
     c10:	aa1603e5 	mov	x5, x22
     c14:	aa1303e0 	mov	x0, x19
     c18:	52800023 	mov	w3, #0x1                   	// #1
     c1c:	52800022 	mov	w2, #0x1                   	// #1
     c20:	52802761 	mov	w1, #0x13b                 	// #315
     c24:	17fffee6 	b	7bc <print_properties.constprop.0+0x2dc>
/home/ssysarch/Desktop/nick/jetpack_5/Jetson_Linux_R35.4.1_aarch64/Linux_for_Tegra/sources/tegra/optee-src/nv-optee/optee/optee_test/ta/os_test/os_test.c:311
     c28:	aa1b03e2 	mov	x2, x27
     c2c:	aa1603e1 	mov	x1, x22
     c30:	aa1c03e0 	mov	x0, x28
     c34:	94000b3e 	bl	392c <TEE_MemCompare@plt>
/home/ssysarch/Desktop/nick/jetpack_5/Jetson_Linux_R35.4.1_aarch64/Linux_for_Tegra/sources/tegra/optee-src/nv-optee/optee/optee_test/ta/os_test/os_test.c:310
     c38:	35fffd20 	cbnz	w0, bdc <print_properties.constprop.0+0x6fc>
/home/ssysarch/Desktop/nick/jetpack_5/Jetson_Linux_R35.4.1_aarch64/Linux_for_Tegra/sources/tegra/optee-src/nv-optee/optee/optee_test/ta/os_test/os_test.c:351
     c3c:	aa1603e0 	mov	x0, x22
     c40:	94000b33 	bl	390c <TEE_Free@plt>
/home/ssysarch/Desktop/nick/jetpack_5/Jetson_Linux_R35.4.1_aarch64/Linux_for_Tegra/sources/tegra/optee-src/nv-optee/optee/optee_test/ta/os_test/os_test.c:226
     c44:	f94033e0 	ldr	x0, [sp, #96]
     c48:	910042f7 	add	x23, x23, #0x10
     c4c:	eb17001f 	cmp	x0, x23
     c50:	54ffe681 	b.ne	920 <print_properties.constprop.0+0x440>  // b.any
/home/ssysarch/Desktop/nick/jetpack_5/Jetson_Linux_R35.4.1_aarch64/Linux_for_Tegra/sources/tegra/optee-src/nv-optee/optee/optee_test/ta/os_test/os_test.c:361
     c54:	aa1503e0 	mov	x0, x21
     c58:	94000aa5 	bl	36ec <TEE_GetNextProperty@plt>
/home/ssysarch/Desktop/nick/jetpack_5/Jetson_Linux_R35.4.1_aarch64/Linux_for_Tegra/sources/tegra/optee-src/nv-optee/optee/optee_test/ta/os_test/os_test.c:362
     c5c:	34ffc660 	cbz	w0, 528 <print_properties.constprop.0+0x48>
/home/ssysarch/Desktop/nick/jetpack_5/Jetson_Linux_R35.4.1_aarch64/Linux_for_Tegra/sources/tegra/optee-src/nv-optee/optee/optee_test/ta/os_test/os_test.c:363
     c60:	129ffee1 	mov	w1, #0xffff0008            	// #-65528
     c64:	6b01001f 	cmp	w0, w1
     c68:	1a8003f3 	csel	w19, wzr, w0, eq  // eq = none
     c6c:	17fffe59 	b	5d0 <print_properties.constprop.0+0xf0>
/home/ssysarch/Desktop/nick/jetpack_5/Jetson_Linux_R35.4.1_aarch64/Linux_for_Tegra/sources/tegra/optee-src/nv-optee/optee/optee_test/ta/os_test/os_test.c:323
     c70:	90000020 	adrp	x0, 4000 <free@plt+0x684>
     c74:	912d9400 	add	x0, x0, #0xb65
     c78:	aa1403e1 	mov	x1, x20
     c7c:	94000b18 	bl	38dc <strcmp@plt>
     c80:	350000a0 	cbnz	w0, c94 <print_properties.constprop.0+0x7b4>
/home/ssysarch/Desktop/nick/jetpack_5/Jetson_Linux_R35.4.1_aarch64/Linux_for_Tegra/sources/tegra/optee-src/nv-optee/optee/optee_test/ta/os_test/os_test.c:325
     c84:	aa1b03e2 	mov	x2, x27
     c88:	aa1603e1 	mov	x1, x22
     c8c:	d2800040 	mov	x0, #0x2                   	// #2
     c90:	17ffffc1 	b	b94 <print_properties.constprop.0+0x6b4>
/home/ssysarch/Desktop/nick/jetpack_5/Jetson_Linux_R35.4.1_aarch64/Linux_for_Tegra/sources/tegra/optee-src/nv-optee/optee/optee_test/ta/os_test/os_test.c:328
     c94:	90000020 	adrp	x0, 4000 <free@plt+0x684>
     c98:	912e0c00 	add	x0, x0, #0xb83
     c9c:	aa1403e1 	mov	x1, x20
     ca0:	94000b0f 	bl	38dc <strcmp@plt>
     ca4:	350000a0 	cbnz	w0, cb8 <print_properties.constprop.0+0x7d8>
/home/ssysarch/Desktop/nick/jetpack_5/Jetson_Linux_R35.4.1_aarch64/Linux_for_Tegra/sources/tegra/optee-src/nv-optee/optee/optee_test/ta/os_test/os_test.c:330
     ca8:	aa1b03e2 	mov	x2, x27
     cac:	aa1603e1 	mov	x1, x22
     cb0:	d2800060 	mov	x0, #0x3                   	// #3
     cb4:	17ffffb8 	b	b94 <print_properties.constprop.0+0x6b4>
/home/ssysarch/Desktop/nick/jetpack_5/Jetson_Linux_R35.4.1_aarch64/Linux_for_Tegra/sources/tegra/optee-src/nv-optee/optee/optee_test/ta/os_test/os_test.c:333
     cb8:	90000020 	adrp	x0, 4000 <free@plt+0x684>
     cbc:	912e8400 	add	x0, x0, #0xba1
     cc0:	aa1403e1 	mov	x1, x20
     cc4:	94000b06 	bl	38dc <strcmp@plt>
     cc8:	350000a0 	cbnz	w0, cdc <print_properties.constprop.0+0x7fc>
/home/ssysarch/Desktop/nick/jetpack_5/Jetson_Linux_R35.4.1_aarch64/Linux_for_Tegra/sources/tegra/optee-src/nv-optee/optee/optee_test/ta/os_test/os_test.c:335
     ccc:	aa1b03e2 	mov	x2, x27
     cd0:	aa1603e1 	mov	x1, x22
     cd4:	d2800080 	mov	x0, #0x4                   	// #4
     cd8:	17ffffaf 	b	b94 <print_properties.constprop.0+0x6b4>
/home/ssysarch/Desktop/nick/jetpack_5/Jetson_Linux_R35.4.1_aarch64/Linux_for_Tegra/sources/tegra/optee-src/nv-optee/optee/optee_test/ta/os_test/os_test.c:338
     cdc:	90000020 	adrp	x0, 4000 <free@plt+0x684>
     ce0:	912efc00 	add	x0, x0, #0xbbf
     ce4:	aa1403e1 	mov	x1, x20
     ce8:	94000afd 	bl	38dc <strcmp@plt>
     cec:	34000160 	cbz	w0, d18 <print_properties.constprop.0+0x838>
/home/ssysarch/Desktop/nick/jetpack_5/Jetson_Linux_R35.4.1_aarch64/Linux_for_Tegra/sources/tegra/optee-src/nv-optee/optee/optee_test/ta/os_test/os_test.c:339
     cf0:	90000020 	adrp	x0, 4000 <free@plt+0x684>
     cf4:	912f6400 	add	x0, x0, #0xbd9
     cf8:	aa1403e1 	mov	x1, x20
     cfc:	94000af8 	bl	38dc <strcmp@plt>
/home/ssysarch/Desktop/nick/jetpack_5/Jetson_Linux_R35.4.1_aarch64/Linux_for_Tegra/sources/tegra/optee-src/nv-optee/optee/optee_test/ta/os_test/os_test.c:338
     d00:	340000c0 	cbz	w0, d18 <print_properties.constprop.0+0x838>
/home/ssysarch/Desktop/nick/jetpack_5/Jetson_Linux_R35.4.1_aarch64/Linux_for_Tegra/sources/tegra/optee-src/nv-optee/optee/optee_test/ta/os_test/os_test.c:340
     d04:	90000020 	adrp	x0, 4000 <free@plt+0x684>
     d08:	912fcc00 	add	x0, x0, #0xbf3
     d0c:	aa1403e1 	mov	x1, x20
     d10:	94000af3 	bl	38dc <strcmp@plt>
/home/ssysarch/Desktop/nick/jetpack_5/Jetson_Linux_R35.4.1_aarch64/Linux_for_Tegra/sources/tegra/optee-src/nv-optee/optee/optee_test/ta/os_test/os_test.c:339
     d14:	35000160 	cbnz	w0, d40 <print_properties.constprop.0+0x860>
/home/ssysarch/Desktop/nick/jetpack_5/Jetson_Linux_R35.4.1_aarch64/Linux_for_Tegra/sources/tegra/optee-src/nv-optee/optee/optee_test/ta/os_test/os_test.c:341
     d18:	b4fff93b 	cbz	x27, c3c <print_properties.constprop.0+0x75c>
/home/ssysarch/Desktop/nick/jetpack_5/Jetson_Linux_R35.4.1_aarch64/Linux_for_Tegra/sources/tegra/optee-src/nv-optee/optee/optee_test/ta/os_test/os_test.c:342
     d1c:	90000024 	adrp	x4, 4000 <free@plt+0x684>
     d20:	91303484 	add	x4, x4, #0xc0d
     d24:	9113e260 	add	x0, x19, #0x4f8
     d28:	aa1b03e6 	mov	x6, x27
     d2c:	aa1403e5 	mov	x5, x20
     d30:	52800023 	mov	w3, #0x1                   	// #1
     d34:	52800022 	mov	w2, #0x1                   	// #1
     d38:	52802ac1 	mov	w1, #0x156                 	// #342
     d3c:	17fffe3a 	b	624 <print_properties.constprop.0+0x144>
/home/ssysarch/Desktop/nick/jetpack_5/Jetson_Linux_R35.4.1_aarch64/Linux_for_Tegra/sources/tegra/optee-src/nv-optee/optee/optee_test/ta/os_test/os_test.c:347
     d40:	aa1403e5 	mov	x5, x20
     d44:	90000024 	adrp	x4, 4000 <free@plt+0x684>
     d48:	9130a084 	add	x4, x4, #0xc28
     d4c:	9113e260 	add	x0, x19, #0x4f8
     d50:	52800023 	mov	w3, #0x1                   	// #1
     d54:	52800022 	mov	w2, #0x1                   	// #1
     d58:	52802b61 	mov	w1, #0x15b                 	// #347
     d5c:	91018800 	add	x0, x0, #0x62
     d60:	94000a6b 	bl	370c <trace_printf@plt>
/home/ssysarch/Desktop/nick/jetpack_5/Jetson_Linux_R35.4.1_aarch64/Linux_for_Tegra/sources/tegra/optee-src/nv-optee/optee/optee_test/ta/os_test/os_test.c:348
     d64:	52800000 	mov	w0, #0x0                   	// #0
     d68:	94000a71 	bl	372c <TEE_Panic@plt>
     d6c:	17ffffb4 	b	c3c <print_properties.constprop.0+0x75c>
/home/ssysarch/Desktop/nick/jetpack_5/Jetson_Linux_R35.4.1_aarch64/Linux_for_Tegra/sources/tegra/optee-src/nv-optee/optee/optee_test/ta/os_test/os_test.c:355
     d70:	9113e260 	add	x0, x19, #0x4f8
     d74:	aa1603e6 	mov	x6, x22
     d78:	91018800 	add	x0, x0, #0x62
     d7c:	90000024 	adrp	x4, 4000 <free@plt+0x684>
     d80:	91310484 	add	x4, x4, #0xc41
     d84:	52800022 	mov	w2, #0x1                   	// #1
     d88:	52802c61 	mov	w1, #0x163                 	// #355
     d8c:	94000a60 	bl	370c <trace_printf@plt>
     d90:	17fffe27 	b	62c <print_properties.constprop.0+0x14c>
/home/ssysarch/Desktop/nick/jetpack_5/Jetson_Linux_R35.4.1_aarch64/Linux_for_Tegra/sources/tegra/optee-src/nv-optee/optee/optee_test/ta/os_test/os_test.c:368
     d94:	2a1303e0 	mov	w0, w19
     d98:	a9407bfd 	ldp	x29, x30, [sp]
     d9c:	a94153f3 	ldp	x19, x20, [sp, #16]
     da0:	a9425bf5 	ldp	x21, x22, [sp, #32]
     da4:	a94363f7 	ldp	x23, x24, [sp, #48]
     da8:	a9446bf9 	ldp	x25, x26, [sp, #64]
     dac:	a94573fb 	ldp	x27, x28, [sp, #80]
     db0:	911343ff 	add	sp, sp, #0x4d0
     db4:	d65f03c0 	ret

0000000000000db8 <test_properties>:
test_properties():
/home/ssysarch/Desktop/nick/jetpack_5/Jetson_Linux_R35.4.1_aarch64/Linux_for_Tegra/sources/tegra/optee-src/nv-optee/optee/optee_test/ta/os_test/os_test.c:385
     db8:	d109c3ff 	sub	sp, sp, #0x270
     dbc:	f0000020 	adrp	x0, 7000 <_DYNAMIC>
/home/ssysarch/Desktop/nick/jetpack_5/Jetson_Linux_R35.4.1_aarch64/Linux_for_Tegra/sources/tegra/optee-src/nv-optee/optee/optee_test/ta/os_test/os_test.c:388
     dc0:	d2804802 	mov	x2, #0x240                 	// #576
/home/ssysarch/Desktop/nick/jetpack_5/Jetson_Linux_R35.4.1_aarch64/Linux_for_Tegra/sources/tegra/optee-src/nv-optee/optee/optee_test/ta/os_test/os_test.c:385
     dc4:	a9007bfd 	stp	x29, x30, [sp]
     dc8:	910003fd 	mov	x29, sp
     dcc:	f9418000 	ldr	x0, [x0, #768]
     dd0:	a90153f3 	stp	x19, x20, [sp, #16]
/home/ssysarch/Desktop/nick/jetpack_5/Jetson_Linux_R35.4.1_aarch64/Linux_for_Tegra/sources/tegra/optee-src/nv-optee/optee/optee_test/ta/os_test/os_test.c:388
     dd4:	9100a3f4 	add	x20, sp, #0x28
/home/ssysarch/Desktop/nick/jetpack_5/Jetson_Linux_R35.4.1_aarch64/Linux_for_Tegra/sources/tegra/optee-src/nv-optee/optee/optee_test/ta/os_test/os_test.c:385
     dd8:	f9400001 	ldr	x1, [x0]
     ddc:	f90137e1 	str	x1, [sp, #616]
     de0:	d2800001 	mov	x1, #0x0                   	// #0
/home/ssysarch/Desktop/nick/jetpack_5/Jetson_Linux_R35.4.1_aarch64/Linux_for_Tegra/sources/tegra/optee-src/nv-optee/optee/optee_test/ta/os_test/os_test.c:388
     de4:	aa1403e0 	mov	x0, x20
/home/ssysarch/Desktop/nick/jetpack_5/Jetson_Linux_R35.4.1_aarch64/Linux_for_Tegra/sources/tegra/optee-src/nv-optee/optee/optee_test/ta/os_test/os_test.c:387
     de8:	f90013ff 	str	xzr, [sp, #32]
/home/ssysarch/Desktop/nick/jetpack_5/Jetson_Linux_R35.4.1_aarch64/Linux_for_Tegra/sources/tegra/optee-src/nv-optee/optee/optee_test/ta/os_test/os_test.c:388
     dec:	94000ab0 	bl	38ac <memset@plt>
     df0:	90000022 	adrp	x2, 4000 <free@plt+0x684>
     df4:	9133c042 	add	x2, x2, #0xcf0
     df8:	f9004fe2 	str	x2, [sp, #152]
     dfc:	90000022 	adrp	x2, 4000 <free@plt+0x684>
     e00:	91340c42 	add	x2, x2, #0xd03
     e04:	f90057e2 	str	x2, [sp, #168]
     e08:	90000022 	adrp	x2, 4000 <free@plt+0x684>
     e0c:	91345c42 	add	x2, x2, #0xd17
     e10:	90000020 	adrp	x0, 4000 <free@plt+0x684>
     e14:	9131c000 	add	x0, x0, #0xc70
     e18:	f9005fe2 	str	x2, [sp, #184]
     e1c:	90000022 	adrp	x2, 4000 <free@plt+0x684>
     e20:	9134a842 	add	x2, x2, #0xd2a
     e24:	f90017e0 	str	x0, [sp, #40]
     e28:	90000020 	adrp	x0, 4000 <free@plt+0x684>
     e2c:	9131f400 	add	x0, x0, #0xc7d
     e30:	f90067e2 	str	x2, [sp, #200]
     e34:	90000022 	adrp	x2, 4000 <free@plt+0x684>
     e38:	9134f842 	add	x2, x2, #0xd3e
     e3c:	f9001fe0 	str	x0, [sp, #56]
     e40:	90000020 	adrp	x0, 4000 <free@plt+0x684>
     e44:	91324c00 	add	x0, x0, #0xc93
     e48:	f9006fe2 	str	x2, [sp, #216]
     e4c:	90000022 	adrp	x2, 4000 <free@plt+0x684>
     e50:	91353c42 	add	x2, x2, #0xd4f
     e54:	f90027e0 	str	x0, [sp, #72]
     e58:	90000020 	adrp	x0, 4000 <free@plt+0x684>
     e5c:	91329c00 	add	x0, x0, #0xca7
     e60:	f90077e2 	str	x2, [sp, #232]
     e64:	90000022 	adrp	x2, 4000 <free@plt+0x684>
     e68:	9135c842 	add	x2, x2, #0xd72
     e6c:	f9002fe0 	str	x0, [sp, #88]
     e70:	90000020 	adrp	x0, 4000 <free@plt+0x684>
     e74:	91330000 	add	x0, x0, #0xcc0
     e78:	f9007fe2 	str	x2, [sp, #248]
     e7c:	90000022 	adrp	x2, 4000 <free@plt+0x684>
     e80:	91366c42 	add	x2, x2, #0xd9b
     e84:	f90037e0 	str	x0, [sp, #104]
     e88:	90000020 	adrp	x0, 4000 <free@plt+0x684>
     e8c:	91334000 	add	x0, x0, #0xcd0
     e90:	f90087e2 	str	x2, [sp, #264]
     e94:	90000022 	adrp	x2, 4000 <free@plt+0x684>
     e98:	9136dc42 	add	x2, x2, #0xdb7
     e9c:	f9003fe0 	str	x0, [sp, #120]
     ea0:	90000020 	adrp	x0, 4000 <free@plt+0x684>
     ea4:	91338400 	add	x0, x0, #0xce1
     ea8:	f9008fe2 	str	x2, [sp, #280]
     eac:	90000022 	adrp	x2, 4000 <free@plt+0x684>
     eb0:	91374042 	add	x2, x2, #0xdd0
     eb4:	52800033 	mov	w19, #0x1                   	// #1
     eb8:	52800041 	mov	w1, #0x2                   	// #2
     ebc:	52800063 	mov	w3, #0x3                   	// #3
     ec0:	b90033e1 	str	w1, [sp, #48]
     ec4:	b90073f3 	str	w19, [sp, #112]
     ec8:	b90083f3 	str	w19, [sp, #128]
     ecc:	f90047e0 	str	x0, [sp, #136]
     ed0:	52800080 	mov	w0, #0x4                   	// #4
     ed4:	b90093e0 	str	w0, [sp, #144]
     ed8:	b900a3e0 	str	w0, [sp, #160]
     edc:	b900b3e3 	str	w3, [sp, #176]
     ee0:	b900c3e0 	str	w0, [sp, #192]
     ee4:	b900d3e0 	str	w0, [sp, #208]
     ee8:	b900e3e1 	str	w1, [sp, #224]
     eec:	b900f3f3 	str	w19, [sp, #240]
     ef0:	b90103f3 	str	w19, [sp, #256]
     ef4:	b90113f3 	str	w19, [sp, #272]
     ef8:	f90097e2 	str	x2, [sp, #296]
     efc:	90000022 	adrp	x2, 4000 <free@plt+0x684>
     f00:	91381042 	add	x2, x2, #0xe04
     f04:	b90133f3 	str	w19, [sp, #304]
     f08:	f9009fe2 	str	x2, [sp, #312]
     f0c:	90000022 	adrp	x2, 4000 <free@plt+0x684>
     f10:	9138b442 	add	x2, x2, #0xe2d
     f14:	b90143e0 	str	w0, [sp, #320]
     f18:	f900a7e2 	str	x2, [sp, #328]
     f1c:	90000022 	adrp	x2, 4000 <free@plt+0x684>
     f20:	91397042 	add	x2, x2, #0xe5c
     f24:	b901c3e1 	str	w1, [sp, #448]
     f28:	90000021 	adrp	x1, 4000 <free@plt+0x684>
     f2c:	913c4021 	add	x1, x1, #0xf10
     f30:	f900e7e1 	str	x1, [sp, #456]
     f34:	90000021 	adrp	x1, 4000 <free@plt+0x684>
     f38:	91260021 	add	x1, x1, #0x980
     f3c:	f900efe1 	str	x1, [sp, #472]
     f40:	90000021 	adrp	x1, 4000 <free@plt+0x684>
     f44:	912d1c21 	add	x1, x1, #0xb47
     f48:	f900afe2 	str	x2, [sp, #344]
     f4c:	90000022 	adrp	x2, 4000 <free@plt+0x684>
     f50:	9139ec42 	add	x2, x2, #0xe7b
     f54:	f900ffe1 	str	x1, [sp, #504]
     f58:	90000021 	adrp	x1, 4000 <free@plt+0x684>
     f5c:	912d9421 	add	x1, x1, #0xb65
     f60:	f900b7e2 	str	x2, [sp, #360]
     f64:	90000022 	adrp	x2, 4000 <free@plt+0x684>
     f68:	913a8c42 	add	x2, x2, #0xea3
     f6c:	f90107e1 	str	x1, [sp, #520]
     f70:	90000021 	adrp	x1, 4000 <free@plt+0x684>
     f74:	912e0c21 	add	x1, x1, #0xb83
     f78:	f900bfe2 	str	x2, [sp, #376]
     f7c:	90000022 	adrp	x2, 4000 <free@plt+0x684>
     f80:	913b4442 	add	x2, x2, #0xed1
     f84:	f9010fe1 	str	x1, [sp, #536]
     f88:	90000021 	adrp	x1, 4000 <free@plt+0x684>
     f8c:	912e8421 	add	x1, x1, #0xba1
     f90:	f900c7e2 	str	x2, [sp, #392]
     f94:	90000022 	adrp	x2, 4000 <free@plt+0x684>
     f98:	913bbc42 	add	x2, x2, #0xeef
     f9c:	f90117e1 	str	x1, [sp, #552]
     fa0:	90000021 	adrp	x1, 4000 <free@plt+0x684>
     fa4:	912efc21 	add	x1, x1, #0xbbf
     fa8:	f900cfe2 	str	x2, [sp, #408]
     fac:	90000022 	adrp	x2, 4000 <free@plt+0x684>
     fb0:	913bec42 	add	x2, x2, #0xefb
     fb4:	f9011fe1 	str	x1, [sp, #568]
     fb8:	90000021 	adrp	x1, 4000 <free@plt+0x684>
     fbc:	912f6421 	add	x1, x1, #0xbd9
     fc0:	f900d7e2 	str	x2, [sp, #424]
     fc4:	90000022 	adrp	x2, 4000 <free@plt+0x684>
     fc8:	913c1442 	add	x2, x2, #0xf05
     fcc:	f90127e1 	str	x1, [sp, #584]
     fd0:	90000021 	adrp	x1, 4000 <free@plt+0x684>
     fd4:	912fcc21 	add	x1, x1, #0xbf3
     fd8:	b90163e0 	str	w0, [sp, #352]
     fdc:	b90173e0 	str	w0, [sp, #368]
     fe0:	b90193e0 	str	w0, [sp, #400]
     fe4:	b901e3e0 	str	w0, [sp, #480]
     fe8:	90000020 	adrp	x0, 4000 <free@plt+0x684>
     fec:	91317400 	add	x0, x0, #0xc5d
     ff0:	b90153f3 	str	w19, [sp, #336]
     ff4:	b90183f3 	str	w19, [sp, #384]
     ff8:	b901b3f3 	str	w19, [sp, #432]
     ffc:	f900dfe2 	str	x2, [sp, #440]
    1000:	b901d3e3 	str	w3, [sp, #464]
    1004:	f900f7e0 	str	x0, [sp, #488]
    1008:	528000a0 	mov	w0, #0x5                   	// #5
    100c:	b901f3e0 	str	w0, [sp, #496]
    1010:	b90203e0 	str	w0, [sp, #512]
    1014:	b90213e0 	str	w0, [sp, #528]
    1018:	b90223e0 	str	w0, [sp, #544]
    101c:	b90233e0 	str	w0, [sp, #560]
    1020:	b90243e0 	str	w0, [sp, #576]
    1024:	b90253e0 	str	w0, [sp, #592]
    1028:	f9012fe1 	str	x1, [sp, #600]
    102c:	b90263e0 	str	w0, [sp, #608]
/home/ssysarch/Desktop/nick/jetpack_5/Jetson_Linux_R35.4.1_aarch64/Linux_for_Tegra/sources/tegra/optee-src/nv-optee/optee/optee_test/ta/os_test/os_test.c:429
    1030:	910083e0 	add	x0, sp, #0x20
    1034:	94000a16 	bl	388c <TEE_AllocatePropertyEnumerator@plt>
/home/ssysarch/Desktop/nick/jetpack_5/Jetson_Linux_R35.4.1_aarch64/Linux_for_Tegra/sources/tegra/optee-src/nv-optee/optee/optee_test/ta/os_test/os_test.c:430
    1038:	34000280 	cbz	w0, 1088 <test_properties+0x2d0>
/home/ssysarch/Desktop/nick/jetpack_5/Jetson_Linux_R35.4.1_aarch64/Linux_for_Tegra/sources/tegra/optee-src/nv-optee/optee/optee_test/ta/os_test/os_test.c:431
    103c:	2a1303e3 	mov	w3, w19
    1040:	2a1303e2 	mov	w2, w19
/home/ssysarch/Desktop/nick/jetpack_5/Jetson_Linux_R35.4.1_aarch64/Linux_for_Tegra/sources/tegra/optee-src/nv-optee/optee/optee_test/ta/os_test/os_test.c:433
    1044:	52bffff3 	mov	w19, #0xffff0000            	// #-65536
    1048:	2a0003e5 	mov	w5, w0
/home/ssysarch/Desktop/nick/jetpack_5/Jetson_Linux_R35.4.1_aarch64/Linux_for_Tegra/sources/tegra/optee-src/nv-optee/optee/optee_test/ta/os_test/os_test.c:431
    104c:	f0000000 	adrp	x0, 4000 <free@plt+0x684>
    1050:	9113e000 	add	x0, x0, #0x4f8
    1054:	91022400 	add	x0, x0, #0x89
    1058:	f0000004 	adrp	x4, 4000 <free@plt+0x684>
    105c:	913c7084 	add	x4, x4, #0xf1c
    1060:	528035e1 	mov	w1, #0x1af                 	// #431
    1064:	940009aa 	bl	370c <trace_printf@plt>
/home/ssysarch/Desktop/nick/jetpack_5/Jetson_Linux_R35.4.1_aarch64/Linux_for_Tegra/sources/tegra/optee-src/nv-optee/optee/optee_test/ta/os_test/os_test.c:464
    1068:	d0000020 	adrp	x0, 7000 <_DYNAMIC>
    106c:	f9418000 	ldr	x0, [x0, #768]
    1070:	f94137e1 	ldr	x1, [sp, #616]
    1074:	f9400002 	ldr	x2, [x0]
    1078:	eb020021 	subs	x1, x1, x2
    107c:	d2800002 	mov	x2, #0x0                   	// #0
    1080:	540006a0 	b.eq	1154 <test_properties+0x39c>  // b.none
    1084:	940009ca 	bl	37ac <__stack_chk_fail@plt>
/home/ssysarch/Desktop/nick/jetpack_5/Jetson_Linux_R35.4.1_aarch64/Linux_for_Tegra/sources/tegra/optee-src/nv-optee/optee/optee_test/ta/os_test/os_test.c:436
    1088:	f0000000 	adrp	x0, 4000 <free@plt+0x684>
    108c:	913d2c00 	add	x0, x0, #0xf4b
    1090:	940009ab 	bl	373c <puts@plt>
/home/ssysarch/Desktop/nick/jetpack_5/Jetson_Linux_R35.4.1_aarch64/Linux_for_Tegra/sources/tegra/optee-src/nv-optee/optee/optee_test/ta/os_test/os_test.c:437
    1094:	f94013e0 	ldr	x0, [sp, #32]
    1098:	aa1403e2 	mov	x2, x20
    109c:	b2407fe1 	mov	x1, #0xffffffff            	// #4294967295
    10a0:	97fffd10 	bl	4e0 <print_properties.constprop.0>
    10a4:	2a0003f3 	mov	w19, w0
/home/ssysarch/Desktop/nick/jetpack_5/Jetson_Linux_R35.4.1_aarch64/Linux_for_Tegra/sources/tegra/optee-src/nv-optee/optee/optee_test/ta/os_test/os_test.c:438
    10a8:	35000460 	cbnz	w0, 1134 <test_properties+0x37c>
/home/ssysarch/Desktop/nick/jetpack_5/Jetson_Linux_R35.4.1_aarch64/Linux_for_Tegra/sources/tegra/optee-src/nv-optee/optee/optee_test/ta/os_test/os_test.c:441
    10ac:	f0000000 	adrp	x0, 4000 <free@plt+0x684>
    10b0:	913db400 	add	x0, x0, #0xf6d
    10b4:	940009a2 	bl	373c <puts@plt>
/home/ssysarch/Desktop/nick/jetpack_5/Jetson_Linux_R35.4.1_aarch64/Linux_for_Tegra/sources/tegra/optee-src/nv-optee/optee/optee_test/ta/os_test/os_test.c:442
    10b8:	f94013e0 	ldr	x0, [sp, #32]
    10bc:	aa1403e2 	mov	x2, x20
    10c0:	b27f7be1 	mov	x1, #0xfffffffe            	// #4294967294
    10c4:	97fffd07 	bl	4e0 <print_properties.constprop.0>
    10c8:	2a0003f3 	mov	w19, w0
/home/ssysarch/Desktop/nick/jetpack_5/Jetson_Linux_R35.4.1_aarch64/Linux_for_Tegra/sources/tegra/optee-src/nv-optee/optee/optee_test/ta/os_test/os_test.c:444
    10cc:	35000340 	cbnz	w0, 1134 <test_properties+0x37c>
/home/ssysarch/Desktop/nick/jetpack_5/Jetson_Linux_R35.4.1_aarch64/Linux_for_Tegra/sources/tegra/optee-src/nv-optee/optee/optee_test/ta/os_test/os_test.c:447
    10d0:	f0000000 	adrp	x0, 4000 <free@plt+0x684>
    10d4:	913e4c00 	add	x0, x0, #0xf93
    10d8:	94000999 	bl	373c <puts@plt>
/home/ssysarch/Desktop/nick/jetpack_5/Jetson_Linux_R35.4.1_aarch64/Linux_for_Tegra/sources/tegra/optee-src/nv-optee/optee/optee_test/ta/os_test/os_test.c:448
    10dc:	f94013e0 	ldr	x0, [sp, #32]
    10e0:	aa1403e2 	mov	x2, x20
    10e4:	12800041 	mov	w1, #0xfffffffd            	// #-3
    10e8:	97fffcfe 	bl	4e0 <print_properties.constprop.0>
    10ec:	2a0003f3 	mov	w19, w0
/home/ssysarch/Desktop/nick/jetpack_5/Jetson_Linux_R35.4.1_aarch64/Linux_for_Tegra/sources/tegra/optee-src/nv-optee/optee/optee_test/ta/os_test/os_test.c:450
    10f0:	35000220 	cbnz	w0, 1134 <test_properties+0x37c>
    10f4:	aa1403e1 	mov	x1, x20
/home/ssysarch/Desktop/nick/jetpack_5/Jetson_Linux_R35.4.1_aarch64/Linux_for_Tegra/sources/tegra/optee-src/nv-optee/optee/optee_test/ta/os_test/os_test.c:453
    10f8:	d2800000 	mov	x0, #0x0                   	// #0
/home/ssysarch/Desktop/nick/jetpack_5/Jetson_Linux_R35.4.1_aarch64/Linux_for_Tegra/sources/tegra/optee-src/nv-optee/optee/optee_test/ta/os_test/os_test.c:454
    10fc:	39403022 	ldrb	w2, [x1, #12]
    1100:	35000202 	cbnz	w2, 1140 <test_properties+0x388>
/home/ssysarch/Desktop/nick/jetpack_5/Jetson_Linux_R35.4.1_aarch64/Linux_for_Tegra/sources/tegra/optee-src/nv-optee/optee/optee_test/ta/os_test/os_test.c:455
    1104:	d37cec00 	lsl	x0, x0, #4
/home/ssysarch/Desktop/nick/jetpack_5/Jetson_Linux_R35.4.1_aarch64/Linux_for_Tegra/sources/tegra/optee-src/nv-optee/optee/optee_test/ta/os_test/os_test.c:456
    1108:	52bffff3 	mov	w19, #0xffff0000            	// #-65536
/home/ssysarch/Desktop/nick/jetpack_5/Jetson_Linux_R35.4.1_aarch64/Linux_for_Tegra/sources/tegra/optee-src/nv-optee/optee/optee_test/ta/os_test/os_test.c:455
    110c:	f0000004 	adrp	x4, 4000 <free@plt+0x684>
    1110:	913ee484 	add	x4, x4, #0xfb9
    1114:	52800023 	mov	w3, #0x1                   	// #1
    1118:	52800022 	mov	w2, #0x1                   	// #1
    111c:	f8606a85 	ldr	x5, [x20, x0]
    1120:	f0000000 	adrp	x0, 4000 <free@plt+0x684>
    1124:	9113e000 	add	x0, x0, #0x4f8
    1128:	528038e1 	mov	w1, #0x1c7                 	// #455
    112c:	91022400 	add	x0, x0, #0x89
    1130:	94000977 	bl	370c <trace_printf@plt>
/home/ssysarch/Desktop/nick/jetpack_5/Jetson_Linux_R35.4.1_aarch64/Linux_for_Tegra/sources/tegra/optee-src/nv-optee/optee/optee_test/ta/os_test/os_test.c:462
    1134:	f94013e0 	ldr	x0, [sp, #32]
    1138:	9400098d 	bl	376c <TEE_FreePropertyEnumerator@plt>
/home/ssysarch/Desktop/nick/jetpack_5/Jetson_Linux_R35.4.1_aarch64/Linux_for_Tegra/sources/tegra/optee-src/nv-optee/optee/optee_test/ta/os_test/os_test.c:463
    113c:	17ffffcb 	b	1068 <test_properties+0x2b0>
/home/ssysarch/Desktop/nick/jetpack_5/Jetson_Linux_R35.4.1_aarch64/Linux_for_Tegra/sources/tegra/optee-src/nv-optee/optee/optee_test/ta/os_test/os_test.c:453 (discriminator 2)
    1140:	91000400 	add	x0, x0, #0x1
    1144:	91004021 	add	x1, x1, #0x10
    1148:	f100901f 	cmp	x0, #0x24
    114c:	54fffd81 	b.ne	10fc <test_properties+0x344>  // b.any
/home/ssysarch/Desktop/nick/jetpack_5/Jetson_Linux_R35.4.1_aarch64/Linux_for_Tegra/sources/tegra/optee-src/nv-optee/optee/optee_test/ta/os_test/os_test.c:461
    1150:	17fffff9 	b	1134 <test_properties+0x37c>
/home/ssysarch/Desktop/nick/jetpack_5/Jetson_Linux_R35.4.1_aarch64/Linux_for_Tegra/sources/tegra/optee-src/nv-optee/optee/optee_test/ta/os_test/os_test.c:464
    1154:	2a1303e0 	mov	w0, w19
    1158:	a9407bfd 	ldp	x29, x30, [sp]
    115c:	a94153f3 	ldp	x19, x20, [sp, #16]
    1160:	9109c3ff 	add	sp, sp, #0x270
    1164:	d65f03c0 	ret

0000000000001168 <ta_entry_basic>:
ta_entry_basic():
/home/ssysarch/Desktop/nick/jetpack_5/Jetson_Linux_R35.4.1_aarch64/Linux_for_Tegra/sources/tegra/optee-src/nv-optee/optee/optee_test/ta/os_test/os_test.c:820
    1168:	d10383ff 	sub	sp, sp, #0xe0
    116c:	d0000022 	adrp	x2, 7000 <_DYNAMIC>
    1170:	a9017bfd 	stp	x29, x30, [sp, #16]
    1174:	910043fd 	add	x29, sp, #0x10
    1178:	f9418042 	ldr	x2, [x2, #768]
    117c:	a9035bf5 	stp	x21, x22, [sp, #48]
    1180:	2a0003f5 	mov	w21, w0
    1184:	f9400040 	ldr	x0, [x2]
    1188:	f9006fe0 	str	x0, [sp, #216]
    118c:	d2800000 	mov	x0, #0x0                   	// #0
    1190:	a90253f3 	stp	x19, x20, [sp, #32]
/home/ssysarch/Desktop/nick/jetpack_5/Jetson_Linux_R35.4.1_aarch64/Linux_for_Tegra/sources/tegra/optee-src/nv-optee/optee/optee_test/ta/os_test/os_test.c:823
    1194:	f0000000 	adrp	x0, 4000 <free@plt+0x684>
    1198:	913f3400 	add	x0, x0, #0xfcd
/home/ssysarch/Desktop/nick/jetpack_5/Jetson_Linux_R35.4.1_aarch64/Linux_for_Tegra/sources/tegra/optee-src/nv-optee/optee/optee_test/ta/os_test/os_test.c:820
    119c:	aa0103f4 	mov	x20, x1
    11a0:	a90463f7 	stp	x23, x24, [sp, #64]
    11a4:	6d0527e8 	stp	d8, d9, [sp, #80]
/home/ssysarch/Desktop/nick/jetpack_5/Jetson_Linux_R35.4.1_aarch64/Linux_for_Tegra/sources/tegra/optee-src/nv-optee/optee/optee_test/ta/os_test/os_test.c:823
    11a8:	94000965 	bl	373c <puts@plt>
test_malloc():
/home/ssysarch/Desktop/nick/jetpack_5/Jetson_Linux_R35.4.1_aarch64/Linux_for_Tegra/sources/tegra/optee-src/nv-optee/optee/optee_test/ta/os_test/os_test.c:372
    11ac:	52800001 	mov	w1, #0x0                   	// #0
    11b0:	d2800080 	mov	x0, #0x4                   	// #4
    11b4:	9400098a 	bl	37dc <TEE_Malloc@plt>
/home/ssysarch/Desktop/nick/jetpack_5/Jetson_Linux_R35.4.1_aarch64/Linux_for_Tegra/sources/tegra/optee-src/nv-optee/optee/optee_test/ta/os_test/os_test.c:374
    11b8:	b5000260 	cbnz	x0, 1204 <ta_entry_basic+0x9c>
/home/ssysarch/Desktop/nick/jetpack_5/Jetson_Linux_R35.4.1_aarch64/Linux_for_Tegra/sources/tegra/optee-src/nv-optee/optee/optee_test/ta/os_test/os_test.c:375
    11bc:	f0000000 	adrp	x0, 4000 <free@plt+0x684>
    11c0:	9113e000 	add	x0, x0, #0x4f8
    11c4:	f0000004 	adrp	x4, 4000 <free@plt+0x684>
    11c8:	913f8c84 	add	x4, x4, #0xfe3
    11cc:	91026400 	add	x0, x0, #0x99
    11d0:	52800023 	mov	w3, #0x1                   	// #1
    11d4:	52800022 	mov	w2, #0x1                   	// #1
    11d8:	52802ee1 	mov	w1, #0x177                 	// #375
    11dc:	9400094c 	bl	370c <trace_printf@plt>
test_mem_access_right():
/home/ssysarch/Desktop/nick/jetpack_5/Jetson_Linux_R35.4.1_aarch64/Linux_for_Tegra/sources/tegra/optee-src/nv-optee/optee/optee_test/ta/os_test/os_test.c:515
    11e0:	129ffe73 	mov	w19, #0xffff000c            	// #-65524
ta_entry_basic():
/home/ssysarch/Desktop/nick/jetpack_5/Jetson_Linux_R35.4.1_aarch64/Linux_for_Tegra/sources/tegra/optee-src/nv-optee/optee/optee_test/ta/os_test/os_test.c:854
    11e4:	d0000022 	adrp	x2, 7000 <_DYNAMIC>
    11e8:	f9418042 	ldr	x2, [x2, #768]
    11ec:	f9406fe0 	ldr	x0, [sp, #216]
    11f0:	f9400041 	ldr	x1, [x2]
    11f4:	eb010000 	subs	x0, x0, x1
    11f8:	d2800001 	mov	x1, #0x0                   	// #0
    11fc:	54007460 	b.eq	2088 <ta_entry_basic+0xf20>  // b.none
    1200:	9400096b 	bl	37ac <__stack_chk_fail@plt>
test_malloc():
/home/ssysarch/Desktop/nick/jetpack_5/Jetson_Linux_R35.4.1_aarch64/Linux_for_Tegra/sources/tegra/optee-src/nv-optee/optee/optee_test/ta/os_test/os_test.c:378
    1204:	940009c2 	bl	390c <TEE_Free@plt>
/home/ssysarch/Desktop/nick/jetpack_5/Jetson_Linux_R35.4.1_aarch64/Linux_for_Tegra/sources/tegra/optee-src/nv-optee/optee/optee_test/ta/os_test/os_test.c:379
    1208:	d2800000 	mov	x0, #0x0                   	// #0
    120c:	940009c0 	bl	390c <TEE_Free@plt>
ta_entry_basic():
/home/ssysarch/Desktop/nick/jetpack_5/Jetson_Linux_R35.4.1_aarch64/Linux_for_Tegra/sources/tegra/optee-src/nv-optee/optee/optee_test/ta/os_test/os_test.c:829
    1210:	97fffeea 	bl	db8 <test_properties>
    1214:	2a0003f3 	mov	w19, w0
/home/ssysarch/Desktop/nick/jetpack_5/Jetson_Linux_R35.4.1_aarch64/Linux_for_Tegra/sources/tegra/optee-src/nv-optee/optee/optee_test/ta/os_test/os_test.c:830
    1218:	35fffe60 	cbnz	w0, 11e4 <ta_entry_basic+0x7c>
test_mem_access_right():
/home/ssysarch/Desktop/nick/jetpack_5/Jetson_Linux_R35.4.1_aarch64/Linux_for_Tegra/sources/tegra/optee-src/nv-optee/optee/optee_test/ta/os_test/os_test.c:473
    121c:	9101e3f7 	add	x23, sp, #0x78
    1220:	d2800802 	mov	x2, #0x40                  	// #64
    1224:	aa1703e0 	mov	x0, x23
    1228:	52800001 	mov	w1, #0x0                   	// #0
/home/ssysarch/Desktop/nick/jetpack_5/Jetson_Linux_R35.4.1_aarch64/Linux_for_Tegra/sources/tegra/optee-src/nv-optee/optee/optee_test/ta/os_test/os_test.c:471
    122c:	b9006bff 	str	wzr, [sp, #104]
/home/ssysarch/Desktop/nick/jetpack_5/Jetson_Linux_R35.4.1_aarch64/Linux_for_Tegra/sources/tegra/optee-src/nv-optee/optee/optee_test/ta/os_test/os_test.c:473
    1230:	9400099f 	bl	38ac <memset@plt>
/home/ssysarch/Desktop/nick/jetpack_5/Jetson_Linux_R35.4.1_aarch64/Linux_for_Tegra/sources/tegra/optee-src/nv-optee/optee/optee_test/ta/os_test/os_test.c:475
    1234:	f9003bff 	str	xzr, [sp, #112]
/home/ssysarch/Desktop/nick/jetpack_5/Jetson_Linux_R35.4.1_aarch64/Linux_for_Tegra/sources/tegra/optee-src/nv-optee/optee/optee_test/ta/os_test/os_test.c:478
    1238:	710016bf 	cmp	w21, #0x5
/home/ssysarch/Desktop/nick/jetpack_5/Jetson_Linux_R35.4.1_aarch64/Linux_for_Tegra/sources/tegra/optee-src/nv-optee/optee/optee_test/ta/os_test/os_test.c:474
    123c:	a90bffff 	stp	xzr, xzr, [sp, #184]
    1240:	a90cffff 	stp	xzr, xzr, [sp, #200]
/home/ssysarch/Desktop/nick/jetpack_5/Jetson_Linux_R35.4.1_aarch64/Linux_for_Tegra/sources/tegra/optee-src/nv-optee/optee/optee_test/ta/os_test/os_test.c:478
    1244:	54000060 	b.eq	1250 <ta_entry_basic+0xe8>  // b.none
test_float():
/home/ssysarch/Desktop/nick/jetpack_5/Jetson_Linux_R35.4.1_aarch64/Linux_for_Tegra/sources/tegra/optee-src/nv-optee/optee/optee_test/ta/os_test/os_test.c:722
    1248:	52bffff3 	mov	w19, #0xffff0000            	// #-65536
    124c:	17ffffe6 	b	11e4 <ta_entry_basic+0x7c>
test_mem_access_right():
/home/ssysarch/Desktop/nick/jetpack_5/Jetson_Linux_R35.4.1_aarch64/Linux_for_Tegra/sources/tegra/optee-src/nv-optee/optee/optee_test/ta/os_test/os_test.c:483
    1250:	a9400a81 	ldp	x1, x2, [x20]
    1254:	2a1503e0 	mov	w0, w21
    1258:	94000965 	bl	37ec <TEE_CheckMemoryAccessRights@plt>
    125c:	2a0003f3 	mov	w19, w0
/home/ssysarch/Desktop/nick/jetpack_5/Jetson_Linux_R35.4.1_aarch64/Linux_for_Tegra/sources/tegra/optee-src/nv-optee/optee/optee_test/ta/os_test/os_test.c:487
    1260:	35fffc20 	cbnz	w0, 11e4 <ta_entry_basic+0x7c>
/home/ssysarch/Desktop/nick/jetpack_5/Jetson_Linux_R35.4.1_aarch64/Linux_for_Tegra/sources/tegra/optee-src/nv-optee/optee/optee_test/ta/os_test/os_test.c:490
    1264:	a9400a81 	ldp	x1, x2, [x20]
    1268:	52800020 	mov	w0, #0x1                   	// #1
    126c:	94000960 	bl	37ec <TEE_CheckMemoryAccessRights@plt>
/home/ssysarch/Desktop/nick/jetpack_5/Jetson_Linux_R35.4.1_aarch64/Linux_for_Tegra/sources/tegra/optee-src/nv-optee/optee/optee_test/ta/os_test/os_test.c:493
    1270:	129fffc1 	mov	w1, #0xffff0001            	// #-65535
    1274:	6b01001f 	cmp	w0, w1
    1278:	54fffe81 	b.ne	1248 <ta_entry_basic+0xe0>  // b.any
/home/ssysarch/Desktop/nick/jetpack_5/Jetson_Linux_R35.4.1_aarch64/Linux_for_Tegra/sources/tegra/optee-src/nv-optee/optee/optee_test/ta/os_test/os_test.c:497
    127c:	f0000014 	adrp	x20, 4000 <free@plt+0x684>
    1280:	9113e295 	add	x21, x20, #0x4f8
    1284:	9102a2b5 	add	x21, x21, #0xa8
    1288:	d2800202 	mov	x2, #0x10                  	// #16
    128c:	aa1503e1 	mov	x1, x21
    1290:	52800020 	mov	w0, #0x1                   	// #1
    1294:	94000956 	bl	37ec <TEE_CheckMemoryAccessRights@plt>
    1298:	2a0003f3 	mov	w19, w0
/home/ssysarch/Desktop/nick/jetpack_5/Jetson_Linux_R35.4.1_aarch64/Linux_for_Tegra/sources/tegra/optee-src/nv-optee/optee/optee_test/ta/os_test/os_test.c:499
    129c:	35fffa40 	cbnz	w0, 11e4 <ta_entry_basic+0x7c>
/home/ssysarch/Desktop/nick/jetpack_5/Jetson_Linux_R35.4.1_aarch64/Linux_for_Tegra/sources/tegra/optee-src/nv-optee/optee/optee_test/ta/os_test/os_test.c:502
    12a0:	aa1503e1 	mov	x1, x21
    12a4:	d2800202 	mov	x2, #0x10                  	// #16
    12a8:	52800040 	mov	w0, #0x2                   	// #2
    12ac:	94000950 	bl	37ec <TEE_CheckMemoryAccessRights@plt>
/home/ssysarch/Desktop/nick/jetpack_5/Jetson_Linux_R35.4.1_aarch64/Linux_for_Tegra/sources/tegra/optee-src/nv-optee/optee/optee_test/ta/os_test/os_test.c:504
    12b0:	34fffcc0 	cbz	w0, 1248 <ta_entry_basic+0xe0>
/home/ssysarch/Desktop/nick/jetpack_5/Jetson_Linux_R35.4.1_aarch64/Linux_for_Tegra/sources/tegra/optee-src/nv-optee/optee/optee_test/ta/os_test/os_test.c:507
    12b4:	9101a3f5 	add	x21, sp, #0x68
    12b8:	d2800082 	mov	x2, #0x4                   	// #4
    12bc:	aa1503e1 	mov	x1, x21
    12c0:	52800060 	mov	w0, #0x3                   	// #3
    12c4:	9400094a 	bl	37ec <TEE_CheckMemoryAccessRights@plt>
    12c8:	2a0003f3 	mov	w19, w0
/home/ssysarch/Desktop/nick/jetpack_5/Jetson_Linux_R35.4.1_aarch64/Linux_for_Tegra/sources/tegra/optee-src/nv-optee/optee/optee_test/ta/os_test/os_test.c:510
    12cc:	35fff8c0 	cbnz	w0, 11e4 <ta_entry_basic+0x7c>
/home/ssysarch/Desktop/nick/jetpack_5/Jetson_Linux_R35.4.1_aarch64/Linux_for_Tegra/sources/tegra/optee-src/nv-optee/optee/optee_test/ta/os_test/os_test.c:513
    12d0:	52800001 	mov	w1, #0x0                   	// #0
    12d4:	d2800200 	mov	x0, #0x10                  	// #16
    12d8:	94000941 	bl	37dc <TEE_Malloc@plt>
    12dc:	aa0003f6 	mov	x22, x0
/home/ssysarch/Desktop/nick/jetpack_5/Jetson_Linux_R35.4.1_aarch64/Linux_for_Tegra/sources/tegra/optee-src/nv-optee/optee/optee_test/ta/os_test/os_test.c:514
    12e0:	b4fff800 	cbz	x0, 11e0 <ta_entry_basic+0x78>
/home/ssysarch/Desktop/nick/jetpack_5/Jetson_Linux_R35.4.1_aarch64/Linux_for_Tegra/sources/tegra/optee-src/nv-optee/optee/optee_test/ta/os_test/os_test.c:517
    12e4:	aa0003e1 	mov	x1, x0
    12e8:	d2800202 	mov	x2, #0x10                  	// #16
    12ec:	52800060 	mov	w0, #0x3                   	// #3
    12f0:	9400093f 	bl	37ec <TEE_CheckMemoryAccessRights@plt>
    12f4:	2a0003f3 	mov	w19, w0
/home/ssysarch/Desktop/nick/jetpack_5/Jetson_Linux_R35.4.1_aarch64/Linux_for_Tegra/sources/tegra/optee-src/nv-optee/optee/optee_test/ta/os_test/os_test.c:520
    12f8:	aa1603e0 	mov	x0, x22
    12fc:	94000984 	bl	390c <TEE_Free@plt>
/home/ssysarch/Desktop/nick/jetpack_5/Jetson_Linux_R35.4.1_aarch64/Linux_for_Tegra/sources/tegra/optee-src/nv-optee/optee/optee_test/ta/os_test/os_test.c:521
    1300:	35fff733 	cbnz	w19, 11e4 <ta_entry_basic+0x7c>
/home/ssysarch/Desktop/nick/jetpack_5/Jetson_Linux_R35.4.1_aarch64/Linux_for_Tegra/sources/tegra/optee-src/nv-optee/optee/optee_test/ta/os_test/os_test.c:525
    1304:	d2800022 	mov	x2, #0x1                   	// #1
    1308:	d2800001 	mov	x1, #0x0                   	// #0
    130c:	2a0203e0 	mov	w0, w2
    1310:	94000937 	bl	37ec <TEE_CheckMemoryAccessRights@plt>
/home/ssysarch/Desktop/nick/jetpack_5/Jetson_Linux_R35.4.1_aarch64/Linux_for_Tegra/sources/tegra/optee-src/nv-optee/optee/optee_test/ta/os_test/os_test.c:527
    1314:	34fff9a0 	cbz	w0, 1248 <ta_entry_basic+0xe0>
/home/ssysarch/Desktop/nick/jetpack_5/Jetson_Linux_R35.4.1_aarch64/Linux_for_Tegra/sources/tegra/optee-src/nv-optee/optee/optee_test/ta/os_test/os_test.c:530
    1318:	d2800022 	mov	x2, #0x1                   	// #1
    131c:	d2a00081 	mov	x1, #0x40000               	// #262144
    1320:	2a0203e0 	mov	w0, w2
    1324:	94000932 	bl	37ec <TEE_CheckMemoryAccessRights@plt>
/home/ssysarch/Desktop/nick/jetpack_5/Jetson_Linux_R35.4.1_aarch64/Linux_for_Tegra/sources/tegra/optee-src/nv-optee/optee/optee_test/ta/os_test/os_test.c:532
    1328:	34fff900 	cbz	w0, 1248 <ta_entry_basic+0xe0>
/home/ssysarch/Desktop/nick/jetpack_5/Jetson_Linux_R35.4.1_aarch64/Linux_for_Tegra/sources/tegra/optee-src/nv-optee/optee/optee_test/ta/os_test/os_test.c:535
    132c:	9101c3f8 	add	x24, sp, #0x70
    1330:	9113e296 	add	x22, x20, #0x4f8
    1334:	aa1503e5 	mov	x5, x21
    1338:	aa1803e4 	mov	x4, x24
    133c:	9102a2c0 	add	x0, x22, #0xa8
    1340:	d2800003 	mov	x3, #0x0                   	// #0
    1344:	52800002 	mov	w2, #0x0                   	// #0
    1348:	12800001 	mov	w1, #0xffffffff            	// #-1
    134c:	9400097c 	bl	393c <TEE_OpenTASession@plt>
    1350:	2a0003f3 	mov	w19, w0
/home/ssysarch/Desktop/nick/jetpack_5/Jetson_Linux_R35.4.1_aarch64/Linux_for_Tegra/sources/tegra/optee-src/nv-optee/optee/optee_test/ta/os_test/os_test.c:537
    1354:	34000580 	cbz	w0, 1404 <ta_entry_basic+0x29c>
/home/ssysarch/Desktop/nick/jetpack_5/Jetson_Linux_R35.4.1_aarch64/Linux_for_Tegra/sources/tegra/optee-src/nv-optee/optee/optee_test/ta/os_test/os_test.c:538
    1358:	f0000004 	adrp	x4, 4000 <free@plt+0x684>
    135c:	913fd884 	add	x4, x4, #0xff6
    1360:	52800023 	mov	w3, #0x1                   	// #1
    1364:	52800022 	mov	w2, #0x1                   	// #1
    1368:	52804341 	mov	w1, #0x21a                 	// #538
/home/ssysarch/Desktop/nick/jetpack_5/Jetson_Linux_R35.4.1_aarch64/Linux_for_Tegra/sources/tegra/optee-src/nv-optee/optee/optee_test/ta/os_test/os_test.c:552
    136c:	9102e2c0 	add	x0, x22, #0xb8
    1370:	940008e7 	bl	370c <trace_printf@plt>
/home/ssysarch/Desktop/nick/jetpack_5/Jetson_Linux_R35.4.1_aarch64/Linux_for_Tegra/sources/tegra/optee-src/nv-optee/optee/optee_test/ta/os_test/os_test.c:557
    1374:	f9403be0 	ldr	x0, [sp, #112]
    1378:	9400097d 	bl	396c <TEE_CloseTASession@plt>
ta_entry_basic():
/home/ssysarch/Desktop/nick/jetpack_5/Jetson_Linux_R35.4.1_aarch64/Linux_for_Tegra/sources/tegra/optee-src/nv-optee/optee/optee_test/ta/os_test/os_test.c:834
    137c:	35fff353 	cbnz	w19, 11e4 <ta_entry_basic+0x7c>
test_time():
/home/ssysarch/Desktop/nick/jetpack_5/Jetson_Linux_R35.4.1_aarch64/Linux_for_Tegra/sources/tegra/optee-src/nv-optee/optee/optee_test/ta/os_test/os_test.c:569
    1380:	aa1803e0 	mov	x0, x24
/home/ssysarch/Desktop/nick/jetpack_5/Jetson_Linux_R35.4.1_aarch64/Linux_for_Tegra/sources/tegra/optee-src/nv-optee/optee/optee_test/ta/os_test/os_test.c:565
    1384:	a906ffff 	stp	xzr, xzr, [sp, #104]
/home/ssysarch/Desktop/nick/jetpack_5/Jetson_Linux_R35.4.1_aarch64/Linux_for_Tegra/sources/tegra/optee-src/nv-optee/optee/optee_test/ta/os_test/os_test.c:569
    1388:	94000975 	bl	395c <TEE_GetSystemTime@plt>
/home/ssysarch/Desktop/nick/jetpack_5/Jetson_Linux_R35.4.1_aarch64/Linux_for_Tegra/sources/tegra/optee-src/nv-optee/optee/optee_test/ta/os_test/os_test.c:570
    138c:	294e0be1 	ldp	w1, w2, [sp, #112]
    1390:	90000020 	adrp	x0, 5000 <__func__.4630+0x8d5>
    1394:	91016800 	add	x0, x0, #0x5a
    1398:	940008cd 	bl	36cc <printf@plt>
/home/ssysarch/Desktop/nick/jetpack_5/Jetson_Linux_R35.4.1_aarch64/Linux_for_Tegra/sources/tegra/optee-src/nv-optee/optee/optee_test/ta/os_test/os_test.c:573
    139c:	aa1503e0 	mov	x0, x21
    13a0:	940008eb 	bl	374c <TEE_GetREETime@plt>
/home/ssysarch/Desktop/nick/jetpack_5/Jetson_Linux_R35.4.1_aarch64/Linux_for_Tegra/sources/tegra/optee-src/nv-optee/optee/optee_test/ta/os_test/os_test.c:574
    13a4:	294d0be1 	ldp	w1, w2, [sp, #104]
    13a8:	90000020 	adrp	x0, 5000 <__func__.4630+0x8d5>
    13ac:	9101bc00 	add	x0, x0, #0x6f
    13b0:	940008c7 	bl	36cc <printf@plt>
/home/ssysarch/Desktop/nick/jetpack_5/Jetson_Linux_R35.4.1_aarch64/Linux_for_Tegra/sources/tegra/optee-src/nv-optee/optee/optee_test/ta/os_test/os_test.c:577
    13b4:	aa1503e0 	mov	x0, x21
    13b8:	94000941 	bl	38bc <TEE_GetTAPersistentTime@plt>
    13bc:	2a0003f3 	mov	w19, w0
/home/ssysarch/Desktop/nick/jetpack_5/Jetson_Linux_R35.4.1_aarch64/Linux_for_Tegra/sources/tegra/optee-src/nv-optee/optee/optee_test/ta/os_test/os_test.c:578
    13c0:	31402c1f 	cmn	w0, #0xb, lsl #12
    13c4:	540007e0 	b.eq	14c0 <ta_entry_basic+0x358>  // b.none
    13c8:	54000468 	b.hi	1454 <ta_entry_basic+0x2ec>  // b.pmore
    13cc:	34000580 	cbz	w0, 147c <ta_entry_basic+0x314>
    13d0:	1299fe00 	mov	w0, #0xffff300f            	// #-53233
    13d4:	6b00027f 	cmp	w19, w0
    13d8:	54fff061 	b.ne	11e4 <ta_entry_basic+0x7c>  // b.any
/home/ssysarch/Desktop/nick/jetpack_5/Jetson_Linux_R35.4.1_aarch64/Linux_for_Tegra/sources/tegra/optee-src/nv-optee/optee/optee_test/ta/os_test/os_test.c:584
    13dc:	294d1be5 	ldp	w5, w6, [sp, #104]
    13e0:	9113e280 	add	x0, x20, #0x4f8
    13e4:	91033800 	add	x0, x0, #0xce
    13e8:	90000024 	adrp	x4, 5000 <__func__.4630+0x8d5>
    13ec:	91026484 	add	x4, x4, #0x99
    13f0:	52800023 	mov	w3, #0x1                   	// #1
    13f4:	52800022 	mov	w2, #0x1                   	// #1
    13f8:	52804901 	mov	w1, #0x248                 	// #584
    13fc:	940008c4 	bl	370c <trace_printf@plt>
/home/ssysarch/Desktop/nick/jetpack_5/Jetson_Linux_R35.4.1_aarch64/Linux_for_Tegra/sources/tegra/optee-src/nv-optee/optee/optee_test/ta/os_test/os_test.c:586
    1400:	14000023 	b	148c <ta_entry_basic+0x324>
test_mem_access_right():
/home/ssysarch/Desktop/nick/jetpack_5/Jetson_Linux_R35.4.1_aarch64/Linux_for_Tegra/sources/tegra/optee-src/nv-optee/optee/optee_test/ta/os_test/os_test.c:544
    1404:	9102e3e0 	add	x0, sp, #0xb8
    1408:	f9003fe0 	str	x0, [sp, #120]
/home/ssysarch/Desktop/nick/jetpack_5/Jetson_Linux_R35.4.1_aarch64/Linux_for_Tegra/sources/tegra/optee-src/nv-optee/optee/optee_test/ta/os_test/os_test.c:545
    140c:	d2800400 	mov	x0, #0x20                  	// #32
    1410:	f90043e0 	str	x0, [sp, #128]
/home/ssysarch/Desktop/nick/jetpack_5/Jetson_Linux_R35.4.1_aarch64/Linux_for_Tegra/sources/tegra/optee-src/nv-optee/optee/optee_test/ta/os_test/os_test.c:548
    1414:	f9403be0 	ldr	x0, [sp, #112]
    1418:	aa1503e5 	mov	x5, x21
    141c:	aa1703e4 	mov	x4, x23
    1420:	52800aa3 	mov	w3, #0x55                  	// #85
    1424:	52800102 	mov	w2, #0x8                   	// #8
    1428:	12800001 	mov	w1, #0xffffffff            	// #-1
/home/ssysarch/Desktop/nick/jetpack_5/Jetson_Linux_R35.4.1_aarch64/Linux_for_Tegra/sources/tegra/optee-src/nv-optee/optee/optee_test/ta/os_test/os_test.c:547
    142c:	a908ffff 	stp	xzr, xzr, [sp, #136]
/home/ssysarch/Desktop/nick/jetpack_5/Jetson_Linux_R35.4.1_aarch64/Linux_for_Tegra/sources/tegra/optee-src/nv-optee/optee/optee_test/ta/os_test/os_test.c:548
    1430:	940008ab 	bl	36dc <TEE_InvokeTACommand@plt>
    1434:	2a0003f3 	mov	w19, w0
/home/ssysarch/Desktop/nick/jetpack_5/Jetson_Linux_R35.4.1_aarch64/Linux_for_Tegra/sources/tegra/optee-src/nv-optee/optee/optee_test/ta/os_test/os_test.c:551
    1438:	34fff9e0 	cbz	w0, 1374 <ta_entry_basic+0x20c>
/home/ssysarch/Desktop/nick/jetpack_5/Jetson_Linux_R35.4.1_aarch64/Linux_for_Tegra/sources/tegra/optee-src/nv-optee/optee/optee_test/ta/os_test/os_test.c:552
    143c:	90000024 	adrp	x4, 5000 <__func__.4630+0x8d5>
    1440:	91009c84 	add	x4, x4, #0x27
    1444:	52800023 	mov	w3, #0x1                   	// #1
    1448:	52800022 	mov	w2, #0x1                   	// #1
    144c:	52804501 	mov	w1, #0x228                 	// #552
    1450:	17ffffc7 	b	136c <ta_entry_basic+0x204>
test_time():
/home/ssysarch/Desktop/nick/jetpack_5/Jetson_Linux_R35.4.1_aarch64/Linux_for_Tegra/sources/tegra/optee-src/nv-optee/optee/optee_test/ta/os_test/os_test.c:578
    1454:	1295ffc0 	mov	w0, #0xffff5001            	// #-45055
    1458:	6b00027f 	cmp	w19, w0
    145c:	54ffec41 	b.ne	11e4 <ta_entry_basic+0x7c>  // b.any
/home/ssysarch/Desktop/nick/jetpack_5/Jetson_Linux_R35.4.1_aarch64/Linux_for_Tegra/sources/tegra/optee-src/nv-optee/optee/optee_test/ta/os_test/os_test.c:591
    1460:	90000024 	adrp	x4, 5000 <__func__.4630+0x8d5>
    1464:	91034084 	add	x4, x4, #0xd0
    1468:	9113e280 	add	x0, x20, #0x4f8
    146c:	52800023 	mov	w3, #0x1                   	// #1
    1470:	52800022 	mov	w2, #0x1                   	// #1
    1474:	528049e1 	mov	w1, #0x24f                 	// #591
    1478:	14000018 	b	14d8 <ta_entry_basic+0x370>
/home/ssysarch/Desktop/nick/jetpack_5/Jetson_Linux_R35.4.1_aarch64/Linux_for_Tegra/sources/tegra/optee-src/nv-optee/optee/optee_test/ta/os_test/os_test.c:580
    147c:	294d0be1 	ldp	w1, w2, [sp, #104]
    1480:	90000020 	adrp	x0, 5000 <__func__.4630+0x8d5>
    1484:	91020400 	add	x0, x0, #0x81
    1488:	94000891 	bl	36cc <printf@plt>
/home/ssysarch/Desktop/nick/jetpack_5/Jetson_Linux_R35.4.1_aarch64/Linux_for_Tegra/sources/tegra/optee-src/nv-optee/optee/optee_test/ta/os_test/os_test.c:597
    148c:	9113e296 	add	x22, x20, #0x4f8
    1490:	910362c0 	add	x0, x22, #0xd8
    1494:	94000902 	bl	389c <TEE_SetTAPersistentTime@plt>
    1498:	2a0003f3 	mov	w19, w0
/home/ssysarch/Desktop/nick/jetpack_5/Jetson_Linux_R35.4.1_aarch64/Linux_for_Tegra/sources/tegra/optee-src/nv-optee/optee/optee_test/ta/os_test/os_test.c:598
    149c:	34000240 	cbz	w0, 14e4 <ta_entry_basic+0x37c>
/home/ssysarch/Desktop/nick/jetpack_5/Jetson_Linux_R35.4.1_aarch64/Linux_for_Tegra/sources/tegra/optee-src/nv-optee/optee/optee_test/ta/os_test/os_test.c:599
    14a0:	90000024 	adrp	x4, 5000 <__func__.4630+0x8d5>
    14a4:	91039484 	add	x4, x4, #0xe5
    14a8:	52800023 	mov	w3, #0x1                   	// #1
    14ac:	52800022 	mov	w2, #0x1                   	// #1
    14b0:	52804ae1 	mov	w1, #0x257                 	// #599
/home/ssysarch/Desktop/nick/jetpack_5/Jetson_Linux_R35.4.1_aarch64/Linux_for_Tegra/sources/tegra/optee-src/nv-optee/optee/optee_test/ta/os_test/os_test.c:623
    14b4:	91033ac0 	add	x0, x22, #0xce
test_bget():
/home/ssysarch/Desktop/nick/jetpack_5/Jetson_Linux_R35.4.1_aarch64/Linux_for_Tegra/sources/tegra/optee-src/nv-optee/optee/optee_test/ta/os_test/os_test.c:793
    14b8:	94000895 	bl	370c <trace_printf@plt>
ta_entry_basic():
/home/ssysarch/Desktop/nick/jetpack_5/Jetson_Linux_R35.4.1_aarch64/Linux_for_Tegra/sources/tegra/optee-src/nv-optee/optee/optee_test/ta/os_test/os_test.c:850
    14bc:	17ffff4a 	b	11e4 <ta_entry_basic+0x7c>
test_time():
/home/ssysarch/Desktop/nick/jetpack_5/Jetson_Linux_R35.4.1_aarch64/Linux_for_Tegra/sources/tegra/optee-src/nv-optee/optee/optee_test/ta/os_test/os_test.c:588
    14c0:	90000024 	adrp	x4, 5000 <__func__.4630+0x8d5>
    14c4:	9102f084 	add	x4, x4, #0xbc
    14c8:	9113e280 	add	x0, x20, #0x4f8
    14cc:	52800023 	mov	w3, #0x1                   	// #1
    14d0:	52800022 	mov	w2, #0x1                   	// #1
    14d4:	52804981 	mov	w1, #0x24c                 	// #588
/home/ssysarch/Desktop/nick/jetpack_5/Jetson_Linux_R35.4.1_aarch64/Linux_for_Tegra/sources/tegra/optee-src/nv-optee/optee/optee_test/ta/os_test/os_test.c:591
    14d8:	91033800 	add	x0, x0, #0xce
    14dc:	9400088c 	bl	370c <trace_printf@plt>
/home/ssysarch/Desktop/nick/jetpack_5/Jetson_Linux_R35.4.1_aarch64/Linux_for_Tegra/sources/tegra/optee-src/nv-optee/optee/optee_test/ta/os_test/os_test.c:592
    14e0:	17ffffeb 	b	148c <ta_entry_basic+0x324>
/home/ssysarch/Desktop/nick/jetpack_5/Jetson_Linux_R35.4.1_aarch64/Linux_for_Tegra/sources/tegra/optee-src/nv-optee/optee/optee_test/ta/os_test/os_test.c:603
    14e4:	aa1503e0 	mov	x0, x21
    14e8:	940008f5 	bl	38bc <TEE_GetTAPersistentTime@plt>
    14ec:	2a0003f3 	mov	w19, w0
/home/ssysarch/Desktop/nick/jetpack_5/Jetson_Linux_R35.4.1_aarch64/Linux_for_Tegra/sources/tegra/optee-src/nv-optee/optee/optee_test/ta/os_test/os_test.c:604
    14f0:	340000e0 	cbz	w0, 150c <ta_entry_basic+0x3a4>
/home/ssysarch/Desktop/nick/jetpack_5/Jetson_Linux_R35.4.1_aarch64/Linux_for_Tegra/sources/tegra/optee-src/nv-optee/optee/optee_test/ta/os_test/os_test.c:605
    14f4:	90000024 	adrp	x4, 5000 <__func__.4630+0x8d5>
    14f8:	91041884 	add	x4, x4, #0x106
    14fc:	52800023 	mov	w3, #0x1                   	// #1
    1500:	52800022 	mov	w2, #0x1                   	// #1
    1504:	52804ba1 	mov	w1, #0x25d                 	// #605
    1508:	17ffffeb 	b	14b4 <ta_entry_basic+0x34c>
/home/ssysarch/Desktop/nick/jetpack_5/Jetson_Linux_R35.4.1_aarch64/Linux_for_Tegra/sources/tegra/optee-src/nv-optee/optee/optee_test/ta/os_test/os_test.c:608
    150c:	294d0be1 	ldp	w1, w2, [sp, #104]
    1510:	90000037 	adrp	x23, 5000 <__func__.4630+0x8d5>
    1514:	910222e0 	add	x0, x23, #0x88
    1518:	9400086d 	bl	36cc <printf@plt>
/home/ssysarch/Desktop/nick/jetpack_5/Jetson_Linux_R35.4.1_aarch64/Linux_for_Tegra/sources/tegra/optee-src/nv-optee/optee/optee_test/ta/os_test/os_test.c:615
    151c:	b9406be5 	ldr	w5, [sp, #104]
    1520:	710004bf 	cmp	w5, #0x1
    1524:	54000088 	b.hi	1534 <ta_entry_basic+0x3cc>  // b.pmore
    1528:	b9406fe0 	ldr	w0, [sp, #108]
    152c:	710f9c1f 	cmp	w0, #0x3e7
    1530:	54000189 	b.ls	1560 <ta_entry_basic+0x3f8>  // b.plast
/home/ssysarch/Desktop/nick/jetpack_5/Jetson_Linux_R35.4.1_aarch64/Linux_for_Tegra/sources/tegra/optee-src/nv-optee/optee/optee_test/ta/os_test/os_test.c:616
    1534:	b9406fe6 	ldr	w6, [sp, #108]
    1538:	9113e280 	add	x0, x20, #0x4f8
    153c:	90000024 	adrp	x4, 5000 <__func__.4630+0x8d5>
    1540:	9104b084 	add	x4, x4, #0x12c
    1544:	91033800 	add	x0, x0, #0xce
    1548:	52800023 	mov	w3, #0x1                   	// #1
    154c:	52800022 	mov	w2, #0x1                   	// #1
    1550:	52804d01 	mov	w1, #0x268                 	// #616
    1554:	9400086e 	bl	370c <trace_printf@plt>
/home/ssysarch/Desktop/nick/jetpack_5/Jetson_Linux_R35.4.1_aarch64/Linux_for_Tegra/sources/tegra/optee-src/nv-optee/optee/optee_test/ta/os_test/os_test.c:643
    1558:	129fff13 	mov	w19, #0xffff0007            	// #-65529
    155c:	17ffff22 	b	11e4 <ta_entry_basic+0x7c>
/home/ssysarch/Desktop/nick/jetpack_5/Jetson_Linux_R35.4.1_aarch64/Linux_for_Tegra/sources/tegra/optee-src/nv-optee/optee/optee_test/ta/os_test/os_test.c:621
    1560:	910382c0 	add	x0, x22, #0xe0
    1564:	940008ce 	bl	389c <TEE_SetTAPersistentTime@plt>
    1568:	2a0003f3 	mov	w19, w0
/home/ssysarch/Desktop/nick/jetpack_5/Jetson_Linux_R35.4.1_aarch64/Linux_for_Tegra/sources/tegra/optee-src/nv-optee/optee/optee_test/ta/os_test/os_test.c:622
    156c:	340000e0 	cbz	w0, 1588 <ta_entry_basic+0x420>
/home/ssysarch/Desktop/nick/jetpack_5/Jetson_Linux_R35.4.1_aarch64/Linux_for_Tegra/sources/tegra/optee-src/nv-optee/optee/optee_test/ta/os_test/os_test.c:623
    1570:	90000024 	adrp	x4, 5000 <__func__.4630+0x8d5>
    1574:	91053c84 	add	x4, x4, #0x14f
    1578:	52800023 	mov	w3, #0x1                   	// #1
    157c:	52800022 	mov	w2, #0x1                   	// #1
    1580:	52804de1 	mov	w1, #0x26f                 	// #623
    1584:	17ffffcc 	b	14b4 <ta_entry_basic+0x34c>
/home/ssysarch/Desktop/nick/jetpack_5/Jetson_Linux_R35.4.1_aarch64/Linux_for_Tegra/sources/tegra/optee-src/nv-optee/optee/optee_test/ta/os_test/os_test.c:627
    1588:	52807d00 	mov	w0, #0x3e8                 	// #1000
    158c:	94000880 	bl	378c <TEE_Wait@plt>
/home/ssysarch/Desktop/nick/jetpack_5/Jetson_Linux_R35.4.1_aarch64/Linux_for_Tegra/sources/tegra/optee-src/nv-optee/optee/optee_test/ta/os_test/os_test.c:628
    1590:	34000100 	cbz	w0, 15b0 <ta_entry_basic+0x448>
/home/ssysarch/Desktop/nick/jetpack_5/Jetson_Linux_R35.4.1_aarch64/Linux_for_Tegra/sources/tegra/optee-src/nv-optee/optee/optee_test/ta/os_test/os_test.c:629
    1594:	90000024 	adrp	x4, 5000 <__func__.4630+0x8d5>
    1598:	9105d484 	add	x4, x4, #0x175
    159c:	91033ac0 	add	x0, x22, #0xce
    15a0:	52800023 	mov	w3, #0x1                   	// #1
    15a4:	52800022 	mov	w2, #0x1                   	// #1
    15a8:	52804ea1 	mov	w1, #0x275                 	// #629
    15ac:	94000858 	bl	370c <trace_printf@plt>
/home/ssysarch/Desktop/nick/jetpack_5/Jetson_Linux_R35.4.1_aarch64/Linux_for_Tegra/sources/tegra/optee-src/nv-optee/optee/optee_test/ta/os_test/os_test.c:631
    15b0:	aa1503e0 	mov	x0, x21
    15b4:	940008c2 	bl	38bc <TEE_GetTAPersistentTime@plt>
/home/ssysarch/Desktop/nick/jetpack_5/Jetson_Linux_R35.4.1_aarch64/Linux_for_Tegra/sources/tegra/optee-src/nv-optee/optee/optee_test/ta/os_test/os_test.c:632
    15b8:	1299fe01 	mov	w1, #0xffff300f            	// #-53233
    15bc:	6b01001f 	cmp	w0, w1
    15c0:	54000140 	b.eq	15e8 <ta_entry_basic+0x480>  // b.none
/home/ssysarch/Desktop/nick/jetpack_5/Jetson_Linux_R35.4.1_aarch64/Linux_for_Tegra/sources/tegra/optee-src/nv-optee/optee/optee_test/ta/os_test/os_test.c:633
    15c4:	9113e280 	add	x0, x20, #0x4f8
    15c8:	90000024 	adrp	x4, 5000 <__func__.4630+0x8d5>
    15cc:	91063084 	add	x4, x4, #0x18c
    15d0:	91033800 	add	x0, x0, #0xce
    15d4:	52800023 	mov	w3, #0x1                   	// #1
    15d8:	52800022 	mov	w2, #0x1                   	// #1
    15dc:	52804f21 	mov	w1, #0x279                 	// #633
    15e0:	9400084b 	bl	370c <trace_printf@plt>
ta_entry_basic():
/home/ssysarch/Desktop/nick/jetpack_5/Jetson_Linux_R35.4.1_aarch64/Linux_for_Tegra/sources/tegra/optee-src/nv-optee/optee/optee_test/ta/os_test/os_test.c:838
    15e4:	17ffffdd 	b	1558 <ta_entry_basic+0x3f0>
test_time():
/home/ssysarch/Desktop/nick/jetpack_5/Jetson_Linux_R35.4.1_aarch64/Linux_for_Tegra/sources/tegra/optee-src/nv-optee/optee/optee_test/ta/os_test/os_test.c:636
    15e8:	294d0be1 	ldp	w1, w2, [sp, #104]
    15ec:	910222e0 	add	x0, x23, #0x88
    15f0:	94000837 	bl	36cc <printf@plt>
/home/ssysarch/Desktop/nick/jetpack_5/Jetson_Linux_R35.4.1_aarch64/Linux_for_Tegra/sources/tegra/optee-src/nv-optee/optee/optee_test/ta/os_test/os_test.c:639
    15f4:	b9406be5 	ldr	w5, [sp, #104]
/home/ssysarch/Desktop/nick/jetpack_5/Jetson_Linux_R35.4.1_aarch64/Linux_for_Tegra/sources/tegra/optee-src/nv-optee/optee/optee_test/ta/os_test/os_test.c:640
    15f8:	9113e280 	add	x0, x20, #0x4f8
/home/ssysarch/Desktop/nick/jetpack_5/Jetson_Linux_R35.4.1_aarch64/Linux_for_Tegra/sources/tegra/optee-src/nv-optee/optee/optee_test/ta/os_test/os_test.c:639
    15fc:	b94073e7 	ldr	w7, [sp, #112]
    1600:	6b0700bf 	cmp	w5, w7
    1604:	54000189 	b.ls	1634 <ta_entry_basic+0x4cc>  // b.plast
/home/ssysarch/Desktop/nick/jetpack_5/Jetson_Linux_R35.4.1_aarch64/Linux_for_Tegra/sources/tegra/optee-src/nv-optee/optee/optee_test/ta/os_test/os_test.c:640
    1608:	b9406fe6 	ldr	w6, [sp, #108]
    160c:	91033800 	add	x0, x0, #0xce
    1610:	b94077e1 	ldr	w1, [sp, #116]
    1614:	90000024 	adrp	x4, 5000 <__func__.4630+0x8d5>
    1618:	9106b484 	add	x4, x4, #0x1ad
    161c:	b90003e1 	str	w1, [sp]
    1620:	52800023 	mov	w3, #0x1                   	// #1
    1624:	52800022 	mov	w2, #0x1                   	// #1
    1628:	52805001 	mov	w1, #0x280                 	// #640
    162c:	94000838 	bl	370c <trace_printf@plt>
    1630:	17ffffca 	b	1558 <ta_entry_basic+0x3f0>
test_float():
/home/ssysarch/Desktop/nick/jetpack_5/Jetson_Linux_R35.4.1_aarch64/Linux_for_Tegra/sources/tegra/optee-src/nv-optee/optee/optee_test/ta/os_test/os_test.c:675
    1634:	9103a000 	add	x0, x0, #0xe8
    1638:	52800023 	mov	w3, #0x1                   	// #1
    163c:	52800042 	mov	w2, #0x2                   	// #2
    1640:	52805461 	mov	w1, #0x2a3                 	// #675
    1644:	90000024 	adrp	x4, 5000 <__func__.4630+0x8d5>
    1648:	91077884 	add	x4, x4, #0x1de
    164c:	94000830 	bl	370c <trace_printf@plt>
/home/ssysarch/Desktop/nick/jetpack_5/Jetson_Linux_R35.4.1_aarch64/Linux_for_Tegra/sources/tegra/optee-src/nv-optee/optee/optee_test/ta/os_test/os_test.c:677
    1650:	f0000000 	adrp	x0, 4000 <free@plt+0x684>
    1654:	fd420801 	ldr	d1, [x0, #1040]
    1658:	f0000000 	adrp	x0, 4000 <free@plt+0x684>
    165c:	fd420c00 	ldr	d0, [x0, #1048]
    1660:	94000606 	bl	2e78 <test_float_dadd>
my_dcmpeq():
/home/ssysarch/Desktop/nick/jetpack_5/Jetson_Linux_R35.4.1_aarch64/Linux_for_Tegra/sources/tegra/optee-src/nv-optee/optee/optee_test/ta/os_test/os_test.c:652
    1664:	b201e7e0 	mov	x0, #0x9999999999999999    	// #-7378697629483820647
    1668:	f2e803e0 	movk	x0, #0x401f, lsl #48
    166c:	9e670001 	fmov	d1, x0
    1670:	1e612010 	fcmpe	d0, d1
    1674:	540002ed 	b.le	16d0 <ta_entry_basic+0x568>
    1678:	f0000000 	adrp	x0, 4000 <free@plt+0x684>
    167c:	fd421001 	ldr	d1, [x0, #1056]
    1680:	1e612010 	fcmpe	d0, d1
    1684:	54000265 	b.pl	16d0 <ta_entry_basic+0x568>  // b.nfrst
test_float():
/home/ssysarch/Desktop/nick/jetpack_5/Jetson_Linux_R35.4.1_aarch64/Linux_for_Tegra/sources/tegra/optee-src/nv-optee/optee/optee_test/ta/os_test/os_test.c:678
    1688:	f0000000 	adrp	x0, 4000 <free@plt+0x684>
    168c:	fd420801 	ldr	d1, [x0, #1040]
    1690:	f0000000 	adrp	x0, 4000 <free@plt+0x684>
    1694:	fd420c00 	ldr	d0, [x0, #1048]
    1698:	940005fa 	bl	2e80 <test_float_ddiv>
my_dcmpeq():
/home/ssysarch/Desktop/nick/jetpack_5/Jetson_Linux_R35.4.1_aarch64/Linux_for_Tegra/sources/tegra/optee-src/nv-optee/optee/optee_test/ta/os_test/os_test.c:652
    169c:	f0000000 	adrp	x0, 4000 <free@plt+0x684>
    16a0:	fd421401 	ldr	d1, [x0, #1064]
    16a4:	1e612010 	fcmpe	d0, d1
    16a8:	540002ac 	b.gt	16fc <ta_entry_basic+0x594>
test_float():
/home/ssysarch/Desktop/nick/jetpack_5/Jetson_Linux_R35.4.1_aarch64/Linux_for_Tegra/sources/tegra/optee-src/nv-optee/optee/optee_test/ta/os_test/os_test.c:678
    16ac:	90000025 	adrp	x5, 5000 <__func__.4630+0x8d5>
    16b0:	910940a5 	add	x5, x5, #0x250
    16b4:	90000024 	adrp	x4, 5000 <__func__.4630+0x8d5>
    16b8:	9108ec84 	add	x4, x4, #0x23b
    16bc:	9113e280 	add	x0, x20, #0x4f8
    16c0:	52800023 	mov	w3, #0x1                   	// #1
    16c4:	52800022 	mov	w2, #0x1                   	// #1
    16c8:	528054c1 	mov	w1, #0x2a6                 	// #678
    16cc:	14000009 	b	16f0 <ta_entry_basic+0x588>
/home/ssysarch/Desktop/nick/jetpack_5/Jetson_Linux_R35.4.1_aarch64/Linux_for_Tegra/sources/tegra/optee-src/nv-optee/optee/optee_test/ta/os_test/os_test.c:677
    16d0:	90000025 	adrp	x5, 5000 <__func__.4630+0x8d5>
    16d4:	910800a5 	add	x5, x5, #0x200
    16d8:	90000024 	adrp	x4, 5000 <__func__.4630+0x8d5>
    16dc:	9108ec84 	add	x4, x4, #0x23b
    16e0:	9113e280 	add	x0, x20, #0x4f8
    16e4:	52800023 	mov	w3, #0x1                   	// #1
    16e8:	52800022 	mov	w2, #0x1                   	// #1
    16ec:	528054a1 	mov	w1, #0x2a5                 	// #677
/home/ssysarch/Desktop/nick/jetpack_5/Jetson_Linux_R35.4.1_aarch64/Linux_for_Tegra/sources/tegra/optee-src/nv-optee/optee/optee_test/ta/os_test/os_test.c:722
    16f0:	9103a000 	add	x0, x0, #0xe8
    16f4:	94000806 	bl	370c <trace_printf@plt>
    16f8:	17fffed4 	b	1248 <ta_entry_basic+0xe0>
my_dcmpeq():
/home/ssysarch/Desktop/nick/jetpack_5/Jetson_Linux_R35.4.1_aarch64/Linux_for_Tegra/sources/tegra/optee-src/nv-optee/optee/optee_test/ta/os_test/os_test.c:652
    16fc:	f0000000 	adrp	x0, 4000 <free@plt+0x684>
    1700:	fd421801 	ldr	d1, [x0, #1072]
    1704:	1e612010 	fcmpe	d0, d1
    1708:	54fffd25 	b.pl	16ac <ta_entry_basic+0x544>  // b.nfrst
test_float():
/home/ssysarch/Desktop/nick/jetpack_5/Jetson_Linux_R35.4.1_aarch64/Linux_for_Tegra/sources/tegra/optee-src/nv-optee/optee/optee_test/ta/os_test/os_test.c:679
    170c:	f0000000 	adrp	x0, 4000 <free@plt+0x684>
    1710:	fd420801 	ldr	d1, [x0, #1040]
    1714:	f0000000 	adrp	x0, 4000 <free@plt+0x684>
    1718:	fd420c00 	ldr	d0, [x0, #1048]
    171c:	940005db 	bl	2e88 <test_float_dmul>
my_dcmpeq():
/home/ssysarch/Desktop/nick/jetpack_5/Jetson_Linux_R35.4.1_aarch64/Linux_for_Tegra/sources/tegra/optee-src/nv-optee/optee/optee_test/ta/os_test/os_test.c:652
    1720:	f0000000 	adrp	x0, 4000 <free@plt+0x684>
    1724:	fd421c01 	ldr	d1, [x0, #1080]
    1728:	1e612010 	fcmpe	d0, d1
    172c:	540000ad 	b.le	1740 <ta_entry_basic+0x5d8>
    1730:	f0000000 	adrp	x0, 4000 <free@plt+0x684>
    1734:	fd422001 	ldr	d1, [x0, #1088]
    1738:	1e612010 	fcmpe	d0, d1
    173c:	54000144 	b.mi	1764 <ta_entry_basic+0x5fc>  // b.first
test_float():
/home/ssysarch/Desktop/nick/jetpack_5/Jetson_Linux_R35.4.1_aarch64/Linux_for_Tegra/sources/tegra/optee-src/nv-optee/optee/optee_test/ta/os_test/os_test.c:679
    1740:	90000025 	adrp	x5, 5000 <__func__.4630+0x8d5>
    1744:	910a2ca5 	add	x5, x5, #0x28b
    1748:	90000024 	adrp	x4, 5000 <__func__.4630+0x8d5>
    174c:	9108ec84 	add	x4, x4, #0x23b
    1750:	9113e280 	add	x0, x20, #0x4f8
    1754:	52800023 	mov	w3, #0x1                   	// #1
    1758:	52800022 	mov	w2, #0x1                   	// #1
    175c:	528054e1 	mov	w1, #0x2a7                 	// #679
    1760:	17ffffe4 	b	16f0 <ta_entry_basic+0x588>
/home/ssysarch/Desktop/nick/jetpack_5/Jetson_Linux_R35.4.1_aarch64/Linux_for_Tegra/sources/tegra/optee-src/nv-optee/optee/optee_test/ta/os_test/os_test.c:680
    1764:	f0000000 	adrp	x0, 4000 <free@plt+0x684>
    1768:	fd420801 	ldr	d1, [x0, #1040]
    176c:	f0000000 	adrp	x0, 4000 <free@plt+0x684>
    1770:	fd420c00 	ldr	d0, [x0, #1048]
    1774:	940005c7 	bl	2e90 <test_float_drsub>
my_dcmpeq():
/home/ssysarch/Desktop/nick/jetpack_5/Jetson_Linux_R35.4.1_aarch64/Linux_for_Tegra/sources/tegra/optee-src/nv-optee/optee/optee_test/ta/os_test/os_test.c:652
    1778:	f0000000 	adrp	x0, 4000 <free@plt+0x684>
    177c:	fd422401 	ldr	d1, [x0, #1096]
    1780:	1e612010 	fcmpe	d0, d1
    1784:	540000ad 	b.le	1798 <ta_entry_basic+0x630>
    1788:	f0000000 	adrp	x0, 4000 <free@plt+0x684>
    178c:	fd422801 	ldr	d1, [x0, #1104]
    1790:	1e612010 	fcmpe	d0, d1
    1794:	54000144 	b.mi	17bc <ta_entry_basic+0x654>  // b.first
test_float():
/home/ssysarch/Desktop/nick/jetpack_5/Jetson_Linux_R35.4.1_aarch64/Linux_for_Tegra/sources/tegra/optee-src/nv-optee/optee/optee_test/ta/os_test/os_test.c:680
    1798:	90000025 	adrp	x5, 5000 <__func__.4630+0x8d5>
    179c:	910b18a5 	add	x5, x5, #0x2c6
    17a0:	90000024 	adrp	x4, 5000 <__func__.4630+0x8d5>
    17a4:	9108ec84 	add	x4, x4, #0x23b
    17a8:	9113e280 	add	x0, x20, #0x4f8
    17ac:	52800023 	mov	w3, #0x1                   	// #1
    17b0:	52800022 	mov	w2, #0x1                   	// #1
    17b4:	52805501 	mov	w1, #0x2a8                 	// #680
    17b8:	17ffffce 	b	16f0 <ta_entry_basic+0x588>
/home/ssysarch/Desktop/nick/jetpack_5/Jetson_Linux_R35.4.1_aarch64/Linux_for_Tegra/sources/tegra/optee-src/nv-optee/optee/optee_test/ta/os_test/os_test.c:681
    17bc:	f0000000 	adrp	x0, 4000 <free@plt+0x684>
    17c0:	fd420801 	ldr	d1, [x0, #1040]
    17c4:	f0000000 	adrp	x0, 4000 <free@plt+0x684>
    17c8:	fd420c00 	ldr	d0, [x0, #1048]
    17cc:	940005b3 	bl	2e98 <test_float_dsub>
my_dcmpeq():
/home/ssysarch/Desktop/nick/jetpack_5/Jetson_Linux_R35.4.1_aarch64/Linux_for_Tegra/sources/tegra/optee-src/nv-optee/optee/optee_test/ta/os_test/os_test.c:652
    17d0:	f0000000 	adrp	x0, 4000 <free@plt+0x684>
    17d4:	fd422c01 	ldr	d1, [x0, #1112]
    17d8:	1e612010 	fcmpe	d0, d1
    17dc:	540000ad 	b.le	17f0 <ta_entry_basic+0x688>
    17e0:	f0000000 	adrp	x0, 4000 <free@plt+0x684>
    17e4:	fd423001 	ldr	d1, [x0, #1120]
    17e8:	1e612010 	fcmpe	d0, d1
    17ec:	54000144 	b.mi	1814 <ta_entry_basic+0x6ac>  // b.first
test_float():
/home/ssysarch/Desktop/nick/jetpack_5/Jetson_Linux_R35.4.1_aarch64/Linux_for_Tegra/sources/tegra/optee-src/nv-optee/optee/optee_test/ta/os_test/os_test.c:681
    17f0:	90000025 	adrp	x5, 5000 <__func__.4630+0x8d5>
    17f4:	910c08a5 	add	x5, x5, #0x302
    17f8:	90000024 	adrp	x4, 5000 <__func__.4630+0x8d5>
    17fc:	9108ec84 	add	x4, x4, #0x23b
    1800:	9113e280 	add	x0, x20, #0x4f8
    1804:	52800023 	mov	w3, #0x1                   	// #1
    1808:	52800022 	mov	w2, #0x1                   	// #1
    180c:	52805521 	mov	w1, #0x2a9                 	// #681
    1810:	17ffffb8 	b	16f0 <ta_entry_basic+0x588>
/home/ssysarch/Desktop/nick/jetpack_5/Jetson_Linux_R35.4.1_aarch64/Linux_for_Tegra/sources/tegra/optee-src/nv-optee/optee/optee_test/ta/os_test/os_test.c:683
    1814:	f0000000 	adrp	x0, 4000 <free@plt+0x684>
    1818:	fd420c01 	ldr	d1, [x0, #1048]
    181c:	1e604020 	fmov	d0, d1
    1820:	940005a0 	bl	2ea0 <test_float_dcmpeq>
    1824:	2a0003f5 	mov	w21, w0
    1828:	7100041f 	cmp	w0, #0x1
    182c:	54000140 	b.eq	1854 <ta_entry_basic+0x6ec>  // b.none
    1830:	90000025 	adrp	x5, 5000 <__func__.4630+0x8d5>
    1834:	910cf4a5 	add	x5, x5, #0x33d
    1838:	90000024 	adrp	x4, 5000 <__func__.4630+0x8d5>
    183c:	9108ec84 	add	x4, x4, #0x23b
    1840:	9113e280 	add	x0, x20, #0x4f8
    1844:	52800023 	mov	w3, #0x1                   	// #1
    1848:	52800022 	mov	w2, #0x1                   	// #1
    184c:	52805561 	mov	w1, #0x2ab                 	// #683
    1850:	17ffffa8 	b	16f0 <ta_entry_basic+0x588>
/home/ssysarch/Desktop/nick/jetpack_5/Jetson_Linux_R35.4.1_aarch64/Linux_for_Tegra/sources/tegra/optee-src/nv-optee/optee/optee_test/ta/os_test/os_test.c:684
    1854:	f0000000 	adrp	x0, 4000 <free@plt+0x684>
    1858:	fd420801 	ldr	d1, [x0, #1040]
    185c:	f0000000 	adrp	x0, 4000 <free@plt+0x684>
    1860:	fd420c00 	ldr	d0, [x0, #1048]
    1864:	94000592 	bl	2eac <test_float_dcmplt>
    1868:	2a0003f3 	mov	w19, w0
    186c:	7100041f 	cmp	w0, #0x1
    1870:	54000140 	b.eq	1898 <ta_entry_basic+0x730>  // b.none
    1874:	90000025 	adrp	x5, 5000 <__func__.4630+0x8d5>
    1878:	910d80a5 	add	x5, x5, #0x360
    187c:	90000024 	adrp	x4, 5000 <__func__.4630+0x8d5>
    1880:	9108ec84 	add	x4, x4, #0x23b
    1884:	9113e280 	add	x0, x20, #0x4f8
    1888:	2a1503e3 	mov	w3, w21
    188c:	2a1503e2 	mov	w2, w21
    1890:	52805581 	mov	w1, #0x2ac                 	// #684
    1894:	17ffff97 	b	16f0 <ta_entry_basic+0x588>
/home/ssysarch/Desktop/nick/jetpack_5/Jetson_Linux_R35.4.1_aarch64/Linux_for_Tegra/sources/tegra/optee-src/nv-optee/optee/optee_test/ta/os_test/os_test.c:685
    1898:	f0000000 	adrp	x0, 4000 <free@plt+0x684>
    189c:	fd420c01 	ldr	d1, [x0, #1048]
    18a0:	1e604020 	fmov	d0, d1
    18a4:	94000585 	bl	2eb8 <test_float_dcmple>
    18a8:	2a0003f4 	mov	w20, w0
    18ac:	7100041f 	cmp	w0, #0x1
    18b0:	54000160 	b.eq	18dc <ta_entry_basic+0x774>  // b.none
    18b4:	90000025 	adrp	x5, 5000 <__func__.4630+0x8d5>
    18b8:	910e0ca5 	add	x5, x5, #0x383
    18bc:	90000024 	adrp	x4, 5000 <__func__.4630+0x8d5>
    18c0:	9108ec84 	add	x4, x4, #0x23b
    18c4:	2a1303e3 	mov	w3, w19
    18c8:	2a1303e2 	mov	w2, w19
    18cc:	528055a1 	mov	w1, #0x2ad                 	// #685
/home/ssysarch/Desktop/nick/jetpack_5/Jetson_Linux_R35.4.1_aarch64/Linux_for_Tegra/sources/tegra/optee-src/nv-optee/optee/optee_test/ta/os_test/os_test.c:722
    18d0:	f0000000 	adrp	x0, 4000 <free@plt+0x684>
    18d4:	9113e000 	add	x0, x0, #0x4f8
    18d8:	17ffff86 	b	16f0 <ta_entry_basic+0x588>
/home/ssysarch/Desktop/nick/jetpack_5/Jetson_Linux_R35.4.1_aarch64/Linux_for_Tegra/sources/tegra/optee-src/nv-optee/optee/optee_test/ta/os_test/os_test.c:686
    18dc:	f0000000 	adrp	x0, 4000 <free@plt+0x684>
    18e0:	fd420c01 	ldr	d1, [x0, #1048]
    18e4:	1e604020 	fmov	d0, d1
    18e8:	94000577 	bl	2ec4 <test_float_dcmpge>
    18ec:	2a0003f3 	mov	w19, w0
    18f0:	7100041f 	cmp	w0, #0x1
    18f4:	54000120 	b.eq	1918 <ta_entry_basic+0x7b0>  // b.none
    18f8:	90000025 	adrp	x5, 5000 <__func__.4630+0x8d5>
    18fc:	910e98a5 	add	x5, x5, #0x3a6
    1900:	90000024 	adrp	x4, 5000 <__func__.4630+0x8d5>
    1904:	9108ec84 	add	x4, x4, #0x23b
    1908:	2a1403e3 	mov	w3, w20
    190c:	2a1403e2 	mov	w2, w20
    1910:	528055c1 	mov	w1, #0x2ae                 	// #686
    1914:	17ffffef 	b	18d0 <ta_entry_basic+0x768>
/home/ssysarch/Desktop/nick/jetpack_5/Jetson_Linux_R35.4.1_aarch64/Linux_for_Tegra/sources/tegra/optee-src/nv-optee/optee/optee_test/ta/os_test/os_test.c:687
    1918:	f0000000 	adrp	x0, 4000 <free@plt+0x684>
    191c:	fd420c01 	ldr	d1, [x0, #1048]
    1920:	f0000000 	adrp	x0, 4000 <free@plt+0x684>
    1924:	fd420800 	ldr	d0, [x0, #1040]
    1928:	9400056a 	bl	2ed0 <test_float_dcmpgt>
    192c:	7100041f 	cmp	w0, #0x1
    1930:	54000120 	b.eq	1954 <ta_entry_basic+0x7ec>  // b.none
    1934:	90000025 	adrp	x5, 5000 <__func__.4630+0x8d5>
    1938:	910f24a5 	add	x5, x5, #0x3c9
    193c:	90000024 	adrp	x4, 5000 <__func__.4630+0x8d5>
    1940:	9108ec84 	add	x4, x4, #0x23b
    1944:	2a1303e3 	mov	w3, w19
    1948:	2a1303e2 	mov	w2, w19
    194c:	528055e1 	mov	w1, #0x2af                 	// #687
    1950:	17ffffe0 	b	18d0 <ta_entry_basic+0x768>
/home/ssysarch/Desktop/nick/jetpack_5/Jetson_Linux_R35.4.1_aarch64/Linux_for_Tegra/sources/tegra/optee-src/nv-optee/optee/optee_test/ta/os_test/os_test.c:689
    1954:	f0000000 	adrp	x0, 4000 <free@plt+0x684>
    1958:	bd46b401 	ldr	s1, [x0, #1716]
    195c:	f0000000 	adrp	x0, 4000 <free@plt+0x684>
    1960:	bd46b800 	ldr	s0, [x0, #1720]
    1964:	9400055e 	bl	2edc <test_float_fadd>
my_fcmpeq():
/home/ssysarch/Desktop/nick/jetpack_5/Jetson_Linux_R35.4.1_aarch64/Linux_for_Tegra/sources/tegra/optee-src/nv-optee/optee/optee_test/ta/os_test/os_test.c:657
    1968:	52999960 	mov	w0, #0xcccb                	// #52427
    196c:	72a81f80 	movk	w0, #0x40fc, lsl #16
    1970:	1e270001 	fmov	s1, w0
    1974:	1e212010 	fcmpe	s0, s1
    1978:	540000ad 	b.le	198c <ta_entry_basic+0x824>
    197c:	11001000 	add	w0, w0, #0x4
    1980:	1e270001 	fmov	s1, w0
    1984:	1e212010 	fcmpe	s0, s1
    1988:	54000124 	b.mi	19ac <ta_entry_basic+0x844>  // b.first
test_float():
/home/ssysarch/Desktop/nick/jetpack_5/Jetson_Linux_R35.4.1_aarch64/Linux_for_Tegra/sources/tegra/optee-src/nv-optee/optee/optee_test/ta/os_test/os_test.c:689
    198c:	90000025 	adrp	x5, 5000 <__func__.4630+0x8d5>
    1990:	910fb0a5 	add	x5, x5, #0x3ec
    1994:	90000024 	adrp	x4, 5000 <__func__.4630+0x8d5>
    1998:	9108ec84 	add	x4, x4, #0x23b
    199c:	52800023 	mov	w3, #0x1                   	// #1
    19a0:	52800022 	mov	w2, #0x1                   	// #1
    19a4:	52805621 	mov	w1, #0x2b1                 	// #689
    19a8:	17ffffca 	b	18d0 <ta_entry_basic+0x768>
/home/ssysarch/Desktop/nick/jetpack_5/Jetson_Linux_R35.4.1_aarch64/Linux_for_Tegra/sources/tegra/optee-src/nv-optee/optee/optee_test/ta/os_test/os_test.c:690
    19ac:	f0000000 	adrp	x0, 4000 <free@plt+0x684>
    19b0:	bd46b401 	ldr	s1, [x0, #1716]
    19b4:	f0000000 	adrp	x0, 4000 <free@plt+0x684>
    19b8:	bd46b800 	ldr	s0, [x0, #1720]
    19bc:	9400054a 	bl	2ee4 <test_float_fdiv>
my_fcmpeq():
/home/ssysarch/Desktop/nick/jetpack_5/Jetson_Linux_R35.4.1_aarch64/Linux_for_Tegra/sources/tegra/optee-src/nv-optee/optee/optee_test/ta/os_test/os_test.c:657
    19c0:	52856ae0 	mov	w0, #0x2b57                	// #11095
    19c4:	72a7df60 	movk	w0, #0x3efb, lsl #16
    19c8:	1e270001 	fmov	s1, w0
    19cc:	1e212010 	fcmpe	s0, s1
    19d0:	540000ad 	b.le	19e4 <ta_entry_basic+0x87c>
    19d4:	11011000 	add	w0, w0, #0x44
    19d8:	1e270001 	fmov	s1, w0
    19dc:	1e212010 	fcmpe	s0, s1
    19e0:	54000124 	b.mi	1a04 <ta_entry_basic+0x89c>  // b.first
test_float():
/home/ssysarch/Desktop/nick/jetpack_5/Jetson_Linux_R35.4.1_aarch64/Linux_for_Tegra/sources/tegra/optee-src/nv-optee/optee/optee_test/ta/os_test/os_test.c:690
    19e4:	90000025 	adrp	x5, 5000 <__func__.4630+0x8d5>
    19e8:	91109ca5 	add	x5, x5, #0x427
    19ec:	90000024 	adrp	x4, 5000 <__func__.4630+0x8d5>
    19f0:	9108ec84 	add	x4, x4, #0x23b
    19f4:	52800023 	mov	w3, #0x1                   	// #1
    19f8:	52800022 	mov	w2, #0x1                   	// #1
    19fc:	52805641 	mov	w1, #0x2b2                 	// #690
    1a00:	17ffffb4 	b	18d0 <ta_entry_basic+0x768>
/home/ssysarch/Desktop/nick/jetpack_5/Jetson_Linux_R35.4.1_aarch64/Linux_for_Tegra/sources/tegra/optee-src/nv-optee/optee/optee_test/ta/os_test/os_test.c:691
    1a04:	f0000000 	adrp	x0, 4000 <free@plt+0x684>
    1a08:	bd46b401 	ldr	s1, [x0, #1716]
    1a0c:	f0000000 	adrp	x0, 4000 <free@plt+0x684>
    1a10:	bd46b800 	ldr	s0, [x0, #1720]
    1a14:	94000536 	bl	2eec <test_float_fmul>
my_fcmpeq():
/home/ssysarch/Desktop/nick/jetpack_5/Jetson_Linux_R35.4.1_aarch64/Linux_for_Tegra/sources/tegra/optee-src/nv-optee/optee/optee_test/ta/os_test/os_test.c:657
    1a18:	528f5c00 	mov	w0, #0x7ae0                	// #31456
    1a1c:	72a82b80 	movk	w0, #0x415c, lsl #16
    1a20:	1e270001 	fmov	s1, w0
    1a24:	1e212010 	fcmpe	s0, s1
    1a28:	540000ad 	b.le	1a3c <ta_entry_basic+0x8d4>
    1a2c:	11000800 	add	w0, w0, #0x2
    1a30:	1e270001 	fmov	s1, w0
    1a34:	1e212010 	fcmpe	s0, s1
    1a38:	54000124 	b.mi	1a5c <ta_entry_basic+0x8f4>  // b.first
test_float():
/home/ssysarch/Desktop/nick/jetpack_5/Jetson_Linux_R35.4.1_aarch64/Linux_for_Tegra/sources/tegra/optee-src/nv-optee/optee/optee_test/ta/os_test/os_test.c:691
    1a3c:	90000025 	adrp	x5, 5000 <__func__.4630+0x8d5>
    1a40:	911188a5 	add	x5, x5, #0x462
    1a44:	90000024 	adrp	x4, 5000 <__func__.4630+0x8d5>
    1a48:	9108ec84 	add	x4, x4, #0x23b
    1a4c:	52800023 	mov	w3, #0x1                   	// #1
    1a50:	52800022 	mov	w2, #0x1                   	// #1
    1a54:	52805661 	mov	w1, #0x2b3                 	// #691
    1a58:	17ffff9e 	b	18d0 <ta_entry_basic+0x768>
/home/ssysarch/Desktop/nick/jetpack_5/Jetson_Linux_R35.4.1_aarch64/Linux_for_Tegra/sources/tegra/optee-src/nv-optee/optee/optee_test/ta/os_test/os_test.c:692
    1a5c:	f0000000 	adrp	x0, 4000 <free@plt+0x684>
    1a60:	bd46b401 	ldr	s1, [x0, #1716]
    1a64:	f0000000 	adrp	x0, 4000 <free@plt+0x684>
    1a68:	bd46b800 	ldr	s0, [x0, #1720]
    1a6c:	94000522 	bl	2ef4 <test_float_frsub>
my_fcmpeq():
/home/ssysarch/Desktop/nick/jetpack_5/Jetson_Linux_R35.4.1_aarch64/Linux_for_Tegra/sources/tegra/optee-src/nv-optee/optee/optee_test/ta/os_test/os_test.c:657
    1a70:	52999920 	mov	w0, #0xccc9                	// #52425
    1a74:	72a80580 	movk	w0, #0x402c, lsl #16
    1a78:	1e270001 	fmov	s1, w0
    1a7c:	1e212010 	fcmpe	s0, s1
    1a80:	540000ad 	b.le	1a94 <ta_entry_basic+0x92c>
    1a84:	11002000 	add	w0, w0, #0x8
    1a88:	1e270001 	fmov	s1, w0
    1a8c:	1e212010 	fcmpe	s0, s1
    1a90:	54000124 	b.mi	1ab4 <ta_entry_basic+0x94c>  // b.first
test_float():
/home/ssysarch/Desktop/nick/jetpack_5/Jetson_Linux_R35.4.1_aarch64/Linux_for_Tegra/sources/tegra/optee-src/nv-optee/optee/optee_test/ta/os_test/os_test.c:692
    1a94:	90000025 	adrp	x5, 5000 <__func__.4630+0x8d5>
    1a98:	911274a5 	add	x5, x5, #0x49d
    1a9c:	90000024 	adrp	x4, 5000 <__func__.4630+0x8d5>
    1aa0:	9108ec84 	add	x4, x4, #0x23b
    1aa4:	52800023 	mov	w3, #0x1                   	// #1
    1aa8:	52800022 	mov	w2, #0x1                   	// #1
    1aac:	52805681 	mov	w1, #0x2b4                 	// #692
    1ab0:	17ffff88 	b	18d0 <ta_entry_basic+0x768>
/home/ssysarch/Desktop/nick/jetpack_5/Jetson_Linux_R35.4.1_aarch64/Linux_for_Tegra/sources/tegra/optee-src/nv-optee/optee/optee_test/ta/os_test/os_test.c:693
    1ab4:	f0000000 	adrp	x0, 4000 <free@plt+0x684>
    1ab8:	bd46b401 	ldr	s1, [x0, #1716]
    1abc:	f0000000 	adrp	x0, 4000 <free@plt+0x684>
    1ac0:	bd46b800 	ldr	s0, [x0, #1720]
    1ac4:	9400050e 	bl	2efc <test_float_fsub>
my_fcmpeq():
/home/ssysarch/Desktop/nick/jetpack_5/Jetson_Linux_R35.4.1_aarch64/Linux_for_Tegra/sources/tegra/optee-src/nv-optee/optee/optee_test/ta/os_test/os_test.c:657
    1ac8:	52999a20 	mov	w0, #0xccd1                	// #52433
    1acc:	72b80580 	movk	w0, #0xc02c, lsl #16
    1ad0:	1e270001 	fmov	s1, w0
    1ad4:	1e212010 	fcmpe	s0, s1
    1ad8:	540000cd 	b.le	1af0 <ta_entry_basic+0x988>
    1adc:	52999920 	mov	w0, #0xccc9                	// #52425
    1ae0:	72b80580 	movk	w0, #0xc02c, lsl #16
    1ae4:	1e270001 	fmov	s1, w0
    1ae8:	1e212010 	fcmpe	s0, s1
    1aec:	54000124 	b.mi	1b10 <ta_entry_basic+0x9a8>  // b.first
test_float():
/home/ssysarch/Desktop/nick/jetpack_5/Jetson_Linux_R35.4.1_aarch64/Linux_for_Tegra/sources/tegra/optee-src/nv-optee/optee/optee_test/ta/os_test/os_test.c:693
    1af0:	90000025 	adrp	x5, 5000 <__func__.4630+0x8d5>
    1af4:	911364a5 	add	x5, x5, #0x4d9
    1af8:	90000024 	adrp	x4, 5000 <__func__.4630+0x8d5>
    1afc:	9108ec84 	add	x4, x4, #0x23b
    1b00:	52800023 	mov	w3, #0x1                   	// #1
    1b04:	52800022 	mov	w2, #0x1                   	// #1
    1b08:	528056a1 	mov	w1, #0x2b5                 	// #693
    1b0c:	17ffff71 	b	18d0 <ta_entry_basic+0x768>
/home/ssysarch/Desktop/nick/jetpack_5/Jetson_Linux_R35.4.1_aarch64/Linux_for_Tegra/sources/tegra/optee-src/nv-optee/optee/optee_test/ta/os_test/os_test.c:695
    1b10:	f0000000 	adrp	x0, 4000 <free@plt+0x684>
    1b14:	bd46b801 	ldr	s1, [x0, #1720]
    1b18:	1e204020 	fmov	s0, s1
    1b1c:	940004fa 	bl	2f04 <test_float_fcmpeq>
    1b20:	2a0003f3 	mov	w19, w0
    1b24:	7100041f 	cmp	w0, #0x1
    1b28:	54000120 	b.eq	1b4c <ta_entry_basic+0x9e4>  // b.none
    1b2c:	90000025 	adrp	x5, 5000 <__func__.4630+0x8d5>
    1b30:	911450a5 	add	x5, x5, #0x514
    1b34:	90000024 	adrp	x4, 5000 <__func__.4630+0x8d5>
    1b38:	9108ec84 	add	x4, x4, #0x23b
    1b3c:	52800023 	mov	w3, #0x1                   	// #1
    1b40:	52800022 	mov	w2, #0x1                   	// #1
    1b44:	528056e1 	mov	w1, #0x2b7                 	// #695
    1b48:	17ffff62 	b	18d0 <ta_entry_basic+0x768>
/home/ssysarch/Desktop/nick/jetpack_5/Jetson_Linux_R35.4.1_aarch64/Linux_for_Tegra/sources/tegra/optee-src/nv-optee/optee/optee_test/ta/os_test/os_test.c:696
    1b4c:	f0000000 	adrp	x0, 4000 <free@plt+0x684>
    1b50:	bd46b401 	ldr	s1, [x0, #1716]
    1b54:	f0000000 	adrp	x0, 4000 <free@plt+0x684>
    1b58:	bd46b800 	ldr	s0, [x0, #1720]
    1b5c:	940004ed 	bl	2f10 <test_float_fcmplt>
    1b60:	7100041f 	cmp	w0, #0x1
    1b64:	54000120 	b.eq	1b88 <ta_entry_basic+0xa20>  // b.none
    1b68:	90000025 	adrp	x5, 5000 <__func__.4630+0x8d5>
    1b6c:	9114dca5 	add	x5, x5, #0x537
    1b70:	90000024 	adrp	x4, 5000 <__func__.4630+0x8d5>
    1b74:	9108ec84 	add	x4, x4, #0x23b
    1b78:	2a1303e3 	mov	w3, w19
    1b7c:	2a1303e2 	mov	w2, w19
    1b80:	52805701 	mov	w1, #0x2b8                 	// #696
    1b84:	17ffff53 	b	18d0 <ta_entry_basic+0x768>
/home/ssysarch/Desktop/nick/jetpack_5/Jetson_Linux_R35.4.1_aarch64/Linux_for_Tegra/sources/tegra/optee-src/nv-optee/optee/optee_test/ta/os_test/os_test.c:697
    1b88:	f0000000 	adrp	x0, 4000 <free@plt+0x684>
    1b8c:	bd46b801 	ldr	s1, [x0, #1720]
    1b90:	1e204020 	fmov	s0, s1
    1b94:	940004e2 	bl	2f1c <test_float_fcmple>
    1b98:	7100041f 	cmp	w0, #0x1
    1b9c:	54000120 	b.eq	1bc0 <ta_entry_basic+0xa58>  // b.none
    1ba0:	90000025 	adrp	x5, 5000 <__func__.4630+0x8d5>
    1ba4:	911568a5 	add	x5, x5, #0x55a
    1ba8:	90000024 	adrp	x4, 5000 <__func__.4630+0x8d5>
    1bac:	9108ec84 	add	x4, x4, #0x23b
    1bb0:	52800023 	mov	w3, #0x1                   	// #1
    1bb4:	52800022 	mov	w2, #0x1                   	// #1
    1bb8:	52805721 	mov	w1, #0x2b9                 	// #697
    1bbc:	17ffff45 	b	18d0 <ta_entry_basic+0x768>
/home/ssysarch/Desktop/nick/jetpack_5/Jetson_Linux_R35.4.1_aarch64/Linux_for_Tegra/sources/tegra/optee-src/nv-optee/optee/optee_test/ta/os_test/os_test.c:698
    1bc0:	f0000000 	adrp	x0, 4000 <free@plt+0x684>
    1bc4:	bd46b801 	ldr	s1, [x0, #1720]
    1bc8:	1e204020 	fmov	s0, s1
    1bcc:	940004d7 	bl	2f28 <test_float_fcmpge>
    1bd0:	2a0003f4 	mov	w20, w0
    1bd4:	7100041f 	cmp	w0, #0x1
    1bd8:	54000120 	b.eq	1bfc <ta_entry_basic+0xa94>  // b.none
    1bdc:	90000025 	adrp	x5, 5000 <__func__.4630+0x8d5>
    1be0:	9115f4a5 	add	x5, x5, #0x57d
    1be4:	90000024 	adrp	x4, 5000 <__func__.4630+0x8d5>
    1be8:	9108ec84 	add	x4, x4, #0x23b
    1bec:	52800023 	mov	w3, #0x1                   	// #1
    1bf0:	52800022 	mov	w2, #0x1                   	// #1
    1bf4:	52805741 	mov	w1, #0x2ba                 	// #698
    1bf8:	17ffff36 	b	18d0 <ta_entry_basic+0x768>
/home/ssysarch/Desktop/nick/jetpack_5/Jetson_Linux_R35.4.1_aarch64/Linux_for_Tegra/sources/tegra/optee-src/nv-optee/optee/optee_test/ta/os_test/os_test.c:699
    1bfc:	f0000000 	adrp	x0, 4000 <free@plt+0x684>
    1c00:	bd46b801 	ldr	s1, [x0, #1720]
    1c04:	f0000000 	adrp	x0, 4000 <free@plt+0x684>
    1c08:	bd46b400 	ldr	s0, [x0, #1716]
    1c0c:	940004ca 	bl	2f34 <test_float_fcmpgt>
    1c10:	2a0003f3 	mov	w19, w0
    1c14:	7100041f 	cmp	w0, #0x1
    1c18:	54000120 	b.eq	1c3c <ta_entry_basic+0xad4>  // b.none
    1c1c:	90000025 	adrp	x5, 5000 <__func__.4630+0x8d5>
    1c20:	911680a5 	add	x5, x5, #0x5a0
    1c24:	90000024 	adrp	x4, 5000 <__func__.4630+0x8d5>
    1c28:	9108ec84 	add	x4, x4, #0x23b
    1c2c:	2a1403e3 	mov	w3, w20
    1c30:	2a1403e2 	mov	w2, w20
    1c34:	52805761 	mov	w1, #0x2bb                 	// #699
    1c38:	17ffff26 	b	18d0 <ta_entry_basic+0x768>
/home/ssysarch/Desktop/nick/jetpack_5/Jetson_Linux_R35.4.1_aarch64/Linux_for_Tegra/sources/tegra/optee-src/nv-optee/optee/optee_test/ta/os_test/os_test.c:701
    1c3c:	f0000000 	adrp	x0, 4000 <free@plt+0x684>
    1c40:	fd420c00 	ldr	d0, [x0, #1048]
    1c44:	940004bf 	bl	2f40 <test_float_d2iz>
    1c48:	7100081f 	cmp	w0, #0x2
    1c4c:	54000120 	b.eq	1c70 <ta_entry_basic+0xb08>  // b.none
    1c50:	90000025 	adrp	x5, 5000 <__func__.4630+0x8d5>
    1c54:	91170ca5 	add	x5, x5, #0x5c3
    1c58:	90000024 	adrp	x4, 5000 <__func__.4630+0x8d5>
    1c5c:	9108ec84 	add	x4, x4, #0x23b
    1c60:	2a1303e3 	mov	w3, w19
    1c64:	2a1303e2 	mov	w2, w19
    1c68:	528057a1 	mov	w1, #0x2bd                 	// #701
    1c6c:	17ffff19 	b	18d0 <ta_entry_basic+0x768>
/home/ssysarch/Desktop/nick/jetpack_5/Jetson_Linux_R35.4.1_aarch64/Linux_for_Tegra/sources/tegra/optee-src/nv-optee/optee/optee_test/ta/os_test/os_test.c:702
    1c70:	f0000000 	adrp	x0, 4000 <free@plt+0x684>
    1c74:	fd420c00 	ldr	d0, [x0, #1048]
    1c78:	940004b4 	bl	2f48 <test_float_d2uiz>
    1c7c:	7100081f 	cmp	w0, #0x2
    1c80:	54000120 	b.eq	1ca4 <ta_entry_basic+0xb3c>  // b.none
    1c84:	90000025 	adrp	x5, 5000 <__func__.4630+0x8d5>
    1c88:	911794a5 	add	x5, x5, #0x5e5
    1c8c:	90000024 	adrp	x4, 5000 <__func__.4630+0x8d5>
    1c90:	9108ec84 	add	x4, x4, #0x23b
    1c94:	2a1303e3 	mov	w3, w19
    1c98:	2a1303e2 	mov	w2, w19
    1c9c:	528057c1 	mov	w1, #0x2be                 	// #702
    1ca0:	17ffff0c 	b	18d0 <ta_entry_basic+0x768>
/home/ssysarch/Desktop/nick/jetpack_5/Jetson_Linux_R35.4.1_aarch64/Linux_for_Tegra/sources/tegra/optee-src/nv-optee/optee/optee_test/ta/os_test/os_test.c:703
    1ca4:	f0000000 	adrp	x0, 4000 <free@plt+0x684>
    1ca8:	fd420c00 	ldr	d0, [x0, #1048]
    1cac:	940004a9 	bl	2f50 <test_float_d2lz>
    1cb0:	f100081f 	cmp	x0, #0x2
    1cb4:	54000120 	b.eq	1cd8 <ta_entry_basic+0xb70>  // b.none
    1cb8:	90000025 	adrp	x5, 5000 <__func__.4630+0x8d5>
    1cbc:	911820a5 	add	x5, x5, #0x608
    1cc0:	90000024 	adrp	x4, 5000 <__func__.4630+0x8d5>
    1cc4:	9108ec84 	add	x4, x4, #0x23b
    1cc8:	2a1303e3 	mov	w3, w19
    1ccc:	2a1303e2 	mov	w2, w19
    1cd0:	528057e1 	mov	w1, #0x2bf                 	// #703
    1cd4:	17fffeff 	b	18d0 <ta_entry_basic+0x768>
/home/ssysarch/Desktop/nick/jetpack_5/Jetson_Linux_R35.4.1_aarch64/Linux_for_Tegra/sources/tegra/optee-src/nv-optee/optee/optee_test/ta/os_test/os_test.c:704
    1cd8:	f0000000 	adrp	x0, 4000 <free@plt+0x684>
    1cdc:	fd420c00 	ldr	d0, [x0, #1048]
    1ce0:	9400049e 	bl	2f58 <test_float_d2ulz>
    1ce4:	f100081f 	cmp	x0, #0x2
    1ce8:	54000120 	b.eq	1d0c <ta_entry_basic+0xba4>  // b.none
    1cec:	90000025 	adrp	x5, 5000 <__func__.4630+0x8d5>
    1cf0:	9118a8a5 	add	x5, x5, #0x62a
    1cf4:	90000024 	adrp	x4, 5000 <__func__.4630+0x8d5>
    1cf8:	9108ec84 	add	x4, x4, #0x23b
    1cfc:	2a1303e3 	mov	w3, w19
    1d00:	2a1303e2 	mov	w2, w19
    1d04:	52805801 	mov	w1, #0x2c0                 	// #704
    1d08:	17fffef2 	b	18d0 <ta_entry_basic+0x768>
/home/ssysarch/Desktop/nick/jetpack_5/Jetson_Linux_R35.4.1_aarch64/Linux_for_Tegra/sources/tegra/optee-src/nv-optee/optee/optee_test/ta/os_test/os_test.c:706
    1d0c:	f0000000 	adrp	x0, 4000 <free@plt+0x684>
    1d10:	bd46b800 	ldr	s0, [x0, #1720]
    1d14:	94000493 	bl	2f60 <test_float_f2iz>
    1d18:	7100081f 	cmp	w0, #0x2
    1d1c:	54000120 	b.eq	1d40 <ta_entry_basic+0xbd8>  // b.none
    1d20:	90000025 	adrp	x5, 5000 <__func__.4630+0x8d5>
    1d24:	911934a5 	add	x5, x5, #0x64d
    1d28:	90000024 	adrp	x4, 5000 <__func__.4630+0x8d5>
    1d2c:	9108ec84 	add	x4, x4, #0x23b
    1d30:	2a1303e3 	mov	w3, w19
    1d34:	2a1303e2 	mov	w2, w19
    1d38:	52805841 	mov	w1, #0x2c2                 	// #706
    1d3c:	17fffee5 	b	18d0 <ta_entry_basic+0x768>
/home/ssysarch/Desktop/nick/jetpack_5/Jetson_Linux_R35.4.1_aarch64/Linux_for_Tegra/sources/tegra/optee-src/nv-optee/optee/optee_test/ta/os_test/os_test.c:707
    1d40:	f0000000 	adrp	x0, 4000 <free@plt+0x684>
    1d44:	bd46b800 	ldr	s0, [x0, #1720]
    1d48:	94000488 	bl	2f68 <test_float_f2uiz>
    1d4c:	7100081f 	cmp	w0, #0x2
    1d50:	54000120 	b.eq	1d74 <ta_entry_basic+0xc0c>  // b.none
    1d54:	90000025 	adrp	x5, 5000 <__func__.4630+0x8d5>
    1d58:	9119bca5 	add	x5, x5, #0x66f
    1d5c:	90000024 	adrp	x4, 5000 <__func__.4630+0x8d5>
    1d60:	9108ec84 	add	x4, x4, #0x23b
    1d64:	2a1303e3 	mov	w3, w19
    1d68:	2a1303e2 	mov	w2, w19
    1d6c:	52805861 	mov	w1, #0x2c3                 	// #707
    1d70:	17fffed8 	b	18d0 <ta_entry_basic+0x768>
/home/ssysarch/Desktop/nick/jetpack_5/Jetson_Linux_R35.4.1_aarch64/Linux_for_Tegra/sources/tegra/optee-src/nv-optee/optee/optee_test/ta/os_test/os_test.c:708
    1d74:	f0000000 	adrp	x0, 4000 <free@plt+0x684>
    1d78:	bd46b800 	ldr	s0, [x0, #1720]
    1d7c:	9400047d 	bl	2f70 <test_float_f2lz>
    1d80:	f100081f 	cmp	x0, #0x2
    1d84:	54000120 	b.eq	1da8 <ta_entry_basic+0xc40>  // b.none
    1d88:	90000025 	adrp	x5, 5000 <__func__.4630+0x8d5>
    1d8c:	911a48a5 	add	x5, x5, #0x692
    1d90:	90000024 	adrp	x4, 5000 <__func__.4630+0x8d5>
    1d94:	9108ec84 	add	x4, x4, #0x23b
    1d98:	2a1303e3 	mov	w3, w19
    1d9c:	2a1303e2 	mov	w2, w19
    1da0:	52805881 	mov	w1, #0x2c4                 	// #708
    1da4:	17fffecb 	b	18d0 <ta_entry_basic+0x768>
/home/ssysarch/Desktop/nick/jetpack_5/Jetson_Linux_R35.4.1_aarch64/Linux_for_Tegra/sources/tegra/optee-src/nv-optee/optee/optee_test/ta/os_test/os_test.c:709
    1da8:	f0000000 	adrp	x0, 4000 <free@plt+0x684>
    1dac:	bd46b800 	ldr	s0, [x0, #1720]
    1db0:	94000472 	bl	2f78 <test_float_f2ulz>
    1db4:	f100081f 	cmp	x0, #0x2
    1db8:	54000120 	b.eq	1ddc <ta_entry_basic+0xc74>  // b.none
    1dbc:	90000025 	adrp	x5, 5000 <__func__.4630+0x8d5>
    1dc0:	911ad0a5 	add	x5, x5, #0x6b4
    1dc4:	90000024 	adrp	x4, 5000 <__func__.4630+0x8d5>
    1dc8:	9108ec84 	add	x4, x4, #0x23b
    1dcc:	52800023 	mov	w3, #0x1                   	// #1
    1dd0:	52800022 	mov	w2, #0x1                   	// #1
    1dd4:	528058a1 	mov	w1, #0x2c5                 	// #709
    1dd8:	17fffebe 	b	18d0 <ta_entry_basic+0x768>
/home/ssysarch/Desktop/nick/jetpack_5/Jetson_Linux_R35.4.1_aarch64/Linux_for_Tegra/sources/tegra/optee-src/nv-optee/optee/optee_test/ta/os_test/os_test.c:711
    1ddc:	f0000000 	adrp	x0, 4000 <free@plt+0x684>
    1de0:	fd420c00 	ldr	d0, [x0, #1048]
    1de4:	94000467 	bl	2f80 <test_float_d2f>
my_fcmpeq():
/home/ssysarch/Desktop/nick/jetpack_5/Jetson_Linux_R35.4.1_aarch64/Linux_for_Tegra/sources/tegra/optee-src/nv-optee/optee/optee_test/ta/os_test/os_test.c:657
    1de8:	528ccc40 	mov	w0, #0x6662                	// #26210
    1dec:	72a804c0 	movk	w0, #0x4026, lsl #16
    1df0:	1e270001 	fmov	s1, w0
    1df4:	1e212010 	fcmpe	s0, s1
    1df8:	540000ad 	b.le	1e0c <ta_entry_basic+0xca4>
    1dfc:	11002000 	add	w0, w0, #0x8
    1e00:	1e270001 	fmov	s1, w0
    1e04:	1e212010 	fcmpe	s0, s1
    1e08:	54000124 	b.mi	1e2c <ta_entry_basic+0xcc4>  // b.first
test_float():
/home/ssysarch/Desktop/nick/jetpack_5/Jetson_Linux_R35.4.1_aarch64/Linux_for_Tegra/sources/tegra/optee-src/nv-optee/optee/optee_test/ta/os_test/os_test.c:711
    1e0c:	90000025 	adrp	x5, 5000 <__func__.4630+0x8d5>
    1e10:	911b5ca5 	add	x5, x5, #0x6d7
    1e14:	90000024 	adrp	x4, 5000 <__func__.4630+0x8d5>
    1e18:	9108ec84 	add	x4, x4, #0x23b
    1e1c:	52800023 	mov	w3, #0x1                   	// #1
    1e20:	52800022 	mov	w2, #0x1                   	// #1
    1e24:	528058e1 	mov	w1, #0x2c7                 	// #711
    1e28:	17fffeaa 	b	18d0 <ta_entry_basic+0x768>
/home/ssysarch/Desktop/nick/jetpack_5/Jetson_Linux_R35.4.1_aarch64/Linux_for_Tegra/sources/tegra/optee-src/nv-optee/optee/optee_test/ta/os_test/os_test.c:712
    1e2c:	f0000000 	adrp	x0, 4000 <free@plt+0x684>
    1e30:	bd46b800 	ldr	s0, [x0, #1720]
    1e34:	94000455 	bl	2f88 <test_float_f2d>
my_dcmpeq():
/home/ssysarch/Desktop/nick/jetpack_5/Jetson_Linux_R35.4.1_aarch64/Linux_for_Tegra/sources/tegra/optee-src/nv-optee/optee/optee_test/ta/os_test/os_test.c:652
    1e38:	f0000000 	adrp	x0, 4000 <free@plt+0x684>
    1e3c:	fd423401 	ldr	d1, [x0, #1128]
    1e40:	1e612010 	fcmpe	d0, d1
    1e44:	540000ad 	b.le	1e58 <ta_entry_basic+0xcf0>
    1e48:	f0000000 	adrp	x0, 4000 <free@plt+0x684>
    1e4c:	fd423801 	ldr	d1, [x0, #1136]
    1e50:	1e612010 	fcmpe	d0, d1
    1e54:	54000124 	b.mi	1e78 <ta_entry_basic+0xd10>  // b.first
test_float():
/home/ssysarch/Desktop/nick/jetpack_5/Jetson_Linux_R35.4.1_aarch64/Linux_for_Tegra/sources/tegra/optee-src/nv-optee/optee/optee_test/ta/os_test/os_test.c:712
    1e58:	90000025 	adrp	x5, 5000 <__func__.4630+0x8d5>
    1e5c:	911c10a5 	add	x5, x5, #0x704
    1e60:	90000024 	adrp	x4, 5000 <__func__.4630+0x8d5>
    1e64:	9108ec84 	add	x4, x4, #0x23b
    1e68:	52800023 	mov	w3, #0x1                   	// #1
    1e6c:	52800022 	mov	w2, #0x1                   	// #1
    1e70:	52805901 	mov	w1, #0x2c8                 	// #712
    1e74:	17fffe97 	b	18d0 <ta_entry_basic+0x768>
/home/ssysarch/Desktop/nick/jetpack_5/Jetson_Linux_R35.4.1_aarch64/Linux_for_Tegra/sources/tegra/optee-src/nv-optee/optee/optee_test/ta/os_test/os_test.c:714
    1e78:	52800040 	mov	w0, #0x2                   	// #2
    1e7c:	94000445 	bl	2f90 <test_float_i2d>
my_dcmpeq():
/home/ssysarch/Desktop/nick/jetpack_5/Jetson_Linux_R35.4.1_aarch64/Linux_for_Tegra/sources/tegra/optee-src/nv-optee/optee/optee_test/ta/os_test/os_test.c:652
    1e80:	f0000000 	adrp	x0, 4000 <free@plt+0x684>
    1e84:	fd423c09 	ldr	d9, [x0, #1144]
    1e88:	1e692010 	fcmpe	d0, d9
    1e8c:	540000ad 	b.le	1ea0 <ta_entry_basic+0xd38>
    1e90:	f0000000 	adrp	x0, 4000 <free@plt+0x684>
    1e94:	fd424008 	ldr	d8, [x0, #1152]
    1e98:	1e682010 	fcmpe	d0, d8
    1e9c:	54000124 	b.mi	1ec0 <ta_entry_basic+0xd58>  // b.first
test_float():
/home/ssysarch/Desktop/nick/jetpack_5/Jetson_Linux_R35.4.1_aarch64/Linux_for_Tegra/sources/tegra/optee-src/nv-optee/optee/optee_test/ta/os_test/os_test.c:714
    1ea0:	90000025 	adrp	x5, 5000 <__func__.4630+0x8d5>
    1ea4:	911cc4a5 	add	x5, x5, #0x731
    1ea8:	90000024 	adrp	x4, 5000 <__func__.4630+0x8d5>
    1eac:	9108ec84 	add	x4, x4, #0x23b
    1eb0:	52800023 	mov	w3, #0x1                   	// #1
    1eb4:	52800022 	mov	w2, #0x1                   	// #1
    1eb8:	52805941 	mov	w1, #0x2ca                 	// #714
    1ebc:	17fffe85 	b	18d0 <ta_entry_basic+0x768>
/home/ssysarch/Desktop/nick/jetpack_5/Jetson_Linux_R35.4.1_aarch64/Linux_for_Tegra/sources/tegra/optee-src/nv-optee/optee/optee_test/ta/os_test/os_test.c:715
    1ec0:	52800040 	mov	w0, #0x2                   	// #2
    1ec4:	94000435 	bl	2f98 <test_float_ui2d>
my_dcmpeq():
/home/ssysarch/Desktop/nick/jetpack_5/Jetson_Linux_R35.4.1_aarch64/Linux_for_Tegra/sources/tegra/optee-src/nv-optee/optee/optee_test/ta/os_test/os_test.c:652
    1ec8:	1e692010 	fcmpe	d0, d9
    1ecc:	5400006d 	b.le	1ed8 <ta_entry_basic+0xd70>
    1ed0:	1e682010 	fcmpe	d0, d8
    1ed4:	54000124 	b.mi	1ef8 <ta_entry_basic+0xd90>  // b.first
test_float():
/home/ssysarch/Desktop/nick/jetpack_5/Jetson_Linux_R35.4.1_aarch64/Linux_for_Tegra/sources/tegra/optee-src/nv-optee/optee/optee_test/ta/os_test/os_test.c:715
    1ed8:	90000025 	adrp	x5, 5000 <__func__.4630+0x8d5>
    1edc:	911d98a5 	add	x5, x5, #0x766
    1ee0:	90000024 	adrp	x4, 5000 <__func__.4630+0x8d5>
    1ee4:	9108ec84 	add	x4, x4, #0x23b
    1ee8:	52800023 	mov	w3, #0x1                   	// #1
    1eec:	52800022 	mov	w2, #0x1                   	// #1
    1ef0:	52805961 	mov	w1, #0x2cb                 	// #715
    1ef4:	17fffe77 	b	18d0 <ta_entry_basic+0x768>
/home/ssysarch/Desktop/nick/jetpack_5/Jetson_Linux_R35.4.1_aarch64/Linux_for_Tegra/sources/tegra/optee-src/nv-optee/optee/optee_test/ta/os_test/os_test.c:716
    1ef8:	d2800040 	mov	x0, #0x2                   	// #2
    1efc:	94000429 	bl	2fa0 <test_float_l2d>
my_dcmpeq():
/home/ssysarch/Desktop/nick/jetpack_5/Jetson_Linux_R35.4.1_aarch64/Linux_for_Tegra/sources/tegra/optee-src/nv-optee/optee/optee_test/ta/os_test/os_test.c:652
    1f00:	1e692010 	fcmpe	d0, d9
    1f04:	5400006d 	b.le	1f10 <ta_entry_basic+0xda8>
    1f08:	1e682010 	fcmpe	d0, d8
    1f0c:	54000124 	b.mi	1f30 <ta_entry_basic+0xdc8>  // b.first
test_float():
/home/ssysarch/Desktop/nick/jetpack_5/Jetson_Linux_R35.4.1_aarch64/Linux_for_Tegra/sources/tegra/optee-src/nv-optee/optee/optee_test/ta/os_test/os_test.c:716
    1f10:	90000025 	adrp	x5, 5000 <__func__.4630+0x8d5>
    1f14:	911e70a5 	add	x5, x5, #0x79c
    1f18:	90000024 	adrp	x4, 5000 <__func__.4630+0x8d5>
    1f1c:	9108ec84 	add	x4, x4, #0x23b
    1f20:	52800023 	mov	w3, #0x1                   	// #1
    1f24:	52800022 	mov	w2, #0x1                   	// #1
    1f28:	52805981 	mov	w1, #0x2cc                 	// #716
    1f2c:	17fffe69 	b	18d0 <ta_entry_basic+0x768>
/home/ssysarch/Desktop/nick/jetpack_5/Jetson_Linux_R35.4.1_aarch64/Linux_for_Tegra/sources/tegra/optee-src/nv-optee/optee/optee_test/ta/os_test/os_test.c:717
    1f30:	d2800040 	mov	x0, #0x2                   	// #2
    1f34:	9400041d 	bl	2fa8 <test_float_ul2d>
my_dcmpeq():
/home/ssysarch/Desktop/nick/jetpack_5/Jetson_Linux_R35.4.1_aarch64/Linux_for_Tegra/sources/tegra/optee-src/nv-optee/optee/optee_test/ta/os_test/os_test.c:652
    1f38:	1e692010 	fcmpe	d0, d9
    1f3c:	5400006d 	b.le	1f48 <ta_entry_basic+0xde0>
    1f40:	1e682010 	fcmpe	d0, d8
    1f44:	54000124 	b.mi	1f68 <ta_entry_basic+0xe00>  // b.first
test_float():
/home/ssysarch/Desktop/nick/jetpack_5/Jetson_Linux_R35.4.1_aarch64/Linux_for_Tegra/sources/tegra/optee-src/nv-optee/optee/optee_test/ta/os_test/os_test.c:717
    1f48:	90000025 	adrp	x5, 5000 <__func__.4630+0x8d5>
    1f4c:	911f44a5 	add	x5, x5, #0x7d1
    1f50:	90000024 	adrp	x4, 5000 <__func__.4630+0x8d5>
    1f54:	9108ec84 	add	x4, x4, #0x23b
    1f58:	52800023 	mov	w3, #0x1                   	// #1
    1f5c:	52800022 	mov	w2, #0x1                   	// #1
    1f60:	528059a1 	mov	w1, #0x2cd                 	// #717
    1f64:	17fffe5b 	b	18d0 <ta_entry_basic+0x768>
/home/ssysarch/Desktop/nick/jetpack_5/Jetson_Linux_R35.4.1_aarch64/Linux_for_Tegra/sources/tegra/optee-src/nv-optee/optee/optee_test/ta/os_test/os_test.c:719
    1f68:	52800040 	mov	w0, #0x2                   	// #2
    1f6c:	94000411 	bl	2fb0 <test_float_i2f>
my_fcmpeq():
/home/ssysarch/Desktop/nick/jetpack_5/Jetson_Linux_R35.4.1_aarch64/Linux_for_Tegra/sources/tegra/optee-src/nv-optee/optee/optee_test/ta/os_test/os_test.c:657
    1f70:	f0000000 	adrp	x0, 4000 <free@plt+0x684>
    1f74:	bd46bc09 	ldr	s9, [x0, #1724]
    1f78:	1e292010 	fcmpe	s0, s9
    1f7c:	540000ad 	b.le	1f90 <ta_entry_basic+0xe28>
    1f80:	f0000000 	adrp	x0, 4000 <free@plt+0x684>
    1f84:	bd46c008 	ldr	s8, [x0, #1728]
    1f88:	1e282010 	fcmpe	s0, s8
    1f8c:	54000124 	b.mi	1fb0 <ta_entry_basic+0xe48>  // b.first
test_float():
/home/ssysarch/Desktop/nick/jetpack_5/Jetson_Linux_R35.4.1_aarch64/Linux_for_Tegra/sources/tegra/optee-src/nv-optee/optee/optee_test/ta/os_test/os_test.c:719
    1f90:	90000025 	adrp	x5, 5000 <__func__.4630+0x8d5>
    1f94:	91201ca5 	add	x5, x5, #0x807
    1f98:	90000024 	adrp	x4, 5000 <__func__.4630+0x8d5>
    1f9c:	9108ec84 	add	x4, x4, #0x23b
    1fa0:	52800023 	mov	w3, #0x1                   	// #1
    1fa4:	52800022 	mov	w2, #0x1                   	// #1
    1fa8:	528059e1 	mov	w1, #0x2cf                 	// #719
    1fac:	17fffe49 	b	18d0 <ta_entry_basic+0x768>
/home/ssysarch/Desktop/nick/jetpack_5/Jetson_Linux_R35.4.1_aarch64/Linux_for_Tegra/sources/tegra/optee-src/nv-optee/optee/optee_test/ta/os_test/os_test.c:720
    1fb0:	52800040 	mov	w0, #0x2                   	// #2
    1fb4:	94000401 	bl	2fb8 <test_float_ui2f>
my_fcmpeq():
/home/ssysarch/Desktop/nick/jetpack_5/Jetson_Linux_R35.4.1_aarch64/Linux_for_Tegra/sources/tegra/optee-src/nv-optee/optee/optee_test/ta/os_test/os_test.c:657
    1fb8:	1e292010 	fcmpe	s0, s9
    1fbc:	5400006d 	b.le	1fc8 <ta_entry_basic+0xe60>
    1fc0:	1e282010 	fcmpe	s0, s8
    1fc4:	54000124 	b.mi	1fe8 <ta_entry_basic+0xe80>  // b.first
test_float():
/home/ssysarch/Desktop/nick/jetpack_5/Jetson_Linux_R35.4.1_aarch64/Linux_for_Tegra/sources/tegra/optee-src/nv-optee/optee/optee_test/ta/os_test/os_test.c:720
    1fc8:	90000025 	adrp	x5, 5000 <__func__.4630+0x8d5>
    1fcc:	9120f0a5 	add	x5, x5, #0x83c
    1fd0:	90000024 	adrp	x4, 5000 <__func__.4630+0x8d5>
    1fd4:	9108ec84 	add	x4, x4, #0x23b
    1fd8:	52800023 	mov	w3, #0x1                   	// #1
    1fdc:	52800022 	mov	w2, #0x1                   	// #1
    1fe0:	52805a01 	mov	w1, #0x2d0                 	// #720
    1fe4:	17fffe3b 	b	18d0 <ta_entry_basic+0x768>
/home/ssysarch/Desktop/nick/jetpack_5/Jetson_Linux_R35.4.1_aarch64/Linux_for_Tegra/sources/tegra/optee-src/nv-optee/optee/optee_test/ta/os_test/os_test.c:721
    1fe8:	d2800040 	mov	x0, #0x2                   	// #2
    1fec:	940003f5 	bl	2fc0 <test_float_l2f>
my_fcmpeq():
/home/ssysarch/Desktop/nick/jetpack_5/Jetson_Linux_R35.4.1_aarch64/Linux_for_Tegra/sources/tegra/optee-src/nv-optee/optee/optee_test/ta/os_test/os_test.c:657
    1ff0:	1e292010 	fcmpe	s0, s9
    1ff4:	5400006d 	b.le	2000 <ta_entry_basic+0xe98>
    1ff8:	1e282010 	fcmpe	s0, s8
    1ffc:	54000124 	b.mi	2020 <ta_entry_basic+0xeb8>  // b.first
test_float():
/home/ssysarch/Desktop/nick/jetpack_5/Jetson_Linux_R35.4.1_aarch64/Linux_for_Tegra/sources/tegra/optee-src/nv-optee/optee/optee_test/ta/os_test/os_test.c:721
    2000:	f0000005 	adrp	x5, 5000 <__func__.4630+0x8d5>
    2004:	9121c8a5 	add	x5, x5, #0x872
    2008:	f0000004 	adrp	x4, 5000 <__func__.4630+0x8d5>
    200c:	9108ec84 	add	x4, x4, #0x23b
    2010:	52800023 	mov	w3, #0x1                   	// #1
    2014:	52800022 	mov	w2, #0x1                   	// #1
    2018:	52805a21 	mov	w1, #0x2d1                 	// #721
    201c:	17fffe2d 	b	18d0 <ta_entry_basic+0x768>
/home/ssysarch/Desktop/nick/jetpack_5/Jetson_Linux_R35.4.1_aarch64/Linux_for_Tegra/sources/tegra/optee-src/nv-optee/optee/optee_test/ta/os_test/os_test.c:722
    2020:	d2800040 	mov	x0, #0x2                   	// #2
    2024:	940003e9 	bl	2fc8 <test_float_ul2f>
my_fcmpeq():
/home/ssysarch/Desktop/nick/jetpack_5/Jetson_Linux_R35.4.1_aarch64/Linux_for_Tegra/sources/tegra/optee-src/nv-optee/optee/optee_test/ta/os_test/os_test.c:657
    2028:	1e292010 	fcmpe	s0, s9
    202c:	5400006d 	b.le	2038 <ta_entry_basic+0xed0>
    2030:	1e282010 	fcmpe	s0, s8
    2034:	54000124 	b.mi	2058 <ta_entry_basic+0xef0>  // b.first
test_float():
/home/ssysarch/Desktop/nick/jetpack_5/Jetson_Linux_R35.4.1_aarch64/Linux_for_Tegra/sources/tegra/optee-src/nv-optee/optee/optee_test/ta/os_test/os_test.c:722
    2038:	f0000005 	adrp	x5, 5000 <__func__.4630+0x8d5>
    203c:	91229ca5 	add	x5, x5, #0x8a7
    2040:	f0000004 	adrp	x4, 5000 <__func__.4630+0x8d5>
    2044:	9108ec84 	add	x4, x4, #0x23b
    2048:	52800023 	mov	w3, #0x1                   	// #1
    204c:	52800022 	mov	w2, #0x1                   	// #1
    2050:	52805a41 	mov	w1, #0x2d2                 	// #722
    2054:	17fffe1f 	b	18d0 <ta_entry_basic+0x768>
ta_entry_basic():
/home/ssysarch/Desktop/nick/jetpack_5/Jetson_Linux_R35.4.1_aarch64/Linux_for_Tegra/sources/tegra/optee-src/nv-optee/optee/optee_test/ta/os_test/os_test.c:845
    2058:	97fff869 	bl	1fc <test_setjmp>
    205c:	2a0003f3 	mov	w19, w0
/home/ssysarch/Desktop/nick/jetpack_5/Jetson_Linux_R35.4.1_aarch64/Linux_for_Tegra/sources/tegra/optee-src/nv-optee/optee/optee_test/ta/os_test/os_test.c:846
    2060:	35ff8c20 	cbnz	w0, 11e4 <ta_entry_basic+0x7c>
test_bget():
/home/ssysarch/Desktop/nick/jetpack_5/Jetson_Linux_R35.4.1_aarch64/Linux_for_Tegra/sources/tegra/optee-src/nv-optee/optee/optee_test/ta/os_test/os_test.c:793
    2064:	d0000000 	adrp	x0, 4000 <free@plt+0x684>
    2068:	9113e000 	add	x0, x0, #0x4f8
    206c:	f0000004 	adrp	x4, 5000 <__func__.4630+0x8d5>
    2070:	91237484 	add	x4, x4, #0x8dd
    2074:	9103cc00 	add	x0, x0, #0xf3
    2078:	52800023 	mov	w3, #0x1                   	// #1
    207c:	52800042 	mov	w2, #0x2                   	// #2
    2080:	52806321 	mov	w1, #0x319                 	// #793
    2084:	17fffd0d 	b	14b8 <ta_entry_basic+0x350>
ta_entry_basic():
/home/ssysarch/Desktop/nick/jetpack_5/Jetson_Linux_R35.4.1_aarch64/Linux_for_Tegra/sources/tegra/optee-src/nv-optee/optee/optee_test/ta/os_test/os_test.c:854
    2088:	2a1303e0 	mov	w0, w19
    208c:	a9417bfd 	ldp	x29, x30, [sp, #16]
    2090:	a94253f3 	ldp	x19, x20, [sp, #32]
    2094:	a9435bf5 	ldp	x21, x22, [sp, #48]
    2098:	a94463f7 	ldp	x23, x24, [sp, #64]
    209c:	6d4527e8 	ldp	d8, d9, [sp, #80]
    20a0:	910383ff 	add	sp, sp, #0xe0
    20a4:	d65f03c0 	ret

00000000000020a8 <ta_entry_panic>:
ta_entry_panic():
/home/ssysarch/Desktop/nick/jetpack_5/Jetson_Linux_R35.4.1_aarch64/Linux_for_Tegra/sources/tegra/optee-src/nv-optee/optee/optee_test/ta/os_test/os_test.c:857
    20a8:	a9be7bfd 	stp	x29, x30, [sp, #-32]!
/home/ssysarch/Desktop/nick/jetpack_5/Jetson_Linux_R35.4.1_aarch64/Linux_for_Tegra/sources/tegra/optee-src/nv-optee/optee/optee_test/ta/os_test/os_test.c:858
    20ac:	52800020 	mov	w0, #0x1                   	// #1
/home/ssysarch/Desktop/nick/jetpack_5/Jetson_Linux_R35.4.1_aarch64/Linux_for_Tegra/sources/tegra/optee-src/nv-optee/optee/optee_test/ta/os_test/os_test.c:857
    20b0:	910003fd 	mov	x29, sp
/home/ssysarch/Desktop/nick/jetpack_5/Jetson_Linux_R35.4.1_aarch64/Linux_for_Tegra/sources/tegra/optee-src/nv-optee/optee/optee_test/ta/os_test/os_test.c:858
    20b4:	39007fe0 	strb	w0, [sp, #31]
/home/ssysarch/Desktop/nick/jetpack_5/Jetson_Linux_R35.4.1_aarch64/Linux_for_Tegra/sources/tegra/optee-src/nv-optee/optee/optee_test/ta/os_test/os_test.c:862
    20b8:	f0000000 	adrp	x0, 5000 <__func__.4630+0x8d5>
    20bc:	9123c000 	add	x0, x0, #0x8f0
    20c0:	9400059f 	bl	373c <puts@plt>
/home/ssysarch/Desktop/nick/jetpack_5/Jetson_Linux_R35.4.1_aarch64/Linux_for_Tegra/sources/tegra/optee-src/nv-optee/optee/optee_test/ta/os_test/os_test.c:867
    20c4:	39407fe0 	ldrb	w0, [sp, #31]
    20c8:	72001c1f 	tst	w0, #0xff
    20cc:	54000060 	b.eq	20d8 <ta_entry_panic+0x30>  // b.none
/home/ssysarch/Desktop/nick/jetpack_5/Jetson_Linux_R35.4.1_aarch64/Linux_for_Tegra/sources/tegra/optee-src/nv-optee/optee/optee_test/ta/os_test/os_test.c:868
    20d0:	5297dde0 	mov	w0, #0xbeef                	// #48879
    20d4:	94000596 	bl	372c <TEE_Panic@plt>
/home/ssysarch/Desktop/nick/jetpack_5/Jetson_Linux_R35.4.1_aarch64/Linux_for_Tegra/sources/tegra/optee-src/nv-optee/optee/optee_test/ta/os_test/os_test.c:875
    20d8:	52800000 	mov	w0, #0x0                   	// #0
    20dc:	a8c27bfd 	ldp	x29, x30, [sp], #32
    20e0:	d65f03c0 	ret

00000000000020e4 <ta_entry_client_with_timeout>:
ta_entry_client_with_timeout():
/home/ssysarch/Desktop/nick/jetpack_5/Jetson_Linux_R35.4.1_aarch64/Linux_for_Tegra/sources/tegra/optee-src/nv-optee/optee/optee_test/ta/os_test/os_test.c:879
    20e4:	a9ba7bfd 	stp	x29, x30, [sp, #-96]!
    20e8:	b0000022 	adrp	x2, 7000 <_DYNAMIC>
    20ec:	910003fd 	mov	x29, sp
    20f0:	f9418042 	ldr	x2, [x2, #768]
    20f4:	a9025bf5 	stp	x21, x22, [sp, #32]
    20f8:	2a0003f5 	mov	w21, w0
    20fc:	f9400040 	ldr	x0, [x2]
    2100:	f9002fe0 	str	x0, [sp, #88]
    2104:	d2800000 	mov	x0, #0x0                   	// #0
    2108:	a90153f3 	stp	x19, x20, [sp, #16]
/home/ssysarch/Desktop/nick/jetpack_5/Jetson_Linux_R35.4.1_aarch64/Linux_for_Tegra/sources/tegra/optee-src/nv-optee/optee/optee_test/ta/os_test/os_test.c:885
    210c:	710006bf 	cmp	w21, #0x1
/home/ssysarch/Desktop/nick/jetpack_5/Jetson_Linux_R35.4.1_aarch64/Linux_for_Tegra/sources/tegra/optee-src/nv-optee/optee/optee_test/ta/os_test/os_test.c:879
    2110:	a90363f7 	stp	x23, x24, [sp, #48]
    2114:	d0000013 	adrp	x19, 4000 <free@plt+0x684>
/home/ssysarch/Desktop/nick/jetpack_5/Jetson_Linux_R35.4.1_aarch64/Linux_for_Tegra/sources/tegra/optee-src/nv-optee/optee/optee_test/ta/os_test/os_test.c:883
    2118:	b9004fff 	str	wzr, [sp, #76]
/home/ssysarch/Desktop/nick/jetpack_5/Jetson_Linux_R35.4.1_aarch64/Linux_for_Tegra/sources/tegra/optee-src/nv-optee/optee/optee_test/ta/os_test/os_test.c:882
    211c:	f9002bff 	str	xzr, [sp, #80]
/home/ssysarch/Desktop/nick/jetpack_5/Jetson_Linux_R35.4.1_aarch64/Linux_for_Tegra/sources/tegra/optee-src/nv-optee/optee/optee_test/ta/os_test/os_test.c:885
    2120:	54000240 	b.eq	2168 <ta_entry_client_with_timeout+0x84>  // b.none
/home/ssysarch/Desktop/nick/jetpack_5/Jetson_Linux_R35.4.1_aarch64/Linux_for_Tegra/sources/tegra/optee-src/nv-optee/optee/optee_test/ta/os_test/os_test.c:890
    2124:	129fff34 	mov	w20, #0xffff0006            	// #-65530
/home/ssysarch/Desktop/nick/jetpack_5/Jetson_Linux_R35.4.1_aarch64/Linux_for_Tegra/sources/tegra/optee-src/nv-optee/optee/optee_test/ta/os_test/os_test.c:889
    2128:	9113e260 	add	x0, x19, #0x4f8
    212c:	9103f400 	add	x0, x0, #0xfd
    2130:	f0000004 	adrp	x4, 5000 <__func__.4630+0x8d5>
    2134:	91241884 	add	x4, x4, #0x906
    2138:	52800023 	mov	w3, #0x1                   	// #1
    213c:	52800022 	mov	w2, #0x1                   	// #1
    2140:	52806f21 	mov	w1, #0x379                 	// #889
    2144:	94000572 	bl	370c <trace_printf@plt>
/home/ssysarch/Desktop/nick/jetpack_5/Jetson_Linux_R35.4.1_aarch64/Linux_for_Tegra/sources/tegra/optee-src/nv-optee/optee/optee_test/ta/os_test/os_test.c:917
    2148:	b0000022 	adrp	x2, 7000 <_DYNAMIC>
    214c:	f9418042 	ldr	x2, [x2, #768]
    2150:	f9402fe0 	ldr	x0, [sp, #88]
    2154:	f9400041 	ldr	x1, [x2]
    2158:	eb010000 	subs	x0, x0, x1
    215c:	d2800001 	mov	x1, #0x0                   	// #0
    2160:	54000620 	b.eq	2224 <ta_entry_client_with_timeout+0x140>  // b.none
    2164:	94000592 	bl	37ac <__stack_chk_fail@plt>
/home/ssysarch/Desktop/nick/jetpack_5/Jetson_Linux_R35.4.1_aarch64/Linux_for_Tegra/sources/tegra/optee-src/nv-optee/optee/optee_test/ta/os_test/os_test.c:893
    2168:	910133f7 	add	x23, sp, #0x4c
    216c:	9113e278 	add	x24, x19, #0x4f8
    2170:	aa0103f6 	mov	x22, x1
    2174:	aa1703e5 	mov	x5, x23
    2178:	910143e4 	add	x4, sp, #0x50
    217c:	91047300 	add	x0, x24, #0x11c
    2180:	d2800003 	mov	x3, #0x0                   	// #0
    2184:	52800002 	mov	w2, #0x0                   	// #0
    2188:	12800001 	mov	w1, #0xffffffff            	// #-1
    218c:	940005ec 	bl	393c <TEE_OpenTASession@plt>
    2190:	2a0003f4 	mov	w20, w0
/home/ssysarch/Desktop/nick/jetpack_5/Jetson_Linux_R35.4.1_aarch64/Linux_for_Tegra/sources/tegra/optee-src/nv-optee/optee/optee_test/ta/os_test/os_test.c:895
    2194:	34000120 	cbz	w0, 21b8 <ta_entry_client_with_timeout+0xd4>
/home/ssysarch/Desktop/nick/jetpack_5/Jetson_Linux_R35.4.1_aarch64/Linux_for_Tegra/sources/tegra/optee-src/nv-optee/optee/optee_test/ta/os_test/os_test.c:896
    2198:	2a1503e3 	mov	w3, w21
    219c:	2a1503e2 	mov	w2, w21
    21a0:	9103f700 	add	x0, x24, #0xfd
    21a4:	f0000004 	adrp	x4, 5000 <__func__.4630+0x8d5>
    21a8:	9124d084 	add	x4, x4, #0x934
    21ac:	52807001 	mov	w1, #0x380                 	// #896
    21b0:	94000557 	bl	370c <trace_printf@plt>
/home/ssysarch/Desktop/nick/jetpack_5/Jetson_Linux_R35.4.1_aarch64/Linux_for_Tegra/sources/tegra/optee-src/nv-optee/optee/optee_test/ta/os_test/os_test.c:898
    21b4:	17ffffe5 	b	2148 <ta_entry_client_with_timeout+0x64>
/home/ssysarch/Desktop/nick/jetpack_5/Jetson_Linux_R35.4.1_aarch64/Linux_for_Tegra/sources/tegra/optee-src/nv-optee/optee/optee_test/ta/os_test/os_test.c:902
    21b8:	f9402be0 	ldr	x0, [sp, #80]
    21bc:	aa1703e5 	mov	x5, x23
    21c0:	b94002c1 	ldr	w1, [x22]
    21c4:	aa1603e4 	mov	x4, x22
    21c8:	2a1503e3 	mov	w3, w21
    21cc:	52800122 	mov	w2, #0x9                   	// #9
    21d0:	53017c21 	lsr	w1, w1, #1
    21d4:	94000542 	bl	36dc <TEE_InvokeTACommand@plt>
/home/ssysarch/Desktop/nick/jetpack_5/Jetson_Linux_R35.4.1_aarch64/Linux_for_Tegra/sources/tegra/optee-src/nv-optee/optee/optee_test/ta/os_test/os_test.c:906
    21d8:	b9404fe6 	ldr	w6, [sp, #76]
/home/ssysarch/Desktop/nick/jetpack_5/Jetson_Linux_R35.4.1_aarch64/Linux_for_Tegra/sources/tegra/optee-src/nv-optee/optee/optee_test/ta/os_test/os_test.c:902
    21dc:	2a0003e5 	mov	w5, w0
/home/ssysarch/Desktop/nick/jetpack_5/Jetson_Linux_R35.4.1_aarch64/Linux_for_Tegra/sources/tegra/optee-src/nv-optee/optee/optee_test/ta/os_test/os_test.c:906
    21e0:	710010df 	cmp	w6, #0x4
    21e4:	54000081 	b.ne	21f4 <ta_entry_client_with_timeout+0x110>  // b.any
/home/ssysarch/Desktop/nick/jetpack_5/Jetson_Linux_R35.4.1_aarch64/Linux_for_Tegra/sources/tegra/optee-src/nv-optee/optee/optee_test/ta/os_test/os_test.c:906 (discriminator 1)
    21e8:	129fffa0 	mov	w0, #0xffff0002            	// #-65534
    21ec:	6b0000bf 	cmp	w5, w0
    21f0:	54000140 	b.eq	2218 <ta_entry_client_with_timeout+0x134>  // b.none
/home/ssysarch/Desktop/nick/jetpack_5/Jetson_Linux_R35.4.1_aarch64/Linux_for_Tegra/sources/tegra/optee-src/nv-optee/optee/optee_test/ta/os_test/os_test.c:910
    21f4:	52bffff4 	mov	w20, #0xffff0000            	// #-65536
/home/ssysarch/Desktop/nick/jetpack_5/Jetson_Linux_R35.4.1_aarch64/Linux_for_Tegra/sources/tegra/optee-src/nv-optee/optee/optee_test/ta/os_test/os_test.c:907
    21f8:	9113e273 	add	x19, x19, #0x4f8
    21fc:	9103f660 	add	x0, x19, #0xfd
    2200:	f0000004 	adrp	x4, 5000 <__func__.4630+0x8d5>
    2204:	9125b084 	add	x4, x4, #0x96c
    2208:	52800023 	mov	w3, #0x1                   	// #1
    220c:	52800022 	mov	w2, #0x1                   	// #1
    2210:	52807161 	mov	w1, #0x38b                 	// #907
    2214:	9400053e 	bl	370c <trace_printf@plt>
/home/ssysarch/Desktop/nick/jetpack_5/Jetson_Linux_R35.4.1_aarch64/Linux_for_Tegra/sources/tegra/optee-src/nv-optee/optee/optee_test/ta/os_test/os_test.c:914
    2218:	f9402be0 	ldr	x0, [sp, #80]
    221c:	940005d4 	bl	396c <TEE_CloseTASession@plt>
/home/ssysarch/Desktop/nick/jetpack_5/Jetson_Linux_R35.4.1_aarch64/Linux_for_Tegra/sources/tegra/optee-src/nv-optee/optee/optee_test/ta/os_test/os_test.c:915
    2220:	17ffffca 	b	2148 <ta_entry_client_with_timeout+0x64>
/home/ssysarch/Desktop/nick/jetpack_5/Jetson_Linux_R35.4.1_aarch64/Linux_for_Tegra/sources/tegra/optee-src/nv-optee/optee/optee_test/ta/os_test/os_test.c:917
    2224:	2a1403e0 	mov	w0, w20
    2228:	a94153f3 	ldp	x19, x20, [sp, #16]
    222c:	a9425bf5 	ldp	x21, x22, [sp, #32]
    2230:	a94363f7 	ldp	x23, x24, [sp, #48]
    2234:	a8c67bfd 	ldp	x29, x30, [sp], #96
    2238:	d65f03c0 	ret

000000000000223c <ta_entry_client>:
ta_entry_client():
/home/ssysarch/Desktop/nick/jetpack_5/Jetson_Linux_R35.4.1_aarch64/Linux_for_Tegra/sources/tegra/optee-src/nv-optee/optee/optee_test/ta/os_test/os_test.c:920
    223c:	a9b37bfd 	stp	x29, x30, [sp, #-208]!
    2240:	b0000020 	adrp	x0, 7000 <_DYNAMIC>
/home/ssysarch/Desktop/nick/jetpack_5/Jetson_Linux_R35.4.1_aarch64/Linux_for_Tegra/sources/tegra/optee-src/nv-optee/optee/optee_test/ta/os_test/os_test.c:924
    2244:	d2800802 	mov	x2, #0x40                  	// #64
/home/ssysarch/Desktop/nick/jetpack_5/Jetson_Linux_R35.4.1_aarch64/Linux_for_Tegra/sources/tegra/optee-src/nv-optee/optee/optee_test/ta/os_test/os_test.c:920
    2248:	910003fd 	mov	x29, sp
    224c:	f9418000 	ldr	x0, [x0, #768]
    2250:	a90363f7 	stp	x23, x24, [sp, #48]
/home/ssysarch/Desktop/nick/jetpack_5/Jetson_Linux_R35.4.1_aarch64/Linux_for_Tegra/sources/tegra/optee-src/nv-optee/optee/optee_test/ta/os_test/os_test.c:924
    2254:	9101a3f8 	add	x24, sp, #0x68
/home/ssysarch/Desktop/nick/jetpack_5/Jetson_Linux_R35.4.1_aarch64/Linux_for_Tegra/sources/tegra/optee-src/nv-optee/optee/optee_test/ta/os_test/os_test.c:920
    2258:	f9400001 	ldr	x1, [x0]
    225c:	f90067e1 	str	x1, [sp, #200]
    2260:	d2800001 	mov	x1, #0x0                   	// #0
/home/ssysarch/Desktop/nick/jetpack_5/Jetson_Linux_R35.4.1_aarch64/Linux_for_Tegra/sources/tegra/optee-src/nv-optee/optee/optee_test/ta/os_test/os_test.c:924
    2264:	aa1803e0 	mov	x0, x24
/home/ssysarch/Desktop/nick/jetpack_5/Jetson_Linux_R35.4.1_aarch64/Linux_for_Tegra/sources/tegra/optee-src/nv-optee/optee/optee_test/ta/os_test/os_test.c:920
    2268:	a90153f3 	stp	x19, x20, [sp, #16]
    226c:	a9025bf5 	stp	x21, x22, [sp, #32]
    2270:	f90023f9 	str	x25, [sp, #64]
/home/ssysarch/Desktop/nick/jetpack_5/Jetson_Linux_R35.4.1_aarch64/Linux_for_Tegra/sources/tegra/optee-src/nv-optee/optee/optee_test/ta/os_test/os_test.c:924
    2274:	9400058e 	bl	38ac <memset@plt>
/home/ssysarch/Desktop/nick/jetpack_5/Jetson_Linux_R35.4.1_aarch64/Linux_for_Tegra/sources/tegra/optee-src/nv-optee/optee/optee_test/ta/os_test/os_test.c:940
    2278:	f0000000 	adrp	x0, 5000 <__func__.4630+0x8d5>
    227c:	9126dc00 	add	x0, x0, #0x9b7
/home/ssysarch/Desktop/nick/jetpack_5/Jetson_Linux_R35.4.1_aarch64/Linux_for_Tegra/sources/tegra/optee-src/nv-optee/optee/optee_test/ta/os_test/os_test.c:926
    2280:	b9005fff 	str	wzr, [sp, #92]
/home/ssysarch/Desktop/nick/jetpack_5/Jetson_Linux_R35.4.1_aarch64/Linux_for_Tegra/sources/tegra/optee-src/nv-optee/optee/optee_test/ta/os_test/os_test.c:925
    2284:	f90033ff 	str	xzr, [sp, #96]
/home/ssysarch/Desktop/nick/jetpack_5/Jetson_Linux_R35.4.1_aarch64/Linux_for_Tegra/sources/tegra/optee-src/nv-optee/optee/optee_test/ta/os_test/os_test.c:934
    2288:	a90affff 	stp	xzr, xzr, [sp, #168]
    228c:	a90bffff 	stp	xzr, xzr, [sp, #184]
/home/ssysarch/Desktop/nick/jetpack_5/Jetson_Linux_R35.4.1_aarch64/Linux_for_Tegra/sources/tegra/optee-src/nv-optee/optee/optee_test/ta/os_test/os_test.c:940
    2290:	9400052b 	bl	373c <puts@plt>
/home/ssysarch/Desktop/nick/jetpack_5/Jetson_Linux_R35.4.1_aarch64/Linux_for_Tegra/sources/tegra/optee-src/nv-optee/optee/optee_test/ta/os_test/os_test.c:942
    2294:	52800001 	mov	w1, #0x0                   	// #0
    2298:	d2800060 	mov	x0, #0x3                   	// #3
    229c:	94000550 	bl	37dc <TEE_Malloc@plt>
/home/ssysarch/Desktop/nick/jetpack_5/Jetson_Linux_R35.4.1_aarch64/Linux_for_Tegra/sources/tegra/optee-src/nv-optee/optee/optee_test/ta/os_test/os_test.c:943
    22a0:	b40008c0 	cbz	x0, 23b8 <ta_entry_client+0x17c>
/home/ssysarch/Desktop/nick/jetpack_5/Jetson_Linux_R35.4.1_aarch64/Linux_for_Tegra/sources/tegra/optee-src/nv-optee/optee/optee_test/ta/os_test/os_test.c:945
    22a4:	d0000014 	adrp	x20, 4000 <free@plt+0x684>
    22a8:	9113e294 	add	x20, x20, #0x4f8
    22ac:	9104b281 	add	x1, x20, #0x12c
    22b0:	d2800062 	mov	x2, #0x3                   	// #3
    22b4:	aa0003f5 	mov	x21, x0
/home/ssysarch/Desktop/nick/jetpack_5/Jetson_Linux_R35.4.1_aarch64/Linux_for_Tegra/sources/tegra/optee-src/nv-optee/optee/optee_test/ta/os_test/os_test.c:947
    22b8:	910173f9 	add	x25, sp, #0x5c
/home/ssysarch/Desktop/nick/jetpack_5/Jetson_Linux_R35.4.1_aarch64/Linux_for_Tegra/sources/tegra/optee-src/nv-optee/optee/optee_test/ta/os_test/os_test.c:945
    22bc:	9400055c 	bl	382c <TEE_MemMove@plt>
/home/ssysarch/Desktop/nick/jetpack_5/Jetson_Linux_R35.4.1_aarch64/Linux_for_Tegra/sources/tegra/optee-src/nv-optee/optee/optee_test/ta/os_test/os_test.c:947
    22c0:	aa1903e5 	mov	x5, x25
    22c4:	910183e4 	add	x4, sp, #0x60
    22c8:	9104c280 	add	x0, x20, #0x130
    22cc:	d2800003 	mov	x3, #0x0                   	// #0
    22d0:	52800002 	mov	w2, #0x0                   	// #0
    22d4:	12800001 	mov	w1, #0xffffffff            	// #-1
    22d8:	94000599 	bl	393c <TEE_OpenTASession@plt>
    22dc:	2a0003f3 	mov	w19, w0
/home/ssysarch/Desktop/nick/jetpack_5/Jetson_Linux_R35.4.1_aarch64/Linux_for_Tegra/sources/tegra/optee-src/nv-optee/optee/optee_test/ta/os_test/os_test.c:949
    22e0:	34000280 	cbz	w0, 2330 <ta_entry_client+0xf4>
/home/ssysarch/Desktop/nick/jetpack_5/Jetson_Linux_R35.4.1_aarch64/Linux_for_Tegra/sources/tegra/optee-src/nv-optee/optee/optee_test/ta/os_test/os_test.c:950
    22e4:	f0000004 	adrp	x4, 5000 <__func__.4630+0x8d5>
    22e8:	91273884 	add	x4, x4, #0x9ce
    22ec:	52800023 	mov	w3, #0x1                   	// #1
    22f0:	52800022 	mov	w2, #0x1                   	// #1
    22f4:	528076c1 	mov	w1, #0x3b6                 	// #950
/home/ssysarch/Desktop/nick/jetpack_5/Jetson_Linux_R35.4.1_aarch64/Linux_for_Tegra/sources/tegra/optee-src/nv-optee/optee/optee_test/ta/os_test/os_test.c:965
    22f8:	91050280 	add	x0, x20, #0x140
    22fc:	94000504 	bl	370c <trace_printf@plt>
/home/ssysarch/Desktop/nick/jetpack_5/Jetson_Linux_R35.4.1_aarch64/Linux_for_Tegra/sources/tegra/optee-src/nv-optee/optee/optee_test/ta/os_test/os_test.c:976
    2300:	aa1503e0 	mov	x0, x21
    2304:	94000582 	bl	390c <TEE_Free@plt>
/home/ssysarch/Desktop/nick/jetpack_5/Jetson_Linux_R35.4.1_aarch64/Linux_for_Tegra/sources/tegra/optee-src/nv-optee/optee/optee_test/ta/os_test/os_test.c:977
    2308:	f94033e0 	ldr	x0, [sp, #96]
    230c:	94000598 	bl	396c <TEE_CloseTASession@plt>
/home/ssysarch/Desktop/nick/jetpack_5/Jetson_Linux_R35.4.1_aarch64/Linux_for_Tegra/sources/tegra/optee-src/nv-optee/optee/optee_test/ta/os_test/os_test.c:979
    2310:	b0000020 	adrp	x0, 7000 <_DYNAMIC>
    2314:	f9418000 	ldr	x0, [x0, #768]
    2318:	f94067e1 	ldr	x1, [sp, #200]
    231c:	f9400002 	ldr	x2, [x0]
    2320:	eb020021 	subs	x1, x1, x2
    2324:	d2800002 	mov	x2, #0x0                   	// #0
    2328:	540004c0 	b.eq	23c0 <ta_entry_client+0x184>  // b.none
    232c:	94000520 	bl	37ac <__stack_chk_fail@plt>
/home/ssysarch/Desktop/nick/jetpack_5/Jetson_Linux_R35.4.1_aarch64/Linux_for_Tegra/sources/tegra/optee-src/nv-optee/optee/optee_test/ta/os_test/os_test.c:957
    2330:	d2800060 	mov	x0, #0x3                   	// #3
    2334:	a90683f5 	stp	x21, x0, [sp, #104]
/home/ssysarch/Desktop/nick/jetpack_5/Jetson_Linux_R35.4.1_aarch64/Linux_for_Tegra/sources/tegra/optee-src/nv-optee/optee/optee_test/ta/os_test/os_test.c:958
    2338:	9102a3f6 	add	x22, sp, #0xa8
/home/ssysarch/Desktop/nick/jetpack_5/Jetson_Linux_R35.4.1_aarch64/Linux_for_Tegra/sources/tegra/optee-src/nv-optee/optee/optee_test/ta/os_test/os_test.c:961
    233c:	f94033e0 	ldr	x0, [sp, #96]
    2340:	aa1903e5 	mov	x5, x25
    2344:	aa1803e4 	mov	x4, x24
/home/ssysarch/Desktop/nick/jetpack_5/Jetson_Linux_R35.4.1_aarch64/Linux_for_Tegra/sources/tegra/optee-src/nv-optee/optee/optee_test/ta/os_test/os_test.c:959
    2348:	d2800417 	mov	x23, #0x20                  	// #32
/home/ssysarch/Desktop/nick/jetpack_5/Jetson_Linux_R35.4.1_aarch64/Linux_for_Tegra/sources/tegra/optee-src/nv-optee/optee/optee_test/ta/os_test/os_test.c:961
    234c:	52800ca3 	mov	w3, #0x65                  	// #101
    2350:	52800042 	mov	w2, #0x2                   	// #2
    2354:	12800001 	mov	w1, #0xffffffff            	// #-1
/home/ssysarch/Desktop/nick/jetpack_5/Jetson_Linux_R35.4.1_aarch64/Linux_for_Tegra/sources/tegra/optee-src/nv-optee/optee/optee_test/ta/os_test/os_test.c:959
    2358:	a907dff6 	stp	x22, x23, [sp, #120]
/home/ssysarch/Desktop/nick/jetpack_5/Jetson_Linux_R35.4.1_aarch64/Linux_for_Tegra/sources/tegra/optee-src/nv-optee/optee/optee_test/ta/os_test/os_test.c:961
    235c:	940004e0 	bl	36dc <TEE_InvokeTACommand@plt>
    2360:	2a0003f3 	mov	w19, w0
/home/ssysarch/Desktop/nick/jetpack_5/Jetson_Linux_R35.4.1_aarch64/Linux_for_Tegra/sources/tegra/optee-src/nv-optee/optee/optee_test/ta/os_test/os_test.c:964
    2364:	340000e0 	cbz	w0, 2380 <ta_entry_client+0x144>
/home/ssysarch/Desktop/nick/jetpack_5/Jetson_Linux_R35.4.1_aarch64/Linux_for_Tegra/sources/tegra/optee-src/nv-optee/optee/optee_test/ta/os_test/os_test.c:965
    2368:	f0000004 	adrp	x4, 5000 <__func__.4630+0x8d5>
    236c:	9127e484 	add	x4, x4, #0x9f9
    2370:	52800023 	mov	w3, #0x1                   	// #1
    2374:	52800022 	mov	w2, #0x1                   	// #1
    2378:	528078a1 	mov	w1, #0x3c5                 	// #965
    237c:	17ffffdf 	b	22f8 <ta_entry_client+0xbc>
/home/ssysarch/Desktop/nick/jetpack_5/Jetson_Linux_R35.4.1_aarch64/Linux_for_Tegra/sources/tegra/optee-src/nv-optee/optee/optee_test/ta/os_test/os_test.c:969
    2380:	aa1703e2 	mov	x2, x23
    2384:	aa1603e1 	mov	x1, x22
    2388:	91054280 	add	x0, x20, #0x150
    238c:	94000568 	bl	392c <TEE_MemCompare@plt>
    2390:	34fffb80 	cbz	w0, 2300 <ta_entry_client+0xc4>
/home/ssysarch/Desktop/nick/jetpack_5/Jetson_Linux_R35.4.1_aarch64/Linux_for_Tegra/sources/tegra/optee-src/nv-optee/optee/optee_test/ta/os_test/os_test.c:970
    2394:	91050280 	add	x0, x20, #0x140
    2398:	f0000004 	adrp	x4, 5000 <__func__.4630+0x8d5>
    239c:	91289884 	add	x4, x4, #0xa26
    23a0:	52800023 	mov	w3, #0x1                   	// #1
    23a4:	52800022 	mov	w2, #0x1                   	// #1
    23a8:	52807941 	mov	w1, #0x3ca                 	// #970
/home/ssysarch/Desktop/nick/jetpack_5/Jetson_Linux_R35.4.1_aarch64/Linux_for_Tegra/sources/tegra/optee-src/nv-optee/optee/optee_test/ta/os_test/os_test.c:971
    23ac:	52bffff3 	mov	w19, #0xffff0000            	// #-65536
/home/ssysarch/Desktop/nick/jetpack_5/Jetson_Linux_R35.4.1_aarch64/Linux_for_Tegra/sources/tegra/optee-src/nv-optee/optee/optee_test/ta/os_test/os_test.c:970
    23b0:	940004d7 	bl	370c <trace_printf@plt>
/home/ssysarch/Desktop/nick/jetpack_5/Jetson_Linux_R35.4.1_aarch64/Linux_for_Tegra/sources/tegra/optee-src/nv-optee/optee/optee_test/ta/os_test/os_test.c:972
    23b4:	17ffffd3 	b	2300 <ta_entry_client+0xc4>
/home/ssysarch/Desktop/nick/jetpack_5/Jetson_Linux_R35.4.1_aarch64/Linux_for_Tegra/sources/tegra/optee-src/nv-optee/optee/optee_test/ta/os_test/os_test.c:944
    23b8:	129ffe73 	mov	w19, #0xffff000c            	// #-65524
    23bc:	17ffffd5 	b	2310 <ta_entry_client+0xd4>
/home/ssysarch/Desktop/nick/jetpack_5/Jetson_Linux_R35.4.1_aarch64/Linux_for_Tegra/sources/tegra/optee-src/nv-optee/optee/optee_test/ta/os_test/os_test.c:979
    23c0:	2a1303e0 	mov	w0, w19
    23c4:	a94153f3 	ldp	x19, x20, [sp, #16]
    23c8:	a9425bf5 	ldp	x21, x22, [sp, #32]
    23cc:	a94363f7 	ldp	x23, x24, [sp, #48]
    23d0:	f94023f9 	ldr	x25, [sp, #64]
    23d4:	a8cd7bfd 	ldp	x29, x30, [sp], #208
    23d8:	d65f03c0 	ret

00000000000023dc <ta_entry_params_access_rights>:
ta_entry_params_access_rights():
/home/ssysarch/Desktop/nick/jetpack_5/Jetson_Linux_R35.4.1_aarch64/Linux_for_Tegra/sources/tegra/optee-src/nv-optee/optee/optee_test/ta/os_test/os_test.c:985
    23dc:	7101541f 	cmp	w0, #0x55
    23e0:	540000e0 	b.eq	23fc <ta_entry_params_access_rights+0x20>  // b.none
/home/ssysarch/Desktop/nick/jetpack_5/Jetson_Linux_R35.4.1_aarch64/Linux_for_Tegra/sources/tegra/optee-src/nv-optee/optee/optee_test/ta/os_test/os_test.c:988
    23e4:	52bfffe0 	mov	w0, #0xffff0000            	// #-65536
/home/ssysarch/Desktop/nick/jetpack_5/Jetson_Linux_R35.4.1_aarch64/Linux_for_Tegra/sources/tegra/optee-src/nv-optee/optee/optee_test/ta/os_test/os_test.c:1006
    23e8:	d65f03c0 	ret
/home/ssysarch/Desktop/nick/jetpack_5/Jetson_Linux_R35.4.1_aarch64/Linux_for_Tegra/sources/tegra/optee-src/nv-optee/optee/optee_test/ta/os_test/os_test.c:988
    23ec:	52bfffe0 	mov	w0, #0xffff0000            	// #-65536
/home/ssysarch/Desktop/nick/jetpack_5/Jetson_Linux_R35.4.1_aarch64/Linux_for_Tegra/sources/tegra/optee-src/nv-optee/optee/optee_test/ta/os_test/os_test.c:1006
    23f0:	f9400bf3 	ldr	x19, [sp, #16]
    23f4:	a8c27bfd 	ldp	x29, x30, [sp], #32
    23f8:	d65f03c0 	ret
/home/ssysarch/Desktop/nick/jetpack_5/Jetson_Linux_R35.4.1_aarch64/Linux_for_Tegra/sources/tegra/optee-src/nv-optee/optee/optee_test/ta/os_test/os_test.c:982
    23fc:	a9be7bfd 	stp	x29, x30, [sp, #-32]!
/home/ssysarch/Desktop/nick/jetpack_5/Jetson_Linux_R35.4.1_aarch64/Linux_for_Tegra/sources/tegra/optee-src/nv-optee/optee/optee_test/ta/os_test/os_test.c:990
    2400:	528000a0 	mov	w0, #0x5                   	// #5
/home/ssysarch/Desktop/nick/jetpack_5/Jetson_Linux_R35.4.1_aarch64/Linux_for_Tegra/sources/tegra/optee-src/nv-optee/optee/optee_test/ta/os_test/os_test.c:982
    2404:	910003fd 	mov	x29, sp
    2408:	f9000bf3 	str	x19, [sp, #16]
    240c:	aa0103f3 	mov	x19, x1
/home/ssysarch/Desktop/nick/jetpack_5/Jetson_Linux_R35.4.1_aarch64/Linux_for_Tegra/sources/tegra/optee-src/nv-optee/optee/optee_test/ta/os_test/os_test.c:990
    2410:	a9400821 	ldp	x1, x2, [x1]
    2414:	940004f6 	bl	37ec <TEE_CheckMemoryAccessRights@plt>
/home/ssysarch/Desktop/nick/jetpack_5/Jetson_Linux_R35.4.1_aarch64/Linux_for_Tegra/sources/tegra/optee-src/nv-optee/optee/optee_test/ta/os_test/os_test.c:994
    2418:	35fffec0 	cbnz	w0, 23f0 <ta_entry_params_access_rights+0x14>
/home/ssysarch/Desktop/nick/jetpack_5/Jetson_Linux_R35.4.1_aarch64/Linux_for_Tegra/sources/tegra/optee-src/nv-optee/optee/optee_test/ta/os_test/os_test.c:997
    241c:	a9400a61 	ldp	x1, x2, [x19]
    2420:	52800020 	mov	w0, #0x1                   	// #1
    2424:	940004f2 	bl	37ec <TEE_CheckMemoryAccessRights@plt>
/home/ssysarch/Desktop/nick/jetpack_5/Jetson_Linux_R35.4.1_aarch64/Linux_for_Tegra/sources/tegra/optee-src/nv-optee/optee/optee_test/ta/os_test/os_test.c:1000
    2428:	129fffc1 	mov	w1, #0xffff0001            	// #-65535
    242c:	6b01001f 	cmp	w0, w1
    2430:	54fffde1 	b.ne	23ec <ta_entry_params_access_rights+0x10>  // b.any
/home/ssysarch/Desktop/nick/jetpack_5/Jetson_Linux_R35.4.1_aarch64/Linux_for_Tegra/sources/tegra/optee-src/nv-optee/optee/optee_test/ta/os_test/os_test.c:1002
    2434:	f9400a61 	ldr	x1, [x19, #16]
    2438:	b50000c1 	cbnz	x1, 2450 <ta_entry_params_access_rights+0x74>
/home/ssysarch/Desktop/nick/jetpack_5/Jetson_Linux_R35.4.1_aarch64/Linux_for_Tegra/sources/tegra/optee-src/nv-optee/optee/optee_test/ta/os_test/os_test.c:1002 (discriminator 1)
    243c:	f9400e60 	ldr	x0, [x19, #24]
/home/ssysarch/Desktop/nick/jetpack_5/Jetson_Linux_R35.4.1_aarch64/Linux_for_Tegra/sources/tegra/optee-src/nv-optee/optee/optee_test/ta/os_test/os_test.c:1003 (discriminator 1)
    2440:	f100001f 	cmp	x0, #0x0
    2444:	129fff20 	mov	w0, #0xffff0006            	// #-65530
    2448:	1a8003e0 	csel	w0, wzr, w0, eq  // eq = none
    244c:	17ffffe9 	b	23f0 <ta_entry_params_access_rights+0x14>
/home/ssysarch/Desktop/nick/jetpack_5/Jetson_Linux_R35.4.1_aarch64/Linux_for_Tegra/sources/tegra/optee-src/nv-optee/optee/optee_test/ta/os_test/os_test.c:1003
    2450:	129fff20 	mov	w0, #0xffff0006            	// #-65530
    2454:	17ffffe7 	b	23f0 <ta_entry_params_access_rights+0x14>

0000000000002458 <ta_entry_wait>:
ta_entry_wait():
/home/ssysarch/Desktop/nick/jetpack_5/Jetson_Linux_R35.4.1_aarch64/Linux_for_Tegra/sources/tegra/optee-src/nv-optee/optee/optee_test/ta/os_test/os_test.c:1009
    2458:	a9be7bfd 	stp	x29, x30, [sp, #-32]!
/home/ssysarch/Desktop/nick/jetpack_5/Jetson_Linux_R35.4.1_aarch64/Linux_for_Tegra/sources/tegra/optee-src/nv-optee/optee/optee_test/ta/os_test/os_test.c:1013
    245c:	f0000000 	adrp	x0, 5000 <__func__.4630+0x8d5>
    2460:	91293400 	add	x0, x0, #0xa4d
/home/ssysarch/Desktop/nick/jetpack_5/Jetson_Linux_R35.4.1_aarch64/Linux_for_Tegra/sources/tegra/optee-src/nv-optee/optee/optee_test/ta/os_test/os_test.c:1009
    2464:	910003fd 	mov	x29, sp
    2468:	f9000bf3 	str	x19, [sp, #16]
    246c:	aa0103f3 	mov	x19, x1
/home/ssysarch/Desktop/nick/jetpack_5/Jetson_Linux_R35.4.1_aarch64/Linux_for_Tegra/sources/tegra/optee-src/nv-optee/optee/optee_test/ta/os_test/os_test.c:1013
    2470:	b9400021 	ldr	w1, [x1]
    2474:	94000496 	bl	36cc <printf@plt>
/home/ssysarch/Desktop/nick/jetpack_5/Jetson_Linux_R35.4.1_aarch64/Linux_for_Tegra/sources/tegra/optee-src/nv-optee/optee/optee_test/ta/os_test/os_test.c:1015
    2478:	b9400260 	ldr	w0, [x19]
/home/ssysarch/Desktop/nick/jetpack_5/Jetson_Linux_R35.4.1_aarch64/Linux_for_Tegra/sources/tegra/optee-src/nv-optee/optee/optee_test/ta/os_test/os_test.c:1018
    247c:	f9400bf3 	ldr	x19, [sp, #16]
    2480:	a8c27bfd 	ldp	x29, x30, [sp], #32
/home/ssysarch/Desktop/nick/jetpack_5/Jetson_Linux_R35.4.1_aarch64/Linux_for_Tegra/sources/tegra/optee-src/nv-optee/optee/optee_test/ta/os_test/os_test.c:1015
    2484:	140004c2 	b	378c <TEE_Wait@plt>

0000000000002488 <ta_entry_bad_mem_access>:
ta_entry_bad_mem_access():
/home/ssysarch/Desktop/nick/jetpack_5/Jetson_Linux_R35.4.1_aarch64/Linux_for_Tegra/sources/tegra/optee-src/nv-optee/optee/optee_test/ta/os_test/os_test.c:1034
    2488:	a9bd7bfd 	stp	x29, x30, [sp, #-48]!
    248c:	b0000022 	adrp	x2, 7000 <_DYNAMIC>
/home/ssysarch/Desktop/nick/jetpack_5/Jetson_Linux_R35.4.1_aarch64/Linux_for_Tegra/sources/tegra/optee-src/nv-optee/optee/optee_test/ta/os_test/os_test.c:1040
    2490:	7101c41f 	cmp	w0, #0x71
/home/ssysarch/Desktop/nick/jetpack_5/Jetson_Linux_R35.4.1_aarch64/Linux_for_Tegra/sources/tegra/optee-src/nv-optee/optee/optee_test/ta/os_test/os_test.c:1034
    2494:	910003fd 	mov	x29, sp
    2498:	f9418042 	ldr	x2, [x2, #768]
/home/ssysarch/Desktop/nick/jetpack_5/Jetson_Linux_R35.4.1_aarch64/Linux_for_Tegra/sources/tegra/optee-src/nv-optee/optee/optee_test/ta/os_test/os_test.c:1035
    249c:	f9000fff 	str	xzr, [sp, #24]
/home/ssysarch/Desktop/nick/jetpack_5/Jetson_Linux_R35.4.1_aarch64/Linux_for_Tegra/sources/tegra/optee-src/nv-optee/optee/optee_test/ta/os_test/os_test.c:1040
    24a0:	7a411804 	ccmp	w0, #0x1, #0x4, ne  // ne = any
/home/ssysarch/Desktop/nick/jetpack_5/Jetson_Linux_R35.4.1_aarch64/Linux_for_Tegra/sources/tegra/optee-src/nv-optee/optee/optee_test/ta/os_test/os_test.c:1034
    24a4:	f9400043 	ldr	x3, [x2]
    24a8:	f90017e3 	str	x3, [sp, #40]
    24ac:	d2800003 	mov	x3, #0x0                   	// #0
/home/ssysarch/Desktop/nick/jetpack_5/Jetson_Linux_R35.4.1_aarch64/Linux_for_Tegra/sources/tegra/optee-src/nv-optee/optee/optee_test/ta/os_test/os_test.c:1037
    24b0:	f90013ff 	str	xzr, [sp, #32]
/home/ssysarch/Desktop/nick/jetpack_5/Jetson_Linux_R35.4.1_aarch64/Linux_for_Tegra/sources/tegra/optee-src/nv-optee/optee/optee_test/ta/os_test/os_test.c:1040
    24b4:	54000441 	b.ne	253c <ta_entry_bad_mem_access+0xb4>  // b.any
/home/ssysarch/Desktop/nick/jetpack_5/Jetson_Linux_R35.4.1_aarch64/Linux_for_Tegra/sources/tegra/optee-src/nv-optee/optee/optee_test/ta/os_test/os_test.c:1045
    24b8:	b9400020 	ldr	w0, [x1]
    24bc:	51000400 	sub	w0, w0, #0x1
    24c0:	7100181f 	cmp	w0, #0x6
    24c4:	540001a8 	b.hi	24f8 <ta_entry_bad_mem_access+0x70>  // b.pmore
    24c8:	d0000001 	adrp	x1, 4000 <free@plt+0x684>
    24cc:	9113c021 	add	x1, x1, #0x4f0
    24d0:	910063e2 	add	x2, sp, #0x18
    24d4:	38604820 	ldrb	w0, [x1, w0, uxtw]
    24d8:	10000061 	adr	x1, 24e4 <ta_entry_bad_mem_access+0x5c>
    24dc:	8b208820 	add	x0, x1, w0, sxtb #2
    24e0:	d61f0000 	br	x0
/home/ssysarch/Desktop/nick/jetpack_5/Jetson_Linux_R35.4.1_aarch64/Linux_for_Tegra/sources/tegra/optee-src/nv-optee/optee/optee_test/ta/os_test/os_test.c:1047
    24e4:	d2800000 	mov	x0, #0x0                   	// #0
    24e8:	b900001f 	str	wzr, [x0]
    24ec:	d4207d00 	brk	#0x3e8
/home/ssysarch/Desktop/nick/jetpack_5/Jetson_Linux_R35.4.1_aarch64/Linux_for_Tegra/sources/tegra/optee-src/nv-optee/optee/optee_test/ta/os_test/os_test.c:1050
    24f0:	d2a80000 	mov	x0, #0x40000000            	// #1073741824
    24f4:	b820685f 	str	wzr, [x2, x0]
/home/ssysarch/Desktop/nick/jetpack_5/Jetson_Linux_R35.4.1_aarch64/Linux_for_Tegra/sources/tegra/optee-src/nv-optee/optee/optee_test/ta/os_test/os_test.c:1078
    24f8:	52800000 	mov	w0, #0x0                   	// #0
    24fc:	14000011 	b	2540 <ta_entry_bad_mem_access+0xb8>
/home/ssysarch/Desktop/nick/jetpack_5/Jetson_Linux_R35.4.1_aarch64/Linux_for_Tegra/sources/tegra/optee-src/nv-optee/optee/optee_test/ta/os_test/os_test.c:1053
    2500:	f94013e0 	ldr	x0, [sp, #32]
    2504:	d63f0000 	blr	x0
/home/ssysarch/Desktop/nick/jetpack_5/Jetson_Linux_R35.4.1_aarch64/Linux_for_Tegra/sources/tegra/optee-src/nv-optee/optee/optee_test/ta/os_test/os_test.c:1054
    2508:	17fffffc 	b	24f8 <ta_entry_bad_mem_access+0x70>
/home/ssysarch/Desktop/nick/jetpack_5/Jetson_Linux_R35.4.1_aarch64/Linux_for_Tegra/sources/tegra/optee-src/nv-optee/optee/optee_test/ta/os_test/os_test.c:1056
    250c:	d2a80000 	mov	x0, #0x40000000            	// #1073741824
    2510:	8b000042 	add	x2, x2, x0
    2514:	d63f0040 	blr	x2
/home/ssysarch/Desktop/nick/jetpack_5/Jetson_Linux_R35.4.1_aarch64/Linux_for_Tegra/sources/tegra/optee-src/nv-optee/optee/optee_test/ta/os_test/os_test.c:1057
    2518:	17fffff8 	b	24f8 <ta_entry_bad_mem_access+0x70>
undef_instr():
/home/ssysarch/Desktop/nick/jetpack_5/Jetson_Linux_R35.4.1_aarch64/Linux_for_Tegra/sources/tegra/optee-src/nv-optee/optee/optee_test/ta/os_test/os_test.c:1023
    251c:	00000000 	.word	0x00000000
    2520:	17fffff6 	b	24f8 <ta_entry_bad_mem_access+0x70>
ta_entry_bad_mem_access():
/home/ssysarch/Desktop/nick/jetpack_5/Jetson_Linux_R35.4.1_aarch64/Linux_for_Tegra/sources/tegra/optee-src/nv-optee/optee/optee_test/ta/os_test/os_test.c:1062
    2524:	52800001 	mov	w1, #0x0                   	// #0
    2528:	d2800000 	mov	x0, #0x0                   	// #0
    252c:	940004ac 	bl	37dc <TEE_Malloc@plt>
/home/ssysarch/Desktop/nick/jetpack_5/Jetson_Linux_R35.4.1_aarch64/Linux_for_Tegra/sources/tegra/optee-src/nv-optee/optee/optee_test/ta/os_test/os_test.c:1063
    2530:	b4000060 	cbz	x0, 253c <ta_entry_bad_mem_access+0xb4>
/home/ssysarch/Desktop/nick/jetpack_5/Jetson_Linux_R35.4.1_aarch64/Linux_for_Tegra/sources/tegra/optee-src/nv-optee/optee/optee_test/ta/os_test/os_test.c:1065
    2534:	39400000 	ldrb	w0, [x0]
    2538:	34fffe00 	cbz	w0, 24f8 <ta_entry_bad_mem_access+0x70>
/home/ssysarch/Desktop/nick/jetpack_5/Jetson_Linux_R35.4.1_aarch64/Linux_for_Tegra/sources/tegra/optee-src/nv-optee/optee/optee_test/ta/os_test/os_test.c:1066
    253c:	52bfffe0 	mov	w0, #0xffff0000            	// #-65536
/home/ssysarch/Desktop/nick/jetpack_5/Jetson_Linux_R35.4.1_aarch64/Linux_for_Tegra/sources/tegra/optee-src/nv-optee/optee/optee_test/ta/os_test/os_test.c:1079
    2540:	b0000022 	adrp	x2, 7000 <_DYNAMIC>
    2544:	f9418042 	ldr	x2, [x2, #768]
    2548:	f94017e1 	ldr	x1, [sp, #40]
    254c:	f9400043 	ldr	x3, [x2]
    2550:	eb030021 	subs	x1, x1, x3
    2554:	d2800003 	mov	x3, #0x0                   	// #0
    2558:	54000100 	b.eq	2578 <ta_entry_bad_mem_access+0xf0>  // b.none
    255c:	94000494 	bl	37ac <__stack_chk_fail@plt>
/home/ssysarch/Desktop/nick/jetpack_5/Jetson_Linux_R35.4.1_aarch64/Linux_for_Tegra/sources/tegra/optee-src/nv-optee/optee/optee_test/ta/os_test/os_test.c:1069
    2560:	52800001 	mov	w1, #0x0                   	// #0
    2564:	d2800000 	mov	x0, #0x0                   	// #0
    2568:	9400049d 	bl	37dc <TEE_Malloc@plt>
/home/ssysarch/Desktop/nick/jetpack_5/Jetson_Linux_R35.4.1_aarch64/Linux_for_Tegra/sources/tegra/optee-src/nv-optee/optee/optee_test/ta/os_test/os_test.c:1070
    256c:	b4fffe80 	cbz	x0, 253c <ta_entry_bad_mem_access+0xb4>
/home/ssysarch/Desktop/nick/jetpack_5/Jetson_Linux_R35.4.1_aarch64/Linux_for_Tegra/sources/tegra/optee-src/nv-optee/optee/optee_test/ta/os_test/os_test.c:1072
    2570:	3900001f 	strb	wzr, [x0]
/home/ssysarch/Desktop/nick/jetpack_5/Jetson_Linux_R35.4.1_aarch64/Linux_for_Tegra/sources/tegra/optee-src/nv-optee/optee/optee_test/ta/os_test/os_test.c:1073
    2574:	17ffffe1 	b	24f8 <ta_entry_bad_mem_access+0x70>
/home/ssysarch/Desktop/nick/jetpack_5/Jetson_Linux_R35.4.1_aarch64/Linux_for_Tegra/sources/tegra/optee-src/nv-optee/optee/optee_test/ta/os_test/os_test.c:1079
    2578:	a8c37bfd 	ldp	x29, x30, [sp], #48
    257c:	d65f03c0 	ret

0000000000002580 <ta_entry_ta2ta_memref>:
ta_entry_ta2ta_memref():
/home/ssysarch/Desktop/nick/jetpack_5/Jetson_Linux_R35.4.1_aarch64/Linux_for_Tegra/sources/tegra/optee-src/nv-optee/optee/optee_test/ta/os_test/os_test.c:1092
    2580:	d283160c 	mov	x12, #0x18b0                	// #6320
    2584:	cb2c63ff 	sub	sp, sp, x12
    2588:	b0000021 	adrp	x1, 7000 <_DYNAMIC>
/home/ssysarch/Desktop/nick/jetpack_5/Jetson_Linux_R35.4.1_aarch64/Linux_for_Tegra/sources/tegra/optee-src/nv-optee/optee/optee_test/ta/os_test/os_test.c:1095
    258c:	d2800802 	mov	x2, #0x40                  	// #64
/home/ssysarch/Desktop/nick/jetpack_5/Jetson_Linux_R35.4.1_aarch64/Linux_for_Tegra/sources/tegra/optee-src/nv-optee/optee/optee_test/ta/os_test/os_test.c:1092
    2590:	a9007bfd 	stp	x29, x30, [sp]
    2594:	910003fd 	mov	x29, sp
    2598:	f9418021 	ldr	x1, [x1, #768]
    259c:	a90153f3 	stp	x19, x20, [sp, #16]
    25a0:	2a0003f3 	mov	w19, w0
    25a4:	f9400020 	ldr	x0, [x1]
    25a8:	f90c57e0 	str	x0, [sp, #6312]
    25ac:	d2800000 	mov	x0, #0x0                   	// #0
    25b0:	a90363f7 	stp	x23, x24, [sp, #48]
/home/ssysarch/Desktop/nick/jetpack_5/Jetson_Linux_R35.4.1_aarch64/Linux_for_Tegra/sources/tegra/optee-src/nv-optee/optee/optee_test/ta/os_test/os_test.c:1095
    25b4:	9101a3f8 	add	x24, sp, #0x68
    25b8:	52800001 	mov	w1, #0x0                   	// #0
    25bc:	aa1803e0 	mov	x0, x24
/home/ssysarch/Desktop/nick/jetpack_5/Jetson_Linux_R35.4.1_aarch64/Linux_for_Tegra/sources/tegra/optee-src/nv-optee/optee/optee_test/ta/os_test/os_test.c:1092
    25c0:	a9025bf5 	stp	x21, x22, [sp, #32]
    25c4:	f90023f9 	str	x25, [sp, #64]
/home/ssysarch/Desktop/nick/jetpack_5/Jetson_Linux_R35.4.1_aarch64/Linux_for_Tegra/sources/tegra/optee-src/nv-optee/optee/optee_test/ta/os_test/os_test.c:1094
    25c8:	f90033ff 	str	xzr, [sp, #96]
/home/ssysarch/Desktop/nick/jetpack_5/Jetson_Linux_R35.4.1_aarch64/Linux_for_Tegra/sources/tegra/optee-src/nv-optee/optee/optee_test/ta/os_test/os_test.c:1095
    25cc:	940004b8 	bl	38ac <memset@plt>
/home/ssysarch/Desktop/nick/jetpack_5/Jetson_Linux_R35.4.1_aarch64/Linux_for_Tegra/sources/tegra/optee-src/nv-optee/optee/optee_test/ta/os_test/os_test.c:1096
    25d0:	d280fe02 	mov	x2, #0x7f0                 	// #2032
    25d4:	52800001 	mov	w1, #0x0                   	// #0
    25d8:	9102e3e0 	add	x0, sp, #0xb8
    25dc:	a90affff 	stp	xzr, xzr, [sp, #168]
    25e0:	940004b3 	bl	38ac <memset@plt>
/home/ssysarch/Desktop/nick/jetpack_5/Jetson_Linux_R35.4.1_aarch64/Linux_for_Tegra/sources/tegra/optee-src/nv-optee/optee/optee_test/ta/os_test/os_test.c:1097
    25e4:	d280fe02 	mov	x2, #0x7f0                 	// #2032
    25e8:	52800001 	mov	w1, #0x0                   	// #0
    25ec:	9122e3e0 	add	x0, sp, #0x8b8
    25f0:	f90457ff 	str	xzr, [sp, #2216]
    25f4:	f9045bff 	str	xzr, [sp, #2224]
    25f8:	940004ad 	bl	38ac <memset@plt>
/home/ssysarch/Desktop/nick/jetpack_5/Jetson_Linux_R35.4.1_aarch64/Linux_for_Tegra/sources/tegra/optee-src/nv-optee/optee/optee_test/ta/os_test/os_test.c:1098
    25fc:	d2821703 	mov	x3, #0x10b8                	// #4280
    2600:	d280fe02 	mov	x2, #0x7f0                 	// #2032
    2604:	8b2363e0 	add	x0, sp, x3
    2608:	52800001 	mov	w1, #0x0                   	// #0
    260c:	f90857ff 	str	xzr, [sp, #4264]
    2610:	f9085bff 	str	xzr, [sp, #4272]
    2614:	940004a6 	bl	38ac <memset@plt>
/home/ssysarch/Desktop/nick/jetpack_5/Jetson_Linux_R35.4.1_aarch64/Linux_for_Tegra/sources/tegra/optee-src/nv-optee/optee/optee_test/ta/os_test/os_test.c:1100
    2618:	b9005fff 	str	wzr, [sp, #92]
/home/ssysarch/Desktop/nick/jetpack_5/Jetson_Linux_R35.4.1_aarch64/Linux_for_Tegra/sources/tegra/optee-src/nv-optee/optee/optee_test/ta/os_test/os_test.c:1106
    261c:	350010b3 	cbnz	w19, 2830 <ta_entry_ta2ta_memref+0x2b0>
/home/ssysarch/Desktop/nick/jetpack_5/Jetson_Linux_R35.4.1_aarch64/Linux_for_Tegra/sources/tegra/optee-src/nv-optee/optee/optee_test/ta/os_test/os_test.c:1109
    2620:	910173f9 	add	x25, sp, #0x5c
    2624:	d0000014 	adrp	x20, 4000 <free@plt+0x684>
    2628:	9113e295 	add	x21, x20, #0x4f8
    262c:	aa1903e5 	mov	x5, x25
    2630:	910183e4 	add	x4, sp, #0x60
    2634:	9105c2a0 	add	x0, x21, #0x170
    2638:	d2800003 	mov	x3, #0x0                   	// #0
    263c:	52800002 	mov	w2, #0x0                   	// #0
    2640:	12800001 	mov	w1, #0xffffffff            	// #-1
    2644:	940004be 	bl	393c <TEE_OpenTASession@plt>
    2648:	2a0003f3 	mov	w19, w0
/home/ssysarch/Desktop/nick/jetpack_5/Jetson_Linux_R35.4.1_aarch64/Linux_for_Tegra/sources/tegra/optee-src/nv-optee/optee/optee_test/ta/os_test/os_test.c:1111
    264c:	34000240 	cbz	w0, 2694 <ta_entry_ta2ta_memref+0x114>
/home/ssysarch/Desktop/nick/jetpack_5/Jetson_Linux_R35.4.1_aarch64/Linux_for_Tegra/sources/tegra/optee-src/nv-optee/optee/optee_test/ta/os_test/os_test.c:1112
    2650:	f0000004 	adrp	x4, 5000 <__func__.4630+0x8d5>
    2654:	9129a084 	add	x4, x4, #0xa68
    2658:	910602a0 	add	x0, x21, #0x180
    265c:	52800023 	mov	w3, #0x1                   	// #1
    2660:	52800022 	mov	w2, #0x1                   	// #1
    2664:	52808b01 	mov	w1, #0x458                 	// #1112
/home/ssysarch/Desktop/nick/jetpack_5/Jetson_Linux_R35.4.1_aarch64/Linux_for_Tegra/sources/tegra/optee-src/nv-optee/optee/optee_test/ta/os_test/os_test.c:1141
    2668:	94000429 	bl	370c <trace_printf@plt>
/home/ssysarch/Desktop/nick/jetpack_5/Jetson_Linux_R35.4.1_aarch64/Linux_for_Tegra/sources/tegra/optee-src/nv-optee/optee/optee_test/ta/os_test/os_test.c:1175
    266c:	f94033e0 	ldr	x0, [sp, #96]
    2670:	940004bf 	bl	396c <TEE_CloseTASession@plt>
/home/ssysarch/Desktop/nick/jetpack_5/Jetson_Linux_R35.4.1_aarch64/Linux_for_Tegra/sources/tegra/optee-src/nv-optee/optee/optee_test/ta/os_test/os_test.c:1177
    2674:	b0000021 	adrp	x1, 7000 <_DYNAMIC>
    2678:	f9418021 	ldr	x1, [x1, #768]
    267c:	f94c57e0 	ldr	x0, [sp, #6312]
    2680:	f9400022 	ldr	x2, [x1]
    2684:	eb020000 	subs	x0, x0, x2
    2688:	d2800002 	mov	x2, #0x0                   	// #0
    268c:	54000de0 	b.eq	2848 <ta_entry_ta2ta_memref+0x2c8>  // b.none
    2690:	94000447 	bl	37ac <__stack_chk_fail@plt>
/home/ssysarch/Desktop/nick/jetpack_5/Jetson_Linux_R35.4.1_aarch64/Linux_for_Tegra/sources/tegra/optee-src/nv-optee/optee/optee_test/ta/os_test/os_test.c:1120
    2694:	d2810000 	mov	x0, #0x800                 	// #2048
/home/ssysarch/Desktop/nick/jetpack_5/Jetson_Linux_R35.4.1_aarch64/Linux_for_Tegra/sources/tegra/optee-src/nv-optee/optee/optee_test/ta/os_test/os_test.c:1123
    2698:	d2821501 	mov	x1, #0x10a8                	// #4264
/home/ssysarch/Desktop/nick/jetpack_5/Jetson_Linux_R35.4.1_aarch64/Linux_for_Tegra/sources/tegra/optee-src/nv-optee/optee/optee_test/ta/os_test/os_test.c:1119
    269c:	9102a3f5 	add	x21, sp, #0xa8
/home/ssysarch/Desktop/nick/jetpack_5/Jetson_Linux_R35.4.1_aarch64/Linux_for_Tegra/sources/tegra/optee-src/nv-optee/optee/optee_test/ta/os_test/os_test.c:1123
    26a0:	8b2163f7 	add	x23, sp, x1
/home/ssysarch/Desktop/nick/jetpack_5/Jetson_Linux_R35.4.1_aarch64/Linux_for_Tegra/sources/tegra/optee-src/nv-optee/optee/optee_test/ta/os_test/os_test.c:1121
    26a4:	9122a3f6 	add	x22, sp, #0x8a8
/home/ssysarch/Desktop/nick/jetpack_5/Jetson_Linux_R35.4.1_aarch64/Linux_for_Tegra/sources/tegra/optee-src/nv-optee/optee/optee_test/ta/os_test/os_test.c:1128
    26a8:	528000a2 	mov	w2, #0x5                   	// #5
/home/ssysarch/Desktop/nick/jetpack_5/Jetson_Linux_R35.4.1_aarch64/Linux_for_Tegra/sources/tegra/optee-src/nv-optee/optee/optee_test/ta/os_test/os_test.c:1129
    26ac:	52800141 	mov	w1, #0xa                   	// #10
/home/ssysarch/Desktop/nick/jetpack_5/Jetson_Linux_R35.4.1_aarch64/Linux_for_Tegra/sources/tegra/optee-src/nv-optee/optee/optee_test/ta/os_test/os_test.c:1120
    26b0:	a90683f5 	stp	x21, x0, [sp, #104]
/home/ssysarch/Desktop/nick/jetpack_5/Jetson_Linux_R35.4.1_aarch64/Linux_for_Tegra/sources/tegra/optee-src/nv-optee/optee/optee_test/ta/os_test/os_test.c:1122
    26b4:	a90783f6 	stp	x22, x0, [sp, #120]
/home/ssysarch/Desktop/nick/jetpack_5/Jetson_Linux_R35.4.1_aarch64/Linux_for_Tegra/sources/tegra/optee-src/nv-optee/optee/optee_test/ta/os_test/os_test.c:1124
    26b8:	a90883f7 	stp	x23, x0, [sp, #136]
/home/ssysarch/Desktop/nick/jetpack_5/Jetson_Linux_R35.4.1_aarch64/Linux_for_Tegra/sources/tegra/optee-src/nv-optee/optee/optee_test/ta/os_test/os_test.c:1127
    26bc:	d2800000 	mov	x0, #0x0                   	// #0
/home/ssysarch/Desktop/nick/jetpack_5/Jetson_Linux_R35.4.1_aarch64/Linux_for_Tegra/sources/tegra/optee-src/nv-optee/optee/optee_test/ta/os_test/os_test.c:1128 (discriminator 3)
    26c0:	38206aa2 	strb	w2, [x21, x0]
/home/ssysarch/Desktop/nick/jetpack_5/Jetson_Linux_R35.4.1_aarch64/Linux_for_Tegra/sources/tegra/optee-src/nv-optee/optee/optee_test/ta/os_test/os_test.c:1129 (discriminator 3)
    26c4:	38206ac1 	strb	w1, [x22, x0]
/home/ssysarch/Desktop/nick/jetpack_5/Jetson_Linux_R35.4.1_aarch64/Linux_for_Tegra/sources/tegra/optee-src/nv-optee/optee/optee_test/ta/os_test/os_test.c:1130 (discriminator 3)
    26c8:	38206aff 	strb	wzr, [x23, x0]
/home/ssysarch/Desktop/nick/jetpack_5/Jetson_Linux_R35.4.1_aarch64/Linux_for_Tegra/sources/tegra/optee-src/nv-optee/optee/optee_test/ta/os_test/os_test.c:1127 (discriminator 3)
    26cc:	91000400 	add	x0, x0, #0x1
    26d0:	f120001f 	cmp	x0, #0x800
    26d4:	54ffff61 	b.ne	26c0 <ta_entry_ta2ta_memref+0x140>  // b.any
/home/ssysarch/Desktop/nick/jetpack_5/Jetson_Linux_R35.4.1_aarch64/Linux_for_Tegra/sources/tegra/optee-src/nv-optee/optee/optee_test/ta/os_test/os_test.c:1137
    26d8:	f94033e0 	ldr	x0, [sp, #96]
    26dc:	aa1903e5 	mov	x5, x25
    26e0:	aa1803e4 	mov	x4, x24
    26e4:	5280cea3 	mov	w3, #0x675                 	// #1653
    26e8:	52800182 	mov	w2, #0xc                   	// #12
    26ec:	12800001 	mov	w1, #0xffffffff            	// #-1
    26f0:	940003fb 	bl	36dc <TEE_InvokeTACommand@plt>
    26f4:	2a0003f3 	mov	w19, w0
/home/ssysarch/Desktop/nick/jetpack_5/Jetson_Linux_R35.4.1_aarch64/Linux_for_Tegra/sources/tegra/optee-src/nv-optee/optee/optee_test/ta/os_test/os_test.c:1140
    26f8:	34000120 	cbz	w0, 271c <ta_entry_ta2ta_memref+0x19c>
/home/ssysarch/Desktop/nick/jetpack_5/Jetson_Linux_R35.4.1_aarch64/Linux_for_Tegra/sources/tegra/optee-src/nv-optee/optee/optee_test/ta/os_test/os_test.c:1141
    26fc:	f0000004 	adrp	x4, 5000 <__func__.4630+0x8d5>
    2700:	912a0484 	add	x4, x4, #0xa81
    2704:	9113e280 	add	x0, x20, #0x4f8
    2708:	52800023 	mov	w3, #0x1                   	// #1
    270c:	52800022 	mov	w2, #0x1                   	// #1
    2710:	52808ea1 	mov	w1, #0x475                 	// #1141
    2714:	91060000 	add	x0, x0, #0x180
    2718:	17ffffd4 	b	2668 <ta_entry_ta2ta_memref+0xe8>
    271c:	aa1503e4 	mov	x4, x21
    2720:	aa1603e3 	mov	x3, x22
    2724:	aa1703e1 	mov	x1, x23
incr_values():
/home/ssysarch/Desktop/nick/jetpack_5/Jetson_Linux_R35.4.1_aarch64/Linux_for_Tegra/sources/tegra/optee-src/nv-optee/optee/optee_test/ta/os_test/os_test.c:1085
    2728:	d2800000 	mov	x0, #0x0                   	// #0
/home/ssysarch/Desktop/nick/jetpack_5/Jetson_Linux_R35.4.1_aarch64/Linux_for_Tegra/sources/tegra/optee-src/nv-optee/optee/optee_test/ta/os_test/os_test.c:1086
    272c:	39400082 	ldrb	w2, [x4]
/home/ssysarch/Desktop/nick/jetpack_5/Jetson_Linux_R35.4.1_aarch64/Linux_for_Tegra/sources/tegra/optee-src/nv-optee/optee/optee_test/ta/os_test/os_test.c:1085
    2730:	91000400 	add	x0, x0, #0x1
    2734:	f120001f 	cmp	x0, #0x800
/home/ssysarch/Desktop/nick/jetpack_5/Jetson_Linux_R35.4.1_aarch64/Linux_for_Tegra/sources/tegra/optee-src/nv-optee/optee/optee_test/ta/os_test/os_test.c:1086
    2738:	11000442 	add	w2, w2, #0x1
    273c:	38001482 	strb	w2, [x4], #1
    2740:	39400062 	ldrb	w2, [x3]
    2744:	11000442 	add	w2, w2, #0x1
    2748:	38001462 	strb	w2, [x3], #1
    274c:	39400022 	ldrb	w2, [x1]
    2750:	11000442 	add	w2, w2, #0x1
    2754:	38001422 	strb	w2, [x1], #1
/home/ssysarch/Desktop/nick/jetpack_5/Jetson_Linux_R35.4.1_aarch64/Linux_for_Tegra/sources/tegra/optee-src/nv-optee/optee/optee_test/ta/os_test/os_test.c:1085
    2758:	54fffea1 	b.ne	272c <ta_entry_ta2ta_memref+0x1ac>  // b.any
ta_entry_ta2ta_memref():
/home/ssysarch/Desktop/nick/jetpack_5/Jetson_Linux_R35.4.1_aarch64/Linux_for_Tegra/sources/tegra/optee-src/nv-optee/optee/optee_test/ta/os_test/os_test.c:1155
    275c:	f94033e0 	ldr	x0, [sp, #96]
    2760:	aa1903e5 	mov	x5, x25
    2764:	aa1803e4 	mov	x4, x24
    2768:	5280cea3 	mov	w3, #0x675                 	// #1653
    276c:	52800182 	mov	w2, #0xc                   	// #12
    2770:	12800001 	mov	w1, #0xffffffff            	// #-1
    2774:	940003da 	bl	36dc <TEE_InvokeTACommand@plt>
    2778:	2a0003f3 	mov	w19, w0
/home/ssysarch/Desktop/nick/jetpack_5/Jetson_Linux_R35.4.1_aarch64/Linux_for_Tegra/sources/tegra/optee-src/nv-optee/optee/optee_test/ta/os_test/os_test.c:1158
    277c:	34000100 	cbz	w0, 279c <ta_entry_ta2ta_memref+0x21c>
/home/ssysarch/Desktop/nick/jetpack_5/Jetson_Linux_R35.4.1_aarch64/Linux_for_Tegra/sources/tegra/optee-src/nv-optee/optee/optee_test/ta/os_test/os_test.c:1159
    2780:	f0000004 	adrp	x4, 5000 <__func__.4630+0x8d5>
    2784:	912a0484 	add	x4, x4, #0xa81
    2788:	9113e280 	add	x0, x20, #0x4f8
    278c:	52800023 	mov	w3, #0x1                   	// #1
    2790:	52800022 	mov	w2, #0x1                   	// #1
    2794:	528090e1 	mov	w1, #0x487                 	// #1159
    2798:	17ffffdf 	b	2714 <ta_entry_ta2ta_memref+0x194>
/home/ssysarch/Desktop/nick/jetpack_5/Jetson_Linux_R35.4.1_aarch64/Linux_for_Tegra/sources/tegra/optee-src/nv-optee/optee/optee_test/ta/os_test/os_test.c:1164
    279c:	d2800001 	mov	x1, #0x0                   	// #0
/home/ssysarch/Desktop/nick/jetpack_5/Jetson_Linux_R35.4.1_aarch64/Linux_for_Tegra/sources/tegra/optee-src/nv-optee/optee/optee_test/ta/os_test/os_test.c:1165
    27a0:	38616aa0 	ldrb	w0, [x21, x1]
    27a4:	7100181f 	cmp	w0, #0x6
    27a8:	540000e1 	b.ne	27c4 <ta_entry_ta2ta_memref+0x244>  // b.any
/home/ssysarch/Desktop/nick/jetpack_5/Jetson_Linux_R35.4.1_aarch64/Linux_for_Tegra/sources/tegra/optee-src/nv-optee/optee/optee_test/ta/os_test/os_test.c:1165 (discriminator 1)
    27ac:	38616ac0 	ldrb	w0, [x22, x1]
    27b0:	7100341f 	cmp	w0, #0xd
    27b4:	54000081 	b.ne	27c4 <ta_entry_ta2ta_memref+0x244>  // b.any
/home/ssysarch/Desktop/nick/jetpack_5/Jetson_Linux_R35.4.1_aarch64/Linux_for_Tegra/sources/tegra/optee-src/nv-optee/optee/optee_test/ta/os_test/os_test.c:1165 (discriminator 2)
    27b8:	38616ae0 	ldrb	w0, [x23, x1]
    27bc:	71004c1f 	cmp	w0, #0x13
    27c0:	540003c0 	b.eq	2838 <ta_entry_ta2ta_memref+0x2b8>  // b.none
/home/ssysarch/Desktop/nick/jetpack_5/Jetson_Linux_R35.4.1_aarch64/Linux_for_Tegra/sources/tegra/optee-src/nv-optee/optee/optee_test/ta/os_test/os_test.c:1166
    27c4:	9113e293 	add	x19, x20, #0x4f8
    27c8:	52800023 	mov	w3, #0x1                   	// #1
    27cc:	91060273 	add	x19, x19, #0x180
    27d0:	52800022 	mov	w2, #0x1                   	// #1
    27d4:	aa1303e0 	mov	x0, x19
    27d8:	528091c1 	mov	w1, #0x48e                 	// #1166
    27dc:	f0000004 	adrp	x4, 5000 <__func__.4630+0x8d5>
    27e0:	912a7084 	add	x4, x4, #0xa9c
    27e4:	940003ca 	bl	370c <trace_printf@plt>
/home/ssysarch/Desktop/nick/jetpack_5/Jetson_Linux_R35.4.1_aarch64/Linux_for_Tegra/sources/tegra/optee-src/nv-optee/optee/optee_test/ta/os_test/os_test.c:1167
    27e8:	aa1503e3 	mov	x3, x21
    27ec:	aa1303e0 	mov	x0, x19
    27f0:	52810004 	mov	w4, #0x800                 	// #2048
    27f4:	52800062 	mov	w2, #0x3                   	// #3
    27f8:	528091e1 	mov	w1, #0x48f                 	// #1167
    27fc:	94000434 	bl	38cc <dhex_dump@plt>
/home/ssysarch/Desktop/nick/jetpack_5/Jetson_Linux_R35.4.1_aarch64/Linux_for_Tegra/sources/tegra/optee-src/nv-optee/optee/optee_test/ta/os_test/os_test.c:1168
    2800:	aa1603e3 	mov	x3, x22
    2804:	aa1303e0 	mov	x0, x19
    2808:	52810004 	mov	w4, #0x800                 	// #2048
    280c:	52800062 	mov	w2, #0x3                   	// #3
    2810:	52809201 	mov	w1, #0x490                 	// #1168
    2814:	9400042e 	bl	38cc <dhex_dump@plt>
/home/ssysarch/Desktop/nick/jetpack_5/Jetson_Linux_R35.4.1_aarch64/Linux_for_Tegra/sources/tegra/optee-src/nv-optee/optee/optee_test/ta/os_test/os_test.c:1169
    2818:	aa1703e3 	mov	x3, x23
    281c:	aa1303e0 	mov	x0, x19
    2820:	52810004 	mov	w4, #0x800                 	// #2048
    2824:	52800062 	mov	w2, #0x3                   	// #3
    2828:	52809221 	mov	w1, #0x491                 	// #1169
    282c:	94000428 	bl	38cc <dhex_dump@plt>
/home/ssysarch/Desktop/nick/jetpack_5/Jetson_Linux_R35.4.1_aarch64/Linux_for_Tegra/sources/tegra/optee-src/nv-optee/optee/optee_test/ta/os_test/os_test.c:1107
    2830:	52bffff3 	mov	w19, #0xffff0000            	// #-65536
    2834:	17ffff90 	b	2674 <ta_entry_ta2ta_memref+0xf4>
/home/ssysarch/Desktop/nick/jetpack_5/Jetson_Linux_R35.4.1_aarch64/Linux_for_Tegra/sources/tegra/optee-src/nv-optee/optee/optee_test/ta/os_test/os_test.c:1164 (discriminator 2)
    2838:	91000421 	add	x1, x1, #0x1
    283c:	f120003f 	cmp	x1, #0x800
    2840:	54fffb01 	b.ne	27a0 <ta_entry_ta2ta_memref+0x220>  // b.any
/home/ssysarch/Desktop/nick/jetpack_5/Jetson_Linux_R35.4.1_aarch64/Linux_for_Tegra/sources/tegra/optee-src/nv-optee/optee/optee_test/ta/os_test/os_test.c:1174
    2844:	17ffff8a 	b	266c <ta_entry_ta2ta_memref+0xec>
/home/ssysarch/Desktop/nick/jetpack_5/Jetson_Linux_R35.4.1_aarch64/Linux_for_Tegra/sources/tegra/optee-src/nv-optee/optee/optee_test/ta/os_test/os_test.c:1177
    2848:	2a1303e0 	mov	w0, w19
    284c:	d283160c 	mov	x12, #0x18b0                	// #6320
    2850:	a9407bfd 	ldp	x29, x30, [sp]
    2854:	a94153f3 	ldp	x19, x20, [sp, #16]
    2858:	a9425bf5 	ldp	x21, x22, [sp, #32]
    285c:	a94363f7 	ldp	x23, x24, [sp, #48]
    2860:	f94023f9 	ldr	x25, [sp, #64]
    2864:	8b2c63ff 	add	sp, sp, x12
    2868:	d65f03c0 	ret

000000000000286c <ta_entry_ta2ta_memref_mix>:
ta_entry_ta2ta_memref_mix():
/home/ssysarch/Desktop/nick/jetpack_5/Jetson_Linux_R35.4.1_aarch64/Linux_for_Tegra/sources/tegra/optee-src/nv-optee/optee/optee_test/ta/os_test/os_test.c:1187
    286c:	7119d41f 	cmp	w0, #0x675
    2870:	54000321 	b.ne	28d4 <ta_entry_ta2ta_memref_mix+0x68>  // b.any
/home/ssysarch/Desktop/nick/jetpack_5/Jetson_Linux_R35.4.1_aarch64/Linux_for_Tegra/sources/tegra/optee-src/nv-optee/optee/optee_test/ta/os_test/os_test.c:1192
    2874:	f9400422 	ldr	x2, [x1, #8]
/home/ssysarch/Desktop/nick/jetpack_5/Jetson_Linux_R35.4.1_aarch64/Linux_for_Tegra/sources/tegra/optee-src/nv-optee/optee/optee_test/ta/os_test/os_test.c:1193
    2878:	f9400c20 	ldr	x0, [x1, #24]
    287c:	eb02001f 	cmp	x0, x2
    2880:	540002a1 	b.ne	28d4 <ta_entry_ta2ta_memref_mix+0x68>  // b.any
/home/ssysarch/Desktop/nick/jetpack_5/Jetson_Linux_R35.4.1_aarch64/Linux_for_Tegra/sources/tegra/optee-src/nv-optee/optee/optee_test/ta/os_test/os_test.c:1193 (discriminator 1)
    2884:	f9401420 	ldr	x0, [x1, #40]
    2888:	eb02001f 	cmp	x0, x2
    288c:	54000241 	b.ne	28d4 <ta_entry_ta2ta_memref_mix+0x68>  // b.any
/home/ssysarch/Desktop/nick/jetpack_5/Jetson_Linux_R35.4.1_aarch64/Linux_for_Tegra/sources/tegra/optee-src/nv-optee/optee/optee_test/ta/os_test/os_test.c:1197
    2890:	f9400024 	ldr	x4, [x1]
/home/ssysarch/Desktop/nick/jetpack_5/Jetson_Linux_R35.4.1_aarch64/Linux_for_Tegra/sources/tegra/optee-src/nv-optee/optee/optee_test/ta/os_test/os_test.c:1198
    2894:	f9400823 	ldr	x3, [x1, #16]
/home/ssysarch/Desktop/nick/jetpack_5/Jetson_Linux_R35.4.1_aarch64/Linux_for_Tegra/sources/tegra/optee-src/nv-optee/optee/optee_test/ta/os_test/os_test.c:1199
    2898:	f9401025 	ldr	x5, [x1, #32]
/home/ssysarch/Desktop/nick/jetpack_5/Jetson_Linux_R35.4.1_aarch64/Linux_for_Tegra/sources/tegra/optee-src/nv-optee/optee/optee_test/ta/os_test/os_test.c:1201
    289c:	d2800001 	mov	x1, #0x0                   	// #0
/home/ssysarch/Desktop/nick/jetpack_5/Jetson_Linux_R35.4.1_aarch64/Linux_for_Tegra/sources/tegra/optee-src/nv-optee/optee/optee_test/ta/os_test/os_test.c:1201 (discriminator 1)
    28a0:	eb02003f 	cmp	x1, x2
    28a4:	54000061 	b.ne	28b0 <ta_entry_ta2ta_memref_mix+0x44>  // b.any
/home/ssysarch/Desktop/nick/jetpack_5/Jetson_Linux_R35.4.1_aarch64/Linux_for_Tegra/sources/tegra/optee-src/nv-optee/optee/optee_test/ta/os_test/os_test.c:1204
    28a8:	52800000 	mov	w0, #0x0                   	// #0
/home/ssysarch/Desktop/nick/jetpack_5/Jetson_Linux_R35.4.1_aarch64/Linux_for_Tegra/sources/tegra/optee-src/nv-optee/optee/optee_test/ta/os_test/os_test.c:1205
    28ac:	d65f03c0 	ret
/home/ssysarch/Desktop/nick/jetpack_5/Jetson_Linux_R35.4.1_aarch64/Linux_for_Tegra/sources/tegra/optee-src/nv-optee/optee/optee_test/ta/os_test/os_test.c:1202 (discriminator 3)
    28b0:	38616860 	ldrb	w0, [x3, x1]
    28b4:	11000400 	add	w0, w0, #0x1
    28b8:	12001c00 	and	w0, w0, #0xff
    28bc:	38216860 	strb	w0, [x3, x1]
    28c0:	38616886 	ldrb	w6, [x4, x1]
    28c4:	0b060000 	add	w0, w0, w6
    28c8:	382168a0 	strb	w0, [x5, x1]
/home/ssysarch/Desktop/nick/jetpack_5/Jetson_Linux_R35.4.1_aarch64/Linux_for_Tegra/sources/tegra/optee-src/nv-optee/optee/optee_test/ta/os_test/os_test.c:1201 (discriminator 3)
    28cc:	91000421 	add	x1, x1, #0x1
    28d0:	17fffff4 	b	28a0 <ta_entry_ta2ta_memref_mix+0x34>
/home/ssysarch/Desktop/nick/jetpack_5/Jetson_Linux_R35.4.1_aarch64/Linux_for_Tegra/sources/tegra/optee-src/nv-optee/optee/optee_test/ta/os_test/os_test.c:1190
    28d4:	52bfffe0 	mov	w0, #0xffff0000            	// #-65536
    28d8:	17fffff5 	b	28ac <ta_entry_ta2ta_memref_mix+0x40>

00000000000028dc <ta_entry_params>:
ta_entry_params():
/home/ssysarch/Desktop/nick/jetpack_5/Jetson_Linux_R35.4.1_aarch64/Linux_for_Tegra/sources/tegra/optee-src/nv-optee/optee/optee_test/ta/os_test/os_test.c:1211
    28dc:	528ccaa2 	mov	w2, #0x6655                	// #26197
    28e0:	6b02001f 	cmp	w0, w2
    28e4:	54000161 	b.ne	2910 <ta_entry_params+0x34>  // b.any
    28e8:	91010020 	add	x0, x1, #0x40
/home/ssysarch/Desktop/nick/jetpack_5/Jetson_Linux_R35.4.1_aarch64/Linux_for_Tegra/sources/tegra/optee-src/nv-optee/optee/optee_test/ta/os_test/os_test.c:1218
    28ec:	f9400022 	ldr	x2, [x1]
    28f0:	b4000102 	cbz	x2, 2910 <ta_entry_params+0x34>
/home/ssysarch/Desktop/nick/jetpack_5/Jetson_Linux_R35.4.1_aarch64/Linux_for_Tegra/sources/tegra/optee-src/nv-optee/optee/optee_test/ta/os_test/os_test.c:1218 (discriminator 1)
    28f4:	f9400422 	ldr	x2, [x1, #8]
    28f8:	b40000c2 	cbz	x2, 2910 <ta_entry_params+0x34>
/home/ssysarch/Desktop/nick/jetpack_5/Jetson_Linux_R35.4.1_aarch64/Linux_for_Tegra/sources/tegra/optee-src/nv-optee/optee/optee_test/ta/os_test/os_test.c:1217 (discriminator 2)
    28fc:	91004021 	add	x1, x1, #0x10
    2900:	eb00003f 	cmp	x1, x0
    2904:	54ffff41 	b.ne	28ec <ta_entry_params+0x10>  // b.any
/home/ssysarch/Desktop/nick/jetpack_5/Jetson_Linux_R35.4.1_aarch64/Linux_for_Tegra/sources/tegra/optee-src/nv-optee/optee/optee_test/ta/os_test/os_test.c:1221
    2908:	52800000 	mov	w0, #0x0                   	// #0
/home/ssysarch/Desktop/nick/jetpack_5/Jetson_Linux_R35.4.1_aarch64/Linux_for_Tegra/sources/tegra/optee-src/nv-optee/optee/optee_test/ta/os_test/os_test.c:1222
    290c:	d65f03c0 	ret
/home/ssysarch/Desktop/nick/jetpack_5/Jetson_Linux_R35.4.1_aarch64/Linux_for_Tegra/sources/tegra/optee-src/nv-optee/optee/optee_test/ta/os_test/os_test.c:1215
    2910:	129fff20 	mov	w0, #0xffff0006            	// #-65530
    2914:	17fffffe 	b	290c <ta_entry_params+0x30>

0000000000002918 <ta_entry_null_memref>:
ta_entry_null_memref():
/home/ssysarch/Desktop/nick/jetpack_5/Jetson_Linux_R35.4.1_aarch64/Linux_for_Tegra/sources/tegra/optee-src/nv-optee/optee/optee_test/ta/os_test/os_test.c:1226
    2918:	528ccaa2 	mov	w2, #0x6655                	// #26197
    291c:	6b02001f 	cmp	w0, w2
    2920:	540002a1 	b.ne	2974 <ta_entry_null_memref+0x5c>  // b.any
/home/ssysarch/Desktop/nick/jetpack_5/Jetson_Linux_R35.4.1_aarch64/Linux_for_Tegra/sources/tegra/optee-src/nv-optee/optee/optee_test/ta/os_test/os_test.c:1239
    2924:	f9400020 	ldr	x0, [x1]
    2928:	b4000260 	cbz	x0, 2974 <ta_entry_null_memref+0x5c>
/home/ssysarch/Desktop/nick/jetpack_5/Jetson_Linux_R35.4.1_aarch64/Linux_for_Tegra/sources/tegra/optee-src/nv-optee/optee/optee_test/ta/os_test/os_test.c:1239 (discriminator 1)
    292c:	f9400420 	ldr	x0, [x1, #8]
    2930:	b5000220 	cbnz	x0, 2974 <ta_entry_null_memref+0x5c>
/home/ssysarch/Desktop/nick/jetpack_5/Jetson_Linux_R35.4.1_aarch64/Linux_for_Tegra/sources/tegra/optee-src/nv-optee/optee/optee_test/ta/os_test/os_test.c:1239 (discriminator 2)
    2934:	f9400822 	ldr	x2, [x1, #16]
    2938:	b50001e2 	cbnz	x2, 2974 <ta_entry_null_memref+0x5c>
/home/ssysarch/Desktop/nick/jetpack_5/Jetson_Linux_R35.4.1_aarch64/Linux_for_Tegra/sources/tegra/optee-src/nv-optee/optee/optee_test/ta/os_test/os_test.c:1240
    293c:	f9400c20 	ldr	x0, [x1, #24]
    2940:	b50001a0 	cbnz	x0, 2974 <ta_entry_null_memref+0x5c>
/home/ssysarch/Desktop/nick/jetpack_5/Jetson_Linux_R35.4.1_aarch64/Linux_for_Tegra/sources/tegra/optee-src/nv-optee/optee/optee_test/ta/os_test/os_test.c:1240 (discriminator 1)
    2944:	f9401022 	ldr	x2, [x1, #32]
    2948:	b4000162 	cbz	x2, 2974 <ta_entry_null_memref+0x5c>
/home/ssysarch/Desktop/nick/jetpack_5/Jetson_Linux_R35.4.1_aarch64/Linux_for_Tegra/sources/tegra/optee-src/nv-optee/optee/optee_test/ta/os_test/os_test.c:1241
    294c:	f9401420 	ldr	x0, [x1, #40]
    2950:	b5000120 	cbnz	x0, 2974 <ta_entry_null_memref+0x5c>
/home/ssysarch/Desktop/nick/jetpack_5/Jetson_Linux_R35.4.1_aarch64/Linux_for_Tegra/sources/tegra/optee-src/nv-optee/optee/optee_test/ta/os_test/os_test.c:1242 (discriminator 1)
    2954:	9100c020 	add	x0, x1, #0x30
/home/ssysarch/Desktop/nick/jetpack_5/Jetson_Linux_R35.4.1_aarch64/Linux_for_Tegra/sources/tegra/optee-src/nv-optee/optee/optee_test/ta/os_test/os_test.c:1241 (discriminator 1)
    2958:	f9401821 	ldr	x1, [x1, #48]
    295c:	b50000c1 	cbnz	x1, 2974 <ta_entry_null_memref+0x5c>
/home/ssysarch/Desktop/nick/jetpack_5/Jetson_Linux_R35.4.1_aarch64/Linux_for_Tegra/sources/tegra/optee-src/nv-optee/optee/optee_test/ta/os_test/os_test.c:1242
    2960:	f9400400 	ldr	x0, [x0, #8]
