
/home/ssysarch/Desktop/nick/jetpack_5/Jetson_Linux_R35.4.1_aarch64/Linux_for_Tegra/sources/tegra/optee-src/nv-optee/optee/build/t234/ta/rpc_test/d17f73a0-36ef-11e1-984a-0002a5d5c51b.elf:     file format elf64-littleaarch64
/home/ssysarch/Desktop/nick/jetpack_5/Jetson_Linux_R35.4.1_aarch64/Linux_for_Tegra/sources/tegra/optee-src/nv-optee/optee/build/t234/ta/rpc_test/d17f73a0-36ef-11e1-984a-0002a5d5c51b.elf
architecture: aarch64, flags 0x00000150:
HAS_SYMS, DYNAMIC, D_PAGED
start address 0x0000000000000520

Program Header:
    LOAD off    0x0000000000001000 vaddr 0x0000000000000000 paddr 0x0000000000000000 align 2**12
         filesz 0x0000000000011138 memsz 0x0000000000011138 flags r-x
    LOAD off    0x0000000000013000 vaddr 0x0000000000012000 paddr 0x0000000000012000 align 2**12
         filesz 0x00000000000005ac memsz 0x000000000000be50 flags rw-
 DYNAMIC off    0x0000000000013000 vaddr 0x0000000000012000 paddr 0x0000000000012000 align 2**3
         filesz 0x0000000000000110 memsz 0x0000000000000110 flags rw-
   STACK off    0x0000000000000000 vaddr 0x0000000000000000 paddr 0x0000000000000000 align 2**4
         filesz 0x0000000000000000 memsz 0x0000000000000000 flags rw-

Dynamic Section:
  HASH                 0x0000000000010e20
  GNU_HASH             0x0000000000010d30
  STRTAB               0x0000000000010df0
  SYMTAB               0x0000000000010d60
  STRSZ                0x000000000000002e
  SYMENT               0x0000000000000018
  DEBUG                0x0000000000000000
  RELA                 0x0000000000010e50
  RELASZ               0x00000000000004c8
  RELAENT              0x0000000000000018
  FLAGS_1              0x0000000008000000
  RELACOUNT            0x000000000000001f
private flags = 0:

Sections:
Idx Name          Size      VMA               LMA               File off  Algn
  0 .ta_head      00000020  0000000000000000  0000000000000000  00001000  2**3
                  CONTENTS, ALLOC, LOAD, READONLY, DATA
  1 .text         0000cf8c  0000000000000020  0000000000000020  00001020  2**4
                  CONTENTS, ALLOC, LOAD, READONLY, CODE
  2 .eh_frame     00002a04  000000000000cfb0  000000000000cfb0  0000dfb0  2**3
                  CONTENTS, ALLOC, LOAD, READONLY, DATA
  3 .rodata       00001378  000000000000f9b8  000000000000f9b8  000109b8  2**3
                  CONTENTS, ALLOC, LOAD, READONLY, DATA
  4 .gnu.hash     00000030  0000000000010d30  0000000000010d30  00011d30  2**3
                  CONTENTS, ALLOC, LOAD, READONLY, DATA
  5 .dynsym       00000090  0000000000010d60  0000000000010d60  00011d60  2**3
                  CONTENTS, ALLOC, LOAD, READONLY, DATA
  6 .dynstr       0000002e  0000000000010df0  0000000000010df0  00011df0  2**0
                  CONTENTS, ALLOC, LOAD, READONLY, DATA
  7 .hash         0000002c  0000000000010e20  0000000000010e20  00011e20  2**3
                  CONTENTS, ALLOC, LOAD, READONLY, DATA
  8 .rela.dyn     000002e8  0000000000010e50  0000000000010e50  00011e50  2**3
                  CONTENTS, ALLOC, LOAD, READONLY, DATA
  9 .dynamic      00000110  0000000000012000  0000000000012000  00013000  2**3
                  CONTENTS, ALLOC, LOAD, DATA
 10 .got          000000c0  0000000000012110  0000000000012110  00013110  2**3
                  CONTENTS, ALLOC, LOAD, DATA
 11 .rela.got     000001e0  00000000000121d0  00000000000121d0  000131d0  2**3
                  CONTENTS, ALLOC, LOAD, READONLY, DATA
 12 .data         000001fc  00000000000123b0  00000000000123b0  000133b0  2**3
                  CONTENTS, ALLOC, LOAD, DATA
 13 .bss          0000b8a0  00000000000125b0  00000000000125b0  000135ac  2**3
                  ALLOC
 14 .debug_info   0001a9b1  0000000000000000  0000000000000000  000135ac  2**0
                  CONTENTS, READONLY, DEBUGGING
 15 .debug_abbrev 0000425a  0000000000000000  0000000000000000  0002df5d  2**0
                  CONTENTS, READONLY, DEBUGGING
 16 .debug_loc    0002557b  0000000000000000  0000000000000000  000321b7  2**0
                  CONTENTS, READONLY, DEBUGGING
 17 .debug_aranges 00000980  0000000000000000  0000000000000000  00057740  2**4
                  CONTENTS, READONLY, DEBUGGING
 18 .debug_macro  0001848f  0000000000000000  0000000000000000  000580c0  2**0
                  CONTENTS, READONLY, DEBUGGING
 19 .debug_line   0001014c  0000000000000000  0000000000000000  0007054f  2**0
                  CONTENTS, READONLY, DEBUGGING
 20 .debug_str    0001b7f2  0000000000000000  0000000000000000  0008069b  2**0
                  CONTENTS, READONLY, DEBUGGING
 21 .comment      0000001f  0000000000000000  0000000000000000  0009be8d  2**0
                  CONTENTS, READONLY
 22 .debug_ranges 00001da0  0000000000000000  0000000000000000  0009beb0  2**4
                  CONTENTS, READONLY, DEBUGGING
SYMBOL TABLE:
0000000000000000 l    d  .ta_head	0000000000000000 .ta_head
0000000000000020 l    d  .text	0000000000000000 .text
000000000000cfb0 l    d  .eh_frame	0000000000000000 .eh_frame
000000000000f9b8 l    d  .rodata	0000000000000000 .rodata
0000000000010d30 l    d  .gnu.hash	0000000000000000 .gnu.hash
0000000000010d60 l    d  .dynsym	0000000000000000 .dynsym
0000000000010df0 l    d  .dynstr	0000000000000000 .dynstr
0000000000010e20 l    d  .hash	0000000000000000 .hash
0000000000010e50 l    d  .rela.dyn	0000000000000000 .rela.dyn
0000000000012000 l    d  .dynamic	0000000000000000 .dynamic
0000000000012110 l    d  .got	0000000000000000 .got
00000000000121d0 l    d  .rela.got	0000000000000000 .rela.got
00000000000123b0 l    d  .data	0000000000000000 .data
00000000000125b0 l    d  .bss	0000000000000000 .bss
0000000000000000 l    d  .debug_info	0000000000000000 .debug_info
0000000000000000 l    d  .debug_abbrev	0000000000000000 .debug_abbrev
0000000000000000 l    d  .debug_loc	0000000000000000 .debug_loc
0000000000000000 l    d  .debug_aranges	0000000000000000 .debug_aranges
0000000000000000 l    d  .debug_macro	0000000000000000 .debug_macro
0000000000000000 l    d  .debug_line	0000000000000000 .debug_line
0000000000000000 l    d  .debug_str	0000000000000000 .debug_str
0000000000000000 l    d  .comment	0000000000000000 .comment
0000000000000000 l    d  .debug_ranges	0000000000000000 .debug_ranges
0000000000000000 l    df *ABS*	0000000000000000 user_ta_header.c
000000000000f9c0 l     O .rodata	0000000000000001 __compound_literal.6
000000000000f9c4 l     O .rodata	0000000000000004 __compound_literal.5
000000000000f9c8 l     O .rodata	0000000000000004 __compound_literal.4
000000000000f9cc l     O .rodata	0000000000000004 __compound_literal.3
000000000000f9d0 l     O .rodata	0000000000000001 __compound_literal.2
000000000000f9d1 l     O .rodata	0000000000000001 __compound_literal.1
000000000000f9d2 l     O .rodata	0000000000000001 __compound_literal.0
0000000000000000 l    df *ABS*	0000000000000000 memcpy.c
0000000000000000 l    df *ABS*	0000000000000000 ta_entry.c
0000000000000000 l    df *ABS*	0000000000000000 ta_rpc.c
00000000000001a0 l     F .text	0000000000000268 rpc_call_cryp
000000000000fa1c l     O .rodata	000000000000000e __func__.4492
0000000000012598 l     O .data	0000000000000010 cryp_uuid
0000000000000000 l    df *ABS*	0000000000000000 stack_check.c
0000000000000000 l    df *ABS*	0000000000000000 memset.c
0000000000000000 l    df *ABS*	0000000000000000 trace.c
0000000000000588 l     F .text	000000000000010c append
000000000000ffe0 l     O .rodata	0000000000000005 lvl_strs.3595
000000000000ffe5 l     O .rodata	000000000000000a __func__.3657
0000000000000000 l    df *ABS*	0000000000000000 snprintk.c
0000000000000d38 l     F .text	0000000000000be0 kprintf.constprop.0
000000000000fac6 l     O .rodata	0000000000000011 HEXDIGITS
000000000000fad7 l     O .rodata	0000000000000011 hexdigits
0000000000000000 l    df *ABS*	0000000000000000 memchr.c
0000000000000000 l    df *ABS*	0000000000000000 strlen.c
0000000000000000 l    df *ABS*	0000000000000000 trace_ext.c
0000000000000000 l    df *ABS*	0000000000000000 tee_api.c
0000000000001b8c l     F .text	000000000000006c copy_param
0000000000001bf8 l     F .text	0000000000000070 copy_gp11_param
0000000000001c68 l     F .text	0000000000000094 check_mem_access_rights_params
0000000000001cfc l     F .text	0000000000000044 buf_overlaps_no_share_heap
0000000000001d40 l     F .text	00000000000000a8 check_invoke_param
0000000000001de8 l     F .text	00000000000000a8 update_out_param
0000000000001e90 l     F .text	00000000000000ac update_out_gp11_param
000000000000210c l     F .text	000000000000019c map_tmp_param
00000000000125b0 l     O .bss	0000000000000008 tee_api_instance_data
000000000000f9f8 l     O .rodata	000000000000000b __func__.5423
0000000000000000 l    df *ABS*	0000000000000000 tee_api_panic.c
0000000000002c4c l     F .text	000000000000001c check_access
0000000000002c70 l     F .text	0000000000000044 check_res
00000000000100a3 l     O .rodata	000000000000000a __func__.4862
0000000000000000 l    df *ABS*	0000000000000000 tee_system_pta.c
0000000000002f38 l     F .text	0000000000000088 invoke_system_pta
000000000000fae8 l     O .rodata	0000000000000010 uuid.4625
000000000000faf8 l     O .rodata	000000000000000a __func__.4645
000000000000fb02 l     O .rodata	0000000000000017 __func__.4657
00000000000125c0 l     O .bss	0000000000000008 sess.4624
0000000000000000 l    df *ABS*	0000000000000000 user_ta_entry.c
0000000000003248 l     F .text	00000000000000b0 _get_fn_array
00000000000032f8 l     F .text	0000000000000090 _fini_iterate_phdr_cb
0000000000003388 l     F .text	0000000000000028 ta_header_get_session
00000000000033b0 l     F .text	000000000000006c to_utee_params
000000000000341c l     F .text	000000000000005c from_utee_params
0000000000003478 l     F .text	0000000000000094 _init_iterate_phdr_cb
0000000000003674 l     F .text	0000000000000098 ta_header_remove_session
0000000000010151 l     O .rodata	0000000000000016 __func__.5387
00000000000125c8 l     O .bss	0000000000000008 _num_mod_init
00000000000125d0 l     O .bss	0000000000000001 init_done
0000000000012490 l     O .data	0000000000000010 ta_sessions
00000000000124a0 l     O .data	0000000000000010 __phdr_info_head
0000000000000000 l    df *ABS*	0000000000000000 utee_syscalls_a64.o
0000000000000000 l    df *ABS*	0000000000000000 abort.c
0000000000000000 l    df *ABS*	0000000000000000 tee_api_arith_mpi.c
0000000000003c60 l     F .text	0000000000000030 api_panic
0000000000003c90 l     F .text	0000000000000030 mpi_panic
0000000000003cc0 l     F .text	0000000000000098 get_mpi
0000000000003d58 l     F .text	0000000000000064 copy_mpi_to_bigint
0000000000003dbc l     F .text	000000000000014c bigint_binary
0000000000003f08 l     F .text	0000000000000020 mpi_is_odd
0000000000003f28 l     F .text	0000000000000028 rng_read
0000000000003f50 l     F .text	0000000000000574 mpi_egcd
0000000000012638 l     O .bss	0000000000003800 data.5215
00000000000049f0 l     F .text	00000000000001d0 bigint_binary_mod
0000000000010237 l     O .rodata	0000000000000008 __func__.5249
000000000001023f l     O .rodata	000000000000000e __func__.5387
000000000001024d l     O .rodata	0000000000000009 __func__.5551
0000000000010256 l     O .rodata	0000000000000012 __func__.5216
0000000000010268 l     O .rodata	000000000000000f __func__.5255
0000000000010277 l     O .rodata	000000000000001f __func__.5283
0000000000010296 l     O .rodata	0000000000000019 __func__.5297
00000000000102af l     O .rodata	0000000000000012 __func__.5406
00000000000102c1 l     O .rodata	0000000000000015 __func__.5328
00000000000102d6 l     O .rodata	000000000000000e __func__.5427
00000000000102e4 l     O .rodata	000000000000000e __func__.5456
00000000000102f2 l     O .rodata	000000000000000e __func__.5464
0000000000010300 l     O .rodata	0000000000000011 __func__.5497
0000000000010311 l     O .rodata	0000000000000018 __func__.5510
0000000000010329 l     O .rodata	0000000000000011 __func__.5531
000000000001033a l     O .rodata	000000000000001d __func__.5608
0000000000010357 l     O .rodata	0000000000000019 __func__.5681
0000000000010370 l     O .rodata	0000000000000015 __func__.5696
0000000000000000 l    df *ABS*	0000000000000000 tee_api_property.c
0000000000005d8c l     F .text	000000000000006c propset_get
0000000000005df8 l     F .text	000000000000002c is_propset_pseudo_handle
0000000000005e24 l     F .text	0000000000000148 propget_get_ext_prop
0000000000005f6c l     F .text	00000000000001b0 propget_get_property
000000000000fb2c l     O .rodata	0000000000000004 __compound_literal.3
000000000000fb30 l     O .rodata	0000000000000004 __compound_literal.2
000000000000fb34 l     O .rodata	0000000000000004 __compound_literal.1
000000000000fb38 l     O .rodata	0000000000000004 __compound_literal.0
0000000000000000 l    df *ABS*	0000000000000000 tcb.c
0000000000010495 l     O .rodata	0000000000000010 __func__.4097
00000000000104a5 l     O .rodata	0000000000000010 __func__.4124
0000000000015e38 l     O .bss	0000000000000008 _tls_size
0000000000015e40 l     O .bss	0000000000000008 _tcb
0000000000000000 l    df *ABS*	0000000000000000 assert.c
0000000000000000 l    df *ABS*	0000000000000000 base64.c
000000000000fb40 l     O .rodata	0000000000000041 base64_table
0000000000000000 l    df *ABS*	0000000000000000 bignum.c
0000000000007300 l     F .text	0000000000000064 mpi_get_digit
0000000000007364 l     F .text	000000000000040c mpi_mul_hlp
0000000000007770 l     F .text	0000000000000038 mpi_montg_init.isra.0
00000000000077a8 l     F .text	00000000000000ac mpi_bigendian_to_host.part.0
0000000000007854 l     F .text	00000000000000c0 mpi_fill_random_internal
0000000000007914 l     F .text	0000000000000148 mpi_montmul.isra.0
0000000000007a5c l     F .text	0000000000000078 mpi_montred
0000000000007c60 l     F .text	000000000000006c mbedtls_mpi_resize_clear
0000000000009998 l     F .text	00000000000000c4 mpi_check_small_factors
000000000000a37c l     F .text	00000000000002a4 mpi_miller_rabin
000000000000fb84 l     O .rodata	00000000000002a0 small_prime
000000000000fe24 l     O .rodata	0000000000000024 gcd_pairs
0000000000000000 l    df *ABS*	0000000000000000 constant_time.c
000000000000b490 l     F .text	0000000000000020 mbedtls_ct_uchar_mask_of_range
0000000000000000 l    df *ABS*	0000000000000000 platform_util.c
0000000000012510 l     O .data	0000000000000008 memset_func
0000000000000000 l    df *ABS*	0000000000000000 bget_malloc.c
000000000000bc70 l     F .text	0000000000000010 _assert_trap
000000000000bc80 l     F .text	0000000000000038 raw_malloc_return_hook.isra.0
000000000000bcb8 l     F .text	0000000000000028 bget_buf_size.part.0
0000000000010c23 l     O .rodata	000000000000000e __func__.3996
0000000000010c31 l     O .rodata	0000000000000005 __func__.3908
0000000000010c36 l     O .rodata	0000000000000006 __func__.3928
0000000000010c3c l     O .rodata	0000000000000005 __func__.3949
0000000000010c41 l     O .rodata	0000000000000006 __func__.3939
0000000000010c47 l     O .rodata	0000000000000006 __func__.3958
0000000000010c4d l     O .rodata	0000000000000007 __func__.3968
0000000000010c54 l     O .rodata	0000000000000014 __func__.4197
0000000000010c68 l     O .rodata	0000000000000013 __func__.4061
0000000000012518 l     O .data	0000000000000080 malloc_ctx
0000000000000000 l    df *ABS*	0000000000000000 snprintf.c
0000000000000000 l    df *ABS*	0000000000000000 memmove.c
0000000000000000 l    df *ABS*	0000000000000000 strcmp.c
0000000000000000 l    df *ABS*	0000000000000000 strlcpy.c
0000000000000000 l    df *ABS*	0000000000000000 mempool.c
0000000000010d04 l     O .rodata	0000000000000013 __func__.3711
0000000000010d17 l     O .rodata	000000000000000b __func__.3692
0000000000010d22 l     O .rodata	000000000000000e __func__.3717
0000000000000000 l    df *ABS*	0000000000000000 consttime_memcmp.c
0000000000000000 l    df *ABS*	0000000000000000 
0000000000012000 l     O *ABS*	0000000000000000 _DYNAMIC
0000000000012128 l     O *ABS*	0000000000000000 _GLOBAL_OFFSET_TABLE_
0000000000001b1c g     F .text	0000000000000070 putchar
0000000000004644 g     F .text	0000000000000008 __GP11_TEE_BigIntConvertFromOctetString
0000000000005b70 g     F .text	0000000000000004 TEE_BigIntConvertToFMM
00000000000053e4 g     F .text	000000000000000c TEE_BigIntSquareMod
0000000000004bc0 g     F .text	00000000000001a0 TEE_BigIntShiftRight
000000000000c838 g     F .text	000000000000011c raw_malloc_add_pool
0000000000003138 g     F .text	0000000000000110 tee_invoke_supp_plugin
0000000000007b78 g     F .text	00000000000000e8 mbedtls_mpi_grow
0000000000006a74 g     F .text	0000000000000128 __GP11_TEE_GetPropertyName
0000000000002b54 g     F .text	00000000000000d8 TEE_Realloc
0000000000002f0c g     F .text	000000000000002c __utee_check_inout_annotation
000000000000c5f0 g     F .text	0000000000000010 raw_free
00000000000019dc g     F .text	0000000000000100 printf
0000000000004f5c g     F .text	000000000000002c TEE_BigIntAbs
00000000000039ac g     F .text	000000000000000c _utee_log
0000000000002544 g     F .text	0000000000000184 TEE_InvokeTACommand
0000000000002cb4 g     F .text	0000000000000064 __utee_check_outbuf_annotation
0000000000007ae4 g     F .text	0000000000000028 mbedtls_mpi_init_mempool
0000000000003b2c g     F .text	000000000000000c _utee_cryp_random_number_generate
00000000000082e0 g     F .text	00000000000000c4 mbedtls_mpi_write_binary
0000000000000c14 g     F .text	0000000000000058 vsnprintk
0000000000008b5c g     F .text	0000000000000074 mbedtls_mpi_sub_int
000000000000ccd4 g     F .text	000000000000005c memmove
000000000000cbac g     F .text	00000000000000d0 snprintf
0000000000004974 g     F .text	000000000000007c TEE_BigIntCmpS32
0000000000002864 g     F .text	0000000000000008 __GP11_TEE_MemMove
0000000000012488 g     O .data	0000000000000008 __stack_chk_guard
000000000000b9d4 g     F .text	000000000000027c mbedtls_ct_rsaes_pkcs1_v15_unpadding
0000000000007ccc g     F .text	0000000000000120 mbedtls_mpi_shrink
000000000000287c g     F .text	0000000000000008 __GP11_TEE_MemFill
0000000000004f88 g     F .text	000000000000000c TEE_BigIntAdd
0000000000003acc g     F .text	000000000000000c _utee_cryp_obj_restrict_usage
000000000000f9e0 g     O .rodata	0000000000000008 ta_heap_size
0000000000003b74 g     F .text	000000000000000c _utee_asymm_operate
00000000000070a8 g     F .text	0000000000000018 _base64_enc_len
0000000000008e24 g     F .text	000000000000020c mbedtls_mpi_read_string
0000000000000410 g     F .text	0000000000000008 rpc_sha256
0000000000004fa0 g     F .text	00000000000000e4 TEE_BigIntNeg
0000000000003bc8 g     F .text	000000000000000c _utee_storage_free_enum
0000000000000020 g       .text	0000000000000000 __text_start
0000000000006c24 g     F .text	00000000000000e0 TEE_GetNextProperty
00000000000084b4 g     F .text	00000000000000c0 mbedtls_mpi_shift_r
000000000000cb98 g     F .text	0000000000000014 malloc_buffer_overlaps_heap
0000000000003a78 g     F .text	000000000000000c _utee_hash_init
00000000000053cc g     F .text	000000000000000c TEE_BigIntSubMod
000000000000ad1c g     F .text	000000000000034c mbedtls_mpi_gen_prime
00000000000067a4 g     F .text	0000000000000098 TEE_GetPropertyAsBinaryBlock
0000000000007fa8 g     F .text	000000000000002c mbedtls_mpi_get_bit
000000000000f9d8 g     O .rodata	0000000000000008 __ta_no_share_heap_size
00000000000081a4 g     F .text	0000000000000084 mbedtls_mpi_read_binary
00000000000008dc g     F .text	00000000000000e0 trace_printf
0000000000009a64 g     F .text	0000000000000008 mbedtls_mpi_montmul
0000000000003c34 g     F .text	000000000000000c _utee_cache_operation
0000000000000020 g     F .text	00000000000000ec memcpy
0000000000005b74 g     F .text	00000000000000d0 TEE_BigIntConvertFromFMM
0000000000002c68 g     F .text	0000000000000008 TEE_Panic
0000000000001adc g     F .text	0000000000000040 puts
0000000000005c44 g     F .text	0000000000000148 TEE_BigIntComputeFMM
000000000000cb60 g     F .text	0000000000000010 malloc_get_stats
00000000000029a0 g     F .text	0000000000000028 TEE_GetREETime
000000000000cb24 g     F .text	000000000000003c raw_malloc_get_stats
00000000000123b0 g     O .data	00000000000000d8 ta_props
0000000000002aec g     F .text	0000000000000008 __GP11_TEE_Malloc
00000000000023fc g     F .text	0000000000000148 __GP11_TEE_OpenTASession
0000000000002d7c g     F .text	000000000000003c __utee_check_instring_annotation
000000000000c764 g     F .text	0000000000000018 malloc
0000000000006a60 g     F .text	0000000000000004 TEE_FreePropertyEnumerator
000000000000b508 g     F .text	0000000000000010 mbedtls_ct_mpi_uint_mask
000000000000cc7c g     F .text	0000000000000058 vsnprintf
0000000000000418 g     F .text	0000000000000008 rpc_aes256ecb_encrypt
00000000000125a8 g     O .data	0000000000000004 trace_level
00000000000048e0 g     F .text	0000000000000094 TEE_BigIntCmp
000000000000f9b8 g     O .rodata	0000000000000008 ta_num_props
000000000000c310 g     F .text	00000000000000d0 bgetr
0000000000003b8c g     F .text	000000000000000c _utee_storage_obj_open
0000000000002870 g     F .text	0000000000000008 __GP11_TEE_MemCompare
000000000000cf28 g     F .text	0000000000000014 mempool_free
0000000000003a84 g     F .text	000000000000000c _utee_hash_update
000000000000464c g     F .text	00000000000000c8 TEE_BigIntConvertToOctetString
00000000000080b4 g     F .text	000000000000005c mbedtls_mpi_bitlen
0000000000004d68 g     F .text	0000000000000080 TEE_BigIntGetBit
000000000000f9e8 g     O .rodata	0000000000000003 trace_ext_prefix
0000000000003bec g     F .text	000000000000000c _utee_storage_next_enum
000000000000c5e0 g     F .text	0000000000000010 raw_malloc
000000000000bfc4 g     F .text	0000000000000088 bgetz
000000000000b518 g     F .text	0000000000000018 mbedtls_ct_size_bool_eq
0000000000002854 g     F .text	000000000000000c TEE_GetInstanceData
00000000000028ac g     F .text	000000000000003c TEE_Wait
0000000000000420 g     F .text	0000000000000008 rpc_aes256ecb_decrypt
0000000000008bd0 g     F .text	00000000000001ac mbedtls_mpi_mul_mpi
0000000000004d60 g     F .text	0000000000000008 __GP11_TEE_BigIntShiftRight
0000000000002c3c g     F .text	0000000000000008 TEE_CacheFlush
00000000000006c0 g     F .text	000000000000021c trace_vprintf
0000000000000114 g     F .text	0000000000000004 TA_DestroyEntryPoint
0000000000007ad4 g     F .text	0000000000000010 mbedtls_mpi_init
0000000000003ba4 g     F .text	000000000000000c _utee_storage_obj_del
0000000000008060 g     F .text	0000000000000054 mbedtls_mpi_lsb
0000000000007050 g     F .text	0000000000000044 _assert_log
0000000000003a60 g     F .text	000000000000000c _utee_cryp_state_copy
0000000000005b50 g     F .text	0000000000000008 TEE_BigIntFMMContextSizeInU32
0000000000003070 g     F .text	00000000000000c8 tee_unmap
000000000000b54c g     F .text	0000000000000030 mbedtls_ct_uint_if
00000000000044c4 g     F .text	0000000000000050 _TEE_MathAPI_Init
0000000000006d04 g     F .text	0000000000000240 __utee_tcb_init
00000000000089d4 g     F .text	0000000000000088 mbedtls_mpi_add_mpi
0000000000003c40 g     F .text	0000000000000020 abort
000000000000a620 g     F .text	00000000000001b8 mbedtls_mpi_random
000000000000053c g     F .text	0000000000000030 __stack_chk_fail
0000000000002e80 g     F .text	000000000000002c __utee_check_out_annotation
0000000000015e50 g     O .bss	0000000000008000 ta_heap
00000000000053f0 g     F .text	0000000000000150 TEE_BigIntInvMod
000000000000350c g     F .text	0000000000000158 __utee_call_elf_init_fn
0000000000000120 g     F .text	0000000000000004 TA_CloseSessionEntryPoint
00000000000039e8 g     F .text	000000000000000c _utee_close_ta_session
0000000000005b18 g     F .text	0000000000000008 __GP11_TEE_BigIntInitFMMContext
0000000000008a5c g     F .text	000000000000008c mbedtls_mpi_sub_mpi
000000000000cf3c g     F .text	0000000000000070 consttime_memcmp
00000000000039a0 g     F .text	000000000000000c _utee_return
00000000000039b8 g     F .text	000000000000000c __utee_panic
000000000000b4b0 g     F .text	0000000000000048 mbedtls_ct_memcmp
0000000000006f44 g     F .text	000000000000001c __tls_get_addr
0000000000000124 g     F .text	000000000000007c TA_InvokeCommandEntryPoint
0000000000003664 g     F .text	0000000000000010 __utee_call_elf_fini_fn
000000000000c7f4 g     F .text	0000000000000010 free_wipe
000000000000ce74 g     F .text	0000000000000064 mempool_alloc
0000000000003994 g     F .text	000000000000000c _utee_panic
000000000000c80c g     F .text	000000000000002c raw_malloc_init_ctx
000000000000ced8 g     F .text	0000000000000050 mempool_calloc
0000000000003c28 g     F .text	000000000000000c _utee_cryp_obj_generate_key
0000000000003c10 g     F .text	000000000000000c _utee_storage_obj_trunc
00000000000124b0 g     O .data	0000000000000060 tee_props
0000000000003a18 g     F .text	000000000000000c _utee_unmask_cancellation
0000000000006a0c g     F .text	000000000000000c TEE_ResetPropertyEnumerator
000000000000c77c g     F .text	000000000000001c calloc
00000000000029c8 g     F .text	0000000000000124 TEE_Malloc
0000000000002084 g     F .text	0000000000000088 TEE_CheckMemoryAccessRights
000000000000683c g     F .text	00000000000000e8 TEE_GetPropertyAsUUID
00000000000039c4 g     F .text	000000000000000c _utee_get_property
0000000000004e5c g     F .text	00000000000000b0 TEE_BigIntSetBit
0000000000007f40 g     F .text	0000000000000068 mbedtls_mpi_lset
0000000000000118 g     F .text	0000000000000008 TA_OpenSessionEntryPoint
0000000000006f60 g     F .text	00000000000000f0 dl_iterate_phdr
000000000001de50 g       .bss	0000000000000000 __ftrace_buf_end
00000000000125d8 g     O .bss	0000000000000004 ta_param_types
0000000000009564 g     F .text	0000000000000074 mbedtls_mpi_div_int
000000000000ac30 g     F .text	00000000000000dc mbedtls_mpi_is_prime_ext
0000000000005a84 g     F .text	0000000000000084 TEE_BigIntIsProbablePrime
0000000000008d7c g     F .text	00000000000000a8 mbedtls_mpi_mul_int
0000000000009a70 g     F .text	00000000000006cc mbedtls_mpi_exp_mod
000000000000b724 g     F .text	00000000000000bc mbedtls_mpi_safe_cond_assign
000000000000611c g     F .text	000000000000025c TEE_GetPropertyAsString
000000000000b8dc g     F .text	00000000000000f8 mbedtls_mpi_lt_mpi_ct
0000000000004514 g     F .text	0000000000000060 TEE_BigIntInit
0000000000004714 g     F .text	0000000000000060 __GP11_TEE_BigIntConvertToOctetString
0000000000004f0c g     F .text	0000000000000050 TEE_BigIntAssign
0000000000002db8 g     F .text	0000000000000064 __utee_check_outstring_annotation
0000000000002860 g     F .text	0000000000000004 TEE_MemMove
000000000000bc50 g     F .text	0000000000000020 mbedtls_platform_zeroize
000000000000457c g     F .text	00000000000000c8 TEE_BigIntConvertFromOctetString
0000000000003b68 g     F .text	000000000000000c _utee_authenc_dec_final
0000000000008574 g     F .text	000000000000009c mbedtls_mpi_cmp_abs
0000000000003bf8 g     F .text	000000000000000c _utee_storage_obj_read
0000000000001964 g     F .text	000000000000002c memchr
0000000000001fc4 g     F .text	0000000000000060 TEE_UnmaskCancellation
000000000000b068 g     F .text	0000000000000428 mbedtls_mpi_self_test
0000000000003c1c g     F .text	000000000000000c _utee_storage_obj_seek
0000000000002d18 g     F .text	0000000000000064 __utee_check_gp11_outbuf_annotation
0000000000003a0c g     F .text	000000000000000c _utee_check_access_rights
00000000000026c8 g     F .text	0000000000000178 __GP11_TEE_InvokeTACommand
00000000000086e4 g     F .text	0000000000000074 mbedtls_mpi_cmp_int
00000000000071dc g     F .text	0000000000000124 _base64_dec
0000000000003bd4 g     F .text	000000000000000c _utee_storage_reset_enum
000000000000b668 g     F .text	00000000000000bc mbedtls_ct_base64_dec_value
0000000000002eac g     F .text	0000000000000030 __utee_check_attr_in_annotation
0000000000003b50 g     F .text	000000000000000c _utee_authenc_update_payload
0000000000005354 g     F .text	000000000000006c TEE_BigIntMod
000000000000968c g     F .text	000000000000009c mbedtls_mpi_mod_int
000000000000812c g     F .text	0000000000000078 mbedtls_mpi_read_binary_le
00000000000051a0 g     F .text	00000000000001b4 TEE_BigIntDiv
0000000000003ae4 g     F .text	000000000000000c _utee_cryp_obj_alloc
000000000001de50 g       .bss	0000000000000000 __ftrace_buf_start
000000000000cd54 g     F .text	0000000000000058 strlcpy
000000000000b5b8 g     F .text	00000000000000b0 mbedtls_ct_base64_enc_char
0000000000007dec g     F .text	00000000000000cc mbedtls_mpi_copy
000000000000c544 g     F .text	0000000000000018 malloc_reset_stats
0000000000006924 g     F .text	00000000000000e8 TEE_GetPropertyAsIdentity
0000000000001918 g     F .text	000000000000004c __vsprintf
00000000000065d0 g     F .text	00000000000000e8 TEE_GetPropertyAsU64
0000000000003a48 g     F .text	000000000000000c _utee_set_ta_time
00000000000039f4 g     F .text	000000000000000c _utee_invoke_ta_command
000000000000c798 g     F .text	0000000000000018 realloc
0000000000007eb8 g     F .text	0000000000000088 mbedtls_mpi_swap
000000000000cdac g     F .text	00000000000000c8 mempool_alloc_pool
0000000000005084 g     F .text	0000000000000114 TEE_BigIntMul
000000000000c804 g     F .text	0000000000000008 raw_malloc_get_ctx_size
00000000000083a4 g     F .text	0000000000000110 mbedtls_mpi_shift_l
0000000000008610 g     F .text	00000000000000d4 mbedtls_mpi_cmp_mpi
0000000000002878 g     F .text	0000000000000004 TEE_MemFill
000000000000cb70 g     F .text	0000000000000014 malloc_add_pool
00000000000006b0 g     F .text	0000000000000010 trace_get_level
0000000000008758 g     F .text	0000000000000120 mbedtls_mpi_add_abs
0000000000005b28 g     F .text	0000000000000010 TEE_BigIntFMMSizeInU32
0000000000006410 g     F .text	00000000000000d8 TEE_GetPropertyAsBool
000000000000c670 g     F .text	00000000000000f4 raw_realloc
0000000000005b08 g     F .text	0000000000000004 TEE_BigIntInitFMM
0000000000003a9c g     F .text	000000000000000c _utee_cipher_init
000000000000370c g     F .text	0000000000000288 __utee_entry
00000000000064e8 g     F .text	00000000000000e8 TEE_GetPropertyAsU32
000000000000cfac g       .text	0000000000000000 __text_end
0000000000005540 g     F .text	0000000000000108 TEE_BigIntRelativePrime
00000000000095d8 g     F .text	00000000000000b4 mbedtls_mpi_mod_mpi
0000000000000428 g     F .text	00000000000000f8 rpc_open
0000000000003ac0 g     F .text	000000000000000c _utee_cryp_obj_get_info
000000000000c3e0 g     F .text	00000000000000d0 bpool
0000000000006a18 g     F .text	0000000000000048 TEE_AllocatePropertyEnumerator
0000000000003a54 g     F .text	000000000000000c _utee_cryp_state_alloc
0000000000001f64 g     F .text	0000000000000060 TEE_GetCancellationFlag
000000000000a13c g     F .text	00000000000001d8 mbedtls_mpi_gcd
000000000000295c g     F .text	0000000000000044 TEE_SetTAPersistentTime
0000000000008228 g     F .text	00000000000000b8 mbedtls_mpi_write_binary_le
000000000000056c g     F .text	000000000000001c memset
000000000000c55c g     F .text	0000000000000084 raw_memalign
00000000000028e8 g     F .text	0000000000000074 TEE_GetTAPersistentTime
00000000000009bc g     F .text	0000000000000198 dhex_dump
0000000000002024 g     F .text	0000000000000060 TEE_MaskCancellation
0000000000003ad8 g     F .text	000000000000000c _utee_cryp_obj_get_attr
0000000000003ab4 g     F .text	000000000000000c _utee_cipher_final
0000000000000694 g     F .text	000000000000001c trace_set_level
000000000000b530 g     F .text	000000000000001c mbedtls_ct_mpi_uint_lt
0000000000003a6c g     F .text	000000000000000c _utee_cryp_state_free
000000000000cd30 g     F .text	0000000000000024 strcmp
00000000000039dc g     F .text	000000000000000c _utee_open_ta_session
0000000000004824 g     F .text	00000000000000bc TEE_BigIntConvertToS32
0000000000004f94 g     F .text	000000000000000c TEE_BigIntSub
0000000000000534 g     F .text	0000000000000008 tahead_get_trace_level
0000000000003be0 g     F .text	000000000000000c _utee_storage_start_enum
0000000000002fc0 g     F .text	00000000000000b0 tee_map_zi
0000000000009a6c g     F .text	0000000000000004 mbedtls_mpi_montred
000000000000c7b0 g     F .text	000000000000001c memalign
000000000000b4f8 g     F .text	0000000000000010 mbedtls_ct_uint_mask
0000000000004574 g     F .text	0000000000000008 __GP11_TEE_BigIntInit
0000000000004774 g     F .text	00000000000000b0 TEE_BigIntConvertFromS32
0000000000008ae8 g     F .text	0000000000000074 mbedtls_mpi_add_int
0000000000003b5c g     F .text	000000000000000c _utee_authenc_enc_final
000000000000cb84 g     F .text	0000000000000014 malloc_buffer_is_within_alloced
0000000000003af0 g     F .text	000000000000000c _utee_cryp_obj_close
0000000000005b14 g     F .text	0000000000000004 TEE_BigIntInitFMMContext
0000000000003a24 g     F .text	000000000000000c _utee_mask_cancellation
00000000000125e0 g     O .bss	0000000000000008 __ta_no_share_malloc_ctx
0000000000003bb0 g     F .text	000000000000000c _utee_storage_obj_rename
0000000000002840 g     F .text	0000000000000008 __GP11_TEE_CheckMemoryAccessRights
0000000000005198 g     F .text	0000000000000008 TEE_BigIntSquare
0000000000003c04 g     F .text	000000000000000c _utee_storage_obj_write
000000000000010c g     F .text	0000000000000008 TA_CreateEntryPoint
0000000000000520 g     F .text	0000000000000014 __ta_entry
000000000001de50 g     O .bss	0000000000000000 __ta_no_share_heap
0000000000003b44 g     F .text	000000000000000c _utee_authenc_update_aad
0000000000009a5c g     F .text	0000000000000008 mbedtls_mpi_montg_init
0000000000000c6c g     F .text	00000000000000cc snprintk
0000000000004de8 g     F .text	0000000000000074 TEE_BigIntGetBitCount
0000000000003b14 g     F .text	000000000000000c _utee_cryp_obj_copy
00000000000053d8 g     F .text	000000000000000c TEE_BigIntMulMod
000000000000a7d8 g     F .text	0000000000000458 mbedtls_mpi_inv_mod
0000000000002edc g     F .text	0000000000000030 __utee_check_gp11_attr_in_annotation
00000000000125e8 g     O .bss	0000000000000040 ta_params
0000000000009030 g     F .text	0000000000000534 mbedtls_mpi_div_mpi
0000000000002e1c g     F .text	0000000000000064 __utee_check_gp11_outstring_annotation
0000000000008110 g     F .text	000000000000001c mbedtls_mpi_size
000000000000bce0 g     F .text	00000000000002e4 bget
0000000000005b58 g     F .text	0000000000000018 __GP11_TEE_BigIntFMMContextSizeInU32
0000000000006a64 g     F .text	0000000000000010 TEE_StartPropertyEnumerator
0000000000003a30 g     F .text	000000000000000c _utee_wait
0000000000007fd4 g     F .text	000000000000008c mbedtls_mpi_set_bit
0000000000000408 g     F .text	0000000000000008 rpc_sha224
0000000000002af4 g     F .text	0000000000000060 TEE_Free
000000000000ad0c g     F .text	0000000000000010 mbedtls_mpi_is_prime
0000000000002c44 g     F .text	0000000000000008 TEE_CacheInvalidate
0000000000007094 g     F .text	0000000000000014 _assert_break
00000000000053c0 g     F .text	000000000000000c TEE_BigIntAddMod
000000000000b57c g     F .text	000000000000003c mbedtls_ct_mpi_uint_cond_assign
0000000000005b0c g     F .text	0000000000000008 __GP11_TEE_BigIntInitFMM
0000000000003a3c g     F .text	000000000000000c _utee_get_time
0000000000006b9c g     F .text	0000000000000088 TEE_GetPropertyName
0000000000002c2c g     F .text	0000000000000008 __GP11_TEE_Realloc
0000000000003b08 g     F .text	000000000000000c _utee_cryp_obj_populate
000000000000286c g     F .text	0000000000000004 TEE_MemCompare
0000000000003aa8 g     F .text	000000000000000c _utee_cipher_update
0000000000000b54 g     F .text	00000000000000c0 __vsnprintf
0000000000012628 g     O .bss	0000000000000010 __elf_phdr_info
00000000000022a8 g     F .text	0000000000000154 TEE_OpenTASession
00000000000019ac g     F .text	0000000000000028 trace_ext_puts
0000000000006378 g     F .text	0000000000000098 __GP11_TEE_GetPropertyAsString
000000000000c9d4 g     F .text	0000000000000150 raw_malloc_buffer_is_within_alloced
00000000000019d4 g     F .text	0000000000000008 trace_ext_get_thread_id
000000000000c954 g     F .text	0000000000000080 raw_malloc_buffer_overlaps_heap
0000000000003b20 g     F .text	000000000000000c _utee_cryp_derive_key
0000000000007b0c g     F .text	000000000000006c mbedtls_mpi_free
0000000000003afc g     F .text	000000000000000c _utee_cryp_obj_reset
0000000000002c34 g     F .text	0000000000000008 TEE_CacheClean
00000000000039d0 g     F .text	000000000000000c _utee_get_property_name_to_index
000000000000c600 g     F .text	0000000000000070 raw_calloc
00000000000070c0 g     F .text	000000000000011c _base64_enc
000000000000b7e0 g     F .text	00000000000000fc mbedtls_mpi_safe_cond_swap
0000000000003b38 g     F .text	000000000000000c _utee_authenc_init
0000000000001990 g     F .text	000000000000001c strlen
000000000000581c g     F .text	0000000000000268 TEE_BigIntComputeExtendedGcd
0000000000003bbc g     F .text	000000000000000c _utee_storage_alloc_enum
0000000000005648 g     F .text	00000000000001d4 TEE_BigIntExpMod
0000000000002884 g     F .text	0000000000000028 TEE_GetSystemTime
0000000000003b80 g     F .text	000000000000000c _utee_asymm_verify
0000000000000000 g     O .ta_head	0000000000000020 ta_head
000000000000c04c g     F .text	00000000000002c4 brel
00000000000066b8 g     F .text	00000000000000ec __GP11_TEE_GetPropertyAsBinaryBlock
0000000000008878 g     F .text	000000000000015c mbedtls_mpi_sub_abs
000000000000a314 g     F .text	0000000000000068 mbedtls_mpi_fill_random
0000000000002848 g     F .text	000000000000000c TEE_SetInstanceData
0000000000003a00 g     F .text	000000000000000c _utee_get_cancellation_flag
0000000000009728 g     F .text	0000000000000270 mbedtls_mpi_write_string
000000000000c7cc g     F .text	0000000000000018 aligned_alloc
0000000000005b20 g     F .text	0000000000000008 TEE_BigIntInitFMMContext1
0000000000001f3c g     F .text	0000000000000028 TEE_CloseTASession
0000000000003b98 g     F .text	000000000000000c _utee_storage_obj_create
0000000000005b38 g     F .text	0000000000000018 __GP11_TEE_BigIntFMMSizeInU32
000000000000c7e4 g     F .text	0000000000000010 free
000000000000c4b0 g     F .text	0000000000000094 bstats
0000000000015e48 g     O .bss	0000000000000008 mbedtls_mpi_mempool
0000000000003a90 g     F .text	000000000000000c _utee_hash_final



Disassembly of section .text:

0000000000000020 <memcpy>:
memcpy():
/home/ssysarch/Desktop/nick/jetpack_5/Jetson_Linux_R35.4.1_aarch64/Linux_for_Tegra/sources/tegra/optee-src/nv-optee/optee/optee_os/lib/libutils/isoc/newlib/memcpy.c:106
      20:	f1007c5f 	cmp	x2, #0x1f
      24:	54000629 	b.ls	e8 <memcpy+0xc8>  // b.plast
/home/ssysarch/Desktop/nick/jetpack_5/Jetson_Linux_R35.4.1_aarch64/Linux_for_Tegra/sources/tegra/optee-src/nv-optee/optee/optee_os/lib/libutils/isoc/newlib/memcpy.c:106 (discriminator 1)
      28:	aa000025 	orr	x5, x1, x0
      2c:	f24008a5 	ands	x5, x5, #0x7
      30:	54000641 	b.ne	f8 <memcpy+0xd8>  // b.any
      34:	d1008048 	sub	x8, x2, #0x20
/home/ssysarch/Desktop/nick/jetpack_5/Jetson_Linux_R35.4.1_aarch64/Linux_for_Tegra/sources/tegra/optee-src/nv-optee/optee/optee_os/lib/libutils/isoc/newlib/memcpy.c:108
      38:	aa0103e4 	mov	x4, x1
      3c:	927be908 	and	x8, x8, #0xffffffffffffffe0
/home/ssysarch/Desktop/nick/jetpack_5/Jetson_Linux_R35.4.1_aarch64/Linux_for_Tegra/sources/tegra/optee-src/nv-optee/optee/optee_os/lib/libutils/isoc/newlib/memcpy.c:107
      40:	aa0003e3 	mov	x3, x0
      44:	91008108 	add	x8, x8, #0x20
      48:	8b080007 	add	x7, x0, x8
      4c:	d503201f 	nop
/home/ssysarch/Desktop/nick/jetpack_5/Jetson_Linux_R35.4.1_aarch64/Linux_for_Tegra/sources/tegra/optee-src/nv-optee/optee/optee_os/lib/libutils/isoc/newlib/memcpy.c:112
      50:	f9400086 	ldr	x6, [x4]
      54:	f9000066 	str	x6, [x3]
/home/ssysarch/Desktop/nick/jetpack_5/Jetson_Linux_R35.4.1_aarch64/Linux_for_Tegra/sources/tegra/optee-src/nv-optee/optee/optee_os/lib/libutils/isoc/newlib/memcpy.c:113
      58:	91008084 	add	x4, x4, #0x20
      5c:	91008063 	add	x3, x3, #0x20
      60:	f85e8086 	ldur	x6, [x4, #-24]
      64:	f81e8066 	stur	x6, [x3, #-24]
/home/ssysarch/Desktop/nick/jetpack_5/Jetson_Linux_R35.4.1_aarch64/Linux_for_Tegra/sources/tegra/optee-src/nv-optee/optee/optee_os/lib/libutils/isoc/newlib/memcpy.c:114
      68:	f85f0086 	ldur	x6, [x4, #-16]
      6c:	f81f0066 	stur	x6, [x3, #-16]
/home/ssysarch/Desktop/nick/jetpack_5/Jetson_Linux_R35.4.1_aarch64/Linux_for_Tegra/sources/tegra/optee-src/nv-optee/optee/optee_os/lib/libutils/isoc/newlib/memcpy.c:111
      70:	eb0300ff 	cmp	x7, x3
/home/ssysarch/Desktop/nick/jetpack_5/Jetson_Linux_R35.4.1_aarch64/Linux_for_Tegra/sources/tegra/optee-src/nv-optee/optee/optee_os/lib/libutils/isoc/newlib/memcpy.c:115
      74:	f85f8086 	ldur	x6, [x4, #-8]
      78:	f81f8066 	stur	x6, [x3, #-8]
/home/ssysarch/Desktop/nick/jetpack_5/Jetson_Linux_R35.4.1_aarch64/Linux_for_Tegra/sources/tegra/optee-src/nv-optee/optee/optee_os/lib/libutils/isoc/newlib/memcpy.c:111
      7c:	54fffea1 	b.ne	50 <memcpy+0x30>  // b.any
      80:	8b080021 	add	x1, x1, x8
/home/ssysarch/Desktop/nick/jetpack_5/Jetson_Linux_R35.4.1_aarch64/Linux_for_Tegra/sources/tegra/optee-src/nv-optee/optee/optee_os/lib/libutils/isoc/newlib/memcpy.c:120
      84:	f27d045f 	tst	x2, #0x18
      88:	92401044 	and	x4, x2, #0x1f
      8c:	540003c0 	b.eq	104 <memcpy+0xe4>  // b.none
/home/ssysarch/Desktop/nick/jetpack_5/Jetson_Linux_R35.4.1_aarch64/Linux_for_Tegra/sources/tegra/optee-src/nv-optee/optee/optee_os/lib/libutils/isoc/newlib/memcpy.c:121
      90:	f8656826 	ldr	x6, [x1, x5]
      94:	f8256866 	str	x6, [x3, x5]
/home/ssysarch/Desktop/nick/jetpack_5/Jetson_Linux_R35.4.1_aarch64/Linux_for_Tegra/sources/tegra/optee-src/nv-optee/optee/optee_os/lib/libutils/isoc/newlib/memcpy.c:120
      98:	910020a5 	add	x5, x5, #0x8
      9c:	cb050086 	sub	x6, x4, x5
      a0:	f1001cdf 	cmp	x6, #0x7
      a4:	54ffff68 	b.hi	90 <memcpy+0x70>  // b.pmore
      a8:	d1002084 	sub	x4, x4, #0x8
      ac:	92400842 	and	x2, x2, #0x7
      b0:	927df084 	and	x4, x4, #0xfffffffffffffff8
/home/ssysarch/Desktop/nick/jetpack_5/Jetson_Linux_R35.4.1_aarch64/Linux_for_Tegra/sources/tegra/optee-src/nv-optee/optee/optee_os/lib/libutils/isoc/newlib/memcpy.c:130
      b4:	d1000446 	sub	x6, x2, #0x1
      b8:	91002084 	add	x4, x4, #0x8
      bc:	8b040063 	add	x3, x3, x4
      c0:	8b040021 	add	x1, x1, x4
      c4:	b4000102 	cbz	x2, e4 <memcpy+0xc4>
/home/ssysarch/Desktop/nick/jetpack_5/Jetson_Linux_R35.4.1_aarch64/Linux_for_Tegra/sources/tegra/optee-src/nv-optee/optee/optee_os/lib/libutils/isoc/newlib/memcpy.c:99
      c8:	d2800002 	mov	x2, #0x0                   	// #0
      cc:	d503201f 	nop
/home/ssysarch/Desktop/nick/jetpack_5/Jetson_Linux_R35.4.1_aarch64/Linux_for_Tegra/sources/tegra/optee-src/nv-optee/optee/optee_os/lib/libutils/isoc/newlib/memcpy.c:131
      d0:	38626825 	ldrb	w5, [x1, x2]
/home/ssysarch/Desktop/nick/jetpack_5/Jetson_Linux_R35.4.1_aarch64/Linux_for_Tegra/sources/tegra/optee-src/nv-optee/optee/optee_os/lib/libutils/isoc/newlib/memcpy.c:130
      d4:	eb0200df 	cmp	x6, x2
/home/ssysarch/Desktop/nick/jetpack_5/Jetson_Linux_R35.4.1_aarch64/Linux_for_Tegra/sources/tegra/optee-src/nv-optee/optee/optee_os/lib/libutils/isoc/newlib/memcpy.c:131
      d8:	38226865 	strb	w5, [x3, x2]
/home/ssysarch/Desktop/nick/jetpack_5/Jetson_Linux_R35.4.1_aarch64/Linux_for_Tegra/sources/tegra/optee-src/nv-optee/optee/optee_os/lib/libutils/isoc/newlib/memcpy.c:130
      dc:	91000442 	add	x2, x2, #0x1
      e0:	54ffff81 	b.ne	d0 <memcpy+0xb0>  // b.any
/home/ssysarch/Desktop/nick/jetpack_5/Jetson_Linux_R35.4.1_aarch64/Linux_for_Tegra/sources/tegra/optee-src/nv-optee/optee/optee_os/lib/libutils/isoc/newlib/memcpy.c:135
      e4:	d65f03c0 	ret
/home/ssysarch/Desktop/nick/jetpack_5/Jetson_Linux_R35.4.1_aarch64/Linux_for_Tegra/sources/tegra/optee-src/nv-optee/optee/optee_os/lib/libutils/isoc/newlib/memcpy.c:99
      e8:	aa0003e3 	mov	x3, x0
/home/ssysarch/Desktop/nick/jetpack_5/Jetson_Linux_R35.4.1_aarch64/Linux_for_Tegra/sources/tegra/optee-src/nv-optee/optee/optee_os/lib/libutils/isoc/newlib/memcpy.c:130
      ec:	d1000446 	sub	x6, x2, #0x1
      f0:	b5fffec2 	cbnz	x2, c8 <memcpy+0xa8>
/home/ssysarch/Desktop/nick/jetpack_5/Jetson_Linux_R35.4.1_aarch64/Linux_for_Tegra/sources/tegra/optee-src/nv-optee/optee/optee_os/lib/libutils/isoc/newlib/memcpy.c:135
      f4:	d65f03c0 	ret
/home/ssysarch/Desktop/nick/jetpack_5/Jetson_Linux_R35.4.1_aarch64/Linux_for_Tegra/sources/tegra/optee-src/nv-optee/optee/optee_os/lib/libutils/isoc/newlib/memcpy.c:130
      f8:	d1000446 	sub	x6, x2, #0x1
/home/ssysarch/Desktop/nick/jetpack_5/Jetson_Linux_R35.4.1_aarch64/Linux_for_Tegra/sources/tegra/optee-src/nv-optee/optee/optee_os/lib/libutils/isoc/newlib/memcpy.c:99
      fc:	aa0003e3 	mov	x3, x0
     100:	17fffff2 	b	c8 <memcpy+0xa8>
/home/ssysarch/Desktop/nick/jetpack_5/Jetson_Linux_R35.4.1_aarch64/Linux_for_Tegra/sources/tegra/optee-src/nv-optee/optee/optee_os/lib/libutils/isoc/newlib/memcpy.c:120
     104:	aa0403e2 	mov	x2, x4
     108:	17fffff9 	b	ec <memcpy+0xcc>

000000000000010c <TA_CreateEntryPoint>:
TA_CreateEntryPoint():
/home/ssysarch/Desktop/nick/jetpack_5/Jetson_Linux_R35.4.1_aarch64/Linux_for_Tegra/sources/tegra/optee-src/nv-optee/optee/optee_test/ta/rpc_test/ta_entry.c:19
     10c:	52800000 	mov	w0, #0x0                   	// #0
     110:	d65f03c0 	ret

0000000000000114 <TA_DestroyEntryPoint>:
TA_DestroyEntryPoint():
/home/ssysarch/Desktop/nick/jetpack_5/Jetson_Linux_R35.4.1_aarch64/Linux_for_Tegra/sources/tegra/optee-src/nv-optee/optee/optee_test/ta/rpc_test/ta_entry.c:24
     114:	d65f03c0 	ret

0000000000000118 <TA_OpenSessionEntryPoint>:
TA_OpenSessionEntryPoint():
/home/ssysarch/Desktop/nick/jetpack_5/Jetson_Linux_R35.4.1_aarch64/Linux_for_Tegra/sources/tegra/optee-src/nv-optee/optee/optee_test/ta/rpc_test/ta_entry.c:34
     118:	52800000 	mov	w0, #0x0                   	// #0
     11c:	d65f03c0 	ret

0000000000000120 <TA_CloseSessionEntryPoint>:
TA_CloseSessionEntryPoint():
/home/ssysarch/Desktop/nick/jetpack_5/Jetson_Linux_R35.4.1_aarch64/Linux_for_Tegra/sources/tegra/optee-src/nv-optee/optee/optee_test/ta/rpc_test/ta_entry.c:40
     120:	d65f03c0 	ret

0000000000000124 <TA_InvokeCommandEntryPoint>:
TA_InvokeCommandEntryPoint():
/home/ssysarch/Desktop/nick/jetpack_5/Jetson_Linux_R35.4.1_aarch64/Linux_for_Tegra/sources/tegra/optee-src/nv-optee/optee/optee_test/ta/rpc_test/ta_entry.c:46
     124:	2a0103e4 	mov	w4, w1
     128:	2a0203e1 	mov	w1, w2
     12c:	aa0303e2 	mov	x2, x3
     130:	51000483 	sub	w3, w4, #0x1
     134:	7100207f 	cmp	w3, #0x8
     138:	54000308 	b.hi	198 <TA_InvokeCommandEntryPoint+0x74>  // b.pmore
     13c:	f0000064 	adrp	x4, f000 <__text_end+0x2054>
     140:	91284084 	add	x4, x4, #0xa10
     144:	38634883 	ldrb	w3, [x4, w3, uxtw]
     148:	10000064 	adr	x4, 154 <TA_InvokeCommandEntryPoint+0x30>
     14c:	8b238883 	add	x3, x4, w3, sxtb #2
     150:	d61f0060 	br	x3
/home/ssysarch/Desktop/nick/jetpack_5/Jetson_Linux_R35.4.1_aarch64/Linux_for_Tegra/sources/tegra/optee-src/nv-optee/optee/optee_test/ta/rpc_test/ta_entry.c:51
     154:	52800000 	mov	w0, #0x0                   	// #0
/home/ssysarch/Desktop/nick/jetpack_5/Jetson_Linux_R35.4.1_aarch64/Linux_for_Tegra/sources/tegra/optee-src/nv-optee/optee/optee_test/ta/rpc_test/ta_entry.c:66
     158:	140000ac 	b	408 <rpc_sha224>
/home/ssysarch/Desktop/nick/jetpack_5/Jetson_Linux_R35.4.1_aarch64/Linux_for_Tegra/sources/tegra/optee-src/nv-optee/optee/optee_test/ta/rpc_test/ta_entry.c:54
     15c:	52800000 	mov	w0, #0x0                   	// #0
/home/ssysarch/Desktop/nick/jetpack_5/Jetson_Linux_R35.4.1_aarch64/Linux_for_Tegra/sources/tegra/optee-src/nv-optee/optee/optee_test/ta/rpc_test/ta_entry.c:69
     160:	140000ac 	b	410 <rpc_sha256>
/home/ssysarch/Desktop/nick/jetpack_5/Jetson_Linux_R35.4.1_aarch64/Linux_for_Tegra/sources/tegra/optee-src/nv-optee/optee/optee_test/ta/rpc_test/ta_entry.c:57
     164:	52800000 	mov	w0, #0x0                   	// #0
/home/ssysarch/Desktop/nick/jetpack_5/Jetson_Linux_R35.4.1_aarch64/Linux_for_Tegra/sources/tegra/optee-src/nv-optee/optee/optee_test/ta/rpc_test/ta_entry.c:72
     168:	140000ac 	b	418 <rpc_aes256ecb_encrypt>
/home/ssysarch/Desktop/nick/jetpack_5/Jetson_Linux_R35.4.1_aarch64/Linux_for_Tegra/sources/tegra/optee-src/nv-optee/optee/optee_test/ta/rpc_test/ta_entry.c:60
     16c:	52800000 	mov	w0, #0x0                   	// #0
/home/ssysarch/Desktop/nick/jetpack_5/Jetson_Linux_R35.4.1_aarch64/Linux_for_Tegra/sources/tegra/optee-src/nv-optee/optee/optee_test/ta/rpc_test/ta_entry.c:75
     170:	140000ac 	b	420 <rpc_aes256ecb_decrypt>
/home/ssysarch/Desktop/nick/jetpack_5/Jetson_Linux_R35.4.1_aarch64/Linux_for_Tegra/sources/tegra/optee-src/nv-optee/optee/optee_test/ta/rpc_test/ta_entry.c:63
     174:	140000ad 	b	428 <rpc_open>
/home/ssysarch/Desktop/nick/jetpack_5/Jetson_Linux_R35.4.1_aarch64/Linux_for_Tegra/sources/tegra/optee-src/nv-optee/optee/optee_test/ta/rpc_test/ta_entry.c:66
     178:	52800020 	mov	w0, #0x1                   	// #1
     17c:	17fffff7 	b	158 <TA_InvokeCommandEntryPoint+0x34>
/home/ssysarch/Desktop/nick/jetpack_5/Jetson_Linux_R35.4.1_aarch64/Linux_for_Tegra/sources/tegra/optee-src/nv-optee/optee/optee_test/ta/rpc_test/ta_entry.c:69
     180:	52800020 	mov	w0, #0x1                   	// #1
     184:	17fffff7 	b	160 <TA_InvokeCommandEntryPoint+0x3c>
/home/ssysarch/Desktop/nick/jetpack_5/Jetson_Linux_R35.4.1_aarch64/Linux_for_Tegra/sources/tegra/optee-src/nv-optee/optee/optee_test/ta/rpc_test/ta_entry.c:72
     188:	52800020 	mov	w0, #0x1                   	// #1
     18c:	17fffff7 	b	168 <TA_InvokeCommandEntryPoint+0x44>
/home/ssysarch/Desktop/nick/jetpack_5/Jetson_Linux_R35.4.1_aarch64/Linux_for_Tegra/sources/tegra/optee-src/nv-optee/optee/optee_test/ta/rpc_test/ta_entry.c:75
     190:	52800020 	mov	w0, #0x1                   	// #1
     194:	17fffff7 	b	170 <TA_InvokeCommandEntryPoint+0x4c>
/home/ssysarch/Desktop/nick/jetpack_5/Jetson_Linux_R35.4.1_aarch64/Linux_for_Tegra/sources/tegra/optee-src/nv-optee/optee/optee_test/ta/rpc_test/ta_entry.c:80
     198:	129fff20 	mov	w0, #0xffff0006            	// #-65530
     19c:	d65f03c0 	ret

00000000000001a0 <rpc_call_cryp>:
rpc_call_cryp():
/home/ssysarch/Desktop/nick/jetpack_5/Jetson_Linux_R35.4.1_aarch64/Linux_for_Tegra/sources/tegra/optee-src/nv-optee/optee/optee_test/ta/rpc_test/ta_rpc.c:18
     1a0:	a9b37bfd 	stp	x29, x30, [sp, #-208]!
     1a4:	910003fd 	mov	x29, sp
     1a8:	a9025bf5 	stp	x21, x22, [sp, #32]
     1ac:	aa0203f5 	mov	x21, x2
     1b0:	d0000082 	adrp	x2, 12000 <_DYNAMIC>
     1b4:	a90153f3 	stp	x19, x20, [sp, #16]
/home/ssysarch/Desktop/nick/jetpack_5/Jetson_Linux_R35.4.1_aarch64/Linux_for_Tegra/sources/tegra/optee-src/nv-optee/optee/optee_test/ta/rpc_test/ta_rpc.c:22
     1b8:	910223f3 	add	x19, sp, #0x88
/home/ssysarch/Desktop/nick/jetpack_5/Jetson_Linux_R35.4.1_aarch64/Linux_for_Tegra/sources/tegra/optee-src/nv-optee/optee/optee_test/ta/rpc_test/ta_rpc.c:18
     1bc:	f9409842 	ldr	x2, [x2, #304]
     1c0:	a9046bf9 	stp	x25, x26, [sp, #64]
     1c4:	12001c19 	and	w25, w0, #0xff
     1c8:	f9400040 	ldr	x0, [x2]
     1cc:	f90067e0 	str	x0, [sp, #200]
     1d0:	d2800000 	mov	x0, #0x0                   	// #0
/home/ssysarch/Desktop/nick/jetpack_5/Jetson_Linux_R35.4.1_aarch64/Linux_for_Tegra/sources/tegra/optee-src/nv-optee/optee/optee_test/ta/rpc_test/ta_rpc.c:22
     1d4:	d2800802 	mov	x2, #0x40                  	// #64
     1d8:	aa1303e0 	mov	x0, x19
/home/ssysarch/Desktop/nick/jetpack_5/Jetson_Linux_R35.4.1_aarch64/Linux_for_Tegra/sources/tegra/optee-src/nv-optee/optee/optee_test/ta/rpc_test/ta_rpc.c:18
     1dc:	a90363f7 	stp	x23, x24, [sp, #48]
     1e0:	2a0103f7 	mov	w23, w1
/home/ssysarch/Desktop/nick/jetpack_5/Jetson_Linux_R35.4.1_aarch64/Linux_for_Tegra/sources/tegra/optee-src/nv-optee/optee/optee_test/ta/rpc_test/ta_rpc.c:22
     1e4:	52800001 	mov	w1, #0x0                   	// #0
/home/ssysarch/Desktop/nick/jetpack_5/Jetson_Linux_R35.4.1_aarch64/Linux_for_Tegra/sources/tegra/optee-src/nv-optee/optee/optee_test/ta/rpc_test/ta_rpc.c:18
     1e8:	a90573fb 	stp	x27, x28, [sp, #80]
/home/ssysarch/Desktop/nick/jetpack_5/Jetson_Linux_R35.4.1_aarch64/Linux_for_Tegra/sources/tegra/optee-src/nv-optee/optee/optee_test/ta/rpc_test/ta_rpc.c:28
     1ec:	9101f3fc 	add	x28, sp, #0x7c
/home/ssysarch/Desktop/nick/jetpack_5/Jetson_Linux_R35.4.1_aarch64/Linux_for_Tegra/sources/tegra/optee-src/nv-optee/optee/optee_test/ta/rpc_test/ta_rpc.c:18
     1f0:	b9006fe3 	str	w3, [sp, #108]
/home/ssysarch/Desktop/nick/jetpack_5/Jetson_Linux_R35.4.1_aarch64/Linux_for_Tegra/sources/tegra/optee-src/nv-optee/optee/optee_test/ta/rpc_test/ta_rpc.c:21
     1f4:	b9007fff 	str	wzr, [sp, #124]
/home/ssysarch/Desktop/nick/jetpack_5/Jetson_Linux_R35.4.1_aarch64/Linux_for_Tegra/sources/tegra/optee-src/nv-optee/optee/optee_test/ta/rpc_test/ta_rpc.c:19
     1f8:	f90043ff 	str	xzr, [sp, #128]
/home/ssysarch/Desktop/nick/jetpack_5/Jetson_Linux_R35.4.1_aarch64/Linux_for_Tegra/sources/tegra/optee-src/nv-optee/optee/optee_test/ta/rpc_test/ta_rpc.c:22
     1fc:	940000dc 	bl	56c <memset>
/home/ssysarch/Desktop/nick/jetpack_5/Jetson_Linux_R35.4.1_aarch64/Linux_for_Tegra/sources/tegra/optee-src/nv-optee/optee/optee_test/ta/rpc_test/ta_rpc.c:28
     200:	aa1c03e5 	mov	x5, x28
     204:	910203e4 	add	x4, sp, #0x80
     208:	aa1303e3 	mov	x3, x19
     20c:	52800002 	mov	w2, #0x0                   	// #0
     210:	12800001 	mov	w1, #0xffffffff            	// #-1
     214:	d0000080 	adrp	x0, 12000 <_DYNAMIC>
     218:	91166000 	add	x0, x0, #0x598
     21c:	94000823 	bl	22a8 <TEE_OpenTASession>
     220:	2a0003f4 	mov	w20, w0
/home/ssysarch/Desktop/nick/jetpack_5/Jetson_Linux_R35.4.1_aarch64/Linux_for_Tegra/sources/tegra/optee-src/nv-optee/optee/optee_test/ta/rpc_test/ta_rpc.c:31
     224:	34000260 	cbz	w0, 270 <rpc_call_cryp+0xd0>
/home/ssysarch/Desktop/nick/jetpack_5/Jetson_Linux_R35.4.1_aarch64/Linux_for_Tegra/sources/tegra/optee-src/nv-optee/optee/optee_test/ta/rpc_test/ta_rpc.c:34
     228:	2a1403f6 	mov	w22, w20
/home/ssysarch/Desktop/nick/jetpack_5/Jetson_Linux_R35.4.1_aarch64/Linux_for_Tegra/sources/tegra/optee-src/nv-optee/optee/optee_test/ta/rpc_test/ta_rpc.c:32
     22c:	2a0003e5 	mov	w5, w0
     230:	f0000064 	adrp	x4, f000 <__text_end+0x2054>
     234:	91392084 	add	x4, x4, #0xe48
     238:	52800023 	mov	w3, #0x1                   	// #1
     23c:	52800022 	mov	w2, #0x1                   	// #1
     240:	52800401 	mov	w1, #0x20                  	// #32
     244:	f0000060 	adrp	x0, f000 <__text_end+0x2054>
     248:	91287000 	add	x0, x0, #0xa1c
     24c:	940001a4 	bl	8dc <trace_printf>
/home/ssysarch/Desktop/nick/jetpack_5/Jetson_Linux_R35.4.1_aarch64/Linux_for_Tegra/sources/tegra/optee-src/nv-optee/optee/optee_test/ta/rpc_test/ta_rpc.c:105
     250:	d0000082 	adrp	x2, 12000 <_DYNAMIC>
     254:	f9409842 	ldr	x2, [x2, #304]
     258:	f94067e0 	ldr	x0, [sp, #200]
     25c:	f9400041 	ldr	x1, [x2]
     260:	eb010000 	subs	x0, x0, x1
     264:	d2800001 	mov	x1, #0x0                   	// #0
     268:	54000c00 	b.eq	3e8 <rpc_call_cryp+0x248>  // b.none
     26c:	940000b4 	bl	53c <__stack_chk_fail>
/home/ssysarch/Desktop/nick/jetpack_5/Jetson_Linux_R35.4.1_aarch64/Linux_for_Tegra/sources/tegra/optee-src/nv-optee/optee/optee_test/ta/rpc_test/ta_rpc.c:39
     270:	d2800802 	mov	x2, #0x40                  	// #64
/home/ssysarch/Desktop/nick/jetpack_5/Jetson_Linux_R35.4.1_aarch64/Linux_for_Tegra/sources/tegra/optee-src/nv-optee/optee/optee_test/ta/rpc_test/ta_rpc.c:38
     274:	340008d9 	cbz	w25, 38c <rpc_call_cryp+0x1ec>
/home/ssysarch/Desktop/nick/jetpack_5/Jetson_Linux_R35.4.1_aarch64/Linux_for_Tegra/sources/tegra/optee-src/nv-optee/optee/optee_test/ta/rpc_test/ta_rpc.c:39
     278:	aa1503f8 	mov	x24, x21
     27c:	aa1303f6 	mov	x22, x19
     280:	5280001b 	mov	w27, #0x0                   	// #0
     284:	aa1303e0 	mov	x0, x19
     288:	52800001 	mov	w1, #0x0                   	// #0
     28c:	9400097b 	bl	2878 <TEE_MemFill>
/home/ssysarch/Desktop/nick/jetpack_5/Jetson_Linux_R35.4.1_aarch64/Linux_for_Tegra/sources/tegra/optee-src/nv-optee/optee/optee_test/ta/rpc_test/ta_rpc.c:41
     290:	1adb26e0 	lsr	w0, w23, w27
     294:	12000c1a 	and	w26, w0, #0xf
     298:	71000f5f 	cmp	w26, #0x3
     29c:	54000720 	b.eq	380 <rpc_call_cryp+0x1e0>  // b.none
     2a0:	721e041f 	tst	w0, #0xc
     2a4:	540004c1 	b.ne	33c <rpc_call_cryp+0x19c>  // b.any
     2a8:	7100075f 	cmp	w26, #0x1
     2ac:	540006a0 	b.eq	380 <rpc_call_cryp+0x1e0>  // b.none
/home/ssysarch/Desktop/nick/jetpack_5/Jetson_Linux_R35.4.1_aarch64/Linux_for_Tegra/sources/tegra/optee-src/nv-optee/optee/optee_test/ta/rpc_test/ta_rpc.c:40 (discriminator 2)
     2b0:	1100137b 	add	w27, w27, #0x4
     2b4:	91004318 	add	x24, x24, #0x10
     2b8:	910042d6 	add	x22, x22, #0x10
     2bc:	7100437f 	cmp	w27, #0x10
     2c0:	54fffe81 	b.ne	290 <rpc_call_cryp+0xf0>  // b.any
/home/ssysarch/Desktop/nick/jetpack_5/Jetson_Linux_R35.4.1_aarch64/Linux_for_Tegra/sources/tegra/optee-src/nv-optee/optee/optee_test/ta/rpc_test/ta_rpc.c:69
     2c4:	b9406fe2 	ldr	w2, [sp, #108]
     2c8:	aa1c03e5 	mov	x5, x28
     2cc:	f94043e0 	ldr	x0, [sp, #128]
     2d0:	aa1303e4 	mov	x4, x19
     2d4:	2a1703e3 	mov	w3, w23
     2d8:	12800001 	mov	w1, #0xffffffff            	// #-1
     2dc:	9400089a 	bl	2544 <TEE_InvokeTACommand>
     2e0:	2a0003f6 	mov	w22, w0
/home/ssysarch/Desktop/nick/jetpack_5/Jetson_Linux_R35.4.1_aarch64/Linux_for_Tegra/sources/tegra/optee-src/nv-optee/optee/optee_test/ta/rpc_test/ta_rpc.c:71
     2e4:	34000140 	cbz	w0, 30c <rpc_call_cryp+0x16c>
/home/ssysarch/Desktop/nick/jetpack_5/Jetson_Linux_R35.4.1_aarch64/Linux_for_Tegra/sources/tegra/optee-src/nv-optee/optee/optee_test/ta/rpc_test/ta_rpc.c:72
     2e8:	2a0003e5 	mov	w5, w0
     2ec:	f0000064 	adrp	x4, f000 <__text_end+0x2054>
     2f0:	9139d884 	add	x4, x4, #0xe76
     2f4:	f0000060 	adrp	x0, f000 <__text_end+0x2054>
     2f8:	91287000 	add	x0, x0, #0xa1c
     2fc:	52800023 	mov	w3, #0x1                   	// #1
     300:	52800022 	mov	w2, #0x1                   	// #1
     304:	52800901 	mov	w1, #0x48                  	// #72
     308:	94000175 	bl	8dc <trace_printf>
/home/ssysarch/Desktop/nick/jetpack_5/Jetson_Linux_R35.4.1_aarch64/Linux_for_Tegra/sources/tegra/optee-src/nv-optee/optee/optee_test/ta/rpc_test/ta_rpc.c:76
     30c:	f94043e0 	ldr	x0, [sp, #128]
     310:	9400070b 	bl	1f3c <TEE_CloseTASession>
/home/ssysarch/Desktop/nick/jetpack_5/Jetson_Linux_R35.4.1_aarch64/Linux_for_Tegra/sources/tegra/optee-src/nv-optee/optee/optee_test/ta/rpc_test/ta_rpc.c:78
     314:	34fff9f9 	cbz	w25, 250 <rpc_call_cryp+0xb0>
/home/ssysarch/Desktop/nick/jetpack_5/Jetson_Linux_R35.4.1_aarch64/Linux_for_Tegra/sources/tegra/optee-src/nv-optee/optee/optee_test/ta/rpc_test/ta_rpc.c:80
     318:	1ad426e0 	lsr	w0, w23, w20
     31c:	12000c01 	and	w1, w0, #0xf
     320:	721e041f 	tst	w0, #0xc
     324:	540003c1 	b.ne	39c <rpc_call_cryp+0x1fc>  // b.any
     328:	721f081f 	tst	w0, #0xe
     32c:	540003e0 	b.eq	3a8 <rpc_call_cryp+0x208>  // b.none
/home/ssysarch/Desktop/nick/jetpack_5/Jetson_Linux_R35.4.1_aarch64/Linux_for_Tegra/sources/tegra/optee-src/nv-optee/optee/optee_test/ta/rpc_test/ta_rpc.c:83
     330:	f9400260 	ldr	x0, [x19]
     334:	f90002a0 	str	x0, [x21]
/home/ssysarch/Desktop/nick/jetpack_5/Jetson_Linux_R35.4.1_aarch64/Linux_for_Tegra/sources/tegra/optee-src/nv-optee/optee/optee_test/ta/rpc_test/ta_rpc.c:84
     338:	1400001c 	b	3a8 <rpc_call_cryp+0x208>
/home/ssysarch/Desktop/nick/jetpack_5/Jetson_Linux_R35.4.1_aarch64/Linux_for_Tegra/sources/tegra/optee-src/nv-optee/optee/optee_test/ta/rpc_test/ta_rpc.c:41
     33c:	51001740 	sub	w0, w26, #0x5
     340:	7100081f 	cmp	w0, #0x2
     344:	54fffb68 	b.hi	2b0 <rpc_call_cryp+0x110>  // b.pmore
/home/ssysarch/Desktop/nick/jetpack_5/Jetson_Linux_R35.4.1_aarch64/Linux_for_Tegra/sources/tegra/optee-src/nv-optee/optee/optee_test/ta/rpc_test/ta_rpc.c:51
     348:	f9400700 	ldr	x0, [x24, #8]
     34c:	52800001 	mov	w1, #0x0                   	// #0
     350:	9400099e 	bl	29c8 <TEE_Malloc>
/home/ssysarch/Desktop/nick/jetpack_5/Jetson_Linux_R35.4.1_aarch64/Linux_for_Tegra/sources/tegra/optee-src/nv-optee/optee/optee_test/ta/rpc_test/ta_rpc.c:50
     354:	f90002c0 	str	x0, [x22]
/home/ssysarch/Desktop/nick/jetpack_5/Jetson_Linux_R35.4.1_aarch64/Linux_for_Tegra/sources/tegra/optee-src/nv-optee/optee/optee_test/ta/rpc_test/ta_rpc.c:52
     358:	b5000040 	cbnz	x0, 360 <rpc_call_cryp+0x1c0>
/home/ssysarch/Desktop/nick/jetpack_5/Jetson_Linux_R35.4.1_aarch64/Linux_for_Tegra/sources/tegra/optee-src/nv-optee/optee/optee_test/ta/rpc_test/ta_rpc.c:53
     35c:	94000a43 	bl	2c68 <TEE_Panic>
/home/ssysarch/Desktop/nick/jetpack_5/Jetson_Linux_R35.4.1_aarch64/Linux_for_Tegra/sources/tegra/optee-src/nv-optee/optee/optee_test/ta/rpc_test/ta_rpc.c:54
     360:	f9400702 	ldr	x2, [x24, #8]
     364:	f90006c2 	str	x2, [x22, #8]
/home/ssysarch/Desktop/nick/jetpack_5/Jetson_Linux_R35.4.1_aarch64/Linux_for_Tegra/sources/tegra/optee-src/nv-optee/optee/optee_test/ta/rpc_test/ta_rpc.c:55
     368:	71001b5f 	cmp	w26, #0x6
     36c:	54fffa20 	b.eq	2b0 <rpc_call_cryp+0x110>  // b.none
/home/ssysarch/Desktop/nick/jetpack_5/Jetson_Linux_R35.4.1_aarch64/Linux_for_Tegra/sources/tegra/optee-src/nv-optee/optee/optee_test/ta/rpc_test/ta_rpc.c:57
     370:	f94002c0 	ldr	x0, [x22]
     374:	f9400301 	ldr	x1, [x24]
     378:	9400093a 	bl	2860 <TEE_MemMove>
     37c:	17ffffcd 	b	2b0 <rpc_call_cryp+0x110>
/home/ssysarch/Desktop/nick/jetpack_5/Jetson_Linux_R35.4.1_aarch64/Linux_for_Tegra/sources/tegra/optee-src/nv-optee/optee/optee_test/ta/rpc_test/ta_rpc.c:44
     380:	f9400300 	ldr	x0, [x24]
     384:	f90002c0 	str	x0, [x22]
/home/ssysarch/Desktop/nick/jetpack_5/Jetson_Linux_R35.4.1_aarch64/Linux_for_Tegra/sources/tegra/optee-src/nv-optee/optee/optee_test/ta/rpc_test/ta_rpc.c:45
     388:	17ffffca 	b	2b0 <rpc_call_cryp+0x110>
/home/ssysarch/Desktop/nick/jetpack_5/Jetson_Linux_R35.4.1_aarch64/Linux_for_Tegra/sources/tegra/optee-src/nv-optee/optee/optee_test/ta/rpc_test/ta_rpc.c:66
     38c:	aa1503e1 	mov	x1, x21
     390:	aa1303e0 	mov	x0, x19
     394:	94000933 	bl	2860 <TEE_MemMove>
     398:	17ffffcb 	b	2c4 <rpc_call_cryp+0x124>
/home/ssysarch/Desktop/nick/jetpack_5/Jetson_Linux_R35.4.1_aarch64/Linux_for_Tegra/sources/tegra/optee-src/nv-optee/optee/optee_test/ta/rpc_test/ta_rpc.c:80
     39c:	51001420 	sub	w0, w1, #0x5
     3a0:	7100081f 	cmp	w0, #0x2
     3a4:	540000e9 	b.ls	3c0 <rpc_call_cryp+0x220>  // b.plast
/home/ssysarch/Desktop/nick/jetpack_5/Jetson_Linux_R35.4.1_aarch64/Linux_for_Tegra/sources/tegra/optee-src/nv-optee/optee/optee_test/ta/rpc_test/ta_rpc.c:79 (discriminator 2)
     3a8:	11001294 	add	w20, w20, #0x4
     3ac:	91004273 	add	x19, x19, #0x10
     3b0:	910042b5 	add	x21, x21, #0x10
     3b4:	7100429f 	cmp	w20, #0x10
     3b8:	54fffb01 	b.ne	318 <rpc_call_cryp+0x178>  // b.any
     3bc:	17ffffa5 	b	250 <rpc_call_cryp+0xb0>
/home/ssysarch/Desktop/nick/jetpack_5/Jetson_Linux_R35.4.1_aarch64/Linux_for_Tegra/sources/tegra/optee-src/nv-optee/optee/optee_test/ta/rpc_test/ta_rpc.c:89
     3c0:	7100143f 	cmp	w1, #0x5
     3c4:	54000080 	b.eq	3d4 <rpc_call_cryp+0x234>  // b.none
/home/ssysarch/Desktop/nick/jetpack_5/Jetson_Linux_R35.4.1_aarch64/Linux_for_Tegra/sources/tegra/optee-src/nv-optee/optee/optee_test/ta/rpc_test/ta_rpc.c:91
     3c8:	a9400a61 	ldp	x1, x2, [x19]
     3cc:	f94002a0 	ldr	x0, [x21]
     3d0:	94000924 	bl	2860 <TEE_MemMove>
/home/ssysarch/Desktop/nick/jetpack_5/Jetson_Linux_R35.4.1_aarch64/Linux_for_Tegra/sources/tegra/optee-src/nv-optee/optee/optee_test/ta/rpc_test/ta_rpc.c:94
     3d4:	f9400660 	ldr	x0, [x19, #8]
     3d8:	f90006a0 	str	x0, [x21, #8]
/home/ssysarch/Desktop/nick/jetpack_5/Jetson_Linux_R35.4.1_aarch64/Linux_for_Tegra/sources/tegra/optee-src/nv-optee/optee/optee_test/ta/rpc_test/ta_rpc.c:95
     3dc:	f9400260 	ldr	x0, [x19]
     3e0:	940009c5 	bl	2af4 <TEE_Free>
/home/ssysarch/Desktop/nick/jetpack_5/Jetson_Linux_R35.4.1_aarch64/Linux_for_Tegra/sources/tegra/optee-src/nv-optee/optee/optee_test/ta/rpc_test/ta_rpc.c:96
     3e4:	17fffff1 	b	3a8 <rpc_call_cryp+0x208>
/home/ssysarch/Desktop/nick/jetpack_5/Jetson_Linux_R35.4.1_aarch64/Linux_for_Tegra/sources/tegra/optee-src/nv-optee/optee/optee_test/ta/rpc_test/ta_rpc.c:105
     3e8:	2a1603e0 	mov	w0, w22
     3ec:	a94153f3 	ldp	x19, x20, [sp, #16]
     3f0:	a9425bf5 	ldp	x21, x22, [sp, #32]
     3f4:	a94363f7 	ldp	x23, x24, [sp, #48]
     3f8:	a9446bf9 	ldp	x25, x26, [sp, #64]
     3fc:	a94573fb 	ldp	x27, x28, [sp, #80]
     400:	a8cd7bfd 	ldp	x29, x30, [sp], #208
     404:	d65f03c0 	ret

0000000000000408 <rpc_sha224>:
rpc_sha224():
/home/ssysarch/Desktop/nick/jetpack_5/Jetson_Linux_R35.4.1_aarch64/Linux_for_Tegra/sources/tegra/optee-src/nv-optee/optee/optee_test/ta/rpc_test/ta_rpc.c:109
     408:	52800023 	mov	w3, #0x1                   	// #1
     40c:	17ffff65 	b	1a0 <rpc_call_cryp>

0000000000000410 <rpc_sha256>:
rpc_sha256():
/home/ssysarch/Desktop/nick/jetpack_5/Jetson_Linux_R35.4.1_aarch64/Linux_for_Tegra/sources/tegra/optee-src/nv-optee/optee/optee_test/ta/rpc_test/ta_rpc.c:115
     410:	52800043 	mov	w3, #0x2                   	// #2
     414:	17ffff63 	b	1a0 <rpc_call_cryp>

0000000000000418 <rpc_aes256ecb_encrypt>:
rpc_aes256ecb_encrypt():
/home/ssysarch/Desktop/nick/jetpack_5/Jetson_Linux_R35.4.1_aarch64/Linux_for_Tegra/sources/tegra/optee-src/nv-optee/optee/optee_test/ta/rpc_test/ta_rpc.c:122
     418:	52800063 	mov	w3, #0x3                   	// #3
     41c:	17ffff61 	b	1a0 <rpc_call_cryp>

0000000000000420 <rpc_aes256ecb_decrypt>:
rpc_aes256ecb_decrypt():
/home/ssysarch/Desktop/nick/jetpack_5/Jetson_Linux_R35.4.1_aarch64/Linux_for_Tegra/sources/tegra/optee-src/nv-optee/optee/optee_test/ta/rpc_test/ta_rpc.c:129
     420:	52800083 	mov	w3, #0x4                   	// #4
     424:	17ffff5f 	b	1a0 <rpc_call_cryp>

0000000000000428 <rpc_open>:
rpc_open():
/home/ssysarch/Desktop/nick/jetpack_5/Jetson_Linux_R35.4.1_aarch64/Linux_for_Tegra/sources/tegra/optee-src/nv-optee/optee/optee_test/ta/rpc_test/ta_rpc.c:135
     428:	a9b67bfd 	stp	x29, x30, [sp, #-160]!
     42c:	d0000080 	adrp	x0, 12000 <_DYNAMIC>
     430:	910003fd 	mov	x29, sp
     434:	f9409800 	ldr	x0, [x0, #304]
     438:	a90153f3 	stp	x19, x20, [sp, #16]
/home/ssysarch/Desktop/nick/jetpack_5/Jetson_Linux_R35.4.1_aarch64/Linux_for_Tegra/sources/tegra/optee-src/nv-optee/optee/optee_test/ta/rpc_test/ta_rpc.c:139
     43c:	910123f3 	add	x19, sp, #0x48
/home/ssysarch/Desktop/nick/jetpack_5/Jetson_Linux_R35.4.1_aarch64/Linux_for_Tegra/sources/tegra/optee-src/nv-optee/optee/optee_test/ta/rpc_test/ta_rpc.c:135
     440:	f9400001 	ldr	x1, [x0]
     444:	f9004fe1 	str	x1, [sp, #152]
     448:	d2800001 	mov	x1, #0x0                   	// #0
     44c:	aa0203f4 	mov	x20, x2
/home/ssysarch/Desktop/nick/jetpack_5/Jetson_Linux_R35.4.1_aarch64/Linux_for_Tegra/sources/tegra/optee-src/nv-optee/optee/optee_test/ta/rpc_test/ta_rpc.c:139
     450:	f0000061 	adrp	x1, f000 <__text_end+0x2054>
     454:	91287021 	add	x1, x1, #0xa1c
     458:	d2800202 	mov	x2, #0x10                  	// #16
     45c:	aa1303e0 	mov	x0, x19
     460:	8b020021 	add	x1, x1, x2
/home/ssysarch/Desktop/nick/jetpack_5/Jetson_Linux_R35.4.1_aarch64/Linux_for_Tegra/sources/tegra/optee-src/nv-optee/optee/optee_test/ta/rpc_test/ta_rpc.c:135
     464:	a9025bf5 	stp	x21, x22, [sp, #32]
/home/ssysarch/Desktop/nick/jetpack_5/Jetson_Linux_R35.4.1_aarch64/Linux_for_Tegra/sources/tegra/optee-src/nv-optee/optee/optee_test/ta/rpc_test/ta_rpc.c:143
     468:	910163f5 	add	x21, sp, #0x58
/home/ssysarch/Desktop/nick/jetpack_5/Jetson_Linux_R35.4.1_aarch64/Linux_for_Tegra/sources/tegra/optee-src/nv-optee/optee/optee_test/ta/rpc_test/ta_rpc.c:137
     46c:	b9003fff 	str	wzr, [sp, #60]
/home/ssysarch/Desktop/nick/jetpack_5/Jetson_Linux_R35.4.1_aarch64/Linux_for_Tegra/sources/tegra/optee-src/nv-optee/optee/optee_test/ta/rpc_test/ta_rpc.c:148
     470:	9100f3f6 	add	x22, sp, #0x3c
/home/ssysarch/Desktop/nick/jetpack_5/Jetson_Linux_R35.4.1_aarch64/Linux_for_Tegra/sources/tegra/optee-src/nv-optee/optee/optee_test/ta/rpc_test/ta_rpc.c:136
     474:	f90023ff 	str	xzr, [sp, #64]
/home/ssysarch/Desktop/nick/jetpack_5/Jetson_Linux_R35.4.1_aarch64/Linux_for_Tegra/sources/tegra/optee-src/nv-optee/optee/optee_test/ta/rpc_test/ta_rpc.c:139
     478:	97fffeea 	bl	20 <memcpy>
/home/ssysarch/Desktop/nick/jetpack_5/Jetson_Linux_R35.4.1_aarch64/Linux_for_Tegra/sources/tegra/optee-src/nv-optee/optee/optee_test/ta/rpc_test/ta_rpc.c:143
     47c:	d2800802 	mov	x2, #0x40                  	// #64
     480:	52800001 	mov	w1, #0x0                   	// #0
     484:	aa1503e0 	mov	x0, x21
     488:	94000039 	bl	56c <memset>
/home/ssysarch/Desktop/nick/jetpack_5/Jetson_Linux_R35.4.1_aarch64/Linux_for_Tegra/sources/tegra/optee-src/nv-optee/optee/optee_test/ta/rpc_test/ta_rpc.c:148
     48c:	aa1603e5 	mov	x5, x22
     490:	910103e4 	add	x4, sp, #0x40
     494:	aa1303e0 	mov	x0, x19
     498:	d2800003 	mov	x3, #0x0                   	// #0
     49c:	52800002 	mov	w2, #0x0                   	// #0
     4a0:	12800001 	mov	w1, #0xffffffff            	// #-1
     4a4:	94000781 	bl	22a8 <TEE_OpenTASession>
/home/ssysarch/Desktop/nick/jetpack_5/Jetson_Linux_R35.4.1_aarch64/Linux_for_Tegra/sources/tegra/optee-src/nv-optee/optee/optee_test/ta/rpc_test/ta_rpc.c:151
     4a8:	350002e0 	cbnz	w0, 504 <rpc_open+0xdc>
/home/ssysarch/Desktop/nick/jetpack_5/Jetson_Linux_R35.4.1_aarch64/Linux_for_Tegra/sources/tegra/optee-src/nv-optee/optee/optee_test/ta/rpc_test/ta_rpc.c:154
     4ac:	aa1403e0 	mov	x0, x20
     4b0:	d2800802 	mov	x2, #0x40                  	// #64
     4b4:	52800001 	mov	w1, #0x0                   	// #0
     4b8:	940008f0 	bl	2878 <TEE_MemFill>
/home/ssysarch/Desktop/nick/jetpack_5/Jetson_Linux_R35.4.1_aarch64/Linux_for_Tegra/sources/tegra/optee-src/nv-optee/optee/optee_test/ta/rpc_test/ta_rpc.c:156
     4bc:	f94023e0 	ldr	x0, [sp, #64]
     4c0:	aa1603e5 	mov	x5, x22
     4c4:	aa1503e4 	mov	x4, x21
     4c8:	52800043 	mov	w3, #0x2                   	// #2
     4cc:	52800062 	mov	w2, #0x3                   	// #3
     4d0:	12800001 	mov	w1, #0xffffffff            	// #-1
     4d4:	9400081c 	bl	2544 <TEE_InvokeTACommand>
     4d8:	2a0003f3 	mov	w19, w0
/home/ssysarch/Desktop/nick/jetpack_5/Jetson_Linux_R35.4.1_aarch64/Linux_for_Tegra/sources/tegra/optee-src/nv-optee/optee/optee_test/ta/rpc_test/ta_rpc.c:163
     4dc:	f94023e0 	ldr	x0, [sp, #64]
     4e0:	94000697 	bl	1f3c <TEE_CloseTASession>
/home/ssysarch/Desktop/nick/jetpack_5/Jetson_Linux_R35.4.1_aarch64/Linux_for_Tegra/sources/tegra/optee-src/nv-optee/optee/optee_test/ta/rpc_test/ta_rpc.c:166
     4e4:	d0000080 	adrp	x0, 12000 <_DYNAMIC>
     4e8:	f9409800 	ldr	x0, [x0, #304]
     4ec:	f9404fe1 	ldr	x1, [sp, #152]
     4f0:	f9400002 	ldr	x2, [x0]
     4f4:	eb020021 	subs	x1, x1, x2
     4f8:	d2800002 	mov	x2, #0x0                   	// #0
     4fc:	54000080 	b.eq	50c <rpc_open+0xe4>  // b.none
     500:	9400000f 	bl	53c <__stack_chk_fail>
     504:	2a0003f3 	mov	w19, w0
     508:	17fffff7 	b	4e4 <rpc_open+0xbc>
     50c:	2a1303e0 	mov	w0, w19
     510:	a94153f3 	ldp	x19, x20, [sp, #16]
     514:	a9425bf5 	ldp	x21, x22, [sp, #32]
     518:	a8ca7bfd 	ldp	x29, x30, [sp], #160
     51c:	d65f03c0 	ret

0000000000000520 <__ta_entry>:
__ta_entry():
/home/ssysarch/Desktop/nick/jetpack_5/Jetson_Linux_R35.4.1_aarch64/Linux_for_Tegra/sources/tegra/optee-src/nv-optee/optee/build/t234/export-ta_arm64/src/user_ta_header.c:51
     520:	a9bf7bfd 	stp	x29, x30, [sp, #-16]!
     524:	910003fd 	mov	x29, sp
/home/ssysarch/Desktop/nick/jetpack_5/Jetson_Linux_R35.4.1_aarch64/Linux_for_Tegra/sources/tegra/optee-src/nv-optee/optee/build/t234/export-ta_arm64/src/user_ta_header.c:70
     528:	94000c79 	bl	370c <__utee_entry>
/home/ssysarch/Desktop/nick/jetpack_5/Jetson_Linux_R35.4.1_aarch64/Linux_for_Tegra/sources/tegra/optee-src/nv-optee/optee/build/t234/export-ta_arm64/src/user_ta_header.c:81
     52c:	2a0003e0 	mov	w0, w0
     530:	94000d1c 	bl	39a0 <_utee_return>

0000000000000534 <tahead_get_trace_level>:
tahead_get_trace_level():
/home/ssysarch/Desktop/nick/jetpack_5/Jetson_Linux_R35.4.1_aarch64/Linux_for_Tegra/sources/tegra/optee-src/nv-optee/optee/build/t234/export-ta_arm64/src/user_ta_header.c:193
     534:	52800080 	mov	w0, #0x4                   	// #4
     538:	d65f03c0 	ret

000000000000053c <__stack_chk_fail>:
__stack_chk_fail():
/home/ssysarch/Desktop/nick/jetpack_5/Jetson_Linux_R35.4.1_aarch64/Linux_for_Tegra/sources/tegra/optee-src/nv-optee/optee/optee_os/lib/libutils/isoc/stack_check.c:24
     53c:	a9bf7bfd 	stp	x29, x30, [sp, #-16]!
/home/ssysarch/Desktop/nick/jetpack_5/Jetson_Linux_R35.4.1_aarch64/Linux_for_Tegra/sources/tegra/optee-src/nv-optee/optee/optee_os/lib/libutils/isoc/stack_check.c:25
     540:	f0000064 	adrp	x4, f000 <__text_end+0x2054>
     544:	913e3884 	add	x4, x4, #0xf8e
/home/ssysarch/Desktop/nick/jetpack_5/Jetson_Linux_R35.4.1_aarch64/Linux_for_Tegra/sources/tegra/optee-src/nv-optee/optee/optee_os/lib/libutils/isoc/stack_check.c:24
     548:	910003fd 	mov	x29, sp
/home/ssysarch/Desktop/nick/jetpack_5/Jetson_Linux_R35.4.1_aarch64/Linux_for_Tegra/sources/tegra/optee-src/nv-optee/optee/optee_os/lib/libutils/isoc/stack_check.c:25
     54c:	52800023 	mov	w3, #0x1                   	// #1
     550:	52800022 	mov	w2, #0x1                   	// #1
     554:	52800001 	mov	w1, #0x0                   	// #0
     558:	d2800000 	mov	x0, #0x0                   	// #0
     55c:	940000e0 	bl	8dc <trace_printf>
/home/ssysarch/Desktop/nick/jetpack_5/Jetson_Linux_R35.4.1_aarch64/Linux_for_Tegra/sources/tegra/optee-src/nv-optee/optee/optee_os/lib/libutils/isoc/stack_check.c:27 (discriminator 1)
     560:	1299fe00 	mov	w0, #0xffff300f            	// #-53233
     564:	94000d0c 	bl	3994 <_utee_panic>
/home/ssysarch/Desktop/nick/jetpack_5/Jetson_Linux_R35.4.1_aarch64/Linux_for_Tegra/sources/tegra/optee-src/nv-optee/optee/optee_os/lib/libutils/isoc/stack_check.c:26 (discriminator 1)
     568:	17fffffe 	b	560 <__stack_chk_fail+0x24>

000000000000056c <memset>:
memset():
/home/ssysarch/Desktop/nick/jetpack_5/Jetson_Linux_R35.4.1_aarch64/Linux_for_Tegra/sources/tegra/optee-src/nv-optee/optee/optee_os/lib/libutils/isoc/newlib/memset.c:125
     56c:	d2800003 	mov	x3, #0x0                   	// #0
     570:	eb03005f 	cmp	x2, x3
     574:	54000041 	b.ne	57c <memset+0x10>  // b.any
/home/ssysarch/Desktop/nick/jetpack_5/Jetson_Linux_R35.4.1_aarch64/Linux_for_Tegra/sources/tegra/optee-src/nv-optee/optee/optee_os/lib/libutils/isoc/newlib/memset.c:129
     578:	d65f03c0 	ret
/home/ssysarch/Desktop/nick/jetpack_5/Jetson_Linux_R35.4.1_aarch64/Linux_for_Tegra/sources/tegra/optee-src/nv-optee/optee/optee_os/lib/libutils/isoc/newlib/memset.c:126
     57c:	38236801 	strb	w1, [x0, x3]
     580:	91000463 	add	x3, x3, #0x1
     584:	17fffffb 	b	570 <memset+0x4>

0000000000000588 <append>:
append():
/home/ssysarch/Desktop/nick/jetpack_5/Jetson_Linux_R35.4.1_aarch64/Linux_for_Tegra/sources/tegra/optee-src/nv-optee/optee/optee_os/lib/libutils/ext/trace.c:211
     588:	a9ad7bfd 	stp	x29, x30, [sp, #-304]!
     58c:	910003fd 	mov	x29, sp
     590:	a9100fe2 	stp	x2, x3, [sp, #256]
     594:	d0000082 	adrp	x2, 12000 <_DYNAMIC>
     598:	f9409842 	ldr	x2, [x2, #304]
     59c:	a90153f3 	stp	x19, x20, [sp, #16]
     5a0:	aa0003f3 	mov	x19, x0
     5a4:	3d8023e0 	str	q0, [sp, #128]
     5a8:	3d8027e1 	str	q1, [sp, #144]
     5ac:	3d802be2 	str	q2, [sp, #160]
     5b0:	3d802fe3 	str	q3, [sp, #176]
     5b4:	3d8033e4 	str	q4, [sp, #192]
     5b8:	3d8037e5 	str	q5, [sp, #208]
     5bc:	3d803be6 	str	q6, [sp, #224]
     5c0:	3d803fe7 	str	q7, [sp, #240]
     5c4:	a91117e4 	stp	x4, x5, [sp, #272]
     5c8:	a9121fe6 	stp	x6, x7, [sp, #288]
     5cc:	f9400040 	ldr	x0, [x2]
     5d0:	f9003fe0 	str	x0, [sp, #120]
     5d4:	d2800000 	mov	x0, #0x0                   	// #0
     5d8:	f90013f5 	str	x21, [sp, #32]
/home/ssysarch/Desktop/nick/jetpack_5/Jetson_Linux_R35.4.1_aarch64/Linux_for_Tegra/sources/tegra/optee-src/nv-optee/optee/optee_os/lib/libutils/ext/trace.c:216
     5dc:	f9408260 	ldr	x0, [x19, #256]
/home/ssysarch/Desktop/nick/jetpack_5/Jetson_Linux_R35.4.1_aarch64/Linux_for_Tegra/sources/tegra/optee-src/nv-optee/optee/optee_os/lib/libutils/ext/trace.c:211
     5e0:	aa0103f5 	mov	x21, x1
/home/ssysarch/Desktop/nick/jetpack_5/Jetson_Linux_R35.4.1_aarch64/Linux_for_Tegra/sources/tegra/optee-src/nv-optee/optee/optee_os/lib/libutils/ext/trace.c:216
     5e4:	b5000040 	cbnz	x0, 5ec <append+0x64>
/home/ssysarch/Desktop/nick/jetpack_5/Jetson_Linux_R35.4.1_aarch64/Linux_for_Tegra/sources/tegra/optee-src/nv-optee/optee/optee_os/lib/libutils/ext/trace.c:217
     5e8:	f9008273 	str	x19, [x19, #256]
/home/ssysarch/Desktop/nick/jetpack_5/Jetson_Linux_R35.4.1_aarch64/Linux_for_Tegra/sources/tegra/optee-src/nv-optee/optee/optee_os/lib/libutils/ext/trace.c:219
     5ec:	9104c3e0 	add	x0, sp, #0x130
/home/ssysarch/Desktop/nick/jetpack_5/Jetson_Linux_R35.4.1_aarch64/Linux_for_Tegra/sources/tegra/optee-src/nv-optee/optee/optee_os/lib/libutils/ext/trace.c:220
     5f0:	9100c3e3 	add	x3, sp, #0x30
/home/ssysarch/Desktop/nick/jetpack_5/Jetson_Linux_R35.4.1_aarch64/Linux_for_Tegra/sources/tegra/optee-src/nv-optee/optee/optee_os/lib/libutils/ext/trace.c:219
     5f4:	a90583e0 	stp	x0, x0, [sp, #88]
     5f8:	910403e0 	add	x0, sp, #0x100
/home/ssysarch/Desktop/nick/jetpack_5/Jetson_Linux_R35.4.1_aarch64/Linux_for_Tegra/sources/tegra/optee-src/nv-optee/optee/optee_os/lib/libutils/ext/trace.c:220
     5fc:	910163e1 	add	x1, sp, #0x58
/home/ssysarch/Desktop/nick/jetpack_5/Jetson_Linux_R35.4.1_aarch64/Linux_for_Tegra/sources/tegra/optee-src/nv-optee/optee/optee_os/lib/libutils/ext/trace.c:219
     600:	f90037e0 	str	x0, [sp, #104]
     604:	128005e0 	mov	w0, #0xffffffd0            	// #-48
     608:	b90073e0 	str	w0, [sp, #112]
     60c:	12800fe0 	mov	w0, #0xffffff80            	// #-128
/home/ssysarch/Desktop/nick/jetpack_5/Jetson_Linux_R35.4.1_aarch64/Linux_for_Tegra/sources/tegra/optee-src/nv-optee/optee/optee_os/lib/libutils/ext/trace.c:218
     610:	f9408274 	ldr	x20, [x19, #256]
/home/ssysarch/Desktop/nick/jetpack_5/Jetson_Linux_R35.4.1_aarch64/Linux_for_Tegra/sources/tegra/optee-src/nv-optee/optee/optee_os/lib/libutils/ext/trace.c:220
     614:	d2800402 	mov	x2, #0x20                  	// #32
/home/ssysarch/Desktop/nick/jetpack_5/Jetson_Linux_R35.4.1_aarch64/Linux_for_Tegra/sources/tegra/optee-src/nv-optee/optee/optee_os/lib/libutils/ext/trace.c:219
     618:	b90077e0 	str	w0, [sp, #116]
/home/ssysarch/Desktop/nick/jetpack_5/Jetson_Linux_R35.4.1_aarch64/Linux_for_Tegra/sources/tegra/optee-src/nv-optee/optee/optee_os/lib/libutils/ext/trace.c:220
     61c:	aa0303e0 	mov	x0, x3
     620:	97fffe80 	bl	20 <memcpy>
     624:	aa0003e3 	mov	x3, x0
     628:	f9408260 	ldr	x0, [x19, #256]
/home/ssysarch/Desktop/nick/jetpack_5/Jetson_Linux_R35.4.1_aarch64/Linux_for_Tegra/sources/tegra/optee-src/nv-optee/optee/optee_os/lib/libutils/ext/trace.c:218
     62c:	4b140274 	sub	w20, w19, w20
     630:	11040294 	add	w20, w20, #0x100
/home/ssysarch/Desktop/nick/jetpack_5/Jetson_Linux_R35.4.1_aarch64/Linux_for_Tegra/sources/tegra/optee-src/nv-optee/optee/optee_os/lib/libutils/ext/trace.c:220
     634:	aa1503e2 	mov	x2, x21
     638:	93407e81 	sxtw	x1, w20
     63c:	94000176 	bl	c14 <vsnprintk>
/home/ssysarch/Desktop/nick/jetpack_5/Jetson_Linux_R35.4.1_aarch64/Linux_for_Tegra/sources/tegra/optee-src/nv-optee/optee/optee_os/lib/libutils/ext/trace.c:222
     640:	37f801e0 	tbnz	w0, #31, 67c <append+0xf4>
/home/ssysarch/Desktop/nick/jetpack_5/Jetson_Linux_R35.4.1_aarch64/Linux_for_Tegra/sources/tegra/optee-src/nv-optee/optee/optee_os/lib/libutils/ext/trace.c:226
     644:	6b00029f 	cmp	w20, w0
     648:	540001ad 	b.le	67c <append+0xf4>
/home/ssysarch/Desktop/nick/jetpack_5/Jetson_Linux_R35.4.1_aarch64/Linux_for_Tegra/sources/tegra/optee-src/nv-optee/optee/optee_os/lib/libutils/ext/trace.c:230
     64c:	f9408261 	ldr	x1, [x19, #256]
     650:	8b20c020 	add	x0, x1, w0, sxtw
     654:	f9008260 	str	x0, [x19, #256]
/home/ssysarch/Desktop/nick/jetpack_5/Jetson_Linux_R35.4.1_aarch64/Linux_for_Tegra/sources/tegra/optee-src/nv-optee/optee/optee_os/lib/libutils/ext/trace.c:231
     658:	52800020 	mov	w0, #0x1                   	// #1
/home/ssysarch/Desktop/nick/jetpack_5/Jetson_Linux_R35.4.1_aarch64/Linux_for_Tegra/sources/tegra/optee-src/nv-optee/optee/optee_os/lib/libutils/ext/trace.c:232
     65c:	d0000082 	adrp	x2, 12000 <_DYNAMIC>
     660:	f9409842 	ldr	x2, [x2, #304]
     664:	f9403fe1 	ldr	x1, [sp, #120]
     668:	f9400043 	ldr	x3, [x2]
     66c:	eb030021 	subs	x1, x1, x3
     670:	d2800003 	mov	x3, #0x0                   	// #0
     674:	54000080 	b.eq	684 <append+0xfc>  // b.none
     678:	97ffffb1 	bl	53c <__stack_chk_fail>
/home/ssysarch/Desktop/nick/jetpack_5/Jetson_Linux_R35.4.1_aarch64/Linux_for_Tegra/sources/tegra/optee-src/nv-optee/optee/optee_os/lib/libutils/ext/trace.c:224
     67c:	52800000 	mov	w0, #0x0                   	// #0
     680:	17fffff7 	b	65c <append+0xd4>
/home/ssysarch/Desktop/nick/jetpack_5/Jetson_Linux_R35.4.1_aarch64/Linux_for_Tegra/sources/tegra/optee-src/nv-optee/optee/optee_os/lib/libutils/ext/trace.c:232
     684:	a94153f3 	ldp	x19, x20, [sp, #16]
     688:	f94013f5 	ldr	x21, [sp, #32]
     68c:	a8d37bfd 	ldp	x29, x30, [sp], #304
     690:	d65f03c0 	ret

0000000000000694 <trace_set_level>:
trace_set_level():
/home/ssysarch/Desktop/nick/jetpack_5/Jetson_Linux_R35.4.1_aarch64/Linux_for_Tegra/sources/tegra/optee-src/nv-optee/optee/optee_os/lib/libutils/ext/trace.c:28
     694:	7100141f 	cmp	w0, #0x5
     698:	52800081 	mov	w1, #0x4                   	// #4
     69c:	1a813000 	csel	w0, w0, w1, cc  // cc = lo, ul, last
     6a0:	d0000081 	adrp	x1, 12000 <_DYNAMIC>
     6a4:	f940a821 	ldr	x1, [x1, #336]
     6a8:	b9000020 	str	w0, [x1]
/home/ssysarch/Desktop/nick/jetpack_5/Jetson_Linux_R35.4.1_aarch64/Linux_for_Tegra/sources/tegra/optee-src/nv-optee/optee/optee_os/lib/libutils/ext/trace.c:29
     6ac:	d65f03c0 	ret

00000000000006b0 <trace_get_level>:
trace_get_level():
/home/ssysarch/Desktop/nick/jetpack_5/Jetson_Linux_R35.4.1_aarch64/Linux_for_Tegra/sources/tegra/optee-src/nv-optee/optee/optee_os/lib/libutils/ext/trace.c:33
     6b0:	d0000080 	adrp	x0, 12000 <_DYNAMIC>
/home/ssysarch/Desktop/nick/jetpack_5/Jetson_Linux_R35.4.1_aarch64/Linux_for_Tegra/sources/tegra/optee-src/nv-optee/optee/optee_os/lib/libutils/ext/trace.c:34
     6b4:	f940a800 	ldr	x0, [x0, #336]
     6b8:	b9400000 	ldr	w0, [x0]
     6bc:	d65f03c0 	ret

00000000000006c0 <trace_vprintf>:
trace_vprintf():
/home/ssysarch/Desktop/nick/jetpack_5/Jetson_Linux_R35.4.1_aarch64/Linux_for_Tegra/sources/tegra/optee-src/nv-optee/optee/optee_os/lib/libutils/ext/trace.c:113
     6c0:	a9a77bfd 	stp	x29, x30, [sp, #-400]!
     6c4:	910003fd 	mov	x29, sp
     6c8:	a9046bf9 	stp	x25, x26, [sp, #64]
     6cc:	2a0103f9 	mov	w25, w1
     6d0:	d0000081 	adrp	x1, 12000 <_DYNAMIC>
     6d4:	a9025bf5 	stp	x21, x22, [sp, #32]
     6d8:	aa0003f6 	mov	x22, x0
     6dc:	aa0103f5 	mov	x21, x1
     6e0:	f9409820 	ldr	x0, [x1, #304]
     6e4:	a90153f3 	stp	x19, x20, [sp, #16]
     6e8:	2a0203f3 	mov	w19, w2
     6ec:	f9400002 	ldr	x2, [x0]
     6f0:	f900c7e2 	str	x2, [sp, #392]
     6f4:	d2800002 	mov	x2, #0x0                   	// #0
     6f8:	a90363f7 	stp	x23, x24, [sp, #48]
     6fc:	aa0403f7 	mov	x23, x4
     700:	a90573fb 	stp	x27, x28, [sp, #80]
     704:	aa0503f8 	mov	x24, x5
/home/ssysarch/Desktop/nick/jetpack_5/Jetson_Linux_R35.4.1_aarch64/Linux_for_Tegra/sources/tegra/optee-src/nv-optee/optee/optee_os/lib/libutils/ext/trace.c:118
     708:	72001c7b 	ands	w27, w3, #0xff
     70c:	54000b20 	b.eq	870 <trace_vprintf+0x1b0>  // b.none
/home/ssysarch/Desktop/nick/jetpack_5/Jetson_Linux_R35.4.1_aarch64/Linux_for_Tegra/sources/tegra/optee-src/nv-optee/optee/optee_os/lib/libutils/ext/trace.c:118 (discriminator 1)
     710:	f940a820 	ldr	x0, [x1, #336]
     714:	b9400000 	ldr	w0, [x0]
     718:	6b13001f 	cmp	w0, w19
     71c:	540009cb 	b.lt	854 <trace_vprintf+0x194>  // b.tstop
trace_level_to_string():
/home/ssysarch/Desktop/nick/jetpack_5/Jetson_Linux_R35.4.1_aarch64/Linux_for_Tegra/sources/tegra/optee-src/nv-optee/optee/optee_os/lib/libutils/ext/trace.c:51
     720:	7100127f 	cmp	w19, #0x4
/home/ssysarch/Desktop/nick/jetpack_5/Jetson_Linux_R35.4.1_aarch64/Linux_for_Tegra/sources/tegra/optee-src/nv-optee/optee/optee_os/lib/libutils/ext/trace.c:54
     724:	f0000060 	adrp	x0, f000 <__text_end+0x2054>
     728:	913f8000 	add	x0, x0, #0xfe0
/home/ssysarch/Desktop/nick/jetpack_5/Jetson_Linux_R35.4.1_aarch64/Linux_for_Tegra/sources/tegra/optee-src/nv-optee/optee/optee_os/lib/libutils/ext/trace.c:51
     72c:	1a9f9261 	csel	w1, w19, wzr, ls  // ls = plast
/home/ssysarch/Desktop/nick/jetpack_5/Jetson_Linux_R35.4.1_aarch64/Linux_for_Tegra/sources/tegra/optee-src/nv-optee/optee/optee_os/lib/libutils/ext/trace.c:54
     730:	3861c803 	ldrb	w3, [x0, w1, sxtw]
trace_vprintf():
/home/ssysarch/Desktop/nick/jetpack_5/Jetson_Linux_R35.4.1_aarch64/Linux_for_Tegra/sources/tegra/optee-src/nv-optee/optee/optee_os/lib/libutils/ext/trace.c:122
     734:	910223f4 	add	x20, sp, #0x88
     738:	f0000062 	adrp	x2, f000 <__text_end+0x2054>
     73c:	913e9842 	add	x2, x2, #0xfa6
     740:	aa1403e0 	mov	x0, x20
     744:	d2802001 	mov	x1, #0x100                 	// #256
     748:	94000149 	bl	c6c <snprintk>
/home/ssysarch/Desktop/nick/jetpack_5/Jetson_Linux_R35.4.1_aarch64/Linux_for_Tegra/sources/tegra/optee-src/nv-optee/optee/optee_os/lib/libutils/ext/trace.c:124
     74c:	37f80840 	tbnz	w0, #31, 854 <trace_vprintf+0x194>
/home/ssysarch/Desktop/nick/jetpack_5/Jetson_Linux_R35.4.1_aarch64/Linux_for_Tegra/sources/tegra/optee-src/nv-optee/optee/optee_os/lib/libutils/ext/trace.c:129
     750:	f940b2a3 	ldr	x3, [x21, #352]
     754:	d280201c 	mov	x28, #0x100                 	// #256
/home/ssysarch/Desktop/nick/jetpack_5/Jetson_Linux_R35.4.1_aarch64/Linux_for_Tegra/sources/tegra/optee-src/nv-optee/optee/optee_os/lib/libutils/ext/trace.c:126
     758:	93407c1a 	sxtw	x26, w0
/home/ssysarch/Desktop/nick/jetpack_5/Jetson_Linux_R35.4.1_aarch64/Linux_for_Tegra/sources/tegra/optee-src/nv-optee/optee/optee_os/lib/libutils/ext/trace.c:129
     75c:	cb20c381 	sub	x1, x28, w0, sxtw
     760:	f0000062 	adrp	x2, f000 <__text_end+0x2054>
     764:	913ea842 	add	x2, x2, #0xfaa
     768:	8b20c280 	add	x0, x20, w0, sxtw
     76c:	94000140 	bl	c6c <snprintk>
/home/ssysarch/Desktop/nick/jetpack_5/Jetson_Linux_R35.4.1_aarch64/Linux_for_Tegra/sources/tegra/optee-src/nv-optee/optee/optee_os/lib/libutils/ext/trace.c:131
     770:	37f80720 	tbnz	w0, #31, 854 <trace_vprintf+0x194>
/home/ssysarch/Desktop/nick/jetpack_5/Jetson_Linux_R35.4.1_aarch64/Linux_for_Tegra/sources/tegra/optee-src/nv-optee/optee/optee_os/lib/libutils/ext/trace.c:133
     774:	8b20c35a 	add	x26, x26, w0, sxtw
/home/ssysarch/Desktop/nick/jetpack_5/Jetson_Linux_R35.4.1_aarch64/Linux_for_Tegra/sources/tegra/optee-src/nv-optee/optee/optee_os/lib/libutils/ext/trace.c:135
     778:	3400093b 	cbz	w27, 89c <trace_vprintf+0x1dc>
/home/ssysarch/Desktop/nick/jetpack_5/Jetson_Linux_R35.4.1_aarch64/Linux_for_Tegra/sources/tegra/optee-src/nv-optee/optee/optee_os/lib/libutils/ext/trace.c:135 (discriminator 1)
     77c:	52800342 	mov	w2, #0x1a                  	// #26
     780:	1ad32453 	lsr	w19, w2, w19
     784:	360008d3 	tbz	w19, #0, 89c <trace_vprintf+0x1dc>
print_thread_id():
/home/ssysarch/Desktop/nick/jetpack_5/Jetson_Linux_R35.4.1_aarch64/Linux_for_Tegra/sources/tegra/optee-src/nv-optee/optee/optee_os/lib/libutils/ext/trace.c:66
     788:	94000493 	bl	19d4 <trace_ext_get_thread_id>
trace_vprintf():
/home/ssysarch/Desktop/nick/jetpack_5/Jetson_Linux_R35.4.1_aarch64/Linux_for_Tegra/sources/tegra/optee-src/nv-optee/optee/optee_os/lib/libutils/ext/trace.c:137
     78c:	8b1a029b 	add	x27, x20, x26
     790:	cb1a039c 	sub	x28, x28, x26
print_thread_id():
/home/ssysarch/Desktop/nick/jetpack_5/Jetson_Linux_R35.4.1_aarch64/Linux_for_Tegra/sources/tegra/optee-src/nv-optee/optee/optee_os/lib/libutils/ext/trace.c:66
     794:	2a0003e4 	mov	w4, w0
/home/ssysarch/Desktop/nick/jetpack_5/Jetson_Linux_R35.4.1_aarch64/Linux_for_Tegra/sources/tegra/optee-src/nv-optee/optee/optee_os/lib/libutils/ext/trace.c:68
     798:	37f80700 	tbnz	w0, #31, 878 <trace_vprintf+0x1b8>
/home/ssysarch/Desktop/nick/jetpack_5/Jetson_Linux_R35.4.1_aarch64/Linux_for_Tegra/sources/tegra/optee-src/nv-optee/optee/optee_os/lib/libutils/ext/trace.c:69
     79c:	f0000062 	adrp	x2, f000 <__text_end+0x2054>
     7a0:	913eb842 	add	x2, x2, #0xfae
     7a4:	aa1c03e1 	mov	x1, x28
     7a8:	aa1b03e0 	mov	x0, x27
     7ac:	52800043 	mov	w3, #0x2                   	// #2
     7b0:	9400012f 	bl	c6c <snprintk>
trace_vprintf():
/home/ssysarch/Desktop/nick/jetpack_5/Jetson_Linux_R35.4.1_aarch64/Linux_for_Tegra/sources/tegra/optee-src/nv-optee/optee/optee_os/lib/libutils/ext/trace.c:144
     7b4:	37f80500 	tbnz	w0, #31, 854 <trace_vprintf+0x194>
/home/ssysarch/Desktop/nick/jetpack_5/Jetson_Linux_R35.4.1_aarch64/Linux_for_Tegra/sources/tegra/optee-src/nv-optee/optee/optee_os/lib/libutils/ext/trace.c:146
     7b8:	8b20c353 	add	x19, x26, w0, sxtw
/home/ssysarch/Desktop/nick/jetpack_5/Jetson_Linux_R35.4.1_aarch64/Linux_for_Tegra/sources/tegra/optee-src/nv-optee/optee/optee_os/lib/libutils/ext/trace.c:148
     7bc:	b4000176 	cbz	x22, 7e8 <trace_vprintf+0x128>
/home/ssysarch/Desktop/nick/jetpack_5/Jetson_Linux_R35.4.1_aarch64/Linux_for_Tegra/sources/tegra/optee-src/nv-optee/optee/optee_os/lib/libutils/ext/trace.c:149
     7c0:	f0000062 	adrp	x2, f000 <__text_end+0x2054>
     7c4:	913ee442 	add	x2, x2, #0xfb9
     7c8:	d2802001 	mov	x1, #0x100                 	// #256
     7cc:	2a1903e4 	mov	w4, w25
     7d0:	aa1603e3 	mov	x3, x22
     7d4:	cb130021 	sub	x1, x1, x19
     7d8:	8b130280 	add	x0, x20, x19
     7dc:	94000124 	bl	c6c <snprintk>
/home/ssysarch/Desktop/nick/jetpack_5/Jetson_Linux_R35.4.1_aarch64/Linux_for_Tegra/sources/tegra/optee-src/nv-optee/optee/optee_os/lib/libutils/ext/trace.c:151
     7e0:	37f803a0 	tbnz	w0, #31, 854 <trace_vprintf+0x194>
/home/ssysarch/Desktop/nick/jetpack_5/Jetson_Linux_R35.4.1_aarch64/Linux_for_Tegra/sources/tegra/optee-src/nv-optee/optee/optee_os/lib/libutils/ext/trace.c:153
     7e4:	8b20c273 	add	x19, x19, w0, sxtw
/home/ssysarch/Desktop/nick/jetpack_5/Jetson_Linux_R35.4.1_aarch64/Linux_for_Tegra/sources/tegra/optee-src/nv-optee/optee/optee_os/lib/libutils/ext/trace.c:163
     7e8:	910183e3 	add	x3, sp, #0x60
     7ec:	aa1803e1 	mov	x1, x24
     7f0:	aa0303e0 	mov	x0, x3
     7f4:	d2800402 	mov	x2, #0x20                  	// #32
     7f8:	97fffe0a 	bl	20 <memcpy>
     7fc:	aa0003e3 	mov	x3, x0
     800:	aa1703e2 	mov	x2, x23
     804:	8b130280 	add	x0, x20, x19
     808:	d2802001 	mov	x1, #0x100                 	// #256
     80c:	cb130021 	sub	x1, x1, x19
     810:	94000101 	bl	c14 <vsnprintk>
/home/ssysarch/Desktop/nick/jetpack_5/Jetson_Linux_R35.4.1_aarch64/Linux_for_Tegra/sources/tegra/optee-src/nv-optee/optee/optee_os/lib/libutils/ext/trace.c:164
     814:	7100001f 	cmp	w0, #0x0
     818:	5400004d 	b.le	820 <trace_vprintf+0x160>
/home/ssysarch/Desktop/nick/jetpack_5/Jetson_Linux_R35.4.1_aarch64/Linux_for_Tegra/sources/tegra/optee-src/nv-optee/optee/optee_os/lib/libutils/ext/trace.c:165
     81c:	8b20c273 	add	x19, x19, w0, sxtw
/home/ssysarch/Desktop/nick/jetpack_5/Jetson_Linux_R35.4.1_aarch64/Linux_for_Tegra/sources/tegra/optee-src/nv-optee/optee/optee_os/lib/libutils/ext/trace.c:167
     820:	f103fa7f 	cmp	x19, #0xfe
     824:	d2801fc0 	mov	x0, #0xfe                  	// #254
     828:	9a809273 	csel	x19, x19, x0, ls  // ls = plast
/home/ssysarch/Desktop/nick/jetpack_5/Jetson_Linux_R35.4.1_aarch64/Linux_for_Tegra/sources/tegra/optee-src/nv-optee/optee/optee_os/lib/libutils/ext/trace.c:170
     82c:	52800140 	mov	w0, #0xa                   	// #10
     830:	38336a80 	strb	w0, [x20, x19]
/home/ssysarch/Desktop/nick/jetpack_5/Jetson_Linux_R35.4.1_aarch64/Linux_for_Tegra/sources/tegra/optee-src/nv-optee/optee/optee_os/lib/libutils/ext/trace.c:171
     834:	b4000093 	cbz	x19, 844 <trace_vprintf+0x184>
/home/ssysarch/Desktop/nick/jetpack_5/Jetson_Linux_R35.4.1_aarch64/Linux_for_Tegra/sources/tegra/optee-src/nv-optee/optee/optee_os/lib/libutils/ext/trace.c:171 (discriminator 1)
     838:	38736a80 	ldrb	w0, [x20, x19]
     83c:	7100281f 	cmp	w0, #0xa
     840:	540003c0 	b.eq	8b8 <trace_vprintf+0x1f8>  // b.none
/home/ssysarch/Desktop/nick/jetpack_5/Jetson_Linux_R35.4.1_aarch64/Linux_for_Tegra/sources/tegra/optee-src/nv-optee/optee/optee_os/lib/libutils/ext/trace.c:174
     844:	91022be0 	add	x0, sp, #0x8a
     848:	3833681f 	strb	wzr, [x0, x19]
/home/ssysarch/Desktop/nick/jetpack_5/Jetson_Linux_R35.4.1_aarch64/Linux_for_Tegra/sources/tegra/optee-src/nv-optee/optee/optee_os/lib/libutils/ext/trace.c:176
     84c:	aa1403e0 	mov	x0, x20
     850:	94000457 	bl	19ac <trace_ext_puts>
/home/ssysarch/Desktop/nick/jetpack_5/Jetson_Linux_R35.4.1_aarch64/Linux_for_Tegra/sources/tegra/optee-src/nv-optee/optee/optee_os/lib/libutils/ext/trace.c:177
     854:	f9409ab5 	ldr	x21, [x21, #304]
     858:	f940c7e0 	ldr	x0, [sp, #392]
     85c:	f94002a1 	ldr	x1, [x21]
     860:	eb010000 	subs	x0, x0, x1
     864:	d2800001 	mov	x1, #0x0                   	// #0
     868:	540002c0 	b.eq	8c0 <trace_vprintf+0x200>  // b.none
     86c:	97ffff34 	bl	53c <__stack_chk_fail>
trace_level_to_string():
/home/ssysarch/Desktop/nick/jetpack_5/Jetson_Linux_R35.4.1_aarch64/Linux_for_Tegra/sources/tegra/optee-src/nv-optee/optee/optee_os/lib/libutils/ext/trace.c:49
     870:	528009a3 	mov	w3, #0x4d                  	// #77
     874:	17ffffb0 	b	734 <trace_vprintf+0x74>
print_thread_id():
/home/ssysarch/Desktop/nick/jetpack_5/Jetson_Linux_R35.4.1_aarch64/Linux_for_Tegra/sources/tegra/optee-src/nv-optee/optee/optee_os/lib/libutils/ext/trace.c:71
     878:	aa1c03e1 	mov	x1, x28
     87c:	aa1b03e0 	mov	x0, x27
     880:	90000084 	adrp	x4, 10000 <__func__.3657+0x1b>
     884:	9124c484 	add	x4, x4, #0x931
     888:	52800043 	mov	w3, #0x2                   	// #2
     88c:	f0000062 	adrp	x2, f000 <__text_end+0x2054>
     890:	913ed042 	add	x2, x2, #0xfb4
     894:	940000f6 	bl	c6c <snprintk>
     898:	17ffffc7 	b	7b4 <trace_vprintf+0xf4>
trace_vprintf():
/home/ssysarch/Desktop/nick/jetpack_5/Jetson_Linux_R35.4.1_aarch64/Linux_for_Tegra/sources/tegra/optee-src/nv-optee/optee/optee_os/lib/libutils/ext/trace.c:157
     89c:	f103fb5f 	cmp	x26, #0xfe
     8a0:	54fffda8 	b.hi	854 <trace_vprintf+0x194>  // b.pmore
/home/ssysarch/Desktop/nick/jetpack_5/Jetson_Linux_R35.4.1_aarch64/Linux_for_Tegra/sources/tegra/optee-src/nv-optee/optee/optee_os/lib/libutils/ext/trace.c:159
     8a4:	91000753 	add	x19, x26, #0x1
     8a8:	52800400 	mov	w0, #0x20                  	// #32
     8ac:	383a6a80 	strb	w0, [x20, x26]
/home/ssysarch/Desktop/nick/jetpack_5/Jetson_Linux_R35.4.1_aarch64/Linux_for_Tegra/sources/tegra/optee-src/nv-optee/optee/optee_os/lib/libutils/ext/trace.c:160
     8b0:	38336a9f 	strb	wzr, [x20, x19]
     8b4:	17ffffcd 	b	7e8 <trace_vprintf+0x128>
/home/ssysarch/Desktop/nick/jetpack_5/Jetson_Linux_R35.4.1_aarch64/Linux_for_Tegra/sources/tegra/optee-src/nv-optee/optee/optee_os/lib/libutils/ext/trace.c:172
     8b8:	d1000673 	sub	x19, x19, #0x1
     8bc:	17ffffde 	b	834 <trace_vprintf+0x174>
/home/ssysarch/Desktop/nick/jetpack_5/Jetson_Linux_R35.4.1_aarch64/Linux_for_Tegra/sources/tegra/optee-src/nv-optee/optee/optee_os/lib/libutils/ext/trace.c:177
     8c0:	a94153f3 	ldp	x19, x20, [sp, #16]
     8c4:	a9425bf5 	ldp	x21, x22, [sp, #32]
     8c8:	a94363f7 	ldp	x23, x24, [sp, #48]
     8cc:	a9446bf9 	ldp	x25, x26, [sp, #64]
     8d0:	a94573fb 	ldp	x27, x28, [sp, #80]
     8d4:	a8d97bfd 	ldp	x29, x30, [sp], #400
     8d8:	d65f03c0 	ret

00000000000008dc <trace_printf>:
trace_printf():
/home/ssysarch/Desktop/nick/jetpack_5/Jetson_Linux_R35.4.1_aarch64/Linux_for_Tegra/sources/tegra/optee-src/nv-optee/optee/optee_os/lib/libutils/ext/trace.c:104
     8dc:	a9ad7bfd 	stp	x29, x30, [sp, #-304]!
     8e0:	910003fd 	mov	x29, sp
     8e4:	a90153f3 	stp	x19, x20, [sp, #16]
     8e8:	d0000093 	adrp	x19, 12000 <_DYNAMIC>
     8ec:	aa0003f4 	mov	x20, x0
     8f0:	f9409a73 	ldr	x19, [x19, #304]
     8f4:	3d8027e0 	str	q0, [sp, #144]
     8f8:	3d802be1 	str	q1, [sp, #160]
     8fc:	3d802fe2 	str	q2, [sp, #176]
     900:	3d8033e3 	str	q3, [sp, #192]
     904:	3d8037e4 	str	q4, [sp, #208]
     908:	3d803be5 	str	q5, [sp, #224]
     90c:	3d803fe6 	str	q6, [sp, #240]
     910:	3d8043e7 	str	q7, [sp, #256]
     914:	a9119be5 	stp	x5, x6, [sp, #280]
/home/ssysarch/Desktop/nick/jetpack_5/Jetson_Linux_R35.4.1_aarch64/Linux_for_Tegra/sources/tegra/optee-src/nv-optee/optee/optee_os/lib/libutils/ext/trace.c:108
     918:	910103e5 	add	x5, sp, #0x40
/home/ssysarch/Desktop/nick/jetpack_5/Jetson_Linux_R35.4.1_aarch64/Linux_for_Tegra/sources/tegra/optee-src/nv-optee/optee/optee_os/lib/libutils/ext/trace.c:104
     91c:	f90097e7 	str	x7, [sp, #296]
     920:	a9025bf5 	stp	x21, x22, [sp, #32]
     924:	2a0103f5 	mov	w21, w1
     928:	f9400260 	ldr	x0, [x19]
     92c:	f90047e0 	str	x0, [sp, #136]
     930:	d2800000 	mov	x0, #0x0                   	// #0
/home/ssysarch/Desktop/nick/jetpack_5/Jetson_Linux_R35.4.1_aarch64/Linux_for_Tegra/sources/tegra/optee-src/nv-optee/optee/optee_os/lib/libutils/ext/trace.c:107
     934:	9104c3e0 	add	x0, sp, #0x130
     938:	a90683e0 	stp	x0, x0, [sp, #104]
     93c:	910443e0 	add	x0, sp, #0x110
     940:	f9003fe0 	str	x0, [sp, #120]
     944:	128002e0 	mov	w0, #0xffffffe8            	// #-24
     948:	b90083e0 	str	w0, [sp, #128]
     94c:	12800fe0 	mov	w0, #0xffffff80            	// #-128
/home/ssysarch/Desktop/nick/jetpack_5/Jetson_Linux_R35.4.1_aarch64/Linux_for_Tegra/sources/tegra/optee-src/nv-optee/optee/optee_os/lib/libutils/ext/trace.c:104
     950:	2a0203f6 	mov	w22, w2
/home/ssysarch/Desktop/nick/jetpack_5/Jetson_Linux_R35.4.1_aarch64/Linux_for_Tegra/sources/tegra/optee-src/nv-optee/optee/optee_os/lib/libutils/ext/trace.c:108
     954:	9101a3e1 	add	x1, sp, #0x68
     958:	d2800402 	mov	x2, #0x20                  	// #32
/home/ssysarch/Desktop/nick/jetpack_5/Jetson_Linux_R35.4.1_aarch64/Linux_for_Tegra/sources/tegra/optee-src/nv-optee/optee/optee_os/lib/libutils/ext/trace.c:104
     95c:	a90363f7 	stp	x23, x24, [sp, #48]
     960:	12001c78 	and	w24, w3, #0xff
     964:	aa0403f7 	mov	x23, x4
/home/ssysarch/Desktop/nick/jetpack_5/Jetson_Linux_R35.4.1_aarch64/Linux_for_Tegra/sources/tegra/optee-src/nv-optee/optee/optee_os/lib/libutils/ext/trace.c:107
     968:	b90087e0 	str	w0, [sp, #132]
/home/ssysarch/Desktop/nick/jetpack_5/Jetson_Linux_R35.4.1_aarch64/Linux_for_Tegra/sources/tegra/optee-src/nv-optee/optee/optee_os/lib/libutils/ext/trace.c:108
     96c:	aa0503e0 	mov	x0, x5
     970:	97fffdac 	bl	20 <memcpy>
     974:	2a1503e1 	mov	w1, w21
     978:	aa0003e5 	mov	x5, x0
     97c:	aa1703e4 	mov	x4, x23
     980:	aa1403e0 	mov	x0, x20
     984:	2a1803e3 	mov	w3, w24
     988:	2a1603e2 	mov	w2, w22
     98c:	97ffff4d 	bl	6c0 <trace_vprintf>
/home/ssysarch/Desktop/nick/jetpack_5/Jetson_Linux_R35.4.1_aarch64/Linux_for_Tegra/sources/tegra/optee-src/nv-optee/optee/optee_os/lib/libutils/ext/trace.c:110
     990:	f94047e0 	ldr	x0, [sp, #136]
     994:	f9400261 	ldr	x1, [x19]
     998:	eb010000 	subs	x0, x0, x1
     99c:	d2800001 	mov	x1, #0x0                   	// #0
     9a0:	54000040 	b.eq	9a8 <trace_printf+0xcc>  // b.none
     9a4:	97fffee6 	bl	53c <__stack_chk_fail>
     9a8:	a94153f3 	ldp	x19, x20, [sp, #16]
     9ac:	a9425bf5 	ldp	x21, x22, [sp, #32]
     9b0:	a94363f7 	ldp	x23, x24, [sp, #48]
     9b4:	a8d37bfd 	ldp	x29, x30, [sp], #304
     9b8:	d65f03c0 	ret

00000000000009bc <dhex_dump>:
dhex_dump():
/home/ssysarch/Desktop/nick/jetpack_5/Jetson_Linux_R35.4.1_aarch64/Linux_for_Tegra/sources/tegra/optee-src/nv-optee/optee/optee_os/lib/libutils/ext/trace.c:236
     9bc:	a9a97bfd 	stp	x29, x30, [sp, #-368]!
     9c0:	d0000085 	adrp	x5, 12000 <_DYNAMIC>
     9c4:	910003fd 	mov	x29, sp
     9c8:	a9025bf5 	stp	x21, x22, [sp, #32]
     9cc:	aa0003f5 	mov	x21, x0
     9d0:	2a0103f6 	mov	w22, w1
     9d4:	f94098a0 	ldr	x0, [x5, #304]
     9d8:	a90153f3 	stp	x19, x20, [sp, #16]
/home/ssysarch/Desktop/nick/jetpack_5/Jetson_Linux_R35.4.1_aarch64/Linux_for_Tegra/sources/tegra/optee-src/nv-optee/optee/optee_os/lib/libutils/ext/trace.c:242
     9dc:	f940a8a5 	ldr	x5, [x5, #336]
/home/ssysarch/Desktop/nick/jetpack_5/Jetson_Linux_R35.4.1_aarch64/Linux_for_Tegra/sources/tegra/optee-src/nv-optee/optee/optee_os/lib/libutils/ext/trace.c:236
     9e0:	f9400001 	ldr	x1, [x0]
     9e4:	f900b7e1 	str	x1, [sp, #360]
     9e8:	d2800001 	mov	x1, #0x0                   	// #0
     9ec:	a90363f7 	stp	x23, x24, [sp, #48]
/home/ssysarch/Desktop/nick/jetpack_5/Jetson_Linux_R35.4.1_aarch64/Linux_for_Tegra/sources/tegra/optee-src/nv-optee/optee/optee_os/lib/libutils/ext/trace.c:242
     9f0:	b94000a0 	ldr	w0, [x5]
/home/ssysarch/Desktop/nick/jetpack_5/Jetson_Linux_R35.4.1_aarch64/Linux_for_Tegra/sources/tegra/optee-src/nv-optee/optee/optee_os/lib/libutils/ext/trace.c:236
     9f4:	a9046bf9 	stp	x25, x26, [sp, #64]
/home/ssysarch/Desktop/nick/jetpack_5/Jetson_Linux_R35.4.1_aarch64/Linux_for_Tegra/sources/tegra/optee-src/nv-optee/optee/optee_os/lib/libutils/ext/trace.c:242
     9f8:	6b02001f 	cmp	w0, w2
/home/ssysarch/Desktop/nick/jetpack_5/Jetson_Linux_R35.4.1_aarch64/Linux_for_Tegra/sources/tegra/optee-src/nv-optee/optee/optee_os/lib/libutils/ext/trace.c:236
     9fc:	a90573fb 	stp	x27, x28, [sp, #80]
/home/ssysarch/Desktop/nick/jetpack_5/Jetson_Linux_R35.4.1_aarch64/Linux_for_Tegra/sources/tegra/optee-src/nv-optee/optee/optee_os/lib/libutils/ext/trace.c:242
     a00:	5400030b 	b.lt	a60 <dhex_dump+0xa4>  // b.tstop
/home/ssysarch/Desktop/nick/jetpack_5/Jetson_Linux_R35.4.1_aarch64/Linux_for_Tegra/sources/tegra/optee-src/nv-optee/optee/optee_os/lib/libutils/ext/trace.c:246
     a04:	f000007a 	adrp	x26, f000 <__text_end+0x2054>
     a08:	913f1b5a 	add	x26, x26, #0xfc6
/home/ssysarch/Desktop/nick/jetpack_5/Jetson_Linux_R35.4.1_aarch64/Linux_for_Tegra/sources/tegra/optee-src/nv-optee/optee/optee_os/lib/libutils/ext/trace.c:251
     a0c:	f000007b 	adrp	x27, f000 <__text_end+0x2054>
     a10:	913f037b 	add	x27, x27, #0xfc0
     a14:	2a0203f4 	mov	w20, w2
     a18:	aa0303f8 	mov	x24, x3
     a1c:	2a0403f9 	mov	w25, w4
/home/ssysarch/Desktop/nick/jetpack_5/Jetson_Linux_R35.4.1_aarch64/Linux_for_Tegra/sources/tegra/optee-src/nv-optee/optee/optee_os/lib/libutils/ext/trace.c:243
     a20:	910183f7 	add	x23, sp, #0x60
/home/ssysarch/Desktop/nick/jetpack_5/Jetson_Linux_R35.4.1_aarch64/Linux_for_Tegra/sources/tegra/optee-src/nv-optee/optee/optee_os/lib/libutils/ext/trace.c:244
     a24:	d2800013 	mov	x19, #0x0                   	// #0
/home/ssysarch/Desktop/nick/jetpack_5/Jetson_Linux_R35.4.1_aarch64/Linux_for_Tegra/sources/tegra/optee-src/nv-optee/optee/optee_os/lib/libutils/ext/trace.c:243
     a28:	f900b3ff 	str	xzr, [sp, #352]
/home/ssysarch/Desktop/nick/jetpack_5/Jetson_Linux_R35.4.1_aarch64/Linux_for_Tegra/sources/tegra/optee-src/nv-optee/optee/optee_os/lib/libutils/ext/trace.c:244
     a2c:	2a1303fc 	mov	w28, w19
/home/ssysarch/Desktop/nick/jetpack_5/Jetson_Linux_R35.4.1_aarch64/Linux_for_Tegra/sources/tegra/optee-src/nv-optee/optee/optee_os/lib/libutils/ext/trace.c:244 (discriminator 1)
     a30:	6b13033f 	cmp	w25, w19
     a34:	5400026c 	b.gt	a80 <dhex_dump+0xc4>
/home/ssysarch/Desktop/nick/jetpack_5/Jetson_Linux_R35.4.1_aarch64/Linux_for_Tegra/sources/tegra/optee-src/nv-optee/optee/optee_os/lib/libutils/ext/trace.c:264
     a38:	f940b3e0 	ldr	x0, [sp, #352]
     a3c:	b4000120 	cbz	x0, a60 <dhex_dump+0xa4>
/home/ssysarch/Desktop/nick/jetpack_5/Jetson_Linux_R35.4.1_aarch64/Linux_for_Tegra/sources/tegra/optee-src/nv-optee/optee/optee_os/lib/libutils/ext/trace.c:266
     a40:	f0000064 	adrp	x4, f000 <__text_end+0x2054>
     a44:	913f3884 	add	x4, x4, #0xfce
     a48:	910183e5 	add	x5, sp, #0x60
     a4c:	2a1403e2 	mov	w2, w20
     a50:	2a1603e1 	mov	w1, w22
     a54:	aa1503e0 	mov	x0, x21
     a58:	52800023 	mov	w3, #0x1                   	// #1
     a5c:	97ffffa0 	bl	8dc <trace_printf>
/home/ssysarch/Desktop/nick/jetpack_5/Jetson_Linux_R35.4.1_aarch64/Linux_for_Tegra/sources/tegra/optee-src/nv-optee/optee/optee_os/lib/libutils/ext/trace.c:274
     a60:	d0000085 	adrp	x5, 12000 <_DYNAMIC>
     a64:	f94098a5 	ldr	x5, [x5, #304]
     a68:	f940b7e0 	ldr	x0, [sp, #360]
     a6c:	f94000a1 	ldr	x1, [x5]
     a70:	eb010000 	subs	x0, x0, x1
     a74:	d2800001 	mov	x1, #0x0                   	// #0
     a78:	54000600 	b.eq	b38 <dhex_dump+0x17c>  // b.none
     a7c:	97fffeb0 	bl	53c <__stack_chk_fail>
/home/ssysarch/Desktop/nick/jetpack_5/Jetson_Linux_R35.4.1_aarch64/Linux_for_Tegra/sources/tegra/optee-src/nv-optee/optee/optee_os/lib/libutils/ext/trace.c:245
     a80:	f2400e7f 	tst	x19, #0xf
     a84:	54000200 	b.eq	ac4 <dhex_dump+0x108>  // b.none
/home/ssysarch/Desktop/nick/jetpack_5/Jetson_Linux_R35.4.1_aarch64/Linux_for_Tegra/sources/tegra/optee-src/nv-optee/optee/optee_os/lib/libutils/ext/trace.c:251
     a88:	38736b02 	ldrb	w2, [x24, x19]
     a8c:	aa1b03e1 	mov	x1, x27
     a90:	aa1703e0 	mov	x0, x23
     a94:	97fffebd 	bl	588 <append>
/home/ssysarch/Desktop/nick/jetpack_5/Jetson_Linux_R35.4.1_aarch64/Linux_for_Tegra/sources/tegra/optee-src/nv-optee/optee/optee_os/lib/libutils/ext/trace.c:252
     a98:	35000240 	cbnz	w0, ae0 <dhex_dump+0x124>
/home/ssysarch/Desktop/nick/jetpack_5/Jetson_Linux_R35.4.1_aarch64/Linux_for_Tegra/sources/tegra/optee-src/nv-optee/optee/optee_os/lib/libutils/ext/trace.c:273
     a9c:	f0000060 	adrp	x0, f000 <__text_end+0x2054>
     aa0:	913f8000 	add	x0, x0, #0xfe0
     aa4:	91001400 	add	x0, x0, #0x5
     aa8:	f0000064 	adrp	x4, f000 <__text_end+0x2054>
     aac:	913f4484 	add	x4, x4, #0xfd1
     ab0:	52800023 	mov	w3, #0x1                   	// #1
     ab4:	52800062 	mov	w2, #0x3                   	// #3
     ab8:	52802221 	mov	w1, #0x111                 	// #273
     abc:	97ffff88 	bl	8dc <trace_printf>
     ac0:	17ffffe8 	b	a60 <dhex_dump+0xa4>
/home/ssysarch/Desktop/nick/jetpack_5/Jetson_Linux_R35.4.1_aarch64/Linux_for_Tegra/sources/tegra/optee-src/nv-optee/optee/optee_os/lib/libutils/ext/trace.c:246
     ac4:	8b130303 	add	x3, x24, x19
     ac8:	aa1a03e1 	mov	x1, x26
     acc:	aa1703e0 	mov	x0, x23
     ad0:	52800202 	mov	w2, #0x10                  	// #16
     ad4:	97fffead 	bl	588 <append>
/home/ssysarch/Desktop/nick/jetpack_5/Jetson_Linux_R35.4.1_aarch64/Linux_for_Tegra/sources/tegra/optee-src/nv-optee/optee/optee_os/lib/libutils/ext/trace.c:248
     ad8:	35fffd80 	cbnz	w0, a88 <dhex_dump+0xcc>
     adc:	17fffff0 	b	a9c <dhex_dump+0xe0>
/home/ssysarch/Desktop/nick/jetpack_5/Jetson_Linux_R35.4.1_aarch64/Linux_for_Tegra/sources/tegra/optee-src/nv-optee/optee/optee_os/lib/libutils/ext/trace.c:254
     ae0:	12000f80 	and	w0, w28, #0xf
     ae4:	71001c1f 	cmp	w0, #0x7
     ae8:	54000101 	b.ne	b08 <dhex_dump+0x14c>  // b.any
/home/ssysarch/Desktop/nick/jetpack_5/Jetson_Linux_R35.4.1_aarch64/Linux_for_Tegra/sources/tegra/optee-src/nv-optee/optee/optee_os/lib/libutils/ext/trace.c:255
     aec:	f0000061 	adrp	x1, f000 <__text_end+0x2054>
     af0:	913f3021 	add	x1, x1, #0xfcc
     af4:	aa1703e0 	mov	x0, x23
     af8:	97fffea4 	bl	588 <append>
/home/ssysarch/Desktop/nick/jetpack_5/Jetson_Linux_R35.4.1_aarch64/Linux_for_Tegra/sources/tegra/optee-src/nv-optee/optee/optee_os/lib/libutils/ext/trace.c:256
     afc:	34fffd00 	cbz	w0, a9c <dhex_dump+0xe0>
/home/ssysarch/Desktop/nick/jetpack_5/Jetson_Linux_R35.4.1_aarch64/Linux_for_Tegra/sources/tegra/optee-src/nv-optee/optee/optee_os/lib/libutils/ext/trace.c:244 (discriminator 2)
     b00:	91000673 	add	x19, x19, #0x1
     b04:	17ffffca 	b	a2c <dhex_dump+0x70>
/home/ssysarch/Desktop/nick/jetpack_5/Jetson_Linux_R35.4.1_aarch64/Linux_for_Tegra/sources/tegra/optee-src/nv-optee/optee/optee_os/lib/libutils/ext/trace.c:258
     b08:	71003c1f 	cmp	w0, #0xf
     b0c:	54ffffa1 	b.ne	b00 <dhex_dump+0x144>  // b.any
/home/ssysarch/Desktop/nick/jetpack_5/Jetson_Linux_R35.4.1_aarch64/Linux_for_Tegra/sources/tegra/optee-src/nv-optee/optee/optee_os/lib/libutils/ext/trace.c:259
     b10:	aa1703e5 	mov	x5, x23
     b14:	2a1403e2 	mov	w2, w20
     b18:	2a1603e1 	mov	w1, w22
     b1c:	aa1503e0 	mov	x0, x21
     b20:	f0000064 	adrp	x4, f000 <__text_end+0x2054>
     b24:	913f3884 	add	x4, x4, #0xfce
     b28:	52800023 	mov	w3, #0x1                   	// #1
     b2c:	97ffff6c 	bl	8dc <trace_printf>
/home/ssysarch/Desktop/nick/jetpack_5/Jetson_Linux_R35.4.1_aarch64/Linux_for_Tegra/sources/tegra/optee-src/nv-optee/optee/optee_os/lib/libutils/ext/trace.c:261
     b30:	f900b3ff 	str	xzr, [sp, #352]
     b34:	17fffff3 	b	b00 <dhex_dump+0x144>
/home/ssysarch/Desktop/nick/jetpack_5/Jetson_Linux_R35.4.1_aarch64/Linux_for_Tegra/sources/tegra/optee-src/nv-optee/optee/optee_os/lib/libutils/ext/trace.c:274
     b38:	a94153f3 	ldp	x19, x20, [sp, #16]
     b3c:	a9425bf5 	ldp	x21, x22, [sp, #32]
     b40:	a94363f7 	ldp	x23, x24, [sp, #48]
     b44:	a9446bf9 	ldp	x25, x26, [sp, #64]
     b48:	a94573fb 	ldp	x27, x28, [sp, #80]
     b4c:	a8d77bfd 	ldp	x29, x30, [sp], #368
     b50:	d65f03c0 	ret

0000000000000b54 <__vsnprintf>:
__vsnprintf():
/home/ssysarch/Desktop/nick/jetpack_5/Jetson_Linux_R35.4.1_aarch64/Linux_for_Tegra/sources/tegra/optee-src/nv-optee/optee/optee_os/lib/libutils/ext/snprintk.c:138
     b54:	a9b97bfd 	stp	x29, x30, [sp, #-112]!
     b58:	d0000085 	adrp	x5, 12000 <_DYNAMIC>
     b5c:	910003fd 	mov	x29, sp
     b60:	f94098a5 	ldr	x5, [x5, #304]
     b64:	a90153f3 	stp	x19, x20, [sp, #16]
     b68:	aa0003f3 	mov	x19, x0
     b6c:	aa0103f4 	mov	x20, x1
     b70:	f94000a0 	ldr	x0, [x5]
     b74:	f90037e0 	str	x0, [sp, #104]
     b78:	d2800000 	mov	x0, #0x0                   	// #0
     b7c:	aa0303e1 	mov	x1, x3
/home/ssysarch/Desktop/nick/jetpack_5/Jetson_Linux_R35.4.1_aarch64/Linux_for_Tegra/sources/tegra/optee-src/nv-optee/optee/optee_os/lib/libutils/ext/snprintk.c:143
     b80:	910103e0 	add	x0, sp, #0x40
/home/ssysarch/Desktop/nick/jetpack_5/Jetson_Linux_R35.4.1_aarch64/Linux_for_Tegra/sources/tegra/optee-src/nv-optee/optee/optee_os/lib/libutils/ext/snprintk.c:138
     b84:	a9025bf5 	stp	x21, x22, [sp, #32]
     b88:	aa0203f5 	mov	x21, x2
/home/ssysarch/Desktop/nick/jetpack_5/Jetson_Linux_R35.4.1_aarch64/Linux_for_Tegra/sources/tegra/optee-src/nv-optee/optee/optee_os/lib/libutils/ext/snprintk.c:142
     b8c:	8b140276 	add	x22, x19, x20
/home/ssysarch/Desktop/nick/jetpack_5/Jetson_Linux_R35.4.1_aarch64/Linux_for_Tegra/sources/tegra/optee-src/nv-optee/optee/optee_os/lib/libutils/ext/snprintk.c:143
     b90:	d2800402 	mov	x2, #0x20                  	// #32
/home/ssysarch/Desktop/nick/jetpack_5/Jetson_Linux_R35.4.1_aarch64/Linux_for_Tegra/sources/tegra/optee-src/nv-optee/optee/optee_os/lib/libutils/ext/snprintk.c:138
     b94:	f9001bf7 	str	x23, [sp, #48]
     b98:	12001c97 	and	w23, w4, #0xff
/home/ssysarch/Desktop/nick/jetpack_5/Jetson_Linux_R35.4.1_aarch64/Linux_for_Tegra/sources/tegra/optee-src/nv-optee/optee/optee_os/lib/libutils/ext/snprintk.c:142
     b9c:	f90033f6 	str	x22, [sp, #96]
/home/ssysarch/Desktop/nick/jetpack_5/Jetson_Linux_R35.4.1_aarch64/Linux_for_Tegra/sources/tegra/optee-src/nv-optee/optee/optee_os/lib/libutils/ext/snprintk.c:143
     ba0:	97fffd20 	bl	20 <memcpy>
     ba4:	aa0003e3 	mov	x3, x0
     ba8:	2a1703e4 	mov	w4, w23
     bac:	aa1303e2 	mov	x2, x19
     bb0:	910183e1 	add	x1, sp, #0x60
     bb4:	aa1503e0 	mov	x0, x21
     bb8:	94000060 	bl	d38 <kprintf.constprop.0>
/home/ssysarch/Desktop/nick/jetpack_5/Jetson_Linux_R35.4.1_aarch64/Linux_for_Tegra/sources/tegra/optee-src/nv-optee/optee/optee_os/lib/libutils/ext/snprintk.c:144
     bbc:	f100027f 	cmp	x19, #0x0
     bc0:	fa401a84 	ccmp	x20, #0x0, #0x4, ne  // ne = any
     bc4:	540000a0 	b.eq	bd8 <__vsnprintf+0x84>  // b.none
/home/ssysarch/Desktop/nick/jetpack_5/Jetson_Linux_R35.4.1_aarch64/Linux_for_Tegra/sources/tegra/optee-src/nv-optee/optee/optee_os/lib/libutils/ext/snprintk.c:146
     bc8:	93407c01 	sxtw	x1, w0
     bcc:	eb20c29f 	cmp	x20, w0, sxtw
     bd0:	54000148 	b.hi	bf8 <__vsnprintf+0xa4>  // b.pmore
/home/ssysarch/Desktop/nick/jetpack_5/Jetson_Linux_R35.4.1_aarch64/Linux_for_Tegra/sources/tegra/optee-src/nv-optee/optee/optee_os/lib/libutils/ext/snprintk.c:147
     bd4:	381ff2df 	sturb	wzr, [x22, #-1]
/home/ssysarch/Desktop/nick/jetpack_5/Jetson_Linux_R35.4.1_aarch64/Linux_for_Tegra/sources/tegra/optee-src/nv-optee/optee/optee_os/lib/libutils/ext/snprintk.c:152
     bd8:	d0000085 	adrp	x5, 12000 <_DYNAMIC>
     bdc:	f94098a5 	ldr	x5, [x5, #304]
     be0:	f94037e1 	ldr	x1, [sp, #104]
     be4:	f94000a2 	ldr	x2, [x5]
     be8:	eb020021 	subs	x1, x1, x2
     bec:	d2800002 	mov	x2, #0x0                   	// #0
     bf0:	54000080 	b.eq	c00 <__vsnprintf+0xac>  // b.none
     bf4:	97fffe52 	bl	53c <__stack_chk_fail>
/home/ssysarch/Desktop/nick/jetpack_5/Jetson_Linux_R35.4.1_aarch64/Linux_for_Tegra/sources/tegra/optee-src/nv-optee/optee/optee_os/lib/libutils/ext/snprintk.c:149
     bf8:	38216a7f 	strb	wzr, [x19, x1]
/home/ssysarch/Desktop/nick/jetpack_5/Jetson_Linux_R35.4.1_aarch64/Linux_for_Tegra/sources/tegra/optee-src/nv-optee/optee/optee_os/lib/libutils/ext/snprintk.c:151
     bfc:	17fffff7 	b	bd8 <__vsnprintf+0x84>
/home/ssysarch/Desktop/nick/jetpack_5/Jetson_Linux_R35.4.1_aarch64/Linux_for_Tegra/sources/tegra/optee-src/nv-optee/optee/optee_os/lib/libutils/ext/snprintk.c:152
     c00:	a94153f3 	ldp	x19, x20, [sp, #16]
     c04:	a9425bf5 	ldp	x21, x22, [sp, #32]
     c08:	f9401bf7 	ldr	x23, [sp, #48]
     c0c:	a8c77bfd 	ldp	x29, x30, [sp], #112
     c10:	d65f03c0 	ret

0000000000000c14 <vsnprintk>:
vsnprintk():
/home/ssysarch/Desktop/nick/jetpack_5/Jetson_Linux_R35.4.1_aarch64/Linux_for_Tegra/sources/tegra/optee-src/nv-optee/optee/optee_os/lib/libutils/ext/snprintk.c:130
     c14:	a9bb7bfd 	stp	x29, x30, [sp, #-80]!
/home/ssysarch/Desktop/nick/jetpack_5/Jetson_Linux_R35.4.1_aarch64/Linux_for_Tegra/sources/tegra/optee-src/nv-optee/optee/optee_os/lib/libutils/ext/snprintk.c:131
     c18:	9100c3e4 	add	x4, sp, #0x30
/home/ssysarch/Desktop/nick/jetpack_5/Jetson_Linux_R35.4.1_aarch64/Linux_for_Tegra/sources/tegra/optee-src/nv-optee/optee/optee_os/lib/libutils/ext/snprintk.c:130
     c1c:	910003fd 	mov	x29, sp
     c20:	a90153f3 	stp	x19, x20, [sp, #16]
     c24:	aa0003f3 	mov	x19, x0
     c28:	aa0103f4 	mov	x20, x1
/home/ssysarch/Desktop/nick/jetpack_5/Jetson_Linux_R35.4.1_aarch64/Linux_for_Tegra/sources/tegra/optee-src/nv-optee/optee/optee_os/lib/libutils/ext/snprintk.c:131
     c2c:	aa0403e0 	mov	x0, x4
/home/ssysarch/Desktop/nick/jetpack_5/Jetson_Linux_R35.4.1_aarch64/Linux_for_Tegra/sources/tegra/optee-src/nv-optee/optee/optee_os/lib/libutils/ext/snprintk.c:130
     c30:	aa0303e1 	mov	x1, x3
     c34:	f90013f5 	str	x21, [sp, #32]
     c38:	aa0203f5 	mov	x21, x2
/home/ssysarch/Desktop/nick/jetpack_5/Jetson_Linux_R35.4.1_aarch64/Linux_for_Tegra/sources/tegra/optee-src/nv-optee/optee/optee_os/lib/libutils/ext/snprintk.c:131
     c3c:	d2800402 	mov	x2, #0x20                  	// #32
     c40:	97fffcf8 	bl	20 <memcpy>
     c44:	aa1503e2 	mov	x2, x21
     c48:	aa0003e3 	mov	x3, x0
     c4c:	aa1403e1 	mov	x1, x20
     c50:	aa1303e0 	mov	x0, x19
     c54:	52800024 	mov	w4, #0x1                   	// #1
     c58:	97ffffbf 	bl	b54 <__vsnprintf>
/home/ssysarch/Desktop/nick/jetpack_5/Jetson_Linux_R35.4.1_aarch64/Linux_for_Tegra/sources/tegra/optee-src/nv-optee/optee/optee_os/lib/libutils/ext/snprintk.c:132
     c5c:	a94153f3 	ldp	x19, x20, [sp, #16]
     c60:	f94013f5 	ldr	x21, [sp, #32]
     c64:	a8c57bfd 	ldp	x29, x30, [sp], #80
     c68:	d65f03c0 	ret

0000000000000c6c <snprintk>:
snprintk():
/home/ssysarch/Desktop/nick/jetpack_5/Jetson_Linux_R35.4.1_aarch64/Linux_for_Tegra/sources/tegra/optee-src/nv-optee/optee/optee_os/lib/libutils/ext/snprintk.c:113
     c6c:	a9ad7bfd 	stp	x29, x30, [sp, #-304]!
     c70:	910003fd 	mov	x29, sp
     c74:	a90153f3 	stp	x19, x20, [sp, #16]
     c78:	d0000093 	adrp	x19, 12000 <_DYNAMIC>
     c7c:	aa0003f4 	mov	x20, x0
     c80:	f9409a73 	ldr	x19, [x19, #304]
     c84:	3d8023e0 	str	q0, [sp, #128]
     c88:	3d8027e1 	str	q1, [sp, #144]
     c8c:	3d802be2 	str	q2, [sp, #160]
     c90:	3d802fe3 	str	q3, [sp, #176]
     c94:	3d8033e4 	str	q4, [sp, #192]
     c98:	3d8037e5 	str	q5, [sp, #208]
     c9c:	3d803be6 	str	q6, [sp, #224]
     ca0:	3d803fe7 	str	q7, [sp, #240]
     ca4:	a91093e3 	stp	x3, x4, [sp, #264]
/home/ssysarch/Desktop/nick/jetpack_5/Jetson_Linux_R35.4.1_aarch64/Linux_for_Tegra/sources/tegra/optee-src/nv-optee/optee/optee_os/lib/libutils/ext/snprintk.c:118
     ca8:	9100c3e3 	add	x3, sp, #0x30
/home/ssysarch/Desktop/nick/jetpack_5/Jetson_Linux_R35.4.1_aarch64/Linux_for_Tegra/sources/tegra/optee-src/nv-optee/optee/optee_os/lib/libutils/ext/snprintk.c:113
     cac:	a9119be5 	stp	x5, x6, [sp, #280]
     cb0:	f90097e7 	str	x7, [sp, #296]
     cb4:	a9025bf5 	stp	x21, x22, [sp, #32]
     cb8:	aa0103f5 	mov	x21, x1
     cbc:	f9400260 	ldr	x0, [x19]
     cc0:	f9003fe0 	str	x0, [sp, #120]
     cc4:	d2800000 	mov	x0, #0x0                   	// #0
/home/ssysarch/Desktop/nick/jetpack_5/Jetson_Linux_R35.4.1_aarch64/Linux_for_Tegra/sources/tegra/optee-src/nv-optee/optee/optee_os/lib/libutils/ext/snprintk.c:117
     cc8:	9104c3e0 	add	x0, sp, #0x130
     ccc:	a90583e0 	stp	x0, x0, [sp, #88]
     cd0:	910403e0 	add	x0, sp, #0x100
     cd4:	f90037e0 	str	x0, [sp, #104]
     cd8:	128004e0 	mov	w0, #0xffffffd8            	// #-40
     cdc:	b90073e0 	str	w0, [sp, #112]
     ce0:	12800fe0 	mov	w0, #0xffffff80            	// #-128
/home/ssysarch/Desktop/nick/jetpack_5/Jetson_Linux_R35.4.1_aarch64/Linux_for_Tegra/sources/tegra/optee-src/nv-optee/optee/optee_os/lib/libutils/ext/snprintk.c:113
     ce4:	aa0203f6 	mov	x22, x2
/home/ssysarch/Desktop/nick/jetpack_5/Jetson_Linux_R35.4.1_aarch64/Linux_for_Tegra/sources/tegra/optee-src/nv-optee/optee/optee_os/lib/libutils/ext/snprintk.c:118
     ce8:	910163e1 	add	x1, sp, #0x58
     cec:	d2800402 	mov	x2, #0x20                  	// #32
/home/ssysarch/Desktop/nick/jetpack_5/Jetson_Linux_R35.4.1_aarch64/Linux_for_Tegra/sources/tegra/optee-src/nv-optee/optee/optee_os/lib/libutils/ext/snprintk.c:117
     cf0:	b90077e0 	str	w0, [sp, #116]
/home/ssysarch/Desktop/nick/jetpack_5/Jetson_Linux_R35.4.1_aarch64/Linux_for_Tegra/sources/tegra/optee-src/nv-optee/optee/optee_os/lib/libutils/ext/snprintk.c:118
     cf4:	aa0303e0 	mov	x0, x3
     cf8:	97fffcca 	bl	20 <memcpy>
     cfc:	aa1603e2 	mov	x2, x22
     d00:	aa0003e3 	mov	x3, x0
     d04:	aa1503e1 	mov	x1, x21
     d08:	aa1403e0 	mov	x0, x20
     d0c:	97ffffc2 	bl	c14 <vsnprintk>
/home/ssysarch/Desktop/nick/jetpack_5/Jetson_Linux_R35.4.1_aarch64/Linux_for_Tegra/sources/tegra/optee-src/nv-optee/optee/optee_os/lib/libutils/ext/snprintk.c:122
     d10:	f9403fe1 	ldr	x1, [sp, #120]
     d14:	f9400262 	ldr	x2, [x19]
     d18:	eb020021 	subs	x1, x1, x2
     d1c:	d2800002 	mov	x2, #0x0                   	// #0
     d20:	54000040 	b.eq	d28 <snprintk+0xbc>  // b.none
     d24:	97fffe06 	bl	53c <__stack_chk_fail>
     d28:	a94153f3 	ldp	x19, x20, [sp, #16]
     d2c:	a9425bf5 	ldp	x21, x22, [sp, #32]
     d30:	a8d37bfd 	ldp	x29, x30, [sp], #304
     d34:	d65f03c0 	ret

0000000000000d38 <kprintf.constprop.0>:
kprintf():
/home/ssysarch/Desktop/nick/jetpack_5/Jetson_Linux_R35.4.1_aarch64/Linux_for_Tegra/sources/tegra/optee-src/nv-optee/optee/optee_os/lib/libutils/ext/snprintk.c:242
     d38:	d103c3ff 	sub	sp, sp, #0xf0
     d3c:	aa0103e8 	mov	x8, x1
     d40:	a9037bfd 	stp	x29, x30, [sp, #48]
     d44:	9100c3fd 	add	x29, sp, #0x30
     d48:	a90873fb 	stp	x27, x28, [sp, #128]
     d4c:	aa0003fb 	mov	x27, x0
     d50:	12001c80 	and	w0, w4, #0xff
     d54:	b900a3e0 	str	w0, [sp, #160]
     d58:	d0000080 	adrp	x0, 12000 <_DYNAMIC>
     d5c:	a90453f3 	stp	x19, x20, [sp, #64]
     d60:	b9401874 	ldr	w20, [x3, #24]
     d64:	f9409800 	ldr	x0, [x0, #304]
     d68:	a9055bf5 	stp	x21, x22, [sp, #80]
     d6c:	aa0203f6 	mov	x22, x2
     d70:	f9400001 	ldr	x1, [x0]
     d74:	f90077e1 	str	x1, [sp, #232]
     d78:	d2800001 	mov	x1, #0x0                   	// #0
     d7c:	a90663f7 	stp	x23, x24, [sp, #96]
     d80:	a9076bf9 	stp	x25, x26, [sp, #112]
     d84:	a9406873 	ldp	x19, x26, [x3]
/home/ssysarch/Desktop/nick/jetpack_5/Jetson_Linux_R35.4.1_aarch64/Linux_for_Tegra/sources/tegra/optee-src/nv-optee/optee/optee_os/lib/libutils/ext/snprintk.c:264
     d88:	b40004c8 	cbz	x8, e20 <kprintf.constprop.0+0xe8>
/home/ssysarch/Desktop/nick/jetpack_5/Jetson_Linux_R35.4.1_aarch64/Linux_for_Tegra/sources/tegra/optee-src/nv-optee/optee/optee_os/lib/libutils/ext/snprintk.c:265
     d8c:	f9400118 	ldr	x24, [x8]
/home/ssysarch/Desktop/nick/jetpack_5/Jetson_Linux_R35.4.1_aarch64/Linux_for_Tegra/sources/tegra/optee-src/nv-optee/optee/optee_os/lib/libutils/ext/snprintk.c:543
     d90:	910303ec 	add	x12, sp, #0xc0
     d94:	f0000060 	adrp	x0, f000 <__text_end+0x2054>
     d98:	9128f000 	add	x0, x0, #0xa3c
/home/ssysarch/Desktop/nick/jetpack_5/Jetson_Linux_R35.4.1_aarch64/Linux_for_Tegra/sources/tegra/optee-src/nv-optee/optee/optee_os/lib/libutils/ext/snprintk.c:275
     d9c:	d2800017 	mov	x23, #0x0                   	// #0
/home/ssysarch/Desktop/nick/jetpack_5/Jetson_Linux_R35.4.1_aarch64/Linux_for_Tegra/sources/tegra/optee-src/nv-optee/optee/optee_os/lib/libutils/ext/snprintk.c:273
     da0:	52800019 	mov	w25, #0x0                   	// #0
     da4:	f9004be0 	str	x0, [sp, #144]
/home/ssysarch/Desktop/nick/jetpack_5/Jetson_Linux_R35.4.1_aarch64/Linux_for_Tegra/sources/tegra/optee-src/nv-optee/optee/optee_os/lib/libutils/ext/snprintk.c:281
     da8:	39400360 	ldrb	w0, [x27]
     dac:	7100941f 	cmp	w0, #0x25
     db0:	7a401804 	ccmp	w0, #0x0, #0x4, ne  // ne = any
     db4:	540003a1 	b.ne	e28 <kprintf.constprop.0+0xf0>  // b.any
/home/ssysarch/Desktop/nick/jetpack_5/Jetson_Linux_R35.4.1_aarch64/Linux_for_Tegra/sources/tegra/optee-src/nv-optee/optee/optee_os/lib/libutils/ext/snprintk.c:285
     db8:	34005260 	cbz	w0, 1804 <kprintf.constprop.0+0xacc>
/home/ssysarch/Desktop/nick/jetpack_5/Jetson_Linux_R35.4.1_aarch64/Linux_for_Tegra/sources/tegra/optee-src/nv-optee/optee/optee_os/lib/libutils/ext/snprintk.c:293
     dbc:	12800005 	mov	w5, #0xffffffff            	// #-1
     dc0:	f0000066 	adrp	x6, f000 <__text_end+0x2054>
     dc4:	912960c6 	add	x6, x6, #0xa58
/home/ssysarch/Desktop/nick/jetpack_5/Jetson_Linux_R35.4.1_aarch64/Linux_for_Tegra/sources/tegra/optee-src/nv-optee/optee/optee_os/lib/libutils/ext/snprintk.c:288
     dc8:	9100077b 	add	x27, x27, #0x1
     dcc:	2a1403e4 	mov	w4, w20
     dd0:	aa1303e3 	mov	x3, x19
/home/ssysarch/Desktop/nick/jetpack_5/Jetson_Linux_R35.4.1_aarch64/Linux_for_Tegra/sources/tegra/optee-src/nv-optee/optee/optee_os/lib/libutils/ext/snprintk.c:330
     dd4:	2a0503ee 	mov	w14, w5
/home/ssysarch/Desktop/nick/jetpack_5/Jetson_Linux_R35.4.1_aarch64/Linux_for_Tegra/sources/tegra/optee-src/nv-optee/optee/optee_os/lib/libutils/ext/snprintk.c:294
     dd8:	52800001 	mov	w1, #0x0                   	// #0
/home/ssysarch/Desktop/nick/jetpack_5/Jetson_Linux_R35.4.1_aarch64/Linux_for_Tegra/sources/tegra/optee-src/nv-optee/optee/optee_os/lib/libutils/ext/snprintk.c:292
     ddc:	5280000a 	mov	w10, #0x0                   	// #0
/home/ssysarch/Desktop/nick/jetpack_5/Jetson_Linux_R35.4.1_aarch64/Linux_for_Tegra/sources/tegra/optee-src/nv-optee/optee/optee_os/lib/libutils/ext/snprintk.c:290
     de0:	52800015 	mov	w21, #0x0                   	// #0
/home/ssysarch/Desktop/nick/jetpack_5/Jetson_Linux_R35.4.1_aarch64/Linux_for_Tegra/sources/tegra/optee-src/nv-optee/optee/optee_os/lib/libutils/ext/snprintk.c:352
     de4:	5280014d 	mov	w13, #0xa                   	// #10
/home/ssysarch/Desktop/nick/jetpack_5/Jetson_Linux_R35.4.1_aarch64/Linux_for_Tegra/sources/tegra/optee-src/nv-optee/optee/optee_os/lib/libutils/ext/snprintk.c:305
     de8:	5280040f 	mov	w15, #0x20                  	// #32
/home/ssysarch/Desktop/nick/jetpack_5/Jetson_Linux_R35.4.1_aarch64/Linux_for_Tegra/sources/tegra/optee-src/nv-optee/optee/optee_os/lib/libutils/ext/snprintk.c:296
     dec:	3840177c 	ldrb	w28, [x27], #1
/home/ssysarch/Desktop/nick/jetpack_5/Jetson_Linux_R35.4.1_aarch64/Linux_for_Tegra/sources/tegra/optee-src/nv-optee/optee/optee_os/lib/libutils/ext/snprintk.c:297
     df0:	7100e79f 	cmp	w28, #0x39
     df4:	5400054c 	b.gt	e9c <kprintf.constprop.0+0x164>
     df8:	71007f9f 	cmp	w28, #0x1f
     dfc:	5400502d 	b.le	1800 <kprintf.constprop.0+0xac8>
     e00:	51008380 	sub	w0, w28, #0x20
     e04:	7100641f 	cmp	w0, #0x19
     e08:	54000508 	b.hi	ea8 <kprintf.constprop.0+0x170>  // b.pmore
     e0c:	f9404be2 	ldr	x2, [sp, #144]
     e10:	38604840 	ldrb	w0, [x2, w0, uxtw]
     e14:	10000062 	adr	x2, e20 <kprintf.constprop.0+0xe8>
     e18:	8b208840 	add	x0, x2, w0, sxtb #2
     e1c:	d61f0000 	br	x0
/home/ssysarch/Desktop/nick/jetpack_5/Jetson_Linux_R35.4.1_aarch64/Linux_for_Tegra/sources/tegra/optee-src/nv-optee/optee/optee_os/lib/libutils/ext/snprintk.c:267
     e20:	d2800018 	mov	x24, #0x0                   	// #0
     e24:	17ffffdb 	b	d90 <kprintf.constprop.0+0x58>
/home/ssysarch/Desktop/nick/jetpack_5/Jetson_Linux_R35.4.1_aarch64/Linux_for_Tegra/sources/tegra/optee-src/nv-optee/optee/optee_os/lib/libutils/ext/snprintk.c:282
     e28:	11000739 	add	w25, w25, #0x1
/home/ssysarch/Desktop/nick/jetpack_5/Jetson_Linux_R35.4.1_aarch64/Linux_for_Tegra/sources/tegra/optee-src/nv-optee/optee/optee_os/lib/libutils/ext/snprintk.c:283
     e2c:	b40000b6 	cbz	x22, e40 <kprintf.constprop.0+0x108>
     e30:	f100011f 	cmp	x8, #0x0
     e34:	fa5812c0 	ccmp	x22, x24, #0x0, ne  // ne = any
     e38:	54000042 	b.cs	e40 <kprintf.constprop.0+0x108>  // b.hs, b.nlast
     e3c:	380016c0 	strb	w0, [x22], #1
/home/ssysarch/Desktop/nick/jetpack_5/Jetson_Linux_R35.4.1_aarch64/Linux_for_Tegra/sources/tegra/optee-src/nv-optee/optee/optee_os/lib/libutils/ext/snprintk.c:281
     e40:	9100077b 	add	x27, x27, #0x1
     e44:	17ffffd9 	b	da8 <kprintf.constprop.0+0x70>
/home/ssysarch/Desktop/nick/jetpack_5/Jetson_Linux_R35.4.1_aarch64/Linux_for_Tegra/sources/tegra/optee-src/nv-optee/optee/optee_os/lib/libutils/ext/snprintk.c:325
     e48:	52800561 	mov	w1, #0x2b                  	// #43
     e4c:	17ffffe8 	b	dec <kprintf.constprop.0+0xb4>
     e50:	786058c0 	ldrh	w0, [x6, w0, uxtw #1]
     e54:	10000062 	adr	x2, e60 <kprintf.constprop.0+0x128>
     e58:	8b20a840 	add	x0, x2, w0, sxth #2
     e5c:	d61f0000 	br	x0
/home/ssysarch/Desktop/nick/jetpack_5/Jetson_Linux_R35.4.1_aarch64/Linux_for_Tegra/sources/tegra/optee-src/nv-optee/optee/optee_os/lib/libutils/ext/snprintk.c:480
     e60:	f0000077 	adrp	x23, f000 <__text_end+0x2054>
     e64:	912b1af7 	add	x23, x23, #0xac6
     e68:	910046f7 	add	x23, x23, #0x11
/home/ssysarch/Desktop/nick/jetpack_5/Jetson_Linux_R35.4.1_aarch64/Linux_for_Tegra/sources/tegra/optee-src/nv-optee/optee/optee_os/lib/libutils/ext/snprintk.c:481
     e6c:	36384515 	tbz	w21, #7, 170c <kprintf.constprop.0+0x9d4>
     e70:	37f84644 	tbnz	w4, #31, 1738 <kprintf.constprop.0+0xa00>
     e74:	91003c73 	add	x19, x3, #0xf
     e78:	2a0403f4 	mov	w20, w4
     e7c:	927df273 	and	x19, x19, #0xfffffffffffffff8
     e80:	f9400062 	ldr	x2, [x3]
/home/ssysarch/Desktop/nick/jetpack_5/Jetson_Linux_R35.4.1_aarch64/Linux_for_Tegra/sources/tegra/optee-src/nv-optee/optee/optee_os/lib/libutils/ext/snprintk.c:484
     e84:	36003475 	tbz	w21, #0, 1510 <kprintf.constprop.0+0x7d8>
     e88:	b4003442 	cbz	x2, 1510 <kprintf.constprop.0+0x7d8>
/home/ssysarch/Desktop/nick/jetpack_5/Jetson_Linux_R35.4.1_aarch64/Linux_for_Tegra/sources/tegra/optee-src/nv-optee/optee/optee_os/lib/libutils/ext/snprintk.c:485
     e8c:	321f02b5 	orr	w21, w21, #0x2
/home/ssysarch/Desktop/nick/jetpack_5/Jetson_Linux_R35.4.1_aarch64/Linux_for_Tegra/sources/tegra/optee-src/nv-optee/optee/optee_os/lib/libutils/ext/snprintk.c:482
     e90:	52800040 	mov	w0, #0x2                   	// #2
/home/ssysarch/Desktop/nick/jetpack_5/Jetson_Linux_R35.4.1_aarch64/Linux_for_Tegra/sources/tegra/optee-src/nv-optee/optee/optee_os/lib/libutils/ext/snprintk.c:488
     e94:	52800001 	mov	w1, #0x0                   	// #0
     e98:	14000078 	b	1078 <kprintf.constprop.0+0x340>
/home/ssysarch/Desktop/nick/jetpack_5/Jetson_Linux_R35.4.1_aarch64/Linux_for_Tegra/sources/tegra/optee-src/nv-optee/optee/optee_os/lib/libutils/ext/snprintk.c:297
     e9c:	51011380 	sub	w0, w28, #0x44
     ea0:	7100d81f 	cmp	w0, #0x36
     ea4:	54fffd69 	b.ls	e50 <kprintf.constprop.0+0x118>  // b.plast
/home/ssysarch/Desktop/nick/jetpack_5/Jetson_Linux_R35.4.1_aarch64/Linux_for_Tegra/sources/tegra/optee-src/nv-optee/optee/optee_os/lib/libutils/ext/snprintk.c:554
     ea8:	2a0403f4 	mov	w20, w4
     eac:	aa0303f3 	mov	x19, x3
/home/ssysarch/Desktop/nick/jetpack_5/Jetson_Linux_R35.4.1_aarch64/Linux_for_Tegra/sources/tegra/optee-src/nv-optee/optee/optee_os/lib/libutils/ext/snprintk.c:551
     eb0:	390303fc 	strb	w28, [sp, #192]
/home/ssysarch/Desktop/nick/jetpack_5/Jetson_Linux_R35.4.1_aarch64/Linux_for_Tegra/sources/tegra/optee-src/nv-optee/optee/optee_os/lib/libutils/ext/snprintk.c:554
     eb4:	14000058 	b	1014 <kprintf.constprop.0+0x2dc>
/home/ssysarch/Desktop/nick/jetpack_5/Jetson_Linux_R35.4.1_aarch64/Linux_for_Tegra/sources/tegra/optee-src/nv-optee/optee/optee_os/lib/libutils/ext/snprintk.c:305
     eb8:	7100003f 	cmp	w1, #0x0
     ebc:	1a8f1021 	csel	w1, w1, w15, ne  // ne = any
     ec0:	17ffffcb 	b	dec <kprintf.constprop.0+0xb4>
/home/ssysarch/Desktop/nick/jetpack_5/Jetson_Linux_R35.4.1_aarch64/Linux_for_Tegra/sources/tegra/optee-src/nv-optee/optee/optee_os/lib/libutils/ext/snprintk.c:308
     ec4:	320002b5 	orr	w21, w21, #0x1
/home/ssysarch/Desktop/nick/jetpack_5/Jetson_Linux_R35.4.1_aarch64/Linux_for_Tegra/sources/tegra/optee-src/nv-optee/optee/optee_os/lib/libutils/ext/snprintk.c:309
     ec8:	17ffffc9 	b	dec <kprintf.constprop.0+0xb4>
/home/ssysarch/Desktop/nick/jetpack_5/Jetson_Linux_R35.4.1_aarch64/Linux_for_Tegra/sources/tegra/optee-src/nv-optee/optee/optee_os/lib/libutils/ext/snprintk.c:317
     ecc:	37f80124 	tbnz	w4, #31, ef0 <kprintf.constprop.0+0x1b8>
     ed0:	91002c62 	add	x2, x3, #0xb
     ed4:	aa0303e0 	mov	x0, x3
     ed8:	927df043 	and	x3, x2, #0xfffffffffffffff8
     edc:	b940000a 	ldr	w10, [x0]
     ee0:	36fff86a 	tbz	w10, #31, dec <kprintf.constprop.0+0xb4>
/home/ssysarch/Desktop/nick/jetpack_5/Jetson_Linux_R35.4.1_aarch64/Linux_for_Tegra/sources/tegra/optee-src/nv-optee/optee/optee_os/lib/libutils/ext/snprintk.c:319
     ee4:	4b0a03ea 	neg	w10, w10
/home/ssysarch/Desktop/nick/jetpack_5/Jetson_Linux_R35.4.1_aarch64/Linux_for_Tegra/sources/tegra/optee-src/nv-optee/optee/optee_os/lib/libutils/ext/snprintk.c:322
     ee8:	321e02b5 	orr	w21, w21, #0x4
/home/ssysarch/Desktop/nick/jetpack_5/Jetson_Linux_R35.4.1_aarch64/Linux_for_Tegra/sources/tegra/optee-src/nv-optee/optee/optee_os/lib/libutils/ext/snprintk.c:323
     eec:	17ffffc0 	b	dec <kprintf.constprop.0+0xb4>
/home/ssysarch/Desktop/nick/jetpack_5/Jetson_Linux_R35.4.1_aarch64/Linux_for_Tegra/sources/tegra/optee-src/nv-optee/optee/optee_os/lib/libutils/ext/snprintk.c:317
     ef0:	11002082 	add	w2, w4, #0x8
     ef4:	7100005f 	cmp	w2, #0x0
     ef8:	540000cd 	b.le	f10 <kprintf.constprop.0+0x1d8>
     efc:	91002c67 	add	x7, x3, #0xb
     f00:	aa0303e0 	mov	x0, x3
     f04:	2a0203e4 	mov	w4, w2
     f08:	927df0e3 	and	x3, x7, #0xfffffffffffffff8
     f0c:	17fffff4 	b	edc <kprintf.constprop.0+0x1a4>
     f10:	8b24c340 	add	x0, x26, w4, sxtw
     f14:	2a0203e4 	mov	w4, w2
     f18:	17fffff1 	b	edc <kprintf.constprop.0+0x1a4>
/home/ssysarch/Desktop/nick/jetpack_5/Jetson_Linux_R35.4.1_aarch64/Linux_for_Tegra/sources/tegra/optee-src/nv-optee/optee/optee_os/lib/libutils/ext/snprintk.c:328
     f1c:	3840177c 	ldrb	w28, [x27], #1
     f20:	7100ab9f 	cmp	w28, #0x2a
     f24:	54000341 	b.ne	f8c <kprintf.constprop.0+0x254>  // b.any
/home/ssysarch/Desktop/nick/jetpack_5/Jetson_Linux_R35.4.1_aarch64/Linux_for_Tegra/sources/tegra/optee-src/nv-optee/optee/optee_os/lib/libutils/ext/snprintk.c:329
     f28:	37f80144 	tbnz	w4, #31, f50 <kprintf.constprop.0+0x218>
     f2c:	91002c62 	add	x2, x3, #0xb
     f30:	2a0403e7 	mov	w7, w4
     f34:	927df042 	and	x2, x2, #0xfffffffffffffff8
/home/ssysarch/Desktop/nick/jetpack_5/Jetson_Linux_R35.4.1_aarch64/Linux_for_Tegra/sources/tegra/optee-src/nv-optee/optee/optee_os/lib/libutils/ext/snprintk.c:330
     f38:	b9400065 	ldr	w5, [x3]
/home/ssysarch/Desktop/nick/jetpack_5/Jetson_Linux_R35.4.1_aarch64/Linux_for_Tegra/sources/tegra/optee-src/nv-optee/optee/optee_os/lib/libutils/ext/snprintk.c:331
     f3c:	2a0703e4 	mov	w4, w7
     f40:	aa0203e3 	mov	x3, x2
/home/ssysarch/Desktop/nick/jetpack_5/Jetson_Linux_R35.4.1_aarch64/Linux_for_Tegra/sources/tegra/optee-src/nv-optee/optee/optee_os/lib/libutils/ext/snprintk.c:330
     f44:	710000bf 	cmp	w5, #0x0
     f48:	1a8ea0a5 	csel	w5, w5, w14, ge  // ge = tcont
/home/ssysarch/Desktop/nick/jetpack_5/Jetson_Linux_R35.4.1_aarch64/Linux_for_Tegra/sources/tegra/optee-src/nv-optee/optee/optee_os/lib/libutils/ext/snprintk.c:331
     f4c:	17ffffa8 	b	dec <kprintf.constprop.0+0xb4>
/home/ssysarch/Desktop/nick/jetpack_5/Jetson_Linux_R35.4.1_aarch64/Linux_for_Tegra/sources/tegra/optee-src/nv-optee/optee/optee_os/lib/libutils/ext/snprintk.c:329
     f50:	11002087 	add	w7, w4, #0x8
     f54:	710000ff 	cmp	w7, #0x0
     f58:	5400008d 	b.le	f68 <kprintf.constprop.0+0x230>
     f5c:	91002c62 	add	x2, x3, #0xb
     f60:	927df042 	and	x2, x2, #0xfffffffffffffff8
     f64:	17fffff5 	b	f38 <kprintf.constprop.0+0x200>
     f68:	aa0303e2 	mov	x2, x3
     f6c:	8b24c343 	add	x3, x26, w4, sxtw
     f70:	17fffff2 	b	f38 <kprintf.constprop.0+0x200>
/home/ssysarch/Desktop/nick/jetpack_5/Jetson_Linux_R35.4.1_aarch64/Linux_for_Tegra/sources/tegra/optee-src/nv-optee/optee/optee_os/lib/libutils/ext/snprintk.c:335
     f74:	1b0d00a5 	madd	w5, w5, w13, w0
/home/ssysarch/Desktop/nick/jetpack_5/Jetson_Linux_R35.4.1_aarch64/Linux_for_Tegra/sources/tegra/optee-src/nv-optee/optee/optee_os/lib/libutils/ext/snprintk.c:336
     f78:	3840177c 	ldrb	w28, [x27], #1
/home/ssysarch/Desktop/nick/jetpack_5/Jetson_Linux_R35.4.1_aarch64/Linux_for_Tegra/sources/tegra/optee-src/nv-optee/optee/optee_os/lib/libutils/ext/snprintk.c:334
     f7c:	5100c380 	sub	w0, w28, #0x30
     f80:	7100241f 	cmp	w0, #0x9
     f84:	54ffff89 	b.ls	f74 <kprintf.constprop.0+0x23c>  // b.plast
     f88:	17ffff9a 	b	df0 <kprintf.constprop.0+0xb8>
/home/ssysarch/Desktop/nick/jetpack_5/Jetson_Linux_R35.4.1_aarch64/Linux_for_Tegra/sources/tegra/optee-src/nv-optee/optee/optee_os/lib/libutils/ext/snprintk.c:333
     f8c:	52800005 	mov	w5, #0x0                   	// #0
     f90:	17fffffb 	b	f7c <kprintf.constprop.0+0x244>
/home/ssysarch/Desktop/nick/jetpack_5/Jetson_Linux_R35.4.1_aarch64/Linux_for_Tegra/sources/tegra/optee-src/nv-optee/optee/optee_os/lib/libutils/ext/snprintk.c:346
     f94:	321602b5 	orr	w21, w21, #0x400
/home/ssysarch/Desktop/nick/jetpack_5/Jetson_Linux_R35.4.1_aarch64/Linux_for_Tegra/sources/tegra/optee-src/nv-optee/optee/optee_os/lib/libutils/ext/snprintk.c:347
     f98:	17ffff95 	b	dec <kprintf.constprop.0+0xb4>
/home/ssysarch/Desktop/nick/jetpack_5/Jetson_Linux_R35.4.1_aarch64/Linux_for_Tegra/sources/tegra/optee-src/nv-optee/optee/optee_os/lib/libutils/ext/snprintk.c:297
     f9c:	5280000a 	mov	w10, #0x0                   	// #0
/home/ssysarch/Desktop/nick/jetpack_5/Jetson_Linux_R35.4.1_aarch64/Linux_for_Tegra/sources/tegra/optee-src/nv-optee/optee/optee_os/lib/libutils/ext/snprintk.c:352
     fa0:	5100c39c 	sub	w28, w28, #0x30
     fa4:	1b0d714a 	madd	w10, w10, w13, w28
/home/ssysarch/Desktop/nick/jetpack_5/Jetson_Linux_R35.4.1_aarch64/Linux_for_Tegra/sources/tegra/optee-src/nv-optee/optee/optee_os/lib/libutils/ext/snprintk.c:353
     fa8:	3840177c 	ldrb	w28, [x27], #1
/home/ssysarch/Desktop/nick/jetpack_5/Jetson_Linux_R35.4.1_aarch64/Linux_for_Tegra/sources/tegra/optee-src/nv-optee/optee/optee_os/lib/libutils/ext/snprintk.c:354
     fac:	5100c380 	sub	w0, w28, #0x30
     fb0:	7100241f 	cmp	w0, #0x9
     fb4:	54ffff69 	b.ls	fa0 <kprintf.constprop.0+0x268>  // b.plast
     fb8:	17ffff8e 	b	df0 <kprintf.constprop.0+0xb8>
/home/ssysarch/Desktop/nick/jetpack_5/Jetson_Linux_R35.4.1_aarch64/Linux_for_Tegra/sources/tegra/optee-src/nv-optee/optee/optee_os/lib/libutils/ext/snprintk.c:358
     fbc:	321a02b5 	orr	w21, w21, #0x40
/home/ssysarch/Desktop/nick/jetpack_5/Jetson_Linux_R35.4.1_aarch64/Linux_for_Tegra/sources/tegra/optee-src/nv-optee/optee/optee_os/lib/libutils/ext/snprintk.c:359
     fc0:	17ffff8b 	b	dec <kprintf.constprop.0+0xb4>
/home/ssysarch/Desktop/nick/jetpack_5/Jetson_Linux_R35.4.1_aarch64/Linux_for_Tegra/sources/tegra/optee-src/nv-optee/optee/optee_os/lib/libutils/ext/snprintk.c:361
     fc4:	321902b5 	orr	w21, w21, #0x80
/home/ssysarch/Desktop/nick/jetpack_5/Jetson_Linux_R35.4.1_aarch64/Linux_for_Tegra/sources/tegra/optee-src/nv-optee/optee/optee_os/lib/libutils/ext/snprintk.c:362
     fc8:	17ffff89 	b	dec <kprintf.constprop.0+0xb4>
/home/ssysarch/Desktop/nick/jetpack_5/Jetson_Linux_R35.4.1_aarch64/Linux_for_Tegra/sources/tegra/optee-src/nv-optee/optee/optee_os/lib/libutils/ext/snprintk.c:364
     fcc:	39400360 	ldrb	w0, [x27]
     fd0:	7101b01f 	cmp	w0, #0x6c
     fd4:	54000081 	b.ne	fe4 <kprintf.constprop.0+0x2ac>  // b.any
     fd8:	9100077b 	add	x27, x27, #0x1
/home/ssysarch/Desktop/nick/jetpack_5/Jetson_Linux_R35.4.1_aarch64/Linux_for_Tegra/sources/tegra/optee-src/nv-optee/optee/optee_os/lib/libutils/ext/snprintk.c:372
     fdc:	321b02b5 	orr	w21, w21, #0x20
/home/ssysarch/Desktop/nick/jetpack_5/Jetson_Linux_R35.4.1_aarch64/Linux_for_Tegra/sources/tegra/optee-src/nv-optee/optee/optee_os/lib/libutils/ext/snprintk.c:373
     fe0:	17ffff83 	b	dec <kprintf.constprop.0+0xb4>
/home/ssysarch/Desktop/nick/jetpack_5/Jetson_Linux_R35.4.1_aarch64/Linux_for_Tegra/sources/tegra/optee-src/nv-optee/optee/optee_os/lib/libutils/ext/snprintk.c:368
     fe4:	321c02b5 	orr	w21, w21, #0x10
     fe8:	17ffff81 	b	dec <kprintf.constprop.0+0xb4>
/home/ssysarch/Desktop/nick/jetpack_5/Jetson_Linux_R35.4.1_aarch64/Linux_for_Tegra/sources/tegra/optee-src/nv-optee/optee/optee_os/lib/libutils/ext/snprintk.c:375
     fec:	321802b5 	orr	w21, w21, #0x100
/home/ssysarch/Desktop/nick/jetpack_5/Jetson_Linux_R35.4.1_aarch64/Linux_for_Tegra/sources/tegra/optee-src/nv-optee/optee/optee_os/lib/libutils/ext/snprintk.c:376
     ff0:	17ffff7f 	b	dec <kprintf.constprop.0+0xb4>
/home/ssysarch/Desktop/nick/jetpack_5/Jetson_Linux_R35.4.1_aarch64/Linux_for_Tegra/sources/tegra/optee-src/nv-optee/optee/optee_os/lib/libutils/ext/snprintk.c:378
     ff4:	321702b5 	orr	w21, w21, #0x200
/home/ssysarch/Desktop/nick/jetpack_5/Jetson_Linux_R35.4.1_aarch64/Linux_for_Tegra/sources/tegra/optee-src/nv-optee/optee/optee_os/lib/libutils/ext/snprintk.c:379
     ff8:	17ffff7d 	b	dec <kprintf.constprop.0+0xb4>
/home/ssysarch/Desktop/nick/jetpack_5/Jetson_Linux_R35.4.1_aarch64/Linux_for_Tegra/sources/tegra/optee-src/nv-optee/optee/optee_os/lib/libutils/ext/snprintk.c:381
     ffc:	37f80164 	tbnz	w4, #31, 1028 <kprintf.constprop.0+0x2f0>
    1000:	91002c73 	add	x19, x3, #0xb
    1004:	2a0403f4 	mov	w20, w4
    1008:	927df273 	and	x19, x19, #0xfffffffffffffff8
    100c:	b9400060 	ldr	w0, [x3]
    1010:	390303e0 	strb	w0, [sp, #192]
/home/ssysarch/Desktop/nick/jetpack_5/Jetson_Linux_R35.4.1_aarch64/Linux_for_Tegra/sources/tegra/optee-src/nv-optee/optee/optee_os/lib/libutils/ext/snprintk.c:550
    1014:	910303e3 	add	x3, sp, #0xc0
/home/ssysarch/Desktop/nick/jetpack_5/Jetson_Linux_R35.4.1_aarch64/Linux_for_Tegra/sources/tegra/optee-src/nv-optee/optee/optee_os/lib/libutils/ext/snprintk.c:552
    1018:	52800025 	mov	w5, #0x1                   	// #1
/home/ssysarch/Desktop/nick/jetpack_5/Jetson_Linux_R35.4.1_aarch64/Linux_for_Tegra/sources/tegra/optee-src/nv-optee/optee/optee_os/lib/libutils/ext/snprintk.c:291
    101c:	52800006 	mov	w6, #0x0                   	// #0
/home/ssysarch/Desktop/nick/jetpack_5/Jetson_Linux_R35.4.1_aarch64/Linux_for_Tegra/sources/tegra/optee-src/nv-optee/optee/optee_os/lib/libutils/ext/snprintk.c:553
    1020:	52800001 	mov	w1, #0x0                   	// #0
/home/ssysarch/Desktop/nick/jetpack_5/Jetson_Linux_R35.4.1_aarch64/Linux_for_Tegra/sources/tegra/optee-src/nv-optee/optee/optee_os/lib/libutils/ext/snprintk.c:554
    1024:	140000fa 	b	140c <kprintf.constprop.0+0x6d4>
/home/ssysarch/Desktop/nick/jetpack_5/Jetson_Linux_R35.4.1_aarch64/Linux_for_Tegra/sources/tegra/optee-src/nv-optee/optee/optee_os/lib/libutils/ext/snprintk.c:381
    1028:	11002094 	add	w20, w4, #0x8
    102c:	7100029f 	cmp	w20, #0x0
    1030:	5400008d 	b.le	1040 <kprintf.constprop.0+0x308>
    1034:	91002c73 	add	x19, x3, #0xb
    1038:	927df273 	and	x19, x19, #0xfffffffffffffff8
    103c:	17fffff4 	b	100c <kprintf.constprop.0+0x2d4>
    1040:	aa0303f3 	mov	x19, x3
    1044:	8b24c343 	add	x3, x26, w4, sxtw
    1048:	17fffff1 	b	100c <kprintf.constprop.0+0x2d4>
/home/ssysarch/Desktop/nick/jetpack_5/Jetson_Linux_R35.4.1_aarch64/Linux_for_Tegra/sources/tegra/optee-src/nv-optee/optee/optee_os/lib/libutils/ext/snprintk.c:386
    104c:	321c02b5 	orr	w21, w21, #0x10
/home/ssysarch/Desktop/nick/jetpack_5/Jetson_Linux_R35.4.1_aarch64/Linux_for_Tegra/sources/tegra/optee-src/nv-optee/optee/optee_os/lib/libutils/ext/snprintk.c:390
    1050:	363802f5 	tbz	w21, #7, 10ac <kprintf.constprop.0+0x374>
    1054:	37f80424 	tbnz	w4, #31, 10d8 <kprintf.constprop.0+0x3a0>
    1058:	91003c73 	add	x19, x3, #0xf
    105c:	2a0403f4 	mov	w20, w4
    1060:	927df273 	and	x19, x19, #0xfffffffffffffff8
    1064:	f9400062 	ldr	x2, [x3]
/home/ssysarch/Desktop/nick/jetpack_5/Jetson_Linux_R35.4.1_aarch64/Linux_for_Tegra/sources/tegra/optee-src/nv-optee/optee/optee_os/lib/libutils/ext/snprintk.c:391
    1068:	b6f82e02 	tbz	x2, #63, 1628 <kprintf.constprop.0+0x8f0>
/home/ssysarch/Desktop/nick/jetpack_5/Jetson_Linux_R35.4.1_aarch64/Linux_for_Tegra/sources/tegra/optee-src/nv-optee/optee/optee_os/lib/libutils/ext/snprintk.c:392
    106c:	cb0203e2 	neg	x2, x2
/home/ssysarch/Desktop/nick/jetpack_5/Jetson_Linux_R35.4.1_aarch64/Linux_for_Tegra/sources/tegra/optee-src/nv-optee/optee/optee_os/lib/libutils/ext/snprintk.c:395
    1070:	52800020 	mov	w0, #0x1                   	// #1
/home/ssysarch/Desktop/nick/jetpack_5/Jetson_Linux_R35.4.1_aarch64/Linux_for_Tegra/sources/tegra/optee-src/nv-optee/optee/optee_os/lib/libutils/ext/snprintk.c:393
    1074:	528005a1 	mov	w1, #0x2d                  	// #45
/home/ssysarch/Desktop/nick/jetpack_5/Jetson_Linux_R35.4.1_aarch64/Linux_for_Tegra/sources/tegra/optee-src/nv-optee/optee/optee_os/lib/libutils/ext/snprintk.c:494
    1078:	310004bf 	cmn	w5, #0x1
    107c:	54003a21 	b.ne	17c0 <kprintf.constprop.0+0xa88>  // b.any
/home/ssysarch/Desktop/nick/jetpack_5/Jetson_Linux_R35.4.1_aarch64/Linux_for_Tegra/sources/tegra/optee-src/nv-optee/optee/optee_os/lib/libutils/ext/snprintk.c:509
    1080:	7100041f 	cmp	w0, #0x1
    1084:	54002d60 	b.eq	1630 <kprintf.constprop.0+0x8f8>  // b.none
    1088:	7100081f 	cmp	w0, #0x2
    108c:	54000ea1 	b.ne	1260 <kprintf.constprop.0+0x528>  // b.any
/home/ssysarch/Desktop/nick/jetpack_5/Jetson_Linux_R35.4.1_aarch64/Linux_for_Tegra/sources/tegra/optee-src/nv-optee/optee/optee_os/lib/libutils/ext/snprintk.c:502
    1090:	91009583 	add	x3, x12, #0x25
/home/ssysarch/Desktop/nick/jetpack_5/Jetson_Linux_R35.4.1_aarch64/Linux_for_Tegra/sources/tegra/optee-src/nv-optee/optee/optee_os/lib/libutils/ext/snprintk.c:531
    1094:	92400c40 	and	x0, x2, #0xf
/home/ssysarch/Desktop/nick/jetpack_5/Jetson_Linux_R35.4.1_aarch64/Linux_for_Tegra/sources/tegra/optee-src/nv-optee/optee/optee_os/lib/libutils/ext/snprintk.c:532
    1098:	d344fc42 	lsr	x2, x2, #4
/home/ssysarch/Desktop/nick/jetpack_5/Jetson_Linux_R35.4.1_aarch64/Linux_for_Tegra/sources/tegra/optee-src/nv-optee/optee/optee_os/lib/libutils/ext/snprintk.c:531
    109c:	38606ae0 	ldrb	w0, [x23, x0]
    10a0:	381ffc60 	strb	w0, [x3, #-1]!
/home/ssysarch/Desktop/nick/jetpack_5/Jetson_Linux_R35.4.1_aarch64/Linux_for_Tegra/sources/tegra/optee-src/nv-optee/optee/optee_os/lib/libutils/ext/snprintk.c:533
    10a4:	b5ffff82 	cbnz	x2, 1094 <kprintf.constprop.0+0x35c>
    10a8:	1400007b 	b	1294 <kprintf.constprop.0+0x55c>
/home/ssysarch/Desktop/nick/jetpack_5/Jetson_Linux_R35.4.1_aarch64/Linux_for_Tegra/sources/tegra/optee-src/nv-optee/optee/optee_os/lib/libutils/ext/snprintk.c:390
    10ac:	3747fd55 	tbnz	w21, #8, 1054 <kprintf.constprop.0+0x31c>
    10b0:	374ffd35 	tbnz	w21, #9, 1054 <kprintf.constprop.0+0x31c>
    10b4:	372ffd15 	tbnz	w21, #5, 1054 <kprintf.constprop.0+0x31c>
    10b8:	3727fcf5 	tbnz	w21, #4, 1054 <kprintf.constprop.0+0x31c>
    10bc:	36300335 	tbz	w21, #6, 1120 <kprintf.constprop.0+0x3e8>
    10c0:	37f801e4 	tbnz	w4, #31, 10fc <kprintf.constprop.0+0x3c4>
    10c4:	91002c73 	add	x19, x3, #0xb
    10c8:	2a0403f4 	mov	w20, w4
    10cc:	927df273 	and	x19, x19, #0xfffffffffffffff8
    10d0:	79800062 	ldrsh	x2, [x3]
    10d4:	17ffffe5 	b	1068 <kprintf.constprop.0+0x330>
    10d8:	11002094 	add	w20, w4, #0x8
    10dc:	7100029f 	cmp	w20, #0x0
    10e0:	5400008d 	b.le	10f0 <kprintf.constprop.0+0x3b8>
    10e4:	91003c73 	add	x19, x3, #0xf
    10e8:	927df273 	and	x19, x19, #0xfffffffffffffff8
    10ec:	17ffffde 	b	1064 <kprintf.constprop.0+0x32c>
    10f0:	aa0303f3 	mov	x19, x3
    10f4:	8b24c343 	add	x3, x26, w4, sxtw
    10f8:	17ffffdb 	b	1064 <kprintf.constprop.0+0x32c>
    10fc:	11002094 	add	w20, w4, #0x8
    1100:	7100029f 	cmp	w20, #0x0
    1104:	5400008d 	b.le	1114 <kprintf.constprop.0+0x3dc>
    1108:	91002c73 	add	x19, x3, #0xb
    110c:	927df273 	and	x19, x19, #0xfffffffffffffff8
    1110:	17fffff0 	b	10d0 <kprintf.constprop.0+0x398>
    1114:	aa0303f3 	mov	x19, x3
    1118:	8b24c343 	add	x3, x26, w4, sxtw
    111c:	17ffffed 	b	10d0 <kprintf.constprop.0+0x398>
    1120:	37f800c4 	tbnz	w4, #31, 1138 <kprintf.constprop.0+0x400>
    1124:	91002c73 	add	x19, x3, #0xb
    1128:	2a0403f4 	mov	w20, w4
    112c:	927df273 	and	x19, x19, #0xfffffffffffffff8
    1130:	b9800062 	ldrsw	x2, [x3]
    1134:	17ffffcd 	b	1068 <kprintf.constprop.0+0x330>
    1138:	11002094 	add	w20, w4, #0x8
    113c:	7100029f 	cmp	w20, #0x0
    1140:	5400008d 	b.le	1150 <kprintf.constprop.0+0x418>
    1144:	91002c73 	add	x19, x3, #0xb
    1148:	927df273 	and	x19, x19, #0xfffffffffffffff8
    114c:	17fffff9 	b	1130 <kprintf.constprop.0+0x3f8>
    1150:	aa0303f3 	mov	x19, x3
    1154:	8b24c343 	add	x3, x26, w4, sxtw
    1158:	17fffff6 	b	1130 <kprintf.constprop.0+0x3f8>
/home/ssysarch/Desktop/nick/jetpack_5/Jetson_Linux_R35.4.1_aarch64/Linux_for_Tegra/sources/tegra/optee-src/nv-optee/optee/optee_os/lib/libutils/ext/snprintk.c:398
    115c:	36380135 	tbz	w21, #7, 1180 <kprintf.constprop.0+0x448>
/home/ssysarch/Desktop/nick/jetpack_5/Jetson_Linux_R35.4.1_aarch64/Linux_for_Tegra/sources/tegra/optee-src/nv-optee/optee/optee_os/lib/libutils/ext/snprintk.c:407
    1160:	37f80284 	tbnz	w4, #31, 11b0 <kprintf.constprop.0+0x478>
    1164:	91003c73 	add	x19, x3, #0xf
    1168:	2a0403f4 	mov	w20, w4
    116c:	927df273 	and	x19, x19, #0xfffffffffffffff8
    1170:	f9400060 	ldr	x0, [x3]
    1174:	93407f21 	sxtw	x1, w25
    1178:	f9000001 	str	x1, [x0]
    117c:	17ffff0b 	b	da8 <kprintf.constprop.0+0x70>
/home/ssysarch/Desktop/nick/jetpack_5/Jetson_Linux_R35.4.1_aarch64/Linux_for_Tegra/sources/tegra/optee-src/nv-optee/optee/optee_os/lib/libutils/ext/snprintk.c:400
    1180:	3747ff15 	tbnz	w21, #8, 1160 <kprintf.constprop.0+0x428>
/home/ssysarch/Desktop/nick/jetpack_5/Jetson_Linux_R35.4.1_aarch64/Linux_for_Tegra/sources/tegra/optee-src/nv-optee/optee/optee_os/lib/libutils/ext/snprintk.c:402
    1184:	374ffef5 	tbnz	w21, #9, 1160 <kprintf.constprop.0+0x428>
/home/ssysarch/Desktop/nick/jetpack_5/Jetson_Linux_R35.4.1_aarch64/Linux_for_Tegra/sources/tegra/optee-src/nv-optee/optee/optee_os/lib/libutils/ext/snprintk.c:404
    1188:	372ffed5 	tbnz	w21, #5, 1160 <kprintf.constprop.0+0x428>
/home/ssysarch/Desktop/nick/jetpack_5/Jetson_Linux_R35.4.1_aarch64/Linux_for_Tegra/sources/tegra/optee-src/nv-optee/optee/optee_os/lib/libutils/ext/snprintk.c:406
    118c:	3727feb5 	tbnz	w21, #4, 1160 <kprintf.constprop.0+0x428>
/home/ssysarch/Desktop/nick/jetpack_5/Jetson_Linux_R35.4.1_aarch64/Linux_for_Tegra/sources/tegra/optee-src/nv-optee/optee/optee_os/lib/libutils/ext/snprintk.c:408
    1190:	36300355 	tbz	w21, #6, 11f8 <kprintf.constprop.0+0x4c0>
/home/ssysarch/Desktop/nick/jetpack_5/Jetson_Linux_R35.4.1_aarch64/Linux_for_Tegra/sources/tegra/optee-src/nv-optee/optee/optee_os/lib/libutils/ext/snprintk.c:409
    1194:	37f80204 	tbnz	w4, #31, 11d4 <kprintf.constprop.0+0x49c>
    1198:	91003c73 	add	x19, x3, #0xf
    119c:	2a0403f4 	mov	w20, w4
    11a0:	927df273 	and	x19, x19, #0xfffffffffffffff8
    11a4:	f9400060 	ldr	x0, [x3]
    11a8:	79000019 	strh	w25, [x0]
    11ac:	17fffeff 	b	da8 <kprintf.constprop.0+0x70>
/home/ssysarch/Desktop/nick/jetpack_5/Jetson_Linux_R35.4.1_aarch64/Linux_for_Tegra/sources/tegra/optee-src/nv-optee/optee/optee_os/lib/libutils/ext/snprintk.c:407
    11b0:	11002094 	add	w20, w4, #0x8
    11b4:	7100029f 	cmp	w20, #0x0
    11b8:	5400008d 	b.le	11c8 <kprintf.constprop.0+0x490>
    11bc:	91003c73 	add	x19, x3, #0xf
    11c0:	927df273 	and	x19, x19, #0xfffffffffffffff8
    11c4:	17ffffeb 	b	1170 <kprintf.constprop.0+0x438>
    11c8:	aa0303f3 	mov	x19, x3
    11cc:	8b24c343 	add	x3, x26, w4, sxtw
    11d0:	17ffffe8 	b	1170 <kprintf.constprop.0+0x438>
/home/ssysarch/Desktop/nick/jetpack_5/Jetson_Linux_R35.4.1_aarch64/Linux_for_Tegra/sources/tegra/optee-src/nv-optee/optee/optee_os/lib/libutils/ext/snprintk.c:409
    11d4:	11002094 	add	w20, w4, #0x8
    11d8:	7100029f 	cmp	w20, #0x0
    11dc:	5400008d 	b.le	11ec <kprintf.constprop.0+0x4b4>
    11e0:	91003c73 	add	x19, x3, #0xf
    11e4:	927df273 	and	x19, x19, #0xfffffffffffffff8
    11e8:	17ffffef 	b	11a4 <kprintf.constprop.0+0x46c>
    11ec:	aa0303f3 	mov	x19, x3
    11f0:	8b24c343 	add	x3, x26, w4, sxtw
    11f4:	17ffffec 	b	11a4 <kprintf.constprop.0+0x46c>
/home/ssysarch/Desktop/nick/jetpack_5/Jetson_Linux_R35.4.1_aarch64/Linux_for_Tegra/sources/tegra/optee-src/nv-optee/optee/optee_os/lib/libutils/ext/snprintk.c:411
    11f8:	37f800e4 	tbnz	w4, #31, 1214 <kprintf.constprop.0+0x4dc>
    11fc:	91003c73 	add	x19, x3, #0xf
    1200:	2a0403f4 	mov	w20, w4
    1204:	927df273 	and	x19, x19, #0xfffffffffffffff8
    1208:	f9400060 	ldr	x0, [x3]
    120c:	b9000019 	str	w25, [x0]
    1210:	17fffee6 	b	da8 <kprintf.constprop.0+0x70>
    1214:	11002094 	add	w20, w4, #0x8
    1218:	7100029f 	cmp	w20, #0x0
    121c:	5400008d 	b.le	122c <kprintf.constprop.0+0x4f4>
    1220:	91003c73 	add	x19, x3, #0xf
    1224:	927df273 	and	x19, x19, #0xfffffffffffffff8
    1228:	17fffff8 	b	1208 <kprintf.constprop.0+0x4d0>
    122c:	aa0303f3 	mov	x19, x3
    1230:	8b24c343 	add	x3, x26, w4, sxtw
    1234:	17fffff5 	b	1208 <kprintf.constprop.0+0x4d0>
/home/ssysarch/Desktop/nick/jetpack_5/Jetson_Linux_R35.4.1_aarch64/Linux_for_Tegra/sources/tegra/optee-src/nv-optee/optee/optee_os/lib/libutils/ext/snprintk.c:414
    1238:	321c02b5 	orr	w21, w21, #0x10
/home/ssysarch/Desktop/nick/jetpack_5/Jetson_Linux_R35.4.1_aarch64/Linux_for_Tegra/sources/tegra/optee-src/nv-optee/optee/optee_os/lib/libutils/ext/snprintk.c:417
    123c:	36380355 	tbz	w21, #7, 12a4 <kprintf.constprop.0+0x56c>
    1240:	37f80484 	tbnz	w4, #31, 12d0 <kprintf.constprop.0+0x598>
    1244:	91003c73 	add	x19, x3, #0xf
    1248:	2a0403f4 	mov	w20, w4
    124c:	927df273 	and	x19, x19, #0xfffffffffffffff8
    1250:	f9400062 	ldr	x2, [x3]
/home/ssysarch/Desktop/nick/jetpack_5/Jetson_Linux_R35.4.1_aarch64/Linux_for_Tegra/sources/tegra/optee-src/nv-optee/optee/optee_os/lib/libutils/ext/snprintk.c:494
    1254:	310004bf 	cmn	w5, #0x1
    1258:	52800001 	mov	w1, #0x0                   	// #0
    125c:	54002b01 	b.ne	17bc <kprintf.constprop.0+0xa84>  // b.any
/home/ssysarch/Desktop/nick/jetpack_5/Jetson_Linux_R35.4.1_aarch64/Linux_for_Tegra/sources/tegra/optee-src/nv-optee/optee/optee_os/lib/libutils/ext/snprintk.c:502
    1260:	91009583 	add	x3, x12, #0x25
/home/ssysarch/Desktop/nick/jetpack_5/Jetson_Linux_R35.4.1_aarch64/Linux_for_Tegra/sources/tegra/optee-src/nv-optee/optee/optee_os/lib/libutils/ext/snprintk.c:512
    1264:	12000840 	and	w0, w2, #0x7
    1268:	aa0303e4 	mov	x4, x3
    126c:	1100c000 	add	w0, w0, #0x30
    1270:	381ffc60 	strb	w0, [x3, #-1]!
/home/ssysarch/Desktop/nick/jetpack_5/Jetson_Linux_R35.4.1_aarch64/Linux_for_Tegra/sources/tegra/optee-src/nv-optee/optee/optee_os/lib/libutils/ext/snprintk.c:513
    1274:	d343fc42 	lsr	x2, x2, #3
/home/ssysarch/Desktop/nick/jetpack_5/Jetson_Linux_R35.4.1_aarch64/Linux_for_Tegra/sources/tegra/optee-src/nv-optee/optee/optee_os/lib/libutils/ext/snprintk.c:514
    1278:	b5ffff62 	cbnz	x2, 1264 <kprintf.constprop.0+0x52c>
/home/ssysarch/Desktop/nick/jetpack_5/Jetson_Linux_R35.4.1_aarch64/Linux_for_Tegra/sources/tegra/optee-src/nv-optee/optee/optee_os/lib/libutils/ext/snprintk.c:516
    127c:	360000d5 	tbz	w21, #0, 1294 <kprintf.constprop.0+0x55c>
    1280:	7100c01f 	cmp	w0, #0x30
    1284:	54000080 	b.eq	1294 <kprintf.constprop.0+0x55c>  // b.none
/home/ssysarch/Desktop/nick/jetpack_5/Jetson_Linux_R35.4.1_aarch64/Linux_for_Tegra/sources/tegra/optee-src/nv-optee/optee/optee_os/lib/libutils/ext/snprintk.c:517
    1288:	52800600 	mov	w0, #0x30                  	// #48
    128c:	381ff060 	sturb	w0, [x3, #-1]
    1290:	d1000883 	sub	x3, x4, #0x2
/home/ssysarch/Desktop/nick/jetpack_5/Jetson_Linux_R35.4.1_aarch64/Linux_for_Tegra/sources/tegra/optee-src/nv-optee/optee/optee_os/lib/libutils/ext/snprintk.c:543
    1294:	91009580 	add	x0, x12, #0x25
    1298:	2a0503e6 	mov	w6, w5
    129c:	4b030005 	sub	w5, w0, w3
    12a0:	1400005b 	b	140c <kprintf.constprop.0+0x6d4>
/home/ssysarch/Desktop/nick/jetpack_5/Jetson_Linux_R35.4.1_aarch64/Linux_for_Tegra/sources/tegra/optee-src/nv-optee/optee/optee_os/lib/libutils/ext/snprintk.c:417
    12a4:	3747fcf5 	tbnz	w21, #8, 1240 <kprintf.constprop.0+0x508>
    12a8:	374ffcd5 	tbnz	w21, #9, 1240 <kprintf.constprop.0+0x508>
    12ac:	372ffcb5 	tbnz	w21, #5, 1240 <kprintf.constprop.0+0x508>
    12b0:	3727fc95 	tbnz	w21, #4, 1240 <kprintf.constprop.0+0x508>
    12b4:	36300335 	tbz	w21, #6, 1318 <kprintf.constprop.0+0x5e0>
    12b8:	37f801e4 	tbnz	w4, #31, 12f4 <kprintf.constprop.0+0x5bc>
    12bc:	91002c73 	add	x19, x3, #0xb
    12c0:	2a0403f4 	mov	w20, w4
    12c4:	927df273 	and	x19, x19, #0xfffffffffffffff8
    12c8:	79400062 	ldrh	w2, [x3]
    12cc:	17ffffe2 	b	1254 <kprintf.constprop.0+0x51c>
    12d0:	11002094 	add	w20, w4, #0x8
    12d4:	7100029f 	cmp	w20, #0x0
    12d8:	5400008d 	b.le	12e8 <kprintf.constprop.0+0x5b0>
    12dc:	91003c73 	add	x19, x3, #0xf
    12e0:	927df273 	and	x19, x19, #0xfffffffffffffff8
    12e4:	17ffffdb 	b	1250 <kprintf.constprop.0+0x518>
    12e8:	aa0303f3 	mov	x19, x3
    12ec:	8b24c343 	add	x3, x26, w4, sxtw
    12f0:	17ffffd8 	b	1250 <kprintf.constprop.0+0x518>
    12f4:	11002094 	add	w20, w4, #0x8
    12f8:	7100029f 	cmp	w20, #0x0
    12fc:	5400008d 	b.le	130c <kprintf.constprop.0+0x5d4>
    1300:	91002c73 	add	x19, x3, #0xb
    1304:	927df273 	and	x19, x19, #0xfffffffffffffff8
    1308:	17fffff0 	b	12c8 <kprintf.constprop.0+0x590>
    130c:	aa0303f3 	mov	x19, x3
    1310:	8b24c343 	add	x3, x26, w4, sxtw
    1314:	17ffffed 	b	12c8 <kprintf.constprop.0+0x590>
    1318:	37f800c4 	tbnz	w4, #31, 1330 <kprintf.constprop.0+0x5f8>
    131c:	91002c73 	add	x19, x3, #0xb
    1320:	2a0403f4 	mov	w20, w4
    1324:	927df273 	and	x19, x19, #0xfffffffffffffff8
    1328:	b9400062 	ldr	w2, [x3]
    132c:	17ffffca 	b	1254 <kprintf.constprop.0+0x51c>
    1330:	11002094 	add	w20, w4, #0x8
    1334:	7100029f 	cmp	w20, #0x0
    1338:	5400008d 	b.le	1348 <kprintf.constprop.0+0x610>
    133c:	91002c73 	add	x19, x3, #0xb
    1340:	927df273 	and	x19, x19, #0xfffffffffffffff8
    1344:	17fffff9 	b	1328 <kprintf.constprop.0+0x5f0>
    1348:	aa0303f3 	mov	x19, x3
    134c:	8b24c343 	add	x3, x26, w4, sxtw
    1350:	17fffff6 	b	1328 <kprintf.constprop.0+0x5f0>
/home/ssysarch/Desktop/nick/jetpack_5/Jetson_Linux_R35.4.1_aarch64/Linux_for_Tegra/sources/tegra/optee-src/nv-optee/optee/optee_os/lib/libutils/ext/snprintk.c:421
    1354:	b940a3e0 	ldr	w0, [sp, #160]
    1358:	34000c80 	cbz	w0, 14e8 <kprintf.constprop.0+0x7b0>
    135c:	39400360 	ldrb	w0, [x27]
    1360:	7101541f 	cmp	w0, #0x55
    1364:	54000c21 	b.ne	14e8 <kprintf.constprop.0+0x7b0>  // b.any
    1368:	39400760 	ldrb	w0, [x27, #1]
    136c:	7101b01f 	cmp	w0, #0x6c
    1370:	54000bc1 	b.ne	14e8 <kprintf.constprop.0+0x7b0>  // b.any
/home/ssysarch/Desktop/nick/jetpack_5/Jetson_Linux_R35.4.1_aarch64/Linux_for_Tegra/sources/tegra/optee-src/nv-optee/optee/optee_os/lib/libutils/ext/snprintk.c:426
    1374:	91000b7b 	add	x27, x27, #0x2
/home/ssysarch/Desktop/nick/jetpack_5/Jetson_Linux_R35.4.1_aarch64/Linux_for_Tegra/sources/tegra/optee-src/nv-optee/optee/optee_os/lib/libutils/ext/snprintk.c:427
    1378:	37f80a64 	tbnz	w4, #31, 14c4 <kprintf.constprop.0+0x78c>
    137c:	91003c73 	add	x19, x3, #0xf
    1380:	2a0403f4 	mov	w20, w4
    1384:	927df273 	and	x19, x19, #0xfffffffffffffff8
    1388:	f9400060 	ldr	x0, [x3]
uuid2str():
/home/ssysarch/Desktop/nick/jetpack_5/Jetson_Linux_R35.4.1_aarch64/Linux_for_Tegra/sources/tegra/optee-src/nv-optee/optee/optee_os/lib/libutils/ext/snprintk.c:229
    138c:	d0000062 	adrp	x2, f000 <__text_end+0x2054>
    1390:	913fd842 	add	x2, x2, #0xff6
    1394:	f9004fec 	str	x12, [sp, #152]
    1398:	b900a7ea 	str	w10, [sp, #164]
    139c:	39403c01 	ldrb	w1, [x0, #15]
    13a0:	39402006 	ldrb	w6, [x0, #8]
    13a4:	79400c05 	ldrh	w5, [x0, #6]
    13a8:	39402407 	ldrb	w7, [x0, #9]
    13ac:	79400804 	ldrh	w4, [x0, #4]
    13b0:	b9002be1 	str	w1, [sp, #40]
    13b4:	f90057e8 	str	x8, [sp, #168]
    13b8:	39403801 	ldrb	w1, [x0, #14]
    13bc:	b90023e1 	str	w1, [sp, #32]
    13c0:	39403401 	ldrb	w1, [x0, #13]
    13c4:	b9001be1 	str	w1, [sp, #24]
    13c8:	39403001 	ldrb	w1, [x0, #12]
    13cc:	b90013e1 	str	w1, [sp, #16]
    13d0:	39402c01 	ldrb	w1, [x0, #11]
    13d4:	b9000be1 	str	w1, [sp, #8]
    13d8:	39402801 	ldrb	w1, [x0, #10]
    13dc:	b90003e1 	str	w1, [sp]
    13e0:	d28004a1 	mov	x1, #0x25                  	// #37
    13e4:	b9400003 	ldr	w3, [x0]
    13e8:	aa0c03e0 	mov	x0, x12
    13ec:	97fffe20 	bl	c6c <snprintk>
    13f0:	2a0003e5 	mov	w5, w0
kprintf():
/home/ssysarch/Desktop/nick/jetpack_5/Jetson_Linux_R35.4.1_aarch64/Linux_for_Tegra/sources/tegra/optee-src/nv-optee/optee/optee_os/lib/libutils/ext/snprintk.c:429
    13f4:	f9404fec 	ldr	x12, [sp, #152]
/home/ssysarch/Desktop/nick/jetpack_5/Jetson_Linux_R35.4.1_aarch64/Linux_for_Tegra/sources/tegra/optee-src/nv-optee/optee/optee_os/lib/libutils/ext/snprintk.c:291
    13f8:	52800006 	mov	w6, #0x0                   	// #0
/home/ssysarch/Desktop/nick/jetpack_5/Jetson_Linux_R35.4.1_aarch64/Linux_for_Tegra/sources/tegra/optee-src/nv-optee/optee/optee_os/lib/libutils/ext/snprintk.c:431
    13fc:	b940a7ea 	ldr	w10, [sp, #164]
/home/ssysarch/Desktop/nick/jetpack_5/Jetson_Linux_R35.4.1_aarch64/Linux_for_Tegra/sources/tegra/optee-src/nv-optee/optee/optee_os/lib/libutils/ext/snprintk.c:430
    1400:	52800001 	mov	w1, #0x0                   	// #0
/home/ssysarch/Desktop/nick/jetpack_5/Jetson_Linux_R35.4.1_aarch64/Linux_for_Tegra/sources/tegra/optee-src/nv-optee/optee/optee_os/lib/libutils/ext/snprintk.c:431
    1404:	f94057e8 	ldr	x8, [sp, #168]
/home/ssysarch/Desktop/nick/jetpack_5/Jetson_Linux_R35.4.1_aarch64/Linux_for_Tegra/sources/tegra/optee-src/nv-optee/optee/optee_os/lib/libutils/ext/snprintk.c:429
    1408:	aa0c03e3 	mov	x3, x12
/home/ssysarch/Desktop/nick/jetpack_5/Jetson_Linux_R35.4.1_aarch64/Linux_for_Tegra/sources/tegra/optee-src/nv-optee/optee/optee_os/lib/libutils/ext/snprintk.c:571
    140c:	6b0500df 	cmp	w6, w5
    1410:	1a85a0c4 	csel	w4, w6, w5, ge  // ge = tcont
/home/ssysarch/Desktop/nick/jetpack_5/Jetson_Linux_R35.4.1_aarch64/Linux_for_Tegra/sources/tegra/optee-src/nv-optee/optee/optee_os/lib/libutils/ext/snprintk.c:572
    1414:	340020c1 	cbz	w1, 182c <kprintf.constprop.0+0xaf4>
/home/ssysarch/Desktop/nick/jetpack_5/Jetson_Linux_R35.4.1_aarch64/Linux_for_Tegra/sources/tegra/optee-src/nv-optee/optee/optee_os/lib/libutils/ext/snprintk.c:573
    1418:	11000484 	add	w4, w4, #0x1
/home/ssysarch/Desktop/nick/jetpack_5/Jetson_Linux_R35.4.1_aarch64/Linux_for_Tegra/sources/tegra/optee-src/nv-optee/optee/optee_os/lib/libutils/ext/snprintk.c:578
    141c:	6b0a009f 	cmp	w4, w10
    1420:	1a8aa080 	csel	w0, w4, w10, ge  // ge = tcont
    1424:	0b000339 	add	w25, w25, w0
/home/ssysarch/Desktop/nick/jetpack_5/Jetson_Linux_R35.4.1_aarch64/Linux_for_Tegra/sources/tegra/optee-src/nv-optee/optee/optee_os/lib/libutils/ext/snprintk.c:581
    1428:	52808080 	mov	w0, #0x404                 	// #1028
    142c:	6a0002a0 	ands	w0, w21, w0
    1430:	540000a1 	b.ne	1444 <kprintf.constprop.0+0x70c>  // b.any
/home/ssysarch/Desktop/nick/jetpack_5/Jetson_Linux_R35.4.1_aarch64/Linux_for_Tegra/sources/tegra/optee-src/nv-optee/optee/optee_os/lib/libutils/ext/snprintk.c:582
    1434:	4b040147 	sub	w7, w10, w4
/home/ssysarch/Desktop/nick/jetpack_5/Jetson_Linux_R35.4.1_aarch64/Linux_for_Tegra/sources/tegra/optee-src/nv-optee/optee/optee_os/lib/libutils/ext/snprintk.c:584
    1438:	52800402 	mov	w2, #0x20                  	// #32
/home/ssysarch/Desktop/nick/jetpack_5/Jetson_Linux_R35.4.1_aarch64/Linux_for_Tegra/sources/tegra/optee-src/nv-optee/optee/optee_os/lib/libutils/ext/snprintk.c:583
    143c:	710000ff 	cmp	w7, #0x0
    1440:	54001fcc 	b.gt	1838 <kprintf.constprop.0+0xb00>
/home/ssysarch/Desktop/nick/jetpack_5/Jetson_Linux_R35.4.1_aarch64/Linux_for_Tegra/sources/tegra/optee-src/nv-optee/optee/optee_os/lib/libutils/ext/snprintk.c:588
    1444:	34002081 	cbz	w1, 1854 <kprintf.constprop.0+0xb1c>
/home/ssysarch/Desktop/nick/jetpack_5/Jetson_Linux_R35.4.1_aarch64/Linux_for_Tegra/sources/tegra/optee-src/nv-optee/optee/optee_os/lib/libutils/ext/snprintk.c:589
    1448:	b40000b6 	cbz	x22, 145c <kprintf.constprop.0+0x724>
    144c:	f100011f 	cmp	x8, #0x0
    1450:	fa561302 	ccmp	x24, x22, #0x2, ne  // ne = any
    1454:	54000049 	b.ls	145c <kprintf.constprop.0+0x724>  // b.plast
    1458:	380016c1 	strb	w1, [x22], #1
/home/ssysarch/Desktop/nick/jetpack_5/Jetson_Linux_R35.4.1_aarch64/Linux_for_Tegra/sources/tegra/optee-src/nv-optee/optee/optee_os/lib/libutils/ext/snprintk.c:596
    145c:	7110001f 	cmp	w0, #0x400
    1460:	540000a1 	b.ne	1474 <kprintf.constprop.0+0x73c>  // b.any
/home/ssysarch/Desktop/nick/jetpack_5/Jetson_Linux_R35.4.1_aarch64/Linux_for_Tegra/sources/tegra/optee-src/nv-optee/optee/optee_os/lib/libutils/ext/snprintk.c:597
    1464:	4b040140 	sub	w0, w10, w4
/home/ssysarch/Desktop/nick/jetpack_5/Jetson_Linux_R35.4.1_aarch64/Linux_for_Tegra/sources/tegra/optee-src/nv-optee/optee/optee_os/lib/libutils/ext/snprintk.c:599
    1468:	52800601 	mov	w1, #0x30                  	// #48
/home/ssysarch/Desktop/nick/jetpack_5/Jetson_Linux_R35.4.1_aarch64/Linux_for_Tegra/sources/tegra/optee-src/nv-optee/optee/optee_os/lib/libutils/ext/snprintk.c:598
    146c:	7100001f 	cmp	w0, #0x0
    1470:	5400216c 	b.gt	189c <kprintf.constprop.0+0xb64>
/home/ssysarch/Desktop/nick/jetpack_5/Jetson_Linux_R35.4.1_aarch64/Linux_for_Tegra/sources/tegra/optee-src/nv-optee/optee/optee_os/lib/libutils/ext/snprintk.c:603
    1474:	4b0500c6 	sub	w6, w6, w5
/home/ssysarch/Desktop/nick/jetpack_5/Jetson_Linux_R35.4.1_aarch64/Linux_for_Tegra/sources/tegra/optee-src/nv-optee/optee/optee_os/lib/libutils/ext/snprintk.c:605
    1478:	52800600 	mov	w0, #0x30                  	// #48
/home/ssysarch/Desktop/nick/jetpack_5/Jetson_Linux_R35.4.1_aarch64/Linux_for_Tegra/sources/tegra/optee-src/nv-optee/optee/optee_os/lib/libutils/ext/snprintk.c:604
    147c:	710000df 	cmp	w6, #0x0
    1480:	540021cc 	b.gt	18b8 <kprintf.constprop.0+0xb80>
    1484:	2a0503e5 	mov	w5, w5
    1488:	d2800001 	mov	x1, #0x0                   	// #0
/home/ssysarch/Desktop/nick/jetpack_5/Jetson_Linux_R35.4.1_aarch64/Linux_for_Tegra/sources/tegra/optee-src/nv-optee/optee/optee_os/lib/libutils/ext/snprintk.c:608
    148c:	eb05003f 	cmp	x1, x5
    1490:	54002221 	b.ne	18d4 <kprintf.constprop.0+0xb9c>  // b.any
/home/ssysarch/Desktop/nick/jetpack_5/Jetson_Linux_R35.4.1_aarch64/Linux_for_Tegra/sources/tegra/optee-src/nv-optee/optee/optee_os/lib/libutils/ext/snprintk.c:611
    1494:	3617c8b5 	tbz	w21, #2, da8 <kprintf.constprop.0+0x70>
/home/ssysarch/Desktop/nick/jetpack_5/Jetson_Linux_R35.4.1_aarch64/Linux_for_Tegra/sources/tegra/optee-src/nv-optee/optee/optee_os/lib/libutils/ext/snprintk.c:612
    1498:	4b04014a 	sub	w10, w10, w4
/home/ssysarch/Desktop/nick/jetpack_5/Jetson_Linux_R35.4.1_aarch64/Linux_for_Tegra/sources/tegra/optee-src/nv-optee/optee/optee_os/lib/libutils/ext/snprintk.c:614
    149c:	52800400 	mov	w0, #0x20                  	// #32
/home/ssysarch/Desktop/nick/jetpack_5/Jetson_Linux_R35.4.1_aarch64/Linux_for_Tegra/sources/tegra/optee-src/nv-optee/optee/optee_os/lib/libutils/ext/snprintk.c:613
    14a0:	7100015f 	cmp	w10, #0x0
    14a4:	54ffc82d 	b.le	da8 <kprintf.constprop.0+0x70>
/home/ssysarch/Desktop/nick/jetpack_5/Jetson_Linux_R35.4.1_aarch64/Linux_for_Tegra/sources/tegra/optee-src/nv-optee/optee/optee_os/lib/libutils/ext/snprintk.c:614
    14a8:	b40000b6 	cbz	x22, 14bc <kprintf.constprop.0+0x784>
    14ac:	f100011f 	cmp	x8, #0x0
    14b0:	fa561302 	ccmp	x24, x22, #0x2, ne  // ne = any
    14b4:	54000049 	b.ls	14bc <kprintf.constprop.0+0x784>  // b.plast
    14b8:	380016c0 	strb	w0, [x22], #1
    14bc:	5100054a 	sub	w10, w10, #0x1
    14c0:	17fffff8 	b	14a0 <kprintf.constprop.0+0x768>
/home/ssysarch/Desktop/nick/jetpack_5/Jetson_Linux_R35.4.1_aarch64/Linux_for_Tegra/sources/tegra/optee-src/nv-optee/optee/optee_os/lib/libutils/ext/snprintk.c:427
    14c4:	11002094 	add	w20, w4, #0x8
    14c8:	7100029f 	cmp	w20, #0x0
    14cc:	5400008d 	b.le	14dc <kprintf.constprop.0+0x7a4>
    14d0:	91003c73 	add	x19, x3, #0xf
    14d4:	927df273 	and	x19, x19, #0xfffffffffffffff8
    14d8:	17ffffac 	b	1388 <kprintf.constprop.0+0x650>
    14dc:	aa0303f3 	mov	x19, x3
    14e0:	8b24c343 	add	x3, x26, w4, sxtw
    14e4:	17ffffa9 	b	1388 <kprintf.constprop.0+0x650>
/home/ssysarch/Desktop/nick/jetpack_5/Jetson_Linux_R35.4.1_aarch64/Linux_for_Tegra/sources/tegra/optee-src/nv-optee/optee/optee_os/lib/libutils/ext/snprintk.c:441
    14e8:	37f801e4 	tbnz	w4, #31, 1524 <kprintf.constprop.0+0x7ec>
    14ec:	91003c73 	add	x19, x3, #0xf
    14f0:	2a0403f4 	mov	w20, w4
    14f4:	927df273 	and	x19, x19, #0xfffffffffffffff8
/home/ssysarch/Desktop/nick/jetpack_5/Jetson_Linux_R35.4.1_aarch64/Linux_for_Tegra/sources/tegra/optee-src/nv-optee/optee/optee_os/lib/libutils/ext/snprintk.c:443
    14f8:	d0000077 	adrp	x23, f000 <__text_end+0x2054>
    14fc:	912b1af7 	add	x23, x23, #0xac6
/home/ssysarch/Desktop/nick/jetpack_5/Jetson_Linux_R35.4.1_aarch64/Linux_for_Tegra/sources/tegra/optee-src/nv-optee/optee/optee_os/lib/libutils/ext/snprintk.c:441
    1500:	f9400062 	ldr	x2, [x3]
/home/ssysarch/Desktop/nick/jetpack_5/Jetson_Linux_R35.4.1_aarch64/Linux_for_Tegra/sources/tegra/optee-src/nv-optee/optee/optee_os/lib/libutils/ext/snprintk.c:444
    1504:	321f02b5 	orr	w21, w21, #0x2
/home/ssysarch/Desktop/nick/jetpack_5/Jetson_Linux_R35.4.1_aarch64/Linux_for_Tegra/sources/tegra/optee-src/nv-optee/optee/optee_os/lib/libutils/ext/snprintk.c:443
    1508:	910046f7 	add	x23, x23, #0x11
/home/ssysarch/Desktop/nick/jetpack_5/Jetson_Linux_R35.4.1_aarch64/Linux_for_Tegra/sources/tegra/optee-src/nv-optee/optee/optee_os/lib/libutils/ext/snprintk.c:445
    150c:	52800f1c 	mov	w28, #0x78                  	// #120
/home/ssysarch/Desktop/nick/jetpack_5/Jetson_Linux_R35.4.1_aarch64/Linux_for_Tegra/sources/tegra/optee-src/nv-optee/optee/optee_os/lib/libutils/ext/snprintk.c:494
    1510:	310004bf 	cmn	w5, #0x1
    1514:	52800001 	mov	w1, #0x0                   	// #0
    1518:	54ffdbc0 	b.eq	1090 <kprintf.constprop.0+0x358>  // b.none
    151c:	52800040 	mov	w0, #0x2                   	// #2
    1520:	140000a8 	b	17c0 <kprintf.constprop.0+0xa88>
/home/ssysarch/Desktop/nick/jetpack_5/Jetson_Linux_R35.4.1_aarch64/Linux_for_Tegra/sources/tegra/optee-src/nv-optee/optee/optee_os/lib/libutils/ext/snprintk.c:441
    1524:	11002094 	add	w20, w4, #0x8
    1528:	7100029f 	cmp	w20, #0x0
    152c:	5400008d 	b.le	153c <kprintf.constprop.0+0x804>
    1530:	91003c73 	add	x19, x3, #0xf
    1534:	927df273 	and	x19, x19, #0xfffffffffffffff8
    1538:	17fffff0 	b	14f8 <kprintf.constprop.0+0x7c0>
    153c:	aa0303f3 	mov	x19, x3
    1540:	8b24c343 	add	x3, x26, w4, sxtw
    1544:	17ffffed 	b	14f8 <kprintf.constprop.0+0x7c0>
/home/ssysarch/Desktop/nick/jetpack_5/Jetson_Linux_R35.4.1_aarch64/Linux_for_Tegra/sources/tegra/optee-src/nv-optee/optee/optee_os/lib/libutils/ext/snprintk.c:448
    1548:	37f80364 	tbnz	w4, #31, 15b4 <kprintf.constprop.0+0x87c>
    154c:	91003c73 	add	x19, x3, #0xf
    1550:	2a0403f4 	mov	w20, w4
    1554:	927df273 	and	x19, x19, #0xfffffffffffffff8
    1558:	f9400063 	ldr	x3, [x3]
    155c:	b5000063 	cbnz	x3, 1568 <kprintf.constprop.0+0x830>
/home/ssysarch/Desktop/nick/jetpack_5/Jetson_Linux_R35.4.1_aarch64/Linux_for_Tegra/sources/tegra/optee-src/nv-optee/optee/optee_os/lib/libutils/ext/snprintk.c:450
    1560:	d0000063 	adrp	x3, f000 <__text_end+0x2054>
    1564:	913fbc63 	add	x3, x3, #0xfef
/home/ssysarch/Desktop/nick/jetpack_5/Jetson_Linux_R35.4.1_aarch64/Linux_for_Tegra/sources/tegra/optee-src/nv-optee/optee/optee_os/lib/libutils/ext/snprintk.c:451
    1568:	310004bf 	cmn	w5, #0x1
    156c:	54000360 	b.eq	15d8 <kprintf.constprop.0+0x8a0>  // b.none
/home/ssysarch/Desktop/nick/jetpack_5/Jetson_Linux_R35.4.1_aarch64/Linux_for_Tegra/sources/tegra/optee-src/nv-optee/optee/optee_os/lib/libutils/ext/snprintk.c:457
    1570:	93407ca2 	sxtw	x2, w5
    1574:	aa0303e0 	mov	x0, x3
    1578:	52800001 	mov	w1, #0x0                   	// #0
    157c:	f9004fe3 	str	x3, [sp, #152]
    1580:	2914abe5 	stp	w5, w10, [sp, #164]
    1584:	a90b33e8 	stp	x8, x12, [sp, #176]
    1588:	940000f7 	bl	1964 <memchr>
/home/ssysarch/Desktop/nick/jetpack_5/Jetson_Linux_R35.4.1_aarch64/Linux_for_Tegra/sources/tegra/optee-src/nv-optee/optee/optee_os/lib/libutils/ext/snprintk.c:459
    158c:	2954abe5 	ldp	w5, w10, [sp, #164]
    1590:	f9404fe3 	ldr	x3, [sp, #152]
    1594:	a94b33e8 	ldp	x8, x12, [sp, #176]
    1598:	b4000080 	cbz	x0, 15a8 <kprintf.constprop.0+0x870>
/home/ssysarch/Desktop/nick/jetpack_5/Jetson_Linux_R35.4.1_aarch64/Linux_for_Tegra/sources/tegra/optee-src/nv-optee/optee/optee_os/lib/libutils/ext/snprintk.c:460
    159c:	cb030000 	sub	x0, x0, x3
    15a0:	6b0000bf 	cmp	w5, w0
    15a4:	1a80d0a5 	csel	w5, w5, w0, le
/home/ssysarch/Desktop/nick/jetpack_5/Jetson_Linux_R35.4.1_aarch64/Linux_for_Tegra/sources/tegra/optee-src/nv-optee/optee/optee_os/lib/libutils/ext/snprintk.c:291
    15a8:	52800006 	mov	w6, #0x0                   	// #0
/home/ssysarch/Desktop/nick/jetpack_5/Jetson_Linux_R35.4.1_aarch64/Linux_for_Tegra/sources/tegra/optee-src/nv-optee/optee/optee_os/lib/libutils/ext/snprintk.c:467
    15ac:	52800001 	mov	w1, #0x0                   	// #0
    15b0:	17ffff97 	b	140c <kprintf.constprop.0+0x6d4>
/home/ssysarch/Desktop/nick/jetpack_5/Jetson_Linux_R35.4.1_aarch64/Linux_for_Tegra/sources/tegra/optee-src/nv-optee/optee/optee_os/lib/libutils/ext/snprintk.c:448
    15b4:	11002094 	add	w20, w4, #0x8
    15b8:	7100029f 	cmp	w20, #0x0
    15bc:	5400008d 	b.le	15cc <kprintf.constprop.0+0x894>
    15c0:	91003c73 	add	x19, x3, #0xf
    15c4:	927df273 	and	x19, x19, #0xfffffffffffffff8
    15c8:	17ffffe4 	b	1558 <kprintf.constprop.0+0x820>
    15cc:	aa0303f3 	mov	x19, x3
    15d0:	8b24c343 	add	x3, x26, w4, sxtw
    15d4:	17ffffe1 	b	1558 <kprintf.constprop.0+0x820>
/home/ssysarch/Desktop/nick/jetpack_5/Jetson_Linux_R35.4.1_aarch64/Linux_for_Tegra/sources/tegra/optee-src/nv-optee/optee/optee_os/lib/libutils/ext/snprintk.c:466
    15d8:	aa0303e0 	mov	x0, x3
    15dc:	f9004fe3 	str	x3, [sp, #152]
    15e0:	b900a7ea 	str	w10, [sp, #164]
    15e4:	a90ab3e8 	stp	x8, x12, [sp, #168]
    15e8:	940000ea 	bl	1990 <strlen>
    15ec:	b940a7ea 	ldr	w10, [sp, #164]
    15f0:	2a0003e5 	mov	w5, w0
/home/ssysarch/Desktop/nick/jetpack_5/Jetson_Linux_R35.4.1_aarch64/Linux_for_Tegra/sources/tegra/optee-src/nv-optee/optee/optee_os/lib/libutils/ext/snprintk.c:291
    15f4:	52800006 	mov	w6, #0x0                   	// #0
/home/ssysarch/Desktop/nick/jetpack_5/Jetson_Linux_R35.4.1_aarch64/Linux_for_Tegra/sources/tegra/optee-src/nv-optee/optee/optee_os/lib/libutils/ext/snprintk.c:467
    15f8:	52800001 	mov	w1, #0x0                   	// #0
    15fc:	f9404fe3 	ldr	x3, [sp, #152]
    1600:	a94ab3e8 	ldp	x8, x12, [sp, #168]
    1604:	17ffff82 	b	140c <kprintf.constprop.0+0x6d4>
/home/ssysarch/Desktop/nick/jetpack_5/Jetson_Linux_R35.4.1_aarch64/Linux_for_Tegra/sources/tegra/optee-src/nv-optee/optee/optee_os/lib/libutils/ext/snprintk.c:470
    1608:	321c02b5 	orr	w21, w21, #0x10
/home/ssysarch/Desktop/nick/jetpack_5/Jetson_Linux_R35.4.1_aarch64/Linux_for_Tegra/sources/tegra/optee-src/nv-optee/optee/optee_os/lib/libutils/ext/snprintk.c:473
    160c:	36380235 	tbz	w21, #7, 1650 <kprintf.constprop.0+0x918>
    1610:	37f80364 	tbnz	w4, #31, 167c <kprintf.constprop.0+0x944>
    1614:	91003c73 	add	x19, x3, #0xf
    1618:	2a0403f4 	mov	w20, w4
    161c:	927df273 	and	x19, x19, #0xfffffffffffffff8
    1620:	f9400062 	ldr	x2, [x3]
/home/ssysarch/Desktop/nick/jetpack_5/Jetson_Linux_R35.4.1_aarch64/Linux_for_Tegra/sources/tegra/optee-src/nv-optee/optee/optee_os/lib/libutils/ext/snprintk.c:488
    1624:	52800001 	mov	w1, #0x0                   	// #0
/home/ssysarch/Desktop/nick/jetpack_5/Jetson_Linux_R35.4.1_aarch64/Linux_for_Tegra/sources/tegra/optee-src/nv-optee/optee/optee_os/lib/libutils/ext/snprintk.c:494
    1628:	310004bf 	cmn	w5, #0x1
    162c:	54000d81 	b.ne	17dc <kprintf.constprop.0+0xaa4>  // b.any
/home/ssysarch/Desktop/nick/jetpack_5/Jetson_Linux_R35.4.1_aarch64/Linux_for_Tegra/sources/tegra/optee-src/nv-optee/optee/optee_os/lib/libutils/ext/snprintk.c:502
    1630:	91009580 	add	x0, x12, #0x25
/home/ssysarch/Desktop/nick/jetpack_5/Jetson_Linux_R35.4.1_aarch64/Linux_for_Tegra/sources/tegra/optee-src/nv-optee/optee/optee_os/lib/libutils/ext/snprintk.c:523
    1634:	d2800144 	mov	x4, #0xa                   	// #10
/home/ssysarch/Desktop/nick/jetpack_5/Jetson_Linux_R35.4.1_aarch64/Linux_for_Tegra/sources/tegra/optee-src/nv-optee/optee/optee_os/lib/libutils/ext/snprintk.c:522
    1638:	d1000403 	sub	x3, x0, #0x1
    163c:	f100245f 	cmp	x2, #0x9
    1640:	54000d28 	b.hi	17e4 <kprintf.constprop.0+0xaac>  // b.pmore
/home/ssysarch/Desktop/nick/jetpack_5/Jetson_Linux_R35.4.1_aarch64/Linux_for_Tegra/sources/tegra/optee-src/nv-optee/optee/optee_os/lib/libutils/ext/snprintk.c:526
    1644:	1100c042 	add	w2, w2, #0x30
    1648:	381ff002 	sturb	w2, [x0, #-1]
/home/ssysarch/Desktop/nick/jetpack_5/Jetson_Linux_R35.4.1_aarch64/Linux_for_Tegra/sources/tegra/optee-src/nv-optee/optee/optee_os/lib/libutils/ext/snprintk.c:527
    164c:	17ffff12 	b	1294 <kprintf.constprop.0+0x55c>
/home/ssysarch/Desktop/nick/jetpack_5/Jetson_Linux_R35.4.1_aarch64/Linux_for_Tegra/sources/tegra/optee-src/nv-optee/optee/optee_os/lib/libutils/ext/snprintk.c:473
    1650:	3747fe15 	tbnz	w21, #8, 1610 <kprintf.constprop.0+0x8d8>
    1654:	374ffdf5 	tbnz	w21, #9, 1610 <kprintf.constprop.0+0x8d8>
    1658:	372ffdd5 	tbnz	w21, #5, 1610 <kprintf.constprop.0+0x8d8>
    165c:	3727fdb5 	tbnz	w21, #4, 1610 <kprintf.constprop.0+0x8d8>
    1660:	36300335 	tbz	w21, #6, 16c4 <kprintf.constprop.0+0x98c>
    1664:	37f801e4 	tbnz	w4, #31, 16a0 <kprintf.constprop.0+0x968>
    1668:	91002c73 	add	x19, x3, #0xb
    166c:	2a0403f4 	mov	w20, w4
    1670:	927df273 	and	x19, x19, #0xfffffffffffffff8
    1674:	79400062 	ldrh	w2, [x3]
    1678:	17ffffeb 	b	1624 <kprintf.constprop.0+0x8ec>
    167c:	11002094 	add	w20, w4, #0x8
    1680:	7100029f 	cmp	w20, #0x0
    1684:	5400008d 	b.le	1694 <kprintf.constprop.0+0x95c>
    1688:	91003c73 	add	x19, x3, #0xf
    168c:	927df273 	and	x19, x19, #0xfffffffffffffff8
    1690:	17ffffe4 	b	1620 <kprintf.constprop.0+0x8e8>
    1694:	aa0303f3 	mov	x19, x3
    1698:	8b24c343 	add	x3, x26, w4, sxtw
    169c:	17ffffe1 	b	1620 <kprintf.constprop.0+0x8e8>
    16a0:	11002094 	add	w20, w4, #0x8
    16a4:	7100029f 	cmp	w20, #0x0
    16a8:	5400008d 	b.le	16b8 <kprintf.constprop.0+0x980>
    16ac:	91002c73 	add	x19, x3, #0xb
    16b0:	927df273 	and	x19, x19, #0xfffffffffffffff8
    16b4:	17fffff0 	b	1674 <kprintf.constprop.0+0x93c>
    16b8:	aa0303f3 	mov	x19, x3
    16bc:	8b24c343 	add	x3, x26, w4, sxtw
    16c0:	17ffffed 	b	1674 <kprintf.constprop.0+0x93c>
    16c4:	37f800c4 	tbnz	w4, #31, 16dc <kprintf.constprop.0+0x9a4>
    16c8:	91002c73 	add	x19, x3, #0xb
    16cc:	2a0403f4 	mov	w20, w4
    16d0:	927df273 	and	x19, x19, #0xfffffffffffffff8
    16d4:	b9400062 	ldr	w2, [x3]
    16d8:	17ffffd3 	b	1624 <kprintf.constprop.0+0x8ec>
    16dc:	11002094 	add	w20, w4, #0x8
    16e0:	7100029f 	cmp	w20, #0x0
    16e4:	5400008d 	b.le	16f4 <kprintf.constprop.0+0x9bc>
    16e8:	91002c73 	add	x19, x3, #0xb
    16ec:	927df273 	and	x19, x19, #0xfffffffffffffff8
    16f0:	17fffff9 	b	16d4 <kprintf.constprop.0+0x99c>
    16f4:	aa0303f3 	mov	x19, x3
    16f8:	8b24c343 	add	x3, x26, w4, sxtw
    16fc:	17fffff6 	b	16d4 <kprintf.constprop.0+0x99c>
/home/ssysarch/Desktop/nick/jetpack_5/Jetson_Linux_R35.4.1_aarch64/Linux_for_Tegra/sources/tegra/optee-src/nv-optee/optee/optee_os/lib/libutils/ext/snprintk.c:477
    1700:	d0000077 	adrp	x23, f000 <__text_end+0x2054>
    1704:	912b1af7 	add	x23, x23, #0xac6
    1708:	17fffdd9 	b	e6c <kprintf.constprop.0+0x134>
/home/ssysarch/Desktop/nick/jetpack_5/Jetson_Linux_R35.4.1_aarch64/Linux_for_Tegra/sources/tegra/optee-src/nv-optee/optee/optee_os/lib/libutils/ext/snprintk.c:481
    170c:	3747bb35 	tbnz	w21, #8, e70 <kprintf.constprop.0+0x138>
    1710:	374fbb15 	tbnz	w21, #9, e70 <kprintf.constprop.0+0x138>
    1714:	372fbaf5 	tbnz	w21, #5, e70 <kprintf.constprop.0+0x138>
    1718:	3727bad5 	tbnz	w21, #4, e70 <kprintf.constprop.0+0x138>
    171c:	36300335 	tbz	w21, #6, 1780 <kprintf.constprop.0+0xa48>
    1720:	37f801e4 	tbnz	w4, #31, 175c <kprintf.constprop.0+0xa24>
    1724:	91002c73 	add	x19, x3, #0xb
    1728:	2a0403f4 	mov	w20, w4
    172c:	927df273 	and	x19, x19, #0xfffffffffffffff8
    1730:	79400062 	ldrh	w2, [x3]
    1734:	17fffdd4 	b	e84 <kprintf.constprop.0+0x14c>
    1738:	11002094 	add	w20, w4, #0x8
    173c:	7100029f 	cmp	w20, #0x0
    1740:	5400008d 	b.le	1750 <kprintf.constprop.0+0xa18>
    1744:	91003c73 	add	x19, x3, #0xf
    1748:	927df273 	and	x19, x19, #0xfffffffffffffff8
    174c:	17fffdcd 	b	e80 <kprintf.constprop.0+0x148>
    1750:	aa0303f3 	mov	x19, x3
    1754:	8b24c343 	add	x3, x26, w4, sxtw
    1758:	17fffdca 	b	e80 <kprintf.constprop.0+0x148>
    175c:	11002094 	add	w20, w4, #0x8
    1760:	7100029f 	cmp	w20, #0x0
    1764:	5400008d 	b.le	1774 <kprintf.constprop.0+0xa3c>
    1768:	91002c73 	add	x19, x3, #0xb
    176c:	927df273 	and	x19, x19, #0xfffffffffffffff8
    1770:	17fffff0 	b	1730 <kprintf.constprop.0+0x9f8>
    1774:	aa0303f3 	mov	x19, x3
    1778:	8b24c343 	add	x3, x26, w4, sxtw
    177c:	17ffffed 	b	1730 <kprintf.constprop.0+0x9f8>
    1780:	37f800c4 	tbnz	w4, #31, 1798 <kprintf.constprop.0+0xa60>
    1784:	91002c73 	add	x19, x3, #0xb
    1788:	2a0403f4 	mov	w20, w4
    178c:	927df273 	and	x19, x19, #0xfffffffffffffff8
    1790:	b9400062 	ldr	w2, [x3]
    1794:	17fffdbc 	b	e84 <kprintf.constprop.0+0x14c>
    1798:	11002094 	add	w20, w4, #0x8
    179c:	7100029f 	cmp	w20, #0x0
    17a0:	5400008d 	b.le	17b0 <kprintf.constprop.0+0xa78>
    17a4:	91002c73 	add	x19, x3, #0xb
    17a8:	927df273 	and	x19, x19, #0xfffffffffffffff8
    17ac:	17fffff9 	b	1790 <kprintf.constprop.0+0xa58>
    17b0:	aa0303f3 	mov	x19, x3
    17b4:	8b24c343 	add	x3, x26, w4, sxtw
    17b8:	17fffff6 	b	1790 <kprintf.constprop.0+0xa58>
/home/ssysarch/Desktop/nick/jetpack_5/Jetson_Linux_R35.4.1_aarch64/Linux_for_Tegra/sources/tegra/optee-src/nv-optee/optee/optee_os/lib/libutils/ext/snprintk.c:494
    17bc:	52800000 	mov	w0, #0x0                   	// #0
/home/ssysarch/Desktop/nick/jetpack_5/Jetson_Linux_R35.4.1_aarch64/Linux_for_Tegra/sources/tegra/optee-src/nv-optee/optee/optee_os/lib/libutils/ext/snprintk.c:503
    17c0:	f100005f 	cmp	x2, #0x0
/home/ssysarch/Desktop/nick/jetpack_5/Jetson_Linux_R35.4.1_aarch64/Linux_for_Tegra/sources/tegra/optee-src/nv-optee/optee/optee_os/lib/libutils/ext/snprintk.c:495
    17c4:	12157ab5 	and	w21, w21, #0xfffffbff
/home/ssysarch/Desktop/nick/jetpack_5/Jetson_Linux_R35.4.1_aarch64/Linux_for_Tegra/sources/tegra/optee-src/nv-optee/optee/optee_os/lib/libutils/ext/snprintk.c:503
    17c8:	7a4008a0 	ccmp	w5, #0x0, #0x0, eq  // eq = none
    17cc:	54ffc5a1 	b.ne	1080 <kprintf.constprop.0+0x348>  // b.any
/home/ssysarch/Desktop/nick/jetpack_5/Jetson_Linux_R35.4.1_aarch64/Linux_for_Tegra/sources/tegra/optee-src/nv-optee/optee/optee_os/lib/libutils/ext/snprintk.c:502
    17d0:	91009583 	add	x3, x12, #0x25
/home/ssysarch/Desktop/nick/jetpack_5/Jetson_Linux_R35.4.1_aarch64/Linux_for_Tegra/sources/tegra/optee-src/nv-optee/optee/optee_os/lib/libutils/ext/snprintk.c:542
    17d4:	52800005 	mov	w5, #0x0                   	// #0
    17d8:	17fffeaf 	b	1294 <kprintf.constprop.0+0x55c>
/home/ssysarch/Desktop/nick/jetpack_5/Jetson_Linux_R35.4.1_aarch64/Linux_for_Tegra/sources/tegra/optee-src/nv-optee/optee/optee_os/lib/libutils/ext/snprintk.c:494
    17dc:	52800020 	mov	w0, #0x1                   	// #1
    17e0:	17fffff8 	b	17c0 <kprintf.constprop.0+0xa88>
/home/ssysarch/Desktop/nick/jetpack_5/Jetson_Linux_R35.4.1_aarch64/Linux_for_Tegra/sources/tegra/optee-src/nv-optee/optee/optee_os/lib/libutils/ext/snprintk.c:523
    17e4:	9ac40846 	udiv	x6, x2, x4
    17e8:	9b0488c2 	msub	x2, x6, x4, x2
    17ec:	1100c042 	add	w2, w2, #0x30
    17f0:	381ff002 	sturb	w2, [x0, #-1]
/home/ssysarch/Desktop/nick/jetpack_5/Jetson_Linux_R35.4.1_aarch64/Linux_for_Tegra/sources/tegra/optee-src/nv-optee/optee/optee_os/lib/libutils/ext/snprintk.c:524
    17f4:	aa0603e2 	mov	x2, x6
    17f8:	aa0303e0 	mov	x0, x3
    17fc:	17ffff8f 	b	1638 <kprintf.constprop.0+0x900>
/home/ssysarch/Desktop/nick/jetpack_5/Jetson_Linux_R35.4.1_aarch64/Linux_for_Tegra/sources/tegra/optee-src/nv-optee/optee/optee_os/lib/libutils/ext/snprintk.c:547
    1800:	35ffb55c 	cbnz	w28, ea8 <kprintf.constprop.0+0x170>
/home/ssysarch/Desktop/nick/jetpack_5/Jetson_Linux_R35.4.1_aarch64/Linux_for_Tegra/sources/tegra/optee-src/nv-optee/optee/optee_os/lib/libutils/ext/snprintk.c:619
    1804:	b4000048 	cbz	x8, 180c <kprintf.constprop.0+0xad4>
/home/ssysarch/Desktop/nick/jetpack_5/Jetson_Linux_R35.4.1_aarch64/Linux_for_Tegra/sources/tegra/optee-src/nv-optee/optee/optee_os/lib/libutils/ext/snprintk.c:620
    1808:	f9000116 	str	x22, [x8]
/home/ssysarch/Desktop/nick/jetpack_5/Jetson_Linux_R35.4.1_aarch64/Linux_for_Tegra/sources/tegra/optee-src/nv-optee/optee/optee_os/lib/libutils/ext/snprintk.c:622
    180c:	b0000080 	adrp	x0, 12000 <_DYNAMIC>
    1810:	f9409800 	ldr	x0, [x0, #304]
    1814:	f94077e1 	ldr	x1, [sp, #232]
    1818:	f9400002 	ldr	x2, [x0]
    181c:	eb020021 	subs	x1, x1, x2
    1820:	d2800002 	mov	x2, #0x0                   	// #0
    1824:	54000680 	b.eq	18f4 <kprintf.constprop.0+0xbbc>  // b.none
    1828:	97fffb45 	bl	53c <__stack_chk_fail>
/home/ssysarch/Desktop/nick/jetpack_5/Jetson_Linux_R35.4.1_aarch64/Linux_for_Tegra/sources/tegra/optee-src/nv-optee/optee/optee_os/lib/libutils/ext/snprintk.c:574
    182c:	360fdf95 	tbz	w21, #1, 141c <kprintf.constprop.0+0x6e4>
/home/ssysarch/Desktop/nick/jetpack_5/Jetson_Linux_R35.4.1_aarch64/Linux_for_Tegra/sources/tegra/optee-src/nv-optee/optee/optee_os/lib/libutils/ext/snprintk.c:575
    1830:	11000884 	add	w4, w4, #0x2
    1834:	17fffefa 	b	141c <kprintf.constprop.0+0x6e4>
/home/ssysarch/Desktop/nick/jetpack_5/Jetson_Linux_R35.4.1_aarch64/Linux_for_Tegra/sources/tegra/optee-src/nv-optee/optee/optee_os/lib/libutils/ext/snprintk.c:584
    1838:	b40000b6 	cbz	x22, 184c <kprintf.constprop.0+0xb14>
    183c:	f100011f 	cmp	x8, #0x0
    1840:	fa561302 	ccmp	x24, x22, #0x2, ne  // ne = any
    1844:	54000049 	b.ls	184c <kprintf.constprop.0+0xb14>  // b.plast
    1848:	380016c2 	strb	w2, [x22], #1
    184c:	510004e7 	sub	w7, w7, #0x1
    1850:	17fffefb 	b	143c <kprintf.constprop.0+0x704>
/home/ssysarch/Desktop/nick/jetpack_5/Jetson_Linux_R35.4.1_aarch64/Linux_for_Tegra/sources/tegra/optee-src/nv-optee/optee/optee_os/lib/libutils/ext/snprintk.c:590
    1854:	360fe055 	tbz	w21, #1, 145c <kprintf.constprop.0+0x724>
/home/ssysarch/Desktop/nick/jetpack_5/Jetson_Linux_R35.4.1_aarch64/Linux_for_Tegra/sources/tegra/optee-src/nv-optee/optee/optee_os/lib/libutils/ext/snprintk.c:591
    1858:	b4ffe036 	cbz	x22, 145c <kprintf.constprop.0+0x724>
    185c:	f100011f 	cmp	x8, #0x0
    1860:	1a9f17e2 	cset	w2, eq  // eq = none
    1864:	7100005f 	cmp	w2, #0x0
    1868:	fa560302 	ccmp	x24, x22, #0x2, eq  // eq = none
    186c:	54ffdf89 	b.ls	145c <kprintf.constprop.0+0x724>  // b.plast
    1870:	aa1603e1 	mov	x1, x22
    1874:	52800607 	mov	w7, #0x30                  	// #48
/home/ssysarch/Desktop/nick/jetpack_5/Jetson_Linux_R35.4.1_aarch64/Linux_for_Tegra/sources/tegra/optee-src/nv-optee/optee/optee_os/lib/libutils/ext/snprintk.c:592
    1878:	7100005f 	cmp	w2, #0x0
/home/ssysarch/Desktop/nick/jetpack_5/Jetson_Linux_R35.4.1_aarch64/Linux_for_Tegra/sources/tegra/optee-src/nv-optee/optee/optee_os/lib/libutils/ext/snprintk.c:591
    187c:	38001427 	strb	w7, [x1], #1
/home/ssysarch/Desktop/nick/jetpack_5/Jetson_Linux_R35.4.1_aarch64/Linux_for_Tegra/sources/tegra/optee-src/nv-optee/optee/optee_os/lib/libutils/ext/snprintk.c:592
    1880:	fa410302 	ccmp	x24, x1, #0x2, eq  // eq = none
    1884:	54000089 	b.ls	1894 <kprintf.constprop.0+0xb5c>  // b.plast
    1888:	91000ad6 	add	x22, x22, #0x2
    188c:	381ff2dc 	sturb	w28, [x22, #-1]
    1890:	17fffef3 	b	145c <kprintf.constprop.0+0x724>
    1894:	aa0103f6 	mov	x22, x1
    1898:	17fffef1 	b	145c <kprintf.constprop.0+0x724>
/home/ssysarch/Desktop/nick/jetpack_5/Jetson_Linux_R35.4.1_aarch64/Linux_for_Tegra/sources/tegra/optee-src/nv-optee/optee/optee_os/lib/libutils/ext/snprintk.c:599
    189c:	b40000b6 	cbz	x22, 18b0 <kprintf.constprop.0+0xb78>
    18a0:	f100011f 	cmp	x8, #0x0
    18a4:	fa561302 	ccmp	x24, x22, #0x2, ne  // ne = any
    18a8:	54000049 	b.ls	18b0 <kprintf.constprop.0+0xb78>  // b.plast
    18ac:	380016c1 	strb	w1, [x22], #1
    18b0:	51000400 	sub	w0, w0, #0x1
    18b4:	17fffeee 	b	146c <kprintf.constprop.0+0x734>
/home/ssysarch/Desktop/nick/jetpack_5/Jetson_Linux_R35.4.1_aarch64/Linux_for_Tegra/sources/tegra/optee-src/nv-optee/optee/optee_os/lib/libutils/ext/snprintk.c:605
    18b8:	b40000b6 	cbz	x22, 18cc <kprintf.constprop.0+0xb94>
    18bc:	f100011f 	cmp	x8, #0x0
    18c0:	fa561302 	ccmp	x24, x22, #0x2, ne  // ne = any
    18c4:	54000049 	b.ls	18cc <kprintf.constprop.0+0xb94>  // b.plast
    18c8:	380016c0 	strb	w0, [x22], #1
    18cc:	510004c6 	sub	w6, w6, #0x1
    18d0:	17fffeeb 	b	147c <kprintf.constprop.0+0x744>
/home/ssysarch/Desktop/nick/jetpack_5/Jetson_Linux_R35.4.1_aarch64/Linux_for_Tegra/sources/tegra/optee-src/nv-optee/optee/optee_os/lib/libutils/ext/snprintk.c:609
    18d4:	b40000d6 	cbz	x22, 18ec <kprintf.constprop.0+0xbb4>
    18d8:	f100011f 	cmp	x8, #0x0
    18dc:	fa561302 	ccmp	x24, x22, #0x2, ne  // ne = any
    18e0:	54000069 	b.ls	18ec <kprintf.constprop.0+0xbb4>  // b.plast
    18e4:	38616860 	ldrb	w0, [x3, x1]
    18e8:	380016c0 	strb	w0, [x22], #1
/home/ssysarch/Desktop/nick/jetpack_5/Jetson_Linux_R35.4.1_aarch64/Linux_for_Tegra/sources/tegra/optee-src/nv-optee/optee/optee_os/lib/libutils/ext/snprintk.c:608
    18ec:	91000421 	add	x1, x1, #0x1
    18f0:	17fffee7 	b	148c <kprintf.constprop.0+0x754>
/home/ssysarch/Desktop/nick/jetpack_5/Jetson_Linux_R35.4.1_aarch64/Linux_for_Tegra/sources/tegra/optee-src/nv-optee/optee/optee_os/lib/libutils/ext/snprintk.c:622
    18f4:	2a1903e0 	mov	w0, w25
    18f8:	a9437bfd 	ldp	x29, x30, [sp, #48]
    18fc:	a94453f3 	ldp	x19, x20, [sp, #64]
    1900:	a9455bf5 	ldp	x21, x22, [sp, #80]
    1904:	a94663f7 	ldp	x23, x24, [sp, #96]
    1908:	a9476bf9 	ldp	x25, x26, [sp, #112]
    190c:	a94873fb 	ldp	x27, x28, [sp, #128]
    1910:	9103c3ff 	add	sp, sp, #0xf0
    1914:	d65f03c0 	ret

0000000000001918 <__vsprintf>:
__vsprintf():
/home/ssysarch/Desktop/nick/jetpack_5/Jetson_Linux_R35.4.1_aarch64/Linux_for_Tegra/sources/tegra/optee-src/nv-optee/optee/optee_os/lib/libutils/ext/snprintk.c:155
    1918:	a9bc7bfd 	stp	x29, x30, [sp, #-64]!
/home/ssysarch/Desktop/nick/jetpack_5/Jetson_Linux_R35.4.1_aarch64/Linux_for_Tegra/sources/tegra/optee-src/nv-optee/optee/optee_os/lib/libutils/ext/snprintk.c:156
    191c:	910083e3 	add	x3, sp, #0x20
/home/ssysarch/Desktop/nick/jetpack_5/Jetson_Linux_R35.4.1_aarch64/Linux_for_Tegra/sources/tegra/optee-src/nv-optee/optee/optee_os/lib/libutils/ext/snprintk.c:155
    1920:	910003fd 	mov	x29, sp
    1924:	a90153f3 	stp	x19, x20, [sp, #16]
    1928:	aa0003f4 	mov	x20, x0
    192c:	aa0103f3 	mov	x19, x1
/home/ssysarch/Desktop/nick/jetpack_5/Jetson_Linux_R35.4.1_aarch64/Linux_for_Tegra/sources/tegra/optee-src/nv-optee/optee/optee_os/lib/libutils/ext/snprintk.c:156
    1930:	aa0303e0 	mov	x0, x3
/home/ssysarch/Desktop/nick/jetpack_5/Jetson_Linux_R35.4.1_aarch64/Linux_for_Tegra/sources/tegra/optee-src/nv-optee/optee/optee_os/lib/libutils/ext/snprintk.c:155
    1934:	aa0203e1 	mov	x1, x2
/home/ssysarch/Desktop/nick/jetpack_5/Jetson_Linux_R35.4.1_aarch64/Linux_for_Tegra/sources/tegra/optee-src/nv-optee/optee/optee_os/lib/libutils/ext/snprintk.c:156
    1938:	d2800402 	mov	x2, #0x20                  	// #32
    193c:	97fff9b9 	bl	20 <memcpy>
    1940:	aa1403e2 	mov	x2, x20
    1944:	aa0003e3 	mov	x3, x0
    1948:	52800004 	mov	w4, #0x0                   	// #0
    194c:	aa1303e0 	mov	x0, x19
    1950:	d2800001 	mov	x1, #0x0                   	// #0
    1954:	97fffcf9 	bl	d38 <kprintf.constprop.0>
/home/ssysarch/Desktop/nick/jetpack_5/Jetson_Linux_R35.4.1_aarch64/Linux_for_Tegra/sources/tegra/optee-src/nv-optee/optee/optee_os/lib/libutils/ext/snprintk.c:157
    1958:	a94153f3 	ldp	x19, x20, [sp, #16]
    195c:	a8c47bfd 	ldp	x29, x30, [sp], #64
    1960:	d65f03c0 	ret

0000000000001964 <memchr>:
memchr():
/home/ssysarch/Desktop/nick/jetpack_5/Jetson_Linux_R35.4.1_aarch64/Linux_for_Tegra/sources/tegra/optee-src/nv-optee/optee/optee_os/lib/libutils/isoc/newlib/memchr.c:109
    1964:	12001c21 	and	w1, w1, #0xff
/home/ssysarch/Desktop/nick/jetpack_5/Jetson_Linux_R35.4.1_aarch64/Linux_for_Tegra/sources/tegra/optee-src/nv-optee/optee/optee_os/lib/libutils/isoc/newlib/memchr.c:153
    1968:	8b020002 	add	x2, x0, x2
    196c:	eb02001f 	cmp	x0, x2
    1970:	54000061 	b.ne	197c <memchr+0x18>  // b.any
/home/ssysarch/Desktop/nick/jetpack_5/Jetson_Linux_R35.4.1_aarch64/Linux_for_Tegra/sources/tegra/optee-src/nv-optee/optee/optee_os/lib/libutils/isoc/newlib/memchr.c:159
    1974:	d2800000 	mov	x0, #0x0                   	// #0
/home/ssysarch/Desktop/nick/jetpack_5/Jetson_Linux_R35.4.1_aarch64/Linux_for_Tegra/sources/tegra/optee-src/nv-optee/optee/optee_os/lib/libutils/isoc/newlib/memchr.c:160
    1978:	d65f03c0 	ret
/home/ssysarch/Desktop/nick/jetpack_5/Jetson_Linux_R35.4.1_aarch64/Linux_for_Tegra/sources/tegra/optee-src/nv-optee/optee/optee_os/lib/libutils/isoc/newlib/memchr.c:154
    197c:	39400003 	ldrb	w3, [x0]
    1980:	6b01007f 	cmp	w3, w1
    1984:	54ffffa0 	b.eq	1978 <memchr+0x14>  // b.none
/home/ssysarch/Desktop/nick/jetpack_5/Jetson_Linux_R35.4.1_aarch64/Linux_for_Tegra/sources/tegra/optee-src/nv-optee/optee/optee_os/lib/libutils/isoc/newlib/memchr.c:156
    1988:	91000400 	add	x0, x0, #0x1
    198c:	17fffff8 	b	196c <memchr+0x8>

0000000000001990 <strlen>:
strlen():
/home/ssysarch/Desktop/nick/jetpack_5/Jetson_Linux_R35.4.1_aarch64/Linux_for_Tegra/sources/tegra/optee-src/nv-optee/optee/optee_os/lib/libutils/isoc/newlib/strlen.c:117
    1990:	aa0003e1 	mov	x1, x0
    1994:	39400022 	ldrb	w2, [x1]
    1998:	35000062 	cbnz	w2, 19a4 <strlen+0x14>
/home/ssysarch/Desktop/nick/jetpack_5/Jetson_Linux_R35.4.1_aarch64/Linux_for_Tegra/sources/tegra/optee-src/nv-optee/optee/optee_os/lib/libutils/isoc/newlib/strlen.c:120
    199c:	cb000020 	sub	x0, x1, x0
    19a0:	d65f03c0 	ret
/home/ssysarch/Desktop/nick/jetpack_5/Jetson_Linux_R35.4.1_aarch64/Linux_for_Tegra/sources/tegra/optee-src/nv-optee/optee/optee_os/lib/libutils/isoc/newlib/strlen.c:118
    19a4:	91000421 	add	x1, x1, #0x1
    19a8:	17fffffb 	b	1994 <strlen+0x4>

00000000000019ac <trace_ext_puts>:
trace_ext_puts():
/home/ssysarch/Desktop/nick/jetpack_5/Jetson_Linux_R35.4.1_aarch64/Linux_for_Tegra/sources/tegra/optee-src/nv-optee/optee/optee_os/lib/libutee/trace_ext.c:22
    19ac:	a9be7bfd 	stp	x29, x30, [sp, #-32]!
    19b0:	910003fd 	mov	x29, sp
    19b4:	f9000bf3 	str	x19, [sp, #16]
    19b8:	aa0003f3 	mov	x19, x0
/home/ssysarch/Desktop/nick/jetpack_5/Jetson_Linux_R35.4.1_aarch64/Linux_for_Tegra/sources/tegra/optee-src/nv-optee/optee/optee_os/lib/libutee/trace_ext.c:26
    19bc:	97fffff5 	bl	1990 <strlen>
    19c0:	aa0003e1 	mov	x1, x0
    19c4:	aa1303e0 	mov	x0, x19
/home/ssysarch/Desktop/nick/jetpack_5/Jetson_Linux_R35.4.1_aarch64/Linux_for_Tegra/sources/tegra/optee-src/nv-optee/optee/optee_os/lib/libutee/trace_ext.c:28
    19c8:	f9400bf3 	ldr	x19, [sp, #16]
    19cc:	a8c27bfd 	ldp	x29, x30, [sp], #32
/home/ssysarch/Desktop/nick/jetpack_5/Jetson_Linux_R35.4.1_aarch64/Linux_for_Tegra/sources/tegra/optee-src/nv-optee/optee/optee_os/lib/libutee/trace_ext.c:26
    19d0:	140007f7 	b	39ac <_utee_log>

00000000000019d4 <trace_ext_get_thread_id>:
trace_ext_get_thread_id():
/home/ssysarch/Desktop/nick/jetpack_5/Jetson_Linux_R35.4.1_aarch64/Linux_for_Tegra/sources/tegra/optee-src/nv-optee/optee/optee_os/lib/libutee/trace_ext.c:33
    19d4:	12800000 	mov	w0, #0xffffffff            	// #-1
    19d8:	d65f03c0 	ret

00000000000019dc <printf>:
printf():
/home/ssysarch/Desktop/nick/jetpack_5/Jetson_Linux_R35.4.1_aarch64/Linux_for_Tegra/sources/tegra/optee-src/nv-optee/optee/optee_os/lib/libutee/trace_ext.c:41
    19dc:	d108c3ff 	sub	sp, sp, #0x230
    19e0:	a9007bfd 	stp	x29, x30, [sp]
    19e4:	910003fd 	mov	x29, sp
    19e8:	a90153f3 	stp	x19, x20, [sp, #16]
    19ec:	aa0003f3 	mov	x19, x0
    19f0:	910823e0 	add	x0, sp, #0x208
    19f4:	a91f8be1 	stp	x1, x2, [sp, #504]
    19f8:	b0000081 	adrp	x1, 12000 <_DYNAMIC>
    19fc:	3d805fe0 	str	q0, [sp, #368]
    1a00:	3d8063e1 	str	q1, [sp, #384]
    1a04:	3d8067e2 	str	q2, [sp, #400]
    1a08:	3d806be3 	str	q3, [sp, #416]
    1a0c:	3d806fe4 	str	q4, [sp, #432]
    1a10:	3d8073e5 	str	q5, [sp, #448]
    1a14:	3d8077e6 	str	q6, [sp, #464]
    1a18:	3d807be7 	str	q7, [sp, #480]
    1a1c:	f9409821 	ldr	x1, [x1, #304]
    1a20:	a9001003 	stp	x3, x4, [x0]
    1a24:	a9011805 	stp	x5, x6, [x0, #16]
    1a28:	f90117e7 	str	x7, [sp, #552]
    1a2c:	f9400020 	ldr	x0, [x1]
    1a30:	f900b7e0 	str	x0, [sp, #360]
    1a34:	d2800000 	mov	x0, #0x0                   	// #0
/home/ssysarch/Desktop/nick/jetpack_5/Jetson_Linux_R35.4.1_aarch64/Linux_for_Tegra/sources/tegra/optee-src/nv-optee/optee/optee_os/lib/libutee/trace_ext.c:46
    1a38:	97fffb1e 	bl	6b0 <trace_get_level>
    1a3c:	7100001f 	cmp	w0, #0x0
    1a40:	5400040d 	b.le	1ac0 <printf+0xe4>
/home/ssysarch/Desktop/nick/jetpack_5/Jetson_Linux_R35.4.1_aarch64/Linux_for_Tegra/sources/tegra/optee-src/nv-optee/optee/optee_os/lib/libutee/trace_ext.c:49
    1a44:	9108c3e0 	add	x0, sp, #0x230
/home/ssysarch/Desktop/nick/jetpack_5/Jetson_Linux_R35.4.1_aarch64/Linux_for_Tegra/sources/tegra/optee-src/nv-optee/optee/optee_os/lib/libutee/trace_ext.c:50
    1a48:	910083e3 	add	x3, sp, #0x20
/home/ssysarch/Desktop/nick/jetpack_5/Jetson_Linux_R35.4.1_aarch64/Linux_for_Tegra/sources/tegra/optee-src/nv-optee/optee/optee_os/lib/libutee/trace_ext.c:49
    1a4c:	a90483e0 	stp	x0, x0, [sp, #72]
    1a50:	9107c3e0 	add	x0, sp, #0x1f0
/home/ssysarch/Desktop/nick/jetpack_5/Jetson_Linux_R35.4.1_aarch64/Linux_for_Tegra/sources/tegra/optee-src/nv-optee/optee/optee_os/lib/libutee/trace_ext.c:50
    1a54:	910123e1 	add	x1, sp, #0x48
/home/ssysarch/Desktop/nick/jetpack_5/Jetson_Linux_R35.4.1_aarch64/Linux_for_Tegra/sources/tegra/optee-src/nv-optee/optee/optee_os/lib/libutee/trace_ext.c:49
    1a58:	f9002fe0 	str	x0, [sp, #88]
    1a5c:	128006e0 	mov	w0, #0xffffffc8            	// #-56
    1a60:	b90063e0 	str	w0, [sp, #96]
    1a64:	12800fe0 	mov	w0, #0xffffff80            	// #-128
/home/ssysarch/Desktop/nick/jetpack_5/Jetson_Linux_R35.4.1_aarch64/Linux_for_Tegra/sources/tegra/optee-src/nv-optee/optee/optee_os/lib/libutee/trace_ext.c:50
    1a68:	d2800402 	mov	x2, #0x20                  	// #32
    1a6c:	9101a3f4 	add	x20, sp, #0x68
/home/ssysarch/Desktop/nick/jetpack_5/Jetson_Linux_R35.4.1_aarch64/Linux_for_Tegra/sources/tegra/optee-src/nv-optee/optee/optee_os/lib/libutee/trace_ext.c:49
    1a70:	b90067e0 	str	w0, [sp, #100]
/home/ssysarch/Desktop/nick/jetpack_5/Jetson_Linux_R35.4.1_aarch64/Linux_for_Tegra/sources/tegra/optee-src/nv-optee/optee/optee_os/lib/libutee/trace_ext.c:50
    1a74:	aa0303e0 	mov	x0, x3
    1a78:	97fff96a 	bl	20 <memcpy>
    1a7c:	aa0003e3 	mov	x3, x0
    1a80:	aa1303e2 	mov	x2, x19
    1a84:	aa1403e0 	mov	x0, x20
    1a88:	d2802001 	mov	x1, #0x100                 	// #256
    1a8c:	94002c7c 	bl	cc7c <vsnprintf>
    1a90:	2a0003f3 	mov	w19, w0
/home/ssysarch/Desktop/nick/jetpack_5/Jetson_Linux_R35.4.1_aarch64/Linux_for_Tegra/sources/tegra/optee-src/nv-optee/optee/optee_os/lib/libutee/trace_ext.c:53
    1a94:	37f80060 	tbnz	w0, #31, 1aa0 <printf+0xc4>
/home/ssysarch/Desktop/nick/jetpack_5/Jetson_Linux_R35.4.1_aarch64/Linux_for_Tegra/sources/tegra/optee-src/nv-optee/optee/optee_os/lib/libutee/trace_ext.c:56
    1a98:	aa1403e0 	mov	x0, x20
    1a9c:	97ffffc4 	bl	19ac <trace_ext_puts>
/home/ssysarch/Desktop/nick/jetpack_5/Jetson_Linux_R35.4.1_aarch64/Linux_for_Tegra/sources/tegra/optee-src/nv-optee/optee/optee_os/lib/libutee/trace_ext.c:59
    1aa0:	b0000081 	adrp	x1, 12000 <_DYNAMIC>
    1aa4:	f9409821 	ldr	x1, [x1, #304]
    1aa8:	f940b7e0 	ldr	x0, [sp, #360]
    1aac:	f9400022 	ldr	x2, [x1]
    1ab0:	eb020000 	subs	x0, x0, x2
    1ab4:	d2800002 	mov	x2, #0x0                   	// #0
    1ab8:	54000080 	b.eq	1ac8 <printf+0xec>  // b.none
    1abc:	97fffaa0 	bl	53c <__stack_chk_fail>
/home/ssysarch/Desktop/nick/jetpack_5/Jetson_Linux_R35.4.1_aarch64/Linux_for_Tegra/sources/tegra/optee-src/nv-optee/optee/optee_os/lib/libutee/trace_ext.c:47
    1ac0:	52800013 	mov	w19, #0x0                   	// #0
    1ac4:	17fffff7 	b	1aa0 <printf+0xc4>
/home/ssysarch/Desktop/nick/jetpack_5/Jetson_Linux_R35.4.1_aarch64/Linux_for_Tegra/sources/tegra/optee-src/nv-optee/optee/optee_os/lib/libutee/trace_ext.c:59
    1ac8:	2a1303e0 	mov	w0, w19
    1acc:	a9407bfd 	ldp	x29, x30, [sp]
    1ad0:	a94153f3 	ldp	x19, x20, [sp, #16]
    1ad4:	9108c3ff 	add	sp, sp, #0x230
    1ad8:	d65f03c0 	ret

0000000000001adc <puts>:
puts():
/home/ssysarch/Desktop/nick/jetpack_5/Jetson_Linux_R35.4.1_aarch64/Linux_for_Tegra/sources/tegra/optee-src/nv-optee/optee/optee_os/lib/libutee/trace_ext.c:62
    1adc:	a9be7bfd 	stp	x29, x30, [sp, #-32]!
    1ae0:	910003fd 	mov	x29, sp
    1ae4:	f9000bf3 	str	x19, [sp, #16]
    1ae8:	aa0003f3 	mov	x19, x0
/home/ssysarch/Desktop/nick/jetpack_5/Jetson_Linux_R35.4.1_aarch64/Linux_for_Tegra/sources/tegra/optee-src/nv-optee/optee/optee_os/lib/libutee/trace_ext.c:63
    1aec:	97fffaf1 	bl	6b0 <trace_get_level>
    1af0:	7100001f 	cmp	w0, #0x0
    1af4:	540000cd 	b.le	1b0c <puts+0x30>
/home/ssysarch/Desktop/nick/jetpack_5/Jetson_Linux_R35.4.1_aarch64/Linux_for_Tegra/sources/tegra/optee-src/nv-optee/optee/optee_os/lib/libutee/trace_ext.c:64
    1af8:	aa1303e0 	mov	x0, x19
    1afc:	97ffffac 	bl	19ac <trace_ext_puts>
/home/ssysarch/Desktop/nick/jetpack_5/Jetson_Linux_R35.4.1_aarch64/Linux_for_Tegra/sources/tegra/optee-src/nv-optee/optee/optee_os/lib/libutee/trace_ext.c:65
    1b00:	f0000060 	adrp	x0, 10000 <__func__.3657+0x1b>
    1b04:	9124c000 	add	x0, x0, #0x930
    1b08:	97ffffa9 	bl	19ac <trace_ext_puts>
/home/ssysarch/Desktop/nick/jetpack_5/Jetson_Linux_R35.4.1_aarch64/Linux_for_Tegra/sources/tegra/optee-src/nv-optee/optee/optee_os/lib/libutee/trace_ext.c:68
    1b0c:	52800020 	mov	w0, #0x1                   	// #1
    1b10:	f9400bf3 	ldr	x19, [sp, #16]
    1b14:	a8c27bfd 	ldp	x29, x30, [sp], #32
    1b18:	d65f03c0 	ret

0000000000001b1c <putchar>:
putchar():
/home/ssysarch/Desktop/nick/jetpack_5/Jetson_Linux_R35.4.1_aarch64/Linux_for_Tegra/sources/tegra/optee-src/nv-optee/optee/optee_os/lib/libutee/trace_ext.c:71
    1b1c:	a9bd7bfd 	stp	x29, x30, [sp, #-48]!
    1b20:	b0000081 	adrp	x1, 12000 <_DYNAMIC>
    1b24:	910003fd 	mov	x29, sp
    1b28:	f9409821 	ldr	x1, [x1, #304]
    1b2c:	f9000bf3 	str	x19, [sp, #16]
    1b30:	2a0003f3 	mov	w19, w0
/home/ssysarch/Desktop/nick/jetpack_5/Jetson_Linux_R35.4.1_aarch64/Linux_for_Tegra/sources/tegra/optee-src/nv-optee/optee/optee_os/lib/libutee/trace_ext.c:72
    1b34:	390083f3 	strb	w19, [sp, #32]
/home/ssysarch/Desktop/nick/jetpack_5/Jetson_Linux_R35.4.1_aarch64/Linux_for_Tegra/sources/tegra/optee-src/nv-optee/optee/optee_os/lib/libutee/trace_ext.c:71
    1b38:	f9400020 	ldr	x0, [x1]
    1b3c:	f90017e0 	str	x0, [sp, #40]
    1b40:	d2800000 	mov	x0, #0x0                   	// #0
/home/ssysarch/Desktop/nick/jetpack_5/Jetson_Linux_R35.4.1_aarch64/Linux_for_Tegra/sources/tegra/optee-src/nv-optee/optee/optee_os/lib/libutee/trace_ext.c:72
    1b44:	390087ff 	strb	wzr, [sp, #33]
/home/ssysarch/Desktop/nick/jetpack_5/Jetson_Linux_R35.4.1_aarch64/Linux_for_Tegra/sources/tegra/optee-src/nv-optee/optee/optee_os/lib/libutee/trace_ext.c:74
    1b48:	97fffada 	bl	6b0 <trace_get_level>
    1b4c:	7100001f 	cmp	w0, #0x0
    1b50:	5400006d 	b.le	1b5c <putchar+0x40>
/home/ssysarch/Desktop/nick/jetpack_5/Jetson_Linux_R35.4.1_aarch64/Linux_for_Tegra/sources/tegra/optee-src/nv-optee/optee/optee_os/lib/libutee/trace_ext.c:75
    1b54:	910083e0 	add	x0, sp, #0x20
    1b58:	97ffff95 	bl	19ac <trace_ext_puts>
/home/ssysarch/Desktop/nick/jetpack_5/Jetson_Linux_R35.4.1_aarch64/Linux_for_Tegra/sources/tegra/optee-src/nv-optee/optee/optee_os/lib/libutee/trace_ext.c:82
    1b5c:	b0000081 	adrp	x1, 12000 <_DYNAMIC>
/home/ssysarch/Desktop/nick/jetpack_5/Jetson_Linux_R35.4.1_aarch64/Linux_for_Tegra/sources/tegra/optee-src/nv-optee/optee/optee_os/lib/libutee/trace_ext.c:81
    1b60:	12001e60 	and	w0, w19, #0xff
/home/ssysarch/Desktop/nick/jetpack_5/Jetson_Linux_R35.4.1_aarch64/Linux_for_Tegra/sources/tegra/optee-src/nv-optee/optee/optee_os/lib/libutee/trace_ext.c:82
    1b64:	f9409821 	ldr	x1, [x1, #304]
    1b68:	f94017e2 	ldr	x2, [sp, #40]
    1b6c:	f9400023 	ldr	x3, [x1]
    1b70:	eb030042 	subs	x2, x2, x3
    1b74:	d2800003 	mov	x3, #0x0                   	// #0
    1b78:	54000040 	b.eq	1b80 <putchar+0x64>  // b.none
    1b7c:	97fffa70 	bl	53c <__stack_chk_fail>
    1b80:	f9400bf3 	ldr	x19, [sp, #16]
    1b84:	a8c37bfd 	ldp	x29, x30, [sp], #48
    1b88:	d65f03c0 	ret

0000000000001b8c <copy_param>:
copy_param():
/home/ssysarch/Desktop/nick/jetpack_5/Jetson_Linux_R35.4.1_aarch64/Linux_for_Tegra/sources/tegra/optee-src/nv-optee/optee/optee_os/lib/libutee/tee_api.c:43
    1b8c:	2a0103e3 	mov	w3, w1
    1b90:	52800004 	mov	w4, #0x0                   	// #0
    1b94:	f8008403 	str	x3, [x0], #8
/home/ssysarch/Desktop/nick/jetpack_5/Jetson_Linux_R35.4.1_aarch64/Linux_for_Tegra/sources/tegra/optee-src/nv-optee/optee/optee_os/lib/libutee/tee_api.c:45
    1b98:	1ac42425 	lsr	w5, w1, w4
    1b9c:	12000ca3 	and	w3, w5, #0xf
    1ba0:	71000c7f 	cmp	w3, #0x3
    1ba4:	540001a0 	b.eq	1bd8 <copy_param+0x4c>  // b.none
    1ba8:	721e04bf 	tst	w5, #0xc
    1bac:	540000c1 	b.ne	1bc4 <copy_param+0x38>  // b.any
    1bb0:	7100047f 	cmp	w3, #0x1
    1bb4:	54000120 	b.eq	1bd8 <copy_param+0x4c>  // b.none
    1bb8:	d2800003 	mov	x3, #0x0                   	// #0
    1bbc:	d2800005 	mov	x5, #0x0                   	// #0
    1bc0:	14000007 	b	1bdc <copy_param+0x50>
    1bc4:	51001463 	sub	w3, w3, #0x5
    1bc8:	7100087f 	cmp	w3, #0x2
    1bcc:	54ffff68 	b.hi	1bb8 <copy_param+0x2c>  // b.pmore
/home/ssysarch/Desktop/nick/jetpack_5/Jetson_Linux_R35.4.1_aarch64/Linux_for_Tegra/sources/tegra/optee-src/nv-optee/optee/optee_os/lib/libutee/tee_api.c:55
    1bd0:	a9400c45 	ldp	x5, x3, [x2]
/home/ssysarch/Desktop/nick/jetpack_5/Jetson_Linux_R35.4.1_aarch64/Linux_for_Tegra/sources/tegra/optee-src/nv-optee/optee/optee_os/lib/libutee/tee_api.c:56
    1bd4:	14000002 	b	1bdc <copy_param+0x50>
/home/ssysarch/Desktop/nick/jetpack_5/Jetson_Linux_R35.4.1_aarch64/Linux_for_Tegra/sources/tegra/optee-src/nv-optee/optee/optee_os/lib/libutee/tee_api.c:49
    1bd8:	29400c45 	ldp	w5, w3, [x2]
/home/ssysarch/Desktop/nick/jetpack_5/Jetson_Linux_R35.4.1_aarch64/Linux_for_Tegra/sources/tegra/optee-src/nv-optee/optee/optee_os/lib/libutee/tee_api.c:62 (discriminator 2)
    1bdc:	a9000c05 	stp	x5, x3, [x0]
/home/ssysarch/Desktop/nick/jetpack_5/Jetson_Linux_R35.4.1_aarch64/Linux_for_Tegra/sources/tegra/optee-src/nv-optee/optee/optee_os/lib/libutee/tee_api.c:44 (discriminator 2)
    1be0:	11001084 	add	w4, w4, #0x4
    1be4:	91004042 	add	x2, x2, #0x10
    1be8:	7100409f 	cmp	w4, #0x10
    1bec:	91004000 	add	x0, x0, #0x10
    1bf0:	54fffd41 	b.ne	1b98 <copy_param+0xc>  // b.any
/home/ssysarch/Desktop/nick/jetpack_5/Jetson_Linux_R35.4.1_aarch64/Linux_for_Tegra/sources/tegra/optee-src/nv-optee/optee/optee_os/lib/libutee/tee_api.c:64
    1bf4:	d65f03c0 	ret

0000000000001bf8 <copy_gp11_param>:
copy_gp11_param():
/home/ssysarch/Desktop/nick/jetpack_5/Jetson_Linux_R35.4.1_aarch64/Linux_for_Tegra/sources/tegra/optee-src/nv-optee/optee/optee_os/lib/libutee/tee_api.c:73
    1bf8:	2a0103e3 	mov	w3, w1
    1bfc:	52800004 	mov	w4, #0x0                   	// #0
    1c00:	f8008403 	str	x3, [x0], #8
/home/ssysarch/Desktop/nick/jetpack_5/Jetson_Linux_R35.4.1_aarch64/Linux_for_Tegra/sources/tegra/optee-src/nv-optee/optee/optee_os/lib/libutee/tee_api.c:75
    1c04:	1ac42425 	lsr	w5, w1, w4
    1c08:	12000ca3 	and	w3, w5, #0xf
    1c0c:	71000c7f 	cmp	w3, #0x3
    1c10:	540001c0 	b.eq	1c48 <copy_gp11_param+0x50>  // b.none
    1c14:	721e04bf 	tst	w5, #0xc
    1c18:	540000c1 	b.ne	1c30 <copy_gp11_param+0x38>  // b.any
    1c1c:	7100047f 	cmp	w3, #0x1
    1c20:	54000140 	b.eq	1c48 <copy_gp11_param+0x50>  // b.none
    1c24:	d2800003 	mov	x3, #0x0                   	// #0
    1c28:	d2800005 	mov	x5, #0x0                   	// #0
    1c2c:	14000008 	b	1c4c <copy_gp11_param+0x54>
    1c30:	51001463 	sub	w3, w3, #0x5
    1c34:	7100087f 	cmp	w3, #0x2
    1c38:	54ffff68 	b.hi	1c24 <copy_gp11_param+0x2c>  // b.pmore
/home/ssysarch/Desktop/nick/jetpack_5/Jetson_Linux_R35.4.1_aarch64/Linux_for_Tegra/sources/tegra/optee-src/nv-optee/optee/optee_os/lib/libutee/tee_api.c:85
    1c3c:	b9400843 	ldr	w3, [x2, #8]
/home/ssysarch/Desktop/nick/jetpack_5/Jetson_Linux_R35.4.1_aarch64/Linux_for_Tegra/sources/tegra/optee-src/nv-optee/optee/optee_os/lib/libutee/tee_api.c:84
    1c40:	f9400045 	ldr	x5, [x2]
/home/ssysarch/Desktop/nick/jetpack_5/Jetson_Linux_R35.4.1_aarch64/Linux_for_Tegra/sources/tegra/optee-src/nv-optee/optee/optee_os/lib/libutee/tee_api.c:86
    1c44:	14000002 	b	1c4c <copy_gp11_param+0x54>
/home/ssysarch/Desktop/nick/jetpack_5/Jetson_Linux_R35.4.1_aarch64/Linux_for_Tegra/sources/tegra/optee-src/nv-optee/optee/optee_os/lib/libutee/tee_api.c:79
    1c48:	29400c45 	ldp	w5, w3, [x2]
/home/ssysarch/Desktop/nick/jetpack_5/Jetson_Linux_R35.4.1_aarch64/Linux_for_Tegra/sources/tegra/optee-src/nv-optee/optee/optee_os/lib/libutee/tee_api.c:92 (discriminator 2)
    1c4c:	a9000c05 	stp	x5, x3, [x0]
/home/ssysarch/Desktop/nick/jetpack_5/Jetson_Linux_R35.4.1_aarch64/Linux_for_Tegra/sources/tegra/optee-src/nv-optee/optee/optee_os/lib/libutee/tee_api.c:74 (discriminator 2)
    1c50:	11001084 	add	w4, w4, #0x4
    1c54:	91004042 	add	x2, x2, #0x10
    1c58:	7100409f 	cmp	w4, #0x10
    1c5c:	91004000 	add	x0, x0, #0x10
    1c60:	54fffd21 	b.ne	1c04 <copy_gp11_param+0xc>  // b.any
/home/ssysarch/Desktop/nick/jetpack_5/Jetson_Linux_R35.4.1_aarch64/Linux_for_Tegra/sources/tegra/optee-src/nv-optee/optee/optee_os/lib/libutee/tee_api.c:94
    1c64:	d65f03c0 	ret

0000000000001c68 <check_mem_access_rights_params>:
check_mem_access_rights_params():
/home/ssysarch/Desktop/nick/jetpack_5/Jetson_Linux_R35.4.1_aarch64/Linux_for_Tegra/sources/tegra/optee-src/nv-optee/optee/optee_os/lib/libutee/tee_api.c:261
    1c68:	b0000083 	adrp	x3, 12000 <_DYNAMIC>
bufs_intersect():
/home/ssysarch/Desktop/nick/jetpack_5/Jetson_Linux_R35.4.1_aarch64/Linux_for_Tegra/sources/tegra/optee-src/nv-optee/optee/optee_os/lib/libutee/tee_api.c:241
    1c6c:	d1000447 	sub	x7, x2, #0x1
    1c70:	8b0100e7 	add	x7, x7, x1
check_mem_access_rights_params():
/home/ssysarch/Desktop/nick/jetpack_5/Jetson_Linux_R35.4.1_aarch64/Linux_for_Tegra/sources/tegra/optee-src/nv-optee/optee/optee_os/lib/libutee/tee_api.c:261
    1c74:	52800005 	mov	w5, #0x0                   	// #0
    1c78:	f940c864 	ldr	x4, [x3, #400]
    1c7c:	f940d863 	ldr	x3, [x3, #432]
    1c80:	b9400089 	ldr	w9, [x4]
    1c84:	1ac52524 	lsr	w4, w9, w5
    1c88:	12000c84 	and	w4, w4, #0xf
    1c8c:	7100149f 	cmp	w4, #0x5
    1c90:	540002e0 	b.eq	1cec <check_mem_access_rights_params+0x84>  // b.none
    1c94:	51001884 	sub	w4, w4, #0x6
    1c98:	7100049f 	cmp	w4, #0x1
    1c9c:	540001c8 	b.hi	1cd4 <check_mem_access_rights_params+0x6c>  // b.pmore
    1ca0:	528000c6 	mov	w6, #0x6                   	// #6
/home/ssysarch/Desktop/nick/jetpack_5/Jetson_Linux_R35.4.1_aarch64/Linux_for_Tegra/sources/tegra/optee-src/nv-optee/optee/optee_os/lib/libutee/tee_api.c:268
    1ca4:	a9401068 	ldp	x8, x4, [x3]
bufs_intersect():
/home/ssysarch/Desktop/nick/jetpack_5/Jetson_Linux_R35.4.1_aarch64/Linux_for_Tegra/sources/tegra/optee-src/nv-optee/optee/optee_os/lib/libutee/tee_api.c:244
    1ca8:	f100005f 	cmp	x2, #0x0
    1cac:	fa401884 	ccmp	x4, #0x0, #0x4, ne  // ne = any
    1cb0:	54000120 	b.eq	1cd4 <check_mem_access_rights_params+0x6c>  // b.none
/home/ssysarch/Desktop/nick/jetpack_5/Jetson_Linux_R35.4.1_aarch64/Linux_for_Tegra/sources/tegra/optee-src/nv-optee/optee/optee_os/lib/libutee/tee_api.c:242
    1cb4:	d1000484 	sub	x4, x4, #0x1
/home/ssysarch/Desktop/nick/jetpack_5/Jetson_Linux_R35.4.1_aarch64/Linux_for_Tegra/sources/tegra/optee-src/nv-optee/optee/optee_os/lib/libutee/tee_api.c:247
    1cb8:	eb07011f 	cmp	x8, x7
/home/ssysarch/Desktop/nick/jetpack_5/Jetson_Linux_R35.4.1_aarch64/Linux_for_Tegra/sources/tegra/optee-src/nv-optee/optee/optee_os/lib/libutee/tee_api.c:242
    1cbc:	8b080084 	add	x4, x4, x8
/home/ssysarch/Desktop/nick/jetpack_5/Jetson_Linux_R35.4.1_aarch64/Linux_for_Tegra/sources/tegra/optee-src/nv-optee/optee/optee_os/lib/libutee/tee_api.c:247
    1cc0:	fa449022 	ccmp	x1, x4, #0x2, ls  // ls = plast
    1cc4:	54000088 	b.hi	1cd4 <check_mem_access_rights_params+0x6c>  // b.pmore
check_mem_access_rights_params():
/home/ssysarch/Desktop/nick/jetpack_5/Jetson_Linux_R35.4.1_aarch64/Linux_for_Tegra/sources/tegra/optee-src/nv-optee/optee/optee_os/lib/libutee/tee_api.c:267
    1cc8:	320000c6 	orr	w6, w6, #0x1
/home/ssysarch/Desktop/nick/jetpack_5/Jetson_Linux_R35.4.1_aarch64/Linux_for_Tegra/sources/tegra/optee-src/nv-optee/optee/optee_os/lib/libutee/tee_api.c:271
    1ccc:	6a26001f 	bics	wzr, w0, w6
    1cd0:	54000121 	b.ne	1cf4 <check_mem_access_rights_params+0x8c>  // b.any
/home/ssysarch/Desktop/nick/jetpack_5/Jetson_Linux_R35.4.1_aarch64/Linux_for_Tegra/sources/tegra/optee-src/nv-optee/optee/optee_os/lib/libutee/tee_api.c:258 (discriminator 2)
    1cd4:	110010a5 	add	w5, w5, #0x4
    1cd8:	91004063 	add	x3, x3, #0x10
    1cdc:	710040bf 	cmp	w5, #0x10
    1ce0:	54fffd21 	b.ne	1c84 <check_mem_access_rights_params+0x1c>  // b.any
/home/ssysarch/Desktop/nick/jetpack_5/Jetson_Linux_R35.4.1_aarch64/Linux_for_Tegra/sources/tegra/optee-src/nv-optee/optee/optee_os/lib/libutee/tee_api.c:280
    1ce4:	52800000 	mov	w0, #0x0                   	// #0
/home/ssysarch/Desktop/nick/jetpack_5/Jetson_Linux_R35.4.1_aarch64/Linux_for_Tegra/sources/tegra/optee-src/nv-optee/optee/optee_os/lib/libutee/tee_api.c:281
    1ce8:	d65f03c0 	ret
/home/ssysarch/Desktop/nick/jetpack_5/Jetson_Linux_R35.4.1_aarch64/Linux_for_Tegra/sources/tegra/optee-src/nv-optee/optee/optee_os/lib/libutee/tee_api.c:259
    1cec:	52800086 	mov	w6, #0x4                   	// #4
    1cf0:	17ffffed 	b	1ca4 <check_mem_access_rights_params+0x3c>
/home/ssysarch/Desktop/nick/jetpack_5/Jetson_Linux_R35.4.1_aarch64/Linux_for_Tegra/sources/tegra/optee-src/nv-optee/optee/optee_os/lib/libutee/tee_api.c:272
    1cf4:	129fffc0 	mov	w0, #0xffff0001            	// #-65535
    1cf8:	17fffffc 	b	1ce8 <check_mem_access_rights_params+0x80>

0000000000001cfc <buf_overlaps_no_share_heap>:
buf_overlaps_no_share_heap():
/home/ssysarch/Desktop/nick/jetpack_5/Jetson_Linux_R35.4.1_aarch64/Linux_for_Tegra/sources/tegra/optee-src/nv-optee/optee/optee_os/lib/libutee/tee_api.c:284
    1cfc:	aa0003e3 	mov	x3, x0
/home/ssysarch/Desktop/nick/jetpack_5/Jetson_Linux_R35.4.1_aarch64/Linux_for_Tegra/sources/tegra/optee-src/nv-optee/optee/optee_os/lib/libutee/tee_api.c:285
    1d00:	b0000080 	adrp	x0, 12000 <_DYNAMIC>
    1d04:	f940d000 	ldr	x0, [x0, #416]
    1d08:	f9400000 	ldr	x0, [x0]
/home/ssysarch/Desktop/nick/jetpack_5/Jetson_Linux_R35.4.1_aarch64/Linux_for_Tegra/sources/tegra/optee-src/nv-optee/optee/optee_os/lib/libutee/tee_api.c:287
    1d0c:	b4000140 	cbz	x0, 1d34 <buf_overlaps_no_share_heap+0x38>
/home/ssysarch/Desktop/nick/jetpack_5/Jetson_Linux_R35.4.1_aarch64/Linux_for_Tegra/sources/tegra/optee-src/nv-optee/optee/optee_os/lib/libutee/tee_api.c:284 (discriminator 1)
    1d10:	a9bf7bfd 	stp	x29, x30, [sp, #-16]!
    1d14:	aa0103e2 	mov	x2, x1
/home/ssysarch/Desktop/nick/jetpack_5/Jetson_Linux_R35.4.1_aarch64/Linux_for_Tegra/sources/tegra/optee-src/nv-optee/optee/optee_os/lib/libutee/tee_api.c:287 (discriminator 1)
    1d18:	aa0303e1 	mov	x1, x3
/home/ssysarch/Desktop/nick/jetpack_5/Jetson_Linux_R35.4.1_aarch64/Linux_for_Tegra/sources/tegra/optee-src/nv-optee/optee/optee_os/lib/libutee/tee_api.c:284 (discriminator 1)
    1d1c:	910003fd 	mov	x29, sp
/home/ssysarch/Desktop/nick/jetpack_5/Jetson_Linux_R35.4.1_aarch64/Linux_for_Tegra/sources/tegra/optee-src/nv-optee/optee/optee_os/lib/libutee/tee_api.c:287 (discriminator 1)
    1d20:	94002b0d 	bl	c954 <raw_malloc_buffer_overlaps_heap>
    1d24:	12001c00 	and	w0, w0, #0xff
/home/ssysarch/Desktop/nick/jetpack_5/Jetson_Linux_R35.4.1_aarch64/Linux_for_Tegra/sources/tegra/optee-src/nv-optee/optee/optee_os/lib/libutee/tee_api.c:288 (discriminator 1)
    1d28:	12000000 	and	w0, w0, #0x1
    1d2c:	a8c17bfd 	ldp	x29, x30, [sp], #16
    1d30:	d65f03c0 	ret
/home/ssysarch/Desktop/nick/jetpack_5/Jetson_Linux_R35.4.1_aarch64/Linux_for_Tegra/sources/tegra/optee-src/nv-optee/optee/optee_os/lib/libutee/tee_api.c:287
    1d34:	52800000 	mov	w0, #0x0                   	// #0
/home/ssysarch/Desktop/nick/jetpack_5/Jetson_Linux_R35.4.1_aarch64/Linux_for_Tegra/sources/tegra/optee-src/nv-optee/optee/optee_os/lib/libutee/tee_api.c:288
    1d38:	12000000 	and	w0, w0, #0x1
    1d3c:	d65f03c0 	ret

0000000000001d40 <check_invoke_param>:
check_invoke_param():
/home/ssysarch/Desktop/nick/jetpack_5/Jetson_Linux_R35.4.1_aarch64/Linux_for_Tegra/sources/tegra/optee-src/nv-optee/optee/optee_os/lib/libutee/tee_api.c:291
    1d40:	a9bc7bfd 	stp	x29, x30, [sp, #-64]!
    1d44:	910003fd 	mov	x29, sp
    1d48:	a90153f3 	stp	x19, x20, [sp, #16]
    1d4c:	91002033 	add	x19, x1, #0x8
    1d50:	52800014 	mov	w20, #0x0                   	// #0
    1d54:	a9025bf5 	stp	x21, x22, [sp, #32]
    1d58:	2a0003f5 	mov	w21, w0
    1d5c:	f9001bf7 	str	x23, [sp, #48]
/home/ssysarch/Desktop/nick/jetpack_5/Jetson_Linux_R35.4.1_aarch64/Linux_for_Tegra/sources/tegra/optee-src/nv-optee/optee/optee_os/lib/libutee/tee_api.c:299
    1d60:	1ad426a1 	lsr	w1, w21, w20
    1d64:	12000c21 	and	w1, w1, #0xf
    1d68:	7100143f 	cmp	w1, #0x5
    1d6c:	540003a0 	b.eq	1de0 <check_invoke_param+0xa0>  // b.none
    1d70:	51001821 	sub	w1, w1, #0x6
    1d74:	7100043f 	cmp	w1, #0x1
    1d78:	54000228 	b.hi	1dbc <check_invoke_param+0x7c>  // b.pmore
    1d7c:	528000c0 	mov	w0, #0x6                   	// #6
/home/ssysarch/Desktop/nick/jetpack_5/Jetson_Linux_R35.4.1_aarch64/Linux_for_Tegra/sources/tegra/optee-src/nv-optee/optee/optee_os/lib/libutee/tee_api.c:297
    1d80:	a97fde76 	ldp	x22, x23, [x19, #-8]
/home/ssysarch/Desktop/nick/jetpack_5/Jetson_Linux_R35.4.1_aarch64/Linux_for_Tegra/sources/tegra/optee-src/nv-optee/optee/optee_os/lib/libutee/tee_api.c:306
    1d84:	32000000 	orr	w0, w0, #0x1
    1d88:	aa1703e2 	mov	x2, x23
    1d8c:	aa1603e1 	mov	x1, x22
    1d90:	97ffffb6 	bl	1c68 <check_mem_access_rights_params>
    1d94:	34000060 	cbz	w0, 1da0 <check_invoke_param+0x60>
/home/ssysarch/Desktop/nick/jetpack_5/Jetson_Linux_R35.4.1_aarch64/Linux_for_Tegra/sources/tegra/optee-src/nv-optee/optee/optee_os/lib/libutee/tee_api.c:307
    1d98:	52800000 	mov	w0, #0x0                   	// #0
    1d9c:	940003b3 	bl	2c68 <TEE_Panic>
/home/ssysarch/Desktop/nick/jetpack_5/Jetson_Linux_R35.4.1_aarch64/Linux_for_Tegra/sources/tegra/optee-src/nv-optee/optee/optee_os/lib/libutee/tee_api.c:308
    1da0:	aa1703e1 	mov	x1, x23
    1da4:	aa1603e0 	mov	x0, x22
    1da8:	97ffffd5 	bl	1cfc <buf_overlaps_no_share_heap>
    1dac:	72001c1f 	tst	w0, #0xff
    1db0:	54000060 	b.eq	1dbc <check_invoke_param+0x7c>  // b.none
/home/ssysarch/Desktop/nick/jetpack_5/Jetson_Linux_R35.4.1_aarch64/Linux_for_Tegra/sources/tegra/optee-src/nv-optee/optee/optee_os/lib/libutee/tee_api.c:309
    1db4:	52800000 	mov	w0, #0x0                   	// #0
    1db8:	940003ac 	bl	2c68 <TEE_Panic>
/home/ssysarch/Desktop/nick/jetpack_5/Jetson_Linux_R35.4.1_aarch64/Linux_for_Tegra/sources/tegra/optee-src/nv-optee/optee/optee_os/lib/libutee/tee_api.c:294 (discriminator 2)
    1dbc:	11001294 	add	w20, w20, #0x4
    1dc0:	91004273 	add	x19, x19, #0x10
    1dc4:	7100429f 	cmp	w20, #0x10
    1dc8:	54fffcc1 	b.ne	1d60 <check_invoke_param+0x20>  // b.any
/home/ssysarch/Desktop/nick/jetpack_5/Jetson_Linux_R35.4.1_aarch64/Linux_for_Tegra/sources/tegra/optee-src/nv-optee/optee/optee_os/lib/libutee/tee_api.c:315
    1dcc:	a94153f3 	ldp	x19, x20, [sp, #16]
    1dd0:	a9425bf5 	ldp	x21, x22, [sp, #32]
    1dd4:	f9401bf7 	ldr	x23, [sp, #48]
    1dd8:	a8c47bfd 	ldp	x29, x30, [sp], #64
    1ddc:	d65f03c0 	ret
/home/ssysarch/Desktop/nick/jetpack_5/Jetson_Linux_R35.4.1_aarch64/Linux_for_Tegra/sources/tegra/optee-src/nv-optee/optee/optee_os/lib/libutee/tee_api.c:295
    1de0:	52800080 	mov	w0, #0x4                   	// #4
    1de4:	17ffffe7 	b	1d80 <check_invoke_param+0x40>

0000000000001de8 <update_out_param>:
update_out_param():
/home/ssysarch/Desktop/nick/jetpack_5/Jetson_Linux_R35.4.1_aarch64/Linux_for_Tegra/sources/tegra/optee-src/nv-optee/optee/optee_os/lib/libutee/tee_api.c:180
    1de8:	a9bc7bfd 	stp	x29, x30, [sp, #-64]!
    1dec:	910003fd 	mov	x29, sp
    1df0:	a90153f3 	stp	x19, x20, [sp, #16]
/home/ssysarch/Desktop/nick/jetpack_5/Jetson_Linux_R35.4.1_aarch64/Linux_for_Tegra/sources/tegra/optee-src/nv-optee/optee/optee_os/lib/libutee/tee_api.c:182
    1df4:	aa0203f4 	mov	x20, x2
    1df8:	aa0003f3 	mov	x19, x0
/home/ssysarch/Desktop/nick/jetpack_5/Jetson_Linux_R35.4.1_aarch64/Linux_for_Tegra/sources/tegra/optee-src/nv-optee/optee/optee_os/lib/libutee/tee_api.c:180
    1dfc:	a90363f7 	stp	x23, x24, [sp, #48]
    1e00:	aa0103f8 	mov	x24, x1
/home/ssysarch/Desktop/nick/jetpack_5/Jetson_Linux_R35.4.1_aarch64/Linux_for_Tegra/sources/tegra/optee-src/nv-optee/optee/optee_os/lib/libutee/tee_api.c:182
    1e04:	f8408697 	ldr	x23, [x20], #8
/home/ssysarch/Desktop/nick/jetpack_5/Jetson_Linux_R35.4.1_aarch64/Linux_for_Tegra/sources/tegra/optee-src/nv-optee/optee/optee_os/lib/libutee/tee_api.c:180
    1e08:	a9025bf5 	stp	x21, x22, [sp, #32]
/home/ssysarch/Desktop/nick/jetpack_5/Jetson_Linux_R35.4.1_aarch64/Linux_for_Tegra/sources/tegra/optee-src/nv-optee/optee/optee_os/lib/libutee/tee_api.c:184
    1e0c:	d2800015 	mov	x21, #0x0                   	// #0
/home/ssysarch/Desktop/nick/jetpack_5/Jetson_Linux_R35.4.1_aarch64/Linux_for_Tegra/sources/tegra/optee-src/nv-optee/optee/optee_os/lib/libutee/tee_api.c:188
    1e10:	531e76a0 	lsl	w0, w21, #2
/home/ssysarch/Desktop/nick/jetpack_5/Jetson_Linux_R35.4.1_aarch64/Linux_for_Tegra/sources/tegra/optee-src/nv-optee/optee/optee_os/lib/libutee/tee_api.c:186
    1e14:	f9400696 	ldr	x22, [x20, #8]
/home/ssysarch/Desktop/nick/jetpack_5/Jetson_Linux_R35.4.1_aarch64/Linux_for_Tegra/sources/tegra/optee-src/nv-optee/optee/optee_os/lib/libutee/tee_api.c:188
    1e18:	1ac026e0 	lsr	w0, w23, w0
    1e1c:	12000c01 	and	w1, w0, #0xf
    1e20:	721e041f 	tst	w0, #0xc
    1e24:	540000c1 	b.ne	1e3c <update_out_param+0x54>  // b.any
    1e28:	721f081f 	tst	w0, #0xe
    1e2c:	540000e0 	b.eq	1e48 <update_out_param+0x60>  // b.none
/home/ssysarch/Desktop/nick/jetpack_5/Jetson_Linux_R35.4.1_aarch64/Linux_for_Tegra/sources/tegra/optee-src/nv-optee/optee/optee_os/lib/libutee/tee_api.c:191
    1e30:	f9400280 	ldr	x0, [x20]
/home/ssysarch/Desktop/nick/jetpack_5/Jetson_Linux_R35.4.1_aarch64/Linux_for_Tegra/sources/tegra/optee-src/nv-optee/optee/optee_os/lib/libutee/tee_api.c:192
    1e34:	29005a60 	stp	w0, w22, [x19]
/home/ssysarch/Desktop/nick/jetpack_5/Jetson_Linux_R35.4.1_aarch64/Linux_for_Tegra/sources/tegra/optee-src/nv-optee/optee/optee_os/lib/libutee/tee_api.c:193
    1e38:	14000004 	b	1e48 <update_out_param+0x60>
/home/ssysarch/Desktop/nick/jetpack_5/Jetson_Linux_R35.4.1_aarch64/Linux_for_Tegra/sources/tegra/optee-src/nv-optee/optee/optee_os/lib/libutee/tee_api.c:188
    1e3c:	51001820 	sub	w0, w1, #0x6
    1e40:	7100041f 	cmp	w0, #0x1
    1e44:	54000169 	b.ls	1e70 <update_out_param+0x88>  // b.plast
/home/ssysarch/Desktop/nick/jetpack_5/Jetson_Linux_R35.4.1_aarch64/Linux_for_Tegra/sources/tegra/optee-src/nv-optee/optee/optee_os/lib/libutee/tee_api.c:184 (discriminator 2)
    1e48:	910006b5 	add	x21, x21, #0x1
    1e4c:	91004294 	add	x20, x20, #0x10
    1e50:	91004273 	add	x19, x19, #0x10
    1e54:	f10012bf 	cmp	x21, #0x4
    1e58:	54fffdc1 	b.ne	1e10 <update_out_param+0x28>  // b.any
/home/ssysarch/Desktop/nick/jetpack_5/Jetson_Linux_R35.4.1_aarch64/Linux_for_Tegra/sources/tegra/optee-src/nv-optee/optee/optee_os/lib/libutee/tee_api.c:205
    1e5c:	a94153f3 	ldp	x19, x20, [sp, #16]
    1e60:	a9425bf5 	ldp	x21, x22, [sp, #32]
    1e64:	a94363f7 	ldp	x23, x24, [sp, #48]
    1e68:	a8c47bfd 	ldp	x29, x30, [sp], #64
    1e6c:	d65f03c0 	ret
/home/ssysarch/Desktop/nick/jetpack_5/Jetson_Linux_R35.4.1_aarch64/Linux_for_Tegra/sources/tegra/optee-src/nv-optee/optee/optee_os/lib/libutee/tee_api.c:196
    1e70:	f8757b01 	ldr	x1, [x24, x21, lsl #3]
    1e74:	b40000a1 	cbz	x1, 1e88 <update_out_param+0xa0>
/home/ssysarch/Desktop/nick/jetpack_5/Jetson_Linux_R35.4.1_aarch64/Linux_for_Tegra/sources/tegra/optee-src/nv-optee/optee/optee_os/lib/libutee/tee_api.c:198
    1e78:	a9400a60 	ldp	x0, x2, [x19]
    1e7c:	eb16005f 	cmp	x2, x22
/home/ssysarch/Desktop/nick/jetpack_5/Jetson_Linux_R35.4.1_aarch64/Linux_for_Tegra/sources/tegra/optee-src/nv-optee/optee/optee_os/lib/libutee/tee_api.c:197
    1e80:	9a969042 	csel	x2, x2, x22, ls  // ls = plast
    1e84:	97fff867 	bl	20 <memcpy>
/home/ssysarch/Desktop/nick/jetpack_5/Jetson_Linux_R35.4.1_aarch64/Linux_for_Tegra/sources/tegra/optee-src/nv-optee/optee/optee_os/lib/libutee/tee_api.c:199
    1e88:	f9000676 	str	x22, [x19, #8]
/home/ssysarch/Desktop/nick/jetpack_5/Jetson_Linux_R35.4.1_aarch64/Linux_for_Tegra/sources/tegra/optee-src/nv-optee/optee/optee_os/lib/libutee/tee_api.c:200
    1e8c:	17ffffef 	b	1e48 <update_out_param+0x60>

0000000000001e90 <update_out_gp11_param>:
update_out_gp11_param():
/home/ssysarch/Desktop/nick/jetpack_5/Jetson_Linux_R35.4.1_aarch64/Linux_for_Tegra/sources/tegra/optee-src/nv-optee/optee/optee_os/lib/libutee/tee_api.c:210
    1e90:	a9bc7bfd 	stp	x29, x30, [sp, #-64]!
    1e94:	910003fd 	mov	x29, sp
    1e98:	a90153f3 	stp	x19, x20, [sp, #16]
/home/ssysarch/Desktop/nick/jetpack_5/Jetson_Linux_R35.4.1_aarch64/Linux_for_Tegra/sources/tegra/optee-src/nv-optee/optee/optee_os/lib/libutee/tee_api.c:212
    1e9c:	aa0203f4 	mov	x20, x2
    1ea0:	aa0003f3 	mov	x19, x0
/home/ssysarch/Desktop/nick/jetpack_5/Jetson_Linux_R35.4.1_aarch64/Linux_for_Tegra/sources/tegra/optee-src/nv-optee/optee/optee_os/lib/libutee/tee_api.c:210
    1ea4:	a90363f7 	stp	x23, x24, [sp, #48]
    1ea8:	aa0103f8 	mov	x24, x1
/home/ssysarch/Desktop/nick/jetpack_5/Jetson_Linux_R35.4.1_aarch64/Linux_for_Tegra/sources/tegra/optee-src/nv-optee/optee/optee_os/lib/libutee/tee_api.c:212
    1eac:	f8408697 	ldr	x23, [x20], #8
/home/ssysarch/Desktop/nick/jetpack_5/Jetson_Linux_R35.4.1_aarch64/Linux_for_Tegra/sources/tegra/optee-src/nv-optee/optee/optee_os/lib/libutee/tee_api.c:210
    1eb0:	a9025bf5 	stp	x21, x22, [sp, #32]
/home/ssysarch/Desktop/nick/jetpack_5/Jetson_Linux_R35.4.1_aarch64/Linux_for_Tegra/sources/tegra/optee-src/nv-optee/optee/optee_os/lib/libutee/tee_api.c:214
    1eb4:	d2800015 	mov	x21, #0x0                   	// #0
/home/ssysarch/Desktop/nick/jetpack_5/Jetson_Linux_R35.4.1_aarch64/Linux_for_Tegra/sources/tegra/optee-src/nv-optee/optee/optee_os/lib/libutee/tee_api.c:218
    1eb8:	531e76a0 	lsl	w0, w21, #2
/home/ssysarch/Desktop/nick/jetpack_5/Jetson_Linux_R35.4.1_aarch64/Linux_for_Tegra/sources/tegra/optee-src/nv-optee/optee/optee_os/lib/libutee/tee_api.c:216
    1ebc:	f9400696 	ldr	x22, [x20, #8]
/home/ssysarch/Desktop/nick/jetpack_5/Jetson_Linux_R35.4.1_aarch64/Linux_for_Tegra/sources/tegra/optee-src/nv-optee/optee/optee_os/lib/libutee/tee_api.c:218
    1ec0:	1ac026e0 	lsr	w0, w23, w0
    1ec4:	12000c01 	and	w1, w0, #0xf
    1ec8:	721e041f 	tst	w0, #0xc
    1ecc:	540000c1 	b.ne	1ee4 <update_out_gp11_param+0x54>  // b.any
    1ed0:	721f081f 	tst	w0, #0xe
    1ed4:	540000e0 	b.eq	1ef0 <update_out_gp11_param+0x60>  // b.none
/home/ssysarch/Desktop/nick/jetpack_5/Jetson_Linux_R35.4.1_aarch64/Linux_for_Tegra/sources/tegra/optee-src/nv-optee/optee/optee_os/lib/libutee/tee_api.c:221
    1ed8:	f9400280 	ldr	x0, [x20]
/home/ssysarch/Desktop/nick/jetpack_5/Jetson_Linux_R35.4.1_aarch64/Linux_for_Tegra/sources/tegra/optee-src/nv-optee/optee/optee_os/lib/libutee/tee_api.c:222
    1edc:	29005a60 	stp	w0, w22, [x19]
/home/ssysarch/Desktop/nick/jetpack_5/Jetson_Linux_R35.4.1_aarch64/Linux_for_Tegra/sources/tegra/optee-src/nv-optee/optee/optee_os/lib/libutee/tee_api.c:223
    1ee0:	14000004 	b	1ef0 <update_out_gp11_param+0x60>
/home/ssysarch/Desktop/nick/jetpack_5/Jetson_Linux_R35.4.1_aarch64/Linux_for_Tegra/sources/tegra/optee-src/nv-optee/optee/optee_os/lib/libutee/tee_api.c:218
    1ee4:	51001820 	sub	w0, w1, #0x6
    1ee8:	7100041f 	cmp	w0, #0x1
    1eec:	54000169 	b.ls	1f18 <update_out_gp11_param+0x88>  // b.plast
/home/ssysarch/Desktop/nick/jetpack_5/Jetson_Linux_R35.4.1_aarch64/Linux_for_Tegra/sources/tegra/optee-src/nv-optee/optee/optee_os/lib/libutee/tee_api.c:214 (discriminator 2)
    1ef0:	910006b5 	add	x21, x21, #0x1
    1ef4:	91004294 	add	x20, x20, #0x10
    1ef8:	91004273 	add	x19, x19, #0x10
    1efc:	f10012bf 	cmp	x21, #0x4
    1f00:	54fffdc1 	b.ne	1eb8 <update_out_gp11_param+0x28>  // b.any
/home/ssysarch/Desktop/nick/jetpack_5/Jetson_Linux_R35.4.1_aarch64/Linux_for_Tegra/sources/tegra/optee-src/nv-optee/optee/optee_os/lib/libutee/tee_api.c:235
    1f04:	a94153f3 	ldp	x19, x20, [sp, #16]
    1f08:	a9425bf5 	ldp	x21, x22, [sp, #32]
    1f0c:	a94363f7 	ldp	x23, x24, [sp, #48]
    1f10:	a8c47bfd 	ldp	x29, x30, [sp], #64
    1f14:	d65f03c0 	ret
/home/ssysarch/Desktop/nick/jetpack_5/Jetson_Linux_R35.4.1_aarch64/Linux_for_Tegra/sources/tegra/optee-src/nv-optee/optee/optee_os/lib/libutee/tee_api.c:226
    1f18:	f8757b01 	ldr	x1, [x24, x21, lsl #3]
    1f1c:	b40000c1 	cbz	x1, 1f34 <update_out_gp11_param+0xa4>
/home/ssysarch/Desktop/nick/jetpack_5/Jetson_Linux_R35.4.1_aarch64/Linux_for_Tegra/sources/tegra/optee-src/nv-optee/optee/optee_os/lib/libutee/tee_api.c:228
    1f20:	b9400a62 	ldr	w2, [x19, #8]
/home/ssysarch/Desktop/nick/jetpack_5/Jetson_Linux_R35.4.1_aarch64/Linux_for_Tegra/sources/tegra/optee-src/nv-optee/optee/optee_os/lib/libutee/tee_api.c:227
    1f24:	f9400260 	ldr	x0, [x19]
/home/ssysarch/Desktop/nick/jetpack_5/Jetson_Linux_R35.4.1_aarch64/Linux_for_Tegra/sources/tegra/optee-src/nv-optee/optee/optee_os/lib/libutee/tee_api.c:228
    1f28:	eb16005f 	cmp	x2, x22
/home/ssysarch/Desktop/nick/jetpack_5/Jetson_Linux_R35.4.1_aarch64/Linux_for_Tegra/sources/tegra/optee-src/nv-optee/optee/optee_os/lib/libutee/tee_api.c:227
    1f2c:	9a969042 	csel	x2, x2, x22, ls  // ls = plast
    1f30:	97fff83c 	bl	20 <memcpy>
/home/ssysarch/Desktop/nick/jetpack_5/Jetson_Linux_R35.4.1_aarch64/Linux_for_Tegra/sources/tegra/optee-src/nv-optee/optee/optee_os/lib/libutee/tee_api.c:229
    1f34:	b9000a76 	str	w22, [x19, #8]
/home/ssysarch/Desktop/nick/jetpack_5/Jetson_Linux_R35.4.1_aarch64/Linux_for_Tegra/sources/tegra/optee-src/nv-optee/optee/optee_os/lib/libutee/tee_api.c:230
    1f38:	17ffffee 	b	1ef0 <update_out_gp11_param+0x60>

0000000000001f3c <TEE_CloseTASession>:
TEE_CloseTASession():
/home/ssysarch/Desktop/nick/jetpack_5/Jetson_Linux_R35.4.1_aarch64/Linux_for_Tegra/sources/tegra/optee-src/nv-optee/optee/optee_os/lib/libutee/tee_api.c:415
    1f3c:	b4000120 	cbz	x0, 1f60 <TEE_CloseTASession+0x24>
/home/ssysarch/Desktop/nick/jetpack_5/Jetson_Linux_R35.4.1_aarch64/Linux_for_Tegra/sources/tegra/optee-src/nv-optee/optee/optee_os/lib/libutee/tee_api.c:414
    1f40:	a9bf7bfd 	stp	x29, x30, [sp, #-16]!
    1f44:	910003fd 	mov	x29, sp
/home/ssysarch/Desktop/nick/jetpack_5/Jetson_Linux_R35.4.1_aarch64/Linux_for_Tegra/sources/tegra/optee-src/nv-optee/optee/optee_os/lib/libutee/tee_api.c:416
    1f48:	940006a8 	bl	39e8 <_utee_close_ta_session>
/home/ssysarch/Desktop/nick/jetpack_5/Jetson_Linux_R35.4.1_aarch64/Linux_for_Tegra/sources/tegra/optee-src/nv-optee/optee/optee_os/lib/libutee/tee_api.c:418
    1f4c:	34000060 	cbz	w0, 1f58 <TEE_CloseTASession+0x1c>
/home/ssysarch/Desktop/nick/jetpack_5/Jetson_Linux_R35.4.1_aarch64/Linux_for_Tegra/sources/tegra/optee-src/nv-optee/optee/optee_os/lib/libutee/tee_api.c:421
    1f50:	a8c17bfd 	ldp	x29, x30, [sp], #16
/home/ssysarch/Desktop/nick/jetpack_5/Jetson_Linux_R35.4.1_aarch64/Linux_for_Tegra/sources/tegra/optee-src/nv-optee/optee/optee_os/lib/libutee/tee_api.c:419
    1f54:	14000345 	b	2c68 <TEE_Panic>
/home/ssysarch/Desktop/nick/jetpack_5/Jetson_Linux_R35.4.1_aarch64/Linux_for_Tegra/sources/tegra/optee-src/nv-optee/optee/optee_os/lib/libutee/tee_api.c:421
    1f58:	a8c17bfd 	ldp	x29, x30, [sp], #16
    1f5c:	d65f03c0 	ret
    1f60:	d65f03c0 	ret

0000000000001f64 <TEE_GetCancellationFlag>:
TEE_GetCancellationFlag():
/home/ssysarch/Desktop/nick/jetpack_5/Jetson_Linux_R35.4.1_aarch64/Linux_for_Tegra/sources/tegra/optee-src/nv-optee/optee/optee_os/lib/libutee/tee_api.c:530
    1f64:	a9be7bfd 	stp	x29, x30, [sp, #-32]!
    1f68:	b0000081 	adrp	x1, 12000 <_DYNAMIC>
    1f6c:	910003fd 	mov	x29, sp
    1f70:	f9409821 	ldr	x1, [x1, #304]
    1f74:	f9400020 	ldr	x0, [x1]
    1f78:	f9000fe0 	str	x0, [sp, #24]
    1f7c:	d2800000 	mov	x0, #0x0                   	// #0
/home/ssysarch/Desktop/nick/jetpack_5/Jetson_Linux_R35.4.1_aarch64/Linux_for_Tegra/sources/tegra/optee-src/nv-optee/optee/optee_os/lib/libutee/tee_api.c:532
    1f80:	910053e0 	add	x0, sp, #0x14
    1f84:	9400069f 	bl	3a00 <_utee_get_cancellation_flag>
/home/ssysarch/Desktop/nick/jetpack_5/Jetson_Linux_R35.4.1_aarch64/Linux_for_Tegra/sources/tegra/optee-src/nv-optee/optee/optee_os/lib/libutee/tee_api.c:534
    1f88:	34000040 	cbz	w0, 1f90 <TEE_GetCancellationFlag+0x2c>
/home/ssysarch/Desktop/nick/jetpack_5/Jetson_Linux_R35.4.1_aarch64/Linux_for_Tegra/sources/tegra/optee-src/nv-optee/optee/optee_os/lib/libutee/tee_api.c:535
    1f8c:	b90017ff 	str	wzr, [sp, #20]
/home/ssysarch/Desktop/nick/jetpack_5/Jetson_Linux_R35.4.1_aarch64/Linux_for_Tegra/sources/tegra/optee-src/nv-optee/optee/optee_os/lib/libutee/tee_api.c:537
    1f90:	b0000081 	adrp	x1, 12000 <_DYNAMIC>
/home/ssysarch/Desktop/nick/jetpack_5/Jetson_Linux_R35.4.1_aarch64/Linux_for_Tegra/sources/tegra/optee-src/nv-optee/optee/optee_os/lib/libutee/tee_api.c:536
    1f94:	b94017e0 	ldr	w0, [sp, #20]
/home/ssysarch/Desktop/nick/jetpack_5/Jetson_Linux_R35.4.1_aarch64/Linux_for_Tegra/sources/tegra/optee-src/nv-optee/optee/optee_os/lib/libutee/tee_api.c:537
    1f98:	f9409821 	ldr	x1, [x1, #304]
/home/ssysarch/Desktop/nick/jetpack_5/Jetson_Linux_R35.4.1_aarch64/Linux_for_Tegra/sources/tegra/optee-src/nv-optee/optee/optee_os/lib/libutee/tee_api.c:536
    1f9c:	7100001f 	cmp	w0, #0x0
    1fa0:	1a9f07e0 	cset	w0, ne  // ne = any
/home/ssysarch/Desktop/nick/jetpack_5/Jetson_Linux_R35.4.1_aarch64/Linux_for_Tegra/sources/tegra/optee-src/nv-optee/optee/optee_os/lib/libutee/tee_api.c:537
    1fa4:	f9400fe2 	ldr	x2, [sp, #24]
    1fa8:	f9400023 	ldr	x3, [x1]
    1fac:	eb030042 	subs	x2, x2, x3
    1fb0:	d2800003 	mov	x3, #0x0                   	// #0
    1fb4:	54000040 	b.eq	1fbc <TEE_GetCancellationFlag+0x58>  // b.none
    1fb8:	97fff961 	bl	53c <__stack_chk_fail>
    1fbc:	a8c27bfd 	ldp	x29, x30, [sp], #32
    1fc0:	d65f03c0 	ret

0000000000001fc4 <TEE_UnmaskCancellation>:
TEE_UnmaskCancellation():
/home/ssysarch/Desktop/nick/jetpack_5/Jetson_Linux_R35.4.1_aarch64/Linux_for_Tegra/sources/tegra/optee-src/nv-optee/optee/optee_os/lib/libutee/tee_api.c:540
    1fc4:	a9be7bfd 	stp	x29, x30, [sp, #-32]!
    1fc8:	b0000081 	adrp	x1, 12000 <_DYNAMIC>
    1fcc:	910003fd 	mov	x29, sp
    1fd0:	f9409821 	ldr	x1, [x1, #304]
    1fd4:	f9400020 	ldr	x0, [x1]
    1fd8:	f9000fe0 	str	x0, [sp, #24]
    1fdc:	d2800000 	mov	x0, #0x0                   	// #0
/home/ssysarch/Desktop/nick/jetpack_5/Jetson_Linux_R35.4.1_aarch64/Linux_for_Tegra/sources/tegra/optee-src/nv-optee/optee/optee_os/lib/libutee/tee_api.c:542
    1fe0:	910053e0 	add	x0, sp, #0x14
    1fe4:	9400068d 	bl	3a18 <_utee_unmask_cancellation>
/home/ssysarch/Desktop/nick/jetpack_5/Jetson_Linux_R35.4.1_aarch64/Linux_for_Tegra/sources/tegra/optee-src/nv-optee/optee/optee_os/lib/libutee/tee_api.c:544
    1fe8:	34000040 	cbz	w0, 1ff0 <TEE_UnmaskCancellation+0x2c>
/home/ssysarch/Desktop/nick/jetpack_5/Jetson_Linux_R35.4.1_aarch64/Linux_for_Tegra/sources/tegra/optee-src/nv-optee/optee/optee_os/lib/libutee/tee_api.c:545
    1fec:	9400031f 	bl	2c68 <TEE_Panic>
/home/ssysarch/Desktop/nick/jetpack_5/Jetson_Linux_R35.4.1_aarch64/Linux_for_Tegra/sources/tegra/optee-src/nv-optee/optee/optee_os/lib/libutee/tee_api.c:547
    1ff0:	b0000081 	adrp	x1, 12000 <_DYNAMIC>
/home/ssysarch/Desktop/nick/jetpack_5/Jetson_Linux_R35.4.1_aarch64/Linux_for_Tegra/sources/tegra/optee-src/nv-optee/optee/optee_os/lib/libutee/tee_api.c:546
    1ff4:	b94017e0 	ldr	w0, [sp, #20]
/home/ssysarch/Desktop/nick/jetpack_5/Jetson_Linux_R35.4.1_aarch64/Linux_for_Tegra/sources/tegra/optee-src/nv-optee/optee/optee_os/lib/libutee/tee_api.c:547
    1ff8:	f9409821 	ldr	x1, [x1, #304]
/home/ssysarch/Desktop/nick/jetpack_5/Jetson_Linux_R35.4.1_aarch64/Linux_for_Tegra/sources/tegra/optee-src/nv-optee/optee/optee_os/lib/libutee/tee_api.c:546
    1ffc:	7100001f 	cmp	w0, #0x0
    2000:	1a9f07e0 	cset	w0, ne  // ne = any
/home/ssysarch/Desktop/nick/jetpack_5/Jetson_Linux_R35.4.1_aarch64/Linux_for_Tegra/sources/tegra/optee-src/nv-optee/optee/optee_os/lib/libutee/tee_api.c:547
    2004:	f9400fe2 	ldr	x2, [sp, #24]
    2008:	f9400023 	ldr	x3, [x1]
    200c:	eb030042 	subs	x2, x2, x3
    2010:	d2800003 	mov	x3, #0x0                   	// #0
    2014:	54000040 	b.eq	201c <TEE_UnmaskCancellation+0x58>  // b.none
    2018:	97fff949 	bl	53c <__stack_chk_fail>
    201c:	a8c27bfd 	ldp	x29, x30, [sp], #32
    2020:	d65f03c0 	ret

0000000000002024 <TEE_MaskCancellation>:
TEE_MaskCancellation():
/home/ssysarch/Desktop/nick/jetpack_5/Jetson_Linux_R35.4.1_aarch64/Linux_for_Tegra/sources/tegra/optee-src/nv-optee/optee/optee_os/lib/libutee/tee_api.c:550
    2024:	a9be7bfd 	stp	x29, x30, [sp, #-32]!
    2028:	90000081 	adrp	x1, 12000 <_DYNAMIC>
    202c:	910003fd 	mov	x29, sp
    2030:	f9409821 	ldr	x1, [x1, #304]
    2034:	f9400020 	ldr	x0, [x1]
    2038:	f9000fe0 	str	x0, [sp, #24]
    203c:	d2800000 	mov	x0, #0x0                   	// #0
/home/ssysarch/Desktop/nick/jetpack_5/Jetson_Linux_R35.4.1_aarch64/Linux_for_Tegra/sources/tegra/optee-src/nv-optee/optee/optee_os/lib/libutee/tee_api.c:552
    2040:	910053e0 	add	x0, sp, #0x14
    2044:	94000678 	bl	3a24 <_utee_mask_cancellation>
/home/ssysarch/Desktop/nick/jetpack_5/Jetson_Linux_R35.4.1_aarch64/Linux_for_Tegra/sources/tegra/optee-src/nv-optee/optee/optee_os/lib/libutee/tee_api.c:554
    2048:	34000040 	cbz	w0, 2050 <TEE_MaskCancellation+0x2c>
/home/ssysarch/Desktop/nick/jetpack_5/Jetson_Linux_R35.4.1_aarch64/Linux_for_Tegra/sources/tegra/optee-src/nv-optee/optee/optee_os/lib/libutee/tee_api.c:555
    204c:	94000307 	bl	2c68 <TEE_Panic>
/home/ssysarch/Desktop/nick/jetpack_5/Jetson_Linux_R35.4.1_aarch64/Linux_for_Tegra/sources/tegra/optee-src/nv-optee/optee/optee_os/lib/libutee/tee_api.c:557
    2050:	90000081 	adrp	x1, 12000 <_DYNAMIC>
/home/ssysarch/Desktop/nick/jetpack_5/Jetson_Linux_R35.4.1_aarch64/Linux_for_Tegra/sources/tegra/optee-src/nv-optee/optee/optee_os/lib/libutee/tee_api.c:556
    2054:	b94017e0 	ldr	w0, [sp, #20]
/home/ssysarch/Desktop/nick/jetpack_5/Jetson_Linux_R35.4.1_aarch64/Linux_for_Tegra/sources/tegra/optee-src/nv-optee/optee/optee_os/lib/libutee/tee_api.c:557
    2058:	f9409821 	ldr	x1, [x1, #304]
/home/ssysarch/Desktop/nick/jetpack_5/Jetson_Linux_R35.4.1_aarch64/Linux_for_Tegra/sources/tegra/optee-src/nv-optee/optee/optee_os/lib/libutee/tee_api.c:556
    205c:	7100001f 	cmp	w0, #0x0
    2060:	1a9f07e0 	cset	w0, ne  // ne = any
/home/ssysarch/Desktop/nick/jetpack_5/Jetson_Linux_R35.4.1_aarch64/Linux_for_Tegra/sources/tegra/optee-src/nv-optee/optee/optee_os/lib/libutee/tee_api.c:557
    2064:	f9400fe2 	ldr	x2, [sp, #24]
    2068:	f9400023 	ldr	x3, [x1]
    206c:	eb030042 	subs	x2, x2, x3
    2070:	d2800003 	mov	x3, #0x0                   	// #0
    2074:	54000040 	b.eq	207c <TEE_MaskCancellation+0x58>  // b.none
    2078:	97fff931 	bl	53c <__stack_chk_fail>
    207c:	a8c27bfd 	ldp	x29, x30, [sp], #32
    2080:	d65f03c0 	ret

0000000000002084 <TEE_CheckMemoryAccessRights>:
TEE_CheckMemoryAccessRights():
/home/ssysarch/Desktop/nick/jetpack_5/Jetson_Linux_R35.4.1_aarch64/Linux_for_Tegra/sources/tegra/optee-src/nv-optee/optee/optee_os/lib/libutee/tee_api.c:566
    2084:	b5000102 	cbnz	x2, 20a4 <TEE_CheckMemoryAccessRights+0x20>
/home/ssysarch/Desktop/nick/jetpack_5/Jetson_Linux_R35.4.1_aarch64/Linux_for_Tegra/sources/tegra/optee-src/nv-optee/optee/optee_os/lib/libutee/tee_api.c:567
    2088:	52800000 	mov	w0, #0x0                   	// #0
/home/ssysarch/Desktop/nick/jetpack_5/Jetson_Linux_R35.4.1_aarch64/Linux_for_Tegra/sources/tegra/optee-src/nv-optee/optee/optee_os/lib/libutee/tee_api.c:592
    208c:	d65f03c0 	ret
/home/ssysarch/Desktop/nick/jetpack_5/Jetson_Linux_R35.4.1_aarch64/Linux_for_Tegra/sources/tegra/optee-src/nv-optee/optee/optee_os/lib/libutee/tee_api.c:567
    2090:	52800000 	mov	w0, #0x0                   	// #0
/home/ssysarch/Desktop/nick/jetpack_5/Jetson_Linux_R35.4.1_aarch64/Linux_for_Tegra/sources/tegra/optee-src/nv-optee/optee/optee_os/lib/libutee/tee_api.c:592
    2094:	a94153f3 	ldp	x19, x20, [sp, #16]
    2098:	f94013f5 	ldr	x21, [sp, #32]
    209c:	a8c37bfd 	ldp	x29, x30, [sp], #48
    20a0:	d65f03c0 	ret
/home/ssysarch/Desktop/nick/jetpack_5/Jetson_Linux_R35.4.1_aarch64/Linux_for_Tegra/sources/tegra/optee-src/nv-optee/optee/optee_os/lib/libutee/tee_api.c:563
    20a4:	a9bd7bfd 	stp	x29, x30, [sp, #-48]!
    20a8:	910003fd 	mov	x29, sp
    20ac:	a90153f3 	stp	x19, x20, [sp, #16]
    20b0:	aa0103f4 	mov	x20, x1
    20b4:	aa0203f3 	mov	x19, x2
    20b8:	f90013f5 	str	x21, [sp, #32]
    20bc:	2a0003f5 	mov	w21, w0
/home/ssysarch/Desktop/nick/jetpack_5/Jetson_Linux_R35.4.1_aarch64/Linux_for_Tegra/sources/tegra/optee-src/nv-optee/optee/optee_os/lib/libutee/tee_api.c:573
    20c0:	94000653 	bl	3a0c <_utee_check_access_rights>
    20c4:	35000200 	cbnz	w0, 2104 <TEE_CheckMemoryAccessRights+0x80>
/home/ssysarch/Desktop/nick/jetpack_5/Jetson_Linux_R35.4.1_aarch64/Linux_for_Tegra/sources/tegra/optee-src/nv-optee/optee/optee_os/lib/libutee/tee_api.c:584
    20c8:	aa1303e2 	mov	x2, x19
    20cc:	aa1403e1 	mov	x1, x20
    20d0:	12000aa0 	and	w0, w21, #0x7
    20d4:	97fffee5 	bl	1c68 <check_mem_access_rights_params>
    20d8:	35000160 	cbnz	w0, 2104 <TEE_CheckMemoryAccessRights+0x80>
/home/ssysarch/Desktop/nick/jetpack_5/Jetson_Linux_R35.4.1_aarch64/Linux_for_Tegra/sources/tegra/optee-src/nv-optee/optee/optee_os/lib/libutee/tee_api.c:587
    20dc:	aa1303e1 	mov	x1, x19
    20e0:	aa1403e0 	mov	x0, x20
    20e4:	94002aad 	bl	cb98 <malloc_buffer_overlaps_heap>
    20e8:	72001c1f 	tst	w0, #0xff
    20ec:	54fffd20 	b.eq	2090 <TEE_CheckMemoryAccessRights+0xc>  // b.none
/home/ssysarch/Desktop/nick/jetpack_5/Jetson_Linux_R35.4.1_aarch64/Linux_for_Tegra/sources/tegra/optee-src/nv-optee/optee/optee_os/lib/libutee/tee_api.c:588
    20f0:	aa1303e1 	mov	x1, x19
    20f4:	aa1403e0 	mov	x0, x20
    20f8:	94002aa3 	bl	cb84 <malloc_buffer_is_within_alloced>
/home/ssysarch/Desktop/nick/jetpack_5/Jetson_Linux_R35.4.1_aarch64/Linux_for_Tegra/sources/tegra/optee-src/nv-optee/optee/optee_os/lib/libutee/tee_api.c:587
    20fc:	72001c1f 	tst	w0, #0xff
    2100:	54fffc81 	b.ne	2090 <TEE_CheckMemoryAccessRights+0xc>  // b.any
/home/ssysarch/Desktop/nick/jetpack_5/Jetson_Linux_R35.4.1_aarch64/Linux_for_Tegra/sources/tegra/optee-src/nv-optee/optee/optee_os/lib/libutee/tee_api.c:589
    2104:	129fffc0 	mov	w0, #0xffff0001            	// #-65535
    2108:	17ffffe3 	b	2094 <TEE_CheckMemoryAccessRights+0x10>

000000000000210c <map_tmp_param>:
map_tmp_param():
/home/ssysarch/Desktop/nick/jetpack_5/Jetson_Linux_R35.4.1_aarch64/Linux_for_Tegra/sources/tegra/optee-src/nv-optee/optee/optee_os/lib/libutee/tee_api.c:98
    210c:	a9b87bfd 	stp	x29, x30, [sp, #-128]!
    2110:	90000084 	adrp	x4, 12000 <_DYNAMIC>
    2114:	910003fd 	mov	x29, sp
    2118:	f9409884 	ldr	x4, [x4, #304]
    211c:	a9046bf9 	stp	x25, x26, [sp, #64]
    2120:	aa0003f9 	mov	x25, x0
    2124:	a90153f3 	stp	x19, x20, [sp, #16]
    2128:	f9400080 	ldr	x0, [x4]
    212c:	f9003fe0 	str	x0, [sp, #120]
    2130:	d2800000 	mov	x0, #0x0                   	// #0
/home/ssysarch/Desktop/nick/jetpack_5/Jetson_Linux_R35.4.1_aarch64/Linux_for_Tegra/sources/tegra/optee-src/nv-optee/optee/optee_os/lib/libutee/tee_api.c:101
    2134:	d280001a 	mov	x26, #0x0                   	// #0
/home/ssysarch/Desktop/nick/jetpack_5/Jetson_Linux_R35.4.1_aarch64/Linux_for_Tegra/sources/tegra/optee-src/nv-optee/optee/optee_os/lib/libutee/tee_api.c:98
    2138:	a9025bf5 	stp	x21, x22, [sp, #32]
    213c:	aa0203f6 	mov	x22, x2
    2140:	aa0303f5 	mov	x21, x3
    2144:	a90363f7 	stp	x23, x24, [sp, #48]
    2148:	91002338 	add	x24, x25, #0x8
    214c:	aa0103f7 	mov	x23, x1
    2150:	a90573fb 	stp	x27, x28, [sp, #80]
/home/ssysarch/Desktop/nick/jetpack_5/Jetson_Linux_R35.4.1_aarch64/Linux_for_Tegra/sources/tegra/optee-src/nv-optee/optee/optee_os/lib/libutee/tee_api.c:115
    2154:	aa1803fb 	mov	x27, x24
/home/ssysarch/Desktop/nick/jetpack_5/Jetson_Linux_R35.4.1_aarch64/Linux_for_Tegra/sources/tegra/optee-src/nv-optee/optee/optee_os/lib/libutee/tee_api.c:135
    2158:	9101c3fc 	add	x28, sp, #0x70
/home/ssysarch/Desktop/nick/jetpack_5/Jetson_Linux_R35.4.1_aarch64/Linux_for_Tegra/sources/tegra/optee-src/nv-optee/optee/optee_os/lib/libutee/tee_api.c:114
    215c:	f900003f 	str	xzr, [x1]
/home/ssysarch/Desktop/nick/jetpack_5/Jetson_Linux_R35.4.1_aarch64/Linux_for_Tegra/sources/tegra/optee-src/nv-optee/optee/optee_os/lib/libutee/tee_api.c:116
    2160:	d2800013 	mov	x19, #0x0                   	// #0
/home/ssysarch/Desktop/nick/jetpack_5/Jetson_Linux_R35.4.1_aarch64/Linux_for_Tegra/sources/tegra/optee-src/nv-optee/optee/optee_os/lib/libutee/tee_api.c:135
    2164:	52800023 	mov	w3, #0x1                   	// #1
/home/ssysarch/Desktop/nick/jetpack_5/Jetson_Linux_R35.4.1_aarch64/Linux_for_Tegra/sources/tegra/optee-src/nv-optee/optee/optee_os/lib/libutee/tee_api.c:115
    2168:	f900005f 	str	xzr, [x2]
/home/ssysarch/Desktop/nick/jetpack_5/Jetson_Linux_R35.4.1_aarch64/Linux_for_Tegra/sources/tegra/optee-src/nv-optee/optee/optee_os/lib/libutee/tee_api.c:103
    216c:	b90073ff 	str	wzr, [sp, #112]
/home/ssysarch/Desktop/nick/jetpack_5/Jetson_Linux_R35.4.1_aarch64/Linux_for_Tegra/sources/tegra/optee-src/nv-optee/optee/optee_os/lib/libutee/tee_api.c:118
    2170:	f9400321 	ldr	x1, [x25]
    2174:	531e7660 	lsl	w0, w19, #2
/home/ssysarch/Desktop/nick/jetpack_5/Jetson_Linux_R35.4.1_aarch64/Linux_for_Tegra/sources/tegra/optee-src/nv-optee/optee/optee_os/lib/libutee/tee_api.c:117
    2178:	f8337abf 	str	xzr, [x21, x19, lsl #3]
/home/ssysarch/Desktop/nick/jetpack_5/Jetson_Linux_R35.4.1_aarch64/Linux_for_Tegra/sources/tegra/optee-src/nv-optee/optee/optee_os/lib/libutee/tee_api.c:118
    217c:	1ac02421 	lsr	w1, w1, w0
    2180:	12000c21 	and	w1, w1, #0xf
    2184:	51001421 	sub	w1, w1, #0x5
    2188:	7100083f 	cmp	w1, #0x2
    218c:	540001e8 	b.hi	21c8 <map_tmp_param+0xbc>  // b.pmore
/home/ssysarch/Desktop/nick/jetpack_5/Jetson_Linux_R35.4.1_aarch64/Linux_for_Tegra/sources/tegra/optee-src/nv-optee/optee/optee_os/lib/libutee/tee_api.c:123
    2190:	a9405361 	ldp	x1, x20, [x27]
/home/ssysarch/Desktop/nick/jetpack_5/Jetson_Linux_R35.4.1_aarch64/Linux_for_Tegra/sources/tegra/optee-src/nv-optee/optee/optee_os/lib/libutee/tee_api.c:133
    2194:	f100003f 	cmp	x1, #0x0
    2198:	fa401a84 	ccmp	x20, #0x0, #0x4, ne  // ne = any
    219c:	54000160 	b.eq	21c8 <map_tmp_param+0xbc>  // b.none
/home/ssysarch/Desktop/nick/jetpack_5/Jetson_Linux_R35.4.1_aarch64/Linux_for_Tegra/sources/tegra/optee-src/nv-optee/optee/optee_os/lib/libutee/tee_api.c:134 (discriminator 1)
    21a0:	aa1403e2 	mov	x2, x20
    21a4:	52800020 	mov	w0, #0x1                   	// #1
    21a8:	b9006fe3 	str	w3, [sp, #108]
    21ac:	97ffffb6 	bl	2084 <TEE_CheckMemoryAccessRights>
/home/ssysarch/Desktop/nick/jetpack_5/Jetson_Linux_R35.4.1_aarch64/Linux_for_Tegra/sources/tegra/optee-src/nv-optee/optee/optee_os/lib/libutee/tee_api.c:133 (discriminator 1)
    21b0:	b9406fe3 	ldr	w3, [sp, #108]
    21b4:	350000a0 	cbnz	w0, 21c8 <map_tmp_param+0xbc>
/home/ssysarch/Desktop/nick/jetpack_5/Jetson_Linux_R35.4.1_aarch64/Linux_for_Tegra/sources/tegra/optee-src/nv-optee/optee/optee_os/lib/libutee/tee_api.c:136
    21b8:	91003e94 	add	x20, x20, #0xf
/home/ssysarch/Desktop/nick/jetpack_5/Jetson_Linux_R35.4.1_aarch64/Linux_for_Tegra/sources/tegra/optee-src/nv-optee/optee/optee_os/lib/libutee/tee_api.c:135
    21bc:	383c6a63 	strb	w3, [x19, x28]
/home/ssysarch/Desktop/nick/jetpack_5/Jetson_Linux_R35.4.1_aarch64/Linux_for_Tegra/sources/tegra/optee-src/nv-optee/optee/optee_os/lib/libutee/tee_api.c:136
    21c0:	927cee94 	and	x20, x20, #0xfffffffffffffff0
    21c4:	8b14035a 	add	x26, x26, x20
/home/ssysarch/Desktop/nick/jetpack_5/Jetson_Linux_R35.4.1_aarch64/Linux_for_Tegra/sources/tegra/optee-src/nv-optee/optee/optee_os/lib/libutee/tee_api.c:116 (discriminator 2)
    21c8:	91000673 	add	x19, x19, #0x1
    21cc:	9100437b 	add	x27, x27, #0x10
    21d0:	f100127f 	cmp	x19, #0x4
    21d4:	54fffce1 	b.ne	2170 <map_tmp_param+0x64>  // b.any
/home/ssysarch/Desktop/nick/jetpack_5/Jetson_Linux_R35.4.1_aarch64/Linux_for_Tegra/sources/tegra/optee-src/nv-optee/optee/optee_os/lib/libutee/tee_api.c:144
    21d8:	b400053a 	cbz	x26, 227c <map_tmp_param+0x170>
/home/ssysarch/Desktop/nick/jetpack_5/Jetson_Linux_R35.4.1_aarch64/Linux_for_Tegra/sources/tegra/optee-src/nv-optee/optee/optee_os/lib/libutee/tee_api.c:145
    21dc:	2a1303e1 	mov	w1, w19
    21e0:	aa1a03e0 	mov	x0, x26
    21e4:	94000377 	bl	2fc0 <tee_map_zi>
/home/ssysarch/Desktop/nick/jetpack_5/Jetson_Linux_R35.4.1_aarch64/Linux_for_Tegra/sources/tegra/optee-src/nv-optee/optee/optee_os/lib/libutee/tee_api.c:146
    21e8:	b40004e0 	cbz	x0, 2284 <map_tmp_param+0x178>
/home/ssysarch/Desktop/nick/jetpack_5/Jetson_Linux_R35.4.1_aarch64/Linux_for_Tegra/sources/tegra/optee-src/nv-optee/optee/optee_os/lib/libutee/tee_api.c:148
    21ec:	f90002e0 	str	x0, [x23]
/home/ssysarch/Desktop/nick/jetpack_5/Jetson_Linux_R35.4.1_aarch64/Linux_for_Tegra/sources/tegra/optee-src/nv-optee/optee/optee_os/lib/libutee/tee_api.c:149
    21f0:	f90002da 	str	x26, [x22]
/home/ssysarch/Desktop/nick/jetpack_5/Jetson_Linux_R35.4.1_aarch64/Linux_for_Tegra/sources/tegra/optee-src/nv-optee/optee/optee_os/lib/libutee/tee_api.c:157
    21f4:	9101c3f6 	add	x22, sp, #0x70
/home/ssysarch/Desktop/nick/jetpack_5/Jetson_Linux_R35.4.1_aarch64/Linux_for_Tegra/sources/tegra/optee-src/nv-optee/optee/optee_os/lib/libutee/tee_api.c:100
    21f8:	d2800013 	mov	x19, #0x0                   	// #0
/home/ssysarch/Desktop/nick/jetpack_5/Jetson_Linux_R35.4.1_aarch64/Linux_for_Tegra/sources/tegra/optee-src/nv-optee/optee/optee_os/lib/libutee/tee_api.c:153
    21fc:	f9400323 	ldr	x3, [x25]
    2200:	531e7661 	lsl	w1, w19, #2
    2204:	1ac12463 	lsr	w3, w3, w1
    2208:	12000c63 	and	w3, w3, #0xf
    220c:	51001461 	sub	w1, w3, #0x5
    2210:	7100083f 	cmp	w1, #0x2
    2214:	540001a8 	b.hi	2248 <map_tmp_param+0x13c>  // b.pmore
/home/ssysarch/Desktop/nick/jetpack_5/Jetson_Linux_R35.4.1_aarch64/Linux_for_Tegra/sources/tegra/optee-src/nv-optee/optee/optee_os/lib/libutee/tee_api.c:157
    2218:	38766a61 	ldrb	w1, [x19, x22]
    221c:	34000161 	cbz	w1, 2248 <map_tmp_param+0x13c>
/home/ssysarch/Desktop/nick/jetpack_5/Jetson_Linux_R35.4.1_aarch64/Linux_for_Tegra/sources/tegra/optee-src/nv-optee/optee/optee_os/lib/libutee/tee_api.c:159
    2220:	a9400b01 	ldp	x1, x2, [x24]
/home/ssysarch/Desktop/nick/jetpack_5/Jetson_Linux_R35.4.1_aarch64/Linux_for_Tegra/sources/tegra/optee-src/nv-optee/optee/optee_os/lib/libutee/tee_api.c:161
    2224:	f8337aa0 	str	x0, [x21, x19, lsl #3]
/home/ssysarch/Desktop/nick/jetpack_5/Jetson_Linux_R35.4.1_aarch64/Linux_for_Tegra/sources/tegra/optee-src/nv-optee/optee/optee_os/lib/libutee/tee_api.c:163
    2228:	f9000300 	str	x0, [x24]
/home/ssysarch/Desktop/nick/jetpack_5/Jetson_Linux_R35.4.1_aarch64/Linux_for_Tegra/sources/tegra/optee-src/nv-optee/optee/optee_os/lib/libutee/tee_api.c:164
    222c:	7100187f 	cmp	w3, #0x6
