
/home/ssysarch/Desktop/nick/jetpack_5/Jetson_Linux_R35.4.1_aarch64/Linux_for_Tegra/sources/tegra/optee-src/nv-optee/optee/build/t234/ta/os_test_lib/libos_test.so:     file format elf64-littleaarch64
/home/ssysarch/Desktop/nick/jetpack_5/Jetson_Linux_R35.4.1_aarch64/Linux_for_Tegra/sources/tegra/optee-src/nv-optee/optee/build/t234/ta/os_test_lib/libos_test.so
architecture: aarch64, flags 0x00000150:
HAS_SYMS, DYNAMIC, D_PAGED
start address 0x0000000000006700

Program Header:
    LOAD off    0x0000000000000000 vaddr 0x0000000000000000 paddr 0x0000000000000000 align 2**12
         filesz 0x0000000000016d9c memsz 0x0000000000016d9c flags r-x
    LOAD off    0x0000000000017d70 vaddr 0x0000000000018d70 paddr 0x0000000000018d70 align 2**12
         filesz 0x0000000000000880 memsz 0x0000000000004120 flags rw-
 DYNAMIC off    0x0000000000017dd8 vaddr 0x0000000000018dd8 paddr 0x0000000000018dd8 align 2**3
         filesz 0x0000000000000160 memsz 0x0000000000000160 flags rw-
   STACK off    0x0000000000000000 vaddr 0x0000000000000000 paddr 0x0000000000000000 align 2**4
         filesz 0x0000000000000000 memsz 0x0000000000000000 flags rw-
   RELRO off    0x0000000000017d70 vaddr 0x0000000000018d70 paddr 0x0000000000018d70 align 2**0
         filesz 0x0000000000000290 memsz 0x0000000000000290 flags r--

Dynamic Section:
  SONAME               ffd2bded-ab7d-4988-95ee-e4962fff7154
  INIT_ARRAY           0x0000000000018d70
  INIT_ARRAYSZ         0x0000000000000008
  HASH                 0x0000000000000158
  GNU_HASH             0x0000000000000a88
  STRTAB               0x00000000000032c8
  SYMTAB               0x0000000000001480
  STRSZ                0x000000000000168d
  SYMENT               0x0000000000000018
  PLTGOT               0x0000000000018fe8
  PLTRELSZ             0x0000000000000fc0
  PLTREL               0x0000000000000007
  JMPREL               0x0000000000004ca0
  RELA                 0x0000000000004958
  RELASZ               0x0000000000000348
  RELAENT              0x0000000000000018
  RELACOUNT            0x000000000000000d
private flags = 0:

Sections:
Idx Name          Size      VMA               LMA               File off  Algn
  0 .hash         00000930  0000000000000158  0000000000000158  00000158  2**3
                  CONTENTS, ALLOC, LOAD, READONLY, DATA
  1 .gnu.hash     000009f4  0000000000000a88  0000000000000a88  00000a88  2**3
                  CONTENTS, ALLOC, LOAD, READONLY, DATA
  2 .dynsym       00001e48  0000000000001480  0000000000001480  00001480  2**3
                  CONTENTS, ALLOC, LOAD, READONLY, DATA
  3 .dynstr       0000168d  00000000000032c8  00000000000032c8  000032c8  2**0
                  CONTENTS, ALLOC, LOAD, READONLY, DATA
  4 .rela.dyn     00000348  0000000000004958  0000000000004958  00004958  2**3
                  CONTENTS, ALLOC, LOAD, READONLY, DATA
  5 .rela.plt     00000fc0  0000000000004ca0  0000000000004ca0  00004ca0  2**3
                  CONTENTS, ALLOC, LOAD, READONLY, DATA
  6 .plt          00000aa0  0000000000005c60  0000000000005c60  00005c60  2**4
                  CONTENTS, ALLOC, LOAD, READONLY, CODE
  7 .text         0000cbb0  0000000000006700  0000000000006700  00006700  2**4
                  CONTENTS, ALLOC, LOAD, READONLY, CODE
  8 .rodata       000011fa  00000000000132b0  00000000000132b0  000132b0  2**3
                  CONTENTS, ALLOC, LOAD, READONLY, DATA
  9 .eh_frame     000028ec  00000000000144b0  00000000000144b0  000144b0  2**3
                  CONTENTS, ALLOC, LOAD, READONLY, DATA
 10 .init_array   00000008  0000000000018d70  0000000000018d70  00017d70  2**3
                  CONTENTS, ALLOC, LOAD, DATA
 11 .data.rel.ro  00000060  0000000000018d78  0000000000018d78  00017d78  2**3
                  CONTENTS, ALLOC, LOAD, DATA
 12 .dynamic      00000160  0000000000018dd8  0000000000018dd8  00017dd8  2**3
                  CONTENTS, ALLOC, LOAD, DATA
 13 .got          000000b0  0000000000018f38  0000000000018f38  00017f38  2**3
                  CONTENTS, ALLOC, LOAD, DATA
 14 .got.plt      00000558  0000000000018fe8  0000000000018fe8  00017fe8  2**3
                  CONTENTS, ALLOC, LOAD, DATA
 15 .data         000000b0  0000000000019540  0000000000019540  00018540  2**3
                  CONTENTS, ALLOC, LOAD, DATA
 16 .bss          000038a0  00000000000195f0  00000000000195f0  000185f0  2**3
                  ALLOC
 17 .comment      0000001f  0000000000000000  0000000000000000  000185f0  2**0
                  CONTENTS, READONLY
 18 .debug_aranges 00000930  0000000000000000  0000000000000000  00018610  2**4
                  CONTENTS, READONLY, DEBUGGING
 19 .debug_info   00019975  0000000000000000  0000000000000000  00018f40  2**0
                  CONTENTS, READONLY, DEBUGGING
 20 .debug_abbrev 00003de9  0000000000000000  0000000000000000  000328b5  2**0
                  CONTENTS, READONLY, DEBUGGING
 21 .debug_line   0000f7ec  0000000000000000  0000000000000000  0003669e  2**0
                  CONTENTS, READONLY, DEBUGGING
 22 .debug_str    0001a7e6  0000000000000000  0000000000000000  00045e8a  2**0
                  CONTENTS, READONLY, DEBUGGING
 23 .debug_loc    00024809  0000000000000000  0000000000000000  00060670  2**0
                  CONTENTS, READONLY, DEBUGGING
 24 .debug_ranges 00001db0  0000000000000000  0000000000000000  00084e80  2**4
                  CONTENTS, READONLY, DEBUGGING
 25 .debug_macro  00016bb5  0000000000000000  0000000000000000  00086c30  2**0
                  CONTENTS, READONLY, DEBUGGING
SYMBOL TABLE:
0000000000000158 l    d  .hash	0000000000000000 .hash
0000000000000a88 l    d  .gnu.hash	0000000000000000 .gnu.hash
0000000000001480 l    d  .dynsym	0000000000000000 .dynsym
00000000000032c8 l    d  .dynstr	0000000000000000 .dynstr
0000000000004958 l    d  .rela.dyn	0000000000000000 .rela.dyn
0000000000004ca0 l    d  .rela.plt	0000000000000000 .rela.plt
0000000000005c60 l    d  .plt	0000000000000000 .plt
0000000000006700 l    d  .text	0000000000000000 .text
00000000000132b0 l    d  .rodata	0000000000000000 .rodata
00000000000144b0 l    d  .eh_frame	0000000000000000 .eh_frame
0000000000018d70 l    d  .init_array	0000000000000000 .init_array
0000000000018d78 l    d  .data.rel.ro	0000000000000000 .data.rel.ro
0000000000018dd8 l    d  .dynamic	0000000000000000 .dynamic
0000000000018f38 l    d  .got	0000000000000000 .got
0000000000018fe8 l    d  .got.plt	0000000000000000 .got.plt
0000000000019540 l    d  .data	0000000000000000 .data
00000000000195f0 l    d  .bss	0000000000000000 .bss
0000000000000000 l    d  .comment	0000000000000000 .comment
0000000000000000 l    d  .debug_aranges	0000000000000000 .debug_aranges
0000000000000000 l    d  .debug_info	0000000000000000 .debug_info
0000000000000000 l    d  .debug_abbrev	0000000000000000 .debug_abbrev
0000000000000000 l    d  .debug_line	0000000000000000 .debug_line
0000000000000000 l    d  .debug_str	0000000000000000 .debug_str
0000000000000000 l    d  .debug_loc	0000000000000000 .debug_loc
0000000000000000 l    d  .debug_ranges	0000000000000000 .debug_ranges
0000000000000000 l    d  .debug_macro	0000000000000000 .debug_macro
0000000000000000 l    df *ABS*	0000000000000000 os_test_lib.c
0000000000006720 l     F .text	000000000000003c os_test_shlib_init
00000000000132c2 l     O .rodata	0000000000000013 __func__.4470
0000000000000000 l    df *ABS*	0000000000000000 abort.c
0000000000000000 l    df *ABS*	0000000000000000 trace.c
000000000000676c l     F .text	000000000000010c append
000000000001330f l     O .rodata	0000000000000005 lvl_strs.3595
0000000000013314 l     O .rodata	000000000000000a __func__.3657
0000000000000000 l    df *ABS*	0000000000000000 stack_check.c
0000000000000000 l    df *ABS*	0000000000000000 memcpy.c
0000000000000000 l    df *ABS*	0000000000000000 snprintk.c
0000000000007040 l     F .text	0000000000000be0 kprintf.constprop.0
00000000000133fa l     O .rodata	0000000000000011 HEXDIGITS
000000000001340b l     O .rodata	0000000000000011 hexdigits
0000000000000000 l    df *ABS*	0000000000000000 memchr.c
0000000000000000 l    df *ABS*	0000000000000000 strlen.c
0000000000000000 l    df *ABS*	0000000000000000 trace_ext.c
0000000000000000 l    df *ABS*	0000000000000000 tee_api_panic.c
0000000000007e94 l     F .text	000000000000001c check_access
0000000000007eb8 l     F .text	0000000000000044 check_res
0000000000013487 l     O .rodata	000000000000000a __func__.4862
0000000000000000 l    df *ABS*	0000000000000000 utee_syscalls_a64.o
0000000000000000 l    df *ABS*	0000000000000000 tee_api.c
000000000000842c l     F .text	000000000000006c copy_param
0000000000008498 l     F .text	0000000000000070 copy_gp11_param
0000000000008508 l     F .text	0000000000000094 check_mem_access_rights_params
000000000000859c l     F .text	0000000000000044 buf_overlaps_no_share_heap
00000000000085e0 l     F .text	00000000000000a8 check_invoke_param
0000000000008688 l     F .text	00000000000000a8 update_out_param
0000000000008730 l     F .text	00000000000000ac update_out_gp11_param
00000000000089ac l     F .text	000000000000019c map_tmp_param
00000000000195f0 l     O .bss	0000000000000008 tee_api_instance_data
00000000000134b0 l     O .rodata	000000000000000b __func__.5423
0000000000000000 l    df *ABS*	0000000000000000 tee_system_pta.c
00000000000094ec l     F .text	0000000000000088 invoke_system_pta
0000000000013520 l     O .rodata	0000000000000010 uuid.4625
0000000000013530 l     O .rodata	000000000000000a __func__.4645
000000000001353a l     O .rodata	0000000000000017 __func__.4657
0000000000019600 l     O .bss	0000000000000008 sess.4624
0000000000000000 l    df *ABS*	0000000000000000 user_ta_entry.c
00000000000097fc l     F .text	00000000000000b0 _get_fn_array
00000000000098ac l     F .text	0000000000000090 _fini_iterate_phdr_cb
000000000000993c l     F .text	0000000000000028 ta_header_get_session
0000000000009964 l     F .text	000000000000006c to_utee_params
00000000000099d0 l     F .text	000000000000005c from_utee_params
0000000000009a2c l     F .text	0000000000000094 _init_iterate_phdr_cb
0000000000009c28 l     F .text	0000000000000098 ta_header_remove_session
00000000000135a0 l     O .rodata	0000000000000016 __func__.5387
0000000000019608 l     O .bss	0000000000000008 _num_mod_init
0000000000019610 l     O .bss	0000000000000001 init_done
0000000000019548 l     O .data	0000000000000010 ta_sessions
0000000000019558 l     O .data	0000000000000010 __phdr_info_head
0000000000000000 l    df *ABS*	0000000000000000 tee_api_arith_mpi.c
0000000000009f48 l     F .text	0000000000000030 api_panic
0000000000009f78 l     F .text	0000000000000030 mpi_panic
0000000000009fa8 l     F .text	0000000000000098 get_mpi
000000000000a040 l     F .text	0000000000000064 copy_mpi_to_bigint
000000000000a0a4 l     F .text	000000000000014c bigint_binary
000000000000a1f0 l     F .text	0000000000000020 mpi_is_odd
000000000000a210 l     F .text	0000000000000028 rng_read
000000000000a238 l     F .text	0000000000000574 mpi_egcd
0000000000019618 l     O .bss	0000000000003800 data.5215
000000000000acd8 l     F .text	00000000000001d0 bigint_binary_mod
0000000000013686 l     O .rodata	0000000000000008 __func__.5249
000000000001368e l     O .rodata	000000000000000e __func__.5387
000000000001369c l     O .rodata	0000000000000009 __func__.5551
00000000000136a5 l     O .rodata	0000000000000012 __func__.5216
00000000000136b7 l     O .rodata	000000000000000f __func__.5255
00000000000136c6 l     O .rodata	000000000000001f __func__.5283
00000000000136e5 l     O .rodata	0000000000000019 __func__.5297
00000000000136fe l     O .rodata	0000000000000012 __func__.5406
0000000000013710 l     O .rodata	0000000000000015 __func__.5328
0000000000013725 l     O .rodata	000000000000000e __func__.5427
0000000000013733 l     O .rodata	000000000000000e __func__.5456
0000000000013741 l     O .rodata	000000000000000e __func__.5464
000000000001374f l     O .rodata	0000000000000011 __func__.5497
0000000000013760 l     O .rodata	0000000000000018 __func__.5510
0000000000013778 l     O .rodata	0000000000000011 __func__.5531
0000000000013789 l     O .rodata	000000000000001d __func__.5608
00000000000137a6 l     O .rodata	0000000000000019 __func__.5681
00000000000137bf l     O .rodata	0000000000000015 __func__.5696
0000000000000000 l    df *ABS*	0000000000000000 tee_api_property.c
000000000000c074 l     F .text	000000000000006c propset_get
000000000000c0e0 l     F .text	000000000000002c is_propset_pseudo_handle
000000000000c10c l     F .text	0000000000000148 propget_get_ext_prop
000000000000c254 l     F .text	00000000000001b0 propget_get_property
00000000000137e4 l     O .rodata	0000000000000004 __compound_literal.3
00000000000137e8 l     O .rodata	0000000000000004 __compound_literal.2
00000000000137ec l     O .rodata	0000000000000004 __compound_literal.1
00000000000137f0 l     O .rodata	0000000000000004 __compound_literal.0
0000000000000000 l    df *ABS*	0000000000000000 tcb.c
0000000000013904 l     O .rodata	0000000000000010 __func__.4097
0000000000013914 l     O .rodata	0000000000000010 __func__.4124
000000000001ce18 l     O .bss	0000000000000008 _tls_size
000000000001ce20 l     O .bss	0000000000000008 _tcb
0000000000000000 l    df *ABS*	0000000000000000 assert.c
0000000000000000 l    df *ABS*	0000000000000000 base64.c
0000000000013950 l     O .rodata	0000000000000041 base64_table
0000000000000000 l    df *ABS*	0000000000000000 bignum.c
000000000000d5e8 l     F .text	0000000000000064 mpi_get_digit
000000000000d64c l     F .text	000000000000040c mpi_mul_hlp
000000000000da58 l     F .text	0000000000000038 mpi_montg_init.isra.0
000000000000da90 l     F .text	00000000000000ac mpi_bigendian_to_host.part.0
000000000000db3c l     F .text	00000000000000c0 mpi_fill_random_internal
000000000000dbfc l     F .text	0000000000000148 mpi_montmul.isra.0
000000000000dd44 l     F .text	0000000000000078 mpi_montred
000000000000df48 l     F .text	000000000000006c mbedtls_mpi_resize_clear
000000000000fc80 l     F .text	00000000000000c4 mpi_check_small_factors
0000000000010664 l     F .text	00000000000002a4 mpi_miller_rabin
0000000000013de8 l     O .rodata	00000000000002a0 small_prime
0000000000014088 l     O .rodata	0000000000000024 gcd_pairs
0000000000000000 l    df *ABS*	0000000000000000 constant_time.c
0000000000011778 l     F .text	0000000000000020 mbedtls_ct_uchar_mask_of_range
0000000000000000 l    df *ABS*	0000000000000000 platform_util.c
0000000000019568 l     O .data	0000000000000008 memset_func
0000000000000000 l    df *ABS*	0000000000000000 bget_malloc.c
0000000000011f58 l     F .text	0000000000000010 _assert_trap
0000000000011f68 l     F .text	0000000000000038 raw_malloc_return_hook.isra.0
0000000000011fa0 l     F .text	0000000000000028 bget_buf_size.part.0
000000000001439d l     O .rodata	000000000000000e __func__.3996
00000000000143ab l     O .rodata	0000000000000005 __func__.3908
00000000000143b0 l     O .rodata	0000000000000006 __func__.3928
00000000000143b6 l     O .rodata	0000000000000005 __func__.3949
00000000000143bb l     O .rodata	0000000000000006 __func__.3939
00000000000143c1 l     O .rodata	0000000000000006 __func__.3958
00000000000143c7 l     O .rodata	0000000000000007 __func__.3968
00000000000143ce l     O .rodata	0000000000000014 __func__.4197
00000000000143e2 l     O .rodata	0000000000000013 __func__.4061
0000000000019570 l     O .data	0000000000000080 malloc_ctx
0000000000000000 l    df *ABS*	0000000000000000 snprintf.c
0000000000000000 l    df *ABS*	0000000000000000 memmove.c
0000000000000000 l    df *ABS*	0000000000000000 memset.c
0000000000000000 l    df *ABS*	0000000000000000 strcmp.c
0000000000000000 l    df *ABS*	0000000000000000 strlcpy.c
0000000000000000 l    df *ABS*	0000000000000000 mempool.c
000000000001447e l     O .rodata	0000000000000013 __func__.3711
0000000000014491 l     O .rodata	000000000000000b __func__.3692
000000000001449c l     O .rodata	000000000000000e __func__.3717
0000000000000000 l    df *ABS*	0000000000000000 consttime_memcmp.c
0000000000000000 l    df *ABS*	0000000000000000 
0000000000018dd8 l     O *ABS*	0000000000000000 _DYNAMIC
0000000000018f38 l     O *ABS*	0000000000000000 _GLOBAL_OFFSET_TABLE_
0000000000007e24 g     F .text	0000000000000070 putchar
000000000000a92c g     F .text	0000000000000008 __GP11_TEE_BigIntConvertFromOctetString
000000000000be58 g     F .text	0000000000000004 TEE_BigIntConvertToFMM
000000000000b6cc g     F .text	000000000000000c TEE_BigIntSquareMod
000000000000aea8 g     F .text	00000000000001a0 TEE_BigIntShiftRight
0000000000012b20 g     F .text	000000000000011c raw_malloc_add_pool
00000000000096ec g     F .text	0000000000000110 tee_invoke_supp_plugin
000000000000de60 g     F .text	00000000000000e8 mbedtls_mpi_grow
000000000000cd5c g     F .text	0000000000000128 __GP11_TEE_GetPropertyName
00000000000093f4 g     F .text	00000000000000d8 TEE_Realloc
0000000000008154 g     F .text	000000000000002c __utee_check_inout_annotation
00000000000128d8 g     F .text	0000000000000010 raw_free
0000000000007ce4 g     F .text	0000000000000100 printf
000000000000b244 g     F .text	000000000000002c TEE_BigIntAbs
0000000000008198 g     F .text	000000000000000c _utee_log
0000000000008de4 g     F .text	0000000000000184 TEE_InvokeTACommand
0000000000007efc g     F .text	0000000000000064 __utee_check_outbuf_annotation
000000000000ddcc g     F .text	0000000000000028 mbedtls_mpi_init_mempool
0000000000008318 g     F .text	000000000000000c _utee_cryp_random_number_generate
000000000000e5c8 g     F .text	00000000000000c4 mbedtls_mpi_write_binary
0000000000006f1c g     F .text	0000000000000058 vsnprintk
000000000000ee44 g     F .text	0000000000000074 mbedtls_mpi_sub_int
0000000000012fbc g     F .text	000000000000005c memmove
0000000000012e94 g     F .text	00000000000000d0 snprintf
000000000000ac5c g     F .text	000000000000007c TEE_BigIntCmpS32
0000000000009104 g     F .text	0000000000000008 __GP11_TEE_MemMove
0000000000019540 g     O .data	0000000000000008 __stack_chk_guard
0000000000011cbc g     F .text	000000000000027c mbedtls_ct_rsaes_pkcs1_v15_unpadding
000000000000dfb4 g     F .text	0000000000000120 mbedtls_mpi_shrink
000000000000911c g     F .text	0000000000000008 __GP11_TEE_MemFill
000000000000b270 g     F .text	000000000000000c TEE_BigIntAdd
00000000000082b8 g     F .text	000000000000000c _utee_cryp_obj_restrict_usage
0000000000000000         *UND*	0000000000000000 ta_heap_size
0000000000008360 g     F .text	000000000000000c _utee_asymm_operate
000000000000d390 g     F .text	0000000000000018 _base64_enc_len
000000000000f10c g     F .text	000000000000020c mbedtls_mpi_read_string
000000000000b288 g     F .text	00000000000000e4 TEE_BigIntNeg
00000000000083b4 g     F .text	000000000000000c _utee_storage_free_enum
000000000000cf0c g     F .text	00000000000000e0 TEE_GetNextProperty
000000000000e79c g     F .text	00000000000000c0 mbedtls_mpi_shift_r
0000000000012e80 g     F .text	0000000000000014 malloc_buffer_overlaps_heap
0000000000008264 g     F .text	000000000000000c _utee_hash_init
000000000000b6b4 g     F .text	000000000000000c TEE_BigIntSubMod
0000000000011004 g     F .text	000000000000034c mbedtls_mpi_gen_prime
000000000000ca8c g     F .text	0000000000000098 TEE_GetPropertyAsBinaryBlock
000000000000e290 g     F .text	000000000000002c mbedtls_mpi_get_bit
00000000000134c0  w    O .rodata	0000000000000008 __ta_no_share_heap_size
000000000000e48c g     F .text	0000000000000084 mbedtls_mpi_read_binary
0000000000006ac0 g     F .text	00000000000000e0 trace_printf
000000000000fd4c g     F .text	0000000000000008 mbedtls_mpi_montmul
0000000000008420 g     F .text	000000000000000c _utee_cache_operation
0000000000006d70 g     F .text	00000000000000ec memcpy
000000000000be5c g     F .text	00000000000000d0 TEE_BigIntConvertFromFMM
0000000000007eb0 g     F .text	0000000000000008 TEE_Panic
0000000000007de4 g     F .text	0000000000000040 puts
000000000000bf2c g     F .text	0000000000000148 TEE_BigIntComputeFMM
0000000000012e48 g     F .text	0000000000000010 malloc_get_stats
0000000000009240 g     F .text	0000000000000028 TEE_GetREETime
0000000000012e0c g     F .text	000000000000003c raw_malloc_get_stats
0000000000000000         *UND*	0000000000000000 ta_props
000000000000938c g     F .text	0000000000000008 __GP11_TEE_Malloc
0000000000008c9c g     F .text	0000000000000148 __GP11_TEE_OpenTASession
0000000000007fc4 g     F .text	000000000000003c __utee_check_instring_annotation
0000000000012a4c g     F .text	0000000000000018 malloc
000000000000cd48 g     F .text	0000000000000004 TEE_FreePropertyEnumerator
00000000000117f0 g     F .text	0000000000000010 mbedtls_ct_mpi_uint_mask
0000000000012f64 g     F .text	0000000000000058 vsnprintf
0000000000000000         *UND*	0000000000000000 trace_level
000000000000abc8 g     F .text	0000000000000094 TEE_BigIntCmp
0000000000000000         *UND*	0000000000000000 ta_num_props
000000000000675c g     F .text	0000000000000008 os_test_shlib_add
00000000000125f8 g     F .text	00000000000000d0 bgetr
0000000000008378 g     F .text	000000000000000c _utee_storage_obj_open
0000000000009110 g     F .text	0000000000000008 __GP11_TEE_MemCompare
000000000001322c g     F .text	0000000000000014 mempool_free
0000000000008270 g     F .text	000000000000000c _utee_hash_update
000000000000a934 g     F .text	00000000000000c8 TEE_BigIntConvertToOctetString
000000000000e39c g     F .text	000000000000005c mbedtls_mpi_bitlen
000000000000b050 g     F .text	0000000000000080 TEE_BigIntGetBit
0000000000000000         *UND*	0000000000000000 trace_ext_prefix
00000000000083d8 g     F .text	000000000000000c _utee_storage_next_enum
00000000000128c8 g     F .text	0000000000000010 raw_malloc
00000000000122ac g     F .text	0000000000000088 bgetz
0000000000011800 g     F .text	0000000000000018 mbedtls_ct_size_bool_eq
00000000000090f4 g     F .text	000000000000000c TEE_GetInstanceData
000000000000914c g     F .text	000000000000003c TEE_Wait
000000000000eeb8 g     F .text	00000000000001ac mbedtls_mpi_mul_mpi
000000000000b048 g     F .text	0000000000000008 __GP11_TEE_BigIntShiftRight
00000000000094dc g     F .text	0000000000000008 TEE_CacheFlush
00000000000068a4 g     F .text	000000000000021c trace_vprintf
0000000000000000         *UND*	0000000000000000 TA_DestroyEntryPoint
000000000000ddbc g     F .text	0000000000000010 mbedtls_mpi_init
0000000000008390 g     F .text	000000000000000c _utee_storage_obj_del
000000000000e348 g     F .text	0000000000000054 mbedtls_mpi_lsb
000000000000d338 g     F .text	0000000000000044 _assert_log
000000000000824c g     F .text	000000000000000c _utee_cryp_state_copy
000000000000be38 g     F .text	0000000000000008 TEE_BigIntFMMContextSizeInU32
0000000000009624 g     F .text	00000000000000c8 tee_unmap
0000000000011834 g     F .text	0000000000000030 mbedtls_ct_uint_if
000000000000a7ac g     F .text	0000000000000050 _TEE_MathAPI_Init
000000000000cfec g     F .text	0000000000000240 __utee_tcb_init
000000000000ecbc g     F .text	0000000000000088 mbedtls_mpi_add_mpi
0000000000006700 g     F .text	0000000000000020 abort
0000000000010908 g     F .text	00000000000001b8 mbedtls_mpi_random
0000000000006d38 g     F .text	0000000000000030 __stack_chk_fail
0000000000000000         *UND*	0000000000000000 ta_heap
00000000000080c8 g     F .text	000000000000002c __utee_check_out_annotation
000000000000b6d8 g     F .text	0000000000000150 TEE_BigIntInvMod
0000000000009ac0 g     F .text	0000000000000158 __utee_call_elf_init_fn
0000000000000000         *UND*	0000000000000000 TA_CloseSessionEntryPoint
00000000000081d4 g     F .text	000000000000000c _utee_close_ta_session
000000000000be00 g     F .text	0000000000000008 __GP11_TEE_BigIntInitFMMContext
000000000000ed44 g     F .text	000000000000008c mbedtls_mpi_sub_mpi
0000000000013240 g     F .text	0000000000000070 consttime_memcmp
000000000000818c g     F .text	000000000000000c _utee_return
00000000000081a4 g     F .text	000000000000000c __utee_panic
0000000000011798 g     F .text	0000000000000048 mbedtls_ct_memcmp
000000000000d22c g     F .text	000000000000001c __tls_get_addr
0000000000000000         *UND*	0000000000000000 TA_InvokeCommandEntryPoint
0000000000009c18 g     F .text	0000000000000010 __utee_call_elf_fini_fn
0000000000012adc g     F .text	0000000000000010 free_wipe
0000000000013178 g     F .text	0000000000000064 mempool_alloc
0000000000008180 g     F .text	000000000000000c _utee_panic
0000000000012af4 g     F .text	000000000000002c raw_malloc_init_ctx
00000000000131dc g     F .text	0000000000000050 mempool_calloc
0000000000008414 g     F .text	000000000000000c _utee_cryp_obj_generate_key
00000000000083fc g     F .text	000000000000000c _utee_storage_obj_trunc
0000000000018d78 g     O .data.rel.ro	0000000000000060 tee_props
0000000000008204 g     F .text	000000000000000c _utee_unmask_cancellation
000000000000ccf4 g     F .text	000000000000000c TEE_ResetPropertyEnumerator
0000000000012a64 g     F .text	000000000000001c calloc
0000000000009268 g     F .text	0000000000000124 TEE_Malloc
0000000000008924 g     F .text	0000000000000088 TEE_CheckMemoryAccessRights
000000000000cb24 g     F .text	00000000000000e8 TEE_GetPropertyAsUUID
00000000000081b0 g     F .text	000000000000000c _utee_get_property
000000000000b144 g     F .text	00000000000000b0 TEE_BigIntSetBit
000000000000e228 g     F .text	0000000000000068 mbedtls_mpi_lset
0000000000000000         *UND*	0000000000000000 TA_OpenSessionEntryPoint
000000000000d248 g     F .text	00000000000000f0 dl_iterate_phdr
000000000001ce28 g     O .bss	0000000000000004 ta_param_types
000000000000f84c g     F .text	0000000000000074 mbedtls_mpi_div_int
0000000000010f18 g     F .text	00000000000000dc mbedtls_mpi_is_prime_ext
000000000000bd6c g     F .text	0000000000000084 TEE_BigIntIsProbablePrime
000000000000f064 g     F .text	00000000000000a8 mbedtls_mpi_mul_int
000000000000fd58 g     F .text	00000000000006cc mbedtls_mpi_exp_mod
0000000000011a0c g     F .text	00000000000000bc mbedtls_mpi_safe_cond_assign
000000000000c404 g     F .text	000000000000025c TEE_GetPropertyAsString
0000000000011bc4 g     F .text	00000000000000f8 mbedtls_mpi_lt_mpi_ct
000000000000a7fc g     F .text	0000000000000060 TEE_BigIntInit
000000000000a9fc g     F .text	0000000000000060 __GP11_TEE_BigIntConvertToOctetString
000000000000b1f4 g     F .text	0000000000000050 TEE_BigIntAssign
0000000000008000 g     F .text	0000000000000064 __utee_check_outstring_annotation
0000000000009100 g     F .text	0000000000000004 TEE_MemMove
0000000000011f38 g     F .text	0000000000000020 mbedtls_platform_zeroize
000000000000a864 g     F .text	00000000000000c8 TEE_BigIntConvertFromOctetString
0000000000008354 g     F .text	000000000000000c _utee_authenc_dec_final
000000000000e85c g     F .text	000000000000009c mbedtls_mpi_cmp_abs
00000000000083e4 g     F .text	000000000000000c _utee_storage_obj_read
0000000000007c6c g     F .text	000000000000002c memchr
0000000000008864 g     F .text	0000000000000060 TEE_UnmaskCancellation
0000000000011350 g     F .text	0000000000000428 mbedtls_mpi_self_test
0000000000008408 g     F .text	000000000000000c _utee_storage_obj_seek
0000000000007f60 g     F .text	0000000000000064 __utee_check_gp11_outbuf_annotation
00000000000081f8 g     F .text	000000000000000c _utee_check_access_rights
0000000000008f68 g     F .text	0000000000000178 __GP11_TEE_InvokeTACommand
000000000000e9cc g     F .text	0000000000000074 mbedtls_mpi_cmp_int
000000000000d4c4 g     F .text	0000000000000124 _base64_dec
00000000000083c0 g     F .text	000000000000000c _utee_storage_reset_enum
0000000000011950 g     F .text	00000000000000bc mbedtls_ct_base64_dec_value
00000000000080f4 g     F .text	0000000000000030 __utee_check_attr_in_annotation
000000000000833c g     F .text	000000000000000c _utee_authenc_update_payload
000000000000b63c g     F .text	000000000000006c TEE_BigIntMod
000000000000f974 g     F .text	000000000000009c mbedtls_mpi_mod_int
000000000000e414 g     F .text	0000000000000078 mbedtls_mpi_read_binary_le
000000000000b488 g     F .text	00000000000001b4 TEE_BigIntDiv
00000000000082d0 g     F .text	000000000000000c _utee_cryp_obj_alloc
0000000000013058 g     F .text	0000000000000058 strlcpy
00000000000118a0 g     F .text	00000000000000b0 mbedtls_ct_base64_enc_char
000000000000e0d4 g     F .text	00000000000000cc mbedtls_mpi_copy
000000000001282c g     F .text	0000000000000018 malloc_reset_stats
000000000000cc0c g     F .text	00000000000000e8 TEE_GetPropertyAsIdentity
0000000000007c20 g     F .text	000000000000004c __vsprintf
000000000000c8b8 g     F .text	00000000000000e8 TEE_GetPropertyAsU64
0000000000008234 g     F .text	000000000000000c _utee_set_ta_time
00000000000081e0 g     F .text	000000000000000c _utee_invoke_ta_command
0000000000012a80 g     F .text	0000000000000018 realloc
000000000000e1a0 g     F .text	0000000000000088 mbedtls_mpi_swap
00000000000130b0 g     F .text	00000000000000c8 mempool_alloc_pool
000000000000b36c g     F .text	0000000000000114 TEE_BigIntMul
0000000000012aec g     F .text	0000000000000008 raw_malloc_get_ctx_size
000000000000e68c g     F .text	0000000000000110 mbedtls_mpi_shift_l
000000000000e8f8 g     F .text	00000000000000d4 mbedtls_mpi_cmp_mpi
0000000000009118 g     F .text	0000000000000004 TEE_MemFill
0000000000012e58 g     F .text	0000000000000014 malloc_add_pool
0000000000006894 g     F .text	0000000000000010 trace_get_level
000000000000ea40 g     F .text	0000000000000120 mbedtls_mpi_add_abs
000000000000be10 g     F .text	0000000000000010 TEE_BigIntFMMSizeInU32
000000000000c6f8 g     F .text	00000000000000d8 TEE_GetPropertyAsBool
0000000000012958 g     F .text	00000000000000f4 raw_realloc
000000000000bdf0 g     F .text	0000000000000004 TEE_BigIntInitFMM
0000000000008288 g     F .text	000000000000000c _utee_cipher_init
0000000000009cc0 g     F .text	0000000000000288 __utee_entry
000000000000c7d0 g     F .text	00000000000000e8 TEE_GetPropertyAsU32
000000000000b828 g     F .text	0000000000000108 TEE_BigIntRelativePrime
000000000000f8c0 g     F .text	00000000000000b4 mbedtls_mpi_mod_mpi
00000000000082ac g     F .text	000000000000000c _utee_cryp_obj_get_info
00000000000126c8 g     F .text	00000000000000d0 bpool
000000000000cd00 g     F .text	0000000000000048 TEE_AllocatePropertyEnumerator
0000000000008240 g     F .text	000000000000000c _utee_cryp_state_alloc
0000000000008804 g     F .text	0000000000000060 TEE_GetCancellationFlag
0000000000010424 g     F .text	00000000000001d8 mbedtls_mpi_gcd
00000000000091fc g     F .text	0000000000000044 TEE_SetTAPersistentTime
000000000000e510 g     F .text	00000000000000b8 mbedtls_mpi_write_binary_le
0000000000013018 g     F .text	000000000000001c memset
0000000000012844 g     F .text	0000000000000084 raw_memalign
0000000000009188 g     F .text	0000000000000074 TEE_GetTAPersistentTime
0000000000006ba0 g     F .text	0000000000000198 dhex_dump
00000000000088c4 g     F .text	0000000000000060 TEE_MaskCancellation
00000000000082c4 g     F .text	000000000000000c _utee_cryp_obj_get_attr
00000000000082a0 g     F .text	000000000000000c _utee_cipher_final
0000000000006878 g     F .text	000000000000001c trace_set_level
0000000000011818 g     F .text	000000000000001c mbedtls_ct_mpi_uint_lt
0000000000008258 g     F .text	000000000000000c _utee_cryp_state_free
0000000000013034 g     F .text	0000000000000024 strcmp
00000000000081c8 g     F .text	000000000000000c _utee_open_ta_session
000000000000ab0c g     F .text	00000000000000bc TEE_BigIntConvertToS32
000000000000b27c g     F .text	000000000000000c TEE_BigIntSub
0000000000000000         *UND*	0000000000000000 tahead_get_trace_level
00000000000083cc g     F .text	000000000000000c _utee_storage_start_enum
0000000000009574 g     F .text	00000000000000b0 tee_map_zi
000000000000fd54 g     F .text	0000000000000004 mbedtls_mpi_montred
0000000000012a98 g     F .text	000000000000001c memalign
00000000000117e0 g     F .text	0000000000000010 mbedtls_ct_uint_mask
000000000000a85c g     F .text	0000000000000008 __GP11_TEE_BigIntInit
000000000000aa5c g     F .text	00000000000000b0 TEE_BigIntConvertFromS32
000000000000edd0 g     F .text	0000000000000074 mbedtls_mpi_add_int
0000000000008348 g     F .text	000000000000000c _utee_authenc_enc_final
0000000000006764 g     F .text	0000000000000008 os_test_shlib_panic
0000000000012e6c g     F .text	0000000000000014 malloc_buffer_is_within_alloced
00000000000082dc g     F .text	000000000000000c _utee_cryp_obj_close
000000000000bdfc g     F .text	0000000000000004 TEE_BigIntInitFMMContext
0000000000000000         *UND*	0000000000000000 os_test_global
0000000000008210 g     F .text	000000000000000c _utee_mask_cancellation
000000000001ce30 g     O .bss	0000000000000008 __ta_no_share_malloc_ctx
000000000000839c g     F .text	000000000000000c _utee_storage_obj_rename
00000000000090e0 g     F .text	0000000000000008 __GP11_TEE_CheckMemoryAccessRights
000000000000b480 g     F .text	0000000000000008 TEE_BigIntSquare
00000000000083f0 g     F .text	000000000000000c _utee_storage_obj_write
0000000000000000         *UND*	0000000000000000 TA_CreateEntryPoint
0000000000019600  w    O .bss	0000000000000000 __ta_no_share_heap
0000000000008330 g     F .text	000000000000000c _utee_authenc_update_aad
000000000000fd44 g     F .text	0000000000000008 mbedtls_mpi_montg_init
0000000000006f74 g     F .text	00000000000000cc snprintk
000000000000b0d0 g     F .text	0000000000000074 TEE_BigIntGetBitCount
0000000000008300 g     F .text	000000000000000c _utee_cryp_obj_copy
000000000000b6c0 g     F .text	000000000000000c TEE_BigIntMulMod
0000000000010ac0 g     F .text	0000000000000458 mbedtls_mpi_inv_mod
0000000000008124 g     F .text	0000000000000030 __utee_check_gp11_attr_in_annotation
000000000001ce38 g     O .bss	0000000000000040 ta_params
000000000000f318 g     F .text	0000000000000534 mbedtls_mpi_div_mpi
0000000000008064 g     F .text	0000000000000064 __utee_check_gp11_outstring_annotation
000000000000e3f8 g     F .text	000000000000001c mbedtls_mpi_size
0000000000011fc8 g     F .text	00000000000002e4 bget
000000000000be40 g     F .text	0000000000000018 __GP11_TEE_BigIntFMMContextSizeInU32
000000000000cd4c g     F .text	0000000000000010 TEE_StartPropertyEnumerator
000000000000821c g     F .text	000000000000000c _utee_wait
000000000000e2bc g     F .text	000000000000008c mbedtls_mpi_set_bit
0000000000009394 g     F .text	0000000000000060 TEE_Free
0000000000010ff4 g     F .text	0000000000000010 mbedtls_mpi_is_prime
00000000000094e4 g     F .text	0000000000000008 TEE_CacheInvalidate
000000000000d37c g     F .text	0000000000000014 _assert_break
000000000000b6a8 g     F .text	000000000000000c TEE_BigIntAddMod
0000000000011864 g     F .text	000000000000003c mbedtls_ct_mpi_uint_cond_assign
000000000000bdf4 g     F .text	0000000000000008 __GP11_TEE_BigIntInitFMM
0000000000008228 g     F .text	000000000000000c _utee_get_time
000000000000ce84 g     F .text	0000000000000088 TEE_GetPropertyName
00000000000094cc g     F .text	0000000000000008 __GP11_TEE_Realloc
00000000000082f4 g     F .text	000000000000000c _utee_cryp_obj_populate
000000000000910c g     F .text	0000000000000004 TEE_MemCompare
0000000000008294 g     F .text	000000000000000c _utee_cipher_update
0000000000006e5c g     F .text	00000000000000c0 __vsnprintf
000000000001ce78 g     O .bss	0000000000000010 __elf_phdr_info
0000000000008b48 g     F .text	0000000000000154 TEE_OpenTASession
0000000000007cb4 g     F .text	0000000000000028 trace_ext_puts
000000000000c660 g     F .text	0000000000000098 __GP11_TEE_GetPropertyAsString
0000000000012cbc g     F .text	0000000000000150 raw_malloc_buffer_is_within_alloced
0000000000007cdc g     F .text	0000000000000008 trace_ext_get_thread_id
0000000000012c3c g     F .text	0000000000000080 raw_malloc_buffer_overlaps_heap
000000000000830c g     F .text	000000000000000c _utee_cryp_derive_key
000000000000ddf4 g     F .text	000000000000006c mbedtls_mpi_free
00000000000082e8 g     F .text	000000000000000c _utee_cryp_obj_reset
00000000000094d4 g     F .text	0000000000000008 TEE_CacheClean
00000000000081bc g     F .text	000000000000000c _utee_get_property_name_to_index
00000000000128e8 g     F .text	0000000000000070 raw_calloc
000000000000d3a8 g     F .text	000000000000011c _base64_enc
0000000000011ac8 g     F .text	00000000000000fc mbedtls_mpi_safe_cond_swap
0000000000008324 g     F .text	000000000000000c _utee_authenc_init
0000000000007c98 g     F .text	000000000000001c strlen
000000000000bb04 g     F .text	0000000000000268 TEE_BigIntComputeExtendedGcd
00000000000083a8 g     F .text	000000000000000c _utee_storage_alloc_enum
000000000000b930 g     F .text	00000000000001d4 TEE_BigIntExpMod
0000000000009124 g     F .text	0000000000000028 TEE_GetSystemTime
000000000000836c g     F .text	000000000000000c _utee_asymm_verify
0000000000000000         *UND*	0000000000000000 ta_head
0000000000012334 g     F .text	00000000000002c4 brel
000000000000c9a0 g     F .text	00000000000000ec __GP11_TEE_GetPropertyAsBinaryBlock
000000000000eb60 g     F .text	000000000000015c mbedtls_mpi_sub_abs
00000000000105fc g     F .text	0000000000000068 mbedtls_mpi_fill_random
00000000000090e8 g     F .text	000000000000000c TEE_SetInstanceData
00000000000081ec g     F .text	000000000000000c _utee_get_cancellation_flag
000000000000fa10 g     F .text	0000000000000270 mbedtls_mpi_write_string
0000000000012ab4 g     F .text	0000000000000018 aligned_alloc
000000000000be08 g     F .text	0000000000000008 TEE_BigIntInitFMMContext1
00000000000087dc g     F .text	0000000000000028 TEE_CloseTASession
0000000000008384 g     F .text	000000000000000c _utee_storage_obj_create
000000000000be20 g     F .text	0000000000000018 __GP11_TEE_BigIntFMMSizeInU32
0000000000012acc g     F .text	0000000000000010 free
0000000000012798 g     F .text	0000000000000094 bstats
000000000001ce88 g     O .bss	0000000000000008 mbedtls_mpi_mempool
000000000000827c g     F .text	000000000000000c _utee_hash_final



Disassembly of section .plt:

0000000000005c60 <.plt>:
    5c60:	a9bf7bf0 	stp	x16, x30, [sp, #-16]!
    5c64:	f0000090 	adrp	x16, 18000 <__func__.3717+0x3b64>
    5c68:	f947fe11 	ldr	x17, [x16, #4088]
    5c6c:	913fe210 	add	x16, x16, #0xff8
    5c70:	d61f0220 	br	x17
    5c74:	d503201f 	nop
    5c78:	d503201f 	nop
    5c7c:	d503201f 	nop

0000000000005c80 <putchar@plt>:
    5c80:	900000b0 	adrp	x16, 19000 <putchar+0x111dc>
    5c84:	f9400211 	ldr	x17, [x16]
    5c88:	91000210 	add	x16, x16, #0x0
    5c8c:	d61f0220 	br	x17

0000000000005c90 <TEE_BigIntShiftRight@plt>:
    5c90:	900000b0 	adrp	x16, 19000 <putchar+0x111dc>
    5c94:	f9400611 	ldr	x17, [x16, #8]
    5c98:	91002210 	add	x16, x16, #0x8
    5c9c:	d61f0220 	br	x17

0000000000005ca0 <raw_malloc_add_pool@plt>:
    5ca0:	900000b0 	adrp	x16, 19000 <putchar+0x111dc>
    5ca4:	f9400a11 	ldr	x17, [x16, #16]
    5ca8:	91004210 	add	x16, x16, #0x10
    5cac:	d61f0220 	br	x17

0000000000005cb0 <mbedtls_mpi_grow@plt>:
    5cb0:	900000b0 	adrp	x16, 19000 <putchar+0x111dc>
    5cb4:	f9400e11 	ldr	x17, [x16, #24]
    5cb8:	91006210 	add	x16, x16, #0x18
    5cbc:	d61f0220 	br	x17

0000000000005cc0 <__GP11_TEE_GetPropertyName@plt>:
    5cc0:	900000b0 	adrp	x16, 19000 <putchar+0x111dc>
    5cc4:	f9401211 	ldr	x17, [x16, #32]
    5cc8:	91008210 	add	x16, x16, #0x20
    5ccc:	d61f0220 	br	x17

0000000000005cd0 <TEE_Realloc@plt>:
    5cd0:	900000b0 	adrp	x16, 19000 <putchar+0x111dc>
    5cd4:	f9401611 	ldr	x17, [x16, #40]
    5cd8:	9100a210 	add	x16, x16, #0x28
    5cdc:	d61f0220 	br	x17

0000000000005ce0 <__utee_check_inout_annotation@plt>:
    5ce0:	900000b0 	adrp	x16, 19000 <putchar+0x111dc>
    5ce4:	f9401a11 	ldr	x17, [x16, #48]
    5ce8:	9100c210 	add	x16, x16, #0x30
    5cec:	d61f0220 	br	x17

0000000000005cf0 <raw_free@plt>:
    5cf0:	900000b0 	adrp	x16, 19000 <putchar+0x111dc>
    5cf4:	f9401e11 	ldr	x17, [x16, #56]
    5cf8:	9100e210 	add	x16, x16, #0x38
    5cfc:	d61f0220 	br	x17

0000000000005d00 <printf@plt>:
    5d00:	900000b0 	adrp	x16, 19000 <putchar+0x111dc>
    5d04:	f9402211 	ldr	x17, [x16, #64]
    5d08:	91010210 	add	x16, x16, #0x40
    5d0c:	d61f0220 	br	x17

0000000000005d10 <_utee_log@plt>:
    5d10:	900000b0 	adrp	x16, 19000 <putchar+0x111dc>
    5d14:	f9402611 	ldr	x17, [x16, #72]
    5d18:	91012210 	add	x16, x16, #0x48
    5d1c:	d61f0220 	br	x17

0000000000005d20 <TEE_InvokeTACommand@plt>:
    5d20:	900000b0 	adrp	x16, 19000 <putchar+0x111dc>
    5d24:	f9402a11 	ldr	x17, [x16, #80]
    5d28:	91014210 	add	x16, x16, #0x50
    5d2c:	d61f0220 	br	x17

0000000000005d30 <__utee_check_outbuf_annotation@plt>:
    5d30:	900000b0 	adrp	x16, 19000 <putchar+0x111dc>
    5d34:	f9402e11 	ldr	x17, [x16, #88]
    5d38:	91016210 	add	x16, x16, #0x58
    5d3c:	d61f0220 	br	x17

0000000000005d40 <mbedtls_mpi_init_mempool@plt>:
    5d40:	900000b0 	adrp	x16, 19000 <putchar+0x111dc>
    5d44:	f9403211 	ldr	x17, [x16, #96]
    5d48:	91018210 	add	x16, x16, #0x60
    5d4c:	d61f0220 	br	x17

0000000000005d50 <_utee_cryp_random_number_generate@plt>:
    5d50:	900000b0 	adrp	x16, 19000 <putchar+0x111dc>
    5d54:	f9403611 	ldr	x17, [x16, #104]
    5d58:	9101a210 	add	x16, x16, #0x68
    5d5c:	d61f0220 	br	x17

0000000000005d60 <mbedtls_mpi_write_binary@plt>:
    5d60:	900000b0 	adrp	x16, 19000 <putchar+0x111dc>
    5d64:	f9403a11 	ldr	x17, [x16, #112]
    5d68:	9101c210 	add	x16, x16, #0x70
    5d6c:	d61f0220 	br	x17

0000000000005d70 <vsnprintk@plt>:
    5d70:	900000b0 	adrp	x16, 19000 <putchar+0x111dc>
    5d74:	f9403e11 	ldr	x17, [x16, #120]
    5d78:	9101e210 	add	x16, x16, #0x78
    5d7c:	d61f0220 	br	x17

0000000000005d80 <mbedtls_mpi_sub_int@plt>:
    5d80:	900000b0 	adrp	x16, 19000 <putchar+0x111dc>
    5d84:	f9404211 	ldr	x17, [x16, #128]
    5d88:	91020210 	add	x16, x16, #0x80
    5d8c:	d61f0220 	br	x17

0000000000005d90 <memmove@plt>:
    5d90:	900000b0 	adrp	x16, 19000 <putchar+0x111dc>
    5d94:	f9404611 	ldr	x17, [x16, #136]
    5d98:	91022210 	add	x16, x16, #0x88
    5d9c:	d61f0220 	br	x17

0000000000005da0 <snprintf@plt>:
    5da0:	900000b0 	adrp	x16, 19000 <putchar+0x111dc>
    5da4:	f9404a11 	ldr	x17, [x16, #144]
    5da8:	91024210 	add	x16, x16, #0x90
    5dac:	d61f0220 	br	x17

0000000000005db0 <TEE_BigIntCmpS32@plt>:
    5db0:	900000b0 	adrp	x16, 19000 <putchar+0x111dc>
    5db4:	f9404e11 	ldr	x17, [x16, #152]
    5db8:	91026210 	add	x16, x16, #0x98
    5dbc:	d61f0220 	br	x17

0000000000005dc0 <TEE_BigIntAdd@plt>:
    5dc0:	900000b0 	adrp	x16, 19000 <putchar+0x111dc>
    5dc4:	f9405211 	ldr	x17, [x16, #160]
    5dc8:	91028210 	add	x16, x16, #0xa0
    5dcc:	d61f0220 	br	x17

0000000000005dd0 <_base64_enc_len@plt>:
    5dd0:	900000b0 	adrp	x16, 19000 <putchar+0x111dc>
    5dd4:	f9405611 	ldr	x17, [x16, #168]
    5dd8:	9102a210 	add	x16, x16, #0xa8
    5ddc:	d61f0220 	br	x17

0000000000005de0 <mbedtls_mpi_read_string@plt>:
    5de0:	900000b0 	adrp	x16, 19000 <putchar+0x111dc>
    5de4:	f9405a11 	ldr	x17, [x16, #176]
    5de8:	9102c210 	add	x16, x16, #0xb0
    5dec:	d61f0220 	br	x17

0000000000005df0 <mbedtls_mpi_shift_r@plt>:
    5df0:	900000b0 	adrp	x16, 19000 <putchar+0x111dc>
    5df4:	f9405e11 	ldr	x17, [x16, #184]
    5df8:	9102e210 	add	x16, x16, #0xb8
    5dfc:	d61f0220 	br	x17

0000000000005e00 <malloc_buffer_overlaps_heap@plt>:
    5e00:	900000b0 	adrp	x16, 19000 <putchar+0x111dc>
    5e04:	f9406211 	ldr	x17, [x16, #192]
    5e08:	91030210 	add	x16, x16, #0xc0
    5e0c:	d61f0220 	br	x17

0000000000005e10 <mbedtls_mpi_get_bit@plt>:
    5e10:	900000b0 	adrp	x16, 19000 <putchar+0x111dc>
    5e14:	f9406611 	ldr	x17, [x16, #200]
    5e18:	91032210 	add	x16, x16, #0xc8
    5e1c:	d61f0220 	br	x17

0000000000005e20 <mbedtls_mpi_read_binary@plt>:
    5e20:	900000b0 	adrp	x16, 19000 <putchar+0x111dc>
    5e24:	f9406a11 	ldr	x17, [x16, #208]
    5e28:	91034210 	add	x16, x16, #0xd0
    5e2c:	d61f0220 	br	x17

0000000000005e30 <trace_printf@plt>:
    5e30:	900000b0 	adrp	x16, 19000 <putchar+0x111dc>
    5e34:	f9406e11 	ldr	x17, [x16, #216]
    5e38:	91036210 	add	x16, x16, #0xd8
    5e3c:	d61f0220 	br	x17

0000000000005e40 <_utee_cache_operation@plt>:
    5e40:	900000b0 	adrp	x16, 19000 <putchar+0x111dc>
    5e44:	f9407211 	ldr	x17, [x16, #224]
    5e48:	91038210 	add	x16, x16, #0xe0
    5e4c:	d61f0220 	br	x17

0000000000005e50 <memcpy@plt>:
    5e50:	900000b0 	adrp	x16, 19000 <putchar+0x111dc>
    5e54:	f9407611 	ldr	x17, [x16, #232]
    5e58:	9103a210 	add	x16, x16, #0xe8
    5e5c:	d61f0220 	br	x17

0000000000005e60 <TEE_Panic@plt>:
    5e60:	900000b0 	adrp	x16, 19000 <putchar+0x111dc>
    5e64:	f9407a11 	ldr	x17, [x16, #240]
    5e68:	9103c210 	add	x16, x16, #0xf0
    5e6c:	d61f0220 	br	x17

0000000000005e70 <puts@plt>:
    5e70:	900000b0 	adrp	x16, 19000 <putchar+0x111dc>
    5e74:	f9407e11 	ldr	x17, [x16, #248]
    5e78:	9103e210 	add	x16, x16, #0xf8
    5e7c:	d61f0220 	br	x17

0000000000005e80 <raw_malloc_get_stats@plt>:
    5e80:	900000b0 	adrp	x16, 19000 <putchar+0x111dc>
    5e84:	f9408211 	ldr	x17, [x16, #256]
    5e88:	91040210 	add	x16, x16, #0x100
    5e8c:	d61f0220 	br	x17

0000000000005e90 <__utee_check_instring_annotation@plt>:
    5e90:	900000b0 	adrp	x16, 19000 <putchar+0x111dc>
    5e94:	f9408611 	ldr	x17, [x16, #264]
    5e98:	91042210 	add	x16, x16, #0x108
    5e9c:	d61f0220 	br	x17

0000000000005ea0 <malloc@plt>:
    5ea0:	900000b0 	adrp	x16, 19000 <putchar+0x111dc>
    5ea4:	f9408a11 	ldr	x17, [x16, #272]
    5ea8:	91044210 	add	x16, x16, #0x110
    5eac:	d61f0220 	br	x17

0000000000005eb0 <mbedtls_ct_mpi_uint_mask@plt>:
    5eb0:	900000b0 	adrp	x16, 19000 <putchar+0x111dc>
    5eb4:	f9408e11 	ldr	x17, [x16, #280]
    5eb8:	91046210 	add	x16, x16, #0x118
    5ebc:	d61f0220 	br	x17

0000000000005ec0 <vsnprintf@plt>:
    5ec0:	900000b0 	adrp	x16, 19000 <putchar+0x111dc>
    5ec4:	f9409211 	ldr	x17, [x16, #288]
    5ec8:	91048210 	add	x16, x16, #0x120
    5ecc:	d61f0220 	br	x17

0000000000005ed0 <mempool_free@plt>:
    5ed0:	900000b0 	adrp	x16, 19000 <putchar+0x111dc>
    5ed4:	f9409611 	ldr	x17, [x16, #296]
    5ed8:	9104a210 	add	x16, x16, #0x128
    5edc:	d61f0220 	br	x17

0000000000005ee0 <TEE_BigIntConvertToOctetString@plt>:
    5ee0:	900000b0 	adrp	x16, 19000 <putchar+0x111dc>
    5ee4:	f9409a11 	ldr	x17, [x16, #304]
    5ee8:	9104c210 	add	x16, x16, #0x130
    5eec:	d61f0220 	br	x17

0000000000005ef0 <mbedtls_mpi_bitlen@plt>:
    5ef0:	900000b0 	adrp	x16, 19000 <putchar+0x111dc>
    5ef4:	f9409e11 	ldr	x17, [x16, #312]
    5ef8:	9104e210 	add	x16, x16, #0x138
    5efc:	d61f0220 	br	x17

0000000000005f00 <raw_malloc@plt>:
    5f00:	900000b0 	adrp	x16, 19000 <putchar+0x111dc>
    5f04:	f940a211 	ldr	x17, [x16, #320]
    5f08:	91050210 	add	x16, x16, #0x140
    5f0c:	d61f0220 	br	x17

0000000000005f10 <bgetz@plt>:
    5f10:	900000b0 	adrp	x16, 19000 <putchar+0x111dc>
    5f14:	f940a611 	ldr	x17, [x16, #328]
    5f18:	91052210 	add	x16, x16, #0x148
    5f1c:	d61f0220 	br	x17

0000000000005f20 <mbedtls_ct_size_bool_eq@plt>:
    5f20:	900000b0 	adrp	x16, 19000 <putchar+0x111dc>
    5f24:	f940aa11 	ldr	x17, [x16, #336]
    5f28:	91054210 	add	x16, x16, #0x150
    5f2c:	d61f0220 	br	x17

0000000000005f30 <mbedtls_mpi_mul_mpi@plt>:
    5f30:	900000b0 	adrp	x16, 19000 <putchar+0x111dc>
    5f34:	f940ae11 	ldr	x17, [x16, #344]
    5f38:	91056210 	add	x16, x16, #0x158
    5f3c:	d61f0220 	br	x17

0000000000005f40 <trace_vprintf@plt>:
    5f40:	900000b0 	adrp	x16, 19000 <putchar+0x111dc>
    5f44:	f940b211 	ldr	x17, [x16, #352]
    5f48:	91058210 	add	x16, x16, #0x160
    5f4c:	d61f0220 	br	x17

0000000000005f50 <TA_DestroyEntryPoint@plt>:
    5f50:	900000b0 	adrp	x16, 19000 <putchar+0x111dc>
    5f54:	f940b611 	ldr	x17, [x16, #360]
    5f58:	9105a210 	add	x16, x16, #0x168
    5f5c:	d61f0220 	br	x17

0000000000005f60 <mbedtls_mpi_init@plt>:
    5f60:	900000b0 	adrp	x16, 19000 <putchar+0x111dc>
    5f64:	f940ba11 	ldr	x17, [x16, #368]
    5f68:	9105c210 	add	x16, x16, #0x170
    5f6c:	d61f0220 	br	x17

0000000000005f70 <mbedtls_mpi_lsb@plt>:
    5f70:	900000b0 	adrp	x16, 19000 <putchar+0x111dc>
    5f74:	f940be11 	ldr	x17, [x16, #376]
    5f78:	9105e210 	add	x16, x16, #0x178
    5f7c:	d61f0220 	br	x17

0000000000005f80 <_assert_log@plt>:
    5f80:	900000b0 	adrp	x16, 19000 <putchar+0x111dc>
    5f84:	f940c211 	ldr	x17, [x16, #384]
    5f88:	91060210 	add	x16, x16, #0x180
    5f8c:	d61f0220 	br	x17

0000000000005f90 <TEE_BigIntFMMContextSizeInU32@plt>:
    5f90:	900000b0 	adrp	x16, 19000 <putchar+0x111dc>
    5f94:	f940c611 	ldr	x17, [x16, #392]
    5f98:	91062210 	add	x16, x16, #0x188
    5f9c:	d61f0220 	br	x17

0000000000005fa0 <tee_unmap@plt>:
    5fa0:	900000b0 	adrp	x16, 19000 <putchar+0x111dc>
    5fa4:	f940ca11 	ldr	x17, [x16, #400]
    5fa8:	91064210 	add	x16, x16, #0x190
    5fac:	d61f0220 	br	x17

0000000000005fb0 <mbedtls_ct_uint_if@plt>:
    5fb0:	900000b0 	adrp	x16, 19000 <putchar+0x111dc>
    5fb4:	f940ce11 	ldr	x17, [x16, #408]
    5fb8:	91066210 	add	x16, x16, #0x198
    5fbc:	d61f0220 	br	x17

0000000000005fc0 <_TEE_MathAPI_Init@plt>:
    5fc0:	900000b0 	adrp	x16, 19000 <putchar+0x111dc>
    5fc4:	f940d211 	ldr	x17, [x16, #416]
    5fc8:	91068210 	add	x16, x16, #0x1a0
    5fcc:	d61f0220 	br	x17

0000000000005fd0 <__utee_tcb_init@plt>:
    5fd0:	900000b0 	adrp	x16, 19000 <putchar+0x111dc>
    5fd4:	f940d611 	ldr	x17, [x16, #424]
    5fd8:	9106a210 	add	x16, x16, #0x1a8
    5fdc:	d61f0220 	br	x17

0000000000005fe0 <mbedtls_mpi_add_mpi@plt>:
    5fe0:	900000b0 	adrp	x16, 19000 <putchar+0x111dc>
    5fe4:	f940da11 	ldr	x17, [x16, #432]
    5fe8:	9106c210 	add	x16, x16, #0x1b0
    5fec:	d61f0220 	br	x17

0000000000005ff0 <abort@plt>:
    5ff0:	900000b0 	adrp	x16, 19000 <putchar+0x111dc>
    5ff4:	f940de11 	ldr	x17, [x16, #440]
    5ff8:	9106e210 	add	x16, x16, #0x1b8
    5ffc:	d61f0220 	br	x17

0000000000006000 <__stack_chk_fail@plt>:
    6000:	f0000090 	adrp	x16, 19000 <putchar+0x111dc>
    6004:	f940e211 	ldr	x17, [x16, #448]
    6008:	91070210 	add	x16, x16, #0x1c0
    600c:	d61f0220 	br	x17

0000000000006010 <__utee_check_out_annotation@plt>:
    6010:	f0000090 	adrp	x16, 19000 <putchar+0x111dc>
    6014:	f940e611 	ldr	x17, [x16, #456]
    6018:	91072210 	add	x16, x16, #0x1c8
    601c:	d61f0220 	br	x17

0000000000006020 <__utee_call_elf_init_fn@plt>:
    6020:	f0000090 	adrp	x16, 19000 <putchar+0x111dc>
    6024:	f940ea11 	ldr	x17, [x16, #464]
    6028:	91074210 	add	x16, x16, #0x1d0
    602c:	d61f0220 	br	x17

0000000000006030 <TA_CloseSessionEntryPoint@plt>:
    6030:	f0000090 	adrp	x16, 19000 <putchar+0x111dc>
    6034:	f940ee11 	ldr	x17, [x16, #472]
    6038:	91076210 	add	x16, x16, #0x1d8
    603c:	d61f0220 	br	x17

0000000000006040 <_utee_close_ta_session@plt>:
    6040:	f0000090 	adrp	x16, 19000 <putchar+0x111dc>
    6044:	f940f211 	ldr	x17, [x16, #480]
    6048:	91078210 	add	x16, x16, #0x1e0
    604c:	d61f0220 	br	x17

0000000000006050 <mbedtls_mpi_sub_mpi@plt>:
    6050:	f0000090 	adrp	x16, 19000 <putchar+0x111dc>
    6054:	f940f611 	ldr	x17, [x16, #488]
    6058:	9107a210 	add	x16, x16, #0x1e8
    605c:	d61f0220 	br	x17

0000000000006060 <consttime_memcmp@plt>:
    6060:	f0000090 	adrp	x16, 19000 <putchar+0x111dc>
    6064:	f940fa11 	ldr	x17, [x16, #496]
    6068:	9107c210 	add	x16, x16, #0x1f0
    606c:	d61f0220 	br	x17

0000000000006070 <__utee_panic@plt>:
    6070:	f0000090 	adrp	x16, 19000 <putchar+0x111dc>
    6074:	f940fe11 	ldr	x17, [x16, #504]
    6078:	9107e210 	add	x16, x16, #0x1f8
    607c:	d61f0220 	br	x17

0000000000006080 <TA_InvokeCommandEntryPoint@plt>:
    6080:	f0000090 	adrp	x16, 19000 <putchar+0x111dc>
    6084:	f9410211 	ldr	x17, [x16, #512]
    6088:	91080210 	add	x16, x16, #0x200
    608c:	d61f0220 	br	x17

0000000000006090 <__utee_call_elf_fini_fn@plt>:
    6090:	f0000090 	adrp	x16, 19000 <putchar+0x111dc>
    6094:	f9410611 	ldr	x17, [x16, #520]
    6098:	91082210 	add	x16, x16, #0x208
    609c:	d61f0220 	br	x17

00000000000060a0 <mempool_alloc@plt>:
    60a0:	f0000090 	adrp	x16, 19000 <putchar+0x111dc>
    60a4:	f9410a11 	ldr	x17, [x16, #528]
    60a8:	91084210 	add	x16, x16, #0x210
    60ac:	d61f0220 	br	x17

00000000000060b0 <_utee_panic@plt>:
    60b0:	f0000090 	adrp	x16, 19000 <putchar+0x111dc>
    60b4:	f9410e11 	ldr	x17, [x16, #536]
    60b8:	91086210 	add	x16, x16, #0x218
    60bc:	d61f0220 	br	x17

00000000000060c0 <raw_malloc_init_ctx@plt>:
    60c0:	f0000090 	adrp	x16, 19000 <putchar+0x111dc>
    60c4:	f9411211 	ldr	x17, [x16, #544]
    60c8:	91088210 	add	x16, x16, #0x220
    60cc:	d61f0220 	br	x17

00000000000060d0 <_utee_unmask_cancellation@plt>:
    60d0:	f0000090 	adrp	x16, 19000 <putchar+0x111dc>
    60d4:	f9411611 	ldr	x17, [x16, #552]
    60d8:	9108a210 	add	x16, x16, #0x228
    60dc:	d61f0220 	br	x17

00000000000060e0 <TEE_ResetPropertyEnumerator@plt>:
    60e0:	f0000090 	adrp	x16, 19000 <putchar+0x111dc>
    60e4:	f9411a11 	ldr	x17, [x16, #560]
    60e8:	9108c210 	add	x16, x16, #0x230
    60ec:	d61f0220 	br	x17

00000000000060f0 <calloc@plt>:
    60f0:	f0000090 	adrp	x16, 19000 <putchar+0x111dc>
    60f4:	f9411e11 	ldr	x17, [x16, #568]
    60f8:	9108e210 	add	x16, x16, #0x238
    60fc:	d61f0220 	br	x17

0000000000006100 <TEE_Malloc@plt>:
    6100:	f0000090 	adrp	x16, 19000 <putchar+0x111dc>
    6104:	f9412211 	ldr	x17, [x16, #576]
    6108:	91090210 	add	x16, x16, #0x240
    610c:	d61f0220 	br	x17

0000000000006110 <TEE_CheckMemoryAccessRights@plt>:
    6110:	f0000090 	adrp	x16, 19000 <putchar+0x111dc>
    6114:	f9412611 	ldr	x17, [x16, #584]
    6118:	91092210 	add	x16, x16, #0x248
    611c:	d61f0220 	br	x17

0000000000006120 <_utee_get_property@plt>:
    6120:	f0000090 	adrp	x16, 19000 <putchar+0x111dc>
    6124:	f9412a11 	ldr	x17, [x16, #592]
    6128:	91094210 	add	x16, x16, #0x250
    612c:	d61f0220 	br	x17

0000000000006130 <mbedtls_mpi_lset@plt>:
    6130:	f0000090 	adrp	x16, 19000 <putchar+0x111dc>
    6134:	f9412e11 	ldr	x17, [x16, #600]
    6138:	91096210 	add	x16, x16, #0x258
    613c:	d61f0220 	br	x17

0000000000006140 <TA_OpenSessionEntryPoint@plt>:
    6140:	f0000090 	adrp	x16, 19000 <putchar+0x111dc>
    6144:	f9413211 	ldr	x17, [x16, #608]
    6148:	91098210 	add	x16, x16, #0x260
    614c:	d61f0220 	br	x17

0000000000006150 <dl_iterate_phdr@plt>:
    6150:	f0000090 	adrp	x16, 19000 <putchar+0x111dc>
    6154:	f9413611 	ldr	x17, [x16, #616]
    6158:	9109a210 	add	x16, x16, #0x268
    615c:	d61f0220 	br	x17

0000000000006160 <mbedtls_mpi_div_int@plt>:
    6160:	f0000090 	adrp	x16, 19000 <putchar+0x111dc>
    6164:	f9413a11 	ldr	x17, [x16, #624]
    6168:	9109c210 	add	x16, x16, #0x270
    616c:	d61f0220 	br	x17

0000000000006170 <mbedtls_mpi_is_prime_ext@plt>:
    6170:	f0000090 	adrp	x16, 19000 <putchar+0x111dc>
    6174:	f9413e11 	ldr	x17, [x16, #632]
    6178:	9109e210 	add	x16, x16, #0x278
    617c:	d61f0220 	br	x17

0000000000006180 <mbedtls_mpi_mul_int@plt>:
    6180:	f0000090 	adrp	x16, 19000 <putchar+0x111dc>
    6184:	f9414211 	ldr	x17, [x16, #640]
    6188:	910a0210 	add	x16, x16, #0x280
    618c:	d61f0220 	br	x17

0000000000006190 <mbedtls_mpi_exp_mod@plt>:
    6190:	f0000090 	adrp	x16, 19000 <putchar+0x111dc>
    6194:	f9414611 	ldr	x17, [x16, #648]
    6198:	910a2210 	add	x16, x16, #0x288
    619c:	d61f0220 	br	x17

00000000000061a0 <mbedtls_mpi_safe_cond_assign@plt>:
    61a0:	f0000090 	adrp	x16, 19000 <putchar+0x111dc>
    61a4:	f9414a11 	ldr	x17, [x16, #656]
    61a8:	910a4210 	add	x16, x16, #0x290
    61ac:	d61f0220 	br	x17

00000000000061b0 <TEE_GetPropertyAsString@plt>:
    61b0:	f0000090 	adrp	x16, 19000 <putchar+0x111dc>
    61b4:	f9414e11 	ldr	x17, [x16, #664]
    61b8:	910a6210 	add	x16, x16, #0x298
    61bc:	d61f0220 	br	x17

00000000000061c0 <mbedtls_mpi_lt_mpi_ct@plt>:
    61c0:	f0000090 	adrp	x16, 19000 <putchar+0x111dc>
    61c4:	f9415211 	ldr	x17, [x16, #672]
    61c8:	910a8210 	add	x16, x16, #0x2a0
    61cc:	d61f0220 	br	x17

00000000000061d0 <TEE_BigIntInit@plt>:
    61d0:	f0000090 	adrp	x16, 19000 <putchar+0x111dc>
    61d4:	f9415611 	ldr	x17, [x16, #680]
    61d8:	910aa210 	add	x16, x16, #0x2a8
    61dc:	d61f0220 	br	x17

00000000000061e0 <TEE_BigIntAssign@plt>:
    61e0:	f0000090 	adrp	x16, 19000 <putchar+0x111dc>
    61e4:	f9415a11 	ldr	x17, [x16, #688]
    61e8:	910ac210 	add	x16, x16, #0x2b0
    61ec:	d61f0220 	br	x17

00000000000061f0 <__utee_check_outstring_annotation@plt>:
    61f0:	f0000090 	adrp	x16, 19000 <putchar+0x111dc>
    61f4:	f9415e11 	ldr	x17, [x16, #696]
    61f8:	910ae210 	add	x16, x16, #0x2b8
    61fc:	d61f0220 	br	x17

0000000000006200 <TEE_MemMove@plt>:
    6200:	f0000090 	adrp	x16, 19000 <putchar+0x111dc>
    6204:	f9416211 	ldr	x17, [x16, #704]
    6208:	910b0210 	add	x16, x16, #0x2c0
    620c:	d61f0220 	br	x17

0000000000006210 <mbedtls_platform_zeroize@plt>:
    6210:	f0000090 	adrp	x16, 19000 <putchar+0x111dc>
    6214:	f9416611 	ldr	x17, [x16, #712]
    6218:	910b2210 	add	x16, x16, #0x2c8
    621c:	d61f0220 	br	x17

0000000000006220 <TEE_BigIntConvertFromOctetString@plt>:
    6220:	f0000090 	adrp	x16, 19000 <putchar+0x111dc>
    6224:	f9416a11 	ldr	x17, [x16, #720]
    6228:	910b4210 	add	x16, x16, #0x2d0
    622c:	d61f0220 	br	x17

0000000000006230 <mbedtls_mpi_cmp_abs@plt>:
    6230:	f0000090 	adrp	x16, 19000 <putchar+0x111dc>
    6234:	f9416e11 	ldr	x17, [x16, #728]
    6238:	910b6210 	add	x16, x16, #0x2d8
    623c:	d61f0220 	br	x17

0000000000006240 <memchr@plt>:
    6240:	f0000090 	adrp	x16, 19000 <putchar+0x111dc>
    6244:	f9417211 	ldr	x17, [x16, #736]
    6248:	910b8210 	add	x16, x16, #0x2e0
    624c:	d61f0220 	br	x17

0000000000006250 <__utee_check_gp11_outbuf_annotation@plt>:
    6250:	f0000090 	adrp	x16, 19000 <putchar+0x111dc>
    6254:	f9417611 	ldr	x17, [x16, #744]
    6258:	910ba210 	add	x16, x16, #0x2e8
    625c:	d61f0220 	br	x17

0000000000006260 <_utee_check_access_rights@plt>:
    6260:	f0000090 	adrp	x16, 19000 <putchar+0x111dc>
    6264:	f9417a11 	ldr	x17, [x16, #752]
    6268:	910bc210 	add	x16, x16, #0x2f0
    626c:	d61f0220 	br	x17

0000000000006270 <mbedtls_mpi_cmp_int@plt>:
    6270:	f0000090 	adrp	x16, 19000 <putchar+0x111dc>
    6274:	f9417e11 	ldr	x17, [x16, #760]
    6278:	910be210 	add	x16, x16, #0x2f8
    627c:	d61f0220 	br	x17

0000000000006280 <_base64_dec@plt>:
    6280:	f0000090 	adrp	x16, 19000 <putchar+0x111dc>
    6284:	f9418211 	ldr	x17, [x16, #768]
    6288:	910c0210 	add	x16, x16, #0x300
    628c:	d61f0220 	br	x17

0000000000006290 <TEE_BigIntMod@plt>:
    6290:	f0000090 	adrp	x16, 19000 <putchar+0x111dc>
    6294:	f9418611 	ldr	x17, [x16, #776]
    6298:	910c2210 	add	x16, x16, #0x308
    629c:	d61f0220 	br	x17

00000000000062a0 <mbedtls_mpi_mod_int@plt>:
    62a0:	f0000090 	adrp	x16, 19000 <putchar+0x111dc>
    62a4:	f9418a11 	ldr	x17, [x16, #784]
    62a8:	910c4210 	add	x16, x16, #0x310
    62ac:	d61f0220 	br	x17

00000000000062b0 <strlcpy@plt>:
    62b0:	f0000090 	adrp	x16, 19000 <putchar+0x111dc>
    62b4:	f9418e11 	ldr	x17, [x16, #792]
    62b8:	910c6210 	add	x16, x16, #0x318
    62bc:	d61f0220 	br	x17

00000000000062c0 <mbedtls_mpi_copy@plt>:
    62c0:	f0000090 	adrp	x16, 19000 <putchar+0x111dc>
    62c4:	f9419211 	ldr	x17, [x16, #800]
    62c8:	910c8210 	add	x16, x16, #0x320
    62cc:	d61f0220 	br	x17

00000000000062d0 <_utee_set_ta_time@plt>:
    62d0:	f0000090 	adrp	x16, 19000 <putchar+0x111dc>
    62d4:	f9419611 	ldr	x17, [x16, #808]
    62d8:	910ca210 	add	x16, x16, #0x328
    62dc:	d61f0220 	br	x17

00000000000062e0 <_utee_invoke_ta_command@plt>:
    62e0:	f0000090 	adrp	x16, 19000 <putchar+0x111dc>
    62e4:	f9419a11 	ldr	x17, [x16, #816]
    62e8:	910cc210 	add	x16, x16, #0x330
    62ec:	d61f0220 	br	x17

00000000000062f0 <realloc@plt>:
    62f0:	f0000090 	adrp	x16, 19000 <putchar+0x111dc>
    62f4:	f9419e11 	ldr	x17, [x16, #824]
    62f8:	910ce210 	add	x16, x16, #0x338
    62fc:	d61f0220 	br	x17

0000000000006300 <mempool_alloc_pool@plt>:
    6300:	f0000090 	adrp	x16, 19000 <putchar+0x111dc>
    6304:	f941a211 	ldr	x17, [x16, #832]
    6308:	910d0210 	add	x16, x16, #0x340
    630c:	d61f0220 	br	x17

0000000000006310 <TEE_BigIntMul@plt>:
    6310:	f0000090 	adrp	x16, 19000 <putchar+0x111dc>
    6314:	f941a611 	ldr	x17, [x16, #840]
    6318:	910d2210 	add	x16, x16, #0x348
    631c:	d61f0220 	br	x17

0000000000006320 <raw_malloc_get_ctx_size@plt>:
    6320:	f0000090 	adrp	x16, 19000 <putchar+0x111dc>
    6324:	f941aa11 	ldr	x17, [x16, #848]
    6328:	910d4210 	add	x16, x16, #0x350
    632c:	d61f0220 	br	x17

0000000000006330 <mbedtls_mpi_shift_l@plt>:
    6330:	f0000090 	adrp	x16, 19000 <putchar+0x111dc>
    6334:	f941ae11 	ldr	x17, [x16, #856]
    6338:	910d6210 	add	x16, x16, #0x358
    633c:	d61f0220 	br	x17

0000000000006340 <mbedtls_mpi_cmp_mpi@plt>:
    6340:	f0000090 	adrp	x16, 19000 <putchar+0x111dc>
    6344:	f941b211 	ldr	x17, [x16, #864]
    6348:	910d8210 	add	x16, x16, #0x360
    634c:	d61f0220 	br	x17

0000000000006350 <TEE_MemFill@plt>:
    6350:	f0000090 	adrp	x16, 19000 <putchar+0x111dc>
    6354:	f941b611 	ldr	x17, [x16, #872]
    6358:	910da210 	add	x16, x16, #0x368
    635c:	d61f0220 	br	x17

0000000000006360 <malloc_add_pool@plt>:
    6360:	f0000090 	adrp	x16, 19000 <putchar+0x111dc>
    6364:	f941ba11 	ldr	x17, [x16, #880]
    6368:	910dc210 	add	x16, x16, #0x370
    636c:	d61f0220 	br	x17

0000000000006370 <trace_get_level@plt>:
    6370:	f0000090 	adrp	x16, 19000 <putchar+0x111dc>
    6374:	f941be11 	ldr	x17, [x16, #888]
    6378:	910de210 	add	x16, x16, #0x378
    637c:	d61f0220 	br	x17

0000000000006380 <mbedtls_mpi_add_abs@plt>:
    6380:	f0000090 	adrp	x16, 19000 <putchar+0x111dc>
    6384:	f941c211 	ldr	x17, [x16, #896]
    6388:	910e0210 	add	x16, x16, #0x380
    638c:	d61f0220 	br	x17

0000000000006390 <TEE_BigIntFMMSizeInU32@plt>:
    6390:	f0000090 	adrp	x16, 19000 <putchar+0x111dc>
    6394:	f941c611 	ldr	x17, [x16, #904]
    6398:	910e2210 	add	x16, x16, #0x388
    639c:	d61f0220 	br	x17

00000000000063a0 <raw_realloc@plt>:
    63a0:	f0000090 	adrp	x16, 19000 <putchar+0x111dc>
    63a4:	f941ca11 	ldr	x17, [x16, #912]
    63a8:	910e4210 	add	x16, x16, #0x390
    63ac:	d61f0220 	br	x17

00000000000063b0 <TEE_BigIntInitFMM@plt>:
    63b0:	f0000090 	adrp	x16, 19000 <putchar+0x111dc>
    63b4:	f941ce11 	ldr	x17, [x16, #920]
    63b8:	910e6210 	add	x16, x16, #0x398
    63bc:	d61f0220 	br	x17

00000000000063c0 <TEE_GetPropertyAsU32@plt>:
    63c0:	f0000090 	adrp	x16, 19000 <putchar+0x111dc>
    63c4:	f941d211 	ldr	x17, [x16, #928]
    63c8:	910e8210 	add	x16, x16, #0x3a0
    63cc:	d61f0220 	br	x17

00000000000063d0 <mbedtls_mpi_mod_mpi@plt>:
    63d0:	f0000090 	adrp	x16, 19000 <putchar+0x111dc>
    63d4:	f941d611 	ldr	x17, [x16, #936]
    63d8:	910ea210 	add	x16, x16, #0x3a8
    63dc:	d61f0220 	br	x17

00000000000063e0 <bpool@plt>:
    63e0:	f0000090 	adrp	x16, 19000 <putchar+0x111dc>
    63e4:	f941da11 	ldr	x17, [x16, #944]
    63e8:	910ec210 	add	x16, x16, #0x3b0
    63ec:	d61f0220 	br	x17

00000000000063f0 <mbedtls_mpi_gcd@plt>:
    63f0:	f0000090 	adrp	x16, 19000 <putchar+0x111dc>
    63f4:	f941de11 	ldr	x17, [x16, #952]
    63f8:	910ee210 	add	x16, x16, #0x3b8
    63fc:	d61f0220 	br	x17

0000000000006400 <memset@plt>:
    6400:	f0000090 	adrp	x16, 19000 <putchar+0x111dc>
    6404:	f941e211 	ldr	x17, [x16, #960]
    6408:	910f0210 	add	x16, x16, #0x3c0
    640c:	d61f0220 	br	x17

0000000000006410 <raw_memalign@plt>:
    6410:	f0000090 	adrp	x16, 19000 <putchar+0x111dc>
    6414:	f941e611 	ldr	x17, [x16, #968]
    6418:	910f2210 	add	x16, x16, #0x3c8
    641c:	d61f0220 	br	x17

0000000000006420 <trace_set_level@plt>:
    6420:	f0000090 	adrp	x16, 19000 <putchar+0x111dc>
    6424:	f941ea11 	ldr	x17, [x16, #976]
    6428:	910f4210 	add	x16, x16, #0x3d0
    642c:	d61f0220 	br	x17

0000000000006430 <mbedtls_ct_mpi_uint_lt@plt>:
    6430:	f0000090 	adrp	x16, 19000 <putchar+0x111dc>
    6434:	f941ee11 	ldr	x17, [x16, #984]
    6438:	910f6210 	add	x16, x16, #0x3d8
    643c:	d61f0220 	br	x17

0000000000006440 <strcmp@plt>:
    6440:	f0000090 	adrp	x16, 19000 <putchar+0x111dc>
    6444:	f941f211 	ldr	x17, [x16, #992]
    6448:	910f8210 	add	x16, x16, #0x3e0
    644c:	d61f0220 	br	x17

0000000000006450 <_utee_open_ta_session@plt>:
    6450:	f0000090 	adrp	x16, 19000 <putchar+0x111dc>
    6454:	f941f611 	ldr	x17, [x16, #1000]
    6458:	910fa210 	add	x16, x16, #0x3e8
    645c:	d61f0220 	br	x17

0000000000006460 <tahead_get_trace_level@plt>:
    6460:	f0000090 	adrp	x16, 19000 <putchar+0x111dc>
    6464:	f941fa11 	ldr	x17, [x16, #1008]
    6468:	910fc210 	add	x16, x16, #0x3f0
    646c:	d61f0220 	br	x17

0000000000006470 <tee_map_zi@plt>:
    6470:	f0000090 	adrp	x16, 19000 <putchar+0x111dc>
    6474:	f941fe11 	ldr	x17, [x16, #1016]
    6478:	910fe210 	add	x16, x16, #0x3f8
    647c:	d61f0220 	br	x17

0000000000006480 <memalign@plt>:
    6480:	f0000090 	adrp	x16, 19000 <putchar+0x111dc>
    6484:	f9420211 	ldr	x17, [x16, #1024]
    6488:	91100210 	add	x16, x16, #0x400
    648c:	d61f0220 	br	x17

0000000000006490 <mbedtls_ct_uint_mask@plt>:
    6490:	f0000090 	adrp	x16, 19000 <putchar+0x111dc>
    6494:	f9420611 	ldr	x17, [x16, #1032]
    6498:	91102210 	add	x16, x16, #0x408
    649c:	d61f0220 	br	x17

00000000000064a0 <mbedtls_mpi_add_int@plt>:
    64a0:	f0000090 	adrp	x16, 19000 <putchar+0x111dc>
    64a4:	f9420a11 	ldr	x17, [x16, #1040]
    64a8:	91104210 	add	x16, x16, #0x410
    64ac:	d61f0220 	br	x17

00000000000064b0 <malloc_buffer_is_within_alloced@plt>:
    64b0:	f0000090 	adrp	x16, 19000 <putchar+0x111dc>
    64b4:	f9420e11 	ldr	x17, [x16, #1048]
    64b8:	91106210 	add	x16, x16, #0x418
    64bc:	d61f0220 	br	x17

00000000000064c0 <TEE_BigIntInitFMMContext@plt>:
    64c0:	f0000090 	adrp	x16, 19000 <putchar+0x111dc>
    64c4:	f9421211 	ldr	x17, [x16, #1056]
    64c8:	91108210 	add	x16, x16, #0x420
    64cc:	d61f0220 	br	x17

00000000000064d0 <_utee_mask_cancellation@plt>:
    64d0:	f0000090 	adrp	x16, 19000 <putchar+0x111dc>
    64d4:	f9421611 	ldr	x17, [x16, #1064]
    64d8:	9110a210 	add	x16, x16, #0x428
    64dc:	d61f0220 	br	x17

00000000000064e0 <TA_CreateEntryPoint@plt>:
    64e0:	f0000090 	adrp	x16, 19000 <putchar+0x111dc>
    64e4:	f9421a11 	ldr	x17, [x16, #1072]
    64e8:	9110c210 	add	x16, x16, #0x430
    64ec:	d61f0220 	br	x17

00000000000064f0 <snprintk@plt>:
    64f0:	f0000090 	adrp	x16, 19000 <putchar+0x111dc>
    64f4:	f9421e11 	ldr	x17, [x16, #1080]
    64f8:	9110e210 	add	x16, x16, #0x438
    64fc:	d61f0220 	br	x17

0000000000006500 <TEE_BigIntGetBitCount@plt>:
    6500:	f0000090 	adrp	x16, 19000 <putchar+0x111dc>
    6504:	f9422211 	ldr	x17, [x16, #1088]
    6508:	91110210 	add	x16, x16, #0x440
    650c:	d61f0220 	br	x17

0000000000006510 <TEE_BigIntMulMod@plt>:
    6510:	f0000090 	adrp	x16, 19000 <putchar+0x111dc>
    6514:	f9422611 	ldr	x17, [x16, #1096]
    6518:	91112210 	add	x16, x16, #0x448
    651c:	d61f0220 	br	x17

0000000000006520 <mbedtls_mpi_inv_mod@plt>:
    6520:	f0000090 	adrp	x16, 19000 <putchar+0x111dc>
    6524:	f9422a11 	ldr	x17, [x16, #1104]
    6528:	91114210 	add	x16, x16, #0x450
    652c:	d61f0220 	br	x17

0000000000006530 <mbedtls_mpi_div_mpi@plt>:
    6530:	f0000090 	adrp	x16, 19000 <putchar+0x111dc>
    6534:	f9422e11 	ldr	x17, [x16, #1112]
    6538:	91116210 	add	x16, x16, #0x458
    653c:	d61f0220 	br	x17

0000000000006540 <__utee_check_gp11_outstring_annotation@plt>:
    6540:	f0000090 	adrp	x16, 19000 <putchar+0x111dc>
    6544:	f9423211 	ldr	x17, [x16, #1120]
    6548:	91118210 	add	x16, x16, #0x460
    654c:	d61f0220 	br	x17

0000000000006550 <mbedtls_mpi_size@plt>:
    6550:	f0000090 	adrp	x16, 19000 <putchar+0x111dc>
    6554:	f9423611 	ldr	x17, [x16, #1128]
    6558:	9111a210 	add	x16, x16, #0x468
    655c:	d61f0220 	br	x17

0000000000006560 <bget@plt>:
    6560:	f0000090 	adrp	x16, 19000 <putchar+0x111dc>
    6564:	f9423a11 	ldr	x17, [x16, #1136]
    6568:	9111c210 	add	x16, x16, #0x470
    656c:	d61f0220 	br	x17

0000000000006570 <_utee_wait@plt>:
    6570:	f0000090 	adrp	x16, 19000 <putchar+0x111dc>
    6574:	f9423e11 	ldr	x17, [x16, #1144]
    6578:	9111e210 	add	x16, x16, #0x478
    657c:	d61f0220 	br	x17

0000000000006580 <mbedtls_mpi_set_bit@plt>:
    6580:	f0000090 	adrp	x16, 19000 <putchar+0x111dc>
    6584:	f9424211 	ldr	x17, [x16, #1152]
    6588:	91120210 	add	x16, x16, #0x480
    658c:	d61f0220 	br	x17

0000000000006590 <TEE_Free@plt>:
    6590:	f0000090 	adrp	x16, 19000 <putchar+0x111dc>
    6594:	f9424611 	ldr	x17, [x16, #1160]
    6598:	91122210 	add	x16, x16, #0x488
    659c:	d61f0220 	br	x17

00000000000065a0 <mbedtls_mpi_is_prime@plt>:
    65a0:	f0000090 	adrp	x16, 19000 <putchar+0x111dc>
    65a4:	f9424a11 	ldr	x17, [x16, #1168]
    65a8:	91124210 	add	x16, x16, #0x490
    65ac:	d61f0220 	br	x17

00000000000065b0 <_assert_break@plt>:
    65b0:	f0000090 	adrp	x16, 19000 <putchar+0x111dc>
    65b4:	f9424e11 	ldr	x17, [x16, #1176]
    65b8:	91126210 	add	x16, x16, #0x498
    65bc:	d61f0220 	br	x17

00000000000065c0 <mbedtls_ct_mpi_uint_cond_assign@plt>:
    65c0:	f0000090 	adrp	x16, 19000 <putchar+0x111dc>
    65c4:	f9425211 	ldr	x17, [x16, #1184]
    65c8:	91128210 	add	x16, x16, #0x4a0
    65cc:	d61f0220 	br	x17

00000000000065d0 <_utee_get_time@plt>:
    65d0:	f0000090 	adrp	x16, 19000 <putchar+0x111dc>
    65d4:	f9425611 	ldr	x17, [x16, #1192]
    65d8:	9112a210 	add	x16, x16, #0x4a8
    65dc:	d61f0220 	br	x17

00000000000065e0 <TEE_MemCompare@plt>:
    65e0:	f0000090 	adrp	x16, 19000 <putchar+0x111dc>
    65e4:	f9425a11 	ldr	x17, [x16, #1200]
    65e8:	9112c210 	add	x16, x16, #0x4b0
    65ec:	d61f0220 	br	x17

00000000000065f0 <__vsnprintf@plt>:
    65f0:	f0000090 	adrp	x16, 19000 <putchar+0x111dc>
    65f4:	f9425e11 	ldr	x17, [x16, #1208]
    65f8:	9112e210 	add	x16, x16, #0x4b8
    65fc:	d61f0220 	br	x17

0000000000006600 <TEE_OpenTASession@plt>:
    6600:	f0000090 	adrp	x16, 19000 <putchar+0x111dc>
    6604:	f9426211 	ldr	x17, [x16, #1216]
    6608:	91130210 	add	x16, x16, #0x4c0
    660c:	d61f0220 	br	x17

0000000000006610 <trace_ext_puts@plt>:
    6610:	f0000090 	adrp	x16, 19000 <putchar+0x111dc>
    6614:	f9426611 	ldr	x17, [x16, #1224]
    6618:	91132210 	add	x16, x16, #0x4c8
    661c:	d61f0220 	br	x17

0000000000006620 <raw_malloc_buffer_is_within_alloced@plt>:
    6620:	f0000090 	adrp	x16, 19000 <putchar+0x111dc>
    6624:	f9426a11 	ldr	x17, [x16, #1232]
    6628:	91134210 	add	x16, x16, #0x4d0
    662c:	d61f0220 	br	x17

0000000000006630 <trace_ext_get_thread_id@plt>:
    6630:	f0000090 	adrp	x16, 19000 <putchar+0x111dc>
    6634:	f9426e11 	ldr	x17, [x16, #1240]
    6638:	91136210 	add	x16, x16, #0x4d8
    663c:	d61f0220 	br	x17

0000000000006640 <raw_malloc_buffer_overlaps_heap@plt>:
    6640:	f0000090 	adrp	x16, 19000 <putchar+0x111dc>
    6644:	f9427211 	ldr	x17, [x16, #1248]
    6648:	91138210 	add	x16, x16, #0x4e0
    664c:	d61f0220 	br	x17

0000000000006650 <mbedtls_mpi_free@plt>:
    6650:	f0000090 	adrp	x16, 19000 <putchar+0x111dc>
    6654:	f9427611 	ldr	x17, [x16, #1256]
    6658:	9113a210 	add	x16, x16, #0x4e8
    665c:	d61f0220 	br	x17

0000000000006660 <_utee_get_property_name_to_index@plt>:
    6660:	f0000090 	adrp	x16, 19000 <putchar+0x111dc>
    6664:	f9427a11 	ldr	x17, [x16, #1264]
    6668:	9113c210 	add	x16, x16, #0x4f0
    666c:	d61f0220 	br	x17

0000000000006670 <raw_calloc@plt>:
    6670:	f0000090 	adrp	x16, 19000 <putchar+0x111dc>
    6674:	f9427e11 	ldr	x17, [x16, #1272]
    6678:	9113e210 	add	x16, x16, #0x4f8
    667c:	d61f0220 	br	x17

0000000000006680 <_base64_enc@plt>:
    6680:	f0000090 	adrp	x16, 19000 <putchar+0x111dc>
    6684:	f9428211 	ldr	x17, [x16, #1280]
    6688:	91140210 	add	x16, x16, #0x500
    668c:	d61f0220 	br	x17

0000000000006690 <strlen@plt>:
    6690:	f0000090 	adrp	x16, 19000 <putchar+0x111dc>
    6694:	f9428611 	ldr	x17, [x16, #1288]
    6698:	91142210 	add	x16, x16, #0x508
    669c:	d61f0220 	br	x17

00000000000066a0 <brel@plt>:
    66a0:	f0000090 	adrp	x16, 19000 <putchar+0x111dc>
    66a4:	f9428a11 	ldr	x17, [x16, #1296]
    66a8:	91144210 	add	x16, x16, #0x510
    66ac:	d61f0220 	br	x17

00000000000066b0 <__GP11_TEE_GetPropertyAsBinaryBlock@plt>:
    66b0:	f0000090 	adrp	x16, 19000 <putchar+0x111dc>
    66b4:	f9428e11 	ldr	x17, [x16, #1304]
    66b8:	91146210 	add	x16, x16, #0x518
    66bc:	d61f0220 	br	x17

00000000000066c0 <mbedtls_mpi_sub_abs@plt>:
    66c0:	f0000090 	adrp	x16, 19000 <putchar+0x111dc>
    66c4:	f9429211 	ldr	x17, [x16, #1312]
    66c8:	91148210 	add	x16, x16, #0x520
    66cc:	d61f0220 	br	x17

00000000000066d0 <mbedtls_mpi_fill_random@plt>:
    66d0:	f0000090 	adrp	x16, 19000 <putchar+0x111dc>
    66d4:	f9429611 	ldr	x17, [x16, #1320]
    66d8:	9114a210 	add	x16, x16, #0x528
    66dc:	d61f0220 	br	x17

00000000000066e0 <_utee_get_cancellation_flag@plt>:
    66e0:	f0000090 	adrp	x16, 19000 <putchar+0x111dc>
    66e4:	f9429a11 	ldr	x17, [x16, #1328]
    66e8:	9114c210 	add	x16, x16, #0x530
    66ec:	d61f0220 	br	x17

00000000000066f0 <free@plt>:
    66f0:	f0000090 	adrp	x16, 19000 <putchar+0x111dc>
    66f4:	f9429e11 	ldr	x17, [x16, #1336]
    66f8:	9114e210 	add	x16, x16, #0x538
    66fc:	d61f0220 	br	x17

Disassembly of section .text:

0000000000006700 <abort>:
abort():
/home/ssysarch/Desktop/nick/jetpack_5/Jetson_Linux_R35.4.1_aarch64/Linux_for_Tegra/sources/tegra/optee-src/nv-optee/optee/optee_os/lib/libutee/abort.c:12
    6700:	a9bf7bfd 	stp	x29, x30, [sp, #-16]!
/home/ssysarch/Desktop/nick/jetpack_5/Jetson_Linux_R35.4.1_aarch64/Linux_for_Tegra/sources/tegra/optee-src/nv-optee/optee/optee_os/lib/libutee/abort.c:13
    6704:	b0000060 	adrp	x0, 13000 <memmove+0x44>
    6708:	9116d800 	add	x0, x0, #0x5b6
/home/ssysarch/Desktop/nick/jetpack_5/Jetson_Linux_R35.4.1_aarch64/Linux_for_Tegra/sources/tegra/optee-src/nv-optee/optee/optee_os/lib/libutee/abort.c:12
    670c:	910003fd 	mov	x29, sp
/home/ssysarch/Desktop/nick/jetpack_5/Jetson_Linux_R35.4.1_aarch64/Linux_for_Tegra/sources/tegra/optee-src/nv-optee/optee/optee_os/lib/libutee/abort.c:13
    6710:	97fffdd8 	bl	5e70 <puts@plt>
/home/ssysarch/Desktop/nick/jetpack_5/Jetson_Linux_R35.4.1_aarch64/Linux_for_Tegra/sources/tegra/optee-src/nv-optee/optee/optee_os/lib/libutee/abort.c:14
    6714:	d2800000 	mov	x0, #0x0                   	// #0
    6718:	97fffe66 	bl	60b0 <_utee_panic@plt>
/home/ssysarch/Desktop/nick/jetpack_5/Jetson_Linux_R35.4.1_aarch64/Linux_for_Tegra/sources/tegra/optee-src/nv-optee/optee/optee_os/lib/libutee/abort.c:16 (discriminator 1)
    671c:	14000000 	b	671c <abort+0x1c>

0000000000006720 <os_test_shlib_init>:
os_test_shlib_init():
/home/ssysarch/Desktop/nick/jetpack_5/Jetson_Linux_R35.4.1_aarch64/Linux_for_Tegra/sources/tegra/optee-src/nv-optee/optee/optee_test/ta/os_test_lib/os_test_lib.c:14
    6720:	d0000080 	adrp	x0, 18000 <__func__.3717+0x3b64>
    6724:	52800141 	mov	w1, #0xa                   	// #10
/home/ssysarch/Desktop/nick/jetpack_5/Jetson_Linux_R35.4.1_aarch64/Linux_for_Tegra/sources/tegra/optee-src/nv-optee/optee/optee_test/ta/os_test_lib/os_test_lib.c:16
    6728:	b0000064 	adrp	x4, 13000 <memmove+0x44>
    672c:	910ac084 	add	x4, x4, #0x2b0
/home/ssysarch/Desktop/nick/jetpack_5/Jetson_Linux_R35.4.1_aarch64/Linux_for_Tegra/sources/tegra/optee-src/nv-optee/optee/optee_test/ta/os_test_lib/os_test_lib.c:14
    6730:	f947d800 	ldr	x0, [x0, #4016]
/home/ssysarch/Desktop/nick/jetpack_5/Jetson_Linux_R35.4.1_aarch64/Linux_for_Tegra/sources/tegra/optee-src/nv-optee/optee/optee_test/ta/os_test_lib/os_test_lib.c:16
    6734:	52800023 	mov	w3, #0x1                   	// #1
    6738:	52800062 	mov	w2, #0x3                   	// #3
/home/ssysarch/Desktop/nick/jetpack_5/Jetson_Linux_R35.4.1_aarch64/Linux_for_Tegra/sources/tegra/optee-src/nv-optee/optee/optee_test/ta/os_test_lib/os_test_lib.c:14
    673c:	b9400005 	ldr	w5, [x0]
    6740:	1b017ca5 	mul	w5, w5, w1
/home/ssysarch/Desktop/nick/jetpack_5/Jetson_Linux_R35.4.1_aarch64/Linux_for_Tegra/sources/tegra/optee-src/nv-optee/optee/optee_test/ta/os_test_lib/os_test_lib.c:16
    6744:	52800201 	mov	w1, #0x10                  	// #16
/home/ssysarch/Desktop/nick/jetpack_5/Jetson_Linux_R35.4.1_aarch64/Linux_for_Tegra/sources/tegra/optee-src/nv-optee/optee/optee_test/ta/os_test_lib/os_test_lib.c:15
    6748:	110008a5 	add	w5, w5, #0x2
    674c:	b9000005 	str	w5, [x0]
/home/ssysarch/Desktop/nick/jetpack_5/Jetson_Linux_R35.4.1_aarch64/Linux_for_Tegra/sources/tegra/optee-src/nv-optee/optee/optee_test/ta/os_test_lib/os_test_lib.c:16
    6750:	b0000060 	adrp	x0, 13000 <memmove+0x44>
    6754:	910b0800 	add	x0, x0, #0x2c2
    6758:	17fffdb6 	b	5e30 <trace_printf@plt>

000000000000675c <os_test_shlib_add>:
os_test_shlib_add():
/home/ssysarch/Desktop/nick/jetpack_5/Jetson_Linux_R35.4.1_aarch64/Linux_for_Tegra/sources/tegra/optee-src/nv-optee/optee/optee_test/ta/os_test_lib/os_test_lib.c:27
    675c:	0b010000 	add	w0, w0, w1
    6760:	d65f03c0 	ret

0000000000006764 <os_test_shlib_panic>:
os_test_shlib_panic():
/home/ssysarch/Desktop/nick/jetpack_5/Jetson_Linux_R35.4.1_aarch64/Linux_for_Tegra/sources/tegra/optee-src/nv-optee/optee/optee_test/ta/os_test_lib/os_test_lib.c:31
    6764:	52800000 	mov	w0, #0x0                   	// #0
    6768:	17fffdbe 	b	5e60 <TEE_Panic@plt>

000000000000676c <append>:
append():
/home/ssysarch/Desktop/nick/jetpack_5/Jetson_Linux_R35.4.1_aarch64/Linux_for_Tegra/sources/tegra/optee-src/nv-optee/optee/optee_os/lib/libutils/ext/trace.c:211
    676c:	a9ad7bfd 	stp	x29, x30, [sp, #-304]!
    6770:	910003fd 	mov	x29, sp
    6774:	a9100fe2 	stp	x2, x3, [sp, #256]
    6778:	d0000082 	adrp	x2, 18000 <__func__.3717+0x3b64>
    677c:	f947a042 	ldr	x2, [x2, #3904]
    6780:	a90153f3 	stp	x19, x20, [sp, #16]
    6784:	aa0003f3 	mov	x19, x0
    6788:	3d8023e0 	str	q0, [sp, #128]
    678c:	3d8027e1 	str	q1, [sp, #144]
    6790:	3d802be2 	str	q2, [sp, #160]
    6794:	3d802fe3 	str	q3, [sp, #176]
    6798:	3d8033e4 	str	q4, [sp, #192]
    679c:	3d8037e5 	str	q5, [sp, #208]
    67a0:	3d803be6 	str	q6, [sp, #224]
    67a4:	3d803fe7 	str	q7, [sp, #240]
    67a8:	a91117e4 	stp	x4, x5, [sp, #272]
    67ac:	a9121fe6 	stp	x6, x7, [sp, #288]
    67b0:	f9400040 	ldr	x0, [x2]
    67b4:	f9003fe0 	str	x0, [sp, #120]
    67b8:	d2800000 	mov	x0, #0x0                   	// #0
    67bc:	f90013f5 	str	x21, [sp, #32]
/home/ssysarch/Desktop/nick/jetpack_5/Jetson_Linux_R35.4.1_aarch64/Linux_for_Tegra/sources/tegra/optee-src/nv-optee/optee/optee_os/lib/libutils/ext/trace.c:216
    67c0:	f9408260 	ldr	x0, [x19, #256]
/home/ssysarch/Desktop/nick/jetpack_5/Jetson_Linux_R35.4.1_aarch64/Linux_for_Tegra/sources/tegra/optee-src/nv-optee/optee/optee_os/lib/libutils/ext/trace.c:211
    67c4:	aa0103f5 	mov	x21, x1
/home/ssysarch/Desktop/nick/jetpack_5/Jetson_Linux_R35.4.1_aarch64/Linux_for_Tegra/sources/tegra/optee-src/nv-optee/optee/optee_os/lib/libutils/ext/trace.c:216
    67c8:	b5000040 	cbnz	x0, 67d0 <append+0x64>
/home/ssysarch/Desktop/nick/jetpack_5/Jetson_Linux_R35.4.1_aarch64/Linux_for_Tegra/sources/tegra/optee-src/nv-optee/optee/optee_os/lib/libutils/ext/trace.c:217
    67cc:	f9008273 	str	x19, [x19, #256]
/home/ssysarch/Desktop/nick/jetpack_5/Jetson_Linux_R35.4.1_aarch64/Linux_for_Tegra/sources/tegra/optee-src/nv-optee/optee/optee_os/lib/libutils/ext/trace.c:219
    67d0:	9104c3e0 	add	x0, sp, #0x130
/home/ssysarch/Desktop/nick/jetpack_5/Jetson_Linux_R35.4.1_aarch64/Linux_for_Tegra/sources/tegra/optee-src/nv-optee/optee/optee_os/lib/libutils/ext/trace.c:220
    67d4:	9100c3e3 	add	x3, sp, #0x30
/home/ssysarch/Desktop/nick/jetpack_5/Jetson_Linux_R35.4.1_aarch64/Linux_for_Tegra/sources/tegra/optee-src/nv-optee/optee/optee_os/lib/libutils/ext/trace.c:219
    67d8:	a90583e0 	stp	x0, x0, [sp, #88]
    67dc:	910403e0 	add	x0, sp, #0x100
/home/ssysarch/Desktop/nick/jetpack_5/Jetson_Linux_R35.4.1_aarch64/Linux_for_Tegra/sources/tegra/optee-src/nv-optee/optee/optee_os/lib/libutils/ext/trace.c:220
    67e0:	910163e1 	add	x1, sp, #0x58
/home/ssysarch/Desktop/nick/jetpack_5/Jetson_Linux_R35.4.1_aarch64/Linux_for_Tegra/sources/tegra/optee-src/nv-optee/optee/optee_os/lib/libutils/ext/trace.c:219
    67e4:	f90037e0 	str	x0, [sp, #104]
    67e8:	128005e0 	mov	w0, #0xffffffd0            	// #-48
    67ec:	b90073e0 	str	w0, [sp, #112]
    67f0:	12800fe0 	mov	w0, #0xffffff80            	// #-128
/home/ssysarch/Desktop/nick/jetpack_5/Jetson_Linux_R35.4.1_aarch64/Linux_for_Tegra/sources/tegra/optee-src/nv-optee/optee/optee_os/lib/libutils/ext/trace.c:218
    67f4:	f9408274 	ldr	x20, [x19, #256]
/home/ssysarch/Desktop/nick/jetpack_5/Jetson_Linux_R35.4.1_aarch64/Linux_for_Tegra/sources/tegra/optee-src/nv-optee/optee/optee_os/lib/libutils/ext/trace.c:220
    67f8:	d2800402 	mov	x2, #0x20                  	// #32
/home/ssysarch/Desktop/nick/jetpack_5/Jetson_Linux_R35.4.1_aarch64/Linux_for_Tegra/sources/tegra/optee-src/nv-optee/optee/optee_os/lib/libutils/ext/trace.c:219
    67fc:	b90077e0 	str	w0, [sp, #116]
/home/ssysarch/Desktop/nick/jetpack_5/Jetson_Linux_R35.4.1_aarch64/Linux_for_Tegra/sources/tegra/optee-src/nv-optee/optee/optee_os/lib/libutils/ext/trace.c:220
    6800:	aa0303e0 	mov	x0, x3
    6804:	97fffd93 	bl	5e50 <memcpy@plt>
    6808:	aa0003e3 	mov	x3, x0
    680c:	f9408260 	ldr	x0, [x19, #256]
/home/ssysarch/Desktop/nick/jetpack_5/Jetson_Linux_R35.4.1_aarch64/Linux_for_Tegra/sources/tegra/optee-src/nv-optee/optee/optee_os/lib/libutils/ext/trace.c:218
    6810:	4b140274 	sub	w20, w19, w20
    6814:	11040294 	add	w20, w20, #0x100
/home/ssysarch/Desktop/nick/jetpack_5/Jetson_Linux_R35.4.1_aarch64/Linux_for_Tegra/sources/tegra/optee-src/nv-optee/optee/optee_os/lib/libutils/ext/trace.c:220
    6818:	aa1503e2 	mov	x2, x21
    681c:	93407e81 	sxtw	x1, w20
    6820:	97fffd54 	bl	5d70 <vsnprintk@plt>
/home/ssysarch/Desktop/nick/jetpack_5/Jetson_Linux_R35.4.1_aarch64/Linux_for_Tegra/sources/tegra/optee-src/nv-optee/optee/optee_os/lib/libutils/ext/trace.c:222
    6824:	37f801e0 	tbnz	w0, #31, 6860 <append+0xf4>
/home/ssysarch/Desktop/nick/jetpack_5/Jetson_Linux_R35.4.1_aarch64/Linux_for_Tegra/sources/tegra/optee-src/nv-optee/optee/optee_os/lib/libutils/ext/trace.c:226
    6828:	6b00029f 	cmp	w20, w0
    682c:	540001ad 	b.le	6860 <append+0xf4>
/home/ssysarch/Desktop/nick/jetpack_5/Jetson_Linux_R35.4.1_aarch64/Linux_for_Tegra/sources/tegra/optee-src/nv-optee/optee/optee_os/lib/libutils/ext/trace.c:230
    6830:	f9408261 	ldr	x1, [x19, #256]
    6834:	8b20c020 	add	x0, x1, w0, sxtw
    6838:	f9008260 	str	x0, [x19, #256]
/home/ssysarch/Desktop/nick/jetpack_5/Jetson_Linux_R35.4.1_aarch64/Linux_for_Tegra/sources/tegra/optee-src/nv-optee/optee/optee_os/lib/libutils/ext/trace.c:231
    683c:	52800020 	mov	w0, #0x1                   	// #1
/home/ssysarch/Desktop/nick/jetpack_5/Jetson_Linux_R35.4.1_aarch64/Linux_for_Tegra/sources/tegra/optee-src/nv-optee/optee/optee_os/lib/libutils/ext/trace.c:232
    6840:	d0000082 	adrp	x2, 18000 <__func__.3717+0x3b64>
    6844:	f947a042 	ldr	x2, [x2, #3904]
    6848:	f9403fe1 	ldr	x1, [sp, #120]
    684c:	f9400043 	ldr	x3, [x2]
    6850:	eb030021 	subs	x1, x1, x3
    6854:	d2800003 	mov	x3, #0x0                   	// #0
    6858:	54000080 	b.eq	6868 <append+0xfc>  // b.none
    685c:	97fffde9 	bl	6000 <__stack_chk_fail@plt>
/home/ssysarch/Desktop/nick/jetpack_5/Jetson_Linux_R35.4.1_aarch64/Linux_for_Tegra/sources/tegra/optee-src/nv-optee/optee/optee_os/lib/libutils/ext/trace.c:224
    6860:	52800000 	mov	w0, #0x0                   	// #0
    6864:	17fffff7 	b	6840 <append+0xd4>
/home/ssysarch/Desktop/nick/jetpack_5/Jetson_Linux_R35.4.1_aarch64/Linux_for_Tegra/sources/tegra/optee-src/nv-optee/optee/optee_os/lib/libutils/ext/trace.c:232
    6868:	a94153f3 	ldp	x19, x20, [sp, #16]
    686c:	f94013f5 	ldr	x21, [sp, #32]
    6870:	a8d37bfd 	ldp	x29, x30, [sp], #304
    6874:	d65f03c0 	ret

0000000000006878 <trace_set_level>:
trace_set_level():
/home/ssysarch/Desktop/nick/jetpack_5/Jetson_Linux_R35.4.1_aarch64/Linux_for_Tegra/sources/tegra/optee-src/nv-optee/optee/optee_os/lib/libutils/ext/trace.c:28
    6878:	7100141f 	cmp	w0, #0x5
    687c:	52800081 	mov	w1, #0x4                   	// #4
    6880:	1a813000 	csel	w0, w0, w1, cc  // cc = lo, ul, last
    6884:	d0000081 	adrp	x1, 18000 <__func__.3717+0x3b64>
    6888:	f947b021 	ldr	x1, [x1, #3936]
    688c:	b9000020 	str	w0, [x1]
/home/ssysarch/Desktop/nick/jetpack_5/Jetson_Linux_R35.4.1_aarch64/Linux_for_Tegra/sources/tegra/optee-src/nv-optee/optee/optee_os/lib/libutils/ext/trace.c:29
    6890:	d65f03c0 	ret

0000000000006894 <trace_get_level>:
trace_get_level():
/home/ssysarch/Desktop/nick/jetpack_5/Jetson_Linux_R35.4.1_aarch64/Linux_for_Tegra/sources/tegra/optee-src/nv-optee/optee/optee_os/lib/libutils/ext/trace.c:33
    6894:	d0000080 	adrp	x0, 18000 <__func__.3717+0x3b64>
/home/ssysarch/Desktop/nick/jetpack_5/Jetson_Linux_R35.4.1_aarch64/Linux_for_Tegra/sources/tegra/optee-src/nv-optee/optee/optee_os/lib/libutils/ext/trace.c:34
    6898:	f947b000 	ldr	x0, [x0, #3936]
    689c:	b9400000 	ldr	w0, [x0]
    68a0:	d65f03c0 	ret

00000000000068a4 <trace_vprintf>:
trace_vprintf():
/home/ssysarch/Desktop/nick/jetpack_5/Jetson_Linux_R35.4.1_aarch64/Linux_for_Tegra/sources/tegra/optee-src/nv-optee/optee/optee_os/lib/libutils/ext/trace.c:113
    68a4:	a9a77bfd 	stp	x29, x30, [sp, #-400]!
    68a8:	910003fd 	mov	x29, sp
    68ac:	a9046bf9 	stp	x25, x26, [sp, #64]
    68b0:	2a0103f9 	mov	w25, w1
    68b4:	d0000081 	adrp	x1, 18000 <__func__.3717+0x3b64>
    68b8:	a9025bf5 	stp	x21, x22, [sp, #32]
    68bc:	aa0003f6 	mov	x22, x0
    68c0:	aa0103f5 	mov	x21, x1
    68c4:	f947a020 	ldr	x0, [x1, #3904]
    68c8:	a90153f3 	stp	x19, x20, [sp, #16]
    68cc:	2a0203f3 	mov	w19, w2
    68d0:	f9400002 	ldr	x2, [x0]
    68d4:	f900c7e2 	str	x2, [sp, #392]
    68d8:	d2800002 	mov	x2, #0x0                   	// #0
    68dc:	a90363f7 	stp	x23, x24, [sp, #48]
    68e0:	aa0403f7 	mov	x23, x4
    68e4:	a90573fb 	stp	x27, x28, [sp, #80]
    68e8:	aa0503f8 	mov	x24, x5
/home/ssysarch/Desktop/nick/jetpack_5/Jetson_Linux_R35.4.1_aarch64/Linux_for_Tegra/sources/tegra/optee-src/nv-optee/optee/optee_os/lib/libutils/ext/trace.c:118
    68ec:	72001c7b 	ands	w27, w3, #0xff
    68f0:	54000b20 	b.eq	6a54 <trace_vprintf+0x1b0>  // b.none
/home/ssysarch/Desktop/nick/jetpack_5/Jetson_Linux_R35.4.1_aarch64/Linux_for_Tegra/sources/tegra/optee-src/nv-optee/optee/optee_os/lib/libutils/ext/trace.c:118 (discriminator 1)
    68f4:	f947b020 	ldr	x0, [x1, #3936]
    68f8:	b9400000 	ldr	w0, [x0]
    68fc:	6b13001f 	cmp	w0, w19
    6900:	540009cb 	b.lt	6a38 <trace_vprintf+0x194>  // b.tstop
trace_level_to_string():
/home/ssysarch/Desktop/nick/jetpack_5/Jetson_Linux_R35.4.1_aarch64/Linux_for_Tegra/sources/tegra/optee-src/nv-optee/optee/optee_os/lib/libutils/ext/trace.c:51
    6904:	7100127f 	cmp	w19, #0x4
/home/ssysarch/Desktop/nick/jetpack_5/Jetson_Linux_R35.4.1_aarch64/Linux_for_Tegra/sources/tegra/optee-src/nv-optee/optee/optee_os/lib/libutils/ext/trace.c:54
    6908:	b0000060 	adrp	x0, 13000 <memmove+0x44>
    690c:	910c3c00 	add	x0, x0, #0x30f
/home/ssysarch/Desktop/nick/jetpack_5/Jetson_Linux_R35.4.1_aarch64/Linux_for_Tegra/sources/tegra/optee-src/nv-optee/optee/optee_os/lib/libutils/ext/trace.c:51
    6910:	1a9f9261 	csel	w1, w19, wzr, ls  // ls = plast
/home/ssysarch/Desktop/nick/jetpack_5/Jetson_Linux_R35.4.1_aarch64/Linux_for_Tegra/sources/tegra/optee-src/nv-optee/optee/optee_os/lib/libutils/ext/trace.c:54
    6914:	3861c803 	ldrb	w3, [x0, w1, sxtw]
trace_vprintf():
/home/ssysarch/Desktop/nick/jetpack_5/Jetson_Linux_R35.4.1_aarch64/Linux_for_Tegra/sources/tegra/optee-src/nv-optee/optee/optee_os/lib/libutils/ext/trace.c:122
    6918:	910223f4 	add	x20, sp, #0x88
    691c:	b0000062 	adrp	x2, 13000 <memmove+0x44>
    6920:	910b5442 	add	x2, x2, #0x2d5
    6924:	aa1403e0 	mov	x0, x20
    6928:	d2802001 	mov	x1, #0x100                 	// #256
    692c:	97fffef1 	bl	64f0 <snprintk@plt>
/home/ssysarch/Desktop/nick/jetpack_5/Jetson_Linux_R35.4.1_aarch64/Linux_for_Tegra/sources/tegra/optee-src/nv-optee/optee/optee_os/lib/libutils/ext/trace.c:124
    6930:	37f80840 	tbnz	w0, #31, 6a38 <trace_vprintf+0x194>
/home/ssysarch/Desktop/nick/jetpack_5/Jetson_Linux_R35.4.1_aarch64/Linux_for_Tegra/sources/tegra/optee-src/nv-optee/optee/optee_os/lib/libutils/ext/trace.c:129
    6934:	f947baa3 	ldr	x3, [x21, #3952]
    6938:	d280201c 	mov	x28, #0x100                 	// #256
/home/ssysarch/Desktop/nick/jetpack_5/Jetson_Linux_R35.4.1_aarch64/Linux_for_Tegra/sources/tegra/optee-src/nv-optee/optee/optee_os/lib/libutils/ext/trace.c:126
    693c:	93407c1a 	sxtw	x26, w0
/home/ssysarch/Desktop/nick/jetpack_5/Jetson_Linux_R35.4.1_aarch64/Linux_for_Tegra/sources/tegra/optee-src/nv-optee/optee/optee_os/lib/libutils/ext/trace.c:129
    6940:	cb20c381 	sub	x1, x28, w0, sxtw
    6944:	b0000062 	adrp	x2, 13000 <memmove+0x44>
    6948:	910b6442 	add	x2, x2, #0x2d9
    694c:	8b20c280 	add	x0, x20, w0, sxtw
    6950:	97fffee8 	bl	64f0 <snprintk@plt>
/home/ssysarch/Desktop/nick/jetpack_5/Jetson_Linux_R35.4.1_aarch64/Linux_for_Tegra/sources/tegra/optee-src/nv-optee/optee/optee_os/lib/libutils/ext/trace.c:131
    6954:	37f80720 	tbnz	w0, #31, 6a38 <trace_vprintf+0x194>
/home/ssysarch/Desktop/nick/jetpack_5/Jetson_Linux_R35.4.1_aarch64/Linux_for_Tegra/sources/tegra/optee-src/nv-optee/optee/optee_os/lib/libutils/ext/trace.c:133
    6958:	8b20c35a 	add	x26, x26, w0, sxtw
/home/ssysarch/Desktop/nick/jetpack_5/Jetson_Linux_R35.4.1_aarch64/Linux_for_Tegra/sources/tegra/optee-src/nv-optee/optee/optee_os/lib/libutils/ext/trace.c:135
    695c:	3400093b 	cbz	w27, 6a80 <trace_vprintf+0x1dc>
/home/ssysarch/Desktop/nick/jetpack_5/Jetson_Linux_R35.4.1_aarch64/Linux_for_Tegra/sources/tegra/optee-src/nv-optee/optee/optee_os/lib/libutils/ext/trace.c:135 (discriminator 1)
    6960:	52800342 	mov	w2, #0x1a                  	// #26
    6964:	1ad32453 	lsr	w19, w2, w19
    6968:	360008d3 	tbz	w19, #0, 6a80 <trace_vprintf+0x1dc>
print_thread_id():
/home/ssysarch/Desktop/nick/jetpack_5/Jetson_Linux_R35.4.1_aarch64/Linux_for_Tegra/sources/tegra/optee-src/nv-optee/optee/optee_os/lib/libutils/ext/trace.c:66
    696c:	97ffff31 	bl	6630 <trace_ext_get_thread_id@plt>
trace_vprintf():
/home/ssysarch/Desktop/nick/jetpack_5/Jetson_Linux_R35.4.1_aarch64/Linux_for_Tegra/sources/tegra/optee-src/nv-optee/optee/optee_os/lib/libutils/ext/trace.c:137
    6970:	8b1a029b 	add	x27, x20, x26
    6974:	cb1a039c 	sub	x28, x28, x26
print_thread_id():
/home/ssysarch/Desktop/nick/jetpack_5/Jetson_Linux_R35.4.1_aarch64/Linux_for_Tegra/sources/tegra/optee-src/nv-optee/optee/optee_os/lib/libutils/ext/trace.c:66
    6978:	2a0003e4 	mov	w4, w0
/home/ssysarch/Desktop/nick/jetpack_5/Jetson_Linux_R35.4.1_aarch64/Linux_for_Tegra/sources/tegra/optee-src/nv-optee/optee/optee_os/lib/libutils/ext/trace.c:68
    697c:	37f80700 	tbnz	w0, #31, 6a5c <trace_vprintf+0x1b8>
/home/ssysarch/Desktop/nick/jetpack_5/Jetson_Linux_R35.4.1_aarch64/Linux_for_Tegra/sources/tegra/optee-src/nv-optee/optee/optee_os/lib/libutils/ext/trace.c:69
    6980:	b0000062 	adrp	x2, 13000 <memmove+0x44>
    6984:	910b7442 	add	x2, x2, #0x2dd
    6988:	aa1c03e1 	mov	x1, x28
    698c:	aa1b03e0 	mov	x0, x27
    6990:	52800043 	mov	w3, #0x2                   	// #2
    6994:	97fffed7 	bl	64f0 <snprintk@plt>
trace_vprintf():
/home/ssysarch/Desktop/nick/jetpack_5/Jetson_Linux_R35.4.1_aarch64/Linux_for_Tegra/sources/tegra/optee-src/nv-optee/optee/optee_os/lib/libutils/ext/trace.c:144
    6998:	37f80500 	tbnz	w0, #31, 6a38 <trace_vprintf+0x194>
/home/ssysarch/Desktop/nick/jetpack_5/Jetson_Linux_R35.4.1_aarch64/Linux_for_Tegra/sources/tegra/optee-src/nv-optee/optee/optee_os/lib/libutils/ext/trace.c:146
    699c:	8b20c353 	add	x19, x26, w0, sxtw
/home/ssysarch/Desktop/nick/jetpack_5/Jetson_Linux_R35.4.1_aarch64/Linux_for_Tegra/sources/tegra/optee-src/nv-optee/optee/optee_os/lib/libutils/ext/trace.c:148
    69a0:	b4000176 	cbz	x22, 69cc <trace_vprintf+0x128>
/home/ssysarch/Desktop/nick/jetpack_5/Jetson_Linux_R35.4.1_aarch64/Linux_for_Tegra/sources/tegra/optee-src/nv-optee/optee/optee_os/lib/libutils/ext/trace.c:149
    69a4:	b0000062 	adrp	x2, 13000 <memmove+0x44>
    69a8:	910ba042 	add	x2, x2, #0x2e8
    69ac:	d2802001 	mov	x1, #0x100                 	// #256
    69b0:	2a1903e4 	mov	w4, w25
    69b4:	aa1603e3 	mov	x3, x22
    69b8:	cb130021 	sub	x1, x1, x19
    69bc:	8b130280 	add	x0, x20, x19
    69c0:	97fffecc 	bl	64f0 <snprintk@plt>
/home/ssysarch/Desktop/nick/jetpack_5/Jetson_Linux_R35.4.1_aarch64/Linux_for_Tegra/sources/tegra/optee-src/nv-optee/optee/optee_os/lib/libutils/ext/trace.c:151
    69c4:	37f803a0 	tbnz	w0, #31, 6a38 <trace_vprintf+0x194>
/home/ssysarch/Desktop/nick/jetpack_5/Jetson_Linux_R35.4.1_aarch64/Linux_for_Tegra/sources/tegra/optee-src/nv-optee/optee/optee_os/lib/libutils/ext/trace.c:153
    69c8:	8b20c273 	add	x19, x19, w0, sxtw
/home/ssysarch/Desktop/nick/jetpack_5/Jetson_Linux_R35.4.1_aarch64/Linux_for_Tegra/sources/tegra/optee-src/nv-optee/optee/optee_os/lib/libutils/ext/trace.c:163
    69cc:	910183e3 	add	x3, sp, #0x60
    69d0:	aa1803e1 	mov	x1, x24
    69d4:	aa0303e0 	mov	x0, x3
    69d8:	d2800402 	mov	x2, #0x20                  	// #32
    69dc:	97fffd1d 	bl	5e50 <memcpy@plt>
    69e0:	aa0003e3 	mov	x3, x0
    69e4:	aa1703e2 	mov	x2, x23
    69e8:	8b130280 	add	x0, x20, x19
    69ec:	d2802001 	mov	x1, #0x100                 	// #256
    69f0:	cb130021 	sub	x1, x1, x19
    69f4:	97fffcdf 	bl	5d70 <vsnprintk@plt>
/home/ssysarch/Desktop/nick/jetpack_5/Jetson_Linux_R35.4.1_aarch64/Linux_for_Tegra/sources/tegra/optee-src/nv-optee/optee/optee_os/lib/libutils/ext/trace.c:164
    69f8:	7100001f 	cmp	w0, #0x0
    69fc:	5400004d 	b.le	6a04 <trace_vprintf+0x160>
/home/ssysarch/Desktop/nick/jetpack_5/Jetson_Linux_R35.4.1_aarch64/Linux_for_Tegra/sources/tegra/optee-src/nv-optee/optee/optee_os/lib/libutils/ext/trace.c:165
    6a00:	8b20c273 	add	x19, x19, w0, sxtw
/home/ssysarch/Desktop/nick/jetpack_5/Jetson_Linux_R35.4.1_aarch64/Linux_for_Tegra/sources/tegra/optee-src/nv-optee/optee/optee_os/lib/libutils/ext/trace.c:167
    6a04:	f103fa7f 	cmp	x19, #0xfe
    6a08:	d2801fc0 	mov	x0, #0xfe                  	// #254
    6a0c:	9a809273 	csel	x19, x19, x0, ls  // ls = plast
/home/ssysarch/Desktop/nick/jetpack_5/Jetson_Linux_R35.4.1_aarch64/Linux_for_Tegra/sources/tegra/optee-src/nv-optee/optee/optee_os/lib/libutils/ext/trace.c:170
    6a10:	52800140 	mov	w0, #0xa                   	// #10
    6a14:	38336a80 	strb	w0, [x20, x19]
/home/ssysarch/Desktop/nick/jetpack_5/Jetson_Linux_R35.4.1_aarch64/Linux_for_Tegra/sources/tegra/optee-src/nv-optee/optee/optee_os/lib/libutils/ext/trace.c:171
    6a18:	b4000093 	cbz	x19, 6a28 <trace_vprintf+0x184>
/home/ssysarch/Desktop/nick/jetpack_5/Jetson_Linux_R35.4.1_aarch64/Linux_for_Tegra/sources/tegra/optee-src/nv-optee/optee/optee_os/lib/libutils/ext/trace.c:171 (discriminator 1)
    6a1c:	38736a80 	ldrb	w0, [x20, x19]
    6a20:	7100281f 	cmp	w0, #0xa
    6a24:	540003c0 	b.eq	6a9c <trace_vprintf+0x1f8>  // b.none
/home/ssysarch/Desktop/nick/jetpack_5/Jetson_Linux_R35.4.1_aarch64/Linux_for_Tegra/sources/tegra/optee-src/nv-optee/optee/optee_os/lib/libutils/ext/trace.c:174
    6a28:	91022be0 	add	x0, sp, #0x8a
    6a2c:	3833681f 	strb	wzr, [x0, x19]
/home/ssysarch/Desktop/nick/jetpack_5/Jetson_Linux_R35.4.1_aarch64/Linux_for_Tegra/sources/tegra/optee-src/nv-optee/optee/optee_os/lib/libutils/ext/trace.c:176
    6a30:	aa1403e0 	mov	x0, x20
    6a34:	97fffef7 	bl	6610 <trace_ext_puts@plt>
/home/ssysarch/Desktop/nick/jetpack_5/Jetson_Linux_R35.4.1_aarch64/Linux_for_Tegra/sources/tegra/optee-src/nv-optee/optee/optee_os/lib/libutils/ext/trace.c:177
    6a38:	f947a2b5 	ldr	x21, [x21, #3904]
    6a3c:	f940c7e0 	ldr	x0, [sp, #392]
    6a40:	f94002a1 	ldr	x1, [x21]
    6a44:	eb010000 	subs	x0, x0, x1
    6a48:	d2800001 	mov	x1, #0x0                   	// #0
    6a4c:	540002c0 	b.eq	6aa4 <trace_vprintf+0x200>  // b.none
    6a50:	97fffd6c 	bl	6000 <__stack_chk_fail@plt>
trace_level_to_string():
/home/ssysarch/Desktop/nick/jetpack_5/Jetson_Linux_R35.4.1_aarch64/Linux_for_Tegra/sources/tegra/optee-src/nv-optee/optee/optee_os/lib/libutils/ext/trace.c:49
    6a54:	528009a3 	mov	w3, #0x4d                  	// #77
    6a58:	17ffffb0 	b	6918 <trace_vprintf+0x74>
print_thread_id():
/home/ssysarch/Desktop/nick/jetpack_5/Jetson_Linux_R35.4.1_aarch64/Linux_for_Tegra/sources/tegra/optee-src/nv-optee/optee/optee_os/lib/libutils/ext/trace.c:71
    6a5c:	aa1c03e1 	mov	x1, x28
    6a60:	aa1b03e0 	mov	x0, x27
    6a64:	b0000064 	adrp	x4, 13000 <memmove+0x44>
    6a68:	91379884 	add	x4, x4, #0xde6
    6a6c:	52800043 	mov	w3, #0x2                   	// #2
    6a70:	b0000062 	adrp	x2, 13000 <memmove+0x44>
    6a74:	910b8c42 	add	x2, x2, #0x2e3
    6a78:	97fffe9e 	bl	64f0 <snprintk@plt>
    6a7c:	17ffffc7 	b	6998 <trace_vprintf+0xf4>
trace_vprintf():
/home/ssysarch/Desktop/nick/jetpack_5/Jetson_Linux_R35.4.1_aarch64/Linux_for_Tegra/sources/tegra/optee-src/nv-optee/optee/optee_os/lib/libutils/ext/trace.c:157
    6a80:	f103fb5f 	cmp	x26, #0xfe
    6a84:	54fffda8 	b.hi	6a38 <trace_vprintf+0x194>  // b.pmore
/home/ssysarch/Desktop/nick/jetpack_5/Jetson_Linux_R35.4.1_aarch64/Linux_for_Tegra/sources/tegra/optee-src/nv-optee/optee/optee_os/lib/libutils/ext/trace.c:159
    6a88:	91000753 	add	x19, x26, #0x1
    6a8c:	52800400 	mov	w0, #0x20                  	// #32
    6a90:	383a6a80 	strb	w0, [x20, x26]
/home/ssysarch/Desktop/nick/jetpack_5/Jetson_Linux_R35.4.1_aarch64/Linux_for_Tegra/sources/tegra/optee-src/nv-optee/optee/optee_os/lib/libutils/ext/trace.c:160
    6a94:	38336a9f 	strb	wzr, [x20, x19]
    6a98:	17ffffcd 	b	69cc <trace_vprintf+0x128>
/home/ssysarch/Desktop/nick/jetpack_5/Jetson_Linux_R35.4.1_aarch64/Linux_for_Tegra/sources/tegra/optee-src/nv-optee/optee/optee_os/lib/libutils/ext/trace.c:172
    6a9c:	d1000673 	sub	x19, x19, #0x1
    6aa0:	17ffffde 	b	6a18 <trace_vprintf+0x174>
/home/ssysarch/Desktop/nick/jetpack_5/Jetson_Linux_R35.4.1_aarch64/Linux_for_Tegra/sources/tegra/optee-src/nv-optee/optee/optee_os/lib/libutils/ext/trace.c:177
    6aa4:	a94153f3 	ldp	x19, x20, [sp, #16]
    6aa8:	a9425bf5 	ldp	x21, x22, [sp, #32]
    6aac:	a94363f7 	ldp	x23, x24, [sp, #48]
    6ab0:	a9446bf9 	ldp	x25, x26, [sp, #64]
    6ab4:	a94573fb 	ldp	x27, x28, [sp, #80]
    6ab8:	a8d97bfd 	ldp	x29, x30, [sp], #400
    6abc:	d65f03c0 	ret

0000000000006ac0 <trace_printf>:
trace_printf():
/home/ssysarch/Desktop/nick/jetpack_5/Jetson_Linux_R35.4.1_aarch64/Linux_for_Tegra/sources/tegra/optee-src/nv-optee/optee/optee_os/lib/libutils/ext/trace.c:104
    6ac0:	a9ad7bfd 	stp	x29, x30, [sp, #-304]!
    6ac4:	910003fd 	mov	x29, sp
    6ac8:	a90153f3 	stp	x19, x20, [sp, #16]
    6acc:	d0000093 	adrp	x19, 18000 <__func__.3717+0x3b64>
    6ad0:	aa0003f4 	mov	x20, x0
    6ad4:	f947a273 	ldr	x19, [x19, #3904]
    6ad8:	3d8027e0 	str	q0, [sp, #144]
    6adc:	3d802be1 	str	q1, [sp, #160]
    6ae0:	3d802fe2 	str	q2, [sp, #176]
    6ae4:	3d8033e3 	str	q3, [sp, #192]
    6ae8:	3d8037e4 	str	q4, [sp, #208]
    6aec:	3d803be5 	str	q5, [sp, #224]
    6af0:	3d803fe6 	str	q6, [sp, #240]
    6af4:	3d8043e7 	str	q7, [sp, #256]
    6af8:	a9119be5 	stp	x5, x6, [sp, #280]
/home/ssysarch/Desktop/nick/jetpack_5/Jetson_Linux_R35.4.1_aarch64/Linux_for_Tegra/sources/tegra/optee-src/nv-optee/optee/optee_os/lib/libutils/ext/trace.c:108
    6afc:	910103e5 	add	x5, sp, #0x40
/home/ssysarch/Desktop/nick/jetpack_5/Jetson_Linux_R35.4.1_aarch64/Linux_for_Tegra/sources/tegra/optee-src/nv-optee/optee/optee_os/lib/libutils/ext/trace.c:104
    6b00:	f90097e7 	str	x7, [sp, #296]
    6b04:	a9025bf5 	stp	x21, x22, [sp, #32]
    6b08:	2a0103f5 	mov	w21, w1
    6b0c:	f9400260 	ldr	x0, [x19]
    6b10:	f90047e0 	str	x0, [sp, #136]
    6b14:	d2800000 	mov	x0, #0x0                   	// #0
/home/ssysarch/Desktop/nick/jetpack_5/Jetson_Linux_R35.4.1_aarch64/Linux_for_Tegra/sources/tegra/optee-src/nv-optee/optee/optee_os/lib/libutils/ext/trace.c:107
    6b18:	9104c3e0 	add	x0, sp, #0x130
    6b1c:	a90683e0 	stp	x0, x0, [sp, #104]
    6b20:	910443e0 	add	x0, sp, #0x110
    6b24:	f9003fe0 	str	x0, [sp, #120]
    6b28:	128002e0 	mov	w0, #0xffffffe8            	// #-24
    6b2c:	b90083e0 	str	w0, [sp, #128]
    6b30:	12800fe0 	mov	w0, #0xffffff80            	// #-128
/home/ssysarch/Desktop/nick/jetpack_5/Jetson_Linux_R35.4.1_aarch64/Linux_for_Tegra/sources/tegra/optee-src/nv-optee/optee/optee_os/lib/libutils/ext/trace.c:104
    6b34:	2a0203f6 	mov	w22, w2
/home/ssysarch/Desktop/nick/jetpack_5/Jetson_Linux_R35.4.1_aarch64/Linux_for_Tegra/sources/tegra/optee-src/nv-optee/optee/optee_os/lib/libutils/ext/trace.c:108
    6b38:	9101a3e1 	add	x1, sp, #0x68
    6b3c:	d2800402 	mov	x2, #0x20                  	// #32
/home/ssysarch/Desktop/nick/jetpack_5/Jetson_Linux_R35.4.1_aarch64/Linux_for_Tegra/sources/tegra/optee-src/nv-optee/optee/optee_os/lib/libutils/ext/trace.c:104
    6b40:	a90363f7 	stp	x23, x24, [sp, #48]
    6b44:	12001c78 	and	w24, w3, #0xff
    6b48:	aa0403f7 	mov	x23, x4
/home/ssysarch/Desktop/nick/jetpack_5/Jetson_Linux_R35.4.1_aarch64/Linux_for_Tegra/sources/tegra/optee-src/nv-optee/optee/optee_os/lib/libutils/ext/trace.c:107
    6b4c:	b90087e0 	str	w0, [sp, #132]
/home/ssysarch/Desktop/nick/jetpack_5/Jetson_Linux_R35.4.1_aarch64/Linux_for_Tegra/sources/tegra/optee-src/nv-optee/optee/optee_os/lib/libutils/ext/trace.c:108
    6b50:	aa0503e0 	mov	x0, x5
    6b54:	97fffcbf 	bl	5e50 <memcpy@plt>
    6b58:	2a1503e1 	mov	w1, w21
    6b5c:	aa0003e5 	mov	x5, x0
    6b60:	aa1703e4 	mov	x4, x23
    6b64:	aa1403e0 	mov	x0, x20
    6b68:	2a1803e3 	mov	w3, w24
    6b6c:	2a1603e2 	mov	w2, w22
    6b70:	97fffcf4 	bl	5f40 <trace_vprintf@plt>
/home/ssysarch/Desktop/nick/jetpack_5/Jetson_Linux_R35.4.1_aarch64/Linux_for_Tegra/sources/tegra/optee-src/nv-optee/optee/optee_os/lib/libutils/ext/trace.c:110
    6b74:	f94047e0 	ldr	x0, [sp, #136]
    6b78:	f9400261 	ldr	x1, [x19]
    6b7c:	eb010000 	subs	x0, x0, x1
    6b80:	d2800001 	mov	x1, #0x0                   	// #0
    6b84:	54000040 	b.eq	6b8c <trace_printf+0xcc>  // b.none
    6b88:	97fffd1e 	bl	6000 <__stack_chk_fail@plt>
    6b8c:	a94153f3 	ldp	x19, x20, [sp, #16]
    6b90:	a9425bf5 	ldp	x21, x22, [sp, #32]
    6b94:	a94363f7 	ldp	x23, x24, [sp, #48]
    6b98:	a8d37bfd 	ldp	x29, x30, [sp], #304
    6b9c:	d65f03c0 	ret

0000000000006ba0 <dhex_dump>:
dhex_dump():
/home/ssysarch/Desktop/nick/jetpack_5/Jetson_Linux_R35.4.1_aarch64/Linux_for_Tegra/sources/tegra/optee-src/nv-optee/optee/optee_os/lib/libutils/ext/trace.c:236
    6ba0:	a9a97bfd 	stp	x29, x30, [sp, #-368]!
    6ba4:	d0000085 	adrp	x5, 18000 <__func__.3717+0x3b64>
    6ba8:	910003fd 	mov	x29, sp
    6bac:	a9025bf5 	stp	x21, x22, [sp, #32]
    6bb0:	aa0003f5 	mov	x21, x0
    6bb4:	2a0103f6 	mov	w22, w1
    6bb8:	f947a0a0 	ldr	x0, [x5, #3904]
    6bbc:	a90153f3 	stp	x19, x20, [sp, #16]
/home/ssysarch/Desktop/nick/jetpack_5/Jetson_Linux_R35.4.1_aarch64/Linux_for_Tegra/sources/tegra/optee-src/nv-optee/optee/optee_os/lib/libutils/ext/trace.c:242
    6bc0:	f947b0a5 	ldr	x5, [x5, #3936]
/home/ssysarch/Desktop/nick/jetpack_5/Jetson_Linux_R35.4.1_aarch64/Linux_for_Tegra/sources/tegra/optee-src/nv-optee/optee/optee_os/lib/libutils/ext/trace.c:236
    6bc4:	f9400001 	ldr	x1, [x0]
    6bc8:	f900b7e1 	str	x1, [sp, #360]
    6bcc:	d2800001 	mov	x1, #0x0                   	// #0
    6bd0:	a90363f7 	stp	x23, x24, [sp, #48]
/home/ssysarch/Desktop/nick/jetpack_5/Jetson_Linux_R35.4.1_aarch64/Linux_for_Tegra/sources/tegra/optee-src/nv-optee/optee/optee_os/lib/libutils/ext/trace.c:242
    6bd4:	b94000a0 	ldr	w0, [x5]
/home/ssysarch/Desktop/nick/jetpack_5/Jetson_Linux_R35.4.1_aarch64/Linux_for_Tegra/sources/tegra/optee-src/nv-optee/optee/optee_os/lib/libutils/ext/trace.c:236
    6bd8:	a9046bf9 	stp	x25, x26, [sp, #64]
/home/ssysarch/Desktop/nick/jetpack_5/Jetson_Linux_R35.4.1_aarch64/Linux_for_Tegra/sources/tegra/optee-src/nv-optee/optee/optee_os/lib/libutils/ext/trace.c:242
    6bdc:	6b02001f 	cmp	w0, w2
/home/ssysarch/Desktop/nick/jetpack_5/Jetson_Linux_R35.4.1_aarch64/Linux_for_Tegra/sources/tegra/optee-src/nv-optee/optee/optee_os/lib/libutils/ext/trace.c:236
    6be0:	a90573fb 	stp	x27, x28, [sp, #80]
/home/ssysarch/Desktop/nick/jetpack_5/Jetson_Linux_R35.4.1_aarch64/Linux_for_Tegra/sources/tegra/optee-src/nv-optee/optee/optee_os/lib/libutils/ext/trace.c:242
    6be4:	5400030b 	b.lt	6c44 <dhex_dump+0xa4>  // b.tstop
/home/ssysarch/Desktop/nick/jetpack_5/Jetson_Linux_R35.4.1_aarch64/Linux_for_Tegra/sources/tegra/optee-src/nv-optee/optee/optee_os/lib/libutils/ext/trace.c:246
    6be8:	b000007a 	adrp	x26, 13000 <memmove+0x44>
    6bec:	910bd75a 	add	x26, x26, #0x2f5
/home/ssysarch/Desktop/nick/jetpack_5/Jetson_Linux_R35.4.1_aarch64/Linux_for_Tegra/sources/tegra/optee-src/nv-optee/optee/optee_os/lib/libutils/ext/trace.c:251
    6bf0:	b000007b 	adrp	x27, 13000 <memmove+0x44>
    6bf4:	910bbf7b 	add	x27, x27, #0x2ef
    6bf8:	2a0203f4 	mov	w20, w2
    6bfc:	aa0303f8 	mov	x24, x3
    6c00:	2a0403f9 	mov	w25, w4
/home/ssysarch/Desktop/nick/jetpack_5/Jetson_Linux_R35.4.1_aarch64/Linux_for_Tegra/sources/tegra/optee-src/nv-optee/optee/optee_os/lib/libutils/ext/trace.c:243
    6c04:	910183f7 	add	x23, sp, #0x60
/home/ssysarch/Desktop/nick/jetpack_5/Jetson_Linux_R35.4.1_aarch64/Linux_for_Tegra/sources/tegra/optee-src/nv-optee/optee/optee_os/lib/libutils/ext/trace.c:244
    6c08:	d2800013 	mov	x19, #0x0                   	// #0
/home/ssysarch/Desktop/nick/jetpack_5/Jetson_Linux_R35.4.1_aarch64/Linux_for_Tegra/sources/tegra/optee-src/nv-optee/optee/optee_os/lib/libutils/ext/trace.c:243
    6c0c:	f900b3ff 	str	xzr, [sp, #352]
/home/ssysarch/Desktop/nick/jetpack_5/Jetson_Linux_R35.4.1_aarch64/Linux_for_Tegra/sources/tegra/optee-src/nv-optee/optee/optee_os/lib/libutils/ext/trace.c:244
    6c10:	2a1303fc 	mov	w28, w19
/home/ssysarch/Desktop/nick/jetpack_5/Jetson_Linux_R35.4.1_aarch64/Linux_for_Tegra/sources/tegra/optee-src/nv-optee/optee/optee_os/lib/libutils/ext/trace.c:244 (discriminator 1)
    6c14:	6b13033f 	cmp	w25, w19
    6c18:	5400026c 	b.gt	6c64 <dhex_dump+0xc4>
/home/ssysarch/Desktop/nick/jetpack_5/Jetson_Linux_R35.4.1_aarch64/Linux_for_Tegra/sources/tegra/optee-src/nv-optee/optee/optee_os/lib/libutils/ext/trace.c:264
    6c1c:	f940b3e0 	ldr	x0, [sp, #352]
    6c20:	b4000120 	cbz	x0, 6c44 <dhex_dump+0xa4>
/home/ssysarch/Desktop/nick/jetpack_5/Jetson_Linux_R35.4.1_aarch64/Linux_for_Tegra/sources/tegra/optee-src/nv-optee/optee/optee_os/lib/libutils/ext/trace.c:266
    6c24:	b0000064 	adrp	x4, 13000 <memmove+0x44>
    6c28:	910bf484 	add	x4, x4, #0x2fd
    6c2c:	910183e5 	add	x5, sp, #0x60
    6c30:	2a1403e2 	mov	w2, w20
    6c34:	2a1603e1 	mov	w1, w22
    6c38:	aa1503e0 	mov	x0, x21
    6c3c:	52800023 	mov	w3, #0x1                   	// #1
    6c40:	97fffc7c 	bl	5e30 <trace_printf@plt>
/home/ssysarch/Desktop/nick/jetpack_5/Jetson_Linux_R35.4.1_aarch64/Linux_for_Tegra/sources/tegra/optee-src/nv-optee/optee/optee_os/lib/libutils/ext/trace.c:274
    6c44:	d0000085 	adrp	x5, 18000 <__func__.3717+0x3b64>
    6c48:	f947a0a5 	ldr	x5, [x5, #3904]
    6c4c:	f940b7e0 	ldr	x0, [sp, #360]
    6c50:	f94000a1 	ldr	x1, [x5]
    6c54:	eb010000 	subs	x0, x0, x1
    6c58:	d2800001 	mov	x1, #0x0                   	// #0
    6c5c:	54000600 	b.eq	6d1c <dhex_dump+0x17c>  // b.none
    6c60:	97fffce8 	bl	6000 <__stack_chk_fail@plt>
/home/ssysarch/Desktop/nick/jetpack_5/Jetson_Linux_R35.4.1_aarch64/Linux_for_Tegra/sources/tegra/optee-src/nv-optee/optee/optee_os/lib/libutils/ext/trace.c:245
    6c64:	f2400e7f 	tst	x19, #0xf
    6c68:	54000200 	b.eq	6ca8 <dhex_dump+0x108>  // b.none
/home/ssysarch/Desktop/nick/jetpack_5/Jetson_Linux_R35.4.1_aarch64/Linux_for_Tegra/sources/tegra/optee-src/nv-optee/optee/optee_os/lib/libutils/ext/trace.c:251
    6c6c:	38736b02 	ldrb	w2, [x24, x19]
    6c70:	aa1b03e1 	mov	x1, x27
    6c74:	aa1703e0 	mov	x0, x23
    6c78:	97fffebd 	bl	676c <append>
/home/ssysarch/Desktop/nick/jetpack_5/Jetson_Linux_R35.4.1_aarch64/Linux_for_Tegra/sources/tegra/optee-src/nv-optee/optee/optee_os/lib/libutils/ext/trace.c:252
    6c7c:	35000240 	cbnz	w0, 6cc4 <dhex_dump+0x124>
/home/ssysarch/Desktop/nick/jetpack_5/Jetson_Linux_R35.4.1_aarch64/Linux_for_Tegra/sources/tegra/optee-src/nv-optee/optee/optee_os/lib/libutils/ext/trace.c:273
    6c80:	b0000060 	adrp	x0, 13000 <memmove+0x44>
    6c84:	910c3c00 	add	x0, x0, #0x30f
    6c88:	91001400 	add	x0, x0, #0x5
    6c8c:	b0000064 	adrp	x4, 13000 <memmove+0x44>
    6c90:	910c0084 	add	x4, x4, #0x300
    6c94:	52800023 	mov	w3, #0x1                   	// #1
    6c98:	52800062 	mov	w2, #0x3                   	// #3
    6c9c:	52802221 	mov	w1, #0x111                 	// #273
    6ca0:	97fffc64 	bl	5e30 <trace_printf@plt>
    6ca4:	17ffffe8 	b	6c44 <dhex_dump+0xa4>
/home/ssysarch/Desktop/nick/jetpack_5/Jetson_Linux_R35.4.1_aarch64/Linux_for_Tegra/sources/tegra/optee-src/nv-optee/optee/optee_os/lib/libutils/ext/trace.c:246
    6ca8:	8b130303 	add	x3, x24, x19
    6cac:	aa1a03e1 	mov	x1, x26
    6cb0:	aa1703e0 	mov	x0, x23
    6cb4:	52800202 	mov	w2, #0x10                  	// #16
    6cb8:	97fffead 	bl	676c <append>
/home/ssysarch/Desktop/nick/jetpack_5/Jetson_Linux_R35.4.1_aarch64/Linux_for_Tegra/sources/tegra/optee-src/nv-optee/optee/optee_os/lib/libutils/ext/trace.c:248
    6cbc:	35fffd80 	cbnz	w0, 6c6c <dhex_dump+0xcc>
    6cc0:	17fffff0 	b	6c80 <dhex_dump+0xe0>
/home/ssysarch/Desktop/nick/jetpack_5/Jetson_Linux_R35.4.1_aarch64/Linux_for_Tegra/sources/tegra/optee-src/nv-optee/optee/optee_os/lib/libutils/ext/trace.c:254
    6cc4:	12000f80 	and	w0, w28, #0xf
    6cc8:	71001c1f 	cmp	w0, #0x7
    6ccc:	54000101 	b.ne	6cec <dhex_dump+0x14c>  // b.any
/home/ssysarch/Desktop/nick/jetpack_5/Jetson_Linux_R35.4.1_aarch64/Linux_for_Tegra/sources/tegra/optee-src/nv-optee/optee/optee_os/lib/libutils/ext/trace.c:255
    6cd0:	b0000061 	adrp	x1, 13000 <memmove+0x44>
    6cd4:	910bec21 	add	x1, x1, #0x2fb
    6cd8:	aa1703e0 	mov	x0, x23
    6cdc:	97fffea4 	bl	676c <append>
/home/ssysarch/Desktop/nick/jetpack_5/Jetson_Linux_R35.4.1_aarch64/Linux_for_Tegra/sources/tegra/optee-src/nv-optee/optee/optee_os/lib/libutils/ext/trace.c:256
    6ce0:	34fffd00 	cbz	w0, 6c80 <dhex_dump+0xe0>
/home/ssysarch/Desktop/nick/jetpack_5/Jetson_Linux_R35.4.1_aarch64/Linux_for_Tegra/sources/tegra/optee-src/nv-optee/optee/optee_os/lib/libutils/ext/trace.c:244 (discriminator 2)
    6ce4:	91000673 	add	x19, x19, #0x1
    6ce8:	17ffffca 	b	6c10 <dhex_dump+0x70>
/home/ssysarch/Desktop/nick/jetpack_5/Jetson_Linux_R35.4.1_aarch64/Linux_for_Tegra/sources/tegra/optee-src/nv-optee/optee/optee_os/lib/libutils/ext/trace.c:258
    6cec:	71003c1f 	cmp	w0, #0xf
    6cf0:	54ffffa1 	b.ne	6ce4 <dhex_dump+0x144>  // b.any
/home/ssysarch/Desktop/nick/jetpack_5/Jetson_Linux_R35.4.1_aarch64/Linux_for_Tegra/sources/tegra/optee-src/nv-optee/optee/optee_os/lib/libutils/ext/trace.c:259
    6cf4:	aa1703e5 	mov	x5, x23
    6cf8:	2a1403e2 	mov	w2, w20
    6cfc:	2a1603e1 	mov	w1, w22
    6d00:	aa1503e0 	mov	x0, x21
    6d04:	b0000064 	adrp	x4, 13000 <memmove+0x44>
    6d08:	910bf484 	add	x4, x4, #0x2fd
    6d0c:	52800023 	mov	w3, #0x1                   	// #1
    6d10:	97fffc48 	bl	5e30 <trace_printf@plt>
/home/ssysarch/Desktop/nick/jetpack_5/Jetson_Linux_R35.4.1_aarch64/Linux_for_Tegra/sources/tegra/optee-src/nv-optee/optee/optee_os/lib/libutils/ext/trace.c:261
    6d14:	f900b3ff 	str	xzr, [sp, #352]
    6d18:	17fffff3 	b	6ce4 <dhex_dump+0x144>
/home/ssysarch/Desktop/nick/jetpack_5/Jetson_Linux_R35.4.1_aarch64/Linux_for_Tegra/sources/tegra/optee-src/nv-optee/optee/optee_os/lib/libutils/ext/trace.c:274
    6d1c:	a94153f3 	ldp	x19, x20, [sp, #16]
    6d20:	a9425bf5 	ldp	x21, x22, [sp, #32]
    6d24:	a94363f7 	ldp	x23, x24, [sp, #48]
    6d28:	a9446bf9 	ldp	x25, x26, [sp, #64]
    6d2c:	a94573fb 	ldp	x27, x28, [sp, #80]
    6d30:	a8d77bfd 	ldp	x29, x30, [sp], #368
    6d34:	d65f03c0 	ret

0000000000006d38 <__stack_chk_fail>:
__stack_chk_fail():
/home/ssysarch/Desktop/nick/jetpack_5/Jetson_Linux_R35.4.1_aarch64/Linux_for_Tegra/sources/tegra/optee-src/nv-optee/optee/optee_os/lib/libutils/isoc/stack_check.c:24
    6d38:	a9bf7bfd 	stp	x29, x30, [sp, #-16]!
/home/ssysarch/Desktop/nick/jetpack_5/Jetson_Linux_R35.4.1_aarch64/Linux_for_Tegra/sources/tegra/optee-src/nv-optee/optee/optee_os/lib/libutils/isoc/stack_check.c:25
    6d3c:	b0000064 	adrp	x4, 13000 <memmove+0x44>
    6d40:	910c7884 	add	x4, x4, #0x31e
/home/ssysarch/Desktop/nick/jetpack_5/Jetson_Linux_R35.4.1_aarch64/Linux_for_Tegra/sources/tegra/optee-src/nv-optee/optee/optee_os/lib/libutils/isoc/stack_check.c:24
    6d44:	910003fd 	mov	x29, sp
/home/ssysarch/Desktop/nick/jetpack_5/Jetson_Linux_R35.4.1_aarch64/Linux_for_Tegra/sources/tegra/optee-src/nv-optee/optee/optee_os/lib/libutils/isoc/stack_check.c:25
    6d48:	52800023 	mov	w3, #0x1                   	// #1
    6d4c:	52800022 	mov	w2, #0x1                   	// #1
    6d50:	52800001 	mov	w1, #0x0                   	// #0
    6d54:	d2800000 	mov	x0, #0x0                   	// #0
    6d58:	97fffc36 	bl	5e30 <trace_printf@plt>
/home/ssysarch/Desktop/nick/jetpack_5/Jetson_Linux_R35.4.1_aarch64/Linux_for_Tegra/sources/tegra/optee-src/nv-optee/optee/optee_os/lib/libutils/isoc/stack_check.c:27 (discriminator 1)
    6d5c:	1299fe00 	mov	w0, #0xffff300f            	// #-53233
    6d60:	97fffcd4 	bl	60b0 <_utee_panic@plt>
/home/ssysarch/Desktop/nick/jetpack_5/Jetson_Linux_R35.4.1_aarch64/Linux_for_Tegra/sources/tegra/optee-src/nv-optee/optee/optee_os/lib/libutils/isoc/stack_check.c:26 (discriminator 1)
    6d64:	17fffffe 	b	6d5c <__stack_chk_fail+0x24>
    6d68:	d503201f 	nop
    6d6c:	d503201f 	nop

0000000000006d70 <memcpy>:
memcpy():
/home/ssysarch/Desktop/nick/jetpack_5/Jetson_Linux_R35.4.1_aarch64/Linux_for_Tegra/sources/tegra/optee-src/nv-optee/optee/optee_os/lib/libutils/isoc/newlib/memcpy.c:106
    6d70:	f1007c5f 	cmp	x2, #0x1f
    6d74:	54000629 	b.ls	6e38 <memcpy+0xc8>  // b.plast
/home/ssysarch/Desktop/nick/jetpack_5/Jetson_Linux_R35.4.1_aarch64/Linux_for_Tegra/sources/tegra/optee-src/nv-optee/optee/optee_os/lib/libutils/isoc/newlib/memcpy.c:106 (discriminator 1)
    6d78:	aa000025 	orr	x5, x1, x0
    6d7c:	f24008a5 	ands	x5, x5, #0x7
    6d80:	54000641 	b.ne	6e48 <memcpy+0xd8>  // b.any
    6d84:	d1008048 	sub	x8, x2, #0x20
/home/ssysarch/Desktop/nick/jetpack_5/Jetson_Linux_R35.4.1_aarch64/Linux_for_Tegra/sources/tegra/optee-src/nv-optee/optee/optee_os/lib/libutils/isoc/newlib/memcpy.c:108
    6d88:	aa0103e4 	mov	x4, x1
    6d8c:	927be908 	and	x8, x8, #0xffffffffffffffe0
/home/ssysarch/Desktop/nick/jetpack_5/Jetson_Linux_R35.4.1_aarch64/Linux_for_Tegra/sources/tegra/optee-src/nv-optee/optee/optee_os/lib/libutils/isoc/newlib/memcpy.c:107
    6d90:	aa0003e3 	mov	x3, x0
    6d94:	91008108 	add	x8, x8, #0x20
    6d98:	8b080007 	add	x7, x0, x8
    6d9c:	d503201f 	nop
/home/ssysarch/Desktop/nick/jetpack_5/Jetson_Linux_R35.4.1_aarch64/Linux_for_Tegra/sources/tegra/optee-src/nv-optee/optee/optee_os/lib/libutils/isoc/newlib/memcpy.c:112
    6da0:	f9400086 	ldr	x6, [x4]
    6da4:	f9000066 	str	x6, [x3]
/home/ssysarch/Desktop/nick/jetpack_5/Jetson_Linux_R35.4.1_aarch64/Linux_for_Tegra/sources/tegra/optee-src/nv-optee/optee/optee_os/lib/libutils/isoc/newlib/memcpy.c:113
    6da8:	91008084 	add	x4, x4, #0x20
    6dac:	91008063 	add	x3, x3, #0x20
    6db0:	f85e8086 	ldur	x6, [x4, #-24]
    6db4:	f81e8066 	stur	x6, [x3, #-24]
/home/ssysarch/Desktop/nick/jetpack_5/Jetson_Linux_R35.4.1_aarch64/Linux_for_Tegra/sources/tegra/optee-src/nv-optee/optee/optee_os/lib/libutils/isoc/newlib/memcpy.c:114
    6db8:	f85f0086 	ldur	x6, [x4, #-16]
    6dbc:	f81f0066 	stur	x6, [x3, #-16]
/home/ssysarch/Desktop/nick/jetpack_5/Jetson_Linux_R35.4.1_aarch64/Linux_for_Tegra/sources/tegra/optee-src/nv-optee/optee/optee_os/lib/libutils/isoc/newlib/memcpy.c:111
    6dc0:	eb0300ff 	cmp	x7, x3
/home/ssysarch/Desktop/nick/jetpack_5/Jetson_Linux_R35.4.1_aarch64/Linux_for_Tegra/sources/tegra/optee-src/nv-optee/optee/optee_os/lib/libutils/isoc/newlib/memcpy.c:115
    6dc4:	f85f8086 	ldur	x6, [x4, #-8]
    6dc8:	f81f8066 	stur	x6, [x3, #-8]
/home/ssysarch/Desktop/nick/jetpack_5/Jetson_Linux_R35.4.1_aarch64/Linux_for_Tegra/sources/tegra/optee-src/nv-optee/optee/optee_os/lib/libutils/isoc/newlib/memcpy.c:111
    6dcc:	54fffea1 	b.ne	6da0 <memcpy+0x30>  // b.any
    6dd0:	8b080021 	add	x1, x1, x8
/home/ssysarch/Desktop/nick/jetpack_5/Jetson_Linux_R35.4.1_aarch64/Linux_for_Tegra/sources/tegra/optee-src/nv-optee/optee/optee_os/lib/libutils/isoc/newlib/memcpy.c:120
    6dd4:	f27d045f 	tst	x2, #0x18
    6dd8:	92401044 	and	x4, x2, #0x1f
    6ddc:	540003c0 	b.eq	6e54 <memcpy+0xe4>  // b.none
/home/ssysarch/Desktop/nick/jetpack_5/Jetson_Linux_R35.4.1_aarch64/Linux_for_Tegra/sources/tegra/optee-src/nv-optee/optee/optee_os/lib/libutils/isoc/newlib/memcpy.c:121
    6de0:	f8656826 	ldr	x6, [x1, x5]
    6de4:	f8256866 	str	x6, [x3, x5]
/home/ssysarch/Desktop/nick/jetpack_5/Jetson_Linux_R35.4.1_aarch64/Linux_for_Tegra/sources/tegra/optee-src/nv-optee/optee/optee_os/lib/libutils/isoc/newlib/memcpy.c:120
    6de8:	910020a5 	add	x5, x5, #0x8
    6dec:	cb050086 	sub	x6, x4, x5
    6df0:	f1001cdf 	cmp	x6, #0x7
    6df4:	54ffff68 	b.hi	6de0 <memcpy+0x70>  // b.pmore
    6df8:	d1002084 	sub	x4, x4, #0x8
    6dfc:	92400842 	and	x2, x2, #0x7
    6e00:	927df084 	and	x4, x4, #0xfffffffffffffff8
/home/ssysarch/Desktop/nick/jetpack_5/Jetson_Linux_R35.4.1_aarch64/Linux_for_Tegra/sources/tegra/optee-src/nv-optee/optee/optee_os/lib/libutils/isoc/newlib/memcpy.c:130
    6e04:	d1000446 	sub	x6, x2, #0x1
    6e08:	91002084 	add	x4, x4, #0x8
    6e0c:	8b040063 	add	x3, x3, x4
    6e10:	8b040021 	add	x1, x1, x4
    6e14:	b4000102 	cbz	x2, 6e34 <memcpy+0xc4>
/home/ssysarch/Desktop/nick/jetpack_5/Jetson_Linux_R35.4.1_aarch64/Linux_for_Tegra/sources/tegra/optee-src/nv-optee/optee/optee_os/lib/libutils/isoc/newlib/memcpy.c:99
    6e18:	d2800002 	mov	x2, #0x0                   	// #0
    6e1c:	d503201f 	nop
/home/ssysarch/Desktop/nick/jetpack_5/Jetson_Linux_R35.4.1_aarch64/Linux_for_Tegra/sources/tegra/optee-src/nv-optee/optee/optee_os/lib/libutils/isoc/newlib/memcpy.c:131
    6e20:	38626825 	ldrb	w5, [x1, x2]
/home/ssysarch/Desktop/nick/jetpack_5/Jetson_Linux_R35.4.1_aarch64/Linux_for_Tegra/sources/tegra/optee-src/nv-optee/optee/optee_os/lib/libutils/isoc/newlib/memcpy.c:130
    6e24:	eb0200df 	cmp	x6, x2
/home/ssysarch/Desktop/nick/jetpack_5/Jetson_Linux_R35.4.1_aarch64/Linux_for_Tegra/sources/tegra/optee-src/nv-optee/optee/optee_os/lib/libutils/isoc/newlib/memcpy.c:131
    6e28:	38226865 	strb	w5, [x3, x2]
/home/ssysarch/Desktop/nick/jetpack_5/Jetson_Linux_R35.4.1_aarch64/Linux_for_Tegra/sources/tegra/optee-src/nv-optee/optee/optee_os/lib/libutils/isoc/newlib/memcpy.c:130
    6e2c:	91000442 	add	x2, x2, #0x1
    6e30:	54ffff81 	b.ne	6e20 <memcpy+0xb0>  // b.any
/home/ssysarch/Desktop/nick/jetpack_5/Jetson_Linux_R35.4.1_aarch64/Linux_for_Tegra/sources/tegra/optee-src/nv-optee/optee/optee_os/lib/libutils/isoc/newlib/memcpy.c:135
    6e34:	d65f03c0 	ret
/home/ssysarch/Desktop/nick/jetpack_5/Jetson_Linux_R35.4.1_aarch64/Linux_for_Tegra/sources/tegra/optee-src/nv-optee/optee/optee_os/lib/libutils/isoc/newlib/memcpy.c:99
    6e38:	aa0003e3 	mov	x3, x0
/home/ssysarch/Desktop/nick/jetpack_5/Jetson_Linux_R35.4.1_aarch64/Linux_for_Tegra/sources/tegra/optee-src/nv-optee/optee/optee_os/lib/libutils/isoc/newlib/memcpy.c:130
    6e3c:	d1000446 	sub	x6, x2, #0x1
    6e40:	b5fffec2 	cbnz	x2, 6e18 <memcpy+0xa8>
/home/ssysarch/Desktop/nick/jetpack_5/Jetson_Linux_R35.4.1_aarch64/Linux_for_Tegra/sources/tegra/optee-src/nv-optee/optee/optee_os/lib/libutils/isoc/newlib/memcpy.c:135
    6e44:	d65f03c0 	ret
/home/ssysarch/Desktop/nick/jetpack_5/Jetson_Linux_R35.4.1_aarch64/Linux_for_Tegra/sources/tegra/optee-src/nv-optee/optee/optee_os/lib/libutils/isoc/newlib/memcpy.c:130
    6e48:	d1000446 	sub	x6, x2, #0x1
/home/ssysarch/Desktop/nick/jetpack_5/Jetson_Linux_R35.4.1_aarch64/Linux_for_Tegra/sources/tegra/optee-src/nv-optee/optee/optee_os/lib/libutils/isoc/newlib/memcpy.c:99
    6e4c:	aa0003e3 	mov	x3, x0
    6e50:	17fffff2 	b	6e18 <memcpy+0xa8>
/home/ssysarch/Desktop/nick/jetpack_5/Jetson_Linux_R35.4.1_aarch64/Linux_for_Tegra/sources/tegra/optee-src/nv-optee/optee/optee_os/lib/libutils/isoc/newlib/memcpy.c:120
    6e54:	aa0403e2 	mov	x2, x4
    6e58:	17fffff9 	b	6e3c <memcpy+0xcc>

0000000000006e5c <__vsnprintf>:
__vsnprintf():
/home/ssysarch/Desktop/nick/jetpack_5/Jetson_Linux_R35.4.1_aarch64/Linux_for_Tegra/sources/tegra/optee-src/nv-optee/optee/optee_os/lib/libutils/ext/snprintk.c:138
    6e5c:	a9b97bfd 	stp	x29, x30, [sp, #-112]!
    6e60:	d0000085 	adrp	x5, 18000 <__func__.3717+0x3b64>
    6e64:	910003fd 	mov	x29, sp
    6e68:	f947a0a5 	ldr	x5, [x5, #3904]
    6e6c:	a90153f3 	stp	x19, x20, [sp, #16]
    6e70:	aa0003f3 	mov	x19, x0
    6e74:	aa0103f4 	mov	x20, x1
    6e78:	f94000a0 	ldr	x0, [x5]
    6e7c:	f90037e0 	str	x0, [sp, #104]
    6e80:	d2800000 	mov	x0, #0x0                   	// #0
    6e84:	aa0303e1 	mov	x1, x3
/home/ssysarch/Desktop/nick/jetpack_5/Jetson_Linux_R35.4.1_aarch64/Linux_for_Tegra/sources/tegra/optee-src/nv-optee/optee/optee_os/lib/libutils/ext/snprintk.c:143
    6e88:	910103e0 	add	x0, sp, #0x40
/home/ssysarch/Desktop/nick/jetpack_5/Jetson_Linux_R35.4.1_aarch64/Linux_for_Tegra/sources/tegra/optee-src/nv-optee/optee/optee_os/lib/libutils/ext/snprintk.c:138
    6e8c:	a9025bf5 	stp	x21, x22, [sp, #32]
    6e90:	aa0203f5 	mov	x21, x2
/home/ssysarch/Desktop/nick/jetpack_5/Jetson_Linux_R35.4.1_aarch64/Linux_for_Tegra/sources/tegra/optee-src/nv-optee/optee/optee_os/lib/libutils/ext/snprintk.c:142
    6e94:	8b140276 	add	x22, x19, x20
/home/ssysarch/Desktop/nick/jetpack_5/Jetson_Linux_R35.4.1_aarch64/Linux_for_Tegra/sources/tegra/optee-src/nv-optee/optee/optee_os/lib/libutils/ext/snprintk.c:143
    6e98:	d2800402 	mov	x2, #0x20                  	// #32
/home/ssysarch/Desktop/nick/jetpack_5/Jetson_Linux_R35.4.1_aarch64/Linux_for_Tegra/sources/tegra/optee-src/nv-optee/optee/optee_os/lib/libutils/ext/snprintk.c:138
    6e9c:	f9001bf7 	str	x23, [sp, #48]
    6ea0:	12001c97 	and	w23, w4, #0xff
/home/ssysarch/Desktop/nick/jetpack_5/Jetson_Linux_R35.4.1_aarch64/Linux_for_Tegra/sources/tegra/optee-src/nv-optee/optee/optee_os/lib/libutils/ext/snprintk.c:142
    6ea4:	f90033f6 	str	x22, [sp, #96]
/home/ssysarch/Desktop/nick/jetpack_5/Jetson_Linux_R35.4.1_aarch64/Linux_for_Tegra/sources/tegra/optee-src/nv-optee/optee/optee_os/lib/libutils/ext/snprintk.c:143
    6ea8:	97fffbea 	bl	5e50 <memcpy@plt>
    6eac:	aa0003e3 	mov	x3, x0
    6eb0:	2a1703e4 	mov	w4, w23
    6eb4:	aa1303e2 	mov	x2, x19
    6eb8:	910183e1 	add	x1, sp, #0x60
    6ebc:	aa1503e0 	mov	x0, x21
    6ec0:	94000060 	bl	7040 <kprintf.constprop.0>
/home/ssysarch/Desktop/nick/jetpack_5/Jetson_Linux_R35.4.1_aarch64/Linux_for_Tegra/sources/tegra/optee-src/nv-optee/optee/optee_os/lib/libutils/ext/snprintk.c:144
    6ec4:	f100027f 	cmp	x19, #0x0
    6ec8:	fa401a84 	ccmp	x20, #0x0, #0x4, ne  // ne = any
    6ecc:	540000a0 	b.eq	6ee0 <__vsnprintf+0x84>  // b.none
/home/ssysarch/Desktop/nick/jetpack_5/Jetson_Linux_R35.4.1_aarch64/Linux_for_Tegra/sources/tegra/optee-src/nv-optee/optee/optee_os/lib/libutils/ext/snprintk.c:146
    6ed0:	93407c01 	sxtw	x1, w0
    6ed4:	eb20c29f 	cmp	x20, w0, sxtw
    6ed8:	54000148 	b.hi	6f00 <__vsnprintf+0xa4>  // b.pmore
/home/ssysarch/Desktop/nick/jetpack_5/Jetson_Linux_R35.4.1_aarch64/Linux_for_Tegra/sources/tegra/optee-src/nv-optee/optee/optee_os/lib/libutils/ext/snprintk.c:147
    6edc:	381ff2df 	sturb	wzr, [x22, #-1]
/home/ssysarch/Desktop/nick/jetpack_5/Jetson_Linux_R35.4.1_aarch64/Linux_for_Tegra/sources/tegra/optee-src/nv-optee/optee/optee_os/lib/libutils/ext/snprintk.c:152
    6ee0:	d0000085 	adrp	x5, 18000 <__func__.3717+0x3b64>
    6ee4:	f947a0a5 	ldr	x5, [x5, #3904]
    6ee8:	f94037e1 	ldr	x1, [sp, #104]
    6eec:	f94000a2 	ldr	x2, [x5]
    6ef0:	eb020021 	subs	x1, x1, x2
    6ef4:	d2800002 	mov	x2, #0x0                   	// #0
    6ef8:	54000080 	b.eq	6f08 <__vsnprintf+0xac>  // b.none
    6efc:	97fffc41 	bl	6000 <__stack_chk_fail@plt>
/home/ssysarch/Desktop/nick/jetpack_5/Jetson_Linux_R35.4.1_aarch64/Linux_for_Tegra/sources/tegra/optee-src/nv-optee/optee/optee_os/lib/libutils/ext/snprintk.c:149
    6f00:	38216a7f 	strb	wzr, [x19, x1]
/home/ssysarch/Desktop/nick/jetpack_5/Jetson_Linux_R35.4.1_aarch64/Linux_for_Tegra/sources/tegra/optee-src/nv-optee/optee/optee_os/lib/libutils/ext/snprintk.c:151
    6f04:	17fffff7 	b	6ee0 <__vsnprintf+0x84>
/home/ssysarch/Desktop/nick/jetpack_5/Jetson_Linux_R35.4.1_aarch64/Linux_for_Tegra/sources/tegra/optee-src/nv-optee/optee/optee_os/lib/libutils/ext/snprintk.c:152
    6f08:	a94153f3 	ldp	x19, x20, [sp, #16]
    6f0c:	a9425bf5 	ldp	x21, x22, [sp, #32]
    6f10:	f9401bf7 	ldr	x23, [sp, #48]
    6f14:	a8c77bfd 	ldp	x29, x30, [sp], #112
    6f18:	d65f03c0 	ret

0000000000006f1c <vsnprintk>:
vsnprintk():
/home/ssysarch/Desktop/nick/jetpack_5/Jetson_Linux_R35.4.1_aarch64/Linux_for_Tegra/sources/tegra/optee-src/nv-optee/optee/optee_os/lib/libutils/ext/snprintk.c:130
    6f1c:	a9bb7bfd 	stp	x29, x30, [sp, #-80]!
/home/ssysarch/Desktop/nick/jetpack_5/Jetson_Linux_R35.4.1_aarch64/Linux_for_Tegra/sources/tegra/optee-src/nv-optee/optee/optee_os/lib/libutils/ext/snprintk.c:131
    6f20:	9100c3e4 	add	x4, sp, #0x30
/home/ssysarch/Desktop/nick/jetpack_5/Jetson_Linux_R35.4.1_aarch64/Linux_for_Tegra/sources/tegra/optee-src/nv-optee/optee/optee_os/lib/libutils/ext/snprintk.c:130
    6f24:	910003fd 	mov	x29, sp
    6f28:	a90153f3 	stp	x19, x20, [sp, #16]
    6f2c:	aa0003f3 	mov	x19, x0
    6f30:	aa0103f4 	mov	x20, x1
/home/ssysarch/Desktop/nick/jetpack_5/Jetson_Linux_R35.4.1_aarch64/Linux_for_Tegra/sources/tegra/optee-src/nv-optee/optee/optee_os/lib/libutils/ext/snprintk.c:131
    6f34:	aa0403e0 	mov	x0, x4
/home/ssysarch/Desktop/nick/jetpack_5/Jetson_Linux_R35.4.1_aarch64/Linux_for_Tegra/sources/tegra/optee-src/nv-optee/optee/optee_os/lib/libutils/ext/snprintk.c:130
    6f38:	aa0303e1 	mov	x1, x3
    6f3c:	f90013f5 	str	x21, [sp, #32]
    6f40:	aa0203f5 	mov	x21, x2
/home/ssysarch/Desktop/nick/jetpack_5/Jetson_Linux_R35.4.1_aarch64/Linux_for_Tegra/sources/tegra/optee-src/nv-optee/optee/optee_os/lib/libutils/ext/snprintk.c:131
    6f44:	d2800402 	mov	x2, #0x20                  	// #32
    6f48:	97fffbc2 	bl	5e50 <memcpy@plt>
    6f4c:	aa1503e2 	mov	x2, x21
    6f50:	aa0003e3 	mov	x3, x0
    6f54:	aa1403e1 	mov	x1, x20
    6f58:	aa1303e0 	mov	x0, x19
    6f5c:	52800024 	mov	w4, #0x1                   	// #1
    6f60:	97fffda4 	bl	65f0 <__vsnprintf@plt>
/home/ssysarch/Desktop/nick/jetpack_5/Jetson_Linux_R35.4.1_aarch64/Linux_for_Tegra/sources/tegra/optee-src/nv-optee/optee/optee_os/lib/libutils/ext/snprintk.c:132
    6f64:	a94153f3 	ldp	x19, x20, [sp, #16]
    6f68:	f94013f5 	ldr	x21, [sp, #32]
    6f6c:	a8c57bfd 	ldp	x29, x30, [sp], #80
    6f70:	d65f03c0 	ret

0000000000006f74 <snprintk>:
snprintk():
/home/ssysarch/Desktop/nick/jetpack_5/Jetson_Linux_R35.4.1_aarch64/Linux_for_Tegra/sources/tegra/optee-src/nv-optee/optee/optee_os/lib/libutils/ext/snprintk.c:113
    6f74:	a9ad7bfd 	stp	x29, x30, [sp, #-304]!
    6f78:	910003fd 	mov	x29, sp
    6f7c:	a90153f3 	stp	x19, x20, [sp, #16]
    6f80:	d0000093 	adrp	x19, 18000 <__func__.3717+0x3b64>
    6f84:	aa0003f4 	mov	x20, x0
    6f88:	f947a273 	ldr	x19, [x19, #3904]
    6f8c:	3d8023e0 	str	q0, [sp, #128]
    6f90:	3d8027e1 	str	q1, [sp, #144]
    6f94:	3d802be2 	str	q2, [sp, #160]
    6f98:	3d802fe3 	str	q3, [sp, #176]
    6f9c:	3d8033e4 	str	q4, [sp, #192]
    6fa0:	3d8037e5 	str	q5, [sp, #208]
    6fa4:	3d803be6 	str	q6, [sp, #224]
    6fa8:	3d803fe7 	str	q7, [sp, #240]
    6fac:	a91093e3 	stp	x3, x4, [sp, #264]
/home/ssysarch/Desktop/nick/jetpack_5/Jetson_Linux_R35.4.1_aarch64/Linux_for_Tegra/sources/tegra/optee-src/nv-optee/optee/optee_os/lib/libutils/ext/snprintk.c:118
    6fb0:	9100c3e3 	add	x3, sp, #0x30
/home/ssysarch/Desktop/nick/jetpack_5/Jetson_Linux_R35.4.1_aarch64/Linux_for_Tegra/sources/tegra/optee-src/nv-optee/optee/optee_os/lib/libutils/ext/snprintk.c:113
    6fb4:	a9119be5 	stp	x5, x6, [sp, #280]
    6fb8:	f90097e7 	str	x7, [sp, #296]
    6fbc:	a9025bf5 	stp	x21, x22, [sp, #32]
    6fc0:	aa0103f5 	mov	x21, x1
    6fc4:	f9400260 	ldr	x0, [x19]
    6fc8:	f9003fe0 	str	x0, [sp, #120]
    6fcc:	d2800000 	mov	x0, #0x0                   	// #0
/home/ssysarch/Desktop/nick/jetpack_5/Jetson_Linux_R35.4.1_aarch64/Linux_for_Tegra/sources/tegra/optee-src/nv-optee/optee/optee_os/lib/libutils/ext/snprintk.c:117
    6fd0:	9104c3e0 	add	x0, sp, #0x130
    6fd4:	a90583e0 	stp	x0, x0, [sp, #88]
    6fd8:	910403e0 	add	x0, sp, #0x100
    6fdc:	f90037e0 	str	x0, [sp, #104]
    6fe0:	128004e0 	mov	w0, #0xffffffd8            	// #-40
    6fe4:	b90073e0 	str	w0, [sp, #112]
    6fe8:	12800fe0 	mov	w0, #0xffffff80            	// #-128
/home/ssysarch/Desktop/nick/jetpack_5/Jetson_Linux_R35.4.1_aarch64/Linux_for_Tegra/sources/tegra/optee-src/nv-optee/optee/optee_os/lib/libutils/ext/snprintk.c:113
    6fec:	aa0203f6 	mov	x22, x2
/home/ssysarch/Desktop/nick/jetpack_5/Jetson_Linux_R35.4.1_aarch64/Linux_for_Tegra/sources/tegra/optee-src/nv-optee/optee/optee_os/lib/libutils/ext/snprintk.c:118
    6ff0:	910163e1 	add	x1, sp, #0x58
    6ff4:	d2800402 	mov	x2, #0x20                  	// #32
/home/ssysarch/Desktop/nick/jetpack_5/Jetson_Linux_R35.4.1_aarch64/Linux_for_Tegra/sources/tegra/optee-src/nv-optee/optee/optee_os/lib/libutils/ext/snprintk.c:117
    6ff8:	b90077e0 	str	w0, [sp, #116]
/home/ssysarch/Desktop/nick/jetpack_5/Jetson_Linux_R35.4.1_aarch64/Linux_for_Tegra/sources/tegra/optee-src/nv-optee/optee/optee_os/lib/libutils/ext/snprintk.c:118
    6ffc:	aa0303e0 	mov	x0, x3
    7000:	97fffb94 	bl	5e50 <memcpy@plt>
    7004:	aa1603e2 	mov	x2, x22
    7008:	aa0003e3 	mov	x3, x0
    700c:	aa1503e1 	mov	x1, x21
    7010:	aa1403e0 	mov	x0, x20
    7014:	97fffb57 	bl	5d70 <vsnprintk@plt>
/home/ssysarch/Desktop/nick/jetpack_5/Jetson_Linux_R35.4.1_aarch64/Linux_for_Tegra/sources/tegra/optee-src/nv-optee/optee/optee_os/lib/libutils/ext/snprintk.c:122
    7018:	f9403fe1 	ldr	x1, [sp, #120]
    701c:	f9400262 	ldr	x2, [x19]
    7020:	eb020021 	subs	x1, x1, x2
    7024:	d2800002 	mov	x2, #0x0                   	// #0
    7028:	54000040 	b.eq	7030 <snprintk+0xbc>  // b.none
    702c:	97fffbf5 	bl	6000 <__stack_chk_fail@plt>
    7030:	a94153f3 	ldp	x19, x20, [sp, #16]
    7034:	a9425bf5 	ldp	x21, x22, [sp, #32]
    7038:	a8d37bfd 	ldp	x29, x30, [sp], #304
    703c:	d65f03c0 	ret

0000000000007040 <kprintf.constprop.0>:
kprintf():
/home/ssysarch/Desktop/nick/jetpack_5/Jetson_Linux_R35.4.1_aarch64/Linux_for_Tegra/sources/tegra/optee-src/nv-optee/optee/optee_os/lib/libutils/ext/snprintk.c:242
    7040:	d103c3ff 	sub	sp, sp, #0xf0
    7044:	aa0103e8 	mov	x8, x1
    7048:	a9037bfd 	stp	x29, x30, [sp, #48]
    704c:	9100c3fd 	add	x29, sp, #0x30
    7050:	a90873fb 	stp	x27, x28, [sp, #128]
    7054:	aa0003fb 	mov	x27, x0
    7058:	12001c80 	and	w0, w4, #0xff
    705c:	b900a3e0 	str	w0, [sp, #160]
    7060:	b0000080 	adrp	x0, 18000 <__func__.3717+0x3b64>
    7064:	a90453f3 	stp	x19, x20, [sp, #64]
    7068:	b9401874 	ldr	w20, [x3, #24]
    706c:	f947a000 	ldr	x0, [x0, #3904]
    7070:	a9055bf5 	stp	x21, x22, [sp, #80]
    7074:	aa0203f6 	mov	x22, x2
    7078:	f9400001 	ldr	x1, [x0]
    707c:	f90077e1 	str	x1, [sp, #232]
    7080:	d2800001 	mov	x1, #0x0                   	// #0
    7084:	a90663f7 	stp	x23, x24, [sp, #96]
    7088:	a9076bf9 	stp	x25, x26, [sp, #112]
    708c:	a9406873 	ldp	x19, x26, [x3]
/home/ssysarch/Desktop/nick/jetpack_5/Jetson_Linux_R35.4.1_aarch64/Linux_for_Tegra/sources/tegra/optee-src/nv-optee/optee/optee_os/lib/libutils/ext/snprintk.c:264
    7090:	b40004c8 	cbz	x8, 7128 <kprintf.constprop.0+0xe8>
/home/ssysarch/Desktop/nick/jetpack_5/Jetson_Linux_R35.4.1_aarch64/Linux_for_Tegra/sources/tegra/optee-src/nv-optee/optee/optee_os/lib/libutils/ext/snprintk.c:265
    7094:	f9400118 	ldr	x24, [x8]
/home/ssysarch/Desktop/nick/jetpack_5/Jetson_Linux_R35.4.1_aarch64/Linux_for_Tegra/sources/tegra/optee-src/nv-optee/optee/optee_os/lib/libutils/ext/snprintk.c:543
    7098:	910303ec 	add	x12, sp, #0xc0
    709c:	90000060 	adrp	x0, 13000 <memmove+0x44>
    70a0:	910dc000 	add	x0, x0, #0x370
/home/ssysarch/Desktop/nick/jetpack_5/Jetson_Linux_R35.4.1_aarch64/Linux_for_Tegra/sources/tegra/optee-src/nv-optee/optee/optee_os/lib/libutils/ext/snprintk.c:275
    70a4:	d2800017 	mov	x23, #0x0                   	// #0
/home/ssysarch/Desktop/nick/jetpack_5/Jetson_Linux_R35.4.1_aarch64/Linux_for_Tegra/sources/tegra/optee-src/nv-optee/optee/optee_os/lib/libutils/ext/snprintk.c:273
    70a8:	52800019 	mov	w25, #0x0                   	// #0
    70ac:	f9004be0 	str	x0, [sp, #144]
/home/ssysarch/Desktop/nick/jetpack_5/Jetson_Linux_R35.4.1_aarch64/Linux_for_Tegra/sources/tegra/optee-src/nv-optee/optee/optee_os/lib/libutils/ext/snprintk.c:281
    70b0:	39400360 	ldrb	w0, [x27]
    70b4:	7100941f 	cmp	w0, #0x25
    70b8:	7a401804 	ccmp	w0, #0x0, #0x4, ne  // ne = any
    70bc:	540003a1 	b.ne	7130 <kprintf.constprop.0+0xf0>  // b.any
/home/ssysarch/Desktop/nick/jetpack_5/Jetson_Linux_R35.4.1_aarch64/Linux_for_Tegra/sources/tegra/optee-src/nv-optee/optee/optee_os/lib/libutils/ext/snprintk.c:285
    70c0:	34005260 	cbz	w0, 7b0c <kprintf.constprop.0+0xacc>
/home/ssysarch/Desktop/nick/jetpack_5/Jetson_Linux_R35.4.1_aarch64/Linux_for_Tegra/sources/tegra/optee-src/nv-optee/optee/optee_os/lib/libutils/ext/snprintk.c:293
    70c4:	12800005 	mov	w5, #0xffffffff            	// #-1
    70c8:	90000066 	adrp	x6, 13000 <memmove+0x44>
    70cc:	910e30c6 	add	x6, x6, #0x38c
/home/ssysarch/Desktop/nick/jetpack_5/Jetson_Linux_R35.4.1_aarch64/Linux_for_Tegra/sources/tegra/optee-src/nv-optee/optee/optee_os/lib/libutils/ext/snprintk.c:288
    70d0:	9100077b 	add	x27, x27, #0x1
    70d4:	2a1403e4 	mov	w4, w20
    70d8:	aa1303e3 	mov	x3, x19
/home/ssysarch/Desktop/nick/jetpack_5/Jetson_Linux_R35.4.1_aarch64/Linux_for_Tegra/sources/tegra/optee-src/nv-optee/optee/optee_os/lib/libutils/ext/snprintk.c:330
    70dc:	2a0503ee 	mov	w14, w5
/home/ssysarch/Desktop/nick/jetpack_5/Jetson_Linux_R35.4.1_aarch64/Linux_for_Tegra/sources/tegra/optee-src/nv-optee/optee/optee_os/lib/libutils/ext/snprintk.c:294
    70e0:	52800001 	mov	w1, #0x0                   	// #0
/home/ssysarch/Desktop/nick/jetpack_5/Jetson_Linux_R35.4.1_aarch64/Linux_for_Tegra/sources/tegra/optee-src/nv-optee/optee/optee_os/lib/libutils/ext/snprintk.c:292
    70e4:	5280000a 	mov	w10, #0x0                   	// #0
/home/ssysarch/Desktop/nick/jetpack_5/Jetson_Linux_R35.4.1_aarch64/Linux_for_Tegra/sources/tegra/optee-src/nv-optee/optee/optee_os/lib/libutils/ext/snprintk.c:290
    70e8:	52800015 	mov	w21, #0x0                   	// #0
/home/ssysarch/Desktop/nick/jetpack_5/Jetson_Linux_R35.4.1_aarch64/Linux_for_Tegra/sources/tegra/optee-src/nv-optee/optee/optee_os/lib/libutils/ext/snprintk.c:352
    70ec:	5280014d 	mov	w13, #0xa                   	// #10
/home/ssysarch/Desktop/nick/jetpack_5/Jetson_Linux_R35.4.1_aarch64/Linux_for_Tegra/sources/tegra/optee-src/nv-optee/optee/optee_os/lib/libutils/ext/snprintk.c:305
    70f0:	5280040f 	mov	w15, #0x20                  	// #32
/home/ssysarch/Desktop/nick/jetpack_5/Jetson_Linux_R35.4.1_aarch64/Linux_for_Tegra/sources/tegra/optee-src/nv-optee/optee/optee_os/lib/libutils/ext/snprintk.c:296
    70f4:	3840177c 	ldrb	w28, [x27], #1
/home/ssysarch/Desktop/nick/jetpack_5/Jetson_Linux_R35.4.1_aarch64/Linux_for_Tegra/sources/tegra/optee-src/nv-optee/optee/optee_os/lib/libutils/ext/snprintk.c:297
    70f8:	7100e79f 	cmp	w28, #0x39
    70fc:	5400054c 	b.gt	71a4 <kprintf.constprop.0+0x164>
    7100:	71007f9f 	cmp	w28, #0x1f
    7104:	5400502d 	b.le	7b08 <kprintf.constprop.0+0xac8>
    7108:	51008380 	sub	w0, w28, #0x20
    710c:	7100641f 	cmp	w0, #0x19
    7110:	54000508 	b.hi	71b0 <kprintf.constprop.0+0x170>  // b.pmore
    7114:	f9404be2 	ldr	x2, [sp, #144]
    7118:	38604840 	ldrb	w0, [x2, w0, uxtw]
    711c:	10000062 	adr	x2, 7128 <kprintf.constprop.0+0xe8>
    7120:	8b208840 	add	x0, x2, w0, sxtb #2
    7124:	d61f0000 	br	x0
/home/ssysarch/Desktop/nick/jetpack_5/Jetson_Linux_R35.4.1_aarch64/Linux_for_Tegra/sources/tegra/optee-src/nv-optee/optee/optee_os/lib/libutils/ext/snprintk.c:267
    7128:	d2800018 	mov	x24, #0x0                   	// #0
    712c:	17ffffdb 	b	7098 <kprintf.constprop.0+0x58>
/home/ssysarch/Desktop/nick/jetpack_5/Jetson_Linux_R35.4.1_aarch64/Linux_for_Tegra/sources/tegra/optee-src/nv-optee/optee/optee_os/lib/libutils/ext/snprintk.c:282
    7130:	11000739 	add	w25, w25, #0x1
/home/ssysarch/Desktop/nick/jetpack_5/Jetson_Linux_R35.4.1_aarch64/Linux_for_Tegra/sources/tegra/optee-src/nv-optee/optee/optee_os/lib/libutils/ext/snprintk.c:283
    7134:	b40000b6 	cbz	x22, 7148 <kprintf.constprop.0+0x108>
    7138:	f100011f 	cmp	x8, #0x0
    713c:	fa5812c0 	ccmp	x22, x24, #0x0, ne  // ne = any
    7140:	54000042 	b.cs	7148 <kprintf.constprop.0+0x108>  // b.hs, b.nlast
    7144:	380016c0 	strb	w0, [x22], #1
/home/ssysarch/Desktop/nick/jetpack_5/Jetson_Linux_R35.4.1_aarch64/Linux_for_Tegra/sources/tegra/optee-src/nv-optee/optee/optee_os/lib/libutils/ext/snprintk.c:281
    7148:	9100077b 	add	x27, x27, #0x1
    714c:	17ffffd9 	b	70b0 <kprintf.constprop.0+0x70>
/home/ssysarch/Desktop/nick/jetpack_5/Jetson_Linux_R35.4.1_aarch64/Linux_for_Tegra/sources/tegra/optee-src/nv-optee/optee/optee_os/lib/libutils/ext/snprintk.c:325
    7150:	52800561 	mov	w1, #0x2b                  	// #43
    7154:	17ffffe8 	b	70f4 <kprintf.constprop.0+0xb4>
    7158:	786058c0 	ldrh	w0, [x6, w0, uxtw #1]
    715c:	10000062 	adr	x2, 7168 <kprintf.constprop.0+0x128>
    7160:	8b20a840 	add	x0, x2, w0, sxth #2
    7164:	d61f0000 	br	x0
/home/ssysarch/Desktop/nick/jetpack_5/Jetson_Linux_R35.4.1_aarch64/Linux_for_Tegra/sources/tegra/optee-src/nv-optee/optee/optee_os/lib/libutils/ext/snprintk.c:480
    7168:	90000077 	adrp	x23, 13000 <memmove+0x44>
    716c:	910feaf7 	add	x23, x23, #0x3fa
    7170:	910046f7 	add	x23, x23, #0x11
/home/ssysarch/Desktop/nick/jetpack_5/Jetson_Linux_R35.4.1_aarch64/Linux_for_Tegra/sources/tegra/optee-src/nv-optee/optee/optee_os/lib/libutils/ext/snprintk.c:481
    7174:	36384515 	tbz	w21, #7, 7a14 <kprintf.constprop.0+0x9d4>
    7178:	37f84644 	tbnz	w4, #31, 7a40 <kprintf.constprop.0+0xa00>
    717c:	91003c73 	add	x19, x3, #0xf
    7180:	2a0403f4 	mov	w20, w4
    7184:	927df273 	and	x19, x19, #0xfffffffffffffff8
    7188:	f9400062 	ldr	x2, [x3]
/home/ssysarch/Desktop/nick/jetpack_5/Jetson_Linux_R35.4.1_aarch64/Linux_for_Tegra/sources/tegra/optee-src/nv-optee/optee/optee_os/lib/libutils/ext/snprintk.c:484
    718c:	36003475 	tbz	w21, #0, 7818 <kprintf.constprop.0+0x7d8>
    7190:	b4003442 	cbz	x2, 7818 <kprintf.constprop.0+0x7d8>
/home/ssysarch/Desktop/nick/jetpack_5/Jetson_Linux_R35.4.1_aarch64/Linux_for_Tegra/sources/tegra/optee-src/nv-optee/optee/optee_os/lib/libutils/ext/snprintk.c:485
    7194:	321f02b5 	orr	w21, w21, #0x2
/home/ssysarch/Desktop/nick/jetpack_5/Jetson_Linux_R35.4.1_aarch64/Linux_for_Tegra/sources/tegra/optee-src/nv-optee/optee/optee_os/lib/libutils/ext/snprintk.c:482
    7198:	52800040 	mov	w0, #0x2                   	// #2
/home/ssysarch/Desktop/nick/jetpack_5/Jetson_Linux_R35.4.1_aarch64/Linux_for_Tegra/sources/tegra/optee-src/nv-optee/optee/optee_os/lib/libutils/ext/snprintk.c:488
    719c:	52800001 	mov	w1, #0x0                   	// #0
    71a0:	14000078 	b	7380 <kprintf.constprop.0+0x340>
/home/ssysarch/Desktop/nick/jetpack_5/Jetson_Linux_R35.4.1_aarch64/Linux_for_Tegra/sources/tegra/optee-src/nv-optee/optee/optee_os/lib/libutils/ext/snprintk.c:297
    71a4:	51011380 	sub	w0, w28, #0x44
    71a8:	7100d81f 	cmp	w0, #0x36
    71ac:	54fffd69 	b.ls	7158 <kprintf.constprop.0+0x118>  // b.plast
/home/ssysarch/Desktop/nick/jetpack_5/Jetson_Linux_R35.4.1_aarch64/Linux_for_Tegra/sources/tegra/optee-src/nv-optee/optee/optee_os/lib/libutils/ext/snprintk.c:554
    71b0:	2a0403f4 	mov	w20, w4
    71b4:	aa0303f3 	mov	x19, x3
/home/ssysarch/Desktop/nick/jetpack_5/Jetson_Linux_R35.4.1_aarch64/Linux_for_Tegra/sources/tegra/optee-src/nv-optee/optee/optee_os/lib/libutils/ext/snprintk.c:551
    71b8:	390303fc 	strb	w28, [sp, #192]
/home/ssysarch/Desktop/nick/jetpack_5/Jetson_Linux_R35.4.1_aarch64/Linux_for_Tegra/sources/tegra/optee-src/nv-optee/optee/optee_os/lib/libutils/ext/snprintk.c:554
    71bc:	14000058 	b	731c <kprintf.constprop.0+0x2dc>
/home/ssysarch/Desktop/nick/jetpack_5/Jetson_Linux_R35.4.1_aarch64/Linux_for_Tegra/sources/tegra/optee-src/nv-optee/optee/optee_os/lib/libutils/ext/snprintk.c:305
    71c0:	7100003f 	cmp	w1, #0x0
    71c4:	1a8f1021 	csel	w1, w1, w15, ne  // ne = any
    71c8:	17ffffcb 	b	70f4 <kprintf.constprop.0+0xb4>
/home/ssysarch/Desktop/nick/jetpack_5/Jetson_Linux_R35.4.1_aarch64/Linux_for_Tegra/sources/tegra/optee-src/nv-optee/optee/optee_os/lib/libutils/ext/snprintk.c:308
    71cc:	320002b5 	orr	w21, w21, #0x1
/home/ssysarch/Desktop/nick/jetpack_5/Jetson_Linux_R35.4.1_aarch64/Linux_for_Tegra/sources/tegra/optee-src/nv-optee/optee/optee_os/lib/libutils/ext/snprintk.c:309
    71d0:	17ffffc9 	b	70f4 <kprintf.constprop.0+0xb4>
/home/ssysarch/Desktop/nick/jetpack_5/Jetson_Linux_R35.4.1_aarch64/Linux_for_Tegra/sources/tegra/optee-src/nv-optee/optee/optee_os/lib/libutils/ext/snprintk.c:317
    71d4:	37f80124 	tbnz	w4, #31, 71f8 <kprintf.constprop.0+0x1b8>
    71d8:	91002c62 	add	x2, x3, #0xb
    71dc:	aa0303e0 	mov	x0, x3
    71e0:	927df043 	and	x3, x2, #0xfffffffffffffff8
    71e4:	b940000a 	ldr	w10, [x0]
    71e8:	36fff86a 	tbz	w10, #31, 70f4 <kprintf.constprop.0+0xb4>
/home/ssysarch/Desktop/nick/jetpack_5/Jetson_Linux_R35.4.1_aarch64/Linux_for_Tegra/sources/tegra/optee-src/nv-optee/optee/optee_os/lib/libutils/ext/snprintk.c:319
    71ec:	4b0a03ea 	neg	w10, w10
/home/ssysarch/Desktop/nick/jetpack_5/Jetson_Linux_R35.4.1_aarch64/Linux_for_Tegra/sources/tegra/optee-src/nv-optee/optee/optee_os/lib/libutils/ext/snprintk.c:322
    71f0:	321e02b5 	orr	w21, w21, #0x4
/home/ssysarch/Desktop/nick/jetpack_5/Jetson_Linux_R35.4.1_aarch64/Linux_for_Tegra/sources/tegra/optee-src/nv-optee/optee/optee_os/lib/libutils/ext/snprintk.c:323
    71f4:	17ffffc0 	b	70f4 <kprintf.constprop.0+0xb4>
/home/ssysarch/Desktop/nick/jetpack_5/Jetson_Linux_R35.4.1_aarch64/Linux_for_Tegra/sources/tegra/optee-src/nv-optee/optee/optee_os/lib/libutils/ext/snprintk.c:317
    71f8:	11002082 	add	w2, w4, #0x8
    71fc:	7100005f 	cmp	w2, #0x0
    7200:	540000cd 	b.le	7218 <kprintf.constprop.0+0x1d8>
    7204:	91002c67 	add	x7, x3, #0xb
    7208:	aa0303e0 	mov	x0, x3
    720c:	2a0203e4 	mov	w4, w2
    7210:	927df0e3 	and	x3, x7, #0xfffffffffffffff8
    7214:	17fffff4 	b	71e4 <kprintf.constprop.0+0x1a4>
    7218:	8b24c340 	add	x0, x26, w4, sxtw
    721c:	2a0203e4 	mov	w4, w2
    7220:	17fffff1 	b	71e4 <kprintf.constprop.0+0x1a4>
/home/ssysarch/Desktop/nick/jetpack_5/Jetson_Linux_R35.4.1_aarch64/Linux_for_Tegra/sources/tegra/optee-src/nv-optee/optee/optee_os/lib/libutils/ext/snprintk.c:328
    7224:	3840177c 	ldrb	w28, [x27], #1
    7228:	7100ab9f 	cmp	w28, #0x2a
    722c:	54000341 	b.ne	7294 <kprintf.constprop.0+0x254>  // b.any
/home/ssysarch/Desktop/nick/jetpack_5/Jetson_Linux_R35.4.1_aarch64/Linux_for_Tegra/sources/tegra/optee-src/nv-optee/optee/optee_os/lib/libutils/ext/snprintk.c:329
    7230:	37f80144 	tbnz	w4, #31, 7258 <kprintf.constprop.0+0x218>
    7234:	91002c62 	add	x2, x3, #0xb
    7238:	2a0403e7 	mov	w7, w4
    723c:	927df042 	and	x2, x2, #0xfffffffffffffff8
/home/ssysarch/Desktop/nick/jetpack_5/Jetson_Linux_R35.4.1_aarch64/Linux_for_Tegra/sources/tegra/optee-src/nv-optee/optee/optee_os/lib/libutils/ext/snprintk.c:330
    7240:	b9400065 	ldr	w5, [x3]
/home/ssysarch/Desktop/nick/jetpack_5/Jetson_Linux_R35.4.1_aarch64/Linux_for_Tegra/sources/tegra/optee-src/nv-optee/optee/optee_os/lib/libutils/ext/snprintk.c:331
    7244:	2a0703e4 	mov	w4, w7
    7248:	aa0203e3 	mov	x3, x2
/home/ssysarch/Desktop/nick/jetpack_5/Jetson_Linux_R35.4.1_aarch64/Linux_for_Tegra/sources/tegra/optee-src/nv-optee/optee/optee_os/lib/libutils/ext/snprintk.c:330
    724c:	710000bf 	cmp	w5, #0x0
    7250:	1a8ea0a5 	csel	w5, w5, w14, ge  // ge = tcont
/home/ssysarch/Desktop/nick/jetpack_5/Jetson_Linux_R35.4.1_aarch64/Linux_for_Tegra/sources/tegra/optee-src/nv-optee/optee/optee_os/lib/libutils/ext/snprintk.c:331
    7254:	17ffffa8 	b	70f4 <kprintf.constprop.0+0xb4>
/home/ssysarch/Desktop/nick/jetpack_5/Jetson_Linux_R35.4.1_aarch64/Linux_for_Tegra/sources/tegra/optee-src/nv-optee/optee/optee_os/lib/libutils/ext/snprintk.c:329
    7258:	11002087 	add	w7, w4, #0x8
    725c:	710000ff 	cmp	w7, #0x0
    7260:	5400008d 	b.le	7270 <kprintf.constprop.0+0x230>
    7264:	91002c62 	add	x2, x3, #0xb
    7268:	927df042 	and	x2, x2, #0xfffffffffffffff8
    726c:	17fffff5 	b	7240 <kprintf.constprop.0+0x200>
    7270:	aa0303e2 	mov	x2, x3
    7274:	8b24c343 	add	x3, x26, w4, sxtw
    7278:	17fffff2 	b	7240 <kprintf.constprop.0+0x200>
/home/ssysarch/Desktop/nick/jetpack_5/Jetson_Linux_R35.4.1_aarch64/Linux_for_Tegra/sources/tegra/optee-src/nv-optee/optee/optee_os/lib/libutils/ext/snprintk.c:335
    727c:	1b0d00a5 	madd	w5, w5, w13, w0
/home/ssysarch/Desktop/nick/jetpack_5/Jetson_Linux_R35.4.1_aarch64/Linux_for_Tegra/sources/tegra/optee-src/nv-optee/optee/optee_os/lib/libutils/ext/snprintk.c:336
    7280:	3840177c 	ldrb	w28, [x27], #1
/home/ssysarch/Desktop/nick/jetpack_5/Jetson_Linux_R35.4.1_aarch64/Linux_for_Tegra/sources/tegra/optee-src/nv-optee/optee/optee_os/lib/libutils/ext/snprintk.c:334
    7284:	5100c380 	sub	w0, w28, #0x30
    7288:	7100241f 	cmp	w0, #0x9
    728c:	54ffff89 	b.ls	727c <kprintf.constprop.0+0x23c>  // b.plast
    7290:	17ffff9a 	b	70f8 <kprintf.constprop.0+0xb8>
/home/ssysarch/Desktop/nick/jetpack_5/Jetson_Linux_R35.4.1_aarch64/Linux_for_Tegra/sources/tegra/optee-src/nv-optee/optee/optee_os/lib/libutils/ext/snprintk.c:333
    7294:	52800005 	mov	w5, #0x0                   	// #0
    7298:	17fffffb 	b	7284 <kprintf.constprop.0+0x244>
/home/ssysarch/Desktop/nick/jetpack_5/Jetson_Linux_R35.4.1_aarch64/Linux_for_Tegra/sources/tegra/optee-src/nv-optee/optee/optee_os/lib/libutils/ext/snprintk.c:346
    729c:	321602b5 	orr	w21, w21, #0x400
/home/ssysarch/Desktop/nick/jetpack_5/Jetson_Linux_R35.4.1_aarch64/Linux_for_Tegra/sources/tegra/optee-src/nv-optee/optee/optee_os/lib/libutils/ext/snprintk.c:347
    72a0:	17ffff95 	b	70f4 <kprintf.constprop.0+0xb4>
/home/ssysarch/Desktop/nick/jetpack_5/Jetson_Linux_R35.4.1_aarch64/Linux_for_Tegra/sources/tegra/optee-src/nv-optee/optee/optee_os/lib/libutils/ext/snprintk.c:297
    72a4:	5280000a 	mov	w10, #0x0                   	// #0
/home/ssysarch/Desktop/nick/jetpack_5/Jetson_Linux_R35.4.1_aarch64/Linux_for_Tegra/sources/tegra/optee-src/nv-optee/optee/optee_os/lib/libutils/ext/snprintk.c:352
    72a8:	5100c39c 	sub	w28, w28, #0x30
    72ac:	1b0d714a 	madd	w10, w10, w13, w28
/home/ssysarch/Desktop/nick/jetpack_5/Jetson_Linux_R35.4.1_aarch64/Linux_for_Tegra/sources/tegra/optee-src/nv-optee/optee/optee_os/lib/libutils/ext/snprintk.c:353
    72b0:	3840177c 	ldrb	w28, [x27], #1
/home/ssysarch/Desktop/nick/jetpack_5/Jetson_Linux_R35.4.1_aarch64/Linux_for_Tegra/sources/tegra/optee-src/nv-optee/optee/optee_os/lib/libutils/ext/snprintk.c:354
    72b4:	5100c380 	sub	w0, w28, #0x30
    72b8:	7100241f 	cmp	w0, #0x9
    72bc:	54ffff69 	b.ls	72a8 <kprintf.constprop.0+0x268>  // b.plast
    72c0:	17ffff8e 	b	70f8 <kprintf.constprop.0+0xb8>
/home/ssysarch/Desktop/nick/jetpack_5/Jetson_Linux_R35.4.1_aarch64/Linux_for_Tegra/sources/tegra/optee-src/nv-optee/optee/optee_os/lib/libutils/ext/snprintk.c:358
    72c4:	321a02b5 	orr	w21, w21, #0x40
/home/ssysarch/Desktop/nick/jetpack_5/Jetson_Linux_R35.4.1_aarch64/Linux_for_Tegra/sources/tegra/optee-src/nv-optee/optee/optee_os/lib/libutils/ext/snprintk.c:359
    72c8:	17ffff8b 	b	70f4 <kprintf.constprop.0+0xb4>
/home/ssysarch/Desktop/nick/jetpack_5/Jetson_Linux_R35.4.1_aarch64/Linux_for_Tegra/sources/tegra/optee-src/nv-optee/optee/optee_os/lib/libutils/ext/snprintk.c:361
    72cc:	321902b5 	orr	w21, w21, #0x80
/home/ssysarch/Desktop/nick/jetpack_5/Jetson_Linux_R35.4.1_aarch64/Linux_for_Tegra/sources/tegra/optee-src/nv-optee/optee/optee_os/lib/libutils/ext/snprintk.c:362
    72d0:	17ffff89 	b	70f4 <kprintf.constprop.0+0xb4>
/home/ssysarch/Desktop/nick/jetpack_5/Jetson_Linux_R35.4.1_aarch64/Linux_for_Tegra/sources/tegra/optee-src/nv-optee/optee/optee_os/lib/libutils/ext/snprintk.c:364
    72d4:	39400360 	ldrb	w0, [x27]
    72d8:	7101b01f 	cmp	w0, #0x6c
    72dc:	54000081 	b.ne	72ec <kprintf.constprop.0+0x2ac>  // b.any
    72e0:	9100077b 	add	x27, x27, #0x1
/home/ssysarch/Desktop/nick/jetpack_5/Jetson_Linux_R35.4.1_aarch64/Linux_for_Tegra/sources/tegra/optee-src/nv-optee/optee/optee_os/lib/libutils/ext/snprintk.c:372
    72e4:	321b02b5 	orr	w21, w21, #0x20
/home/ssysarch/Desktop/nick/jetpack_5/Jetson_Linux_R35.4.1_aarch64/Linux_for_Tegra/sources/tegra/optee-src/nv-optee/optee/optee_os/lib/libutils/ext/snprintk.c:373
    72e8:	17ffff83 	b	70f4 <kprintf.constprop.0+0xb4>
/home/ssysarch/Desktop/nick/jetpack_5/Jetson_Linux_R35.4.1_aarch64/Linux_for_Tegra/sources/tegra/optee-src/nv-optee/optee/optee_os/lib/libutils/ext/snprintk.c:368
    72ec:	321c02b5 	orr	w21, w21, #0x10
    72f0:	17ffff81 	b	70f4 <kprintf.constprop.0+0xb4>
/home/ssysarch/Desktop/nick/jetpack_5/Jetson_Linux_R35.4.1_aarch64/Linux_for_Tegra/sources/tegra/optee-src/nv-optee/optee/optee_os/lib/libutils/ext/snprintk.c:375
    72f4:	321802b5 	orr	w21, w21, #0x100
/home/ssysarch/Desktop/nick/jetpack_5/Jetson_Linux_R35.4.1_aarch64/Linux_for_Tegra/sources/tegra/optee-src/nv-optee/optee/optee_os/lib/libutils/ext/snprintk.c:376
    72f8:	17ffff7f 	b	70f4 <kprintf.constprop.0+0xb4>
/home/ssysarch/Desktop/nick/jetpack_5/Jetson_Linux_R35.4.1_aarch64/Linux_for_Tegra/sources/tegra/optee-src/nv-optee/optee/optee_os/lib/libutils/ext/snprintk.c:378
    72fc:	321702b5 	orr	w21, w21, #0x200
/home/ssysarch/Desktop/nick/jetpack_5/Jetson_Linux_R35.4.1_aarch64/Linux_for_Tegra/sources/tegra/optee-src/nv-optee/optee/optee_os/lib/libutils/ext/snprintk.c:379
    7300:	17ffff7d 	b	70f4 <kprintf.constprop.0+0xb4>
/home/ssysarch/Desktop/nick/jetpack_5/Jetson_Linux_R35.4.1_aarch64/Linux_for_Tegra/sources/tegra/optee-src/nv-optee/optee/optee_os/lib/libutils/ext/snprintk.c:381
    7304:	37f80164 	tbnz	w4, #31, 7330 <kprintf.constprop.0+0x2f0>
    7308:	91002c73 	add	x19, x3, #0xb
    730c:	2a0403f4 	mov	w20, w4
    7310:	927df273 	and	x19, x19, #0xfffffffffffffff8
    7314:	b9400060 	ldr	w0, [x3]
    7318:	390303e0 	strb	w0, [sp, #192]
/home/ssysarch/Desktop/nick/jetpack_5/Jetson_Linux_R35.4.1_aarch64/Linux_for_Tegra/sources/tegra/optee-src/nv-optee/optee/optee_os/lib/libutils/ext/snprintk.c:550
    731c:	910303e3 	add	x3, sp, #0xc0
/home/ssysarch/Desktop/nick/jetpack_5/Jetson_Linux_R35.4.1_aarch64/Linux_for_Tegra/sources/tegra/optee-src/nv-optee/optee/optee_os/lib/libutils/ext/snprintk.c:552
    7320:	52800025 	mov	w5, #0x1                   	// #1
/home/ssysarch/Desktop/nick/jetpack_5/Jetson_Linux_R35.4.1_aarch64/Linux_for_Tegra/sources/tegra/optee-src/nv-optee/optee/optee_os/lib/libutils/ext/snprintk.c:291
    7324:	52800006 	mov	w6, #0x0                   	// #0
/home/ssysarch/Desktop/nick/jetpack_5/Jetson_Linux_R35.4.1_aarch64/Linux_for_Tegra/sources/tegra/optee-src/nv-optee/optee/optee_os/lib/libutils/ext/snprintk.c:553
    7328:	52800001 	mov	w1, #0x0                   	// #0
/home/ssysarch/Desktop/nick/jetpack_5/Jetson_Linux_R35.4.1_aarch64/Linux_for_Tegra/sources/tegra/optee-src/nv-optee/optee/optee_os/lib/libutils/ext/snprintk.c:554
    732c:	140000fa 	b	7714 <kprintf.constprop.0+0x6d4>
/home/ssysarch/Desktop/nick/jetpack_5/Jetson_Linux_R35.4.1_aarch64/Linux_for_Tegra/sources/tegra/optee-src/nv-optee/optee/optee_os/lib/libutils/ext/snprintk.c:381
    7330:	11002094 	add	w20, w4, #0x8
    7334:	7100029f 	cmp	w20, #0x0
    7338:	5400008d 	b.le	7348 <kprintf.constprop.0+0x308>
    733c:	91002c73 	add	x19, x3, #0xb
    7340:	927df273 	and	x19, x19, #0xfffffffffffffff8
    7344:	17fffff4 	b	7314 <kprintf.constprop.0+0x2d4>
    7348:	aa0303f3 	mov	x19, x3
    734c:	8b24c343 	add	x3, x26, w4, sxtw
    7350:	17fffff1 	b	7314 <kprintf.constprop.0+0x2d4>
/home/ssysarch/Desktop/nick/jetpack_5/Jetson_Linux_R35.4.1_aarch64/Linux_for_Tegra/sources/tegra/optee-src/nv-optee/optee/optee_os/lib/libutils/ext/snprintk.c:386
    7354:	321c02b5 	orr	w21, w21, #0x10
/home/ssysarch/Desktop/nick/jetpack_5/Jetson_Linux_R35.4.1_aarch64/Linux_for_Tegra/sources/tegra/optee-src/nv-optee/optee/optee_os/lib/libutils/ext/snprintk.c:390
    7358:	363802f5 	tbz	w21, #7, 73b4 <kprintf.constprop.0+0x374>
    735c:	37f80424 	tbnz	w4, #31, 73e0 <kprintf.constprop.0+0x3a0>
    7360:	91003c73 	add	x19, x3, #0xf
    7364:	2a0403f4 	mov	w20, w4
    7368:	927df273 	and	x19, x19, #0xfffffffffffffff8
    736c:	f9400062 	ldr	x2, [x3]
/home/ssysarch/Desktop/nick/jetpack_5/Jetson_Linux_R35.4.1_aarch64/Linux_for_Tegra/sources/tegra/optee-src/nv-optee/optee/optee_os/lib/libutils/ext/snprintk.c:391
    7370:	b6f82e02 	tbz	x2, #63, 7930 <kprintf.constprop.0+0x8f0>
/home/ssysarch/Desktop/nick/jetpack_5/Jetson_Linux_R35.4.1_aarch64/Linux_for_Tegra/sources/tegra/optee-src/nv-optee/optee/optee_os/lib/libutils/ext/snprintk.c:392
    7374:	cb0203e2 	neg	x2, x2
/home/ssysarch/Desktop/nick/jetpack_5/Jetson_Linux_R35.4.1_aarch64/Linux_for_Tegra/sources/tegra/optee-src/nv-optee/optee/optee_os/lib/libutils/ext/snprintk.c:395
    7378:	52800020 	mov	w0, #0x1                   	// #1
/home/ssysarch/Desktop/nick/jetpack_5/Jetson_Linux_R35.4.1_aarch64/Linux_for_Tegra/sources/tegra/optee-src/nv-optee/optee/optee_os/lib/libutils/ext/snprintk.c:393
    737c:	528005a1 	mov	w1, #0x2d                  	// #45
/home/ssysarch/Desktop/nick/jetpack_5/Jetson_Linux_R35.4.1_aarch64/Linux_for_Tegra/sources/tegra/optee-src/nv-optee/optee/optee_os/lib/libutils/ext/snprintk.c:494
    7380:	310004bf 	cmn	w5, #0x1
    7384:	54003a21 	b.ne	7ac8 <kprintf.constprop.0+0xa88>  // b.any
/home/ssysarch/Desktop/nick/jetpack_5/Jetson_Linux_R35.4.1_aarch64/Linux_for_Tegra/sources/tegra/optee-src/nv-optee/optee/optee_os/lib/libutils/ext/snprintk.c:509
    7388:	7100041f 	cmp	w0, #0x1
    738c:	54002d60 	b.eq	7938 <kprintf.constprop.0+0x8f8>  // b.none
    7390:	7100081f 	cmp	w0, #0x2
    7394:	54000ea1 	b.ne	7568 <kprintf.constprop.0+0x528>  // b.any
/home/ssysarch/Desktop/nick/jetpack_5/Jetson_Linux_R35.4.1_aarch64/Linux_for_Tegra/sources/tegra/optee-src/nv-optee/optee/optee_os/lib/libutils/ext/snprintk.c:502
    7398:	91009583 	add	x3, x12, #0x25
/home/ssysarch/Desktop/nick/jetpack_5/Jetson_Linux_R35.4.1_aarch64/Linux_for_Tegra/sources/tegra/optee-src/nv-optee/optee/optee_os/lib/libutils/ext/snprintk.c:531
    739c:	92400c40 	and	x0, x2, #0xf
/home/ssysarch/Desktop/nick/jetpack_5/Jetson_Linux_R35.4.1_aarch64/Linux_for_Tegra/sources/tegra/optee-src/nv-optee/optee/optee_os/lib/libutils/ext/snprintk.c:532
    73a0:	d344fc42 	lsr	x2, x2, #4
/home/ssysarch/Desktop/nick/jetpack_5/Jetson_Linux_R35.4.1_aarch64/Linux_for_Tegra/sources/tegra/optee-src/nv-optee/optee/optee_os/lib/libutils/ext/snprintk.c:531
    73a4:	38606ae0 	ldrb	w0, [x23, x0]
    73a8:	381ffc60 	strb	w0, [x3, #-1]!
/home/ssysarch/Desktop/nick/jetpack_5/Jetson_Linux_R35.4.1_aarch64/Linux_for_Tegra/sources/tegra/optee-src/nv-optee/optee/optee_os/lib/libutils/ext/snprintk.c:533
    73ac:	b5ffff82 	cbnz	x2, 739c <kprintf.constprop.0+0x35c>
    73b0:	1400007b 	b	759c <kprintf.constprop.0+0x55c>
/home/ssysarch/Desktop/nick/jetpack_5/Jetson_Linux_R35.4.1_aarch64/Linux_for_Tegra/sources/tegra/optee-src/nv-optee/optee/optee_os/lib/libutils/ext/snprintk.c:390
    73b4:	3747fd55 	tbnz	w21, #8, 735c <kprintf.constprop.0+0x31c>
    73b8:	374ffd35 	tbnz	w21, #9, 735c <kprintf.constprop.0+0x31c>
    73bc:	372ffd15 	tbnz	w21, #5, 735c <kprintf.constprop.0+0x31c>
    73c0:	3727fcf5 	tbnz	w21, #4, 735c <kprintf.constprop.0+0x31c>
    73c4:	36300335 	tbz	w21, #6, 7428 <kprintf.constprop.0+0x3e8>
    73c8:	37f801e4 	tbnz	w4, #31, 7404 <kprintf.constprop.0+0x3c4>
    73cc:	91002c73 	add	x19, x3, #0xb
    73d0:	2a0403f4 	mov	w20, w4
    73d4:	927df273 	and	x19, x19, #0xfffffffffffffff8
    73d8:	79800062 	ldrsh	x2, [x3]
    73dc:	17ffffe5 	b	7370 <kprintf.constprop.0+0x330>
    73e0:	11002094 	add	w20, w4, #0x8
    73e4:	7100029f 	cmp	w20, #0x0
    73e8:	5400008d 	b.le	73f8 <kprintf.constprop.0+0x3b8>
    73ec:	91003c73 	add	x19, x3, #0xf
    73f0:	927df273 	and	x19, x19, #0xfffffffffffffff8
    73f4:	17ffffde 	b	736c <kprintf.constprop.0+0x32c>
    73f8:	aa0303f3 	mov	x19, x3
    73fc:	8b24c343 	add	x3, x26, w4, sxtw
    7400:	17ffffdb 	b	736c <kprintf.constprop.0+0x32c>
    7404:	11002094 	add	w20, w4, #0x8
    7408:	7100029f 	cmp	w20, #0x0
    740c:	5400008d 	b.le	741c <kprintf.constprop.0+0x3dc>
    7410:	91002c73 	add	x19, x3, #0xb
    7414:	927df273 	and	x19, x19, #0xfffffffffffffff8
    7418:	17fffff0 	b	73d8 <kprintf.constprop.0+0x398>
    741c:	aa0303f3 	mov	x19, x3
    7420:	8b24c343 	add	x3, x26, w4, sxtw
    7424:	17ffffed 	b	73d8 <kprintf.constprop.0+0x398>
    7428:	37f800c4 	tbnz	w4, #31, 7440 <kprintf.constprop.0+0x400>
    742c:	91002c73 	add	x19, x3, #0xb
    7430:	2a0403f4 	mov	w20, w4
    7434:	927df273 	and	x19, x19, #0xfffffffffffffff8
    7438:	b9800062 	ldrsw	x2, [x3]
    743c:	17ffffcd 	b	7370 <kprintf.constprop.0+0x330>
    7440:	11002094 	add	w20, w4, #0x8
    7444:	7100029f 	cmp	w20, #0x0
    7448:	5400008d 	b.le	7458 <kprintf.constprop.0+0x418>
    744c:	91002c73 	add	x19, x3, #0xb
    7450:	927df273 	and	x19, x19, #0xfffffffffffffff8
    7454:	17fffff9 	b	7438 <kprintf.constprop.0+0x3f8>
    7458:	aa0303f3 	mov	x19, x3
    745c:	8b24c343 	add	x3, x26, w4, sxtw
    7460:	17fffff6 	b	7438 <kprintf.constprop.0+0x3f8>
/home/ssysarch/Desktop/nick/jetpack_5/Jetson_Linux_R35.4.1_aarch64/Linux_for_Tegra/sources/tegra/optee-src/nv-optee/optee/optee_os/lib/libutils/ext/snprintk.c:398
    7464:	36380135 	tbz	w21, #7, 7488 <kprintf.constprop.0+0x448>
/home/ssysarch/Desktop/nick/jetpack_5/Jetson_Linux_R35.4.1_aarch64/Linux_for_Tegra/sources/tegra/optee-src/nv-optee/optee/optee_os/lib/libutils/ext/snprintk.c:407
    7468:	37f80284 	tbnz	w4, #31, 74b8 <kprintf.constprop.0+0x478>
    746c:	91003c73 	add	x19, x3, #0xf
    7470:	2a0403f4 	mov	w20, w4
    7474:	927df273 	and	x19, x19, #0xfffffffffffffff8
    7478:	f9400060 	ldr	x0, [x3]
    747c:	93407f21 	sxtw	x1, w25
    7480:	f9000001 	str	x1, [x0]
    7484:	17ffff0b 	b	70b0 <kprintf.constprop.0+0x70>
/home/ssysarch/Desktop/nick/jetpack_5/Jetson_Linux_R35.4.1_aarch64/Linux_for_Tegra/sources/tegra/optee-src/nv-optee/optee/optee_os/lib/libutils/ext/snprintk.c:400
    7488:	3747ff15 	tbnz	w21, #8, 7468 <kprintf.constprop.0+0x428>
/home/ssysarch/Desktop/nick/jetpack_5/Jetson_Linux_R35.4.1_aarch64/Linux_for_Tegra/sources/tegra/optee-src/nv-optee/optee/optee_os/lib/libutils/ext/snprintk.c:402
    748c:	374ffef5 	tbnz	w21, #9, 7468 <kprintf.constprop.0+0x428>
/home/ssysarch/Desktop/nick/jetpack_5/Jetson_Linux_R35.4.1_aarch64/Linux_for_Tegra/sources/tegra/optee-src/nv-optee/optee/optee_os/lib/libutils/ext/snprintk.c:404
    7490:	372ffed5 	tbnz	w21, #5, 7468 <kprintf.constprop.0+0x428>
/home/ssysarch/Desktop/nick/jetpack_5/Jetson_Linux_R35.4.1_aarch64/Linux_for_Tegra/sources/tegra/optee-src/nv-optee/optee/optee_os/lib/libutils/ext/snprintk.c:406
    7494:	3727feb5 	tbnz	w21, #4, 7468 <kprintf.constprop.0+0x428>
/home/ssysarch/Desktop/nick/jetpack_5/Jetson_Linux_R35.4.1_aarch64/Linux_for_Tegra/sources/tegra/optee-src/nv-optee/optee/optee_os/lib/libutils/ext/snprintk.c:408
    7498:	36300355 	tbz	w21, #6, 7500 <kprintf.constprop.0+0x4c0>
/home/ssysarch/Desktop/nick/jetpack_5/Jetson_Linux_R35.4.1_aarch64/Linux_for_Tegra/sources/tegra/optee-src/nv-optee/optee/optee_os/lib/libutils/ext/snprintk.c:409
    749c:	37f80204 	tbnz	w4, #31, 74dc <kprintf.constprop.0+0x49c>
    74a0:	91003c73 	add	x19, x3, #0xf
    74a4:	2a0403f4 	mov	w20, w4
    74a8:	927df273 	and	x19, x19, #0xfffffffffffffff8
    74ac:	f9400060 	ldr	x0, [x3]
    74b0:	79000019 	strh	w25, [x0]
    74b4:	17fffeff 	b	70b0 <kprintf.constprop.0+0x70>
/home/ssysarch/Desktop/nick/jetpack_5/Jetson_Linux_R35.4.1_aarch64/Linux_for_Tegra/sources/tegra/optee-src/nv-optee/optee/optee_os/lib/libutils/ext/snprintk.c:407
    74b8:	11002094 	add	w20, w4, #0x8
    74bc:	7100029f 	cmp	w20, #0x0
    74c0:	5400008d 	b.le	74d0 <kprintf.constprop.0+0x490>
    74c4:	91003c73 	add	x19, x3, #0xf
    74c8:	927df273 	and	x19, x19, #0xfffffffffffffff8
    74cc:	17ffffeb 	b	7478 <kprintf.constprop.0+0x438>
    74d0:	aa0303f3 	mov	x19, x3
    74d4:	8b24c343 	add	x3, x26, w4, sxtw
    74d8:	17ffffe8 	b	7478 <kprintf.constprop.0+0x438>
/home/ssysarch/Desktop/nick/jetpack_5/Jetson_Linux_R35.4.1_aarch64/Linux_for_Tegra/sources/tegra/optee-src/nv-optee/optee/optee_os/lib/libutils/ext/snprintk.c:409
    74dc:	11002094 	add	w20, w4, #0x8
    74e0:	7100029f 	cmp	w20, #0x0
    74e4:	5400008d 	b.le	74f4 <kprintf.constprop.0+0x4b4>
    74e8:	91003c73 	add	x19, x3, #0xf
    74ec:	927df273 	and	x19, x19, #0xfffffffffffffff8
    74f0:	17ffffef 	b	74ac <kprintf.constprop.0+0x46c>
    74f4:	aa0303f3 	mov	x19, x3
    74f8:	8b24c343 	add	x3, x26, w4, sxtw
    74fc:	17ffffec 	b	74ac <kprintf.constprop.0+0x46c>
/home/ssysarch/Desktop/nick/jetpack_5/Jetson_Linux_R35.4.1_aarch64/Linux_for_Tegra/sources/tegra/optee-src/nv-optee/optee/optee_os/lib/libutils/ext/snprintk.c:411
    7500:	37f800e4 	tbnz	w4, #31, 751c <kprintf.constprop.0+0x4dc>
    7504:	91003c73 	add	x19, x3, #0xf
    7508:	2a0403f4 	mov	w20, w4
    750c:	927df273 	and	x19, x19, #0xfffffffffffffff8
    7510:	f9400060 	ldr	x0, [x3]
    7514:	b9000019 	str	w25, [x0]
    7518:	17fffee6 	b	70b0 <kprintf.constprop.0+0x70>
    751c:	11002094 	add	w20, w4, #0x8
    7520:	7100029f 	cmp	w20, #0x0
    7524:	5400008d 	b.le	7534 <kprintf.constprop.0+0x4f4>
    7528:	91003c73 	add	x19, x3, #0xf
    752c:	927df273 	and	x19, x19, #0xfffffffffffffff8
    7530:	17fffff8 	b	7510 <kprintf.constprop.0+0x4d0>
    7534:	aa0303f3 	mov	x19, x3
    7538:	8b24c343 	add	x3, x26, w4, sxtw
    753c:	17fffff5 	b	7510 <kprintf.constprop.0+0x4d0>
/home/ssysarch/Desktop/nick/jetpack_5/Jetson_Linux_R35.4.1_aarch64/Linux_for_Tegra/sources/tegra/optee-src/nv-optee/optee/optee_os/lib/libutils/ext/snprintk.c:414
    7540:	321c02b5 	orr	w21, w21, #0x10
/home/ssysarch/Desktop/nick/jetpack_5/Jetson_Linux_R35.4.1_aarch64/Linux_for_Tegra/sources/tegra/optee-src/nv-optee/optee/optee_os/lib/libutils/ext/snprintk.c:417
    7544:	36380355 	tbz	w21, #7, 75ac <kprintf.constprop.0+0x56c>
    7548:	37f80484 	tbnz	w4, #31, 75d8 <kprintf.constprop.0+0x598>
    754c:	91003c73 	add	x19, x3, #0xf
    7550:	2a0403f4 	mov	w20, w4
    7554:	927df273 	and	x19, x19, #0xfffffffffffffff8
    7558:	f9400062 	ldr	x2, [x3]
/home/ssysarch/Desktop/nick/jetpack_5/Jetson_Linux_R35.4.1_aarch64/Linux_for_Tegra/sources/tegra/optee-src/nv-optee/optee/optee_os/lib/libutils/ext/snprintk.c:494
    755c:	310004bf 	cmn	w5, #0x1
    7560:	52800001 	mov	w1, #0x0                   	// #0
    7564:	54002b01 	b.ne	7ac4 <kprintf.constprop.0+0xa84>  // b.any
/home/ssysarch/Desktop/nick/jetpack_5/Jetson_Linux_R35.4.1_aarch64/Linux_for_Tegra/sources/tegra/optee-src/nv-optee/optee/optee_os/lib/libutils/ext/snprintk.c:502
    7568:	91009583 	add	x3, x12, #0x25
/home/ssysarch/Desktop/nick/jetpack_5/Jetson_Linux_R35.4.1_aarch64/Linux_for_Tegra/sources/tegra/optee-src/nv-optee/optee/optee_os/lib/libutils/ext/snprintk.c:512
    756c:	12000840 	and	w0, w2, #0x7
    7570:	aa0303e4 	mov	x4, x3
    7574:	1100c000 	add	w0, w0, #0x30
    7578:	381ffc60 	strb	w0, [x3, #-1]!
/home/ssysarch/Desktop/nick/jetpack_5/Jetson_Linux_R35.4.1_aarch64/Linux_for_Tegra/sources/tegra/optee-src/nv-optee/optee/optee_os/lib/libutils/ext/snprintk.c:513
    757c:	d343fc42 	lsr	x2, x2, #3
/home/ssysarch/Desktop/nick/jetpack_5/Jetson_Linux_R35.4.1_aarch64/Linux_for_Tegra/sources/tegra/optee-src/nv-optee/optee/optee_os/lib/libutils/ext/snprintk.c:514
    7580:	b5ffff62 	cbnz	x2, 756c <kprintf.constprop.0+0x52c>
/home/ssysarch/Desktop/nick/jetpack_5/Jetson_Linux_R35.4.1_aarch64/Linux_for_Tegra/sources/tegra/optee-src/nv-optee/optee/optee_os/lib/libutils/ext/snprintk.c:516
    7584:	360000d5 	tbz	w21, #0, 759c <kprintf.constprop.0+0x55c>
    7588:	7100c01f 	cmp	w0, #0x30
    758c:	54000080 	b.eq	759c <kprintf.constprop.0+0x55c>  // b.none
/home/ssysarch/Desktop/nick/jetpack_5/Jetson_Linux_R35.4.1_aarch64/Linux_for_Tegra/sources/tegra/optee-src/nv-optee/optee/optee_os/lib/libutils/ext/snprintk.c:517
    7590:	52800600 	mov	w0, #0x30                  	// #48
    7594:	381ff060 	sturb	w0, [x3, #-1]
    7598:	d1000883 	sub	x3, x4, #0x2
/home/ssysarch/Desktop/nick/jetpack_5/Jetson_Linux_R35.4.1_aarch64/Linux_for_Tegra/sources/tegra/optee-src/nv-optee/optee/optee_os/lib/libutils/ext/snprintk.c:543
    759c:	91009580 	add	x0, x12, #0x25
    75a0:	2a0503e6 	mov	w6, w5
    75a4:	4b030005 	sub	w5, w0, w3
    75a8:	1400005b 	b	7714 <kprintf.constprop.0+0x6d4>
/home/ssysarch/Desktop/nick/jetpack_5/Jetson_Linux_R35.4.1_aarch64/Linux_for_Tegra/sources/tegra/optee-src/nv-optee/optee/optee_os/lib/libutils/ext/snprintk.c:417
    75ac:	3747fcf5 	tbnz	w21, #8, 7548 <kprintf.constprop.0+0x508>
    75b0:	374ffcd5 	tbnz	w21, #9, 7548 <kprintf.constprop.0+0x508>
    75b4:	372ffcb5 	tbnz	w21, #5, 7548 <kprintf.constprop.0+0x508>
    75b8:	3727fc95 	tbnz	w21, #4, 7548 <kprintf.constprop.0+0x508>
    75bc:	36300335 	tbz	w21, #6, 7620 <kprintf.constprop.0+0x5e0>
    75c0:	37f801e4 	tbnz	w4, #31, 75fc <kprintf.constprop.0+0x5bc>
    75c4:	91002c73 	add	x19, x3, #0xb
    75c8:	2a0403f4 	mov	w20, w4
    75cc:	927df273 	and	x19, x19, #0xfffffffffffffff8
    75d0:	79400062 	ldrh	w2, [x3]
    75d4:	17ffffe2 	b	755c <kprintf.constprop.0+0x51c>
    75d8:	11002094 	add	w20, w4, #0x8
    75dc:	7100029f 	cmp	w20, #0x0
    75e0:	5400008d 	b.le	75f0 <kprintf.constprop.0+0x5b0>
    75e4:	91003c73 	add	x19, x3, #0xf
    75e8:	927df273 	and	x19, x19, #0xfffffffffffffff8
    75ec:	17ffffdb 	b	7558 <kprintf.constprop.0+0x518>
    75f0:	aa0303f3 	mov	x19, x3
    75f4:	8b24c343 	add	x3, x26, w4, sxtw
    75f8:	17ffffd8 	b	7558 <kprintf.constprop.0+0x518>
    75fc:	11002094 	add	w20, w4, #0x8
    7600:	7100029f 	cmp	w20, #0x0
    7604:	5400008d 	b.le	7614 <kprintf.constprop.0+0x5d4>
    7608:	91002c73 	add	x19, x3, #0xb
    760c:	927df273 	and	x19, x19, #0xfffffffffffffff8
    7610:	17fffff0 	b	75d0 <kprintf.constprop.0+0x590>
    7614:	aa0303f3 	mov	x19, x3
    7618:	8b24c343 	add	x3, x26, w4, sxtw
    761c:	17ffffed 	b	75d0 <kprintf.constprop.0+0x590>
    7620:	37f800c4 	tbnz	w4, #31, 7638 <kprintf.constprop.0+0x5f8>
    7624:	91002c73 	add	x19, x3, #0xb
    7628:	2a0403f4 	mov	w20, w4
    762c:	927df273 	and	x19, x19, #0xfffffffffffffff8
    7630:	b9400062 	ldr	w2, [x3]
    7634:	17ffffca 	b	755c <kprintf.constprop.0+0x51c>
    7638:	11002094 	add	w20, w4, #0x8
    763c:	7100029f 	cmp	w20, #0x0
    7640:	5400008d 	b.le	7650 <kprintf.constprop.0+0x610>
    7644:	91002c73 	add	x19, x3, #0xb
    7648:	927df273 	and	x19, x19, #0xfffffffffffffff8
    764c:	17fffff9 	b	7630 <kprintf.constprop.0+0x5f0>
    7650:	aa0303f3 	mov	x19, x3
    7654:	8b24c343 	add	x3, x26, w4, sxtw
    7658:	17fffff6 	b	7630 <kprintf.constprop.0+0x5f0>
/home/ssysarch/Desktop/nick/jetpack_5/Jetson_Linux_R35.4.1_aarch64/Linux_for_Tegra/sources/tegra/optee-src/nv-optee/optee/optee_os/lib/libutils/ext/snprintk.c:421
    765c:	b940a3e0 	ldr	w0, [sp, #160]
    7660:	34000c80 	cbz	w0, 77f0 <kprintf.constprop.0+0x7b0>
    7664:	39400360 	ldrb	w0, [x27]
    7668:	7101541f 	cmp	w0, #0x55
    766c:	54000c21 	b.ne	77f0 <kprintf.constprop.0+0x7b0>  // b.any
    7670:	39400760 	ldrb	w0, [x27, #1]
    7674:	7101b01f 	cmp	w0, #0x6c
    7678:	54000bc1 	b.ne	77f0 <kprintf.constprop.0+0x7b0>  // b.any
/home/ssysarch/Desktop/nick/jetpack_5/Jetson_Linux_R35.4.1_aarch64/Linux_for_Tegra/sources/tegra/optee-src/nv-optee/optee/optee_os/lib/libutils/ext/snprintk.c:426
    767c:	91000b7b 	add	x27, x27, #0x2
/home/ssysarch/Desktop/nick/jetpack_5/Jetson_Linux_R35.4.1_aarch64/Linux_for_Tegra/sources/tegra/optee-src/nv-optee/optee/optee_os/lib/libutils/ext/snprintk.c:427
    7680:	37f80a64 	tbnz	w4, #31, 77cc <kprintf.constprop.0+0x78c>
    7684:	91003c73 	add	x19, x3, #0xf
    7688:	2a0403f4 	mov	w20, w4
    768c:	927df273 	and	x19, x19, #0xfffffffffffffff8
    7690:	f9400060 	ldr	x0, [x3]
uuid2str():
/home/ssysarch/Desktop/nick/jetpack_5/Jetson_Linux_R35.4.1_aarch64/Linux_for_Tegra/sources/tegra/optee-src/nv-optee/optee/optee_os/lib/libutils/ext/snprintk.c:229
    7694:	90000062 	adrp	x2, 13000 <memmove+0x44>
    7698:	910cf442 	add	x2, x2, #0x33d
    769c:	f9004fec 	str	x12, [sp, #152]
    76a0:	b900a7ea 	str	w10, [sp, #164]
    76a4:	39403c01 	ldrb	w1, [x0, #15]
    76a8:	39402006 	ldrb	w6, [x0, #8]
    76ac:	79400c05 	ldrh	w5, [x0, #6]
    76b0:	39402407 	ldrb	w7, [x0, #9]
    76b4:	79400804 	ldrh	w4, [x0, #4]
    76b8:	b9002be1 	str	w1, [sp, #40]
    76bc:	f90057e8 	str	x8, [sp, #168]
    76c0:	39403801 	ldrb	w1, [x0, #14]
    76c4:	b90023e1 	str	w1, [sp, #32]
    76c8:	39403401 	ldrb	w1, [x0, #13]
    76cc:	b9001be1 	str	w1, [sp, #24]
    76d0:	39403001 	ldrb	w1, [x0, #12]
    76d4:	b90013e1 	str	w1, [sp, #16]
    76d8:	39402c01 	ldrb	w1, [x0, #11]
    76dc:	b9000be1 	str	w1, [sp, #8]
    76e0:	39402801 	ldrb	w1, [x0, #10]
    76e4:	b90003e1 	str	w1, [sp]
    76e8:	d28004a1 	mov	x1, #0x25                  	// #37
    76ec:	b9400003 	ldr	w3, [x0]
    76f0:	aa0c03e0 	mov	x0, x12
    76f4:	97fffb7f 	bl	64f0 <snprintk@plt>
    76f8:	2a0003e5 	mov	w5, w0
kprintf():
/home/ssysarch/Desktop/nick/jetpack_5/Jetson_Linux_R35.4.1_aarch64/Linux_for_Tegra/sources/tegra/optee-src/nv-optee/optee/optee_os/lib/libutils/ext/snprintk.c:429
    76fc:	f9404fec 	ldr	x12, [sp, #152]
/home/ssysarch/Desktop/nick/jetpack_5/Jetson_Linux_R35.4.1_aarch64/Linux_for_Tegra/sources/tegra/optee-src/nv-optee/optee/optee_os/lib/libutils/ext/snprintk.c:291
    7700:	52800006 	mov	w6, #0x0                   	// #0
/home/ssysarch/Desktop/nick/jetpack_5/Jetson_Linux_R35.4.1_aarch64/Linux_for_Tegra/sources/tegra/optee-src/nv-optee/optee/optee_os/lib/libutils/ext/snprintk.c:431
    7704:	b940a7ea 	ldr	w10, [sp, #164]
/home/ssysarch/Desktop/nick/jetpack_5/Jetson_Linux_R35.4.1_aarch64/Linux_for_Tegra/sources/tegra/optee-src/nv-optee/optee/optee_os/lib/libutils/ext/snprintk.c:430
    7708:	52800001 	mov	w1, #0x0                   	// #0
/home/ssysarch/Desktop/nick/jetpack_5/Jetson_Linux_R35.4.1_aarch64/Linux_for_Tegra/sources/tegra/optee-src/nv-optee/optee/optee_os/lib/libutils/ext/snprintk.c:431
    770c:	f94057e8 	ldr	x8, [sp, #168]
/home/ssysarch/Desktop/nick/jetpack_5/Jetson_Linux_R35.4.1_aarch64/Linux_for_Tegra/sources/tegra/optee-src/nv-optee/optee/optee_os/lib/libutils/ext/snprintk.c:429
    7710:	aa0c03e3 	mov	x3, x12
/home/ssysarch/Desktop/nick/jetpack_5/Jetson_Linux_R35.4.1_aarch64/Linux_for_Tegra/sources/tegra/optee-src/nv-optee/optee/optee_os/lib/libutils/ext/snprintk.c:571
    7714:	6b0500df 	cmp	w6, w5
    7718:	1a85a0c4 	csel	w4, w6, w5, ge  // ge = tcont
/home/ssysarch/Desktop/nick/jetpack_5/Jetson_Linux_R35.4.1_aarch64/Linux_for_Tegra/sources/tegra/optee-src/nv-optee/optee/optee_os/lib/libutils/ext/snprintk.c:572
    771c:	340020c1 	cbz	w1, 7b34 <kprintf.constprop.0+0xaf4>
/home/ssysarch/Desktop/nick/jetpack_5/Jetson_Linux_R35.4.1_aarch64/Linux_for_Tegra/sources/tegra/optee-src/nv-optee/optee/optee_os/lib/libutils/ext/snprintk.c:573
    7720:	11000484 	add	w4, w4, #0x1
/home/ssysarch/Desktop/nick/jetpack_5/Jetson_Linux_R35.4.1_aarch64/Linux_for_Tegra/sources/tegra/optee-src/nv-optee/optee/optee_os/lib/libutils/ext/snprintk.c:578
    7724:	6b0a009f 	cmp	w4, w10
    7728:	1a8aa080 	csel	w0, w4, w10, ge  // ge = tcont
    772c:	0b000339 	add	w25, w25, w0
/home/ssysarch/Desktop/nick/jetpack_5/Jetson_Linux_R35.4.1_aarch64/Linux_for_Tegra/sources/tegra/optee-src/nv-optee/optee/optee_os/lib/libutils/ext/snprintk.c:581
    7730:	52808080 	mov	w0, #0x404                 	// #1028
    7734:	6a0002a0 	ands	w0, w21, w0
    7738:	540000a1 	b.ne	774c <kprintf.constprop.0+0x70c>  // b.any
/home/ssysarch/Desktop/nick/jetpack_5/Jetson_Linux_R35.4.1_aarch64/Linux_for_Tegra/sources/tegra/optee-src/nv-optee/optee/optee_os/lib/libutils/ext/snprintk.c:582
    773c:	4b040147 	sub	w7, w10, w4
/home/ssysarch/Desktop/nick/jetpack_5/Jetson_Linux_R35.4.1_aarch64/Linux_for_Tegra/sources/tegra/optee-src/nv-optee/optee/optee_os/lib/libutils/ext/snprintk.c:584
    7740:	52800402 	mov	w2, #0x20                  	// #32
/home/ssysarch/Desktop/nick/jetpack_5/Jetson_Linux_R35.4.1_aarch64/Linux_for_Tegra/sources/tegra/optee-src/nv-optee/optee/optee_os/lib/libutils/ext/snprintk.c:583
    7744:	710000ff 	cmp	w7, #0x0
    7748:	54001fcc 	b.gt	7b40 <kprintf.constprop.0+0xb00>
/home/ssysarch/Desktop/nick/jetpack_5/Jetson_Linux_R35.4.1_aarch64/Linux_for_Tegra/sources/tegra/optee-src/nv-optee/optee/optee_os/lib/libutils/ext/snprintk.c:588
    774c:	34002081 	cbz	w1, 7b5c <kprintf.constprop.0+0xb1c>
/home/ssysarch/Desktop/nick/jetpack_5/Jetson_Linux_R35.4.1_aarch64/Linux_for_Tegra/sources/tegra/optee-src/nv-optee/optee/optee_os/lib/libutils/ext/snprintk.c:589
    7750:	b40000b6 	cbz	x22, 7764 <kprintf.constprop.0+0x724>
    7754:	f100011f 	cmp	x8, #0x0
    7758:	fa561302 	ccmp	x24, x22, #0x2, ne  // ne = any
    775c:	54000049 	b.ls	7764 <kprintf.constprop.0+0x724>  // b.plast
    7760:	380016c1 	strb	w1, [x22], #1
/home/ssysarch/Desktop/nick/jetpack_5/Jetson_Linux_R35.4.1_aarch64/Linux_for_Tegra/sources/tegra/optee-src/nv-optee/optee/optee_os/lib/libutils/ext/snprintk.c:596
    7764:	7110001f 	cmp	w0, #0x400
    7768:	540000a1 	b.ne	777c <kprintf.constprop.0+0x73c>  // b.any
/home/ssysarch/Desktop/nick/jetpack_5/Jetson_Linux_R35.4.1_aarch64/Linux_for_Tegra/sources/tegra/optee-src/nv-optee/optee/optee_os/lib/libutils/ext/snprintk.c:597
    776c:	4b040140 	sub	w0, w10, w4
/home/ssysarch/Desktop/nick/jetpack_5/Jetson_Linux_R35.4.1_aarch64/Linux_for_Tegra/sources/tegra/optee-src/nv-optee/optee/optee_os/lib/libutils/ext/snprintk.c:599
    7770:	52800601 	mov	w1, #0x30                  	// #48
/home/ssysarch/Desktop/nick/jetpack_5/Jetson_Linux_R35.4.1_aarch64/Linux_for_Tegra/sources/tegra/optee-src/nv-optee/optee/optee_os/lib/libutils/ext/snprintk.c:598
    7774:	7100001f 	cmp	w0, #0x0
    7778:	5400216c 	b.gt	7ba4 <kprintf.constprop.0+0xb64>
/home/ssysarch/Desktop/nick/jetpack_5/Jetson_Linux_R35.4.1_aarch64/Linux_for_Tegra/sources/tegra/optee-src/nv-optee/optee/optee_os/lib/libutils/ext/snprintk.c:603
    777c:	4b0500c6 	sub	w6, w6, w5
/home/ssysarch/Desktop/nick/jetpack_5/Jetson_Linux_R35.4.1_aarch64/Linux_for_Tegra/sources/tegra/optee-src/nv-optee/optee/optee_os/lib/libutils/ext/snprintk.c:605
    7780:	52800600 	mov	w0, #0x30                  	// #48
/home/ssysarch/Desktop/nick/jetpack_5/Jetson_Linux_R35.4.1_aarch64/Linux_for_Tegra/sources/tegra/optee-src/nv-optee/optee/optee_os/lib/libutils/ext/snprintk.c:604
    7784:	710000df 	cmp	w6, #0x0
    7788:	540021cc 	b.gt	7bc0 <kprintf.constprop.0+0xb80>
    778c:	2a0503e5 	mov	w5, w5
    7790:	d2800001 	mov	x1, #0x0                   	// #0
/home/ssysarch/Desktop/nick/jetpack_5/Jetson_Linux_R35.4.1_aarch64/Linux_for_Tegra/sources/tegra/optee-src/nv-optee/optee/optee_os/lib/libutils/ext/snprintk.c:608
    7794:	eb05003f 	cmp	x1, x5
    7798:	54002221 	b.ne	7bdc <kprintf.constprop.0+0xb9c>  // b.any
/home/ssysarch/Desktop/nick/jetpack_5/Jetson_Linux_R35.4.1_aarch64/Linux_for_Tegra/sources/tegra/optee-src/nv-optee/optee/optee_os/lib/libutils/ext/snprintk.c:611
    779c:	3617c8b5 	tbz	w21, #2, 70b0 <kprintf.constprop.0+0x70>
/home/ssysarch/Desktop/nick/jetpack_5/Jetson_Linux_R35.4.1_aarch64/Linux_for_Tegra/sources/tegra/optee-src/nv-optee/optee/optee_os/lib/libutils/ext/snprintk.c:612
    77a0:	4b04014a 	sub	w10, w10, w4
/home/ssysarch/Desktop/nick/jetpack_5/Jetson_Linux_R35.4.1_aarch64/Linux_for_Tegra/sources/tegra/optee-src/nv-optee/optee/optee_os/lib/libutils/ext/snprintk.c:614
    77a4:	52800400 	mov	w0, #0x20                  	// #32
/home/ssysarch/Desktop/nick/jetpack_5/Jetson_Linux_R35.4.1_aarch64/Linux_for_Tegra/sources/tegra/optee-src/nv-optee/optee/optee_os/lib/libutils/ext/snprintk.c:613
    77a8:	7100015f 	cmp	w10, #0x0
    77ac:	54ffc82d 	b.le	70b0 <kprintf.constprop.0+0x70>
/home/ssysarch/Desktop/nick/jetpack_5/Jetson_Linux_R35.4.1_aarch64/Linux_for_Tegra/sources/tegra/optee-src/nv-optee/optee/optee_os/lib/libutils/ext/snprintk.c:614
    77b0:	b40000b6 	cbz	x22, 77c4 <kprintf.constprop.0+0x784>
    77b4:	f100011f 	cmp	x8, #0x0
    77b8:	fa561302 	ccmp	x24, x22, #0x2, ne  // ne = any
    77bc:	54000049 	b.ls	77c4 <kprintf.constprop.0+0x784>  // b.plast
    77c0:	380016c0 	strb	w0, [x22], #1
    77c4:	5100054a 	sub	w10, w10, #0x1
    77c8:	17fffff8 	b	77a8 <kprintf.constprop.0+0x768>
/home/ssysarch/Desktop/nick/jetpack_5/Jetson_Linux_R35.4.1_aarch64/Linux_for_Tegra/sources/tegra/optee-src/nv-optee/optee/optee_os/lib/libutils/ext/snprintk.c:427
    77cc:	11002094 	add	w20, w4, #0x8
    77d0:	7100029f 	cmp	w20, #0x0
    77d4:	5400008d 	b.le	77e4 <kprintf.constprop.0+0x7a4>
    77d8:	91003c73 	add	x19, x3, #0xf
    77dc:	927df273 	and	x19, x19, #0xfffffffffffffff8
    77e0:	17ffffac 	b	7690 <kprintf.constprop.0+0x650>
    77e4:	aa0303f3 	mov	x19, x3
    77e8:	8b24c343 	add	x3, x26, w4, sxtw
    77ec:	17ffffa9 	b	7690 <kprintf.constprop.0+0x650>
/home/ssysarch/Desktop/nick/jetpack_5/Jetson_Linux_R35.4.1_aarch64/Linux_for_Tegra/sources/tegra/optee-src/nv-optee/optee/optee_os/lib/libutils/ext/snprintk.c:441
    77f0:	37f801e4 	tbnz	w4, #31, 782c <kprintf.constprop.0+0x7ec>
    77f4:	91003c73 	add	x19, x3, #0xf
    77f8:	2a0403f4 	mov	w20, w4
    77fc:	927df273 	and	x19, x19, #0xfffffffffffffff8
/home/ssysarch/Desktop/nick/jetpack_5/Jetson_Linux_R35.4.1_aarch64/Linux_for_Tegra/sources/tegra/optee-src/nv-optee/optee/optee_os/lib/libutils/ext/snprintk.c:443
    7800:	90000077 	adrp	x23, 13000 <memmove+0x44>
    7804:	910feaf7 	add	x23, x23, #0x3fa
/home/ssysarch/Desktop/nick/jetpack_5/Jetson_Linux_R35.4.1_aarch64/Linux_for_Tegra/sources/tegra/optee-src/nv-optee/optee/optee_os/lib/libutils/ext/snprintk.c:441
    7808:	f9400062 	ldr	x2, [x3]
/home/ssysarch/Desktop/nick/jetpack_5/Jetson_Linux_R35.4.1_aarch64/Linux_for_Tegra/sources/tegra/optee-src/nv-optee/optee/optee_os/lib/libutils/ext/snprintk.c:444
    780c:	321f02b5 	orr	w21, w21, #0x2
/home/ssysarch/Desktop/nick/jetpack_5/Jetson_Linux_R35.4.1_aarch64/Linux_for_Tegra/sources/tegra/optee-src/nv-optee/optee/optee_os/lib/libutils/ext/snprintk.c:443
    7810:	910046f7 	add	x23, x23, #0x11
/home/ssysarch/Desktop/nick/jetpack_5/Jetson_Linux_R35.4.1_aarch64/Linux_for_Tegra/sources/tegra/optee-src/nv-optee/optee/optee_os/lib/libutils/ext/snprintk.c:445
    7814:	52800f1c 	mov	w28, #0x78                  	// #120
/home/ssysarch/Desktop/nick/jetpack_5/Jetson_Linux_R35.4.1_aarch64/Linux_for_Tegra/sources/tegra/optee-src/nv-optee/optee/optee_os/lib/libutils/ext/snprintk.c:494
    7818:	310004bf 	cmn	w5, #0x1
    781c:	52800001 	mov	w1, #0x0                   	// #0
    7820:	54ffdbc0 	b.eq	7398 <kprintf.constprop.0+0x358>  // b.none
    7824:	52800040 	mov	w0, #0x2                   	// #2
    7828:	140000a8 	b	7ac8 <kprintf.constprop.0+0xa88>
/home/ssysarch/Desktop/nick/jetpack_5/Jetson_Linux_R35.4.1_aarch64/Linux_for_Tegra/sources/tegra/optee-src/nv-optee/optee/optee_os/lib/libutils/ext/snprintk.c:441
    782c:	11002094 	add	w20, w4, #0x8
    7830:	7100029f 	cmp	w20, #0x0
    7834:	5400008d 	b.le	7844 <kprintf.constprop.0+0x804>
    7838:	91003c73 	add	x19, x3, #0xf
    783c:	927df273 	and	x19, x19, #0xfffffffffffffff8
    7840:	17fffff0 	b	7800 <kprintf.constprop.0+0x7c0>
    7844:	aa0303f3 	mov	x19, x3
    7848:	8b24c343 	add	x3, x26, w4, sxtw
    784c:	17ffffed 	b	7800 <kprintf.constprop.0+0x7c0>
/home/ssysarch/Desktop/nick/jetpack_5/Jetson_Linux_R35.4.1_aarch64/Linux_for_Tegra/sources/tegra/optee-src/nv-optee/optee/optee_os/lib/libutils/ext/snprintk.c:448
    7850:	37f80364 	tbnz	w4, #31, 78bc <kprintf.constprop.0+0x87c>
    7854:	91003c73 	add	x19, x3, #0xf
    7858:	2a0403f4 	mov	w20, w4
    785c:	927df273 	and	x19, x19, #0xfffffffffffffff8
    7860:	f9400063 	ldr	x3, [x3]
    7864:	b5000063 	cbnz	x3, 7870 <kprintf.constprop.0+0x830>
/home/ssysarch/Desktop/nick/jetpack_5/Jetson_Linux_R35.4.1_aarch64/Linux_for_Tegra/sources/tegra/optee-src/nv-optee/optee/optee_os/lib/libutils/ext/snprintk.c:450
    7868:	90000063 	adrp	x3, 13000 <memmove+0x44>
    786c:	910cd863 	add	x3, x3, #0x336
/home/ssysarch/Desktop/nick/jetpack_5/Jetson_Linux_R35.4.1_aarch64/Linux_for_Tegra/sources/tegra/optee-src/nv-optee/optee/optee_os/lib/libutils/ext/snprintk.c:451
    7870:	310004bf 	cmn	w5, #0x1
    7874:	54000360 	b.eq	78e0 <kprintf.constprop.0+0x8a0>  // b.none
/home/ssysarch/Desktop/nick/jetpack_5/Jetson_Linux_R35.4.1_aarch64/Linux_for_Tegra/sources/tegra/optee-src/nv-optee/optee/optee_os/lib/libutils/ext/snprintk.c:457
    7878:	93407ca2 	sxtw	x2, w5
    787c:	aa0303e0 	mov	x0, x3
    7880:	52800001 	mov	w1, #0x0                   	// #0
    7884:	f9004fe3 	str	x3, [sp, #152]
    7888:	2914abe5 	stp	w5, w10, [sp, #164]
    788c:	a90b33e8 	stp	x8, x12, [sp, #176]
    7890:	97fffa6c 	bl	6240 <memchr@plt>
/home/ssysarch/Desktop/nick/jetpack_5/Jetson_Linux_R35.4.1_aarch64/Linux_for_Tegra/sources/tegra/optee-src/nv-optee/optee/optee_os/lib/libutils/ext/snprintk.c:459
    7894:	2954abe5 	ldp	w5, w10, [sp, #164]
    7898:	f9404fe3 	ldr	x3, [sp, #152]
    789c:	a94b33e8 	ldp	x8, x12, [sp, #176]
    78a0:	b4000080 	cbz	x0, 78b0 <kprintf.constprop.0+0x870>
/home/ssysarch/Desktop/nick/jetpack_5/Jetson_Linux_R35.4.1_aarch64/Linux_for_Tegra/sources/tegra/optee-src/nv-optee/optee/optee_os/lib/libutils/ext/snprintk.c:460
    78a4:	cb030000 	sub	x0, x0, x3
    78a8:	6b0000bf 	cmp	w5, w0
    78ac:	1a80d0a5 	csel	w5, w5, w0, le
/home/ssysarch/Desktop/nick/jetpack_5/Jetson_Linux_R35.4.1_aarch64/Linux_for_Tegra/sources/tegra/optee-src/nv-optee/optee/optee_os/lib/libutils/ext/snprintk.c:291
    78b0:	52800006 	mov	w6, #0x0                   	// #0
/home/ssysarch/Desktop/nick/jetpack_5/Jetson_Linux_R35.4.1_aarch64/Linux_for_Tegra/sources/tegra/optee-src/nv-optee/optee/optee_os/lib/libutils/ext/snprintk.c:467
    78b4:	52800001 	mov	w1, #0x0                   	// #0
    78b8:	17ffff97 	b	7714 <kprintf.constprop.0+0x6d4>
/home/ssysarch/Desktop/nick/jetpack_5/Jetson_Linux_R35.4.1_aarch64/Linux_for_Tegra/sources/tegra/optee-src/nv-optee/optee/optee_os/lib/libutils/ext/snprintk.c:448
    78bc:	11002094 	add	w20, w4, #0x8
    78c0:	7100029f 	cmp	w20, #0x0
    78c4:	5400008d 	b.le	78d4 <kprintf.constprop.0+0x894>
    78c8:	91003c73 	add	x19, x3, #0xf
    78cc:	927df273 	and	x19, x19, #0xfffffffffffffff8
    78d0:	17ffffe4 	b	7860 <kprintf.constprop.0+0x820>
    78d4:	aa0303f3 	mov	x19, x3
    78d8:	8b24c343 	add	x3, x26, w4, sxtw
    78dc:	17ffffe1 	b	7860 <kprintf.constprop.0+0x820>
/home/ssysarch/Desktop/nick/jetpack_5/Jetson_Linux_R35.4.1_aarch64/Linux_for_Tegra/sources/tegra/optee-src/nv-optee/optee/optee_os/lib/libutils/ext/snprintk.c:466
    78e0:	aa0303e0 	mov	x0, x3
    78e4:	f9004fe3 	str	x3, [sp, #152]
    78e8:	b900a7ea 	str	w10, [sp, #164]
    78ec:	a90ab3e8 	stp	x8, x12, [sp, #168]
    78f0:	97fffb68 	bl	6690 <strlen@plt>
    78f4:	b940a7ea 	ldr	w10, [sp, #164]
    78f8:	2a0003e5 	mov	w5, w0
/home/ssysarch/Desktop/nick/jetpack_5/Jetson_Linux_R35.4.1_aarch64/Linux_for_Tegra/sources/tegra/optee-src/nv-optee/optee/optee_os/lib/libutils/ext/snprintk.c:291
    78fc:	52800006 	mov	w6, #0x0                   	// #0
/home/ssysarch/Desktop/nick/jetpack_5/Jetson_Linux_R35.4.1_aarch64/Linux_for_Tegra/sources/tegra/optee-src/nv-optee/optee/optee_os/lib/libutils/ext/snprintk.c:467
    7900:	52800001 	mov	w1, #0x0                   	// #0
    7904:	f9404fe3 	ldr	x3, [sp, #152]
    7908:	a94ab3e8 	ldp	x8, x12, [sp, #168]
    790c:	17ffff82 	b	7714 <kprintf.constprop.0+0x6d4>
/home/ssysarch/Desktop/nick/jetpack_5/Jetson_Linux_R35.4.1_aarch64/Linux_for_Tegra/sources/tegra/optee-src/nv-optee/optee/optee_os/lib/libutils/ext/snprintk.c:470
    7910:	321c02b5 	orr	w21, w21, #0x10
/home/ssysarch/Desktop/nick/jetpack_5/Jetson_Linux_R35.4.1_aarch64/Linux_for_Tegra/sources/tegra/optee-src/nv-optee/optee/optee_os/lib/libutils/ext/snprintk.c:473
    7914:	36380235 	tbz	w21, #7, 7958 <kprintf.constprop.0+0x918>
    7918:	37f80364 	tbnz	w4, #31, 7984 <kprintf.constprop.0+0x944>
    791c:	91003c73 	add	x19, x3, #0xf
    7920:	2a0403f4 	mov	w20, w4
    7924:	927df273 	and	x19, x19, #0xfffffffffffffff8
    7928:	f9400062 	ldr	x2, [x3]
/home/ssysarch/Desktop/nick/jetpack_5/Jetson_Linux_R35.4.1_aarch64/Linux_for_Tegra/sources/tegra/optee-src/nv-optee/optee/optee_os/lib/libutils/ext/snprintk.c:488
    792c:	52800001 	mov	w1, #0x0                   	// #0
/home/ssysarch/Desktop/nick/jetpack_5/Jetson_Linux_R35.4.1_aarch64/Linux_for_Tegra/sources/tegra/optee-src/nv-optee/optee/optee_os/lib/libutils/ext/snprintk.c:494
    7930:	310004bf 	cmn	w5, #0x1
    7934:	54000d81 	b.ne	7ae4 <kprintf.constprop.0+0xaa4>  // b.any
/home/ssysarch/Desktop/nick/jetpack_5/Jetson_Linux_R35.4.1_aarch64/Linux_for_Tegra/sources/tegra/optee-src/nv-optee/optee/optee_os/lib/libutils/ext/snprintk.c:502
    7938:	91009580 	add	x0, x12, #0x25
/home/ssysarch/Desktop/nick/jetpack_5/Jetson_Linux_R35.4.1_aarch64/Linux_for_Tegra/sources/tegra/optee-src/nv-optee/optee/optee_os/lib/libutils/ext/snprintk.c:523
    793c:	d2800144 	mov	x4, #0xa                   	// #10
/home/ssysarch/Desktop/nick/jetpack_5/Jetson_Linux_R35.4.1_aarch64/Linux_for_Tegra/sources/tegra/optee-src/nv-optee/optee/optee_os/lib/libutils/ext/snprintk.c:522
    7940:	d1000403 	sub	x3, x0, #0x1
    7944:	f100245f 	cmp	x2, #0x9
    7948:	54000d28 	b.hi	7aec <kprintf.constprop.0+0xaac>  // b.pmore
/home/ssysarch/Desktop/nick/jetpack_5/Jetson_Linux_R35.4.1_aarch64/Linux_for_Tegra/sources/tegra/optee-src/nv-optee/optee/optee_os/lib/libutils/ext/snprintk.c:526
    794c:	1100c042 	add	w2, w2, #0x30
    7950:	381ff002 	sturb	w2, [x0, #-1]
/home/ssysarch/Desktop/nick/jetpack_5/Jetson_Linux_R35.4.1_aarch64/Linux_for_Tegra/sources/tegra/optee-src/nv-optee/optee/optee_os/lib/libutils/ext/snprintk.c:527
    7954:	17ffff12 	b	759c <kprintf.constprop.0+0x55c>
/home/ssysarch/Desktop/nick/jetpack_5/Jetson_Linux_R35.4.1_aarch64/Linux_for_Tegra/sources/tegra/optee-src/nv-optee/optee/optee_os/lib/libutils/ext/snprintk.c:473
    7958:	3747fe15 	tbnz	w21, #8, 7918 <kprintf.constprop.0+0x8d8>
    795c:	374ffdf5 	tbnz	w21, #9, 7918 <kprintf.constprop.0+0x8d8>
    7960:	372ffdd5 	tbnz	w21, #5, 7918 <kprintf.constprop.0+0x8d8>
    7964:	3727fdb5 	tbnz	w21, #4, 7918 <kprintf.constprop.0+0x8d8>
    7968:	36300335 	tbz	w21, #6, 79cc <kprintf.constprop.0+0x98c>
    796c:	37f801e4 	tbnz	w4, #31, 79a8 <kprintf.constprop.0+0x968>
    7970:	91002c73 	add	x19, x3, #0xb
    7974:	2a0403f4 	mov	w20, w4
    7978:	927df273 	and	x19, x19, #0xfffffffffffffff8
    797c:	79400062 	ldrh	w2, [x3]
    7980:	17ffffeb 	b	792c <kprintf.constprop.0+0x8ec>
    7984:	11002094 	add	w20, w4, #0x8
    7988:	7100029f 	cmp	w20, #0x0
    798c:	5400008d 	b.le	799c <kprintf.constprop.0+0x95c>
    7990:	91003c73 	add	x19, x3, #0xf
    7994:	927df273 	and	x19, x19, #0xfffffffffffffff8
    7998:	17ffffe4 	b	7928 <kprintf.constprop.0+0x8e8>
    799c:	aa0303f3 	mov	x19, x3
    79a0:	8b24c343 	add	x3, x26, w4, sxtw
    79a4:	17ffffe1 	b	7928 <kprintf.constprop.0+0x8e8>
    79a8:	11002094 	add	w20, w4, #0x8
    79ac:	7100029f 	cmp	w20, #0x0
    79b0:	5400008d 	b.le	79c0 <kprintf.constprop.0+0x980>
    79b4:	91002c73 	add	x19, x3, #0xb
    79b8:	927df273 	and	x19, x19, #0xfffffffffffffff8
    79bc:	17fffff0 	b	797c <kprintf.constprop.0+0x93c>
    79c0:	aa0303f3 	mov	x19, x3
    79c4:	8b24c343 	add	x3, x26, w4, sxtw
    79c8:	17ffffed 	b	797c <kprintf.constprop.0+0x93c>
    79cc:	37f800c4 	tbnz	w4, #31, 79e4 <kprintf.constprop.0+0x9a4>
    79d0:	91002c73 	add	x19, x3, #0xb
    79d4:	2a0403f4 	mov	w20, w4
    79d8:	927df273 	and	x19, x19, #0xfffffffffffffff8
    79dc:	b9400062 	ldr	w2, [x3]
    79e0:	17ffffd3 	b	792c <kprintf.constprop.0+0x8ec>
    79e4:	11002094 	add	w20, w4, #0x8
    79e8:	7100029f 	cmp	w20, #0x0
    79ec:	5400008d 	b.le	79fc <kprintf.constprop.0+0x9bc>
    79f0:	91002c73 	add	x19, x3, #0xb
    79f4:	927df273 	and	x19, x19, #0xfffffffffffffff8
    79f8:	17fffff9 	b	79dc <kprintf.constprop.0+0x99c>
    79fc:	aa0303f3 	mov	x19, x3
    7a00:	8b24c343 	add	x3, x26, w4, sxtw
    7a04:	17fffff6 	b	79dc <kprintf.constprop.0+0x99c>
/home/ssysarch/Desktop/nick/jetpack_5/Jetson_Linux_R35.4.1_aarch64/Linux_for_Tegra/sources/tegra/optee-src/nv-optee/optee/optee_os/lib/libutils/ext/snprintk.c:477
    7a08:	90000077 	adrp	x23, 13000 <memmove+0x44>
    7a0c:	910feaf7 	add	x23, x23, #0x3fa
    7a10:	17fffdd9 	b	7174 <kprintf.constprop.0+0x134>
/home/ssysarch/Desktop/nick/jetpack_5/Jetson_Linux_R35.4.1_aarch64/Linux_for_Tegra/sources/tegra/optee-src/nv-optee/optee/optee_os/lib/libutils/ext/snprintk.c:481
    7a14:	3747bb35 	tbnz	w21, #8, 7178 <kprintf.constprop.0+0x138>
    7a18:	374fbb15 	tbnz	w21, #9, 7178 <kprintf.constprop.0+0x138>
    7a1c:	372fbaf5 	tbnz	w21, #5, 7178 <kprintf.constprop.0+0x138>
    7a20:	3727bad5 	tbnz	w21, #4, 7178 <kprintf.constprop.0+0x138>
    7a24:	36300335 	tbz	w21, #6, 7a88 <kprintf.constprop.0+0xa48>
    7a28:	37f801e4 	tbnz	w4, #31, 7a64 <kprintf.constprop.0+0xa24>
    7a2c:	91002c73 	add	x19, x3, #0xb
    7a30:	2a0403f4 	mov	w20, w4
    7a34:	927df273 	and	x19, x19, #0xfffffffffffffff8
    7a38:	79400062 	ldrh	w2, [x3]
    7a3c:	17fffdd4 	b	718c <kprintf.constprop.0+0x14c>
    7a40:	11002094 	add	w20, w4, #0x8
    7a44:	7100029f 	cmp	w20, #0x0
    7a48:	5400008d 	b.le	7a58 <kprintf.constprop.0+0xa18>
    7a4c:	91003c73 	add	x19, x3, #0xf
    7a50:	927df273 	and	x19, x19, #0xfffffffffffffff8
    7a54:	17fffdcd 	b	7188 <kprintf.constprop.0+0x148>
    7a58:	aa0303f3 	mov	x19, x3
    7a5c:	8b24c343 	add	x3, x26, w4, sxtw
    7a60:	17fffdca 	b	7188 <kprintf.constprop.0+0x148>
    7a64:	11002094 	add	w20, w4, #0x8
    7a68:	7100029f 	cmp	w20, #0x0
    7a6c:	5400008d 	b.le	7a7c <kprintf.constprop.0+0xa3c>
    7a70:	91002c73 	add	x19, x3, #0xb
    7a74:	927df273 	and	x19, x19, #0xfffffffffffffff8
    7a78:	17fffff0 	b	7a38 <kprintf.constprop.0+0x9f8>
    7a7c:	aa0303f3 	mov	x19, x3
    7a80:	8b24c343 	add	x3, x26, w4, sxtw
    7a84:	17ffffed 	b	7a38 <kprintf.constprop.0+0x9f8>
    7a88:	37f800c4 	tbnz	w4, #31, 7aa0 <kprintf.constprop.0+0xa60>
    7a8c:	91002c73 	add	x19, x3, #0xb
    7a90:	2a0403f4 	mov	w20, w4
    7a94:	927df273 	and	x19, x19, #0xfffffffffffffff8
    7a98:	b9400062 	ldr	w2, [x3]
    7a9c:	17fffdbc 	b	718c <kprintf.constprop.0+0x14c>
    7aa0:	11002094 	add	w20, w4, #0x8
    7aa4:	7100029f 	cmp	w20, #0x0
    7aa8:	5400008d 	b.le	7ab8 <kprintf.constprop.0+0xa78>
    7aac:	91002c73 	add	x19, x3, #0xb
    7ab0:	927df273 	and	x19, x19, #0xfffffffffffffff8
    7ab4:	17fffff9 	b	7a98 <kprintf.constprop.0+0xa58>
    7ab8:	aa0303f3 	mov	x19, x3
    7abc:	8b24c343 	add	x3, x26, w4, sxtw
    7ac0:	17fffff6 	b	7a98 <kprintf.constprop.0+0xa58>
/home/ssysarch/Desktop/nick/jetpack_5/Jetson_Linux_R35.4.1_aarch64/Linux_for_Tegra/sources/tegra/optee-src/nv-optee/optee/optee_os/lib/libutils/ext/snprintk.c:494
    7ac4:	52800000 	mov	w0, #0x0                   	// #0
/home/ssysarch/Desktop/nick/jetpack_5/Jetson_Linux_R35.4.1_aarch64/Linux_for_Tegra/sources/tegra/optee-src/nv-optee/optee/optee_os/lib/libutils/ext/snprintk.c:503
    7ac8:	f100005f 	cmp	x2, #0x0
/home/ssysarch/Desktop/nick/jetpack_5/Jetson_Linux_R35.4.1_aarch64/Linux_for_Tegra/sources/tegra/optee-src/nv-optee/optee/optee_os/lib/libutils/ext/snprintk.c:495
    7acc:	12157ab5 	and	w21, w21, #0xfffffbff
/home/ssysarch/Desktop/nick/jetpack_5/Jetson_Linux_R35.4.1_aarch64/Linux_for_Tegra/sources/tegra/optee-src/nv-optee/optee/optee_os/lib/libutils/ext/snprintk.c:503
    7ad0:	7a4008a0 	ccmp	w5, #0x0, #0x0, eq  // eq = none
    7ad4:	54ffc5a1 	b.ne	7388 <kprintf.constprop.0+0x348>  // b.any
/home/ssysarch/Desktop/nick/jetpack_5/Jetson_Linux_R35.4.1_aarch64/Linux_for_Tegra/sources/tegra/optee-src/nv-optee/optee/optee_os/lib/libutils/ext/snprintk.c:502
    7ad8:	91009583 	add	x3, x12, #0x25
/home/ssysarch/Desktop/nick/jetpack_5/Jetson_Linux_R35.4.1_aarch64/Linux_for_Tegra/sources/tegra/optee-src/nv-optee/optee/optee_os/lib/libutils/ext/snprintk.c:542
    7adc:	52800005 	mov	w5, #0x0                   	// #0
    7ae0:	17fffeaf 	b	759c <kprintf.constprop.0+0x55c>
/home/ssysarch/Desktop/nick/jetpack_5/Jetson_Linux_R35.4.1_aarch64/Linux_for_Tegra/sources/tegra/optee-src/nv-optee/optee/optee_os/lib/libutils/ext/snprintk.c:494
    7ae4:	52800020 	mov	w0, #0x1                   	// #1
    7ae8:	17fffff8 	b	7ac8 <kprintf.constprop.0+0xa88>
/home/ssysarch/Desktop/nick/jetpack_5/Jetson_Linux_R35.4.1_aarch64/Linux_for_Tegra/sources/tegra/optee-src/nv-optee/optee/optee_os/lib/libutils/ext/snprintk.c:523
    7aec:	9ac40846 	udiv	x6, x2, x4
    7af0:	9b0488c2 	msub	x2, x6, x4, x2
    7af4:	1100c042 	add	w2, w2, #0x30
    7af8:	381ff002 	sturb	w2, [x0, #-1]
/home/ssysarch/Desktop/nick/jetpack_5/Jetson_Linux_R35.4.1_aarch64/Linux_for_Tegra/sources/tegra/optee-src/nv-optee/optee/optee_os/lib/libutils/ext/snprintk.c:524
    7afc:	aa0603e2 	mov	x2, x6
    7b00:	aa0303e0 	mov	x0, x3
    7b04:	17ffff8f 	b	7940 <kprintf.constprop.0+0x900>
/home/ssysarch/Desktop/nick/jetpack_5/Jetson_Linux_R35.4.1_aarch64/Linux_for_Tegra/sources/tegra/optee-src/nv-optee/optee/optee_os/lib/libutils/ext/snprintk.c:547
    7b08:	35ffb55c 	cbnz	w28, 71b0 <kprintf.constprop.0+0x170>
/home/ssysarch/Desktop/nick/jetpack_5/Jetson_Linux_R35.4.1_aarch64/Linux_for_Tegra/sources/tegra/optee-src/nv-optee/optee/optee_os/lib/libutils/ext/snprintk.c:619
    7b0c:	b4000048 	cbz	x8, 7b14 <kprintf.constprop.0+0xad4>
/home/ssysarch/Desktop/nick/jetpack_5/Jetson_Linux_R35.4.1_aarch64/Linux_for_Tegra/sources/tegra/optee-src/nv-optee/optee/optee_os/lib/libutils/ext/snprintk.c:620
    7b10:	f9000116 	str	x22, [x8]
/home/ssysarch/Desktop/nick/jetpack_5/Jetson_Linux_R35.4.1_aarch64/Linux_for_Tegra/sources/tegra/optee-src/nv-optee/optee/optee_os/lib/libutils/ext/snprintk.c:622
    7b14:	b0000080 	adrp	x0, 18000 <__func__.3717+0x3b64>
    7b18:	f947a000 	ldr	x0, [x0, #3904]
    7b1c:	f94077e1 	ldr	x1, [sp, #232]
    7b20:	f9400002 	ldr	x2, [x0]
    7b24:	eb020021 	subs	x1, x1, x2
    7b28:	d2800002 	mov	x2, #0x0                   	// #0
    7b2c:	54000680 	b.eq	7bfc <kprintf.constprop.0+0xbbc>  // b.none
    7b30:	97fff934 	bl	6000 <__stack_chk_fail@plt>
/home/ssysarch/Desktop/nick/jetpack_5/Jetson_Linux_R35.4.1_aarch64/Linux_for_Tegra/sources/tegra/optee-src/nv-optee/optee/optee_os/lib/libutils/ext/snprintk.c:574
    7b34:	360fdf95 	tbz	w21, #1, 7724 <kprintf.constprop.0+0x6e4>
/home/ssysarch/Desktop/nick/jetpack_5/Jetson_Linux_R35.4.1_aarch64/Linux_for_Tegra/sources/tegra/optee-src/nv-optee/optee/optee_os/lib/libutils/ext/snprintk.c:575
    7b38:	11000884 	add	w4, w4, #0x2
    7b3c:	17fffefa 	b	7724 <kprintf.constprop.0+0x6e4>
/home/ssysarch/Desktop/nick/jetpack_5/Jetson_Linux_R35.4.1_aarch64/Linux_for_Tegra/sources/tegra/optee-src/nv-optee/optee/optee_os/lib/libutils/ext/snprintk.c:584
    7b40:	b40000b6 	cbz	x22, 7b54 <kprintf.constprop.0+0xb14>
    7b44:	f100011f 	cmp	x8, #0x0
    7b48:	fa561302 	ccmp	x24, x22, #0x2, ne  // ne = any
    7b4c:	54000049 	b.ls	7b54 <kprintf.constprop.0+0xb14>  // b.plast
    7b50:	380016c2 	strb	w2, [x22], #1
    7b54:	510004e7 	sub	w7, w7, #0x1
    7b58:	17fffefb 	b	7744 <kprintf.constprop.0+0x704>
/home/ssysarch/Desktop/nick/jetpack_5/Jetson_Linux_R35.4.1_aarch64/Linux_for_Tegra/sources/tegra/optee-src/nv-optee/optee/optee_os/lib/libutils/ext/snprintk.c:590
    7b5c:	360fe055 	tbz	w21, #1, 7764 <kprintf.constprop.0+0x724>
/home/ssysarch/Desktop/nick/jetpack_5/Jetson_Linux_R35.4.1_aarch64/Linux_for_Tegra/sources/tegra/optee-src/nv-optee/optee/optee_os/lib/libutils/ext/snprintk.c:591
    7b60:	b4ffe036 	cbz	x22, 7764 <kprintf.constprop.0+0x724>
    7b64:	f100011f 	cmp	x8, #0x0
    7b68:	1a9f17e2 	cset	w2, eq  // eq = none
    7b6c:	7100005f 	cmp	w2, #0x0
    7b70:	fa560302 	ccmp	x24, x22, #0x2, eq  // eq = none
    7b74:	54ffdf89 	b.ls	7764 <kprintf.constprop.0+0x724>  // b.plast
    7b78:	aa1603e1 	mov	x1, x22
    7b7c:	52800607 	mov	w7, #0x30                  	// #48
/home/ssysarch/Desktop/nick/jetpack_5/Jetson_Linux_R35.4.1_aarch64/Linux_for_Tegra/sources/tegra/optee-src/nv-optee/optee/optee_os/lib/libutils/ext/snprintk.c:592
    7b80:	7100005f 	cmp	w2, #0x0
/home/ssysarch/Desktop/nick/jetpack_5/Jetson_Linux_R35.4.1_aarch64/Linux_for_Tegra/sources/tegra/optee-src/nv-optee/optee/optee_os/lib/libutils/ext/snprintk.c:591
    7b84:	38001427 	strb	w7, [x1], #1
/home/ssysarch/Desktop/nick/jetpack_5/Jetson_Linux_R35.4.1_aarch64/Linux_for_Tegra/sources/tegra/optee-src/nv-optee/optee/optee_os/lib/libutils/ext/snprintk.c:592
    7b88:	fa410302 	ccmp	x24, x1, #0x2, eq  // eq = none
    7b8c:	54000089 	b.ls	7b9c <kprintf.constprop.0+0xb5c>  // b.plast
    7b90:	91000ad6 	add	x22, x22, #0x2
    7b94:	381ff2dc 	sturb	w28, [x22, #-1]
    7b98:	17fffef3 	b	7764 <kprintf.constprop.0+0x724>
    7b9c:	aa0103f6 	mov	x22, x1
    7ba0:	17fffef1 	b	7764 <kprintf.constprop.0+0x724>
/home/ssysarch/Desktop/nick/jetpack_5/Jetson_Linux_R35.4.1_aarch64/Linux_for_Tegra/sources/tegra/optee-src/nv-optee/optee/optee_os/lib/libutils/ext/snprintk.c:599
    7ba4:	b40000b6 	cbz	x22, 7bb8 <kprintf.constprop.0+0xb78>
    7ba8:	f100011f 	cmp	x8, #0x0
    7bac:	fa561302 	ccmp	x24, x22, #0x2, ne  // ne = any
    7bb0:	54000049 	b.ls	7bb8 <kprintf.constprop.0+0xb78>  // b.plast
    7bb4:	380016c1 	strb	w1, [x22], #1
    7bb8:	51000400 	sub	w0, w0, #0x1
    7bbc:	17fffeee 	b	7774 <kprintf.constprop.0+0x734>
/home/ssysarch/Desktop/nick/jetpack_5/Jetson_Linux_R35.4.1_aarch64/Linux_for_Tegra/sources/tegra/optee-src/nv-optee/optee/optee_os/lib/libutils/ext/snprintk.c:605
    7bc0:	b40000b6 	cbz	x22, 7bd4 <kprintf.constprop.0+0xb94>
    7bc4:	f100011f 	cmp	x8, #0x0
    7bc8:	fa561302 	ccmp	x24, x22, #0x2, ne  // ne = any
    7bcc:	54000049 	b.ls	7bd4 <kprintf.constprop.0+0xb94>  // b.plast
    7bd0:	380016c0 	strb	w0, [x22], #1
    7bd4:	510004c6 	sub	w6, w6, #0x1
    7bd8:	17fffeeb 	b	7784 <kprintf.constprop.0+0x744>
/home/ssysarch/Desktop/nick/jetpack_5/Jetson_Linux_R35.4.1_aarch64/Linux_for_Tegra/sources/tegra/optee-src/nv-optee/optee/optee_os/lib/libutils/ext/snprintk.c:609
    7bdc:	b40000d6 	cbz	x22, 7bf4 <kprintf.constprop.0+0xbb4>
    7be0:	f100011f 	cmp	x8, #0x0
    7be4:	fa561302 	ccmp	x24, x22, #0x2, ne  // ne = any
    7be8:	54000069 	b.ls	7bf4 <kprintf.constprop.0+0xbb4>  // b.plast
    7bec:	38616860 	ldrb	w0, [x3, x1]
    7bf0:	380016c0 	strb	w0, [x22], #1
/home/ssysarch/Desktop/nick/jetpack_5/Jetson_Linux_R35.4.1_aarch64/Linux_for_Tegra/sources/tegra/optee-src/nv-optee/optee/optee_os/lib/libutils/ext/snprintk.c:608
    7bf4:	91000421 	add	x1, x1, #0x1
    7bf8:	17fffee7 	b	7794 <kprintf.constprop.0+0x754>
/home/ssysarch/Desktop/nick/jetpack_5/Jetson_Linux_R35.4.1_aarch64/Linux_for_Tegra/sources/tegra/optee-src/nv-optee/optee/optee_os/lib/libutils/ext/snprintk.c:622
    7bfc:	2a1903e0 	mov	w0, w25
    7c00:	a9437bfd 	ldp	x29, x30, [sp, #48]
    7c04:	a94453f3 	ldp	x19, x20, [sp, #64]
    7c08:	a9455bf5 	ldp	x21, x22, [sp, #80]
    7c0c:	a94663f7 	ldp	x23, x24, [sp, #96]
    7c10:	a9476bf9 	ldp	x25, x26, [sp, #112]
    7c14:	a94873fb 	ldp	x27, x28, [sp, #128]
    7c18:	9103c3ff 	add	sp, sp, #0xf0
    7c1c:	d65f03c0 	ret

0000000000007c20 <__vsprintf>:
__vsprintf():
/home/ssysarch/Desktop/nick/jetpack_5/Jetson_Linux_R35.4.1_aarch64/Linux_for_Tegra/sources/tegra/optee-src/nv-optee/optee/optee_os/lib/libutils/ext/snprintk.c:155
    7c20:	a9bc7bfd 	stp	x29, x30, [sp, #-64]!
/home/ssysarch/Desktop/nick/jetpack_5/Jetson_Linux_R35.4.1_aarch64/Linux_for_Tegra/sources/tegra/optee-src/nv-optee/optee/optee_os/lib/libutils/ext/snprintk.c:156
    7c24:	910083e3 	add	x3, sp, #0x20
/home/ssysarch/Desktop/nick/jetpack_5/Jetson_Linux_R35.4.1_aarch64/Linux_for_Tegra/sources/tegra/optee-src/nv-optee/optee/optee_os/lib/libutils/ext/snprintk.c:155
    7c28:	910003fd 	mov	x29, sp
    7c2c:	a90153f3 	stp	x19, x20, [sp, #16]
    7c30:	aa0003f4 	mov	x20, x0
    7c34:	aa0103f3 	mov	x19, x1
/home/ssysarch/Desktop/nick/jetpack_5/Jetson_Linux_R35.4.1_aarch64/Linux_for_Tegra/sources/tegra/optee-src/nv-optee/optee/optee_os/lib/libutils/ext/snprintk.c:156
    7c38:	aa0303e0 	mov	x0, x3
/home/ssysarch/Desktop/nick/jetpack_5/Jetson_Linux_R35.4.1_aarch64/Linux_for_Tegra/sources/tegra/optee-src/nv-optee/optee/optee_os/lib/libutils/ext/snprintk.c:155
    7c3c:	aa0203e1 	mov	x1, x2
/home/ssysarch/Desktop/nick/jetpack_5/Jetson_Linux_R35.4.1_aarch64/Linux_for_Tegra/sources/tegra/optee-src/nv-optee/optee/optee_os/lib/libutils/ext/snprintk.c:156
    7c40:	d2800402 	mov	x2, #0x20                  	// #32
    7c44:	97fff883 	bl	5e50 <memcpy@plt>
    7c48:	aa1403e2 	mov	x2, x20
    7c4c:	aa0003e3 	mov	x3, x0
    7c50:	52800004 	mov	w4, #0x0                   	// #0
    7c54:	aa1303e0 	mov	x0, x19
    7c58:	d2800001 	mov	x1, #0x0                   	// #0
    7c5c:	97fffcf9 	bl	7040 <kprintf.constprop.0>
/home/ssysarch/Desktop/nick/jetpack_5/Jetson_Linux_R35.4.1_aarch64/Linux_for_Tegra/sources/tegra/optee-src/nv-optee/optee/optee_os/lib/libutils/ext/snprintk.c:157
    7c60:	a94153f3 	ldp	x19, x20, [sp, #16]
    7c64:	a8c47bfd 	ldp	x29, x30, [sp], #64
    7c68:	d65f03c0 	ret

0000000000007c6c <memchr>:
memchr():
/home/ssysarch/Desktop/nick/jetpack_5/Jetson_Linux_R35.4.1_aarch64/Linux_for_Tegra/sources/tegra/optee-src/nv-optee/optee/optee_os/lib/libutils/isoc/newlib/memchr.c:109
    7c6c:	12001c21 	and	w1, w1, #0xff
/home/ssysarch/Desktop/nick/jetpack_5/Jetson_Linux_R35.4.1_aarch64/Linux_for_Tegra/sources/tegra/optee-src/nv-optee/optee/optee_os/lib/libutils/isoc/newlib/memchr.c:153
    7c70:	8b020002 	add	x2, x0, x2
    7c74:	eb02001f 	cmp	x0, x2
    7c78:	54000061 	b.ne	7c84 <memchr+0x18>  // b.any
/home/ssysarch/Desktop/nick/jetpack_5/Jetson_Linux_R35.4.1_aarch64/Linux_for_Tegra/sources/tegra/optee-src/nv-optee/optee/optee_os/lib/libutils/isoc/newlib/memchr.c:159
    7c7c:	d2800000 	mov	x0, #0x0                   	// #0
/home/ssysarch/Desktop/nick/jetpack_5/Jetson_Linux_R35.4.1_aarch64/Linux_for_Tegra/sources/tegra/optee-src/nv-optee/optee/optee_os/lib/libutils/isoc/newlib/memchr.c:160
    7c80:	d65f03c0 	ret
/home/ssysarch/Desktop/nick/jetpack_5/Jetson_Linux_R35.4.1_aarch64/Linux_for_Tegra/sources/tegra/optee-src/nv-optee/optee/optee_os/lib/libutils/isoc/newlib/memchr.c:154
    7c84:	39400003 	ldrb	w3, [x0]
    7c88:	6b01007f 	cmp	w3, w1
    7c8c:	54ffffa0 	b.eq	7c80 <memchr+0x14>  // b.none
/home/ssysarch/Desktop/nick/jetpack_5/Jetson_Linux_R35.4.1_aarch64/Linux_for_Tegra/sources/tegra/optee-src/nv-optee/optee/optee_os/lib/libutils/isoc/newlib/memchr.c:156
    7c90:	91000400 	add	x0, x0, #0x1
    7c94:	17fffff8 	b	7c74 <memchr+0x8>

0000000000007c98 <strlen>:
strlen():
/home/ssysarch/Desktop/nick/jetpack_5/Jetson_Linux_R35.4.1_aarch64/Linux_for_Tegra/sources/tegra/optee-src/nv-optee/optee/optee_os/lib/libutils/isoc/newlib/strlen.c:117
    7c98:	aa0003e1 	mov	x1, x0
    7c9c:	39400022 	ldrb	w2, [x1]
    7ca0:	35000062 	cbnz	w2, 7cac <strlen+0x14>
/home/ssysarch/Desktop/nick/jetpack_5/Jetson_Linux_R35.4.1_aarch64/Linux_for_Tegra/sources/tegra/optee-src/nv-optee/optee/optee_os/lib/libutils/isoc/newlib/strlen.c:120
    7ca4:	cb000020 	sub	x0, x1, x0
    7ca8:	d65f03c0 	ret
/home/ssysarch/Desktop/nick/jetpack_5/Jetson_Linux_R35.4.1_aarch64/Linux_for_Tegra/sources/tegra/optee-src/nv-optee/optee/optee_os/lib/libutils/isoc/newlib/strlen.c:118
    7cac:	91000421 	add	x1, x1, #0x1
    7cb0:	17fffffb 	b	7c9c <strlen+0x4>

0000000000007cb4 <trace_ext_puts>:
trace_ext_puts():
/home/ssysarch/Desktop/nick/jetpack_5/Jetson_Linux_R35.4.1_aarch64/Linux_for_Tegra/sources/tegra/optee-src/nv-optee/optee/optee_os/lib/libutee/trace_ext.c:22
    7cb4:	a9be7bfd 	stp	x29, x30, [sp, #-32]!
    7cb8:	910003fd 	mov	x29, sp
    7cbc:	f9000bf3 	str	x19, [sp, #16]
    7cc0:	aa0003f3 	mov	x19, x0
/home/ssysarch/Desktop/nick/jetpack_5/Jetson_Linux_R35.4.1_aarch64/Linux_for_Tegra/sources/tegra/optee-src/nv-optee/optee/optee_os/lib/libutee/trace_ext.c:26
    7cc4:	97fffa73 	bl	6690 <strlen@plt>
    7cc8:	aa0003e1 	mov	x1, x0
    7ccc:	aa1303e0 	mov	x0, x19
/home/ssysarch/Desktop/nick/jetpack_5/Jetson_Linux_R35.4.1_aarch64/Linux_for_Tegra/sources/tegra/optee-src/nv-optee/optee/optee_os/lib/libutee/trace_ext.c:28
    7cd0:	f9400bf3 	ldr	x19, [sp, #16]
    7cd4:	a8c27bfd 	ldp	x29, x30, [sp], #32
/home/ssysarch/Desktop/nick/jetpack_5/Jetson_Linux_R35.4.1_aarch64/Linux_for_Tegra/sources/tegra/optee-src/nv-optee/optee/optee_os/lib/libutee/trace_ext.c:26
    7cd8:	17fff80e 	b	5d10 <_utee_log@plt>

0000000000007cdc <trace_ext_get_thread_id>:
trace_ext_get_thread_id():
/home/ssysarch/Desktop/nick/jetpack_5/Jetson_Linux_R35.4.1_aarch64/Linux_for_Tegra/sources/tegra/optee-src/nv-optee/optee/optee_os/lib/libutee/trace_ext.c:33
    7cdc:	12800000 	mov	w0, #0xffffffff            	// #-1
    7ce0:	d65f03c0 	ret

0000000000007ce4 <printf>:
printf():
/home/ssysarch/Desktop/nick/jetpack_5/Jetson_Linux_R35.4.1_aarch64/Linux_for_Tegra/sources/tegra/optee-src/nv-optee/optee/optee_os/lib/libutee/trace_ext.c:41
    7ce4:	d108c3ff 	sub	sp, sp, #0x230
    7ce8:	a9007bfd 	stp	x29, x30, [sp]
    7cec:	910003fd 	mov	x29, sp
    7cf0:	a90153f3 	stp	x19, x20, [sp, #16]
    7cf4:	aa0003f3 	mov	x19, x0
    7cf8:	910823e0 	add	x0, sp, #0x208
    7cfc:	a91f8be1 	stp	x1, x2, [sp, #504]
    7d00:	b0000081 	adrp	x1, 18000 <__func__.3717+0x3b64>
    7d04:	3d805fe0 	str	q0, [sp, #368]
    7d08:	3d8063e1 	str	q1, [sp, #384]
    7d0c:	3d8067e2 	str	q2, [sp, #400]
    7d10:	3d806be3 	str	q3, [sp, #416]
    7d14:	3d806fe4 	str	q4, [sp, #432]
    7d18:	3d8073e5 	str	q5, [sp, #448]
    7d1c:	3d8077e6 	str	q6, [sp, #464]
    7d20:	3d807be7 	str	q7, [sp, #480]
    7d24:	f947a021 	ldr	x1, [x1, #3904]
    7d28:	a9001003 	stp	x3, x4, [x0]
    7d2c:	a9011805 	stp	x5, x6, [x0, #16]
    7d30:	f90117e7 	str	x7, [sp, #552]
    7d34:	f9400020 	ldr	x0, [x1]
    7d38:	f900b7e0 	str	x0, [sp, #360]
    7d3c:	d2800000 	mov	x0, #0x0                   	// #0
/home/ssysarch/Desktop/nick/jetpack_5/Jetson_Linux_R35.4.1_aarch64/Linux_for_Tegra/sources/tegra/optee-src/nv-optee/optee/optee_os/lib/libutee/trace_ext.c:46
    7d40:	97fff98c 	bl	6370 <trace_get_level@plt>
    7d44:	7100001f 	cmp	w0, #0x0
    7d48:	5400040d 	b.le	7dc8 <printf+0xe4>
/home/ssysarch/Desktop/nick/jetpack_5/Jetson_Linux_R35.4.1_aarch64/Linux_for_Tegra/sources/tegra/optee-src/nv-optee/optee/optee_os/lib/libutee/trace_ext.c:49
    7d4c:	9108c3e0 	add	x0, sp, #0x230
/home/ssysarch/Desktop/nick/jetpack_5/Jetson_Linux_R35.4.1_aarch64/Linux_for_Tegra/sources/tegra/optee-src/nv-optee/optee/optee_os/lib/libutee/trace_ext.c:50
    7d50:	910083e3 	add	x3, sp, #0x20
/home/ssysarch/Desktop/nick/jetpack_5/Jetson_Linux_R35.4.1_aarch64/Linux_for_Tegra/sources/tegra/optee-src/nv-optee/optee/optee_os/lib/libutee/trace_ext.c:49
    7d54:	a90483e0 	stp	x0, x0, [sp, #72]
    7d58:	9107c3e0 	add	x0, sp, #0x1f0
/home/ssysarch/Desktop/nick/jetpack_5/Jetson_Linux_R35.4.1_aarch64/Linux_for_Tegra/sources/tegra/optee-src/nv-optee/optee/optee_os/lib/libutee/trace_ext.c:50
    7d5c:	910123e1 	add	x1, sp, #0x48
/home/ssysarch/Desktop/nick/jetpack_5/Jetson_Linux_R35.4.1_aarch64/Linux_for_Tegra/sources/tegra/optee-src/nv-optee/optee/optee_os/lib/libutee/trace_ext.c:49
    7d60:	f9002fe0 	str	x0, [sp, #88]
    7d64:	128006e0 	mov	w0, #0xffffffc8            	// #-56
    7d68:	b90063e0 	str	w0, [sp, #96]
    7d6c:	12800fe0 	mov	w0, #0xffffff80            	// #-128
/home/ssysarch/Desktop/nick/jetpack_5/Jetson_Linux_R35.4.1_aarch64/Linux_for_Tegra/sources/tegra/optee-src/nv-optee/optee/optee_os/lib/libutee/trace_ext.c:50
    7d70:	d2800402 	mov	x2, #0x20                  	// #32
    7d74:	9101a3f4 	add	x20, sp, #0x68
/home/ssysarch/Desktop/nick/jetpack_5/Jetson_Linux_R35.4.1_aarch64/Linux_for_Tegra/sources/tegra/optee-src/nv-optee/optee/optee_os/lib/libutee/trace_ext.c:49
    7d78:	b90067e0 	str	w0, [sp, #100]
/home/ssysarch/Desktop/nick/jetpack_5/Jetson_Linux_R35.4.1_aarch64/Linux_for_Tegra/sources/tegra/optee-src/nv-optee/optee/optee_os/lib/libutee/trace_ext.c:50
    7d7c:	aa0303e0 	mov	x0, x3
    7d80:	97fff834 	bl	5e50 <memcpy@plt>
    7d84:	aa0003e3 	mov	x3, x0
    7d88:	aa1303e2 	mov	x2, x19
    7d8c:	aa1403e0 	mov	x0, x20
    7d90:	d2802001 	mov	x1, #0x100                 	// #256
    7d94:	97fff84b 	bl	5ec0 <vsnprintf@plt>
    7d98:	2a0003f3 	mov	w19, w0
/home/ssysarch/Desktop/nick/jetpack_5/Jetson_Linux_R35.4.1_aarch64/Linux_for_Tegra/sources/tegra/optee-src/nv-optee/optee/optee_os/lib/libutee/trace_ext.c:53
    7d9c:	37f80060 	tbnz	w0, #31, 7da8 <printf+0xc4>
/home/ssysarch/Desktop/nick/jetpack_5/Jetson_Linux_R35.4.1_aarch64/Linux_for_Tegra/sources/tegra/optee-src/nv-optee/optee/optee_os/lib/libutee/trace_ext.c:56
    7da0:	aa1403e0 	mov	x0, x20
    7da4:	97fffa1b 	bl	6610 <trace_ext_puts@plt>
/home/ssysarch/Desktop/nick/jetpack_5/Jetson_Linux_R35.4.1_aarch64/Linux_for_Tegra/sources/tegra/optee-src/nv-optee/optee/optee_os/lib/libutee/trace_ext.c:59
    7da8:	b0000081 	adrp	x1, 18000 <__func__.3717+0x3b64>
    7dac:	f947a021 	ldr	x1, [x1, #3904]
    7db0:	f940b7e0 	ldr	x0, [sp, #360]
    7db4:	f9400022 	ldr	x2, [x1]
    7db8:	eb020000 	subs	x0, x0, x2
    7dbc:	d2800002 	mov	x2, #0x0                   	// #0
    7dc0:	54000080 	b.eq	7dd0 <printf+0xec>  // b.none
    7dc4:	97fff88f 	bl	6000 <__stack_chk_fail@plt>
/home/ssysarch/Desktop/nick/jetpack_5/Jetson_Linux_R35.4.1_aarch64/Linux_for_Tegra/sources/tegra/optee-src/nv-optee/optee/optee_os/lib/libutee/trace_ext.c:47
    7dc8:	52800013 	mov	w19, #0x0                   	// #0
    7dcc:	17fffff7 	b	7da8 <printf+0xc4>
/home/ssysarch/Desktop/nick/jetpack_5/Jetson_Linux_R35.4.1_aarch64/Linux_for_Tegra/sources/tegra/optee-src/nv-optee/optee/optee_os/lib/libutee/trace_ext.c:59
    7dd0:	2a1303e0 	mov	w0, w19
    7dd4:	a9407bfd 	ldp	x29, x30, [sp]
    7dd8:	a94153f3 	ldp	x19, x20, [sp, #16]
    7ddc:	9108c3ff 	add	sp, sp, #0x230
    7de0:	d65f03c0 	ret

0000000000007de4 <puts>:
puts():
/home/ssysarch/Desktop/nick/jetpack_5/Jetson_Linux_R35.4.1_aarch64/Linux_for_Tegra/sources/tegra/optee-src/nv-optee/optee/optee_os/lib/libutee/trace_ext.c:62
    7de4:	a9be7bfd 	stp	x29, x30, [sp, #-32]!
    7de8:	910003fd 	mov	x29, sp
    7dec:	f9000bf3 	str	x19, [sp, #16]
    7df0:	aa0003f3 	mov	x19, x0
/home/ssysarch/Desktop/nick/jetpack_5/Jetson_Linux_R35.4.1_aarch64/Linux_for_Tegra/sources/tegra/optee-src/nv-optee/optee/optee_os/lib/libutee/trace_ext.c:63
    7df4:	97fff95f 	bl	6370 <trace_get_level@plt>
    7df8:	7100001f 	cmp	w0, #0x0
    7dfc:	540000cd 	b.le	7e14 <puts+0x30>
/home/ssysarch/Desktop/nick/jetpack_5/Jetson_Linux_R35.4.1_aarch64/Linux_for_Tegra/sources/tegra/optee-src/nv-optee/optee/optee_os/lib/libutee/trace_ext.c:64
    7e00:	aa1303e0 	mov	x0, x19
    7e04:	97fffa03 	bl	6610 <trace_ext_puts@plt>
/home/ssysarch/Desktop/nick/jetpack_5/Jetson_Linux_R35.4.1_aarch64/Linux_for_Tegra/sources/tegra/optee-src/nv-optee/optee/optee_os/lib/libutee/trace_ext.c:65
    7e08:	90000060 	adrp	x0, 13000 <memmove+0x44>
    7e0c:	91379400 	add	x0, x0, #0xde5
    7e10:	97fffa00 	bl	6610 <trace_ext_puts@plt>
/home/ssysarch/Desktop/nick/jetpack_5/Jetson_Linux_R35.4.1_aarch64/Linux_for_Tegra/sources/tegra/optee-src/nv-optee/optee/optee_os/lib/libutee/trace_ext.c:68
    7e14:	52800020 	mov	w0, #0x1                   	// #1
    7e18:	f9400bf3 	ldr	x19, [sp, #16]
    7e1c:	a8c27bfd 	ldp	x29, x30, [sp], #32
    7e20:	d65f03c0 	ret

0000000000007e24 <putchar>:
putchar():
/home/ssysarch/Desktop/nick/jetpack_5/Jetson_Linux_R35.4.1_aarch64/Linux_for_Tegra/sources/tegra/optee-src/nv-optee/optee/optee_os/lib/libutee/trace_ext.c:71
    7e24:	a9bd7bfd 	stp	x29, x30, [sp, #-48]!
    7e28:	b0000081 	adrp	x1, 18000 <__func__.3717+0x3b64>
    7e2c:	910003fd 	mov	x29, sp
    7e30:	f947a021 	ldr	x1, [x1, #3904]
    7e34:	f9000bf3 	str	x19, [sp, #16]
    7e38:	2a0003f3 	mov	w19, w0
/home/ssysarch/Desktop/nick/jetpack_5/Jetson_Linux_R35.4.1_aarch64/Linux_for_Tegra/sources/tegra/optee-src/nv-optee/optee/optee_os/lib/libutee/trace_ext.c:72
    7e3c:	390083f3 	strb	w19, [sp, #32]
/home/ssysarch/Desktop/nick/jetpack_5/Jetson_Linux_R35.4.1_aarch64/Linux_for_Tegra/sources/tegra/optee-src/nv-optee/optee/optee_os/lib/libutee/trace_ext.c:71
    7e40:	f9400020 	ldr	x0, [x1]
    7e44:	f90017e0 	str	x0, [sp, #40]
    7e48:	d2800000 	mov	x0, #0x0                   	// #0
/home/ssysarch/Desktop/nick/jetpack_5/Jetson_Linux_R35.4.1_aarch64/Linux_for_Tegra/sources/tegra/optee-src/nv-optee/optee/optee_os/lib/libutee/trace_ext.c:72
    7e4c:	390087ff 	strb	wzr, [sp, #33]
/home/ssysarch/Desktop/nick/jetpack_5/Jetson_Linux_R35.4.1_aarch64/Linux_for_Tegra/sources/tegra/optee-src/nv-optee/optee/optee_os/lib/libutee/trace_ext.c:74
    7e50:	97fff948 	bl	6370 <trace_get_level@plt>
    7e54:	7100001f 	cmp	w0, #0x0
    7e58:	5400006d 	b.le	7e64 <putchar+0x40>
/home/ssysarch/Desktop/nick/jetpack_5/Jetson_Linux_R35.4.1_aarch64/Linux_for_Tegra/sources/tegra/optee-src/nv-optee/optee/optee_os/lib/libutee/trace_ext.c:75
    7e5c:	910083e0 	add	x0, sp, #0x20
    7e60:	97fff9ec 	bl	6610 <trace_ext_puts@plt>
/home/ssysarch/Desktop/nick/jetpack_5/Jetson_Linux_R35.4.1_aarch64/Linux_for_Tegra/sources/tegra/optee-src/nv-optee/optee/optee_os/lib/libutee/trace_ext.c:82
    7e64:	b0000081 	adrp	x1, 18000 <__func__.3717+0x3b64>
/home/ssysarch/Desktop/nick/jetpack_5/Jetson_Linux_R35.4.1_aarch64/Linux_for_Tegra/sources/tegra/optee-src/nv-optee/optee/optee_os/lib/libutee/trace_ext.c:81
    7e68:	12001e60 	and	w0, w19, #0xff
/home/ssysarch/Desktop/nick/jetpack_5/Jetson_Linux_R35.4.1_aarch64/Linux_for_Tegra/sources/tegra/optee-src/nv-optee/optee/optee_os/lib/libutee/trace_ext.c:82
    7e6c:	f947a021 	ldr	x1, [x1, #3904]
    7e70:	f94017e2 	ldr	x2, [sp, #40]
    7e74:	f9400023 	ldr	x3, [x1]
    7e78:	eb030042 	subs	x2, x2, x3
    7e7c:	d2800003 	mov	x3, #0x0                   	// #0
    7e80:	54000040 	b.eq	7e88 <putchar+0x64>  // b.none
    7e84:	97fff85f 	bl	6000 <__stack_chk_fail@plt>
    7e88:	f9400bf3 	ldr	x19, [sp, #16]
    7e8c:	a8c37bfd 	ldp	x29, x30, [sp], #48
    7e90:	d65f03c0 	ret

0000000000007e94 <check_access>:
check_access():
/home/ssysarch/Desktop/nick/jetpack_5/Jetson_Linux_R35.4.1_aarch64/Linux_for_Tegra/sources/tegra/optee-src/nv-optee/optee/optee_os/lib/libutee/tee_api_panic.c:40
    7e94:	b4000062 	cbz	x2, 7ea0 <check_access+0xc>
/home/ssysarch/Desktop/nick/jetpack_5/Jetson_Linux_R35.4.1_aarch64/Linux_for_Tegra/sources/tegra/optee-src/nv-optee/optee/optee_os/lib/libutee/tee_api_panic.c:43
    7e98:	b4000081 	cbz	x1, 7ea8 <check_access+0x14>
/home/ssysarch/Desktop/nick/jetpack_5/Jetson_Linux_R35.4.1_aarch64/Linux_for_Tegra/sources/tegra/optee-src/nv-optee/optee/optee_os/lib/libutee/tee_api_panic.c:47
    7e9c:	17fff89d 	b	6110 <TEE_CheckMemoryAccessRights@plt>
/home/ssysarch/Desktop/nick/jetpack_5/Jetson_Linux_R35.4.1_aarch64/Linux_for_Tegra/sources/tegra/optee-src/nv-optee/optee/optee_os/lib/libutee/tee_api_panic.c:41
    7ea0:	52800000 	mov	w0, #0x0                   	// #0
/home/ssysarch/Desktop/nick/jetpack_5/Jetson_Linux_R35.4.1_aarch64/Linux_for_Tegra/sources/tegra/optee-src/nv-optee/optee/optee_os/lib/libutee/tee_api_panic.c:50
    7ea4:	d65f03c0 	ret
/home/ssysarch/Desktop/nick/jetpack_5/Jetson_Linux_R35.4.1_aarch64/Linux_for_Tegra/sources/tegra/optee-src/nv-optee/optee/optee_os/lib/libutee/tee_api_panic.c:44
    7ea8:	129ffe00 	mov	w0, #0xffff000f            	// #-65521
    7eac:	17fffffe 	b	7ea4 <check_access+0x10>

0000000000007eb0 <TEE_Panic>:
TEE_Panic():
/home/ssysarch/Desktop/nick/jetpack_5/Jetson_Linux_R35.4.1_aarch64/Linux_for_Tegra/sources/tegra/optee-src/nv-optee/optee/optee_os/lib/libutee/tee_api_panic.c:24
    7eb0:	2a0003e0 	mov	w0, w0
    7eb4:	17fff87f 	b	60b0 <_utee_panic@plt>

0000000000007eb8 <check_res>:
check_res():
/home/ssysarch/Desktop/nick/jetpack_5/Jetson_Linux_R35.4.1_aarch64/Linux_for_Tegra/sources/tegra/optee-src/nv-optee/optee/optee_os/lib/libutee/tee_api_panic.c:32
    7eb8:	34000201 	cbz	w1, 7ef8 <check_res+0x40>
/home/ssysarch/Desktop/nick/jetpack_5/Jetson_Linux_R35.4.1_aarch64/Linux_for_Tegra/sources/tegra/optee-src/nv-optee/optee/optee_os/lib/libutee/tee_api_panic.c:31
    7ebc:	a9bf7bfd 	stp	x29, x30, [sp, #-16]!
    7ec0:	aa0003e5 	mov	x5, x0
    7ec4:	2a0103e6 	mov	w6, w1
    7ec8:	910003fd 	mov	x29, sp
/home/ssysarch/Desktop/nick/jetpack_5/Jetson_Linux_R35.4.1_aarch64/Linux_for_Tegra/sources/tegra/optee-src/nv-optee/optee/optee_os/lib/libutee/tee_api_panic.c:33
    7ecc:	52800023 	mov	w3, #0x1                   	// #1
    7ed0:	52800062 	mov	w2, #0x3                   	// #3
    7ed4:	52800421 	mov	w1, #0x21                  	// #33
    7ed8:	90000064 	adrp	x4, 13000 <memmove+0x44>
    7edc:	91107084 	add	x4, x4, #0x41c
    7ee0:	90000060 	adrp	x0, 13000 <memmove+0x44>
    7ee4:	91121c00 	add	x0, x0, #0x487
    7ee8:	97fff7d2 	bl	5e30 <trace_printf@plt>
/home/ssysarch/Desktop/nick/jetpack_5/Jetson_Linux_R35.4.1_aarch64/Linux_for_Tegra/sources/tegra/optee-src/nv-optee/optee/optee_os/lib/libutee/tee_api_panic.c:36
    7eec:	a8c17bfd 	ldp	x29, x30, [sp], #16
/home/ssysarch/Desktop/nick/jetpack_5/Jetson_Linux_R35.4.1_aarch64/Linux_for_Tegra/sources/tegra/optee-src/nv-optee/optee/optee_os/lib/libutee/tee_api_panic.c:34
    7ef0:	52800000 	mov	w0, #0x0                   	// #0
    7ef4:	17fff7db 	b	5e60 <TEE_Panic@plt>
    7ef8:	d65f03c0 	ret

0000000000007efc <__utee_check_outbuf_annotation>:
__utee_check_outbuf_annotation():
/home/ssysarch/Desktop/nick/jetpack_5/Jetson_Linux_R35.4.1_aarch64/Linux_for_Tegra/sources/tegra/optee-src/nv-optee/optee/optee_os/lib/libutee/tee_api_panic.c:53
    7efc:	a9be7bfd 	stp	x29, x30, [sp, #-32]!
    7f00:	910003fd 	mov	x29, sp
    7f04:	a90153f3 	stp	x19, x20, [sp, #16]
    7f08:	aa0003f4 	mov	x20, x0
    7f0c:	aa0103f3 	mov	x19, x1
check_access():
/home/ssysarch/Desktop/nick/jetpack_5/Jetson_Linux_R35.4.1_aarch64/Linux_for_Tegra/sources/tegra/optee-src/nv-optee/optee/optee_os/lib/libutee/tee_api_panic.c:43
    7f10:	b4000241 	cbz	x1, 7f58 <__utee_check_outbuf_annotation+0x5c>
/home/ssysarch/Desktop/nick/jetpack_5/Jetson_Linux_R35.4.1_aarch64/Linux_for_Tegra/sources/tegra/optee-src/nv-optee/optee/optee_os/lib/libutee/tee_api_panic.c:47
    7f14:	d2800102 	mov	x2, #0x8                   	// #8
    7f18:	52800060 	mov	w0, #0x3                   	// #3
    7f1c:	97fff87d 	bl	6110 <TEE_CheckMemoryAccessRights@plt>
    7f20:	2a0003e1 	mov	w1, w0
__utee_check_outbuf_annotation():
/home/ssysarch/Desktop/nick/jetpack_5/Jetson_Linux_R35.4.1_aarch64/Linux_for_Tegra/sources/tegra/optee-src/nv-optee/optee/optee_os/lib/libutee/tee_api_panic.c:54
    7f24:	90000060 	adrp	x0, 13000 <memmove+0x44>
    7f28:	9110a800 	add	x0, x0, #0x42a
    7f2c:	97ffffe3 	bl	7eb8 <check_res>
/home/ssysarch/Desktop/nick/jetpack_5/Jetson_Linux_R35.4.1_aarch64/Linux_for_Tegra/sources/tegra/optee-src/nv-optee/optee/optee_os/lib/libutee/tee_api_panic.c:56
    7f30:	f9400262 	ldr	x2, [x19]
    7f34:	aa1403e1 	mov	x1, x20
    7f38:	528000c0 	mov	w0, #0x6                   	// #6
    7f3c:	97ffffd6 	bl	7e94 <check_access>
    7f40:	2a0003e1 	mov	w1, w0
/home/ssysarch/Desktop/nick/jetpack_5/Jetson_Linux_R35.4.1_aarch64/Linux_for_Tegra/sources/tegra/optee-src/nv-optee/optee/optee_os/lib/libutee/tee_api_panic.c:58
    7f44:	a94153f3 	ldp	x19, x20, [sp, #16]
/home/ssysarch/Desktop/nick/jetpack_5/Jetson_Linux_R35.4.1_aarch64/Linux_for_Tegra/sources/tegra/optee-src/nv-optee/optee/optee_os/lib/libutee/tee_api_panic.c:56
    7f48:	90000060 	adrp	x0, 13000 <memmove+0x44>
    7f4c:	9110dc00 	add	x0, x0, #0x437
/home/ssysarch/Desktop/nick/jetpack_5/Jetson_Linux_R35.4.1_aarch64/Linux_for_Tegra/sources/tegra/optee-src/nv-optee/optee/optee_os/lib/libutee/tee_api_panic.c:58
    7f50:	a8c27bfd 	ldp	x29, x30, [sp], #32
/home/ssysarch/Desktop/nick/jetpack_5/Jetson_Linux_R35.4.1_aarch64/Linux_for_Tegra/sources/tegra/optee-src/nv-optee/optee/optee_os/lib/libutee/tee_api_panic.c:56
    7f54:	17ffffd9 	b	7eb8 <check_res>
check_access():
/home/ssysarch/Desktop/nick/jetpack_5/Jetson_Linux_R35.4.1_aarch64/Linux_for_Tegra/sources/tegra/optee-src/nv-optee/optee/optee_os/lib/libutee/tee_api_panic.c:44
    7f58:	129ffe01 	mov	w1, #0xffff000f            	// #-65521
    7f5c:	17fffff2 	b	7f24 <__utee_check_outbuf_annotation+0x28>

0000000000007f60 <__utee_check_gp11_outbuf_annotation>:
__utee_check_gp11_outbuf_annotation():
/home/ssysarch/Desktop/nick/jetpack_5/Jetson_Linux_R35.4.1_aarch64/Linux_for_Tegra/sources/tegra/optee-src/nv-optee/optee/optee_os/lib/libutee/tee_api_panic.c:61
    7f60:	a9be7bfd 	stp	x29, x30, [sp, #-32]!
    7f64:	910003fd 	mov	x29, sp
    7f68:	a90153f3 	stp	x19, x20, [sp, #16]
    7f6c:	aa0003f4 	mov	x20, x0
    7f70:	aa0103f3 	mov	x19, x1
check_access():
/home/ssysarch/Desktop/nick/jetpack_5/Jetson_Linux_R35.4.1_aarch64/Linux_for_Tegra/sources/tegra/optee-src/nv-optee/optee/optee_os/lib/libutee/tee_api_panic.c:43
    7f74:	b4000241 	cbz	x1, 7fbc <__utee_check_gp11_outbuf_annotation+0x5c>
/home/ssysarch/Desktop/nick/jetpack_5/Jetson_Linux_R35.4.1_aarch64/Linux_for_Tegra/sources/tegra/optee-src/nv-optee/optee/optee_os/lib/libutee/tee_api_panic.c:47
    7f78:	d2800082 	mov	x2, #0x4                   	// #4
    7f7c:	52800060 	mov	w0, #0x3                   	// #3
    7f80:	97fff864 	bl	6110 <TEE_CheckMemoryAccessRights@plt>
    7f84:	2a0003e1 	mov	w1, w0
__utee_check_gp11_outbuf_annotation():
/home/ssysarch/Desktop/nick/jetpack_5/Jetson_Linux_R35.4.1_aarch64/Linux_for_Tegra/sources/tegra/optee-src/nv-optee/optee/optee_os/lib/libutee/tee_api_panic.c:62
    7f88:	90000060 	adrp	x0, 13000 <memmove+0x44>
    7f8c:	9110a800 	add	x0, x0, #0x42a
    7f90:	97ffffca 	bl	7eb8 <check_res>
/home/ssysarch/Desktop/nick/jetpack_5/Jetson_Linux_R35.4.1_aarch64/Linux_for_Tegra/sources/tegra/optee-src/nv-optee/optee/optee_os/lib/libutee/tee_api_panic.c:64
    7f94:	b9400262 	ldr	w2, [x19]
    7f98:	aa1403e1 	mov	x1, x20
    7f9c:	528000c0 	mov	w0, #0x6                   	// #6
    7fa0:	97ffffbd 	bl	7e94 <check_access>
    7fa4:	2a0003e1 	mov	w1, w0
/home/ssysarch/Desktop/nick/jetpack_5/Jetson_Linux_R35.4.1_aarch64/Linux_for_Tegra/sources/tegra/optee-src/nv-optee/optee/optee_os/lib/libutee/tee_api_panic.c:66
    7fa8:	a94153f3 	ldp	x19, x20, [sp, #16]
/home/ssysarch/Desktop/nick/jetpack_5/Jetson_Linux_R35.4.1_aarch64/Linux_for_Tegra/sources/tegra/optee-src/nv-optee/optee/optee_os/lib/libutee/tee_api_panic.c:64
    7fac:	90000060 	adrp	x0, 13000 <memmove+0x44>
    7fb0:	9110dc00 	add	x0, x0, #0x437
/home/ssysarch/Desktop/nick/jetpack_5/Jetson_Linux_R35.4.1_aarch64/Linux_for_Tegra/sources/tegra/optee-src/nv-optee/optee/optee_os/lib/libutee/tee_api_panic.c:66
    7fb4:	a8c27bfd 	ldp	x29, x30, [sp], #32
/home/ssysarch/Desktop/nick/jetpack_5/Jetson_Linux_R35.4.1_aarch64/Linux_for_Tegra/sources/tegra/optee-src/nv-optee/optee/optee_os/lib/libutee/tee_api_panic.c:64
    7fb8:	17ffffc0 	b	7eb8 <check_res>
check_access():
/home/ssysarch/Desktop/nick/jetpack_5/Jetson_Linux_R35.4.1_aarch64/Linux_for_Tegra/sources/tegra/optee-src/nv-optee/optee/optee_os/lib/libutee/tee_api_panic.c:44
    7fbc:	129ffe01 	mov	w1, #0xffff000f            	// #-65521
    7fc0:	17fffff2 	b	7f88 <__utee_check_gp11_outbuf_annotation+0x28>

0000000000007fc4 <__utee_check_instring_annotation>:
__utee_check_instring_annotation():
/home/ssysarch/Desktop/nick/jetpack_5/Jetson_Linux_R35.4.1_aarch64/Linux_for_Tegra/sources/tegra/optee-src/nv-optee/optee/optee_os/lib/libutee/tee_api_panic.c:69
    7fc4:	a9be7bfd 	stp	x29, x30, [sp, #-32]!
    7fc8:	910003fd 	mov	x29, sp
    7fcc:	f9000bf3 	str	x19, [sp, #16]
    7fd0:	aa0003f3 	mov	x19, x0
/home/ssysarch/Desktop/nick/jetpack_5/Jetson_Linux_R35.4.1_aarch64/Linux_for_Tegra/sources/tegra/optee-src/nv-optee/optee/optee_os/lib/libutee/tee_api_panic.c:71
    7fd4:	97fff9af 	bl	6690 <strlen@plt>
/home/ssysarch/Desktop/nick/jetpack_5/Jetson_Linux_R35.4.1_aarch64/Linux_for_Tegra/sources/tegra/optee-src/nv-optee/optee/optee_os/lib/libutee/tee_api_panic.c:70
    7fd8:	91000402 	add	x2, x0, #0x1
    7fdc:	aa1303e1 	mov	x1, x19
    7fe0:	52800020 	mov	w0, #0x1                   	// #1
    7fe4:	97ffffac 	bl	7e94 <check_access>
    7fe8:	2a0003e1 	mov	w1, w0
/home/ssysarch/Desktop/nick/jetpack_5/Jetson_Linux_R35.4.1_aarch64/Linux_for_Tegra/sources/tegra/optee-src/nv-optee/optee/optee_os/lib/libutee/tee_api_panic.c:72
    7fec:	f9400bf3 	ldr	x19, [sp, #16]
/home/ssysarch/Desktop/nick/jetpack_5/Jetson_Linux_R35.4.1_aarch64/Linux_for_Tegra/sources/tegra/optee-src/nv-optee/optee/optee_os/lib/libutee/tee_api_panic.c:70
    7ff0:	90000060 	adrp	x0, 13000 <memmove+0x44>
    7ff4:	91111000 	add	x0, x0, #0x444
/home/ssysarch/Desktop/nick/jetpack_5/Jetson_Linux_R35.4.1_aarch64/Linux_for_Tegra/sources/tegra/optee-src/nv-optee/optee/optee_os/lib/libutee/tee_api_panic.c:72
    7ff8:	a8c27bfd 	ldp	x29, x30, [sp], #32
/home/ssysarch/Desktop/nick/jetpack_5/Jetson_Linux_R35.4.1_aarch64/Linux_for_Tegra/sources/tegra/optee-src/nv-optee/optee/optee_os/lib/libutee/tee_api_panic.c:70
    7ffc:	17ffffaf 	b	7eb8 <check_res>

0000000000008000 <__utee_check_outstring_annotation>:
__utee_check_outstring_annotation():
/home/ssysarch/Desktop/nick/jetpack_5/Jetson_Linux_R35.4.1_aarch64/Linux_for_Tegra/sources/tegra/optee-src/nv-optee/optee/optee_os/lib/libutee/tee_api_panic.c:75
    8000:	a9be7bfd 	stp	x29, x30, [sp, #-32]!
    8004:	910003fd 	mov	x29, sp
    8008:	a90153f3 	stp	x19, x20, [sp, #16]
    800c:	aa0003f4 	mov	x20, x0
    8010:	aa0103f3 	mov	x19, x1
check_access():
/home/ssysarch/Desktop/nick/jetpack_5/Jetson_Linux_R35.4.1_aarch64/Linux_for_Tegra/sources/tegra/optee-src/nv-optee/optee/optee_os/lib/libutee/tee_api_panic.c:43
    8014:	b4000241 	cbz	x1, 805c <__utee_check_outstring_annotation+0x5c>
/home/ssysarch/Desktop/nick/jetpack_5/Jetson_Linux_R35.4.1_aarch64/Linux_for_Tegra/sources/tegra/optee-src/nv-optee/optee/optee_os/lib/libutee/tee_api_panic.c:47
    8018:	d2800102 	mov	x2, #0x8                   	// #8
    801c:	52800060 	mov	w0, #0x3                   	// #3
    8020:	97fff83c 	bl	6110 <TEE_CheckMemoryAccessRights@plt>
    8024:	2a0003e1 	mov	w1, w0
__utee_check_outstring_annotation():
/home/ssysarch/Desktop/nick/jetpack_5/Jetson_Linux_R35.4.1_aarch64/Linux_for_Tegra/sources/tegra/optee-src/nv-optee/optee/optee_os/lib/libutee/tee_api_panic.c:76
    8028:	f0000040 	adrp	x0, 13000 <memmove+0x44>
    802c:	91113c00 	add	x0, x0, #0x44f
    8030:	97ffffa2 	bl	7eb8 <check_res>
/home/ssysarch/Desktop/nick/jetpack_5/Jetson_Linux_R35.4.1_aarch64/Linux_for_Tegra/sources/tegra/optee-src/nv-optee/optee/optee_os/lib/libutee/tee_api_panic.c:78
    8034:	f9400262 	ldr	x2, [x19]
    8038:	aa1403e1 	mov	x1, x20
    803c:	528000c0 	mov	w0, #0x6                   	// #6
    8040:	97ffff95 	bl	7e94 <check_access>
    8044:	2a0003e1 	mov	w1, w0
/home/ssysarch/Desktop/nick/jetpack_5/Jetson_Linux_R35.4.1_aarch64/Linux_for_Tegra/sources/tegra/optee-src/nv-optee/optee/optee_os/lib/libutee/tee_api_panic.c:80
    8048:	a94153f3 	ldp	x19, x20, [sp, #16]
/home/ssysarch/Desktop/nick/jetpack_5/Jetson_Linux_R35.4.1_aarch64/Linux_for_Tegra/sources/tegra/optee-src/nv-optee/optee/optee_os/lib/libutee/tee_api_panic.c:78
    804c:	f0000040 	adrp	x0, 13000 <memmove+0x44>
    8050:	91117c00 	add	x0, x0, #0x45f
/home/ssysarch/Desktop/nick/jetpack_5/Jetson_Linux_R35.4.1_aarch64/Linux_for_Tegra/sources/tegra/optee-src/nv-optee/optee/optee_os/lib/libutee/tee_api_panic.c:80
    8054:	a8c27bfd 	ldp	x29, x30, [sp], #32
/home/ssysarch/Desktop/nick/jetpack_5/Jetson_Linux_R35.4.1_aarch64/Linux_for_Tegra/sources/tegra/optee-src/nv-optee/optee/optee_os/lib/libutee/tee_api_panic.c:78
    8058:	17ffff98 	b	7eb8 <check_res>
check_access():
/home/ssysarch/Desktop/nick/jetpack_5/Jetson_Linux_R35.4.1_aarch64/Linux_for_Tegra/sources/tegra/optee-src/nv-optee/optee/optee_os/lib/libutee/tee_api_panic.c:44
    805c:	129ffe01 	mov	w1, #0xffff000f            	// #-65521
    8060:	17fffff2 	b	8028 <__utee_check_outstring_annotation+0x28>

0000000000008064 <__utee_check_gp11_outstring_annotation>:
__utee_check_gp11_outstring_annotation():
/home/ssysarch/Desktop/nick/jetpack_5/Jetson_Linux_R35.4.1_aarch64/Linux_for_Tegra/sources/tegra/optee-src/nv-optee/optee/optee_os/lib/libutee/tee_api_panic.c:83
    8064:	a9be7bfd 	stp	x29, x30, [sp, #-32]!
    8068:	910003fd 	mov	x29, sp
    806c:	a90153f3 	stp	x19, x20, [sp, #16]
    8070:	aa0003f4 	mov	x20, x0
    8074:	aa0103f3 	mov	x19, x1
check_access():
/home/ssysarch/Desktop/nick/jetpack_5/Jetson_Linux_R35.4.1_aarch64/Linux_for_Tegra/sources/tegra/optee-src/nv-optee/optee/optee_os/lib/libutee/tee_api_panic.c:43
    8078:	b4000241 	cbz	x1, 80c0 <__utee_check_gp11_outstring_annotation+0x5c>
/home/ssysarch/Desktop/nick/jetpack_5/Jetson_Linux_R35.4.1_aarch64/Linux_for_Tegra/sources/tegra/optee-src/nv-optee/optee/optee_os/lib/libutee/tee_api_panic.c:47
    807c:	d2800082 	mov	x2, #0x4                   	// #4
    8080:	52800060 	mov	w0, #0x3                   	// #3
    8084:	97fff823 	bl	6110 <TEE_CheckMemoryAccessRights@plt>
    8088:	2a0003e1 	mov	w1, w0
__utee_check_gp11_outstring_annotation():
/home/ssysarch/Desktop/nick/jetpack_5/Jetson_Linux_R35.4.1_aarch64/Linux_for_Tegra/sources/tegra/optee-src/nv-optee/optee/optee_os/lib/libutee/tee_api_panic.c:84
    808c:	f0000040 	adrp	x0, 13000 <memmove+0x44>
    8090:	91113c00 	add	x0, x0, #0x44f
    8094:	97ffff89 	bl	7eb8 <check_res>
/home/ssysarch/Desktop/nick/jetpack_5/Jetson_Linux_R35.4.1_aarch64/Linux_for_Tegra/sources/tegra/optee-src/nv-optee/optee/optee_os/lib/libutee/tee_api_panic.c:86
    8098:	b9400262 	ldr	w2, [x19]
    809c:	aa1403e1 	mov	x1, x20
    80a0:	528000c0 	mov	w0, #0x6                   	// #6
    80a4:	97ffff7c 	bl	7e94 <check_access>
    80a8:	2a0003e1 	mov	w1, w0
/home/ssysarch/Desktop/nick/jetpack_5/Jetson_Linux_R35.4.1_aarch64/Linux_for_Tegra/sources/tegra/optee-src/nv-optee/optee/optee_os/lib/libutee/tee_api_panic.c:88
    80ac:	a94153f3 	ldp	x19, x20, [sp, #16]
/home/ssysarch/Desktop/nick/jetpack_5/Jetson_Linux_R35.4.1_aarch64/Linux_for_Tegra/sources/tegra/optee-src/nv-optee/optee/optee_os/lib/libutee/tee_api_panic.c:86
    80b0:	f0000040 	adrp	x0, 13000 <memmove+0x44>
    80b4:	91117c00 	add	x0, x0, #0x45f
/home/ssysarch/Desktop/nick/jetpack_5/Jetson_Linux_R35.4.1_aarch64/Linux_for_Tegra/sources/tegra/optee-src/nv-optee/optee/optee_os/lib/libutee/tee_api_panic.c:88
    80b8:	a8c27bfd 	ldp	x29, x30, [sp], #32
/home/ssysarch/Desktop/nick/jetpack_5/Jetson_Linux_R35.4.1_aarch64/Linux_for_Tegra/sources/tegra/optee-src/nv-optee/optee/optee_os/lib/libutee/tee_api_panic.c:86
    80bc:	17ffff7f 	b	7eb8 <check_res>
check_access():
/home/ssysarch/Desktop/nick/jetpack_5/Jetson_Linux_R35.4.1_aarch64/Linux_for_Tegra/sources/tegra/optee-src/nv-optee/optee/optee_os/lib/libutee/tee_api_panic.c:44
    80c0:	129ffe01 	mov	w1, #0xffff000f            	// #-65521
    80c4:	17fffff2 	b	808c <__utee_check_gp11_outstring_annotation+0x28>

00000000000080c8 <__utee_check_out_annotation>:
__utee_check_out_annotation():
/home/ssysarch/Desktop/nick/jetpack_5/Jetson_Linux_R35.4.1_aarch64/Linux_for_Tegra/sources/tegra/optee-src/nv-optee/optee/optee_os/lib/libutee/tee_api_panic.c:91
    80c8:	a9bf7bfd 	stp	x29, x30, [sp, #-16]!
/home/ssysarch/Desktop/nick/jetpack_5/Jetson_Linux_R35.4.1_aarch64/Linux_for_Tegra/sources/tegra/optee-src/nv-optee/optee/optee_os/lib/libutee/tee_api_panic.c:92
    80cc:	aa0103e2 	mov	x2, x1
    80d0:	aa0003e1 	mov	x1, x0
/home/ssysarch/Desktop/nick/jetpack_5/Jetson_Linux_R35.4.1_aarch64/Linux_for_Tegra/sources/tegra/optee-src/nv-optee/optee/optee_os/lib/libutee/tee_api_panic.c:91
    80d4:	910003fd 	mov	x29, sp
/home/ssysarch/Desktop/nick/jetpack_5/Jetson_Linux_R35.4.1_aarch64/Linux_for_Tegra/sources/tegra/optee-src/nv-optee/optee/optee_os/lib/libutee/tee_api_panic.c:92
    80d8:	52800040 	mov	w0, #0x2                   	// #2
    80dc:	97ffff6e 	bl	7e94 <check_access>
/home/ssysarch/Desktop/nick/jetpack_5/Jetson_Linux_R35.4.1_aarch64/Linux_for_Tegra/sources/tegra/optee-src/nv-optee/optee/optee_os/lib/libutee/tee_api_panic.c:94
    80e0:	a8c17bfd 	ldp	x29, x30, [sp], #16
/home/ssysarch/Desktop/nick/jetpack_5/Jetson_Linux_R35.4.1_aarch64/Linux_for_Tegra/sources/tegra/optee-src/nv-optee/optee/optee_os/lib/libutee/tee_api_panic.c:92
    80e4:	2a0003e1 	mov	w1, w0
    80e8:	f0000040 	adrp	x0, 13000 <memmove+0x44>
    80ec:	9111bc00 	add	x0, x0, #0x46f
    80f0:	17ffff72 	b	7eb8 <check_res>

00000000000080f4 <__utee_check_attr_in_annotation>:
__utee_check_attr_in_annotation():
/home/ssysarch/Desktop/nick/jetpack_5/Jetson_Linux_R35.4.1_aarch64/Linux_for_Tegra/sources/tegra/optee-src/nv-optee/optee/optee_os/lib/libutee/tee_api_panic.c:98
    80f4:	d2800302 	mov	x2, #0x18                  	// #24
/home/ssysarch/Desktop/nick/jetpack_5/Jetson_Linux_R35.4.1_aarch64/Linux_for_Tegra/sources/tegra/optee-src/nv-optee/optee/optee_os/lib/libutee/tee_api_panic.c:97
    80f8:	a9bf7bfd 	stp	x29, x30, [sp, #-16]!
/home/ssysarch/Desktop/nick/jetpack_5/Jetson_Linux_R35.4.1_aarch64/Linux_for_Tegra/sources/tegra/optee-src/nv-optee/optee/optee_os/lib/libutee/tee_api_panic.c:98
    80fc:	9b027c22 	mul	x2, x1, x2
/home/ssysarch/Desktop/nick/jetpack_5/Jetson_Linux_R35.4.1_aarch64/Linux_for_Tegra/sources/tegra/optee-src/nv-optee/optee/optee_os/lib/libutee/tee_api_panic.c:97
    8100:	910003fd 	mov	x29, sp
/home/ssysarch/Desktop/nick/jetpack_5/Jetson_Linux_R35.4.1_aarch64/Linux_for_Tegra/sources/tegra/optee-src/nv-optee/optee/optee_os/lib/libutee/tee_api_panic.c:98
    8104:	aa0003e1 	mov	x1, x0
    8108:	52800020 	mov	w0, #0x1                   	// #1
    810c:	97ffff62 	bl	7e94 <check_access>
    8110:	2a0003e1 	mov	w1, w0
/home/ssysarch/Desktop/nick/jetpack_5/Jetson_Linux_R35.4.1_aarch64/Linux_for_Tegra/sources/tegra/optee-src/nv-optee/optee/optee_os/lib/libutee/tee_api_panic.c:100
    8114:	a8c17bfd 	ldp	x29, x30, [sp], #16
/home/ssysarch/Desktop/nick/jetpack_5/Jetson_Linux_R35.4.1_aarch64/Linux_for_Tegra/sources/tegra/optee-src/nv-optee/optee/optee_os/lib/libutee/tee_api_panic.c:98
    8118:	f0000040 	adrp	x0, 13000 <memmove+0x44>
    811c:	9111d400 	add	x0, x0, #0x475
    8120:	17ffff66 	b	7eb8 <check_res>

0000000000008124 <__utee_check_gp11_attr_in_annotation>:
__utee_check_gp11_attr_in_annotation():
/home/ssysarch/Desktop/nick/jetpack_5/Jetson_Linux_R35.4.1_aarch64/Linux_for_Tegra/sources/tegra/optee-src/nv-optee/optee/optee_os/lib/libutee/tee_api_panic.c:106
    8124:	d2800302 	mov	x2, #0x18                  	// #24
/home/ssysarch/Desktop/nick/jetpack_5/Jetson_Linux_R35.4.1_aarch64/Linux_for_Tegra/sources/tegra/optee-src/nv-optee/optee/optee_os/lib/libutee/tee_api_panic.c:105
    8128:	a9bf7bfd 	stp	x29, x30, [sp, #-16]!
/home/ssysarch/Desktop/nick/jetpack_5/Jetson_Linux_R35.4.1_aarch64/Linux_for_Tegra/sources/tegra/optee-src/nv-optee/optee/optee_os/lib/libutee/tee_api_panic.c:106
    812c:	9b027c22 	mul	x2, x1, x2
/home/ssysarch/Desktop/nick/jetpack_5/Jetson_Linux_R35.4.1_aarch64/Linux_for_Tegra/sources/tegra/optee-src/nv-optee/optee/optee_os/lib/libutee/tee_api_panic.c:105
    8130:	910003fd 	mov	x29, sp
/home/ssysarch/Desktop/nick/jetpack_5/Jetson_Linux_R35.4.1_aarch64/Linux_for_Tegra/sources/tegra/optee-src/nv-optee/optee/optee_os/lib/libutee/tee_api_panic.c:106
    8134:	aa0003e1 	mov	x1, x0
    8138:	52800020 	mov	w0, #0x1                   	// #1
    813c:	97ffff56 	bl	7e94 <check_access>
    8140:	2a0003e1 	mov	w1, w0
/home/ssysarch/Desktop/nick/jetpack_5/Jetson_Linux_R35.4.1_aarch64/Linux_for_Tegra/sources/tegra/optee-src/nv-optee/optee/optee_os/lib/libutee/tee_api_panic.c:108
    8144:	a8c17bfd 	ldp	x29, x30, [sp], #16
/home/ssysarch/Desktop/nick/jetpack_5/Jetson_Linux_R35.4.1_aarch64/Linux_for_Tegra/sources/tegra/optee-src/nv-optee/optee/optee_os/lib/libutee/tee_api_panic.c:106
    8148:	f0000040 	adrp	x0, 13000 <memmove+0x44>
    814c:	9111d400 	add	x0, x0, #0x475
    8150:	17ffff5a 	b	7eb8 <check_res>

0000000000008154 <__utee_check_inout_annotation>:
__utee_check_inout_annotation():
/home/ssysarch/Desktop/nick/jetpack_5/Jetson_Linux_R35.4.1_aarch64/Linux_for_Tegra/sources/tegra/optee-src/nv-optee/optee/optee_os/lib/libutee/tee_api_panic.c:111
    8154:	a9bf7bfd 	stp	x29, x30, [sp, #-16]!
/home/ssysarch/Desktop/nick/jetpack_5/Jetson_Linux_R35.4.1_aarch64/Linux_for_Tegra/sources/tegra/optee-src/nv-optee/optee/optee_os/lib/libutee/tee_api_panic.c:112
    8158:	aa0103e2 	mov	x2, x1
    815c:	aa0003e1 	mov	x1, x0
/home/ssysarch/Desktop/nick/jetpack_5/Jetson_Linux_R35.4.1_aarch64/Linux_for_Tegra/sources/tegra/optee-src/nv-optee/optee/optee_os/lib/libutee/tee_api_panic.c:111
    8160:	910003fd 	mov	x29, sp
/home/ssysarch/Desktop/nick/jetpack_5/Jetson_Linux_R35.4.1_aarch64/Linux_for_Tegra/sources/tegra/optee-src/nv-optee/optee/optee_os/lib/libutee/tee_api_panic.c:112
    8164:	52800060 	mov	w0, #0x3                   	// #3
    8168:	97ffff4b 	bl	7e94 <check_access>
/home/ssysarch/Desktop/nick/jetpack_5/Jetson_Linux_R35.4.1_aarch64/Linux_for_Tegra/sources/tegra/optee-src/nv-optee/optee/optee_os/lib/libutee/tee_api_panic.c:114
    816c:	a8c17bfd 	ldp	x29, x30, [sp], #16
/home/ssysarch/Desktop/nick/jetpack_5/Jetson_Linux_R35.4.1_aarch64/Linux_for_Tegra/sources/tegra/optee-src/nv-optee/optee/optee_os/lib/libutee/tee_api_panic.c:112
    8170:	2a0003e1 	mov	w1, w0
    8174:	f0000040 	adrp	x0, 13000 <memmove+0x44>
    8178:	9111fc00 	add	x0, x0, #0x47f
    817c:	17ffff4f 	b	7eb8 <check_res>

0000000000008180 <_utee_panic>:
_utee_panic():
/home/ssysarch/Desktop/nick/jetpack_5/Jetson_Linux_R35.4.1_aarch64/Linux_for_Tegra/sources/tegra/optee-src/nv-optee/optee/optee_os/lib/libutee/arch/arm/utee_syscalls_a64.S:41
    8180:	a9bf7bfd 	stp	x29, x30, [sp, #-16]!
/home/ssysarch/Desktop/nick/jetpack_5/Jetson_Linux_R35.4.1_aarch64/Linux_for_Tegra/sources/tegra/optee-src/nv-optee/optee/optee_os/lib/libutee/arch/arm/utee_syscalls_a64.S:42
    8184:	910003e1 	mov	x1, sp
/home/ssysarch/Desktop/nick/jetpack_5/Jetson_Linux_R35.4.1_aarch64/Linux_for_Tegra/sources/tegra/optee-src/nv-optee/optee/optee_os/lib/libutee/arch/arm/utee_syscalls_a64.S:43
    8188:	97fff7ba 	bl	6070 <__utee_panic@plt>

000000000000818c <_utee_return>:
_utee_return():
/home/ssysarch/Desktop/nick/jetpack_5/Jetson_Linux_R35.4.1_aarch64/Linux_for_Tegra/sources/tegra/optee-src/nv-optee/optee/optee_os/lib/libutee/include/utee_syscalls_asm.S:8
    818c:	d2800008 	mov	x8, #0x0                   	// #0
    8190:	d4000001 	svc	#0x0
    8194:	d65f03c0 	ret

0000000000008198 <_utee_log>:
_utee_log():
/home/ssysarch/Desktop/nick/jetpack_5/Jetson_Linux_R35.4.1_aarch64/Linux_for_Tegra/sources/tegra/optee-src/nv-optee/optee/optee_os/lib/libutee/include/utee_syscalls_asm.S:10
    8198:	d2800028 	mov	x8, #0x1                   	// #1
    819c:	d4000001 	svc	#0x0
    81a0:	d65f03c0 	ret

00000000000081a4 <__utee_panic>:
__utee_panic():
/home/ssysarch/Desktop/nick/jetpack_5/Jetson_Linux_R35.4.1_aarch64/Linux_for_Tegra/sources/tegra/optee-src/nv-optee/optee/optee_os/lib/libutee/include/utee_syscalls_asm.S:12
    81a4:	d2800048 	mov	x8, #0x2                   	// #2
    81a8:	d4000001 	svc	#0x0
    81ac:	d65f03c0 	ret

00000000000081b0 <_utee_get_property>:
_utee_get_property():
/home/ssysarch/Desktop/nick/jetpack_5/Jetson_Linux_R35.4.1_aarch64/Linux_for_Tegra/sources/tegra/optee-src/nv-optee/optee/optee_os/lib/libutee/include/utee_syscalls_asm.S:14
    81b0:	d2800068 	mov	x8, #0x3                   	// #3
    81b4:	d4000001 	svc	#0x0
    81b8:	d65f03c0 	ret

00000000000081bc <_utee_get_property_name_to_index>:
_utee_get_property_name_to_index():
/home/ssysarch/Desktop/nick/jetpack_5/Jetson_Linux_R35.4.1_aarch64/Linux_for_Tegra/sources/tegra/optee-src/nv-optee/optee/optee_os/lib/libutee/include/utee_syscalls_asm.S:16
    81bc:	d2800088 	mov	x8, #0x4                   	// #4
    81c0:	d4000001 	svc	#0x0
    81c4:	d65f03c0 	ret

00000000000081c8 <_utee_open_ta_session>:
_utee_open_ta_session():
/home/ssysarch/Desktop/nick/jetpack_5/Jetson_Linux_R35.4.1_aarch64/Linux_for_Tegra/sources/tegra/optee-src/nv-optee/optee/optee_os/lib/libutee/include/utee_syscalls_asm.S:19
    81c8:	d28000a8 	mov	x8, #0x5                   	// #5
    81cc:	d4000001 	svc	#0x0
    81d0:	d65f03c0 	ret

00000000000081d4 <_utee_close_ta_session>:
_utee_close_ta_session():
/home/ssysarch/Desktop/nick/jetpack_5/Jetson_Linux_R35.4.1_aarch64/Linux_for_Tegra/sources/tegra/optee-src/nv-optee/optee/optee_os/lib/libutee/include/utee_syscalls_asm.S:21
    81d4:	d28000c8 	mov	x8, #0x6                   	// #6
    81d8:	d4000001 	svc	#0x0
    81dc:	d65f03c0 	ret

00000000000081e0 <_utee_invoke_ta_command>:
_utee_invoke_ta_command():
/home/ssysarch/Desktop/nick/jetpack_5/Jetson_Linux_R35.4.1_aarch64/Linux_for_Tegra/sources/tegra/optee-src/nv-optee/optee/optee_os/lib/libutee/include/utee_syscalls_asm.S:23
    81e0:	d28000e8 	mov	x8, #0x7                   	// #7
    81e4:	d4000001 	svc	#0x0
    81e8:	d65f03c0 	ret

00000000000081ec <_utee_get_cancellation_flag>:
_utee_get_cancellation_flag():
/home/ssysarch/Desktop/nick/jetpack_5/Jetson_Linux_R35.4.1_aarch64/Linux_for_Tegra/sources/tegra/optee-src/nv-optee/optee/optee_os/lib/libutee/include/utee_syscalls_asm.S:25
    81ec:	d2800128 	mov	x8, #0x9                   	// #9
    81f0:	d4000001 	svc	#0x0
    81f4:	d65f03c0 	ret

00000000000081f8 <_utee_check_access_rights>:
_utee_check_access_rights():
/home/ssysarch/Desktop/nick/jetpack_5/Jetson_Linux_R35.4.1_aarch64/Linux_for_Tegra/sources/tegra/optee-src/nv-optee/optee/optee_os/lib/libutee/include/utee_syscalls_asm.S:28
    81f8:	d2800108 	mov	x8, #0x8                   	// #8
    81fc:	d4000001 	svc	#0x0
    8200:	d65f03c0 	ret

0000000000008204 <_utee_unmask_cancellation>:
_utee_unmask_cancellation():
/home/ssysarch/Desktop/nick/jetpack_5/Jetson_Linux_R35.4.1_aarch64/Linux_for_Tegra/sources/tegra/optee-src/nv-optee/optee/optee_os/lib/libutee/include/utee_syscalls_asm.S:30
    8204:	d2800148 	mov	x8, #0xa                   	// #10
    8208:	d4000001 	svc	#0x0
    820c:	d65f03c0 	ret

0000000000008210 <_utee_mask_cancellation>:
_utee_mask_cancellation():
/home/ssysarch/Desktop/nick/jetpack_5/Jetson_Linux_R35.4.1_aarch64/Linux_for_Tegra/sources/tegra/optee-src/nv-optee/optee/optee_os/lib/libutee/include/utee_syscalls_asm.S:32
    8210:	d2800168 	mov	x8, #0xb                   	// #11
    8214:	d4000001 	svc	#0x0
    8218:	d65f03c0 	ret

000000000000821c <_utee_wait>:
_utee_wait():
/home/ssysarch/Desktop/nick/jetpack_5/Jetson_Linux_R35.4.1_aarch64/Linux_for_Tegra/sources/tegra/optee-src/nv-optee/optee/optee_os/lib/libutee/include/utee_syscalls_asm.S:34
    821c:	d2800188 	mov	x8, #0xc                   	// #12
    8220:	d4000001 	svc	#0x0
    8224:	d65f03c0 	ret

0000000000008228 <_utee_get_time>:
_utee_get_time():
/home/ssysarch/Desktop/nick/jetpack_5/Jetson_Linux_R35.4.1_aarch64/Linux_for_Tegra/sources/tegra/optee-src/nv-optee/optee/optee_os/lib/libutee/include/utee_syscalls_asm.S:36
    8228:	d28001a8 	mov	x8, #0xd                   	// #13
    822c:	d4000001 	svc	#0x0
    8230:	d65f03c0 	ret

0000000000008234 <_utee_set_ta_time>:
_utee_set_ta_time():
/home/ssysarch/Desktop/nick/jetpack_5/Jetson_Linux_R35.4.1_aarch64/Linux_for_Tegra/sources/tegra/optee-src/nv-optee/optee/optee_os/lib/libutee/include/utee_syscalls_asm.S:38
    8234:	d28001c8 	mov	x8, #0xe                   	// #14
    8238:	d4000001 	svc	#0x0
    823c:	d65f03c0 	ret

0000000000008240 <_utee_cryp_state_alloc>:
_utee_cryp_state_alloc():
/home/ssysarch/Desktop/nick/jetpack_5/Jetson_Linux_R35.4.1_aarch64/Linux_for_Tegra/sources/tegra/optee-src/nv-optee/optee/optee_os/lib/libutee/include/utee_syscalls_asm.S:40
    8240:	d28001e8 	mov	x8, #0xf                   	// #15
    8244:	d4000001 	svc	#0x0
    8248:	d65f03c0 	ret

000000000000824c <_utee_cryp_state_copy>:
_utee_cryp_state_copy():
/home/ssysarch/Desktop/nick/jetpack_5/Jetson_Linux_R35.4.1_aarch64/Linux_for_Tegra/sources/tegra/optee-src/nv-optee/optee/optee_os/lib/libutee/include/utee_syscalls_asm.S:42
    824c:	d2800208 	mov	x8, #0x10                  	// #16
    8250:	d4000001 	svc	#0x0
    8254:	d65f03c0 	ret

0000000000008258 <_utee_cryp_state_free>:
_utee_cryp_state_free():
/home/ssysarch/Desktop/nick/jetpack_5/Jetson_Linux_R35.4.1_aarch64/Linux_for_Tegra/sources/tegra/optee-src/nv-optee/optee/optee_os/lib/libutee/include/utee_syscalls_asm.S:44
    8258:	d2800228 	mov	x8, #0x11                  	// #17
    825c:	d4000001 	svc	#0x0
    8260:	d65f03c0 	ret

0000000000008264 <_utee_hash_init>:
_utee_hash_init():
/home/ssysarch/Desktop/nick/jetpack_5/Jetson_Linux_R35.4.1_aarch64/Linux_for_Tegra/sources/tegra/optee-src/nv-optee/optee/optee_os/lib/libutee/include/utee_syscalls_asm.S:46
    8264:	d2800248 	mov	x8, #0x12                  	// #18
    8268:	d4000001 	svc	#0x0
    826c:	d65f03c0 	ret

0000000000008270 <_utee_hash_update>:
_utee_hash_update():
/home/ssysarch/Desktop/nick/jetpack_5/Jetson_Linux_R35.4.1_aarch64/Linux_for_Tegra/sources/tegra/optee-src/nv-optee/optee/optee_os/lib/libutee/include/utee_syscalls_asm.S:48
    8270:	d2800268 	mov	x8, #0x13                  	// #19
    8274:	d4000001 	svc	#0x0
    8278:	d65f03c0 	ret

000000000000827c <_utee_hash_final>:
_utee_hash_final():
/home/ssysarch/Desktop/nick/jetpack_5/Jetson_Linux_R35.4.1_aarch64/Linux_for_Tegra/sources/tegra/optee-src/nv-optee/optee/optee_os/lib/libutee/include/utee_syscalls_asm.S:50
    827c:	d2800288 	mov	x8, #0x14                  	// #20
    8280:	d4000001 	svc	#0x0
    8284:	d65f03c0 	ret

0000000000008288 <_utee_cipher_init>:
_utee_cipher_init():
/home/ssysarch/Desktop/nick/jetpack_5/Jetson_Linux_R35.4.1_aarch64/Linux_for_Tegra/sources/tegra/optee-src/nv-optee/optee/optee_os/lib/libutee/include/utee_syscalls_asm.S:52
    8288:	d28002a8 	mov	x8, #0x15                  	// #21
    828c:	d4000001 	svc	#0x0
    8290:	d65f03c0 	ret

0000000000008294 <_utee_cipher_update>:
_utee_cipher_update():
/home/ssysarch/Desktop/nick/jetpack_5/Jetson_Linux_R35.4.1_aarch64/Linux_for_Tegra/sources/tegra/optee-src/nv-optee/optee/optee_os/lib/libutee/include/utee_syscalls_asm.S:54
    8294:	d28002c8 	mov	x8, #0x16                  	// #22
    8298:	d4000001 	svc	#0x0
    829c:	d65f03c0 	ret

00000000000082a0 <_utee_cipher_final>:
_utee_cipher_final():
/home/ssysarch/Desktop/nick/jetpack_5/Jetson_Linux_R35.4.1_aarch64/Linux_for_Tegra/sources/tegra/optee-src/nv-optee/optee/optee_os/lib/libutee/include/utee_syscalls_asm.S:56
    82a0:	d28002e8 	mov	x8, #0x17                  	// #23
    82a4:	d4000001 	svc	#0x0
    82a8:	d65f03c0 	ret

00000000000082ac <_utee_cryp_obj_get_info>:
_utee_cryp_obj_get_info():
/home/ssysarch/Desktop/nick/jetpack_5/Jetson_Linux_R35.4.1_aarch64/Linux_for_Tegra/sources/tegra/optee-src/nv-optee/optee/optee_os/lib/libutee/include/utee_syscalls_asm.S:58
    82ac:	d2800308 	mov	x8, #0x18                  	// #24
    82b0:	d4000001 	svc	#0x0
    82b4:	d65f03c0 	ret

00000000000082b8 <_utee_cryp_obj_restrict_usage>:
_utee_cryp_obj_restrict_usage():
/home/ssysarch/Desktop/nick/jetpack_5/Jetson_Linux_R35.4.1_aarch64/Linux_for_Tegra/sources/tegra/optee-src/nv-optee/optee/optee_os/lib/libutee/include/utee_syscalls_asm.S:60
    82b8:	d2800328 	mov	x8, #0x19                  	// #25
    82bc:	d4000001 	svc	#0x0
    82c0:	d65f03c0 	ret

00000000000082c4 <_utee_cryp_obj_get_attr>:
_utee_cryp_obj_get_attr():
/home/ssysarch/Desktop/nick/jetpack_5/Jetson_Linux_R35.4.1_aarch64/Linux_for_Tegra/sources/tegra/optee-src/nv-optee/optee/optee_os/lib/libutee/include/utee_syscalls_asm.S:63
    82c4:	d2800348 	mov	x8, #0x1a                  	// #26
    82c8:	d4000001 	svc	#0x0
    82cc:	d65f03c0 	ret

00000000000082d0 <_utee_cryp_obj_alloc>:
_utee_cryp_obj_alloc():
/home/ssysarch/Desktop/nick/jetpack_5/Jetson_Linux_R35.4.1_aarch64/Linux_for_Tegra/sources/tegra/optee-src/nv-optee/optee/optee_os/lib/libutee/include/utee_syscalls_asm.S:65
    82d0:	d2800368 	mov	x8, #0x1b                  	// #27
    82d4:	d4000001 	svc	#0x0
    82d8:	d65f03c0 	ret

00000000000082dc <_utee_cryp_obj_close>:
_utee_cryp_obj_close():
/home/ssysarch/Desktop/nick/jetpack_5/Jetson_Linux_R35.4.1_aarch64/Linux_for_Tegra/sources/tegra/optee-src/nv-optee/optee/optee_os/lib/libutee/include/utee_syscalls_asm.S:67
    82dc:	d2800388 	mov	x8, #0x1c                  	// #28
    82e0:	d4000001 	svc	#0x0
    82e4:	d65f03c0 	ret

00000000000082e8 <_utee_cryp_obj_reset>:
_utee_cryp_obj_reset():
/home/ssysarch/Desktop/nick/jetpack_5/Jetson_Linux_R35.4.1_aarch64/Linux_for_Tegra/sources/tegra/optee-src/nv-optee/optee/optee_os/lib/libutee/include/utee_syscalls_asm.S:69
    82e8:	d28003a8 	mov	x8, #0x1d                  	// #29
    82ec:	d4000001 	svc	#0x0
    82f0:	d65f03c0 	ret

00000000000082f4 <_utee_cryp_obj_populate>:
_utee_cryp_obj_populate():
/home/ssysarch/Desktop/nick/jetpack_5/Jetson_Linux_R35.4.1_aarch64/Linux_for_Tegra/sources/tegra/optee-src/nv-optee/optee/optee_os/lib/libutee/include/utee_syscalls_asm.S:71
    82f4:	d28003c8 	mov	x8, #0x1e                  	// #30
    82f8:	d4000001 	svc	#0x0
    82fc:	d65f03c0 	ret

0000000000008300 <_utee_cryp_obj_copy>:
_utee_cryp_obj_copy():
/home/ssysarch/Desktop/nick/jetpack_5/Jetson_Linux_R35.4.1_aarch64/Linux_for_Tegra/sources/tegra/optee-src/nv-optee/optee/optee_os/lib/libutee/include/utee_syscalls_asm.S:73
    8300:	d28003e8 	mov	x8, #0x1f                  	// #31
    8304:	d4000001 	svc	#0x0
    8308:	d65f03c0 	ret

000000000000830c <_utee_cryp_derive_key>:
_utee_cryp_derive_key():
/home/ssysarch/Desktop/nick/jetpack_5/Jetson_Linux_R35.4.1_aarch64/Linux_for_Tegra/sources/tegra/optee-src/nv-optee/optee/optee_os/lib/libutee/include/utee_syscalls_asm.S:75
    830c:	d2800408 	mov	x8, #0x20                  	// #32
    8310:	d4000001 	svc	#0x0
    8314:	d65f03c0 	ret

0000000000008318 <_utee_cryp_random_number_generate>:
_utee_cryp_random_number_generate():
/home/ssysarch/Desktop/nick/jetpack_5/Jetson_Linux_R35.4.1_aarch64/Linux_for_Tegra/sources/tegra/optee-src/nv-optee/optee/optee_os/lib/libutee/include/utee_syscalls_asm.S:77
    8318:	d2800428 	mov	x8, #0x21                  	// #33
    831c:	d4000001 	svc	#0x0
    8320:	d65f03c0 	ret

0000000000008324 <_utee_authenc_init>:
_utee_authenc_init():
